
80_key_MASTER.elf:     file format elf32-littleriscv
80_key_MASTER.elf
architecture: riscv:rv32, flags 0x00000112:
EXEC_P, HAS_SYMS, D_PAGED
start address 0x00000000

Program Header:
    LOAD off    0x00001000 vaddr 0x00000000 paddr 0x00000000 align 2**12
         filesz 0x00003e88 memsz 0x00003e88 flags r-x
    LOAD off    0x00005000 vaddr 0x20000000 paddr 0x00003e88 align 2**12
         filesz 0x00000028 memsz 0x00000168 flags rw-
    LOAD off    0x00005800 vaddr 0x20004800 paddr 0x20004800 align 2**12
         filesz 0x00000000 memsz 0x00000800 flags rw-

Sections:
Idx Name           Size      VMA       LMA       File off  Algn  Flags
  0 .init          00000038  00000000  00000000  00001000  2**1  CONTENTS, ALLOC, LOAD, READONLY, CODE
  1 .vector        00000108  00000038  00000038  00001038  2**1  CONTENTS, ALLOC, LOAD, READONLY, CODE
  2 .text          00003d48  00000140  00000140  00001140  2**3  CONTENTS, ALLOC, LOAD, READONLY, CODE
  3 .fini          00000000  00003e88  00003e88  00005028  2**0  CONTENTS, ALLOC, LOAD, CODE
  4 .dalign        00000000  20000000  20000000  00005028  2**0  CONTENTS
  5 .dlalign       00000000  00003e88  00003e88  00005028  2**0  CONTENTS
  6 .data          00000028  20000000  00003e88  00005000  2**2  CONTENTS, ALLOC, LOAD, DATA
  7 .bss           00000140  20000028  00003eb0  00005028  2**2  ALLOC
  8 .stack         00000800  20004800  20004800  00005800  2**0  ALLOC
  9 .debug_info    0001552f  00000000  00000000  00005028  2**0  CONTENTS, READONLY, DEBUGGING
 10 .debug_abbrev  000036dc  00000000  00000000  0001a557  2**0  CONTENTS, READONLY, DEBUGGING
 11 .debug_aranges 00000a80  00000000  00000000  0001dc38  2**3  CONTENTS, READONLY, DEBUGGING
 12 .debug_ranges  000009d0  00000000  00000000  0001e6b8  2**3  CONTENTS, READONLY, DEBUGGING
 13 .debug_line    0000db67  00000000  00000000  0001f088  2**0  CONTENTS, READONLY, DEBUGGING
 14 .debug_str     000039db  00000000  00000000  0002cbef  2**0  CONTENTS, READONLY, DEBUGGING
 15 .comment       00000033  00000000  00000000  000305ca  2**0  CONTENTS, READONLY
 16 .debug_frame   00001ad4  00000000  00000000  00030600  2**2  CONTENTS, READONLY, DEBUGGING
 17 .debug_loc     00004e8d  00000000  00000000  000320d4  2**0  CONTENTS, READONLY, DEBUGGING
 18 .stabstr       00000183  00000000  00000000  00036f61  2**0  CONTENTS, READONLY, DEBUGGING
SYMBOL TABLE:
00000000 l    d  .init	00000000 .init
00000038 l    d  .vector	00000000 .vector
00000140 l    d  .text	00000000 .text
00003e88 l    d  .fini	00000000 .fini
20000000 l    d  .dalign	00000000 .dalign
00003e88 l    d  .dlalign	00000000 .dlalign
20000000 l    d  .data	00000000 .data
20000028 l    d  .bss	00000000 .bss
20004800 l    d  .stack	00000000 .stack
00000000 l    d  .debug_info	00000000 .debug_info
00000000 l    d  .debug_abbrev	00000000 .debug_abbrev
00000000 l    d  .debug_aranges	00000000 .debug_aranges
00000000 l    d  .debug_ranges	00000000 .debug_ranges
00000000 l    d  .debug_line	00000000 .debug_line
00000000 l    d  .debug_str	00000000 .debug_str
00000000 l    d  .comment	00000000 .comment
00000000 l    d  .debug_frame	00000000 .debug_frame
00000000 l    d  .debug_loc	00000000 .debug_loc
00000000 l    d  .stabstr	00000000 .stabstr
00000000 l    df *ABS*	00000000 ./Libraries/wch_libraries/Startup/startup_ch32v10x.o
00000038 l       .vector	00000000 _vector_base
00000000 l    df *ABS*	00000000 isr.c
00000000 l    df *ABS*	00000000 main.c
20000043 l     O .bss	00000001 uart_num.5996
00000000 l    df *ABS*	00000000 ch32v10x_dma.c
00000000 l    df *ABS*	00000000 ch32v10x_exti.c
00000000 l    df *ABS*	00000000 ch32v10x_gpio.c
00000000 l    df *ABS*	00000000 ch32v10x_misc.c
00000000 l    df *ABS*	00000000 ch32v10x_rcc.c
20000000 l     O .data	00000010 APBAHBPrescTable
20000020 l     O .data	00000004 ADCPrescTable
00000000 l    df *ABS*	00000000 ch32v10x_tim.c
00000000 l    df *ABS*	00000000 ch32v10x_usart.c
00000000 l    df *ABS*	00000000 SEEKFREE_MT9V03X.c
00000000 l    df *ABS*	00000000 SEEKFREE_UART_7725.c
00000000 l    df *ABS*	00000000 zf_gpio.c
00000000 l    df *ABS*	00000000 zf_nvic.c
00000000 l    df *ABS*	00000000 zf_pwm.c
00000000 l    df *ABS*	00000000 zf_qtimer.c
00000000 l    df *ABS*	00000000 zf_uart.c
00000000 l    df *ABS*	00000000 board.c
00000000 l    df *ABS*	00000000 clock_config.c
00000000 l    df *ABS*	00000000 Motor.c
00000000 l    df *ABS*	00000000 PID.c
00000000 l    df *ABS*	00000000 adddf3.c
00000000 l    df *ABS*	00000000 muldf3.c
00000000 l    df *ABS*	00000000 fixdfsi.c
00000000 l    df *ABS*	00000000 floatsidf.c
00000000 l    df *ABS*	00000000 addsf3.c
00000000 l    df *ABS*	00000000 gesf2.c
00000000 l    df *ABS*	00000000 lesf2.c
00000000 l    df *ABS*	00000000 mulsf3.c
00000000 l    df *ABS*	00000000 subsf3.c
00000000 l    df *ABS*	00000000 fixsfsi.c
00000000 l    df *ABS*	00000000 floatsisf.c
00000000 l    df *ABS*	00000000 libgcc2.c
00000000 l    df *ABS*	00000000 libgcc2.c
00000000 l    df *ABS*	00000000 common.c
00000000 l    df *ABS*	00000000 close.c
000010a8 g     F .text	00000018 TIM_TimeBaseStructInit
2000003c g     O .bss	00000002 target_rl_speed
0000016e g     F .text	0000000a EXTI2_IRQHandler
2000002e g     O .bss	00000002 slave_encoder_left
000015a2 g     F .text	00000054 gpio_interrupt_init
20000810 g       .data	00000000 __global_pointer$
00000224 g     F .text	00000074 TIM1_CC_IRQHandler
00000382 g     F .text	00000002 HardFault_Handler
00002072 g     F .text	000000ca Duty_Single
00001138 g     F .text	00000012 TIM_OC1PreloadConfig
00000c70 g     F .text	00000064 NVIC_Init
20000058 g     O .bss	00000004 sys_clk
20000014 g     O .data	00000002 servo_toS_duty
0000213c g     F .text	0000002e Duty_All
0000037e g     F .text	00000004 NMI_Handler
00003aa2 g     F .text	00000062 .hidden __fixsfsi
200000fc g     O .bss	00000028 Pid_rl
00000178 g     F .text	00000004 EXTI3_IRQHandler
20000024 g     O .data	00000004 camera_type
00003cb0 g     O .text	00000010 TIMERN
200000d4 g     O .bss	00000028 Pid_fr
20000028 g       .bss	00000000 _sbss
00000800 g       *ABS*	00000000 __stack_size
2000014c g     O .bss	0000000e temp_buff
0000371a g     F .text	00000388 .hidden __subsf3
20000042 g     O .bss	00000001 uart_flag
2000004d g     O .bss	00000001 ov7725_uart_finish_flag
000008e6 g     F .text	0000001c Encoder_Init_Master
2000001a g     O .data	00000002 target_rotate_speed
000010dc g     F .text	00000016 TIM_CtrlPWMOutputs
00000bbe g     F .text	00000086 GPIO_PinRemapConfig
00002f9c g     F .text	00000072 .hidden __floatsidf
0000049a g     F .text	0000044c EXTI0_IRQHandler
00000384 g     F .text	0000006c get_slave_data
000010c0 g     F .text	0000001c TIM_Cmd
00001176 g     F .text	0000001a TIM_OC4PreloadConfig
0000133e g     F .text	0000000a USART_ReceiveData
20000030 g     O .bss	00000002 slave_encoder_right
00000038 g       .init	00000000 _einit
00001654 g     F .text	00000018 sys_recover_irq
00001204 g     F .text	0000000e TIM_ClearITPendingBit
000033fe g     F .text	0000008c .hidden __lesf2
00000d84 g     F .text	0000001e RCC_APB2PeriphClockCmd
000013f2 g     F .text	0000002a mt9v03x_vsync
00000188 g     F .text	00000004 ADC1_2_IRQHandler
00000af2 g     F .text	000000c2 GPIO_Init
00001606 g     F .text	0000004e nvic_init
2000001e g     O .data	00000002 target_sup_speed
000012ec g     F .text	0000001c USART_Cmd
00000f74 g     F .text	000000b2 TIM_OC3Init
0000138c g     F .text	00000016 USART_ClearITPendingBit
00000da2 g     F .text	0000001e RCC_APB1PeriphClockCmd
0000234c g     F .text	00000730 .hidden __adddf3
2000003a g     O .bss	00000002 target_fr_speed
00001b12 g     F .text	00000102 timer_gpio_quad_init
000003f0 g     F .text	00000072 data_analysis
00000346 g     F .text	00000038 DMA1_Channel4_IRQHandler
20000032 g     O .bss	00000002 slave_position
000011bc g     F .text	00000012 TIM_OC3FastConfig
2000002d g     O .bss	00000001 show_flag
2000001c g     O .data	00000002 target_rotate_sup_speed
00000a26 g     F .text	00000020 DMA_GetFlagStatus
00000462 g     F .text	00000038 USART3_IRQHandler
00000ae8 g     F .text	0000000a EXTI_ClearITPendingBit
20000168 g       .bss	00000000 _ebss
00001348 g     F .text	00000044 USART_GetITStatus
00000e38 g     F .text	00000088 TIM_OC1Init
00001164 g     F .text	00000012 TIM_OC3PreloadConfig
000021b0 g     F .text	00000084 PID_Init
00002f34 g     F .text	00000068 .hidden __fixdfsi
00003378 g     F .text	00000086 .hidden __gtsf2
00001424 g     F .text	00000050 ov7725_cof_uart_interrupt
00003cc0 g     O .text	00000010 UARTN
000018d6 g     F .text	000001cc pwm_init
000002d8 g     F .text	00000026 TIM4_IRQHandler
20000012 g     O .data	00000002 servo_StoR_duty
00000bb4 g     F .text	0000000a GPIO_WriteBit
20000054 g     O .bss	00000001 ov7725_uart_receive_num
00001fec g     F .text	00000086 Duty_Init
20000168 g       .bss	00000000 end
00001c14 g     F .text	000000de timer_quad_init
000011e8 g     F .text	0000001c TIM_GetITStatus
00000cd4 g     F .text	000000b0 RCC_GetClocksFreq
00003bca g     F .text	00000076 .hidden __clzsi2
00001dd0 g     F .text	000000b2 uart_init
00001212 g     F .text	000000da USART_Init
000002b2 g     F .text	00000026 TIM3_IRQHandler
00001692 g     F .text	0000000a EnableGlobalIRQ
00001d1a g     F .text	000000b6 uart_gpio_init
000001dc g     F .text	00000048 TIM1_TRG_COM_IRQHandler
00001190 g     F .text	00000012 TIM_OC1FastConfig
0000148a g     F .text	00000016 ov7725_uart_dma
00000000 g       .init	00000000 _start
20000010 g     O .data	00000002 servo_StoL_duty
2000002a g     O .bss	00000002 master_encoder_right
20000053 g     O .bss	00000001 ov7725_uart_receive_flag
0000114a g     F .text	0000001a TIM_OC2PreloadConfig
000015f6 g     F .text	00000010 close_all_irq
00003b04 g     F .text	000000c6 .hidden __floatsisf
00000184 g     F .text	00000004 EXTI15_10_IRQHandler
00003ca0 g     O .text	00000010 GPION
20000034 g     O .bss	00000002 slave_position_filter
00000ec0 g     F .text	000000b4 TIM_OC2Init
00001308 g     F .text	00000036 USART_ITConfig
00000a60 g     F .text	0000006a EXTI_Init
20000000 g       .dalign	00000000 _data_vma
00001026 g     F .text	00000082 TIM_OC4Init
00000180 g     F .text	00000004 EXTI9_5_IRQHandler
00000c44 g     F .text	0000002c GPIO_EXTILineConfig
00001eb8 g     F .text	00000032 board_init
00002a7c g     F .text	000004b8 .hidden __muldf3
00000aca g     F .text	0000001e EXTI_GetITStatus
0000141c g     F .text	00000008 mt9v03x_dma
20000018 g     O .data	00000002 target_out_speed
00000902 g     F .text	000000aa main
000033fe g     F .text	0000008c .hidden __ltsf2
000011a2 g     F .text	0000001a TIM_OC2FastConfig
0000017c g     F .text	00000004 EXTI4_IRQHandler
0000348a g     F .text	00000290 .hidden __mulsf3
0000166c g     F .text	00000026 DisableGlobalIRQ
00001eea g     F .text	00000102 SystemInit
00003d88 g     O .text	00000100 .hidden __clz_tab
00000000 g       .init	00000000 _sinit
00003378 g     F .text	00000086 .hidden __gesf2
2000004b g     O .bss	00000001 receive_num
2000015c g     O .bss	0000000c irq_status
20000038 g     O .bss	00000002 target_fl_speed
000001b6 g     F .text	00000026 TIM1_UP_IRQHandler
20000048 g     O .bss	00000003 receive
00001474 g     F .text	00000016 ov7725_uart_vsync
20000028 g     O .bss	00000002 master_encoder_left
00002298 g     F .text	000000b4 PID_incCtrl
00002234 g     F .text	00000064 PID_posCtrl
00000298 g     F .text	0000001a TIM2_IRQHandler
20005000 g       .stack	00000000 _eusrstack
200000ac g     O .bss	00000028 Pid_fl
20000016 g     O .data	00000002 target_main_speed
2000004c g     O .bss	00000001 uart_receive_flag
00001aa2 g     F .text	00000070 pwm_duty
000013a2 g     F .text	00000050 mt9v03x_uart_callback
20000044 g     O .bss	00000001 mt9v03x_finish_flag
0000018c g     F .text	0000002a TIM1_BRK_IRQHandler
00000140 g     F .text	0000002e EXTI1_IRQHandler
20000028 g       .data	00000000 _edata
00000dc0 g     F .text	00000078 TIM_TimeBaseInit
20000036 g     O .bss	00000002 slave_position_filter_Cnt
00003e88 g       .dlalign	00000000 _data_lma
00000302 g     F .text	00000044 USART2_IRQHandler
20000040 g     O .bss	00000002 transinfo
00000a46 g     F .text	0000001a DMA_ClearFlag
000009ac  w      .text	00000000 handle_reset
0000169c g     F .text	0000023a pwm_gpio_init
00001cf2 g     F .text	00000016 timer_quad_get
2000003e g     O .bss	00000002 target_rr_speed
20000124 g     O .bss	00000028 Pid_rr
000002fe g     F .text	00000004 USART1_IRQHandler
00001e82 g     F .text	00000036 uart_rx_irq
0000157e g     F .text	00000024 gpio_set
00001d08 g     F .text	00000012 timer_quad_clear
2000002c g     O .bss	00000001 motion_Sign
000014a0 g     F .text	000000de gpio_init
000010f2 g     F .text	00000046 TIM_EncoderInterfaceConfig
0000216a g     F .text	00000046 PID_dir_Init
2000005c g     O .bss	00000028 Pid_dir_crab
000011ce g     F .text	0000001a TIM_OC4FastConfig
0000300e g     F .text	0000036a .hidden __addsf3
20000050 g     O .bss	00000003 ov7725_uart_receive
20000084 g     O .bss	00000028 Pid_dir_redbull



Disassembly of section .init:

00000000 <_sinit>:
_start():
C:\Users\windows\Desktop\比赛\100 成渝版 带按键\17 110 舵机横向放置 比赛版\RED_BULL\Dual-core_Communication_Demo\MASTER\obj/../Libraries/wch_libraries/Startup/startup_ch32v10x.S:13

	.section	.init,"ax",@progbits
	.global	_start
	.align	1
_start:
	j	handle_reset
   0:	1ad0006f          	j	9ac <handle_reset>
   4:	00000013          	nop
   8:	00000013          	nop
   c:	00000013          	nop
  10:	00000013          	nop
  14:	00000013          	nop
  18:	00000013          	nop
  1c:	00000013          	nop
  20:	00000013          	nop
  24:	00000013          	nop
  28:	00000013          	nop
  2c:	00000013          	nop
  30:	00000013          	nop
  34:	00100073          	ebreak

Disassembly of section .vector:

00000038 <_vector_base>:
_vector_base():
C:\Users\windows\Desktop\比赛\100 成渝版 带按键\17 110 舵机横向放置 比赛版\RED_BULL\Dual-core_Communication_Demo\MASTER\obj/../Libraries/wch_libraries/Startup/startup_ch32v10x.S:31
	.word 0x00100073
    .section    .vector,"ax",@progbits
    .align  1
_vector_base:
    .option norvc;
        j   _start
  38:	fc9ff06f          	j	0 <_sinit>
  3c:	0000                	unimp
  3e:	0000                	unimp
C:\Users\windows\Desktop\比赛\100 成渝版 带按键\17 110 舵机横向放置 比赛版\RED_BULL\Dual-core_Communication_Demo\MASTER\obj/../Libraries/wch_libraries/Startup/startup_ch32v10x.S:33
    .word   0
        j   NMI_Handler                 /* NMI Handler */
  40:	33e0006f          	j	37e <NMI_Handler>
C:\Users\windows\Desktop\比赛\100 成渝版 带按键\17 110 舵机横向放置 比赛版\RED_BULL\Dual-core_Communication_Demo\MASTER\obj/../Libraries/wch_libraries/Startup/startup_ch32v10x.S:34
        j   HardFault_Handler           /* Hard Fault Handler */
  44:	33e0006f          	j	382 <HardFault_Handler>
	...
C:\Users\windows\Desktop\比赛\100 成渝版 带按键\17 110 舵机横向放置 比赛版\RED_BULL\Dual-core_Communication_Demo\MASTER\obj/../Libraries/wch_libraries/Startup/startup_ch32v10x.S:43
    .word   0
    .word   0
    .word   0
    .word   0
    .word   0
        j   SysTick_Handler            /* SysTick Handler */
  68:	f99ff06f          	j	0 <_sinit>
  6c:	0000                	unimp
  6e:	0000                	unimp
C:\Users\windows\Desktop\比赛\100 成渝版 带按键\17 110 舵机横向放置 比赛版\RED_BULL\Dual-core_Communication_Demo\MASTER\obj/../Libraries/wch_libraries/Startup/startup_ch32v10x.S:45
    .word   0
        j   SW_handler                 /* SW Handler */
  70:	f91ff06f          	j	0 <_sinit>
  74:	0000                	unimp
  76:	0000                	unimp
C:\Users\windows\Desktop\比赛\100 成渝版 带按键\17 110 舵机横向放置 比赛版\RED_BULL\Dual-core_Communication_Demo\MASTER\obj/../Libraries/wch_libraries/Startup/startup_ch32v10x.S:48
    .word   0
    /* External Interrupts */
        j   WWDG_IRQHandler            /* Window Watchdog */
  78:	f89ff06f          	j	0 <_sinit>
C:\Users\windows\Desktop\比赛\100 成渝版 带按键\17 110 舵机横向放置 比赛版\RED_BULL\Dual-core_Communication_Demo\MASTER\obj/../Libraries/wch_libraries/Startup/startup_ch32v10x.S:49
        j   PVD_IRQHandler             /* PVD through EXTI Line detect */
  7c:	f85ff06f          	j	0 <_sinit>
C:\Users\windows\Desktop\比赛\100 成渝版 带按键\17 110 舵机横向放置 比赛版\RED_BULL\Dual-core_Communication_Demo\MASTER\obj/../Libraries/wch_libraries/Startup/startup_ch32v10x.S:50
        j   TAMPER_IRQHandler          /* TAMPER */
  80:	f81ff06f          	j	0 <_sinit>
C:\Users\windows\Desktop\比赛\100 成渝版 带按键\17 110 舵机横向放置 比赛版\RED_BULL\Dual-core_Communication_Demo\MASTER\obj/../Libraries/wch_libraries/Startup/startup_ch32v10x.S:51
        j   RTC_IRQHandler             /* RTC */
  84:	f7dff06f          	j	0 <_sinit>
C:\Users\windows\Desktop\比赛\100 成渝版 带按键\17 110 舵机横向放置 比赛版\RED_BULL\Dual-core_Communication_Demo\MASTER\obj/../Libraries/wch_libraries/Startup/startup_ch32v10x.S:52
        j   FLASH_IRQHandler           /* Flash */
  88:	f79ff06f          	j	0 <_sinit>
C:\Users\windows\Desktop\比赛\100 成渝版 带按键\17 110 舵机横向放置 比赛版\RED_BULL\Dual-core_Communication_Demo\MASTER\obj/../Libraries/wch_libraries/Startup/startup_ch32v10x.S:53
        j   RCC_IRQHandler             /* RCC */
  8c:	f75ff06f          	j	0 <_sinit>
C:\Users\windows\Desktop\比赛\100 成渝版 带按键\17 110 舵机横向放置 比赛版\RED_BULL\Dual-core_Communication_Demo\MASTER\obj/../Libraries/wch_libraries/Startup/startup_ch32v10x.S:54
        j   EXTI0_IRQHandler           /* EXTI Line 0 */
  90:	40a0006f          	j	49a <EXTI0_IRQHandler>
C:\Users\windows\Desktop\比赛\100 成渝版 带按键\17 110 舵机横向放置 比赛版\RED_BULL\Dual-core_Communication_Demo\MASTER\obj/../Libraries/wch_libraries/Startup/startup_ch32v10x.S:55
        j   EXTI1_IRQHandler           /* EXTI Line 1 */
  94:	0ac0006f          	j	140 <EXTI1_IRQHandler>
C:\Users\windows\Desktop\比赛\100 成渝版 带按键\17 110 舵机横向放置 比赛版\RED_BULL\Dual-core_Communication_Demo\MASTER\obj/../Libraries/wch_libraries/Startup/startup_ch32v10x.S:56
        j   EXTI2_IRQHandler           /* EXTI Line 2 */
  98:	0d60006f          	j	16e <EXTI2_IRQHandler>
C:\Users\windows\Desktop\比赛\100 成渝版 带按键\17 110 舵机横向放置 比赛版\RED_BULL\Dual-core_Communication_Demo\MASTER\obj/../Libraries/wch_libraries/Startup/startup_ch32v10x.S:57
        j   EXTI3_IRQHandler           /* EXTI Line 3 */
  9c:	0dc0006f          	j	178 <EXTI3_IRQHandler>
C:\Users\windows\Desktop\比赛\100 成渝版 带按键\17 110 舵机横向放置 比赛版\RED_BULL\Dual-core_Communication_Demo\MASTER\obj/../Libraries/wch_libraries/Startup/startup_ch32v10x.S:58
        j   EXTI4_IRQHandler           /* EXTI Line 4 */
  a0:	0dc0006f          	j	17c <EXTI4_IRQHandler>
C:\Users\windows\Desktop\比赛\100 成渝版 带按键\17 110 舵机横向放置 比赛版\RED_BULL\Dual-core_Communication_Demo\MASTER\obj/../Libraries/wch_libraries/Startup/startup_ch32v10x.S:59
        j   DMA1_Channel1_IRQHandler   /* DMA1 Channel 1 */
  a4:	f5dff06f          	j	0 <_sinit>
C:\Users\windows\Desktop\比赛\100 成渝版 带按键\17 110 舵机横向放置 比赛版\RED_BULL\Dual-core_Communication_Demo\MASTER\obj/../Libraries/wch_libraries/Startup/startup_ch32v10x.S:60
        j   DMA1_Channel2_IRQHandler   /* DMA1 Channel 2 */
  a8:	f59ff06f          	j	0 <_sinit>
C:\Users\windows\Desktop\比赛\100 成渝版 带按键\17 110 舵机横向放置 比赛版\RED_BULL\Dual-core_Communication_Demo\MASTER\obj/../Libraries/wch_libraries/Startup/startup_ch32v10x.S:61
        j   DMA1_Channel3_IRQHandler   /* DMA1 Channel 3 */
  ac:	f55ff06f          	j	0 <_sinit>
C:\Users\windows\Desktop\比赛\100 成渝版 带按键\17 110 舵机横向放置 比赛版\RED_BULL\Dual-core_Communication_Demo\MASTER\obj/../Libraries/wch_libraries/Startup/startup_ch32v10x.S:62
        j   DMA1_Channel4_IRQHandler   /* DMA1 Channel 4 */
  b0:	2960006f          	j	346 <DMA1_Channel4_IRQHandler>
C:\Users\windows\Desktop\比赛\100 成渝版 带按键\17 110 舵机横向放置 比赛版\RED_BULL\Dual-core_Communication_Demo\MASTER\obj/../Libraries/wch_libraries/Startup/startup_ch32v10x.S:63
        j   DMA1_Channel5_IRQHandler   /* DMA1 Channel 5 */
  b4:	f4dff06f          	j	0 <_sinit>
C:\Users\windows\Desktop\比赛\100 成渝版 带按键\17 110 舵机横向放置 比赛版\RED_BULL\Dual-core_Communication_Demo\MASTER\obj/../Libraries/wch_libraries/Startup/startup_ch32v10x.S:64
        j   DMA1_Channel6_IRQHandler   /* DMA1 Channel 6 */
  b8:	f49ff06f          	j	0 <_sinit>
C:\Users\windows\Desktop\比赛\100 成渝版 带按键\17 110 舵机横向放置 比赛版\RED_BULL\Dual-core_Communication_Demo\MASTER\obj/../Libraries/wch_libraries/Startup/startup_ch32v10x.S:65
        j   DMA1_Channel7_IRQHandler   /* DMA1 Channel 7 */
  bc:	f45ff06f          	j	0 <_sinit>
C:\Users\windows\Desktop\比赛\100 成渝版 带按键\17 110 舵机横向放置 比赛版\RED_BULL\Dual-core_Communication_Demo\MASTER\obj/../Libraries/wch_libraries/Startup/startup_ch32v10x.S:66
        j   ADC1_2_IRQHandler          /* ADC1_2 */
  c0:	0c80006f          	j	188 <ADC1_2_IRQHandler>
	...
C:\Users\windows\Desktop\比赛\100 成渝版 带按键\17 110 舵机横向放置 比赛版\RED_BULL\Dual-core_Communication_Demo\MASTER\obj/../Libraries/wch_libraries/Startup/startup_ch32v10x.S:71
        .word   0
        .word   0
        .word   0
        .word   0
        j   EXTI9_5_IRQHandler         /* EXTI Line 9..5 */
  d4:	0ac0006f          	j	180 <EXTI9_5_IRQHandler>
C:\Users\windows\Desktop\比赛\100 成渝版 带按键\17 110 舵机横向放置 比赛版\RED_BULL\Dual-core_Communication_Demo\MASTER\obj/../Libraries/wch_libraries/Startup/startup_ch32v10x.S:72
        j   TIM1_BRK_IRQHandler        /* TIM1 Break */
  d8:	0b40006f          	j	18c <TIM1_BRK_IRQHandler>
C:\Users\windows\Desktop\比赛\100 成渝版 带按键\17 110 舵机横向放置 比赛版\RED_BULL\Dual-core_Communication_Demo\MASTER\obj/../Libraries/wch_libraries/Startup/startup_ch32v10x.S:73
        j   TIM1_UP_IRQHandler         /* TIM1 Update */
  dc:	0da0006f          	j	1b6 <TIM1_UP_IRQHandler>
C:\Users\windows\Desktop\比赛\100 成渝版 带按键\17 110 舵机横向放置 比赛版\RED_BULL\Dual-core_Communication_Demo\MASTER\obj/../Libraries/wch_libraries/Startup/startup_ch32v10x.S:74
        j   TIM1_TRG_COM_IRQHandler    /* TIM1 Trigger and Commutation */
  e0:	0fc0006f          	j	1dc <TIM1_TRG_COM_IRQHandler>
C:\Users\windows\Desktop\比赛\100 成渝版 带按键\17 110 舵机横向放置 比赛版\RED_BULL\Dual-core_Communication_Demo\MASTER\obj/../Libraries/wch_libraries/Startup/startup_ch32v10x.S:75
        j   TIM1_CC_IRQHandler         /* TIM1 Capture Compare */
  e4:	1400006f          	j	224 <TIM1_CC_IRQHandler>
C:\Users\windows\Desktop\比赛\100 成渝版 带按键\17 110 舵机横向放置 比赛版\RED_BULL\Dual-core_Communication_Demo\MASTER\obj/../Libraries/wch_libraries/Startup/startup_ch32v10x.S:76
        j   TIM2_IRQHandler            /* TIM2 */
  e8:	1b00006f          	j	298 <TIM2_IRQHandler>
C:\Users\windows\Desktop\比赛\100 成渝版 带按键\17 110 舵机横向放置 比赛版\RED_BULL\Dual-core_Communication_Demo\MASTER\obj/../Libraries/wch_libraries/Startup/startup_ch32v10x.S:77
        j   TIM3_IRQHandler            /* TIM3 */
  ec:	1c60006f          	j	2b2 <TIM3_IRQHandler>
C:\Users\windows\Desktop\比赛\100 成渝版 带按键\17 110 舵机横向放置 比赛版\RED_BULL\Dual-core_Communication_Demo\MASTER\obj/../Libraries/wch_libraries/Startup/startup_ch32v10x.S:78
        j   TIM4_IRQHandler            /* TIM4 */
  f0:	1e80006f          	j	2d8 <TIM4_IRQHandler>
C:\Users\windows\Desktop\比赛\100 成渝版 带按键\17 110 舵机横向放置 比赛版\RED_BULL\Dual-core_Communication_Demo\MASTER\obj/../Libraries/wch_libraries/Startup/startup_ch32v10x.S:79
        j   I2C1_EV_IRQHandler         /* I2C1 Event */
  f4:	f0dff06f          	j	0 <_sinit>
C:\Users\windows\Desktop\比赛\100 成渝版 带按键\17 110 舵机横向放置 比赛版\RED_BULL\Dual-core_Communication_Demo\MASTER\obj/../Libraries/wch_libraries/Startup/startup_ch32v10x.S:80
        j   I2C1_ER_IRQHandler         /* I2C1 Error */
  f8:	f09ff06f          	j	0 <_sinit>
C:\Users\windows\Desktop\比赛\100 成渝版 带按键\17 110 舵机横向放置 比赛版\RED_BULL\Dual-core_Communication_Demo\MASTER\obj/../Libraries/wch_libraries/Startup/startup_ch32v10x.S:81
        j   I2C2_EV_IRQHandler         /* I2C2 Event */
  fc:	f05ff06f          	j	0 <_sinit>
C:\Users\windows\Desktop\比赛\100 成渝版 带按键\17 110 舵机横向放置 比赛版\RED_BULL\Dual-core_Communication_Demo\MASTER\obj/../Libraries/wch_libraries/Startup/startup_ch32v10x.S:82
        j   I2C2_ER_IRQHandler         /* I2C2 Error */
 100:	f01ff06f          	j	0 <_sinit>
C:\Users\windows\Desktop\比赛\100 成渝版 带按键\17 110 舵机横向放置 比赛版\RED_BULL\Dual-core_Communication_Demo\MASTER\obj/../Libraries/wch_libraries/Startup/startup_ch32v10x.S:83
        j   SPI1_IRQHandler            /* SPI1 */
 104:	efdff06f          	j	0 <_sinit>
C:\Users\windows\Desktop\比赛\100 成渝版 带按键\17 110 舵机横向放置 比赛版\RED_BULL\Dual-core_Communication_Demo\MASTER\obj/../Libraries/wch_libraries/Startup/startup_ch32v10x.S:84
        j   SPI2_IRQHandler            /* SPI2 */
 108:	ef9ff06f          	j	0 <_sinit>
C:\Users\windows\Desktop\比赛\100 成渝版 带按键\17 110 舵机横向放置 比赛版\RED_BULL\Dual-core_Communication_Demo\MASTER\obj/../Libraries/wch_libraries/Startup/startup_ch32v10x.S:85
        j   USART1_IRQHandler          /* USART1 */
 10c:	1f20006f          	j	2fe <USART1_IRQHandler>
C:\Users\windows\Desktop\比赛\100 成渝版 带按键\17 110 舵机横向放置 比赛版\RED_BULL\Dual-core_Communication_Demo\MASTER\obj/../Libraries/wch_libraries/Startup/startup_ch32v10x.S:86
        j   USART2_IRQHandler          /* USART2 */
 110:	1f20006f          	j	302 <USART2_IRQHandler>
C:\Users\windows\Desktop\比赛\100 成渝版 带按键\17 110 舵机横向放置 比赛版\RED_BULL\Dual-core_Communication_Demo\MASTER\obj/../Libraries/wch_libraries/Startup/startup_ch32v10x.S:87
        j   USART3_IRQHandler          /* USART3 */
 114:	34e0006f          	j	462 <USART3_IRQHandler>
C:\Users\windows\Desktop\比赛\100 成渝版 带按键\17 110 舵机横向放置 比赛版\RED_BULL\Dual-core_Communication_Demo\MASTER\obj/../Libraries/wch_libraries/Startup/startup_ch32v10x.S:88
        j   EXTI15_10_IRQHandler       /* EXTI Line 15..10 */
 118:	06c0006f          	j	184 <EXTI15_10_IRQHandler>
C:\Users\windows\Desktop\比赛\100 成渝版 带按键\17 110 舵机横向放置 比赛版\RED_BULL\Dual-core_Communication_Demo\MASTER\obj/../Libraries/wch_libraries/Startup/startup_ch32v10x.S:89
        j   RTCAlarm_IRQHandler        /* RTC Alarm through EXTI Line */
 11c:	ee5ff06f          	j	0 <_sinit>
C:\Users\windows\Desktop\比赛\100 成渝版 带按键\17 110 舵机横向放置 比赛版\RED_BULL\Dual-core_Communication_Demo\MASTER\obj/../Libraries/wch_libraries/Startup/startup_ch32v10x.S:90
        j   USBWakeUp_IRQHandler       /* USB Wakeup from suspend */
 120:	ee1ff06f          	j	0 <_sinit>
C:\Users\windows\Desktop\比赛\100 成渝版 带按键\17 110 舵机横向放置 比赛版\RED_BULL\Dual-core_Communication_Demo\MASTER\obj/../Libraries/wch_libraries/Startup/startup_ch32v10x.S:91
        j   USBHD_IRQHandler           /* USBHD */
 124:	eddff06f          	j	0 <_sinit>
	...

Disassembly of section .text:

00000140 <EXTI1_IRQHandler>:
EXTI1_IRQHandler():
C:\Users\windows\Desktop\比赛\100 成渝版 带按键\17 110 舵机横向放置 比赛版\RED_BULL\Dual-core_Communication_Demo\MASTER\obj/../USER/isr.c:70
//
//}

void EXTI1_IRQHandler(void)
{
    if(SET == EXTI_GetITStatus(EXTI_Line1))
     140:	4509                	li	a0,2
     142:	189000ef          	jal	ra,aca <EXTI_GetITStatus>
     146:	4785                	li	a5,1
     148:	00f51c63          	bne	a0,a5,160 <EXTI1_IRQHandler+0x20>
C:\Users\windows\Desktop\比赛\100 成渝版 带按键\17 110 舵机横向放置 比赛版\RED_BULL\Dual-core_Communication_Demo\MASTER\obj/../USER/isr.c:72
    {
        if(camera_type == CAMERA_BIN_UART)
     14c:	8141a783          	lw	a5,-2028(gp) # 20000024 <camera_type>
     150:	4709                	li	a4,2
     152:	00e79963          	bne	a5,a4,164 <EXTI1_IRQHandler+0x24>
C:\Users\windows\Desktop\比赛\100 成渝版 带按键\17 110 舵机横向放置 比赛版\RED_BULL\Dual-core_Communication_Demo\MASTER\obj/../USER/isr.c:73
            ov7725_uart_vsync();
     156:	31e010ef          	jal	ra,1474 <ov7725_uart_vsync>
C:\Users\windows\Desktop\比赛\100 成渝版 带按键\17 110 舵机横向放置 比赛版\RED_BULL\Dual-core_Communication_Demo\MASTER\obj/../USER/isr.c:76
        else if(camera_type == CAMERA_GRAYSCALE)
            mt9v03x_vsync();
        EXTI_ClearITPendingBit(EXTI_Line1);
     15a:	4509                	li	a0,2
     15c:	18d000ef          	jal	ra,ae8 <EXTI_ClearITPendingBit>
C:\Users\windows\Desktop\比赛\100 成渝版 带按键\17 110 舵机横向放置 比赛版\RED_BULL\Dual-core_Communication_Demo\MASTER\obj/../USER/isr.c:79
    }

}
     160:	30200073          	mret
C:\Users\windows\Desktop\比赛\100 成渝版 带按键\17 110 舵机横向放置 比赛版\RED_BULL\Dual-core_Communication_Demo\MASTER\obj/../USER/isr.c:74
        else if(camera_type == CAMERA_GRAYSCALE)
     164:	fea79be3          	bne	a5,a0,15a <EXTI1_IRQHandler+0x1a>
C:\Users\windows\Desktop\比赛\100 成渝版 带按键\17 110 舵机横向放置 比赛版\RED_BULL\Dual-core_Communication_Demo\MASTER\obj/../USER/isr.c:75
            mt9v03x_vsync();
     168:	28a010ef          	jal	ra,13f2 <mt9v03x_vsync>
     16c:	b7fd                	j	15a <EXTI1_IRQHandler+0x1a>

0000016e <EXTI2_IRQHandler>:
EXTI2_IRQHandler():
C:\Users\windows\Desktop\比赛\100 成渝版 带按键\17 110 舵机横向放置 比赛版\RED_BULL\Dual-core_Communication_Demo\MASTER\obj/../USER/isr.c:83

void EXTI2_IRQHandler(void)
{
    EXTI_ClearITPendingBit(EXTI_Line2);
     16e:	4511                	li	a0,4
     170:	179000ef          	jal	ra,ae8 <EXTI_ClearITPendingBit>
C:\Users\windows\Desktop\比赛\100 成渝版 带按键\17 110 舵机横向放置 比赛版\RED_BULL\Dual-core_Communication_Demo\MASTER\obj/../USER/isr.c:84
}
     174:	30200073          	mret

00000178 <EXTI3_IRQHandler>:
EXTI3_IRQHandler():
     178:	30200073          	mret

0000017c <EXTI4_IRQHandler>:
EXTI4_IRQHandler():
     17c:	30200073          	mret

00000180 <EXTI9_5_IRQHandler>:
EXTI9_5_IRQHandler():
     180:	30200073          	mret

00000184 <EXTI15_10_IRQHandler>:
EXTI15_10_IRQHandler():
     184:	30200073          	mret

00000188 <ADC1_2_IRQHandler>:
ADC1_2_IRQHandler():
     188:	30200073          	mret

0000018c <TIM1_BRK_IRQHandler>:
TIM1_BRK_IRQHandler():
C:\Users\windows\Desktop\比赛\100 成渝版 带按键\17 110 舵机横向放置 比赛版\RED_BULL\Dual-core_Communication_Demo\MASTER\obj/../USER/isr.c:116


}

void TIM1_BRK_IRQHandler(void)
{
     18c:	1141                	addi	sp,sp,-16
     18e:	c622                	sw	s0,12(sp)
C:\Users\windows\Desktop\比赛\100 成渝版 带按键\17 110 舵机横向放置 比赛版\RED_BULL\Dual-core_Communication_Demo\MASTER\obj/../USER/isr.c:117
    if(TIM_GetITStatus(TIM1, TIM_IT_Break) != RESET)
     190:	40013437          	lui	s0,0x40013
     194:	08000593          	li	a1,128
     198:	c0040513          	addi	a0,s0,-1024 # 40012c00 <_eusrstack+0x2000dc00>
     19c:	04c010ef          	jal	ra,11e8 <TIM_GetITStatus>
     1a0:	c519                	beqz	a0,1ae <TIM1_BRK_IRQHandler+0x22>
C:\Users\windows\Desktop\比赛\100 成渝版 带按键\17 110 舵机横向放置 比赛版\RED_BULL\Dual-core_Communication_Demo\MASTER\obj/../USER/isr.c:119
    {
        TIM_ClearITPendingBit(TIM1, TIM_IT_Break);
     1a2:	08000593          	li	a1,128
     1a6:	c0040513          	addi	a0,s0,-1024
     1aa:	05a010ef          	jal	ra,1204 <TIM_ClearITPendingBit>
C:\Users\windows\Desktop\比赛\100 成渝版 带按键\17 110 舵机横向放置 比赛版\RED_BULL\Dual-core_Communication_Demo\MASTER\obj/../USER/isr.c:122

    }
}
     1ae:	4432                	lw	s0,12(sp)
     1b0:	0141                	addi	sp,sp,16
     1b2:	30200073          	mret

000001b6 <TIM1_UP_IRQHandler>:
TIM1_UP_IRQHandler():
C:\Users\windows\Desktop\比赛\100 成渝版 带按键\17 110 舵机横向放置 比赛版\RED_BULL\Dual-core_Communication_Demo\MASTER\obj/../USER/isr.c:125

void TIM1_UP_IRQHandler(void)
{
     1b6:	1141                	addi	sp,sp,-16
     1b8:	c622                	sw	s0,12(sp)
C:\Users\windows\Desktop\比赛\100 成渝版 带按键\17 110 舵机横向放置 比赛版\RED_BULL\Dual-core_Communication_Demo\MASTER\obj/../USER/isr.c:126
    if(TIM_GetITStatus(TIM1, TIM_IT_Update) != RESET)
     1ba:	40013437          	lui	s0,0x40013
     1be:	4585                	li	a1,1
     1c0:	c0040513          	addi	a0,s0,-1024 # 40012c00 <_eusrstack+0x2000dc00>
     1c4:	024010ef          	jal	ra,11e8 <TIM_GetITStatus>
     1c8:	c511                	beqz	a0,1d4 <TIM1_UP_IRQHandler+0x1e>
C:\Users\windows\Desktop\比赛\100 成渝版 带按键\17 110 舵机横向放置 比赛版\RED_BULL\Dual-core_Communication_Demo\MASTER\obj/../USER/isr.c:128
    {
        TIM_ClearITPendingBit(TIM1, TIM_IT_Update);
     1ca:	4585                	li	a1,1
     1cc:	c0040513          	addi	a0,s0,-1024
     1d0:	034010ef          	jal	ra,1204 <TIM_ClearITPendingBit>
C:\Users\windows\Desktop\比赛\100 成渝版 带按键\17 110 舵机横向放置 比赛版\RED_BULL\Dual-core_Communication_Demo\MASTER\obj/../USER/isr.c:131

    }
}
     1d4:	4432                	lw	s0,12(sp)
     1d6:	0141                	addi	sp,sp,16
     1d8:	30200073          	mret

000001dc <TIM1_TRG_COM_IRQHandler>:
TIM1_TRG_COM_IRQHandler():
C:\Users\windows\Desktop\比赛\100 成渝版 带按键\17 110 舵机横向放置 比赛版\RED_BULL\Dual-core_Communication_Demo\MASTER\obj/../USER/isr.c:134

void TIM1_TRG_COM_IRQHandler(void)
{
     1dc:	1141                	addi	sp,sp,-16
     1de:	c622                	sw	s0,12(sp)
C:\Users\windows\Desktop\比赛\100 成渝版 带按键\17 110 舵机横向放置 比赛版\RED_BULL\Dual-core_Communication_Demo\MASTER\obj/../USER/isr.c:135
    if(TIM_GetITStatus(TIM1, TIM_IT_Trigger) != RESET)
     1e0:	40013437          	lui	s0,0x40013
     1e4:	04000593          	li	a1,64
     1e8:	c0040513          	addi	a0,s0,-1024 # 40012c00 <_eusrstack+0x2000dc00>
     1ec:	7fd000ef          	jal	ra,11e8 <TIM_GetITStatus>
     1f0:	c519                	beqz	a0,1fe <TIM1_TRG_COM_IRQHandler+0x22>
C:\Users\windows\Desktop\比赛\100 成渝版 带按键\17 110 舵机横向放置 比赛版\RED_BULL\Dual-core_Communication_Demo\MASTER\obj/../USER/isr.c:137
    {
        TIM_ClearITPendingBit(TIM1, TIM_IT_Trigger);
     1f2:	04000593          	li	a1,64
     1f6:	c0040513          	addi	a0,s0,-1024
     1fa:	00a010ef          	jal	ra,1204 <TIM_ClearITPendingBit>
C:\Users\windows\Desktop\比赛\100 成渝版 带按键\17 110 舵机横向放置 比赛版\RED_BULL\Dual-core_Communication_Demo\MASTER\obj/../USER/isr.c:140

    }
    if(TIM_GetITStatus(TIM1, TIM_IT_COM) != RESET)
     1fe:	40013437          	lui	s0,0x40013
     202:	02000593          	li	a1,32
     206:	c0040513          	addi	a0,s0,-1024 # 40012c00 <_eusrstack+0x2000dc00>
     20a:	7df000ef          	jal	ra,11e8 <TIM_GetITStatus>
     20e:	c519                	beqz	a0,21c <TIM1_TRG_COM_IRQHandler+0x40>
C:\Users\windows\Desktop\比赛\100 成渝版 带按键\17 110 舵机横向放置 比赛版\RED_BULL\Dual-core_Communication_Demo\MASTER\obj/../USER/isr.c:142
    {
        TIM_ClearITPendingBit(TIM1, TIM_IT_COM);
     210:	02000593          	li	a1,32
     214:	c0040513          	addi	a0,s0,-1024
     218:	7ed000ef          	jal	ra,1204 <TIM_ClearITPendingBit>
C:\Users\windows\Desktop\比赛\100 成渝版 带按键\17 110 舵机横向放置 比赛版\RED_BULL\Dual-core_Communication_Demo\MASTER\obj/../USER/isr.c:145

    }
}
     21c:	4432                	lw	s0,12(sp)
     21e:	0141                	addi	sp,sp,16
     220:	30200073          	mret

00000224 <TIM1_CC_IRQHandler>:
TIM1_CC_IRQHandler():
C:\Users\windows\Desktop\比赛\100 成渝版 带按键\17 110 舵机横向放置 比赛版\RED_BULL\Dual-core_Communication_Demo\MASTER\obj/../USER/isr.c:148

void TIM1_CC_IRQHandler(void)
{
     224:	1141                	addi	sp,sp,-16
     226:	c622                	sw	s0,12(sp)
C:\Users\windows\Desktop\比赛\100 成渝版 带按键\17 110 舵机横向放置 比赛版\RED_BULL\Dual-core_Communication_Demo\MASTER\obj/../USER/isr.c:149
    if(TIM_GetITStatus(TIM1, TIM_IT_CC1) != RESET)
     228:	40013437          	lui	s0,0x40013
     22c:	4589                	li	a1,2
     22e:	c0040513          	addi	a0,s0,-1024 # 40012c00 <_eusrstack+0x2000dc00>
     232:	7b7000ef          	jal	ra,11e8 <TIM_GetITStatus>
     236:	c511                	beqz	a0,242 <TIM1_CC_IRQHandler+0x1e>
C:\Users\windows\Desktop\比赛\100 成渝版 带按键\17 110 舵机横向放置 比赛版\RED_BULL\Dual-core_Communication_Demo\MASTER\obj/../USER/isr.c:151
    {
        TIM_ClearITPendingBit(TIM1, TIM_IT_CC1);
     238:	4589                	li	a1,2
     23a:	c0040513          	addi	a0,s0,-1024
     23e:	7c7000ef          	jal	ra,1204 <TIM_ClearITPendingBit>
C:\Users\windows\Desktop\比赛\100 成渝版 带按键\17 110 舵机横向放置 比赛版\RED_BULL\Dual-core_Communication_Demo\MASTER\obj/../USER/isr.c:154

    }
    if(TIM_GetITStatus(TIM1, TIM_IT_CC2) != RESET)
     242:	40013437          	lui	s0,0x40013
     246:	4591                	li	a1,4
     248:	c0040513          	addi	a0,s0,-1024 # 40012c00 <_eusrstack+0x2000dc00>
     24c:	79d000ef          	jal	ra,11e8 <TIM_GetITStatus>
     250:	c511                	beqz	a0,25c <TIM1_CC_IRQHandler+0x38>
C:\Users\windows\Desktop\比赛\100 成渝版 带按键\17 110 舵机横向放置 比赛版\RED_BULL\Dual-core_Communication_Demo\MASTER\obj/../USER/isr.c:156
    {
        TIM_ClearITPendingBit(TIM1, TIM_IT_CC2);
     252:	4591                	li	a1,4
     254:	c0040513          	addi	a0,s0,-1024
     258:	7ad000ef          	jal	ra,1204 <TIM_ClearITPendingBit>
C:\Users\windows\Desktop\比赛\100 成渝版 带按键\17 110 舵机横向放置 比赛版\RED_BULL\Dual-core_Communication_Demo\MASTER\obj/../USER/isr.c:159

    }
    if(TIM_GetITStatus(TIM1, TIM_IT_CC3) != RESET)
     25c:	40013437          	lui	s0,0x40013
     260:	45a1                	li	a1,8
     262:	c0040513          	addi	a0,s0,-1024 # 40012c00 <_eusrstack+0x2000dc00>
     266:	783000ef          	jal	ra,11e8 <TIM_GetITStatus>
     26a:	c511                	beqz	a0,276 <TIM1_CC_IRQHandler+0x52>
C:\Users\windows\Desktop\比赛\100 成渝版 带按键\17 110 舵机横向放置 比赛版\RED_BULL\Dual-core_Communication_Demo\MASTER\obj/../USER/isr.c:161
    {
        TIM_ClearITPendingBit(TIM1, TIM_IT_CC3);
     26c:	45a1                	li	a1,8
     26e:	c0040513          	addi	a0,s0,-1024
     272:	793000ef          	jal	ra,1204 <TIM_ClearITPendingBit>
C:\Users\windows\Desktop\比赛\100 成渝版 带按键\17 110 舵机横向放置 比赛版\RED_BULL\Dual-core_Communication_Demo\MASTER\obj/../USER/isr.c:164

    }
    if(TIM_GetITStatus(TIM1, TIM_IT_CC4) != RESET)
     276:	40013437          	lui	s0,0x40013
     27a:	45c1                	li	a1,16
     27c:	c0040513          	addi	a0,s0,-1024 # 40012c00 <_eusrstack+0x2000dc00>
     280:	769000ef          	jal	ra,11e8 <TIM_GetITStatus>
     284:	c511                	beqz	a0,290 <TIM1_CC_IRQHandler+0x6c>
C:\Users\windows\Desktop\比赛\100 成渝版 带按键\17 110 舵机横向放置 比赛版\RED_BULL\Dual-core_Communication_Demo\MASTER\obj/../USER/isr.c:166
    {
        TIM_ClearITPendingBit(TIM1, TIM_IT_CC4);
     286:	45c1                	li	a1,16
     288:	c0040513          	addi	a0,s0,-1024
     28c:	779000ef          	jal	ra,1204 <TIM_ClearITPendingBit>
C:\Users\windows\Desktop\比赛\100 成渝版 带按键\17 110 舵机横向放置 比赛版\RED_BULL\Dual-core_Communication_Demo\MASTER\obj/../USER/isr.c:169

    }
}
     290:	4432                	lw	s0,12(sp)
     292:	0141                	addi	sp,sp,16
     294:	30200073          	mret

00000298 <TIM2_IRQHandler>:
TIM2_IRQHandler():
C:\Users\windows\Desktop\比赛\100 成渝版 带按键\17 110 舵机横向放置 比赛版\RED_BULL\Dual-core_Communication_Demo\MASTER\obj/../USER/isr.c:174

void TIM2_IRQHandler(void)
{

    if(TIM_GetITStatus(TIM2, TIM_IT_Update) != RESET)
     298:	4585                	li	a1,1
     29a:	40000537          	lui	a0,0x40000
     29e:	74b000ef          	jal	ra,11e8 <TIM_GetITStatus>
     2a2:	c511                	beqz	a0,2ae <TIM2_IRQHandler+0x16>
C:\Users\windows\Desktop\比赛\100 成渝版 带按键\17 110 舵机横向放置 比赛版\RED_BULL\Dual-core_Communication_Demo\MASTER\obj/../USER/isr.c:176
    {
        TIM_ClearITPendingBit(TIM2, TIM_IT_Update );
     2a4:	4585                	li	a1,1
     2a6:	40000537          	lui	a0,0x40000
     2aa:	75b000ef          	jal	ra,1204 <TIM_ClearITPendingBit>
C:\Users\windows\Desktop\比赛\100 成渝版 带按键\17 110 舵机横向放置 比赛版\RED_BULL\Dual-core_Communication_Demo\MASTER\obj/../USER/isr.c:182
        //ccd_collect();//CCD数据采集
        //gpio_toggle(B5);
        //GPIO_PIN_RESET(B5);
        //GPIO_PIN_SET(B5);
    }
}
     2ae:	30200073          	mret

000002b2 <TIM3_IRQHandler>:
TIM3_IRQHandler():
C:\Users\windows\Desktop\比赛\100 成渝版 带按键\17 110 舵机横向放置 比赛版\RED_BULL\Dual-core_Communication_Demo\MASTER\obj/../USER/isr.c:185

void TIM3_IRQHandler(void)
{
     2b2:	1141                	addi	sp,sp,-16
     2b4:	c622                	sw	s0,12(sp)
C:\Users\windows\Desktop\比赛\100 成渝版 带按键\17 110 舵机横向放置 比赛版\RED_BULL\Dual-core_Communication_Demo\MASTER\obj/../USER/isr.c:186
    if(TIM_GetITStatus(TIM3, TIM_IT_Update) != RESET)
     2b6:	40000437          	lui	s0,0x40000
     2ba:	4585                	li	a1,1
     2bc:	40040513          	addi	a0,s0,1024 # 40000400 <_eusrstack+0x1fffb400>
     2c0:	729000ef          	jal	ra,11e8 <TIM_GetITStatus>
     2c4:	c511                	beqz	a0,2d0 <TIM3_IRQHandler+0x1e>
C:\Users\windows\Desktop\比赛\100 成渝版 带按键\17 110 舵机横向放置 比赛版\RED_BULL\Dual-core_Communication_Demo\MASTER\obj/../USER/isr.c:188
    {
        TIM_ClearITPendingBit(TIM3, TIM_IT_Update );
     2c6:	4585                	li	a1,1
     2c8:	40040513          	addi	a0,s0,1024
     2cc:	739000ef          	jal	ra,1204 <TIM_ClearITPendingBit>
C:\Users\windows\Desktop\比赛\100 成渝版 带按键\17 110 舵机横向放置 比赛版\RED_BULL\Dual-core_Communication_Demo\MASTER\obj/../USER/isr.c:191

    }
}
     2d0:	4432                	lw	s0,12(sp)
     2d2:	0141                	addi	sp,sp,16
     2d4:	30200073          	mret

000002d8 <TIM4_IRQHandler>:
TIM4_IRQHandler():
C:\Users\windows\Desktop\比赛\100 成渝版 带按键\17 110 舵机横向放置 比赛版\RED_BULL\Dual-core_Communication_Demo\MASTER\obj/../USER/isr.c:194

void TIM4_IRQHandler(void)
{
     2d8:	1141                	addi	sp,sp,-16
     2da:	c622                	sw	s0,12(sp)
C:\Users\windows\Desktop\比赛\100 成渝版 带按键\17 110 舵机横向放置 比赛版\RED_BULL\Dual-core_Communication_Demo\MASTER\obj/../USER/isr.c:195
    if(TIM_GetITStatus(TIM4, TIM_IT_Update) != RESET)
     2dc:	40001437          	lui	s0,0x40001
     2e0:	4585                	li	a1,1
     2e2:	80040513          	addi	a0,s0,-2048 # 40000800 <_eusrstack+0x1fffb800>
     2e6:	703000ef          	jal	ra,11e8 <TIM_GetITStatus>
     2ea:	c511                	beqz	a0,2f6 <TIM4_IRQHandler+0x1e>
C:\Users\windows\Desktop\比赛\100 成渝版 带按键\17 110 舵机横向放置 比赛版\RED_BULL\Dual-core_Communication_Demo\MASTER\obj/../USER/isr.c:197
    {
        TIM_ClearITPendingBit(TIM4, TIM_IT_Update );
     2ec:	4585                	li	a1,1
     2ee:	80040513          	addi	a0,s0,-2048
     2f2:	713000ef          	jal	ra,1204 <TIM_ClearITPendingBit>
C:\Users\windows\Desktop\比赛\100 成渝版 带按键\17 110 舵机横向放置 比赛版\RED_BULL\Dual-core_Communication_Demo\MASTER\obj/../USER/isr.c:200

    }
}
     2f6:	4432                	lw	s0,12(sp)
     2f8:	0141                	addi	sp,sp,16
     2fa:	30200073          	mret

000002fe <USART1_IRQHandler>:
USART1_IRQHandler():
     2fe:	30200073          	mret

00000302 <USART2_IRQHandler>:
USART2_IRQHandler():
C:\Users\windows\Desktop\比赛\100 成渝版 带按键\17 110 舵机横向放置 比赛版\RED_BULL\Dual-core_Communication_Demo\MASTER\obj/../USER/isr.c:208
{

}

void USART2_IRQHandler(void)
{
     302:	1141                	addi	sp,sp,-16
     304:	c622                	sw	s0,12(sp)
C:\Users\windows\Desktop\比赛\100 成渝版 带按键\17 110 舵机横向放置 比赛版\RED_BULL\Dual-core_Communication_Demo\MASTER\obj/../USER/isr.c:209
    if(USART_GetITStatus(USART2, USART_IT_RXNE) != RESET)
     306:	40004437          	lui	s0,0x40004
     30a:	52500593          	li	a1,1317
     30e:	40040513          	addi	a0,s0,1024 # 40004400 <_eusrstack+0x1ffff400>
     312:	036010ef          	jal	ra,1348 <USART_GetITStatus>
     316:	cd11                	beqz	a0,332 <USART2_IRQHandler+0x30>
C:\Users\windows\Desktop\比赛\100 成渝版 带按键\17 110 舵机横向放置 比赛版\RED_BULL\Dual-core_Communication_Demo\MASTER\obj/../USER/isr.c:211
    {
        USART_ClearITPendingBit(USART2, USART_IT_RXNE);
     318:	52500593          	li	a1,1317
     31c:	40040513          	addi	a0,s0,1024
     320:	06c010ef          	jal	ra,138c <USART_ClearITPendingBit>
C:\Users\windows\Desktop\比赛\100 成渝版 带按键\17 110 舵机横向放置 比赛版\RED_BULL\Dual-core_Communication_Demo\MASTER\obj/../USER/isr.c:212
        if(camera_type == CAMERA_BIN_UART)
     324:	8141a783          	lw	a5,-2028(gp) # 20000024 <camera_type>
     328:	4709                	li	a4,2
     32a:	00e79863          	bne	a5,a4,33a <USART2_IRQHandler+0x38>
C:\Users\windows\Desktop\比赛\100 成渝版 带按键\17 110 舵机横向放置 比赛版\RED_BULL\Dual-core_Communication_Demo\MASTER\obj/../USER/isr.c:213
            ov7725_cof_uart_interrupt();
     32e:	0f6010ef          	jal	ra,1424 <ov7725_cof_uart_interrupt>
C:\Users\windows\Desktop\比赛\100 成渝版 带按键\17 110 舵机横向放置 比赛版\RED_BULL\Dual-core_Communication_Demo\MASTER\obj/../USER/isr.c:217
        else if(camera_type == CAMERA_GRAYSCALE)
            mt9v03x_uart_callback();
    }
}
     332:	4432                	lw	s0,12(sp)
     334:	0141                	addi	sp,sp,16
     336:	30200073          	mret
C:\Users\windows\Desktop\比赛\100 成渝版 带按键\17 110 舵机横向放置 比赛版\RED_BULL\Dual-core_Communication_Demo\MASTER\obj/../USER/isr.c:214
        else if(camera_type == CAMERA_GRAYSCALE)
     33a:	4705                	li	a4,1
     33c:	fee79be3          	bne	a5,a4,332 <USART2_IRQHandler+0x30>
C:\Users\windows\Desktop\比赛\100 成渝版 带按键\17 110 舵机横向放置 比赛版\RED_BULL\Dual-core_Communication_Demo\MASTER\obj/../USER/isr.c:215
            mt9v03x_uart_callback();
     340:	062010ef          	jal	ra,13a2 <mt9v03x_uart_callback>
C:\Users\windows\Desktop\比赛\100 成渝版 带按键\17 110 舵机横向放置 比赛版\RED_BULL\Dual-core_Communication_Demo\MASTER\obj/../USER/isr.c:217
}
     344:	b7fd                	j	332 <USART2_IRQHandler+0x30>

00000346 <DMA1_Channel4_IRQHandler>:
DMA1_Channel4_IRQHandler():
C:\Users\windows\Desktop\比赛\100 成渝版 带按键\17 110 舵机横向放置 比赛版\RED_BULL\Dual-core_Communication_Demo\MASTER\obj/../USER/isr.c:225
//{
//
//}

void DMA1_Channel4_IRQHandler(void)
{
     346:	1141                	addi	sp,sp,-16
C:\Users\windows\Desktop\比赛\100 成渝版 带按键\17 110 舵机横向放置 比赛版\RED_BULL\Dual-core_Communication_Demo\MASTER\obj/../USER/isr.c:226
    if(SET == DMA_GetFlagStatus(DMA1_FLAG_TC4))
     348:	6509                	lui	a0,0x2
C:\Users\windows\Desktop\比赛\100 成渝版 带按键\17 110 舵机横向放置 比赛版\RED_BULL\Dual-core_Communication_Demo\MASTER\obj/../USER/isr.c:225
{
     34a:	c622                	sw	s0,12(sp)
C:\Users\windows\Desktop\比赛\100 成渝版 带按键\17 110 舵机横向放置 比赛版\RED_BULL\Dual-core_Communication_Demo\MASTER\obj/../USER/isr.c:226
    if(SET == DMA_GetFlagStatus(DMA1_FLAG_TC4))
     34c:	6da000ef          	jal	ra,a26 <DMA_GetFlagStatus>
     350:	4785                	li	a5,1
     352:	00f51d63          	bne	a0,a5,36c <DMA1_Channel4_IRQHandler+0x26>
     356:	842a                	mv	s0,a0
C:\Users\windows\Desktop\比赛\100 成渝版 带按键\17 110 舵机横向放置 比赛版\RED_BULL\Dual-core_Communication_Demo\MASTER\obj/../USER/isr.c:228
    {
        DMA_ClearFlag(DMA1_FLAG_TC4);
     358:	6509                	lui	a0,0x2
     35a:	6ec000ef          	jal	ra,a46 <DMA_ClearFlag>
C:\Users\windows\Desktop\比赛\100 成渝版 带按键\17 110 舵机横向放置 比赛版\RED_BULL\Dual-core_Communication_Demo\MASTER\obj/../USER/isr.c:229
        if(camera_type == CAMERA_BIN_UART)
     35e:	8141a783          	lw	a5,-2028(gp) # 20000024 <camera_type>
     362:	4709                	li	a4,2
     364:	00e79863          	bne	a5,a4,374 <DMA1_Channel4_IRQHandler+0x2e>
C:\Users\windows\Desktop\比赛\100 成渝版 带按键\17 110 舵机横向放置 比赛版\RED_BULL\Dual-core_Communication_Demo\MASTER\obj/../USER/isr.c:230
            ov7725_uart_dma();
     368:	122010ef          	jal	ra,148a <ov7725_uart_dma>
C:\Users\windows\Desktop\比赛\100 成渝版 带按键\17 110 舵机横向放置 比赛版\RED_BULL\Dual-core_Communication_Demo\MASTER\obj/../USER/isr.c:234
        else if(camera_type == CAMERA_GRAYSCALE)
            mt9v03x_dma();
    }
}
     36c:	4432                	lw	s0,12(sp)
     36e:	0141                	addi	sp,sp,16
     370:	30200073          	mret
C:\Users\windows\Desktop\比赛\100 成渝版 带按键\17 110 舵机横向放置 比赛版\RED_BULL\Dual-core_Communication_Demo\MASTER\obj/../USER/isr.c:231
        else if(camera_type == CAMERA_GRAYSCALE)
     374:	fe879ce3          	bne	a5,s0,36c <DMA1_Channel4_IRQHandler+0x26>
C:\Users\windows\Desktop\比赛\100 成渝版 带按键\17 110 舵机横向放置 比赛版\RED_BULL\Dual-core_Communication_Demo\MASTER\obj/../USER/isr.c:232
            mt9v03x_dma();
     378:	0a4010ef          	jal	ra,141c <mt9v03x_dma>
C:\Users\windows\Desktop\比赛\100 成渝版 带按键\17 110 舵机横向放置 比赛版\RED_BULL\Dual-core_Communication_Demo\MASTER\obj/../USER/isr.c:234
}
     37c:	bfc5                	j	36c <DMA1_Channel4_IRQHandler+0x26>

0000037e <NMI_Handler>:
NMI_Handler():
C:\Users\windows\Desktop\比赛\100 成渝版 带按键\17 110 舵机横向放置 比赛版\RED_BULL\Dual-core_Communication_Demo\MASTER\obj/../USER/isr.c:245
* Return         : None
*******************************************************************************/
void NMI_Handler(void)
{

}
     37e:	30200073          	mret

00000382 <HardFault_Handler>:
HardFault_Handler():
C:\Users\windows\Desktop\比赛\100 成渝版 带按键\17 110 舵机横向放置 比赛版\RED_BULL\Dual-core_Communication_Demo\MASTER\obj/../USER/isr.c:258 (discriminator 1)
void HardFault_Handler(void)
{

  while (1)
  {
  }
     382:	a001                	j	382 <HardFault_Handler>

00000384 <get_slave_data>:
get_slave_data():
C:\Users\windows\Desktop\比赛\100 成渝版 带按键\17 110 舵机横向放置 比赛版\RED_BULL\Dual-core_Communication_Demo\MASTER\obj/../USER/main.c:66
//  Sample usage:
//-------------------------------------------------------------------------------------------------------------------
void get_slave_data(uint8 data)
{
    static uint8 uart_num = 0;
    temp_buff[uart_num++] = data;
     384:	83318593          	addi	a1,gp,-1997 # 20000043 <uart_num.5996>
     388:	0005c603          	lbu	a2,0(a1)
     38c:	93c18713          	addi	a4,gp,-1732 # 2000014c <temp_buff>
     390:	00160793          	addi	a5,a2,1
     394:	0ff7f793          	andi	a5,a5,255
     398:	963a                	add	a2,a2,a4
     39a:	00a60023          	sb	a0,0(a2)
     39e:	00f58023          	sb	a5,0(a1)
C:\Users\windows\Desktop\比赛\100 成渝版 带按键\17 110 舵机横向放置 比赛版\RED_BULL\Dual-core_Communication_Demo\MASTER\obj/../USER/main.c:68

    if(1 == uart_num)
     3a2:	4605                	li	a2,1
     3a4:	83318693          	addi	a3,gp,-1997 # 20000043 <uart_num.5996>
     3a8:	00c79e63          	bne	a5,a2,3c4 <get_slave_data+0x40>
C:\Users\windows\Desktop\比赛\100 成渝版 带按键\17 110 舵机横向放置 比赛版\RED_BULL\Dual-core_Communication_Demo\MASTER\obj/../USER/main.c:71
    {
        //接收到的第一个字符不为0xD8，帧头错误
        if(0xD8 != temp_buff[0])
     3ac:	00074703          	lbu	a4,0(a4)
     3b0:	0d800793          	li	a5,216
     3b4:	02f70963          	beq	a4,a5,3e6 <get_slave_data+0x62>
C:\Users\windows\Desktop\比赛\100 成渝版 带按键\17 110 舵机横向放置 比赛版\RED_BULL\Dual-core_Communication_Demo\MASTER\obj/../USER/main.c:74
        {
            uart_num = 0;
            uart_flag = E_FRAME_HEADER_ERROR;
     3b8:	4709                	li	a4,2
C:\Users\windows\Desktop\比赛\100 成渝版 带按键\17 110 舵机横向放置 比赛版\RED_BULL\Dual-core_Communication_Demo\MASTER\obj/../USER/main.c:73
            uart_num = 0;
     3ba:	00058023          	sb	zero,0(a1)
C:\Users\windows\Desktop\比赛\100 成渝版 带按键\17 110 舵机横向放置 比赛版\RED_BULL\Dual-core_Communication_Demo\MASTER\obj/../USER/main.c:74
            uart_flag = E_FRAME_HEADER_ERROR;
     3be:	82e18923          	sb	a4,-1998(gp) # 20000042 <uart_flag>
     3c2:	8082                	ret
C:\Users\windows\Desktop\比赛\100 成渝版 带按键\17 110 舵机横向放置 比赛版\RED_BULL\Dual-core_Communication_Demo\MASTER\obj/../USER/main.c:78
        }
    }

    if(LINE_LEN == uart_num)
     3c4:	45b9                	li	a1,14
     3c6:	02b79063          	bne	a5,a1,3e6 <get_slave_data+0x62>
C:\Users\windows\Desktop\比赛\100 成渝版 带按键\17 110 舵机横向放置 比赛版\RED_BULL\Dual-core_Communication_Demo\MASTER\obj/../USER/main.c:82
    {
        uart_flag = E_OK;
        //接收到最后一个字节为0xEE
        if(0xEE == temp_buff[LINE_LEN - 1])
     3ca:	00d74583          	lbu	a1,13(a4)
C:\Users\windows\Desktop\比赛\100 成渝版 带按键\17 110 舵机横向放置 比赛版\RED_BULL\Dual-core_Communication_Demo\MASTER\obj/../USER/main.c:80
        uart_flag = E_OK;
     3ce:	83218793          	addi	a5,gp,-1998 # 20000042 <uart_flag>
     3d2:	00c78023          	sb	a2,0(a5)
C:\Users\windows\Desktop\比赛\100 成渝版 带按键\17 110 舵机横向放置 比赛版\RED_BULL\Dual-core_Communication_Demo\MASTER\obj/../USER/main.c:82
        if(0xEE == temp_buff[LINE_LEN - 1])
     3d6:	0ee00713          	li	a4,238
     3da:	00e59763          	bne	a1,a4,3e8 <get_slave_data+0x64>
C:\Users\windows\Desktop\比赛\100 成渝版 带按键\17 110 舵机横向放置 比赛版\RED_BULL\Dual-core_Communication_Demo\MASTER\obj/../USER/main.c:84
        {
            uart_flag = E_OK;
     3de:	00c78023          	sb	a2,0(a5)
C:\Users\windows\Desktop\比赛\100 成渝版 带按键\17 110 舵机横向放置 比赛版\RED_BULL\Dual-core_Communication_Demo\MASTER\obj/../USER/main.c:90
        }
        else    //接收到最后一个字节不是0xEE，帧尾错误
        {
            uart_flag = E_FRAME_RTAIL_ERROR;
        }
        uart_num = 0;
     3e2:	00068023          	sb	zero,0(a3)
C:\Users\windows\Desktop\比赛\100 成渝版 带按键\17 110 舵机横向放置 比赛版\RED_BULL\Dual-core_Communication_Demo\MASTER\obj/../USER/main.c:92
    }
}
     3e6:	8082                	ret
C:\Users\windows\Desktop\比赛\100 成渝版 带按键\17 110 舵机横向放置 比赛版\RED_BULL\Dual-core_Communication_Demo\MASTER\obj/../USER/main.c:88
            uart_flag = E_FRAME_RTAIL_ERROR;
     3e8:	470d                	li	a4,3
     3ea:	00e78023          	sb	a4,0(a5)
     3ee:	bfd5                	j	3e2 <get_slave_data+0x5e>

000003f0 <data_analysis>:
data_analysis():
C:\Users\windows\Desktop\比赛\100 成渝版 带按键\17 110 舵机横向放置 比赛版\RED_BULL\Dual-core_Communication_Demo\MASTER\obj/../USER/main.c:103
//  @since      v1.0
//  Sample usage:
//-------------------------------------------------------------------------------------------------------------------
void data_analysis(uint8 *line)
{
    if(line[1] == 0xB0)    slave_encoder_left  = ((int16)line[2] << 8) | line[3];
     3f0:	00154703          	lbu	a4,1(a0) # 2001 <Duty_Init+0x15>
     3f4:	0b000793          	li	a5,176
     3f8:	00f71a63          	bne	a4,a5,40c <data_analysis+0x1c>
C:\Users\windows\Desktop\比赛\100 成渝版 带按键\17 110 舵机横向放置 比赛版\RED_BULL\Dual-core_Communication_Demo\MASTER\obj/../USER/main.c:103 (discriminator 1)
     3fc:	00254783          	lbu	a5,2(a0)
     400:	00354703          	lbu	a4,3(a0)
     404:	07a2                	slli	a5,a5,0x8
     406:	8fd9                	or	a5,a5,a4
     408:	80f19f23          	sh	a5,-2018(gp) # 2000002e <slave_encoder_left>
C:\Users\windows\Desktop\比赛\100 成渝版 带按键\17 110 舵机横向放置 比赛版\RED_BULL\Dual-core_Communication_Demo\MASTER\obj/../USER/main.c:104
    if(line[4] == 0xB1)    slave_encoder_right = ((int16)line[5] << 8) | line[6];
     40c:	00454703          	lbu	a4,4(a0)
     410:	0b100793          	li	a5,177
     414:	00f71a63          	bne	a4,a5,428 <data_analysis+0x38>
C:\Users\windows\Desktop\比赛\100 成渝版 带按键\17 110 舵机横向放置 比赛版\RED_BULL\Dual-core_Communication_Demo\MASTER\obj/../USER/main.c:104 (discriminator 1)
     418:	00554783          	lbu	a5,5(a0)
     41c:	00654703          	lbu	a4,6(a0)
     420:	07a2                	slli	a5,a5,0x8
     422:	8fd9                	or	a5,a5,a4
     424:	82f19023          	sh	a5,-2016(gp) # 20000030 <slave_encoder_right>
C:\Users\windows\Desktop\比赛\100 成渝版 带按键\17 110 舵机横向放置 比赛版\RED_BULL\Dual-core_Communication_Demo\MASTER\obj/../USER/main.c:105
    if(line[7] == 0xB2)    slave_position      = ((int16)line[8] << 8) | line[9];
     428:	00754703          	lbu	a4,7(a0)
     42c:	0b200793          	li	a5,178
     430:	00f71a63          	bne	a4,a5,444 <data_analysis+0x54>
C:\Users\windows\Desktop\比赛\100 成渝版 带按键\17 110 舵机横向放置 比赛版\RED_BULL\Dual-core_Communication_Demo\MASTER\obj/../USER/main.c:105 (discriminator 1)
     434:	00854783          	lbu	a5,8(a0)
     438:	00954703          	lbu	a4,9(a0)
     43c:	07a2                	slli	a5,a5,0x8
     43e:	8fd9                	or	a5,a5,a4
     440:	82f19123          	sh	a5,-2014(gp) # 20000032 <slave_position>
C:\Users\windows\Desktop\比赛\100 成渝版 带按键\17 110 舵机横向放置 比赛版\RED_BULL\Dual-core_Communication_Demo\MASTER\obj/../USER/main.c:106
    if(line[10] == 0xB3)   transinfo           = ((int16)line[11] <<8) | line[12];
     444:	00a54703          	lbu	a4,10(a0)
     448:	0b300793          	li	a5,179
     44c:	00f71a63          	bne	a4,a5,460 <data_analysis+0x70>
     450:	00b54783          	lbu	a5,11(a0)
     454:	00c54703          	lbu	a4,12(a0)
     458:	07a2                	slli	a5,a5,0x8
     45a:	8fd9                	or	a5,a5,a4
     45c:	82f19823          	sh	a5,-2000(gp) # 20000040 <transinfo>
C:\Users\windows\Desktop\比赛\100 成渝版 带按键\17 110 舵机横向放置 比赛版\RED_BULL\Dual-core_Communication_Demo\MASTER\obj/../USER/main.c:107
}
     460:	8082                	ret

00000462 <USART3_IRQHandler>:
USART3_IRQHandler():
C:\Users\windows\Desktop\比赛\100 成渝版 带按键\17 110 舵机横向放置 比赛版\RED_BULL\Dual-core_Communication_Demo\MASTER\obj/../USER/main.c:118
//  @since      v1.0
//  Sample usage:
//-------------------------------------------------------------------------------------------------------------------
void USART3_IRQHandler(void) __attribute__((interrupt("WCH-Interrupt-fast")));
void USART3_IRQHandler(void)
{
     462:	1141                	addi	sp,sp,-16
     464:	c622                	sw	s0,12(sp)
C:\Users\windows\Desktop\比赛\100 成渝版 带按键\17 110 舵机横向放置 比赛版\RED_BULL\Dual-core_Communication_Demo\MASTER\obj/../USER/main.c:120
    uint8 dat;
    if(USART_GetITStatus(USART3, USART_IT_RXNE) != RESET)
     466:	40005437          	lui	s0,0x40005
     46a:	52500593          	li	a1,1317
     46e:	80040513          	addi	a0,s0,-2048 # 40004800 <_eusrstack+0x1ffff800>
     472:	6d7000ef          	jal	ra,1348 <USART_GetITStatus>
     476:	cd11                	beqz	a0,492 <USART3_IRQHandler+0x30>
C:\Users\windows\Desktop\比赛\100 成渝版 带按键\17 110 舵机横向放置 比赛版\RED_BULL\Dual-core_Communication_Demo\MASTER\obj/../USER/main.c:122
    {
        USART_ClearITPendingBit(USART3, USART_IT_RXNE); //清除串口接收中断标志位
     478:	52500593          	li	a1,1317
     47c:	80040513          	addi	a0,s0,-2048
     480:	70d000ef          	jal	ra,138c <USART_ClearITPendingBit>
C:\Users\windows\Desktop\比赛\100 成渝版 带按键\17 110 舵机横向放置 比赛版\RED_BULL\Dual-core_Communication_Demo\MASTER\obj/../USER/main.c:123
        dat = USART_ReceiveData(USART3);                //获取串口数据
     484:	80040513          	addi	a0,s0,-2048
     488:	6b7000ef          	jal	ra,133e <USART_ReceiveData>
C:\Users\windows\Desktop\比赛\100 成渝版 带按键\17 110 舵机横向放置 比赛版\RED_BULL\Dual-core_Communication_Demo\MASTER\obj/../USER/main.c:124
        get_slave_data(dat);                            //将每一个字节的串口数据存入temp_buff中。
     48c:	0ff57513          	andi	a0,a0,255
     490:	3dd5                	jal	384 <get_slave_data>
C:\Users\windows\Desktop\比赛\100 成渝版 带按键\17 110 舵机横向放置 比赛版\RED_BULL\Dual-core_Communication_Demo\MASTER\obj/../USER/main.c:126
    }
}
     492:	4432                	lw	s0,12(sp)
     494:	0141                	addi	sp,sp,16
     496:	30200073          	mret

0000049a <EXTI0_IRQHandler>:
EXTI0_IRQHandler():
C:\Users\windows\Desktop\比赛\100 成渝版 带按键\17 110 舵机横向放置 比赛版\RED_BULL\Dual-core_Communication_Demo\MASTER\obj/../USER/main.c:137
//  @since      v1.0
//  Sample usage:
//-------------------------------------------------------------------------------------------------------------------
void EXTI0_IRQHandler(void) __attribute__((interrupt("WCH-Interrupt-fast")));
void EXTI0_IRQHandler(void)
{
     49a:	7139                	addi	sp,sp,-64
C:\Users\windows\Desktop\比赛\100 成渝版 带按键\17 110 舵机横向放置 比赛版\RED_BULL\Dual-core_Communication_Demo\MASTER\obj/../USER/main.c:138
    if(SET == EXTI_GetITStatus(EXTI_Line0))
     49c:	4505                	li	a0,1
C:\Users\windows\Desktop\比赛\100 成渝版 带按键\17 110 舵机横向放置 比赛版\RED_BULL\Dual-core_Communication_Demo\MASTER\obj/../USER/main.c:137
{
     49e:	de22                	sw	s0,60(sp)
     4a0:	dc26                	sw	s1,56(sp)
     4a2:	da4a                	sw	s2,52(sp)
     4a4:	d84e                	sw	s3,48(sp)
     4a6:	d652                	sw	s4,44(sp)
     4a8:	d456                	sw	s5,40(sp)
     4aa:	d25a                	sw	s6,36(sp)
     4ac:	d05e                	sw	s7,32(sp)
     4ae:	ce62                	sw	s8,28(sp)
     4b0:	cc66                	sw	s9,24(sp)
     4b2:	ca6a                	sw	s10,20(sp)
C:\Users\windows\Desktop\比赛\100 成渝版 带按键\17 110 舵机横向放置 比赛版\RED_BULL\Dual-core_Communication_Demo\MASTER\obj/../USER/main.c:138
    if(SET == EXTI_GetITStatus(EXTI_Line0))
     4b4:	2d19                	jal	aca <EXTI_GetITStatus>
     4b6:	4785                	li	a5,1
     4b8:	30f51363          	bne	a0,a5,7be <EXTI0_IRQHandler+0x324>
C:\Users\windows\Desktop\比赛\100 成渝版 带按键\17 110 舵机横向放置 比赛版\RED_BULL\Dual-core_Communication_Demo\MASTER\obj/../USER/main.c:140
    {
        EXTI_ClearITPendingBit(EXTI_Line0);
     4bc:	62c000ef          	jal	ra,ae8 <EXTI_ClearITPendingBit>
C:\Users\windows\Desktop\比赛\100 成渝版 带按键\17 110 舵机横向放置 比赛版\RED_BULL\Dual-core_Communication_Demo\MASTER\obj/../USER/main.c:141
        while(uart_flag != E_OK);                       //等待接收数据
     4c0:	4485                	li	s1,1
C:\Users\windows\Desktop\比赛\100 成渝版 带按键\17 110 舵机横向放置 比赛版\RED_BULL\Dual-core_Communication_Demo\MASTER\obj/../USER/main.c:141 (discriminator 1)
     4c2:	83218793          	addi	a5,gp,-1998 # 20000042 <uart_flag>
     4c6:	0007c703          	lbu	a4,0(a5)
     4ca:	fee49ce3          	bne	s1,a4,4c2 <EXTI0_IRQHandler+0x28>
C:\Users\windows\Desktop\比赛\100 成渝版 带按键\17 110 舵机横向放置 比赛版\RED_BULL\Dual-core_Communication_Demo\MASTER\obj/../USER/main.c:143
        uart_flag = E_START;                            //清空标志位
        data_analysis(temp_buff);                       //数据解析
     4ce:	93c18513          	addi	a0,gp,-1732 # 2000014c <temp_buff>
C:\Users\windows\Desktop\比赛\100 成渝版 带按键\17 110 舵机横向放置 比赛版\RED_BULL\Dual-core_Communication_Demo\MASTER\obj/../USER/main.c:142
        uart_flag = E_START;                            //清空标志位
     4d2:	00078023          	sb	zero,0(a5)
C:\Users\windows\Desktop\比赛\100 成渝版 带按键\17 110 舵机横向放置 比赛版\RED_BULL\Dual-core_Communication_Demo\MASTER\obj/../USER/main.c:143
        data_analysis(temp_buff);                       //数据解析
     4d6:	3f29                	jal	3f0 <data_analysis>
C:\Users\windows\Desktop\比赛\100 成渝版 带按键\17 110 舵机横向放置 比赛版\RED_BULL\Dual-core_Communication_Demo\MASTER\obj/../USER/main.c:145

        slave_encoder_right=-slave_encoder_right;
     4d8:	82018713          	addi	a4,gp,-2016 # 20000030 <slave_encoder_right>
     4dc:	00075783          	lhu	a5,0(a4)
C:\Users\windows\Desktop\比赛\100 成渝版 带按键\17 110 舵机横向放置 比赛版\RED_BULL\Dual-core_Communication_Demo\MASTER\obj/../USER/main.c:146
        master_encoder_left=timer_quad_get(TIMER_2);//获得主机编码器的值
     4e0:	4505                	li	a0,1
C:\Users\windows\Desktop\比赛\100 成渝版 带按键\17 110 舵机横向放置 比赛版\RED_BULL\Dual-core_Communication_Demo\MASTER\obj/../USER/main.c:145
        slave_encoder_right=-slave_encoder_right;
     4e2:	40f007b3          	neg	a5,a5
     4e6:	00f71023          	sh	a5,0(a4)
C:\Users\windows\Desktop\比赛\100 成渝版 带按键\17 110 舵机横向放置 比赛版\RED_BULL\Dual-core_Communication_Demo\MASTER\obj/../USER/main.c:146
        master_encoder_left=timer_quad_get(TIMER_2);//获得主机编码器的值
     4ea:	009010ef          	jal	ra,1cf2 <timer_quad_get>
     4ee:	80a19c23          	sh	a0,-2024(gp) # 20000028 <_edata>
C:\Users\windows\Desktop\比赛\100 成渝版 带按键\17 110 舵机横向放置 比赛版\RED_BULL\Dual-core_Communication_Demo\MASTER\obj/../USER/main.c:147
        master_encoder_right=-timer_quad_get(TIMER_3);//获得主机编码器的值
     4f2:	4509                	li	a0,2
     4f4:	7fe010ef          	jal	ra,1cf2 <timer_quad_get>
     4f8:	40a00533          	neg	a0,a0
     4fc:	80a19d23          	sh	a0,-2022(gp) # 2000002a <master_encoder_right>
C:\Users\windows\Desktop\比赛\100 成渝版 带按键\17 110 舵机横向放置 比赛版\RED_BULL\Dual-core_Communication_Demo\MASTER\obj/../USER/main.c:148
        timer_quad_clear(TIMER_2);
     500:	4505                	li	a0,1
     502:	007010ef          	jal	ra,1d08 <timer_quad_clear>
C:\Users\windows\Desktop\比赛\100 成渝版 带按键\17 110 舵机横向放置 比赛版\RED_BULL\Dual-core_Communication_Demo\MASTER\obj/../USER/main.c:149
        timer_quad_clear(TIMER_3);
     506:	4509                	li	a0,2
     508:	001010ef          	jal	ra,1d08 <timer_quad_clear>
C:\Users\windows\Desktop\比赛\100 成渝版 带按键\17 110 舵机横向放置 比赛版\RED_BULL\Dual-core_Communication_Demo\MASTER\obj/../USER/main.c:151

        if(slave_position_filter_Cnt==0)//低通滤波
     50c:	82618793          	addi	a5,gp,-2010 # 20000036 <slave_position_filter_Cnt>
     510:	00079703          	lh	a4,0(a5)
     514:	82018c13          	addi	s8,gp,-2016 # 20000030 <slave_encoder_right>
     518:	81818b93          	addi	s7,gp,-2024 # 20000028 <_edata>
     51c:	81a18b13          	addi	s6,gp,-2022 # 2000002a <master_encoder_right>
     520:	82418413          	addi	s0,gp,-2012 # 20000034 <slave_position_filter>
     524:	82218a93          	addi	s5,gp,-2014 # 20000032 <slave_position>
     528:	e71d                	bnez	a4,556 <EXTI0_IRQHandler+0xbc>
C:\Users\windows\Desktop\比赛\100 成渝版 带按键\17 110 舵机横向放置 比赛版\RED_BULL\Dual-core_Communication_Demo\MASTER\obj/../USER/main.c:153
        {
            slave_position_filter=slave_position;
     52a:	000ad703          	lhu	a4,0(s5)
C:\Users\windows\Desktop\比赛\100 成渝版 带按键\17 110 舵机横向放置 比赛版\RED_BULL\Dual-core_Communication_Demo\MASTER\obj/../USER/main.c:154
            slave_position_filter_Cnt=1;
     52e:	00979023          	sh	s1,0(a5)
C:\Users\windows\Desktop\比赛\100 成渝版 带按键\17 110 舵机横向放置 比赛版\RED_BULL\Dual-core_Communication_Demo\MASTER\obj/../USER/main.c:153
            slave_position_filter=slave_position;
     532:	00e41023          	sh	a4,0(s0)
C:\Users\windows\Desktop\比赛\100 成渝版 带按键\17 110 舵机横向放置 比赛版\RED_BULL\Dual-core_Communication_Demo\MASTER\obj/../USER/main.c:162
        {
            slave_position=slave_position*0.8+slave_position_filter*0.2;
            slave_position_filter=slave_position;
        }

        switch(motion_Sign)
     536:	81c1c703          	lbu	a4,-2020(gp) # 2000002c <motion_Sign>
     53a:	46a5                	li	a3,9
     53c:	81c18793          	addi	a5,gp,-2020 # 2000002c <motion_Sign>
     540:	83018a13          	addi	s4,gp,-2000 # 20000040 <transinfo>
     544:	06e6ea63          	bltu	a3,a4,5b8 <EXTI0_IRQHandler+0x11e>
     548:	6691                	lui	a3,0x4
     54a:	070a                	slli	a4,a4,0x2
     54c:	c4068693          	addi	a3,a3,-960 # 3c40 <__clzsi2+0x76>
     550:	9736                	add	a4,a4,a3
     552:	4318                	lw	a4,0(a4)
     554:	8702                	jr	a4
C:\Users\windows\Desktop\比赛\100 成渝版 带按键\17 110 舵机横向放置 比赛版\RED_BULL\Dual-core_Communication_Demo\MASTER\obj/../USER/main.c:158
            slave_position=slave_position*0.8+slave_position_filter*0.2;
     556:	000a9503          	lh	a0,0(s5)
     55a:	243020ef          	jal	ra,2f9c <__floatsidf>
     55e:	000047b7          	lui	a5,0x4
     562:	c907a603          	lw	a2,-880(a5) # 3c90 <__clzsi2+0xc6>
     566:	c947a683          	lw	a3,-876(a5)
     56a:	512020ef          	jal	ra,2a7c <__muldf3>
     56e:	892a                	mv	s2,a0
     570:	00041503          	lh	a0,0(s0)
     574:	89ae                	mv	s3,a1
     576:	227020ef          	jal	ra,2f9c <__floatsidf>
     57a:	000047b7          	lui	a5,0x4
     57e:	c987a603          	lw	a2,-872(a5) # 3c98 <__clzsi2+0xce>
     582:	c9c7a683          	lw	a3,-868(a5)
     586:	4f6020ef          	jal	ra,2a7c <__muldf3>
     58a:	862a                	mv	a2,a0
     58c:	86ae                	mv	a3,a1
     58e:	854a                	mv	a0,s2
     590:	85ce                	mv	a1,s3
     592:	5bb010ef          	jal	ra,234c <__adddf3>
     596:	19f020ef          	jal	ra,2f34 <__fixdfsi>
     59a:	0542                	slli	a0,a0,0x10
     59c:	8541                	srai	a0,a0,0x10
     59e:	00aa9023          	sh	a0,0(s5)
C:\Users\windows\Desktop\比赛\100 成渝版 带按键\17 110 舵机横向放置 比赛版\RED_BULL\Dual-core_Communication_Demo\MASTER\obj/../USER/main.c:159
            slave_position_filter=slave_position;
     5a2:	00a41023          	sh	a0,0(s0)
     5a6:	bf41                	j	536 <EXTI0_IRQHandler+0x9c>
C:\Users\windows\Desktop\比赛\100 成渝版 带按键\17 110 舵机横向放置 比赛版\RED_BULL\Dual-core_Communication_Demo\MASTER\obj/../USER/main.c:165
        {
        case 0://出库状态
            if(transinfo==16)
     5a8:	000a1683          	lh	a3,0(s4)
     5ac:	4741                	li	a4,16
     5ae:	00e69563          	bne	a3,a4,5b8 <EXTI0_IRQHandler+0x11e>
C:\Users\windows\Desktop\比赛\100 成渝版 带按键\17 110 舵机横向放置 比赛版\RED_BULL\Dual-core_Communication_Demo\MASTER\obj/../USER/main.c:166
                motion_Sign=1;
     5b2:	4705                	li	a4,1
C:\Users\windows\Desktop\比赛\100 成渝版 带按键\17 110 舵机横向放置 比赛版\RED_BULL\Dual-core_Communication_Demo\MASTER\obj/../USER/main.c:192
            if(transinfo==33)
                motion_Sign=3;
            break;
        case 5://车直走状态要进入左岔路，需要右旋转
            if(transinfo==33)
                motion_Sign=2;
     5b4:	00e78023          	sb	a4,0(a5)
C:\Users\windows\Desktop\比赛\100 成渝版 带按键\17 110 舵机横向放置 比赛版\RED_BULL\Dual-core_Communication_Demo\MASTER\obj/../USER/main.c:211
        case 9://右旋转进车库
            if(transinfo==33)
                motion_Sign=1;
        }

        switch(motion_Sign)
     5b8:	0007c783          	lbu	a5,0(a5)
     5bc:	4725                	li	a4,9
     5be:	82818993          	addi	s3,gp,-2008 # 20000038 <target_fl_speed>
     5c2:	82a18913          	addi	s2,gp,-2006 # 2000003a <target_fr_speed>
     5c6:	82c18493          	addi	s1,gp,-2004 # 2000003c <target_rl_speed>
     5ca:	82e18413          	addi	s0,gp,-2002 # 2000003e <target_rr_speed>
     5ce:	12f76963          	bltu	a4,a5,700 <EXTI0_IRQHandler+0x266>
     5d2:	6711                	lui	a4,0x4
     5d4:	078a                	slli	a5,a5,0x2
     5d6:	c6870713          	addi	a4,a4,-920 # 3c68 <__clzsi2+0x9e>
     5da:	97ba                	add	a5,a5,a4
     5dc:	439c                	lw	a5,0(a5)
     5de:	8782                	jr	a5
C:\Users\windows\Desktop\比赛\100 成渝版 带按键\17 110 舵机横向放置 比赛版\RED_BULL\Dual-core_Communication_Demo\MASTER\obj/../USER/main.c:169
            if(transinfo==46)//需要进右岔路
     5e0:	000a1703          	lh	a4,0(s4)
     5e4:	02e00693          	li	a3,46
     5e8:	00d71463          	bne	a4,a3,5f0 <EXTI0_IRQHandler+0x156>
C:\Users\windows\Desktop\比赛\100 成渝版 带按键\17 110 舵机横向放置 比赛版\RED_BULL\Dual-core_Communication_Demo\MASTER\obj/../USER/main.c:170
                motion_Sign=4;
     5ec:	4711                	li	a4,4
     5ee:	b7d9                	j	5b4 <EXTI0_IRQHandler+0x11a>
C:\Users\windows\Desktop\比赛\100 成渝版 带按键\17 110 舵机横向放置 比赛版\RED_BULL\Dual-core_Communication_Demo\MASTER\obj/../USER/main.c:171
            else if(transinfo==44)//需要进左岔路
     5f0:	02c00693          	li	a3,44
     5f4:	00d71463          	bne	a4,a3,5fc <EXTI0_IRQHandler+0x162>
C:\Users\windows\Desktop\比赛\100 成渝版 带按键\17 110 舵机横向放置 比赛版\RED_BULL\Dual-core_Communication_Demo\MASTER\obj/../USER/main.c:172
                motion_Sign=5;
     5f8:	4715                	li	a4,5
     5fa:	bf6d                	j	5b4 <EXTI0_IRQHandler+0x11a>
C:\Users\windows\Desktop\比赛\100 成渝版 带按键\17 110 舵机横向放置 比赛版\RED_BULL\Dual-core_Communication_Demo\MASTER\obj/../USER/main.c:173
            else if(transinfo==11)//左旋转进车库
     5fc:	46ad                	li	a3,11
     5fe:	00d71463          	bne	a4,a3,606 <EXTI0_IRQHandler+0x16c>
C:\Users\windows\Desktop\比赛\100 成渝版 带按键\17 110 舵机横向放置 比赛版\RED_BULL\Dual-core_Communication_Demo\MASTER\obj/../USER/main.c:174
                motion_Sign=8;
     602:	4721                	li	a4,8
     604:	bf45                	j	5b4 <EXTI0_IRQHandler+0x11a>
C:\Users\windows\Desktop\比赛\100 成渝版 带按键\17 110 舵机横向放置 比赛版\RED_BULL\Dual-core_Communication_Demo\MASTER\obj/../USER/main.c:175
            else if(transinfo==13)//右旋转进车库
     606:	46b5                	li	a3,13
     608:	fad718e3          	bne	a4,a3,5b8 <EXTI0_IRQHandler+0x11e>
C:\Users\windows\Desktop\比赛\100 成渝版 带按键\17 110 舵机横向放置 比赛版\RED_BULL\Dual-core_Communication_Demo\MASTER\obj/../USER/main.c:176
                motion_Sign=9;
     60c:	4725                	li	a4,9
     60e:	b75d                	j	5b4 <EXTI0_IRQHandler+0x11a>
C:\Users\windows\Desktop\比赛\100 成渝版 带按键\17 110 舵机横向放置 比赛版\RED_BULL\Dual-core_Communication_Demo\MASTER\obj/../USER/main.c:179
            if(transinfo==44)//变回直走状态时需要左旋转
     610:	000a1683          	lh	a3,0(s4)
     614:	02c00713          	li	a4,44
     618:	fae690e3          	bne	a3,a4,5b8 <EXTI0_IRQHandler+0x11e>
C:\Users\windows\Desktop\比赛\100 成渝版 带按键\17 110 舵机横向放置 比赛版\RED_BULL\Dual-core_Communication_Demo\MASTER\obj/../USER/main.c:180
                motion_Sign=6;
     61c:	4719                	li	a4,6
     61e:	bf59                	j	5b4 <EXTI0_IRQHandler+0x11a>
C:\Users\windows\Desktop\比赛\100 成渝版 带按键\17 110 舵机横向放置 比赛版\RED_BULL\Dual-core_Communication_Demo\MASTER\obj/../USER/main.c:183
            if(transinfo==46)//变回直走状态时需要右旋转
     620:	000a1683          	lh	a3,0(s4)
     624:	02e00713          	li	a4,46
     628:	f8e698e3          	bne	a3,a4,5b8 <EXTI0_IRQHandler+0x11e>
C:\Users\windows\Desktop\比赛\100 成渝版 带按键\17 110 舵机横向放置 比赛版\RED_BULL\Dual-core_Communication_Demo\MASTER\obj/../USER/main.c:184
                motion_Sign=7;
     62c:	471d                	li	a4,7
     62e:	b759                	j	5b4 <EXTI0_IRQHandler+0x11a>
C:\Users\windows\Desktop\比赛\100 成渝版 带按键\17 110 舵机横向放置 比赛版\RED_BULL\Dual-core_Communication_Demo\MASTER\obj/../USER/main.c:187
            if(transinfo==33)
     630:	000a1683          	lh	a3,0(s4)
     634:	02100713          	li	a4,33
     638:	f8e690e3          	bne	a3,a4,5b8 <EXTI0_IRQHandler+0x11e>
C:\Users\windows\Desktop\比赛\100 成渝版 带按键\17 110 舵机横向放置 比赛版\RED_BULL\Dual-core_Communication_Demo\MASTER\obj/../USER/main.c:188
                motion_Sign=3;
     63c:	470d                	li	a4,3
     63e:	bf9d                	j	5b4 <EXTI0_IRQHandler+0x11a>
C:\Users\windows\Desktop\比赛\100 成渝版 带按键\17 110 舵机横向放置 比赛版\RED_BULL\Dual-core_Communication_Demo\MASTER\obj/../USER/main.c:191
            if(transinfo==33)
     640:	000a1683          	lh	a3,0(s4)
     644:	02100713          	li	a4,33
     648:	f6e698e3          	bne	a3,a4,5b8 <EXTI0_IRQHandler+0x11e>
C:\Users\windows\Desktop\比赛\100 成渝版 带按键\17 110 舵机横向放置 比赛版\RED_BULL\Dual-core_Communication_Demo\MASTER\obj/../USER/main.c:192
                motion_Sign=2;
     64c:	4709                	li	a4,2
     64e:	b79d                	j	5b4 <EXTI0_IRQHandler+0x11a>
C:\Users\windows\Desktop\比赛\100 成渝版 带按键\17 110 舵机横向放置 比赛版\RED_BULL\Dual-core_Communication_Demo\MASTER\obj/../USER/main.c:195
            if(transinfo==33)
     650:	000a1683          	lh	a3,0(s4)
     654:	02100713          	li	a4,33
     658:	bf99                	j	5ae <EXTI0_IRQHandler+0x114>
C:\Users\windows\Desktop\比赛\100 成渝版 带按键\17 110 舵机横向放置 比赛版\RED_BULL\Dual-core_Communication_Demo\MASTER\obj/../USER/main.c:214
        {
        case 0:
            if(transinfo==55)//左出库
     65a:	000a1783          	lh	a5,0(s4)
     65e:	03700713          	li	a4,55
     662:	02e79163          	bne	a5,a4,684 <EXTI0_IRQHandler+0x1ea>
C:\Users\windows\Desktop\比赛\100 成渝版 带按键\17 110 舵机横向放置 比赛版\RED_BULL\Dual-core_Communication_Demo\MASTER\obj/../USER/main.c:216
            {
                target_fl_speed=target_out_speed;
     666:	80819703          	lh	a4,-2040(gp) # 20000018 <target_out_speed>
C:\Users\windows\Desktop\比赛\100 成渝版 带按键\17 110 舵机横向放置 比赛版\RED_BULL\Dual-core_Communication_Demo\MASTER\obj/../USER/main.c:217
                target_fr_speed=-target_out_speed;
     66a:	40e007b3          	neg	a5,a4
     66e:	07c2                	slli	a5,a5,0x10
     670:	87c1                	srai	a5,a5,0x10
C:\Users\windows\Desktop\比赛\100 成渝版 带按键\17 110 舵机横向放置 比赛版\RED_BULL\Dual-core_Communication_Demo\MASTER\obj/../USER/main.c:216
                target_fl_speed=target_out_speed;
     672:	00e99023          	sh	a4,0(s3)
C:\Users\windows\Desktop\比赛\100 成渝版 带按键\17 110 舵机横向放置 比赛版\RED_BULL\Dual-core_Communication_Demo\MASTER\obj/../USER/main.c:217
                target_fr_speed=-target_out_speed;
     676:	00f91023          	sh	a5,0(s2)
C:\Users\windows\Desktop\比赛\100 成渝版 带按键\17 110 舵机横向放置 比赛版\RED_BULL\Dual-core_Communication_Demo\MASTER\obj/../USER/main.c:254
            break;
        case 4://车直走状态，进入右岔路需要左旋转
            pwm_duty(PWM1_CH1_A8, servo_StoR_duty);
            target_fl_speed=-target_rotate_speed;
            target_fr_speed=target_rotate_speed;
            target_rl_speed=-target_rotate_speed;
     67a:	00f49023          	sh	a5,0(s1)
C:\Users\windows\Desktop\比赛\100 成渝版 带按键\17 110 舵机横向放置 比赛版\RED_BULL\Dual-core_Communication_Demo\MASTER\obj/../USER/main.c:255
            target_rr_speed=target_rotate_speed;
     67e:	00e41023          	sh	a4,0(s0)
C:\Users\windows\Desktop\比赛\100 成渝版 带按键\17 110 舵机横向放置 比赛版\RED_BULL\Dual-core_Communication_Demo\MASTER\obj/../USER/main.c:256
            break;
     682:	a8bd                	j	700 <EXTI0_IRQHandler+0x266>
C:\Users\windows\Desktop\比赛\100 成渝版 带按键\17 110 舵机横向放置 比赛版\RED_BULL\Dual-core_Communication_Demo\MASTER\obj/../USER/main.c:221
            else if(transinfo==57)//右出库
     684:	03900713          	li	a4,57
     688:	06e79c63          	bne	a5,a4,700 <EXTI0_IRQHandler+0x266>
C:\Users\windows\Desktop\比赛\100 成渝版 带按键\17 110 舵机横向放置 比赛版\RED_BULL\Dual-core_Communication_Demo\MASTER\obj/../USER/main.c:223
                target_fl_speed=-target_out_speed;
     68c:	80819703          	lh	a4,-2040(gp) # 20000018 <target_out_speed>
     690:	40e007b3          	neg	a5,a4
     694:	07c2                	slli	a5,a5,0x10
     696:	87c1                	srai	a5,a5,0x10
     698:	00f99023          	sh	a5,0(s3)
C:\Users\windows\Desktop\比赛\100 成渝版 带按键\17 110 舵机横向放置 比赛版\RED_BULL\Dual-core_Communication_Demo\MASTER\obj/../USER/main.c:224
                target_fr_speed=target_out_speed;
     69c:	00e91023          	sh	a4,0(s2)
C:\Users\windows\Desktop\比赛\100 成渝版 带按键\17 110 舵机横向放置 比赛版\RED_BULL\Dual-core_Communication_Demo\MASTER\obj/../USER/main.c:287
            target_rr_speed=target_rotate_sup_speed;
            break;
        case 9:
            target_fl_speed=target_rotate_sup_speed;
            target_fr_speed=-target_rotate_sup_speed;
            target_rl_speed=target_rotate_sup_speed;
     6a0:	00e49023          	sh	a4,0(s1)
C:\Users\windows\Desktop\比赛\100 成渝版 带按键\17 110 舵机横向放置 比赛版\RED_BULL\Dual-core_Communication_Demo\MASTER\obj/../USER/main.c:288
            target_rr_speed=-target_rotate_sup_speed;
     6a4:	00f41023          	sh	a5,0(s0)
C:\Users\windows\Desktop\比赛\100 成渝版 带按键\17 110 舵机横向放置 比赛版\RED_BULL\Dual-core_Communication_Demo\MASTER\obj/../USER/main.c:289
            break;
     6a8:	a8a1                	j	700 <EXTI0_IRQHandler+0x266>
C:\Users\windows\Desktop\比赛\100 成渝版 带按键\17 110 舵机横向放置 比赛版\RED_BULL\Dual-core_Communication_Demo\MASTER\obj/../USER/main.c:230
            PID_posCtrl(&Pid_dir_redbull, slave_position);
     6aa:	000a9503          	lh	a0,0(s5)
     6ae:	456030ef          	jal	ra,3b04 <__floatsisf>
     6b2:	85aa                	mv	a1,a0
     6b4:	87418513          	addi	a0,gp,-1932 # 20000084 <Pid_dir_redbull>
     6b8:	87418a93          	addi	s5,gp,-1932 # 20000084 <Pid_dir_redbull>
     6bc:	379010ef          	jal	ra,2234 <PID_posCtrl>
C:\Users\windows\Desktop\比赛\100 成渝版 带按键\17 110 舵机横向放置 比赛版\RED_BULL\Dual-core_Communication_Demo\MASTER\obj/../USER/main.c:231
            target_fl_speed=target_main_speed+Pid_dir_redbull.out;
     6c0:	80619503          	lh	a0,-2042(gp) # 20000016 <target_main_speed>
     6c4:	440030ef          	jal	ra,3b04 <__floatsisf>
     6c8:	018aac83          	lw	s9,24(s5)
     6cc:	8d2a                	mv	s10,a0
     6ce:	85e6                	mv	a1,s9
     6d0:	13f020ef          	jal	ra,300e <__addsf3>
     6d4:	3ce030ef          	jal	ra,3aa2 <__fixsfsi>
     6d8:	01051a93          	slli	s5,a0,0x10
     6dc:	410ada93          	srai	s5,s5,0x10
C:\Users\windows\Desktop\比赛\100 成渝版 带按键\17 110 舵机横向放置 比赛版\RED_BULL\Dual-core_Communication_Demo\MASTER\obj/../USER/main.c:232
            target_fr_speed=target_main_speed-Pid_dir_redbull.out;
     6e0:	85e6                	mv	a1,s9
C:\Users\windows\Desktop\比赛\100 成渝版 带按键\17 110 舵机横向放置 比赛版\RED_BULL\Dual-core_Communication_Demo\MASTER\obj/../USER/main.c:231
            target_fl_speed=target_main_speed+Pid_dir_redbull.out;
     6e2:	01599023          	sh	s5,0(s3)
C:\Users\windows\Desktop\比赛\100 成渝版 带按键\17 110 舵机横向放置 比赛版\RED_BULL\Dual-core_Communication_Demo\MASTER\obj/../USER/main.c:232
            target_fr_speed=target_main_speed-Pid_dir_redbull.out;
     6e6:	856a                	mv	a0,s10
     6e8:	032030ef          	jal	ra,371a <__subsf3>
     6ec:	3b6030ef          	jal	ra,3aa2 <__fixsfsi>
     6f0:	0542                	slli	a0,a0,0x10
     6f2:	8541                	srai	a0,a0,0x10
     6f4:	00a91023          	sh	a0,0(s2)
C:\Users\windows\Desktop\比赛\100 成渝版 带按键\17 110 舵机横向放置 比赛版\RED_BULL\Dual-core_Communication_Demo\MASTER\obj/../USER/main.c:233
            target_rl_speed=target_main_speed+Pid_dir_redbull.out;
     6f8:	01549023          	sh	s5,0(s1)
C:\Users\windows\Desktop\比赛\100 成渝版 带按键\17 110 舵机横向放置 比赛版\RED_BULL\Dual-core_Communication_Demo\MASTER\obj/../USER/main.c:241
            target_rr_speed=-target_sup_speed-Pid_dir_crab.out;
     6fc:	00a41023          	sh	a0,0(s0)
C:\Users\windows\Desktop\比赛\100 成渝版 带按键\17 110 舵机横向放置 比赛版\RED_BULL\Dual-core_Communication_Demo\MASTER\obj/../USER/main.c:292
        }

        if(transinfo==90)//车库刹车
     700:	000a1703          	lh	a4,0(s4)
     704:	05a00793          	li	a5,90
     708:	00f71a63          	bne	a4,a5,71c <EXTI0_IRQHandler+0x282>
C:\Users\windows\Desktop\比赛\100 成渝版 带按键\17 110 舵机横向放置 比赛版\RED_BULL\Dual-core_Communication_Demo\MASTER\obj/../USER/main.c:293
            target_fl_speed=target_fr_speed=target_rl_speed=target_rr_speed=0;
     70c:	00041023          	sh	zero,0(s0)
     710:	00049023          	sh	zero,0(s1)
     714:	00091023          	sh	zero,0(s2)
     718:	00099023          	sh	zero,0(s3)
C:\Users\windows\Desktop\比赛\100 成渝版 带按键\17 110 舵机横向放置 比赛版\RED_BULL\Dual-core_Communication_Demo\MASTER\obj/../USER/main.c:295

        PID_incCtrl(&Pid_fl,(float)(target_fl_speed-slave_encoder_left));
     71c:	81e19783          	lh	a5,-2018(gp) # 2000002e <slave_encoder_left>
     720:	00099503          	lh	a0,0(s3)
     724:	8d1d                	sub	a0,a0,a5
     726:	3de030ef          	jal	ra,3b04 <__floatsisf>
     72a:	85aa                	mv	a1,a0
     72c:	89c18513          	addi	a0,gp,-1892 # 200000ac <Pid_fl>
     730:	89c18993          	addi	s3,gp,-1892 # 200000ac <Pid_fl>
     734:	365010ef          	jal	ra,2298 <PID_incCtrl>
C:\Users\windows\Desktop\比赛\100 成渝版 带按键\17 110 舵机横向放置 比赛版\RED_BULL\Dual-core_Communication_Demo\MASTER\obj/../USER/main.c:296
        PID_incCtrl(&Pid_fr,(float)(target_fr_speed-slave_encoder_right));
     738:	000c1783          	lh	a5,0(s8)
     73c:	00091503          	lh	a0,0(s2)
     740:	8d1d                	sub	a0,a0,a5
     742:	3c2030ef          	jal	ra,3b04 <__floatsisf>
     746:	85aa                	mv	a1,a0
     748:	8c418513          	addi	a0,gp,-1852 # 200000d4 <Pid_fr>
     74c:	8c418913          	addi	s2,gp,-1852 # 200000d4 <Pid_fr>
     750:	349010ef          	jal	ra,2298 <PID_incCtrl>
C:\Users\windows\Desktop\比赛\100 成渝版 带按键\17 110 舵机横向放置 比赛版\RED_BULL\Dual-core_Communication_Demo\MASTER\obj/../USER/main.c:297
        PID_incCtrl(&Pid_rl,(float)(target_rl_speed-master_encoder_left));
     754:	000b9783          	lh	a5,0(s7)
     758:	00049503          	lh	a0,0(s1)
     75c:	8d1d                	sub	a0,a0,a5
     75e:	3a6030ef          	jal	ra,3b04 <__floatsisf>
     762:	85aa                	mv	a1,a0
     764:	8ec18513          	addi	a0,gp,-1812 # 200000fc <Pid_rl>
     768:	8ec18493          	addi	s1,gp,-1812 # 200000fc <Pid_rl>
     76c:	32d010ef          	jal	ra,2298 <PID_incCtrl>
C:\Users\windows\Desktop\比赛\100 成渝版 带按键\17 110 舵机横向放置 比赛版\RED_BULL\Dual-core_Communication_Demo\MASTER\obj/../USER/main.c:298
        PID_incCtrl(&Pid_rr,(float)(target_rr_speed-master_encoder_right));
     770:	000b1783          	lh	a5,0(s6)
     774:	00041503          	lh	a0,0(s0)
     778:	8d1d                	sub	a0,a0,a5
     77a:	38a030ef          	jal	ra,3b04 <__floatsisf>
     77e:	85aa                	mv	a1,a0
     780:	91418513          	addi	a0,gp,-1772 # 20000124 <Pid_rr>
     784:	91418413          	addi	s0,gp,-1772 # 20000124 <Pid_rr>
     788:	311010ef          	jal	ra,2298 <PID_incCtrl>
C:\Users\windows\Desktop\比赛\100 成渝版 带按键\17 110 舵机横向放置 比赛版\RED_BULL\Dual-core_Communication_Demo\MASTER\obj/../USER/main.c:300

        Duty_All((int32)Pid_fl.out,(int32)Pid_fr.out,(int32)Pid_rl.out,(int32)Pid_rr.out);
     78c:	4c08                	lw	a0,24(s0)
     78e:	314030ef          	jal	ra,3aa2 <__fixsfsi>
     792:	c62a                	sw	a0,12(sp)
     794:	4c88                	lw	a0,24(s1)
     796:	30c030ef          	jal	ra,3aa2 <__fixsfsi>
     79a:	c42a                	sw	a0,8(sp)
     79c:	01892503          	lw	a0,24(s2)
     7a0:	302030ef          	jal	ra,3aa2 <__fixsfsi>
     7a4:	c22a                	sw	a0,4(sp)
     7a6:	0189a503          	lw	a0,24(s3)
     7aa:	2f8030ef          	jal	ra,3aa2 <__fixsfsi>
     7ae:	46b2                	lw	a3,12(sp)
     7b0:	4622                	lw	a2,8(sp)
     7b2:	4592                	lw	a1,4(sp)
     7b4:	189010ef          	jal	ra,213c <Duty_All>
C:\Users\windows\Desktop\比赛\100 成渝版 带按键\17 110 舵机横向放置 比赛版\RED_BULL\Dual-core_Communication_Demo\MASTER\obj/../USER/main.c:302

        show_flag = 1;                                  //屏幕显示标志位
     7b8:	4705                	li	a4,1
     7ba:	80e18ea3          	sb	a4,-2019(gp) # 2000002d <show_flag>
C:\Users\windows\Desktop\比赛\100 成渝版 带按键\17 110 舵机横向放置 比赛版\RED_BULL\Dual-core_Communication_Demo\MASTER\obj/../USER/main.c:304
    }
}
     7be:	5472                	lw	s0,60(sp)
     7c0:	54e2                	lw	s1,56(sp)
     7c2:	5952                	lw	s2,52(sp)
     7c4:	59c2                	lw	s3,48(sp)
     7c6:	5a32                	lw	s4,44(sp)
     7c8:	5aa2                	lw	s5,40(sp)
     7ca:	5b12                	lw	s6,36(sp)
     7cc:	5b82                	lw	s7,32(sp)
     7ce:	4c72                	lw	s8,28(sp)
     7d0:	4ce2                	lw	s9,24(sp)
     7d2:	4d52                	lw	s10,20(sp)
     7d4:	6121                	addi	sp,sp,64
     7d6:	30200073          	mret
C:\Users\windows\Desktop\比赛\100 成渝版 带按键\17 110 舵机横向放置 比赛版\RED_BULL\Dual-core_Communication_Demo\MASTER\obj/../USER/main.c:237
            PID_posCtrl(&Pid_dir_crab, slave_position);
     7da:	000a9503          	lh	a0,0(s5)
     7de:	326030ef          	jal	ra,3b04 <__floatsisf>
     7e2:	85aa                	mv	a1,a0
     7e4:	84c18513          	addi	a0,gp,-1972 # 2000005c <Pid_dir_crab>
     7e8:	84c18a93          	addi	s5,gp,-1972 # 2000005c <Pid_dir_crab>
     7ec:	249010ef          	jal	ra,2234 <PID_posCtrl>
C:\Users\windows\Desktop\比赛\100 成渝版 带按键\17 110 舵机横向放置 比赛版\RED_BULL\Dual-core_Communication_Demo\MASTER\obj/../USER/main.c:238
            target_fl_speed=-target_sup_speed+Pid_dir_crab.out;
     7f0:	80e19c83          	lh	s9,-2034(gp) # 2000001e <target_sup_speed>
     7f4:	41900533          	neg	a0,s9
     7f8:	30c030ef          	jal	ra,3b04 <__floatsisf>
     7fc:	018aaa83          	lw	s5,24(s5)
     800:	8d2a                	mv	s10,a0
     802:	85d6                	mv	a1,s5
     804:	00b020ef          	jal	ra,300e <__addsf3>
     808:	29a030ef          	jal	ra,3aa2 <__fixsfsi>
     80c:	00a99023          	sh	a0,0(s3)
C:\Users\windows\Desktop\比赛\100 成渝版 带按键\17 110 舵机横向放置 比赛版\RED_BULL\Dual-core_Communication_Demo\MASTER\obj/../USER/main.c:239
            target_fr_speed=target_sup_speed-Pid_dir_crab.out;
     810:	8566                	mv	a0,s9
     812:	2f2030ef          	jal	ra,3b04 <__floatsisf>
     816:	85d6                	mv	a1,s5
     818:	8caa                	mv	s9,a0
     81a:	701020ef          	jal	ra,371a <__subsf3>
     81e:	284030ef          	jal	ra,3aa2 <__fixsfsi>
C:\Users\windows\Desktop\比赛\100 成渝版 带按键\17 110 舵机横向放置 比赛版\RED_BULL\Dual-core_Communication_Demo\MASTER\obj/../USER/main.c:240
            target_rl_speed=target_sup_speed+Pid_dir_crab.out;
     822:	85e6                	mv	a1,s9
C:\Users\windows\Desktop\比赛\100 成渝版 带按键\17 110 舵机横向放置 比赛版\RED_BULL\Dual-core_Communication_Demo\MASTER\obj/../USER/main.c:239
            target_fr_speed=target_sup_speed-Pid_dir_crab.out;
     824:	00a91023          	sh	a0,0(s2)
C:\Users\windows\Desktop\比赛\100 成渝版 带按键\17 110 舵机横向放置 比赛版\RED_BULL\Dual-core_Communication_Demo\MASTER\obj/../USER/main.c:240
            target_rl_speed=target_sup_speed+Pid_dir_crab.out;
     828:	8556                	mv	a0,s5
     82a:	7e4020ef          	jal	ra,300e <__addsf3>
     82e:	274030ef          	jal	ra,3aa2 <__fixsfsi>
     832:	00a49023          	sh	a0,0(s1)
C:\Users\windows\Desktop\比赛\100 成渝版 带按键\17 110 舵机横向放置 比赛版\RED_BULL\Dual-core_Communication_Demo\MASTER\obj/../USER/main.c:241
            target_rr_speed=-target_sup_speed-Pid_dir_crab.out;
     836:	85d6                	mv	a1,s5
     838:	856a                	mv	a0,s10
     83a:	6e1020ef          	jal	ra,371a <__subsf3>
     83e:	264030ef          	jal	ra,3aa2 <__fixsfsi>
     842:	bd6d                	j	6fc <EXTI0_IRQHandler+0x262>
C:\Users\windows\Desktop\比赛\100 成渝版 带按键\17 110 舵机横向放置 比赛版\RED_BULL\Dual-core_Communication_Demo\MASTER\obj/../USER/main.c:244
            PID_posCtrl(&Pid_dir_crab, slave_position);
     844:	000a9503          	lh	a0,0(s5)
     848:	2bc030ef          	jal	ra,3b04 <__floatsisf>
     84c:	85aa                	mv	a1,a0
     84e:	84c18513          	addi	a0,gp,-1972 # 2000005c <Pid_dir_crab>
     852:	84c18a93          	addi	s5,gp,-1972 # 2000005c <Pid_dir_crab>
     856:	1df010ef          	jal	ra,2234 <PID_posCtrl>
C:\Users\windows\Desktop\比赛\100 成渝版 带按键\17 110 舵机横向放置 比赛版\RED_BULL\Dual-core_Communication_Demo\MASTER\obj/../USER/main.c:245
            target_fl_speed=target_sup_speed+Pid_dir_crab.out;
     85a:	80e19c83          	lh	s9,-2034(gp) # 2000001e <target_sup_speed>
     85e:	8566                	mv	a0,s9
     860:	2a4030ef          	jal	ra,3b04 <__floatsisf>
     864:	018aaa83          	lw	s5,24(s5)
     868:	8d2a                	mv	s10,a0
     86a:	85d6                	mv	a1,s5
     86c:	7a2020ef          	jal	ra,300e <__addsf3>
     870:	232030ef          	jal	ra,3aa2 <__fixsfsi>
     874:	00a99023          	sh	a0,0(s3)
C:\Users\windows\Desktop\比赛\100 成渝版 带按键\17 110 舵机横向放置 比赛版\RED_BULL\Dual-core_Communication_Demo\MASTER\obj/../USER/main.c:246
            target_fr_speed=-target_sup_speed-Pid_dir_crab.out;
     878:	41900533          	neg	a0,s9
     87c:	bf59                	j	812 <__stack_size+0x12>
C:\Users\windows\Desktop\比赛\100 成渝版 带按键\17 110 舵机横向放置 比赛版\RED_BULL\Dual-core_Communication_Demo\MASTER\obj/../USER/main.c:251
            pwm_duty(PWM1_CH1_A8, servo_StoR_duty);
     87e:	200007b7          	lui	a5,0x20000
     882:	0127d583          	lhu	a1,18(a5) # 20000012 <servo_StoR_duty>
     886:	4501                	li	a0,0
     888:	21a010ef          	jal	ra,1aa2 <pwm_duty>
C:\Users\windows\Desktop\比赛\100 成渝版 带按键\17 110 舵机横向放置 比赛版\RED_BULL\Dual-core_Communication_Demo\MASTER\obj/../USER/main.c:252
            target_fl_speed=-target_rotate_speed;
     88c:	80a19703          	lh	a4,-2038(gp) # 2000001a <target_rotate_speed>
     890:	40e007b3          	neg	a5,a4
     894:	07c2                	slli	a5,a5,0x10
     896:	87c1                	srai	a5,a5,0x10
     898:	00f99023          	sh	a5,0(s3)
C:\Users\windows\Desktop\比赛\100 成渝版 带按键\17 110 舵机横向放置 比赛版\RED_BULL\Dual-core_Communication_Demo\MASTER\obj/../USER/main.c:253
            target_fr_speed=target_rotate_speed;
     89c:	00e91023          	sh	a4,0(s2)
     8a0:	bbe9                	j	67a <EXTI0_IRQHandler+0x1e0>
C:\Users\windows\Desktop\比赛\100 成渝版 带按键\17 110 舵机横向放置 比赛版\RED_BULL\Dual-core_Communication_Demo\MASTER\obj/../USER/main.c:258
            pwm_duty(PWM1_CH1_A8, servo_toS_duty);
     8a2:	8041d583          	lhu	a1,-2044(gp) # 20000014 <servo_toS_duty>
     8a6:	4501                	li	a0,0
     8a8:	1fa010ef          	jal	ra,1aa2 <pwm_duty>
C:\Users\windows\Desktop\比赛\100 成渝版 带按键\17 110 舵机横向放置 比赛版\RED_BULL\Dual-core_Communication_Demo\MASTER\obj/../USER/main.c:279
            target_fl_speed=-target_rotate_sup_speed;
     8ac:	80c19703          	lh	a4,-2036(gp) # 2000001c <target_rotate_sup_speed>
     8b0:	b7c5                	j	890 <__stack_size+0x90>
C:\Users\windows\Desktop\比赛\100 成渝版 带按键\17 110 舵机横向放置 比赛版\RED_BULL\Dual-core_Communication_Demo\MASTER\obj/../USER/main.c:265
            pwm_duty(PWM1_CH1_A8, servo_StoL_duty);
     8b2:	200007b7          	lui	a5,0x20000
     8b6:	0107d583          	lhu	a1,16(a5) # 20000010 <servo_StoL_duty>
     8ba:	4501                	li	a0,0
     8bc:	1e6010ef          	jal	ra,1aa2 <pwm_duty>
C:\Users\windows\Desktop\比赛\100 成渝版 带按键\17 110 舵机横向放置 比赛版\RED_BULL\Dual-core_Communication_Demo\MASTER\obj/../USER/main.c:266
            target_fl_speed=target_rotate_speed;
     8c0:	80a19703          	lh	a4,-2038(gp) # 2000001a <target_rotate_speed>
C:\Users\windows\Desktop\比赛\100 成渝版 带按键\17 110 舵机横向放置 比赛版\RED_BULL\Dual-core_Communication_Demo\MASTER\obj/../USER/main.c:286
            target_fr_speed=-target_rotate_sup_speed;
     8c4:	40e007b3          	neg	a5,a4
     8c8:	07c2                	slli	a5,a5,0x10
     8ca:	87c1                	srai	a5,a5,0x10
C:\Users\windows\Desktop\比赛\100 成渝版 带按键\17 110 舵机横向放置 比赛版\RED_BULL\Dual-core_Communication_Demo\MASTER\obj/../USER/main.c:285
            target_fl_speed=target_rotate_sup_speed;
     8cc:	00e99023          	sh	a4,0(s3)
C:\Users\windows\Desktop\比赛\100 成渝版 带按键\17 110 舵机横向放置 比赛版\RED_BULL\Dual-core_Communication_Demo\MASTER\obj/../USER/main.c:286
            target_fr_speed=-target_rotate_sup_speed;
     8d0:	00f91023          	sh	a5,0(s2)
     8d4:	b3f1                	j	6a0 <EXTI0_IRQHandler+0x206>
C:\Users\windows\Desktop\比赛\100 成渝版 带按键\17 110 舵机横向放置 比赛版\RED_BULL\Dual-core_Communication_Demo\MASTER\obj/../USER/main.c:272
            pwm_duty(PWM1_CH1_A8, servo_toS_duty);
     8d6:	8041d583          	lhu	a1,-2044(gp) # 20000014 <servo_toS_duty>
     8da:	4501                	li	a0,0
     8dc:	1c6010ef          	jal	ra,1aa2 <pwm_duty>
C:\Users\windows\Desktop\比赛\100 成渝版 带按键\17 110 舵机横向放置 比赛版\RED_BULL\Dual-core_Communication_Demo\MASTER\obj/../USER/main.c:285
            target_fl_speed=target_rotate_sup_speed;
     8e0:	80c19703          	lh	a4,-2036(gp) # 2000001c <target_rotate_sup_speed>
     8e4:	b7c5                	j	8c4 <__stack_size+0xc4>

000008e6 <Encoder_Init_Master>:
Encoder_Init_Master():
C:\Users\windows\Desktop\比赛\100 成渝版 带按键\17 110 舵机横向放置 比赛版\RED_BULL\Dual-core_Communication_Demo\MASTER\obj/../USER/main.c:307

void Encoder_Init_Master()//主机编码器初始化函数
{
     8e6:	1141                	addi	sp,sp,-16
C:\Users\windows\Desktop\比赛\100 成渝版 带按键\17 110 舵机横向放置 比赛版\RED_BULL\Dual-core_Communication_Demo\MASTER\obj/../USER/main.c:308
    timer_quad_init(TIMER_2,TIMER2_CHA_A15,TIMER2_CHB_B3);//编码器3初始化，使用定时器2
     8e8:	4615                	li	a2,5
     8ea:	4591                	li	a1,4
     8ec:	4505                	li	a0,1
C:\Users\windows\Desktop\比赛\100 成渝版 带按键\17 110 舵机横向放置 比赛版\RED_BULL\Dual-core_Communication_Demo\MASTER\obj/../USER/main.c:307
{
     8ee:	c606                	sw	ra,12(sp)
C:\Users\windows\Desktop\比赛\100 成渝版 带按键\17 110 舵机横向放置 比赛版\RED_BULL\Dual-core_Communication_Demo\MASTER\obj/../USER/main.c:308
    timer_quad_init(TIMER_2,TIMER2_CHA_A15,TIMER2_CHB_B3);//编码器3初始化，使用定时器2
     8f0:	324010ef          	jal	ra,1c14 <timer_quad_init>
C:\Users\windows\Desktop\比赛\100 成渝版 带按键\17 110 舵机横向放置 比赛版\RED_BULL\Dual-core_Communication_Demo\MASTER\obj/../USER/main.c:311
    timer_quad_init(TIMER_3,TIMER3_CHA_B4,TIMER3_CHB_B5);//编码器4初始化，使用定时器3
    return;
}
     8f4:	40b2                	lw	ra,12(sp)
C:\Users\windows\Desktop\比赛\100 成渝版 带按键\17 110 舵机横向放置 比赛版\RED_BULL\Dual-core_Communication_Demo\MASTER\obj/../USER/main.c:309
    timer_quad_init(TIMER_3,TIMER3_CHA_B4,TIMER3_CHB_B5);//编码器4初始化，使用定时器3
     8f6:	462d                	li	a2,11
     8f8:	45a9                	li	a1,10
     8fa:	4509                	li	a0,2
C:\Users\windows\Desktop\比赛\100 成渝版 带按键\17 110 舵机横向放置 比赛版\RED_BULL\Dual-core_Communication_Demo\MASTER\obj/../USER/main.c:311
}
     8fc:	0141                	addi	sp,sp,16
C:\Users\windows\Desktop\比赛\100 成渝版 带按键\17 110 舵机横向放置 比赛版\RED_BULL\Dual-core_Communication_Demo\MASTER\obj/../USER/main.c:309
    timer_quad_init(TIMER_3,TIMER3_CHA_B4,TIMER3_CHB_B5);//编码器4初始化，使用定时器3
     8fe:	3160106f          	j	1c14 <timer_quad_init>

00000902 <main>:
main():
C:\Users\windows\Desktop\比赛\100 成渝版 带按键\17 110 舵机横向放置 比赛版\RED_BULL\Dual-core_Communication_Demo\MASTER\obj/../USER/main.c:314

int main(void)
{
     902:	1141                	addi	sp,sp,-16
     904:	c606                	sw	ra,12(sp)
C:\Users\windows\Desktop\比赛\100 成渝版 带按键\17 110 舵机横向放置 比赛版\RED_BULL\Dual-core_Communication_Demo\MASTER\obj/../USER/main.c:315
    DisableGlobalIRQ();
     906:	567000ef          	jal	ra,166c <DisableGlobalIRQ>
C:\Users\windows\Desktop\比赛\100 成渝版 带按键\17 110 舵机横向放置 比赛版\RED_BULL\Dual-core_Communication_Demo\MASTER\obj/../USER/main.c:316
    board_init();           //务必保留，本函数用于初始化MPU 时钟 调试串口
     90a:	5ae010ef          	jal	ra,1eb8 <board_init>
C:\Users\windows\Desktop\比赛\100 成渝版 带按键\17 110 舵机横向放置 比赛版\RED_BULL\Dual-core_Communication_Demo\MASTER\obj/../USER/main.c:319

    //串口的抢占优先级一定要比外部中断的抢占优先级高，这样才能实时接收从机数据
    uart_init(UART_3, 460800, UART3_TX_B10, UART3_RX_B11);  //串口3初始化，波特率460800
     90e:	000715b7          	lui	a1,0x71
     912:	02100693          	li	a3,33
     916:	02000613          	li	a2,32
     91a:	80058593          	addi	a1,a1,-2048 # 70800 <_data_lma+0x6c978>
     91e:	4509                	li	a0,2
     920:	4b0010ef          	jal	ra,1dd0 <uart_init>
C:\Users\windows\Desktop\比赛\100 成渝版 带按键\17 110 舵机横向放置 比赛版\RED_BULL\Dual-core_Communication_Demo\MASTER\obj/../USER/main.c:320
    uart_rx_irq(UART_3, ENABLE);                            //默认抢占优先级0 次优先级0。
     924:	4585                	li	a1,1
     926:	4509                	li	a0,2
     928:	55a010ef          	jal	ra,1e82 <uart_rx_irq>
C:\Users\windows\Desktop\比赛\100 成渝版 带按键\17 110 舵机横向放置 比赛版\RED_BULL\Dual-core_Communication_Demo\MASTER\obj/../USER/main.c:321
    gpio_interrupt_init(A0, RISING, GPIO_INT_CONFIG);       //A0初始化为GPIO 上升沿触发
     92c:	04800613          	li	a2,72
     930:	45a1                	li	a1,8
     932:	4501                	li	a0,0
     934:	46f000ef          	jal	ra,15a2 <gpio_interrupt_init>
C:\Users\windows\Desktop\比赛\100 成渝版 带按键\17 110 舵机横向放置 比赛版\RED_BULL\Dual-core_Communication_Demo\MASTER\obj/../USER/main.c:322
    nvic_init(EXTI0_IRQn, 1, 1, ENABLE);     //EXTI0优先级配置，抢占优先级1，次优先级1
     938:	4685                	li	a3,1
     93a:	4605                	li	a2,1
     93c:	4585                	li	a1,1
     93e:	4559                	li	a0,22
     940:	4c7000ef          	jal	ra,1606 <nvic_init>
C:\Users\windows\Desktop\比赛\100 成渝版 带按键\17 110 舵机横向放置 比赛版\RED_BULL\Dual-core_Communication_Demo\MASTER\obj/../USER/main.c:324

    pwm_init(PWM1_CH1_A8, 50, 750);  //舵机初始化到中间位置
     944:	2ee00613          	li	a2,750
     948:	03200593          	li	a1,50
     94c:	4501                	li	a0,0
     94e:	789000ef          	jal	ra,18d6 <pwm_init>
C:\Users\windows\Desktop\比赛\100 成渝版 带按键\17 110 舵机横向放置 比赛版\RED_BULL\Dual-core_Communication_Demo\MASTER\obj/../USER/main.c:326
    motion_Sign=0;//运动方式控制
    PID_Init(&Pid_fl,0);
     952:	4581                	li	a1,0
     954:	89c18513          	addi	a0,gp,-1892 # 200000ac <Pid_fl>
C:\Users\windows\Desktop\比赛\100 成渝版 带按键\17 110 舵机横向放置 比赛版\RED_BULL\Dual-core_Communication_Demo\MASTER\obj/../USER/main.c:325
    motion_Sign=0;//运动方式控制
     958:	80018e23          	sb	zero,-2020(gp) # 2000002c <motion_Sign>
C:\Users\windows\Desktop\比赛\100 成渝版 带按键\17 110 舵机横向放置 比赛版\RED_BULL\Dual-core_Communication_Demo\MASTER\obj/../USER/main.c:326
    PID_Init(&Pid_fl,0);
     95c:	055010ef          	jal	ra,21b0 <PID_Init>
C:\Users\windows\Desktop\比赛\100 成渝版 带按键\17 110 舵机横向放置 比赛版\RED_BULL\Dual-core_Communication_Demo\MASTER\obj/../USER/main.c:327
    PID_Init(&Pid_fr,1);
     960:	4585                	li	a1,1
     962:	8c418513          	addi	a0,gp,-1852 # 200000d4 <Pid_fr>
     966:	04b010ef          	jal	ra,21b0 <PID_Init>
C:\Users\windows\Desktop\比赛\100 成渝版 带按键\17 110 舵机横向放置 比赛版\RED_BULL\Dual-core_Communication_Demo\MASTER\obj/../USER/main.c:328
    PID_Init(&Pid_rl,2);
     96a:	4589                	li	a1,2
     96c:	8ec18513          	addi	a0,gp,-1812 # 200000fc <Pid_rl>
     970:	041010ef          	jal	ra,21b0 <PID_Init>
C:\Users\windows\Desktop\比赛\100 成渝版 带按键\17 110 舵机横向放置 比赛版\RED_BULL\Dual-core_Communication_Demo\MASTER\obj/../USER/main.c:329
    PID_Init(&Pid_rr,3);
     974:	458d                	li	a1,3
     976:	91418513          	addi	a0,gp,-1772 # 20000124 <Pid_rr>
     97a:	037010ef          	jal	ra,21b0 <PID_Init>
C:\Users\windows\Desktop\比赛\100 成渝版 带按键\17 110 舵机横向放置 比赛版\RED_BULL\Dual-core_Communication_Demo\MASTER\obj/../USER/main.c:330
    PID_dir_Init(&Pid_dir_redbull,0);
     97e:	4581                	li	a1,0
     980:	87418513          	addi	a0,gp,-1932 # 20000084 <Pid_dir_redbull>
     984:	7e6010ef          	jal	ra,216a <PID_dir_Init>
C:\Users\windows\Desktop\比赛\100 成渝版 带按键\17 110 舵机横向放置 比赛版\RED_BULL\Dual-core_Communication_Demo\MASTER\obj/../USER/main.c:331
    PID_dir_Init(&Pid_dir_crab,1);
     988:	4585                	li	a1,1
     98a:	84c18513          	addi	a0,gp,-1972 # 2000005c <Pid_dir_crab>
     98e:	7dc010ef          	jal	ra,216a <PID_dir_Init>
C:\Users\windows\Desktop\比赛\100 成渝版 带按键\17 110 舵机横向放置 比赛版\RED_BULL\Dual-core_Communication_Demo\MASTER\obj/../USER/main.c:332
    Duty_Init();
     992:	65a010ef          	jal	ra,1fec <Duty_Init>
C:\Users\windows\Desktop\比赛\100 成渝版 带按键\17 110 舵机横向放置 比赛版\RED_BULL\Dual-core_Communication_Demo\MASTER\obj/../USER/main.c:333
    Encoder_Init_Master();
     996:	3f81                	jal	8e6 <Encoder_Init_Master>
C:\Users\windows\Desktop\比赛\100 成渝版 带按键\17 110 舵机横向放置 比赛版\RED_BULL\Dual-core_Communication_Demo\MASTER\obj/../USER/main.c:335
    //总中断最后开启
    EnableGlobalIRQ(0);
     998:	4501                	li	a0,0
     99a:	4f9000ef          	jal	ra,1692 <EnableGlobalIRQ>
     99e:	81d1c783          	lbu	a5,-2019(gp) # 2000002d <show_flag>
C:\Users\windows\Desktop\比赛\100 成渝版 带按键\17 110 舵机横向放置 比赛版\RED_BULL\Dual-core_Communication_Demo\MASTER\obj/../USER/main.c:339

    while(1)
    {
        if(show_flag==1)
     9a2:	4705                	li	a4,1
     9a4:	00e79063          	bne	a5,a4,9a4 <main+0xa2>
C:\Users\windows\Desktop\比赛\100 成渝版 带按键\17 110 舵机横向放置 比赛版\RED_BULL\Dual-core_Communication_Demo\MASTER\obj/../USER/main.c:341
        {
            show_flag=0;
     9a8:	4781                	li	a5,0
     9aa:	bfed                	j	9a4 <main+0xa2>

000009ac <handle_reset>:
handle_reset():
C:\Users\windows\Desktop\比赛\100 成渝版 带按键\17 110 舵机横向放置 比赛版\RED_BULL\Dual-core_Communication_Demo\MASTER\obj/../Libraries/wch_libraries/Startup/startup_ch32v10x.S:147
	.weak	handle_reset
	.align	1
handle_reset:
.option push 
.option	norelax 
	la gp, __global_pointer$
     9ac:	20000197          	auipc	gp,0x20000
     9b0:	e6418193          	addi	gp,gp,-412 # 20000810 <__global_pointer$>
C:\Users\windows\Desktop\比赛\100 成渝版 带按键\17 110 舵机横向放置 比赛版\RED_BULL\Dual-core_Communication_Demo\MASTER\obj/../Libraries/wch_libraries/Startup/startup_ch32v10x.S:150
.option	pop 
1:
	la sp, _eusrstack 
     9b4:	20004117          	auipc	sp,0x20004
     9b8:	64c10113          	addi	sp,sp,1612 # 20005000 <_eusrstack>
C:\Users\windows\Desktop\比赛\100 成渝版 带按键\17 110 舵机横向放置 比赛版\RED_BULL\Dual-core_Communication_Demo\MASTER\obj/../Libraries/wch_libraries/Startup/startup_ch32v10x.S:153
2:
	/* Load data section from flash to RAM */
	la a0, _data_lma
     9bc:	00003517          	auipc	a0,0x3
     9c0:	4cc50513          	addi	a0,a0,1228 # 3e88 <_data_lma>
C:\Users\windows\Desktop\比赛\100 成渝版 带按键\17 110 舵机横向放置 比赛版\RED_BULL\Dual-core_Communication_Demo\MASTER\obj/../Libraries/wch_libraries/Startup/startup_ch32v10x.S:154
	la a1, _data_vma
     9c4:	1ffff597          	auipc	a1,0x1ffff
     9c8:	63c58593          	addi	a1,a1,1596 # 20000000 <_data_vma>
C:\Users\windows\Desktop\比赛\100 成渝版 带按键\17 110 舵机横向放置 比赛版\RED_BULL\Dual-core_Communication_Demo\MASTER\obj/../Libraries/wch_libraries/Startup/startup_ch32v10x.S:155
	la a2, _edata
     9cc:	81818613          	addi	a2,gp,-2024 # 20000028 <_edata>
C:\Users\windows\Desktop\比赛\100 成渝版 带按键\17 110 舵机横向放置 比赛版\RED_BULL\Dual-core_Communication_Demo\MASTER\obj/../Libraries/wch_libraries/Startup/startup_ch32v10x.S:156
	bgeu a1, a2, 2f
     9d0:	00c5fa63          	bgeu	a1,a2,9e4 <handle_reset+0x38>
C:\Users\windows\Desktop\比赛\100 成渝版 带按键\17 110 舵机横向放置 比赛版\RED_BULL\Dual-core_Communication_Demo\MASTER\obj/../Libraries/wch_libraries/Startup/startup_ch32v10x.S:158
1:
	lw t0, (a0)
     9d4:	00052283          	lw	t0,0(a0)
C:\Users\windows\Desktop\比赛\100 成渝版 带按键\17 110 舵机横向放置 比赛版\RED_BULL\Dual-core_Communication_Demo\MASTER\obj/../Libraries/wch_libraries/Startup/startup_ch32v10x.S:159
	sw t0, (a1)
     9d8:	0055a023          	sw	t0,0(a1)
C:\Users\windows\Desktop\比赛\100 成渝版 带按键\17 110 舵机横向放置 比赛版\RED_BULL\Dual-core_Communication_Demo\MASTER\obj/../Libraries/wch_libraries/Startup/startup_ch32v10x.S:160
	addi a0, a0, 4
     9dc:	0511                	addi	a0,a0,4
C:\Users\windows\Desktop\比赛\100 成渝版 带按键\17 110 舵机横向放置 比赛版\RED_BULL\Dual-core_Communication_Demo\MASTER\obj/../Libraries/wch_libraries/Startup/startup_ch32v10x.S:161
	addi a1, a1, 4
     9de:	0591                	addi	a1,a1,4
C:\Users\windows\Desktop\比赛\100 成渝版 带按键\17 110 舵机横向放置 比赛版\RED_BULL\Dual-core_Communication_Demo\MASTER\obj/../Libraries/wch_libraries/Startup/startup_ch32v10x.S:162
	bltu a1, a2, 1b
     9e0:	fec5eae3          	bltu	a1,a2,9d4 <handle_reset+0x28>
C:\Users\windows\Desktop\比赛\100 成渝版 带按键\17 110 舵机横向放置 比赛版\RED_BULL\Dual-core_Communication_Demo\MASTER\obj/../Libraries/wch_libraries/Startup/startup_ch32v10x.S:165
2:
	/* clear bss section */
	la a0, _sbss
     9e4:	81818513          	addi	a0,gp,-2024 # 20000028 <_edata>
C:\Users\windows\Desktop\比赛\100 成渝版 带按键\17 110 舵机横向放置 比赛版\RED_BULL\Dual-core_Communication_Demo\MASTER\obj/../Libraries/wch_libraries/Startup/startup_ch32v10x.S:166
	la a1, _ebss
     9e8:	95818593          	addi	a1,gp,-1704 # 20000168 <_ebss>
C:\Users\windows\Desktop\比赛\100 成渝版 带按键\17 110 舵机横向放置 比赛版\RED_BULL\Dual-core_Communication_Demo\MASTER\obj/../Libraries/wch_libraries/Startup/startup_ch32v10x.S:167
	bgeu a0, a1, 2f
     9ec:	00b57763          	bgeu	a0,a1,9fa <handle_reset+0x4e>
C:\Users\windows\Desktop\比赛\100 成渝版 带按键\17 110 舵机横向放置 比赛版\RED_BULL\Dual-core_Communication_Demo\MASTER\obj/../Libraries/wch_libraries/Startup/startup_ch32v10x.S:169
1:
	sw zero, (a0)
     9f0:	00052023          	sw	zero,0(a0)
C:\Users\windows\Desktop\比赛\100 成渝版 带按键\17 110 舵机横向放置 比赛版\RED_BULL\Dual-core_Communication_Demo\MASTER\obj/../Libraries/wch_libraries/Startup/startup_ch32v10x.S:170
	addi a0, a0, 4
     9f4:	0511                	addi	a0,a0,4
C:\Users\windows\Desktop\比赛\100 成渝版 带按键\17 110 舵机横向放置 比赛版\RED_BULL\Dual-core_Communication_Demo\MASTER\obj/../Libraries/wch_libraries/Startup/startup_ch32v10x.S:171
	bltu a0, a1, 1b
     9f6:	feb56de3          	bltu	a0,a1,9f0 <handle_reset+0x44>
C:\Users\windows\Desktop\比赛\100 成渝版 带按键\17 110 舵机横向放置 比赛版\RED_BULL\Dual-core_Communication_Demo\MASTER\obj/../Libraries/wch_libraries/Startup/startup_ch32v10x.S:174
2:
	/* enable all interrupt */
  li t0, 0x88
     9fa:	08800293          	li	t0,136
C:\Users\windows\Desktop\比赛\100 成渝版 带按键\17 110 舵机横向放置 比赛版\RED_BULL\Dual-core_Communication_Demo\MASTER\obj/../Libraries/wch_libraries/Startup/startup_ch32v10x.S:175
  csrs mstatus, t0
     9fe:	3002a073          	csrs	mstatus,t0
C:\Users\windows\Desktop\比赛\100 成渝版 带按键\17 110 舵机横向放置 比赛版\RED_BULL\Dual-core_Communication_Demo\MASTER\obj/../Libraries/wch_libraries/Startup/startup_ch32v10x.S:176
	la t0, _vector_base
     a02:	fffff297          	auipc	t0,0xfffff
     a06:	63628293          	addi	t0,t0,1590 # 38 <_einit>
C:\Users\windows\Desktop\比赛\100 成渝版 带按键\17 110 舵机横向放置 比赛版\RED_BULL\Dual-core_Communication_Demo\MASTER\obj/../Libraries/wch_libraries/Startup/startup_ch32v10x.S:177
  ori t0, t0, 1
     a0a:	0012e293          	ori	t0,t0,1
C:\Users\windows\Desktop\比赛\100 成渝版 带按键\17 110 舵机横向放置 比赛版\RED_BULL\Dual-core_Communication_Demo\MASTER\obj/../Libraries/wch_libraries/Startup/startup_ch32v10x.S:178
	csrw mtvec, t0
     a0e:	30529073          	csrw	mtvec,t0
C:\Users\windows\Desktop\比赛\100 成渝版 带按键\17 110 舵机横向放置 比赛版\RED_BULL\Dual-core_Communication_Demo\MASTER\obj/../Libraries/wch_libraries/Startup/startup_ch32v10x.S:180

  jal  SystemInit
     a12:	4d8010ef          	jal	ra,1eea <SystemInit>
C:\Users\windows\Desktop\比赛\100 成渝版 带按键\17 110 舵机横向放置 比赛版\RED_BULL\Dual-core_Communication_Demo\MASTER\obj/../Libraries/wch_libraries/Startup/startup_ch32v10x.S:181
	la t0, main
     a16:	00000297          	auipc	t0,0x0
     a1a:	eec28293          	addi	t0,t0,-276 # 902 <main>
C:\Users\windows\Desktop\比赛\100 成渝版 带按键\17 110 舵机横向放置 比赛版\RED_BULL\Dual-core_Communication_Demo\MASTER\obj/../Libraries/wch_libraries/Startup/startup_ch32v10x.S:182
	csrw mepc, t0
     a1e:	34129073          	csrw	mepc,t0
C:\Users\windows\Desktop\比赛\100 成渝版 带按键\17 110 舵机横向放置 比赛版\RED_BULL\Dual-core_Communication_Demo\MASTER\obj/../Libraries/wch_libraries/Startup/startup_ch32v10x.S:183
	mret
     a22:	30200073          	mret

00000a26 <DMA_GetFlagStatus>:
DMA_GetFlagStatus():
C:\Users\windows\Desktop\比赛\100 成渝版 带按键\17 110 舵机横向放置 比赛版\RED_BULL\Dual-core_Communication_Demo\MASTER\obj/../Libraries/wch_libraries/Peripheral/ch32v10x_dma.c:294
FlagStatus DMA_GetFlagStatus(uint32_t DMAy_FLAG)
{
  FlagStatus bitstatus = RESET;
  uint32_t tmpreg = 0;
  
  if ((DMAy_FLAG & FLAG_Mask) != (uint32_t)RESET)
     a26:	00351793          	slli	a5,a0,0x3
     a2a:	0007da63          	bgez	a5,a3e <DMA_GetFlagStatus+0x18>
C:\Users\windows\Desktop\比赛\100 成渝版 带按键\17 110 舵机横向放置 比赛版\RED_BULL\Dual-core_Communication_Demo\MASTER\obj/../Libraries/wch_libraries/Peripheral/ch32v10x_dma.c:296
  {
    tmpreg = DMA2->INTFR ;
     a2e:	400207b7          	lui	a5,0x40020
     a32:	4007a783          	lw	a5,1024(a5) # 40020400 <_eusrstack+0x2001b400>
C:\Users\windows\Desktop\比赛\100 成渝版 带按键\17 110 舵机横向放置 比赛版\RED_BULL\Dual-core_Communication_Demo\MASTER\obj/../Libraries/wch_libraries/Peripheral/ch32v10x_dma.c:303
  else
  {
    tmpreg = DMA1->INTFR ;
  }

  if ((tmpreg & DMAy_FLAG) != (uint32_t)RESET)
     a36:	8d7d                	and	a0,a0,a5
C:\Users\windows\Desktop\比赛\100 成渝版 带按键\17 110 舵机横向放置 比赛版\RED_BULL\Dual-core_Communication_Demo\MASTER\obj/../Libraries/wch_libraries/Peripheral/ch32v10x_dma.c:313
  {
    bitstatus = RESET;
  }
  
  return  bitstatus;
}
     a38:	00a03533          	snez	a0,a0
     a3c:	8082                	ret
C:\Users\windows\Desktop\比赛\100 成渝版 带按键\17 110 舵机横向放置 比赛版\RED_BULL\Dual-core_Communication_Demo\MASTER\obj/../Libraries/wch_libraries/Peripheral/ch32v10x_dma.c:300
    tmpreg = DMA1->INTFR ;
     a3e:	400207b7          	lui	a5,0x40020
     a42:	439c                	lw	a5,0(a5)
     a44:	bfcd                	j	a36 <DMA_GetFlagStatus+0x10>

00000a46 <DMA_ClearFlag>:
DMA_ClearFlag():
C:\Users\windows\Desktop\比赛\100 成渝版 带按键\17 110 舵机横向放置 比赛版\RED_BULL\Dual-core_Communication_Demo\MASTER\obj/../Libraries/wch_libraries/Peripheral/ch32v10x_dma.c:372
*                      DMA2_FLAG_TE5: DMA2 Channel5 transfer error flag.
* Return         : None 
*********************************************************************************/
void DMA_ClearFlag(uint32_t DMAy_FLAG)
{
  if ((DMAy_FLAG & FLAG_Mask) != (uint32_t)RESET)
     a46:	00351793          	slli	a5,a0,0x3
     a4a:	0007d763          	bgez	a5,a58 <DMA_ClearFlag+0x12>
C:\Users\windows\Desktop\比赛\100 成渝版 带按键\17 110 舵机横向放置 比赛版\RED_BULL\Dual-core_Communication_Demo\MASTER\obj/../Libraries/wch_libraries/Peripheral/ch32v10x_dma.c:374
  {
    DMA2->INTFCR = DMAy_FLAG;
     a4e:	400207b7          	lui	a5,0x40020
     a52:	40a7a223          	sw	a0,1028(a5) # 40020404 <_eusrstack+0x2001b404>
     a56:	8082                	ret
C:\Users\windows\Desktop\比赛\100 成渝版 带按键\17 110 舵机横向放置 比赛版\RED_BULL\Dual-core_Communication_Demo\MASTER\obj/../Libraries/wch_libraries/Peripheral/ch32v10x_dma.c:378
  }
  else
  {
    DMA1->INTFCR = DMAy_FLAG;
     a58:	400207b7          	lui	a5,0x40020
     a5c:	c3c8                	sw	a0,4(a5)
C:\Users\windows\Desktop\比赛\100 成渝版 带按键\17 110 舵机横向放置 比赛版\RED_BULL\Dual-core_Communication_Demo\MASTER\obj/../Libraries/wch_libraries/Peripheral/ch32v10x_dma.c:380
  }
}
     a5e:	8082                	ret

00000a60 <EXTI_Init>:
EXTI_Init():
C:\Users\windows\Desktop\比赛\100 成渝版 带按键\17 110 舵机横向放置 比赛版\RED_BULL\Dual-core_Communication_Demo\MASTER\obj/../Libraries/wch_libraries/Peripheral/ch32v10x_exti.c:41
void EXTI_Init(EXTI_InitTypeDef* EXTI_InitStruct)
{
  uint32_t tmp = 0;

  tmp = (uint32_t)EXTI_BASE;
  if (EXTI_InitStruct->EXTI_LineCmd != DISABLE)
     a60:	4158                	lw	a4,4(a0)
     a62:	00052803          	lw	a6,0(a0)
     a66:	454c                	lw	a1,12(a0)
     a68:	40010637          	lui	a2,0x40010
     a6c:	40060793          	addi	a5,a2,1024 # 40010400 <_eusrstack+0x2000b400>
     a70:	973e                	add	a4,a4,a5
     a72:	fff84693          	not	a3,a6
     a76:	c5b1                	beqz	a1,ac2 <EXTI_Init+0x62>
C:\Users\windows\Desktop\比赛\100 成渝版 带按键\17 110 舵机横向放置 比赛版\RED_BULL\Dual-core_Communication_Demo\MASTER\obj/../Libraries/wch_libraries/Peripheral/ch32v10x_exti.c:43
  {
    EXTI->INTENR &= ~EXTI_InitStruct->EXTI_Line;
     a78:	40062583          	lw	a1,1024(a2)
     a7c:	8df5                	and	a1,a1,a3
     a7e:	40b62023          	sw	a1,1024(a2)
C:\Users\windows\Desktop\比赛\100 成渝版 带按键\17 110 舵机横向放置 比赛版\RED_BULL\Dual-core_Communication_Demo\MASTER\obj/../Libraries/wch_libraries/Peripheral/ch32v10x_exti.c:44
    EXTI->EVENR &= ~EXTI_InitStruct->EXTI_Line;
     a82:	43d0                	lw	a2,4(a5)
     a84:	8ef1                	and	a3,a3,a2
     a86:	c3d4                	sw	a3,4(a5)
C:\Users\windows\Desktop\比赛\100 成渝版 带按键\17 110 舵机横向放置 比赛版\RED_BULL\Dual-core_Communication_Demo\MASTER\obj/../Libraries/wch_libraries/Peripheral/ch32v10x_exti.c:46
    tmp += EXTI_InitStruct->EXTI_Mode;
    *(__IO uint32_t *) tmp |= EXTI_InitStruct->EXTI_Line;
     a88:	4314                	lw	a3,0(a4)
     a8a:	0106e6b3          	or	a3,a3,a6
     a8e:	c314                	sw	a3,0(a4)
C:\Users\windows\Desktop\比赛\100 成渝版 带按键\17 110 舵机横向放置 比赛版\RED_BULL\Dual-core_Communication_Demo\MASTER\obj/../Libraries/wch_libraries/Peripheral/ch32v10x_exti.c:47
    EXTI->RTENR &= ~EXTI_InitStruct->EXTI_Line;
     a90:	4118                	lw	a4,0(a0)
     a92:	4790                	lw	a2,8(a5)
     a94:	fff74693          	not	a3,a4
     a98:	8e75                	and	a2,a2,a3
     a9a:	c790                	sw	a2,8(a5)
C:\Users\windows\Desktop\比赛\100 成渝版 带按键\17 110 舵机横向放置 比赛版\RED_BULL\Dual-core_Communication_Demo\MASTER\obj/../Libraries/wch_libraries/Peripheral/ch32v10x_exti.c:48
    EXTI->FTENR &= ~EXTI_InitStruct->EXTI_Line;
     a9c:	47d0                	lw	a2,12(a5)
     a9e:	8ef1                	and	a3,a3,a2
     aa0:	c7d4                	sw	a3,12(a5)
C:\Users\windows\Desktop\比赛\100 成渝版 带按键\17 110 舵机横向放置 比赛版\RED_BULL\Dual-core_Communication_Demo\MASTER\obj/../Libraries/wch_libraries/Peripheral/ch32v10x_exti.c:49
    if (EXTI_InitStruct->EXTI_Trigger == EXTI_Trigger_Rising_Falling)
     aa2:	4514                	lw	a3,8(a0)
     aa4:	4641                	li	a2,16
     aa6:	00c69963          	bne	a3,a2,ab8 <EXTI_Init+0x58>
C:\Users\windows\Desktop\比赛\100 成渝版 带按键\17 110 舵机横向放置 比赛版\RED_BULL\Dual-core_Communication_Demo\MASTER\obj/../Libraries/wch_libraries/Peripheral/ch32v10x_exti.c:51
    {
      EXTI->RTENR |= EXTI_InitStruct->EXTI_Line;
     aaa:	4794                	lw	a3,8(a5)
     aac:	8ed9                	or	a3,a3,a4
     aae:	c794                	sw	a3,8(a5)
C:\Users\windows\Desktop\比赛\100 成渝版 带按键\17 110 舵机横向放置 比赛版\RED_BULL\Dual-core_Communication_Demo\MASTER\obj/../Libraries/wch_libraries/Peripheral/ch32v10x_exti.c:52
      EXTI->FTENR |= EXTI_InitStruct->EXTI_Line;
     ab0:	47d4                	lw	a3,12(a5)
     ab2:	8f55                	or	a4,a4,a3
     ab4:	c7d8                	sw	a4,12(a5)
     ab6:	8082                	ret
C:\Users\windows\Desktop\比赛\100 成渝版 带按键\17 110 舵机横向放置 比赛版\RED_BULL\Dual-core_Communication_Demo\MASTER\obj/../Libraries/wch_libraries/Peripheral/ch32v10x_exti.c:57
    }
    else
    {
      tmp = (uint32_t)EXTI_BASE;
      tmp += EXTI_InitStruct->EXTI_Trigger;
     ab8:	97b6                	add	a5,a5,a3
C:\Users\windows\Desktop\比赛\100 成渝版 带按键\17 110 舵机横向放置 比赛版\RED_BULL\Dual-core_Communication_Demo\MASTER\obj/../Libraries/wch_libraries/Peripheral/ch32v10x_exti.c:58
      *(__IO uint32_t *) tmp |= EXTI_InitStruct->EXTI_Line;
     aba:	4394                	lw	a3,0(a5)
     abc:	8f55                	or	a4,a4,a3
     abe:	c398                	sw	a4,0(a5)
     ac0:	8082                	ret
C:\Users\windows\Desktop\比赛\100 成渝版 带按键\17 110 舵机横向放置 比赛版\RED_BULL\Dual-core_Communication_Demo\MASTER\obj/../Libraries/wch_libraries/Peripheral/ch32v10x_exti.c:64
    }
  }
  else
  {
    tmp += EXTI_InitStruct->EXTI_Mode;
    *(__IO uint32_t *) tmp &= ~EXTI_InitStruct->EXTI_Line;
     ac2:	431c                	lw	a5,0(a4)
     ac4:	8ff5                	and	a5,a5,a3
     ac6:	c31c                	sw	a5,0(a4)
C:\Users\windows\Desktop\比赛\100 成渝版 带按键\17 110 舵机横向放置 比赛版\RED_BULL\Dual-core_Communication_Demo\MASTER\obj/../Libraries/wch_libraries/Peripheral/ch32v10x_exti.c:66
  }
}
     ac8:	8082                	ret

00000aca <EXTI_GetITStatus>:
EXTI_GetITStatus():
C:\Users\windows\Desktop\比赛\100 成渝版 带按键\17 110 舵机横向放置 比赛版\RED_BULL\Dual-core_Communication_Demo\MASTER\obj/../Libraries/wch_libraries/Peripheral/ch32v10x_exti.c:135
ITStatus EXTI_GetITStatus(uint32_t EXTI_Line)
{
  ITStatus bitstatus = RESET;
  uint32_t enablestatus = 0;
  
  enablestatus =  EXTI->INTENR & EXTI_Line;
     aca:	400107b7          	lui	a5,0x40010
     ace:	40078713          	addi	a4,a5,1024 # 40010400 <_eusrstack+0x2000b400>
     ad2:	4007a783          	lw	a5,1024(a5)
C:\Users\windows\Desktop\比赛\100 成渝版 带按键\17 110 舵机横向放置 比赛版\RED_BULL\Dual-core_Communication_Demo\MASTER\obj/../Libraries/wch_libraries/Peripheral/ch32v10x_exti.c:136
  if (((EXTI->INTFR & EXTI_Line) != (uint32_t)RESET) && (enablestatus != (uint32_t)RESET))
     ad6:	4b58                	lw	a4,20(a4)
     ad8:	8f69                	and	a4,a4,a0
     ada:	c709                	beqz	a4,ae4 <EXTI_GetITStatus+0x1a>
C:\Users\windows\Desktop\比赛\100 成渝版 带按键\17 110 舵机横向放置 比赛版\RED_BULL\Dual-core_Communication_Demo\MASTER\obj/../Libraries/wch_libraries/Peripheral/ch32v10x_exti.c:135 (discriminator 1)
  enablestatus =  EXTI->INTENR & EXTI_Line;
     adc:	8d7d                	and	a0,a0,a5
C:\Users\windows\Desktop\比赛\100 成渝版 带按键\17 110 舵机横向放置 比赛版\RED_BULL\Dual-core_Communication_Demo\MASTER\obj/../Libraries/wch_libraries/Peripheral/ch32v10x_exti.c:136 (discriminator 1)
  if (((EXTI->INTFR & EXTI_Line) != (uint32_t)RESET) && (enablestatus != (uint32_t)RESET))
     ade:	00a03533          	snez	a0,a0
     ae2:	8082                	ret
C:\Users\windows\Desktop\比赛\100 成渝版 带按键\17 110 舵机横向放置 比赛版\RED_BULL\Dual-core_Communication_Demo\MASTER\obj/../Libraries/wch_libraries/Peripheral/ch32v10x_exti.c:142
  {
    bitstatus = SET;
  }
  else
  {
    bitstatus = RESET;
     ae4:	4501                	li	a0,0
C:\Users\windows\Desktop\比赛\100 成渝版 带按键\17 110 舵机横向放置 比赛版\RED_BULL\Dual-core_Communication_Demo\MASTER\obj/../Libraries/wch_libraries/Peripheral/ch32v10x_exti.c:145
  }
  return bitstatus;
}
     ae6:	8082                	ret

00000ae8 <EXTI_ClearITPendingBit>:
EXTI_ClearITPendingBit():
     ae8:	400107b7          	lui	a5,0x40010
     aec:	40a7aa23          	sw	a0,1044(a5) # 40010414 <_eusrstack+0x2000b414>
     af0:	8082                	ret

00000af2 <GPIO_Init>:
GPIO_Init():
C:\Users\windows\Desktop\比赛\100 成渝版 带按键\17 110 舵机横向放置 比赛版\RED_BULL\Dual-core_Communication_Demo\MASTER\obj/../Libraries/wch_libraries/Peripheral/ch32v10x_gpio.c:92
void GPIO_Init(GPIO_TypeDef* GPIOx, GPIO_InitTypeDef* GPIO_InitStruct)
{
  uint32_t currentmode = 0x00, currentpin = 0x00, pinpos = 0x00, pos = 0x00;
  uint32_t tmpreg = 0x00, pinmask = 0x00;

  currentmode = ((uint32_t)GPIO_InitStruct->GPIO_Mode) & ((uint32_t)0x0F);
     af2:	459c                	lw	a5,8(a1)
C:\Users\windows\Desktop\比赛\100 成渝版 带按键\17 110 舵机横向放置 比赛版\RED_BULL\Dual-core_Communication_Demo\MASTER\obj/../Libraries/wch_libraries/Peripheral/ch32v10x_gpio.c:94
	
  if ((((uint32_t)GPIO_InitStruct->GPIO_Mode) & ((uint32_t)0x10)) != 0x00)
     af4:	0107f713          	andi	a4,a5,16
C:\Users\windows\Desktop\比赛\100 成渝版 带按键\17 110 舵机横向放置 比赛版\RED_BULL\Dual-core_Communication_Demo\MASTER\obj/../Libraries/wch_libraries/Peripheral/ch32v10x_gpio.c:92
  currentmode = ((uint32_t)GPIO_InitStruct->GPIO_Mode) & ((uint32_t)0x0F);
     af8:	00f7f813          	andi	a6,a5,15
C:\Users\windows\Desktop\比赛\100 成渝版 带按键\17 110 舵机横向放置 比赛版\RED_BULL\Dual-core_Communication_Demo\MASTER\obj/../Libraries/wch_libraries/Peripheral/ch32v10x_gpio.c:94
  if ((((uint32_t)GPIO_InitStruct->GPIO_Mode) & ((uint32_t)0x10)) != 0x00)
     afc:	c701                	beqz	a4,b04 <GPIO_Init+0x12>
C:\Users\windows\Desktop\比赛\100 成渝版 带按键\17 110 舵机横向放置 比赛版\RED_BULL\Dual-core_Communication_Demo\MASTER\obj/../Libraries/wch_libraries/Peripheral/ch32v10x_gpio.c:96
  { 
    currentmode |= (uint32_t)GPIO_InitStruct->GPIO_Speed;
     afe:	41d8                	lw	a4,4(a1)
     b00:	00e86833          	or	a6,a6,a4
C:\Users\windows\Desktop\比赛\100 成渝版 带按键\17 110 舵机横向放置 比赛版\RED_BULL\Dual-core_Communication_Demo\MASTER\obj/../Libraries/wch_libraries/Peripheral/ch32v10x_gpio.c:99
  }

  if (((uint32_t)GPIO_InitStruct->GPIO_Pin & ((uint32_t)0x00FF)) != 0x00)
     b04:	0005d583          	lhu	a1,0(a1)
     b08:	0ff5f713          	andi	a4,a1,255
     b0c:	c339                	beqz	a4,b52 <GPIO_Init+0x60>
C:\Users\windows\Desktop\比赛\100 成渝版 带按键\17 110 舵机横向放置 比赛版\RED_BULL\Dual-core_Communication_Demo\MASTER\obj/../Libraries/wch_libraries/Peripheral/ch32v10x_gpio.c:101
  {
    tmpreg = GPIOx->CFGLR;
     b0e:	4118                	lw	a4,0(a0)
C:\Users\windows\Desktop\比赛\100 成渝版 带按键\17 110 舵机横向放置 比赛版\RED_BULL\Dual-core_Communication_Demo\MASTER\obj/../Libraries/wch_libraries/Peripheral/ch32v10x_gpio.c:103
		
    for (pinpos = 0x00; pinpos < 0x08; pinpos++)
     b10:	4681                	li	a3,0
C:\Users\windows\Desktop\比赛\100 成渝版 带按键\17 110 舵机横向放置 比赛版\RED_BULL\Dual-core_Communication_Demo\MASTER\obj/../Libraries/wch_libraries/Peripheral/ch32v10x_gpio.c:105
    {
      pos = ((uint32_t)0x01) << pinpos;
     b12:	4e85                	li	t4,1
C:\Users\windows\Desktop\比赛\100 成渝版 带按键\17 110 舵机横向放置 比赛版\RED_BULL\Dual-core_Communication_Demo\MASTER\obj/../Libraries/wch_libraries/Peripheral/ch32v10x_gpio.c:111
      currentpin = (GPIO_InitStruct->GPIO_Pin) & pos;
			
      if (currentpin == pos)
      {
        pos = pinpos << 2;
        pinmask = ((uint32_t)0x0F) << pos;
     b14:	4f3d                	li	t5,15
C:\Users\windows\Desktop\比赛\100 成渝版 带按键\17 110 舵机横向放置 比赛版\RED_BULL\Dual-core_Communication_Demo\MASTER\obj/../Libraries/wch_libraries/Peripheral/ch32v10x_gpio.c:115
        tmpreg &= ~pinmask;
        tmpreg |= (currentmode << pos);

        if (GPIO_InitStruct->GPIO_Mode == GPIO_Mode_IPD)
     b16:	02800f93          	li	t6,40
C:\Users\windows\Desktop\比赛\100 成渝版 带按键\17 110 舵机横向放置 比赛版\RED_BULL\Dual-core_Communication_Demo\MASTER\obj/../Libraries/wch_libraries/Peripheral/ch32v10x_gpio.c:121
        {
          GPIOx->BCR = (((uint32_t)0x01) << pinpos);
        }
        else
        {
          if (GPIO_InitStruct->GPIO_Mode == GPIO_Mode_IPU)
     b1a:	04800293          	li	t0,72
C:\Users\windows\Desktop\比赛\100 成渝版 带按键\17 110 舵机横向放置 比赛版\RED_BULL\Dual-core_Communication_Demo\MASTER\obj/../Libraries/wch_libraries/Peripheral/ch32v10x_gpio.c:103
    for (pinpos = 0x00; pinpos < 0x08; pinpos++)
     b1e:	4e21                	li	t3,8
C:\Users\windows\Desktop\比赛\100 成渝版 带按键\17 110 舵机横向放置 比赛版\RED_BULL\Dual-core_Communication_Demo\MASTER\obj/../Libraries/wch_libraries/Peripheral/ch32v10x_gpio.c:105
      pos = ((uint32_t)0x01) << pinpos;
     b20:	00de9633          	sll	a2,t4,a3
C:\Users\windows\Desktop\比赛\100 成渝版 带按键\17 110 舵机横向放置 比赛版\RED_BULL\Dual-core_Communication_Demo\MASTER\obj/../Libraries/wch_libraries/Peripheral/ch32v10x_gpio.c:106
      currentpin = (GPIO_InitStruct->GPIO_Pin) & pos;
     b24:	00c5f8b3          	and	a7,a1,a2
C:\Users\windows\Desktop\比赛\100 成渝版 带按键\17 110 舵机横向放置 比赛版\RED_BULL\Dual-core_Communication_Demo\MASTER\obj/../Libraries/wch_libraries/Peripheral/ch32v10x_gpio.c:108
      if (currentpin == pos)
     b28:	03161163          	bne	a2,a7,b4a <GPIO_Init+0x58>
C:\Users\windows\Desktop\比赛\100 成渝版 带按键\17 110 舵机横向放置 比赛版\RED_BULL\Dual-core_Communication_Demo\MASTER\obj/../Libraries/wch_libraries/Peripheral/ch32v10x_gpio.c:110
        pos = pinpos << 2;
     b2c:	00269893          	slli	a7,a3,0x2
C:\Users\windows\Desktop\比赛\100 成渝版 带按键\17 110 舵机横向放置 比赛版\RED_BULL\Dual-core_Communication_Demo\MASTER\obj/../Libraries/wch_libraries/Peripheral/ch32v10x_gpio.c:111
        pinmask = ((uint32_t)0x0F) << pos;
     b30:	011f1333          	sll	t1,t5,a7
C:\Users\windows\Desktop\比赛\100 成渝版 带按键\17 110 舵机横向放置 比赛版\RED_BULL\Dual-core_Communication_Demo\MASTER\obj/../Libraries/wch_libraries/Peripheral/ch32v10x_gpio.c:112
        tmpreg &= ~pinmask;
     b34:	fff34313          	not	t1,t1
     b38:	00e37733          	and	a4,t1,a4
C:\Users\windows\Desktop\比赛\100 成渝版 带按键\17 110 舵机横向放置 比赛版\RED_BULL\Dual-core_Communication_Demo\MASTER\obj/../Libraries/wch_libraries/Peripheral/ch32v10x_gpio.c:113
        tmpreg |= (currentmode << pos);
     b3c:	011818b3          	sll	a7,a6,a7
     b40:	00e8e733          	or	a4,a7,a4
C:\Users\windows\Desktop\比赛\100 成渝版 带按键\17 110 舵机横向放置 比赛版\RED_BULL\Dual-core_Communication_Demo\MASTER\obj/../Libraries/wch_libraries/Peripheral/ch32v10x_gpio.c:115
        if (GPIO_InitStruct->GPIO_Mode == GPIO_Mode_IPD)
     b44:	05f79f63          	bne	a5,t6,ba2 <GPIO_Init+0xb0>
C:\Users\windows\Desktop\比赛\100 成渝版 带按键\17 110 舵机横向放置 比赛版\RED_BULL\Dual-core_Communication_Demo\MASTER\obj/../Libraries/wch_libraries/Peripheral/ch32v10x_gpio.c:117
          GPIOx->BCR = (((uint32_t)0x01) << pinpos);
     b48:	c950                	sw	a2,20(a0)
C:\Users\windows\Desktop\比赛\100 成渝版 带按键\17 110 舵机横向放置 比赛版\RED_BULL\Dual-core_Communication_Demo\MASTER\obj/../Libraries/wch_libraries/Peripheral/ch32v10x_gpio.c:103 (discriminator 2)
    for (pinpos = 0x00; pinpos < 0x08; pinpos++)
     b4a:	0685                	addi	a3,a3,1
     b4c:	fdc69ae3          	bne	a3,t3,b20 <GPIO_Init+0x2e>
C:\Users\windows\Desktop\比赛\100 成渝版 带按键\17 110 舵机横向放置 比赛版\RED_BULL\Dual-core_Communication_Demo\MASTER\obj/../Libraries/wch_libraries/Peripheral/ch32v10x_gpio.c:128
            GPIOx->BSHR = (((uint32_t)0x01) << pinpos);
          }
        }
      }
    }
    GPIOx->CFGLR = tmpreg;
     b50:	c118                	sw	a4,0(a0)
C:\Users\windows\Desktop\比赛\100 成渝版 带按键\17 110 舵机横向放置 比赛版\RED_BULL\Dual-core_Communication_Demo\MASTER\obj/../Libraries/wch_libraries/Peripheral/ch32v10x_gpio.c:131
  }

  if (GPIO_InitStruct->GPIO_Pin > 0x00FF)
     b52:	0ff00713          	li	a4,255
     b56:	04b77563          	bgeu	a4,a1,ba0 <GPIO_Init+0xae>
C:\Users\windows\Desktop\比赛\100 成渝版 带按键\17 110 舵机横向放置 比赛版\RED_BULL\Dual-core_Communication_Demo\MASTER\obj/../Libraries/wch_libraries/Peripheral/ch32v10x_gpio.c:133
  {
    tmpreg = GPIOx->CFGHR;
     b5a:	4154                	lw	a3,4(a0)
     b5c:	4621                	li	a2,8
C:\Users\windows\Desktop\比赛\100 成渝版 带按键\17 110 舵机横向放置 比赛版\RED_BULL\Dual-core_Communication_Demo\MASTER\obj/../Libraries/wch_libraries/Peripheral/ch32v10x_gpio.c:137
		
    for (pinpos = 0x00; pinpos < 0x08; pinpos++)
    {
      pos = (((uint32_t)0x01) << (pinpos + 0x08));
     b5e:	4e85                	li	t4,1
C:\Users\windows\Desktop\比赛\100 成渝版 带按键\17 110 舵机横向放置 比赛版\RED_BULL\Dual-core_Communication_Demo\MASTER\obj/../Libraries/wch_libraries/Peripheral/ch32v10x_gpio.c:143
      currentpin = ((GPIO_InitStruct->GPIO_Pin) & pos);
			
      if (currentpin == pos)
      {
        pos = pinpos << 2;
        pinmask = ((uint32_t)0x0F) << pos;
     b60:	4f3d                	li	t5,15
C:\Users\windows\Desktop\比赛\100 成渝版 带按键\17 110 舵机横向放置 比赛版\RED_BULL\Dual-core_Communication_Demo\MASTER\obj/../Libraries/wch_libraries/Peripheral/ch32v10x_gpio.c:147
        tmpreg &= ~pinmask;
        tmpreg |= (currentmode << pos);

        if (GPIO_InitStruct->GPIO_Mode == GPIO_Mode_IPD)
     b62:	02800f93          	li	t6,40
C:\Users\windows\Desktop\比赛\100 成渝版 带按键\17 110 舵机横向放置 比赛版\RED_BULL\Dual-core_Communication_Demo\MASTER\obj/../Libraries/wch_libraries/Peripheral/ch32v10x_gpio.c:152
        {
          GPIOx->BCR = (((uint32_t)0x01) << (pinpos + 0x08));
        }

        if (GPIO_InitStruct->GPIO_Mode == GPIO_Mode_IPU)
     b66:	04800293          	li	t0,72
C:\Users\windows\Desktop\比赛\100 成渝版 带按键\17 110 舵机横向放置 比赛版\RED_BULL\Dual-core_Communication_Demo\MASTER\obj/../Libraries/wch_libraries/Peripheral/ch32v10x_gpio.c:135
    for (pinpos = 0x00; pinpos < 0x08; pinpos++)
     b6a:	4e41                	li	t3,16
C:\Users\windows\Desktop\比赛\100 成渝版 带按键\17 110 舵机横向放置 比赛版\RED_BULL\Dual-core_Communication_Demo\MASTER\obj/../Libraries/wch_libraries/Peripheral/ch32v10x_gpio.c:137
      pos = (((uint32_t)0x01) << (pinpos + 0x08));
     b6c:	00ce98b3          	sll	a7,t4,a2
C:\Users\windows\Desktop\比赛\100 成渝版 带按键\17 110 舵机横向放置 比赛版\RED_BULL\Dual-core_Communication_Demo\MASTER\obj/../Libraries/wch_libraries/Peripheral/ch32v10x_gpio.c:138
      currentpin = ((GPIO_InitStruct->GPIO_Pin) & pos);
     b70:	0115f733          	and	a4,a1,a7
C:\Users\windows\Desktop\比赛\100 成渝版 带按键\17 110 舵机横向放置 比赛版\RED_BULL\Dual-core_Communication_Demo\MASTER\obj/../Libraries/wch_libraries/Peripheral/ch32v10x_gpio.c:140
      if (currentpin == pos)
     b74:	02e89263          	bne	a7,a4,b98 <GPIO_Init+0xa6>
C:\Users\windows\Desktop\比赛\100 成渝版 带按键\17 110 舵机横向放置 比赛版\RED_BULL\Dual-core_Communication_Demo\MASTER\obj/../Libraries/wch_libraries/Peripheral/ch32v10x_gpio.c:142
        pos = pinpos << 2;
     b78:	00261713          	slli	a4,a2,0x2
     b7c:	1701                	addi	a4,a4,-32
C:\Users\windows\Desktop\比赛\100 成渝版 带按键\17 110 舵机横向放置 比赛版\RED_BULL\Dual-core_Communication_Demo\MASTER\obj/../Libraries/wch_libraries/Peripheral/ch32v10x_gpio.c:143
        pinmask = ((uint32_t)0x0F) << pos;
     b7e:	00ef1333          	sll	t1,t5,a4
C:\Users\windows\Desktop\比赛\100 成渝版 带按键\17 110 舵机横向放置 比赛版\RED_BULL\Dual-core_Communication_Demo\MASTER\obj/../Libraries/wch_libraries/Peripheral/ch32v10x_gpio.c:144
        tmpreg &= ~pinmask;
     b82:	fff34313          	not	t1,t1
     b86:	00d376b3          	and	a3,t1,a3
C:\Users\windows\Desktop\比赛\100 成渝版 带按键\17 110 舵机横向放置 比赛版\RED_BULL\Dual-core_Communication_Demo\MASTER\obj/../Libraries/wch_libraries/Peripheral/ch32v10x_gpio.c:145
        tmpreg |= (currentmode << pos);
     b8a:	00e81733          	sll	a4,a6,a4
     b8e:	8ed9                	or	a3,a3,a4
C:\Users\windows\Desktop\比赛\100 成渝版 带按键\17 110 舵机横向放置 比赛版\RED_BULL\Dual-core_Communication_Demo\MASTER\obj/../Libraries/wch_libraries/Peripheral/ch32v10x_gpio.c:147
        if (GPIO_InitStruct->GPIO_Mode == GPIO_Mode_IPD)
     b90:	01f79d63          	bne	a5,t6,baa <GPIO_Init+0xb8>
C:\Users\windows\Desktop\比赛\100 成渝版 带按键\17 110 舵机横向放置 比赛版\RED_BULL\Dual-core_Communication_Demo\MASTER\obj/../Libraries/wch_libraries/Peripheral/ch32v10x_gpio.c:149
          GPIOx->BCR = (((uint32_t)0x01) << (pinpos + 0x08));
     b94:	01152a23          	sw	a7,20(a0)
C:\Users\windows\Desktop\比赛\100 成渝版 带按键\17 110 舵机横向放置 比赛版\RED_BULL\Dual-core_Communication_Demo\MASTER\obj/../Libraries/wch_libraries/Peripheral/ch32v10x_gpio.c:152
        if (GPIO_InitStruct->GPIO_Mode == GPIO_Mode_IPU)
     b98:	0605                	addi	a2,a2,1
C:\Users\windows\Desktop\比赛\100 成渝版 带按键\17 110 舵机横向放置 比赛版\RED_BULL\Dual-core_Communication_Demo\MASTER\obj/../Libraries/wch_libraries/Peripheral/ch32v10x_gpio.c:135 (discriminator 2)
    for (pinpos = 0x00; pinpos < 0x08; pinpos++)
     b9a:	fdc619e3          	bne	a2,t3,b6c <GPIO_Init+0x7a>
C:\Users\windows\Desktop\比赛\100 成渝版 带按键\17 110 舵机横向放置 比赛版\RED_BULL\Dual-core_Communication_Demo\MASTER\obj/../Libraries/wch_libraries/Peripheral/ch32v10x_gpio.c:158
        {
          GPIOx->BSHR = (((uint32_t)0x01) << (pinpos + 0x08));
        }
      }
    }
    GPIOx->CFGHR = tmpreg;
     b9e:	c154                	sw	a3,4(a0)
C:\Users\windows\Desktop\比赛\100 成渝版 带按键\17 110 舵机横向放置 比赛版\RED_BULL\Dual-core_Communication_Demo\MASTER\obj/../Libraries/wch_libraries/Peripheral/ch32v10x_gpio.c:160
  }
}
     ba0:	8082                	ret
C:\Users\windows\Desktop\比赛\100 成渝版 带按键\17 110 舵机横向放置 比赛版\RED_BULL\Dual-core_Communication_Demo\MASTER\obj/../Libraries/wch_libraries/Peripheral/ch32v10x_gpio.c:121
          if (GPIO_InitStruct->GPIO_Mode == GPIO_Mode_IPU)
     ba2:	fa5794e3          	bne	a5,t0,b4a <GPIO_Init+0x58>
C:\Users\windows\Desktop\比赛\100 成渝版 带按键\17 110 舵机横向放置 比赛版\RED_BULL\Dual-core_Communication_Demo\MASTER\obj/../Libraries/wch_libraries/Peripheral/ch32v10x_gpio.c:123
            GPIOx->BSHR = (((uint32_t)0x01) << pinpos);
     ba6:	c910                	sw	a2,16(a0)
     ba8:	b74d                	j	b4a <GPIO_Init+0x58>
C:\Users\windows\Desktop\比赛\100 成渝版 带按键\17 110 舵机横向放置 比赛版\RED_BULL\Dual-core_Communication_Demo\MASTER\obj/../Libraries/wch_libraries/Peripheral/ch32v10x_gpio.c:152
        if (GPIO_InitStruct->GPIO_Mode == GPIO_Mode_IPU)
     baa:	fe5797e3          	bne	a5,t0,b98 <GPIO_Init+0xa6>
C:\Users\windows\Desktop\比赛\100 成渝版 带按键\17 110 舵机横向放置 比赛版\RED_BULL\Dual-core_Communication_Demo\MASTER\obj/../Libraries/wch_libraries/Peripheral/ch32v10x_gpio.c:154
          GPIOx->BSHR = (((uint32_t)0x01) << (pinpos + 0x08));
     bae:	01152823          	sw	a7,16(a0)
     bb2:	b7dd                	j	b98 <GPIO_Init+0xa6>

00000bb4 <GPIO_WriteBit>:
GPIO_WriteBit():
C:\Users\windows\Desktop\比赛\100 成渝版 带按键\17 110 舵机横向放置 比赛版\RED_BULL\Dual-core_Communication_Demo\MASTER\obj/../Libraries/wch_libraries/Peripheral/ch32v10x_gpio.c:283
*                    Bit_SetH: to set the port pin.                  
* Return         : None
*******************************************************************************/
void GPIO_WriteBit(GPIO_TypeDef* GPIOx, uint16_t GPIO_Pin, BitAction BitVal)
{
  if (BitVal != Bit_RESET)
     bb4:	c219                	beqz	a2,bba <GPIO_WriteBit+0x6>
C:\Users\windows\Desktop\比赛\100 成渝版 带按键\17 110 舵机横向放置 比赛版\RED_BULL\Dual-core_Communication_Demo\MASTER\obj/../Libraries/wch_libraries/Peripheral/ch32v10x_gpio.c:285
  {
    GPIOx->BSHR = GPIO_Pin;
     bb6:	c90c                	sw	a1,16(a0)
     bb8:	8082                	ret
C:\Users\windows\Desktop\比赛\100 成渝版 带按键\17 110 舵机横向放置 比赛版\RED_BULL\Dual-core_Communication_Demo\MASTER\obj/../Libraries/wch_libraries/Peripheral/ch32v10x_gpio.c:289
  }
  else
  {
    GPIOx->BCR = GPIO_Pin;
     bba:	c94c                	sw	a1,20(a0)
C:\Users\windows\Desktop\比赛\100 成渝版 带按键\17 110 舵机横向放置 比赛版\RED_BULL\Dual-core_Communication_Demo\MASTER\obj/../Libraries/wch_libraries/Peripheral/ch32v10x_gpio.c:291
  }
}
     bbc:	8082                	ret

00000bbe <GPIO_PinRemapConfig>:
GPIO_PinRemapConfig():
C:\Users\windows\Desktop\比赛\100 成渝版 带按键\17 110 舵机横向放置 比赛版\RED_BULL\Dual-core_Communication_Demo\MASTER\obj/../Libraries/wch_libraries/Peripheral/ch32v10x_gpio.c:407
{
  uint32_t tmp = 0x00, tmp1 = 0x00, tmpreg = 0x00, tmpmask = 0x00;

  if((GPIO_Remap & 0x80000000) == 0x80000000)
  {
    tmpreg = AFIO->PCFR2;
     bbe:	400107b7          	lui	a5,0x40010
C:\Users\windows\Desktop\比赛\100 成渝版 带按键\17 110 舵机横向放置 比赛版\RED_BULL\Dual-core_Communication_Demo\MASTER\obj/../Libraries/wch_libraries/Peripheral/ch32v10x_gpio.c:405
  if((GPIO_Remap & 0x80000000) == 0x80000000)
     bc2:	04055563          	bgez	a0,c0c <GPIO_PinRemapConfig+0x4e>
C:\Users\windows\Desktop\比赛\100 成渝版 带按键\17 110 舵机横向放置 比赛版\RED_BULL\Dual-core_Communication_Demo\MASTER\obj/../Libraries/wch_libraries/Peripheral/ch32v10x_gpio.c:407
    tmpreg = AFIO->PCFR2;
     bc6:	4fd4                	lw	a3,28(a5)
C:\Users\windows\Desktop\比赛\100 成渝版 带按键\17 110 舵机横向放置 比赛版\RED_BULL\Dual-core_Communication_Demo\MASTER\obj/../Libraries/wch_libraries/Peripheral/ch32v10x_gpio.c:417
  }

  tmpmask = (GPIO_Remap & DBGAFR_POSITION_MASK) >> 0x10;
  tmp = GPIO_Remap & LSB_MASK;

  if ((GPIO_Remap & (DBGAFR_LOCATION_MASK | DBGAFR_NUMBITS_MASK)) == (DBGAFR_LOCATION_MASK | DBGAFR_NUMBITS_MASK))
     bc8:	003007b7          	lui	a5,0x300
C:\Users\windows\Desktop\比赛\100 成渝版 带按键\17 110 舵机横向放置 比赛版\RED_BULL\Dual-core_Communication_Demo\MASTER\obj/../Libraries/wch_libraries/Peripheral/ch32v10x_gpio.c:415
  tmp = GPIO_Remap & LSB_MASK;
     bcc:	01051713          	slli	a4,a0,0x10
C:\Users\windows\Desktop\比赛\100 成渝版 带按键\17 110 舵机横向放置 比赛版\RED_BULL\Dual-core_Communication_Demo\MASTER\obj/../Libraries/wch_libraries/Peripheral/ch32v10x_gpio.c:417
  if ((GPIO_Remap & (DBGAFR_LOCATION_MASK | DBGAFR_NUMBITS_MASK)) == (DBGAFR_LOCATION_MASK | DBGAFR_NUMBITS_MASK))
     bd0:	00f57633          	and	a2,a0,a5
C:\Users\windows\Desktop\比赛\100 成渝版 带按键\17 110 舵机横向放置 比赛版\RED_BULL\Dual-core_Communication_Demo\MASTER\obj/../Libraries/wch_libraries/Peripheral/ch32v10x_gpio.c:415
  tmp = GPIO_Remap & LSB_MASK;
     bd4:	8341                	srli	a4,a4,0x10
C:\Users\windows\Desktop\比赛\100 成渝版 带按键\17 110 舵机横向放置 比赛版\RED_BULL\Dual-core_Communication_Demo\MASTER\obj/../Libraries/wch_libraries/Peripheral/ch32v10x_gpio.c:417
  if ((GPIO_Remap & (DBGAFR_LOCATION_MASK | DBGAFR_NUMBITS_MASK)) == (DBGAFR_LOCATION_MASK | DBGAFR_NUMBITS_MASK))
     bd6:	02f61d63          	bne	a2,a5,c10 <GPIO_PinRemapConfig+0x52>
C:\Users\windows\Desktop\比赛\100 成渝版 带按键\17 110 舵机横向放置 比赛版\RED_BULL\Dual-core_Communication_Demo\MASTER\obj/../Libraries/wch_libraries/Peripheral/ch32v10x_gpio.c:419
  {
    tmpreg &= DBGAFR_SWJCFG_MASK;
     bda:	f1000637          	lui	a2,0xf1000
     bde:	167d                	addi	a2,a2,-1
C:\Users\windows\Desktop\比赛\100 成渝版 带按键\17 110 舵机横向放置 比赛版\RED_BULL\Dual-core_Communication_Demo\MASTER\obj/../Libraries/wch_libraries/Peripheral/ch32v10x_gpio.c:420
    AFIO->PCFR1 &= DBGAFR_SWJCFG_MASK;
     be0:	40010837          	lui	a6,0x40010
C:\Users\windows\Desktop\比赛\100 成渝版 带按键\17 110 舵机横向放置 比赛版\RED_BULL\Dual-core_Communication_Demo\MASTER\obj/../Libraries/wch_libraries/Peripheral/ch32v10x_gpio.c:419
    tmpreg &= DBGAFR_SWJCFG_MASK;
     be4:	00c6f7b3          	and	a5,a3,a2
C:\Users\windows\Desktop\比赛\100 成渝版 带按键\17 110 舵机横向放置 比赛版\RED_BULL\Dual-core_Communication_Demo\MASTER\obj/../Libraries/wch_libraries/Peripheral/ch32v10x_gpio.c:420
    AFIO->PCFR1 &= DBGAFR_SWJCFG_MASK;
     be8:	00482683          	lw	a3,4(a6) # 40010004 <_eusrstack+0x2000b004>
     bec:	8e75                	and	a2,a2,a3
     bee:	00c82223          	sw	a2,4(a6)
C:\Users\windows\Desktop\比赛\100 成渝版 带按键\17 110 舵机横向放置 比赛版\RED_BULL\Dual-core_Communication_Demo\MASTER\obj/../Libraries/wch_libraries/Peripheral/ch32v10x_gpio.c:434
  {
    tmpreg &= ~(tmp << ((GPIO_Remap >> 0x15)*0x10));
    tmpreg |= ~DBGAFR_SWJCFG_MASK;
  }

  if (NewState != DISABLE)
     bf2:	c599                	beqz	a1,c00 <GPIO_PinRemapConfig+0x42>
C:\Users\windows\Desktop\比赛\100 成渝版 带按键\17 110 舵机横向放置 比赛版\RED_BULL\Dual-core_Communication_Demo\MASTER\obj/../Libraries/wch_libraries/Peripheral/ch32v10x_gpio.c:436
  {
    tmpreg |= (tmp << ((GPIO_Remap >> 0x15)*0x10));
     bf4:	01555693          	srli	a3,a0,0x15
     bf8:	0692                	slli	a3,a3,0x4
     bfa:	00d71733          	sll	a4,a4,a3
     bfe:	8fd9                	or	a5,a5,a4
C:\Users\windows\Desktop\比赛\100 成渝版 带按键\17 110 舵机横向放置 比赛版\RED_BULL\Dual-core_Communication_Demo\MASTER\obj/../Libraries/wch_libraries/Peripheral/ch32v10x_gpio.c:441
  }

  if((GPIO_Remap & 0x80000000) == 0x80000000)
  {
    AFIO->PCFR2 = tmpreg;
     c00:	40010737          	lui	a4,0x40010
C:\Users\windows\Desktop\比赛\100 成渝版 带按键\17 110 舵机横向放置 比赛版\RED_BULL\Dual-core_Communication_Demo\MASTER\obj/../Libraries/wch_libraries/Peripheral/ch32v10x_gpio.c:439
  if((GPIO_Remap & 0x80000000) == 0x80000000)
     c04:	02055e63          	bgez	a0,c40 <GPIO_PinRemapConfig+0x82>
C:\Users\windows\Desktop\比赛\100 成渝版 带按键\17 110 舵机横向放置 比赛版\RED_BULL\Dual-core_Communication_Demo\MASTER\obj/../Libraries/wch_libraries/Peripheral/ch32v10x_gpio.c:441
    AFIO->PCFR2 = tmpreg;
     c08:	cf5c                	sw	a5,28(a4)
     c0a:	8082                	ret
C:\Users\windows\Desktop\比赛\100 成渝版 带按键\17 110 舵机横向放置 比赛版\RED_BULL\Dual-core_Communication_Demo\MASTER\obj/../Libraries/wch_libraries/Peripheral/ch32v10x_gpio.c:411
    tmpreg = AFIO->PCFR1;
     c0c:	43d4                	lw	a3,4(a5)
     c0e:	bf6d                	j	bc8 <GPIO_PinRemapConfig+0xa>
C:\Users\windows\Desktop\比赛\100 成渝版 带按键\17 110 舵机横向放置 比赛版\RED_BULL\Dual-core_Communication_Demo\MASTER\obj/../Libraries/wch_libraries/Peripheral/ch32v10x_gpio.c:422
  else if ((GPIO_Remap & DBGAFR_NUMBITS_MASK) == DBGAFR_NUMBITS_MASK)
     c10:	00b51793          	slli	a5,a0,0xb
     c14:	0207d063          	bgez	a5,c34 <GPIO_PinRemapConfig+0x76>
C:\Users\windows\Desktop\比赛\100 成渝版 带按键\17 110 舵机横向放置 比赛版\RED_BULL\Dual-core_Communication_Demo\MASTER\obj/../Libraries/wch_libraries/Peripheral/ch32v10x_gpio.c:414
  tmpmask = (GPIO_Remap & DBGAFR_POSITION_MASK) >> 0x10;
     c18:	01055793          	srli	a5,a0,0x10
     c1c:	00f7f613          	andi	a2,a5,15
C:\Users\windows\Desktop\比赛\100 成渝版 带按键\17 110 舵机横向放置 比赛版\RED_BULL\Dual-core_Communication_Demo\MASTER\obj/../Libraries/wch_libraries/Peripheral/ch32v10x_gpio.c:424
    tmp1 = ((uint32_t)0x03) << tmpmask;
     c20:	478d                	li	a5,3
     c22:	00c797b3          	sll	a5,a5,a2
C:\Users\windows\Desktop\比赛\100 成渝版 带按键\17 110 舵机横向放置 比赛版\RED_BULL\Dual-core_Communication_Demo\MASTER\obj/../Libraries/wch_libraries/Peripheral/ch32v10x_gpio.c:430
    tmpreg &= ~(tmp << ((GPIO_Remap >> 0x15)*0x10));
     c26:	fff7c793          	not	a5,a5
     c2a:	8ff5                	and	a5,a5,a3
C:\Users\windows\Desktop\比赛\100 成渝版 带按键\17 110 舵机横向放置 比赛版\RED_BULL\Dual-core_Communication_Demo\MASTER\obj/../Libraries/wch_libraries/Peripheral/ch32v10x_gpio.c:431
    tmpreg |= ~DBGAFR_SWJCFG_MASK;
     c2c:	0f0006b7          	lui	a3,0xf000
     c30:	8fd5                	or	a5,a5,a3
     c32:	b7c1                	j	bf2 <GPIO_PinRemapConfig+0x34>
C:\Users\windows\Desktop\比赛\100 成渝版 带按键\17 110 舵机横向放置 比赛版\RED_BULL\Dual-core_Communication_Demo\MASTER\obj/../Libraries/wch_libraries/Peripheral/ch32v10x_gpio.c:430
    tmpreg &= ~(tmp << ((GPIO_Remap >> 0x15)*0x10));
     c34:	01555793          	srli	a5,a0,0x15
     c38:	0792                	slli	a5,a5,0x4
     c3a:	00f717b3          	sll	a5,a4,a5
     c3e:	b7e5                	j	c26 <GPIO_PinRemapConfig+0x68>
C:\Users\windows\Desktop\比赛\100 成渝版 带按键\17 110 舵机横向放置 比赛版\RED_BULL\Dual-core_Communication_Demo\MASTER\obj/../Libraries/wch_libraries/Peripheral/ch32v10x_gpio.c:445
  }
  else
  {
    AFIO->PCFR1 = tmpreg;
     c40:	c35c                	sw	a5,4(a4)
C:\Users\windows\Desktop\比赛\100 成渝版 带按键\17 110 舵机横向放置 比赛版\RED_BULL\Dual-core_Communication_Demo\MASTER\obj/../Libraries/wch_libraries/Peripheral/ch32v10x_gpio.c:447
  }  
}
     c42:	8082                	ret

00000c44 <GPIO_EXTILineConfig>:
GPIO_EXTILineConfig():
C:\Users\windows\Desktop\比赛\100 成渝版 带按键\17 110 舵机横向放置 比赛版\RED_BULL\Dual-core_Communication_Demo\MASTER\obj/../Libraries/wch_libraries/Peripheral/ch32v10x_gpio.c:462
*******************************************************************************/
void GPIO_EXTILineConfig(uint8_t GPIO_PortSource, uint8_t GPIO_PinSource)
{
  uint32_t tmp = 0x00;

  tmp = ((uint32_t)0x0F) << (0x04 * (GPIO_PinSource & (uint8_t)0x03));
     c44:	0fc5f713          	andi	a4,a1,252
     c48:	0035f793          	andi	a5,a1,3
     c4c:	400105b7          	lui	a1,0x40010
     c50:	95ba                	add	a1,a1,a4
C:\Users\windows\Desktop\比赛\100 成渝版 带按键\17 110 舵机横向放置 比赛版\RED_BULL\Dual-core_Communication_Demo\MASTER\obj/../Libraries/wch_libraries/Peripheral/ch32v10x_gpio.c:463
  AFIO->EXTICR[GPIO_PinSource >> 0x02] &= ~tmp;
     c52:	4594                	lw	a3,8(a1)
C:\Users\windows\Desktop\比赛\100 成渝版 带按键\17 110 舵机横向放置 比赛版\RED_BULL\Dual-core_Communication_Demo\MASTER\obj/../Libraries/wch_libraries/Peripheral/ch32v10x_gpio.c:462
  tmp = ((uint32_t)0x0F) << (0x04 * (GPIO_PinSource & (uint8_t)0x03));
     c54:	078a                	slli	a5,a5,0x2
     c56:	473d                	li	a4,15
     c58:	00f71733          	sll	a4,a4,a5
C:\Users\windows\Desktop\比赛\100 成渝版 带按键\17 110 舵机横向放置 比赛版\RED_BULL\Dual-core_Communication_Demo\MASTER\obj/../Libraries/wch_libraries/Peripheral/ch32v10x_gpio.c:463
  AFIO->EXTICR[GPIO_PinSource >> 0x02] &= ~tmp;
     c5c:	fff74713          	not	a4,a4
     c60:	8f75                	and	a4,a4,a3
     c62:	c598                	sw	a4,8(a1)
C:\Users\windows\Desktop\比赛\100 成渝版 带按键\17 110 舵机横向放置 比赛版\RED_BULL\Dual-core_Communication_Demo\MASTER\obj/../Libraries/wch_libraries/Peripheral/ch32v10x_gpio.c:464
  AFIO->EXTICR[GPIO_PinSource >> 0x02] |= (((uint32_t)GPIO_PortSource) << (0x04 * (GPIO_PinSource & (uint8_t)0x03)));
     c64:	4598                	lw	a4,8(a1)
     c66:	00f51533          	sll	a0,a0,a5
     c6a:	8d59                	or	a0,a0,a4
     c6c:	c588                	sw	a0,8(a1)
C:\Users\windows\Desktop\比赛\100 成渝版 带按键\17 110 舵机横向放置 比赛版\RED_BULL\Dual-core_Communication_Demo\MASTER\obj/../Libraries/wch_libraries/Peripheral/ch32v10x_gpio.c:465
}
     c6e:	8082                	ret

00000c70 <NVIC_Init>:
NVIC_Init():
C:\Users\windows\Desktop\比赛\100 成渝版 带按键\17 110 舵机横向放置 比赛版\RED_BULL\Dual-core_Communication_Demo\MASTER\obj/../Libraries/wch_libraries/Peripheral/ch32v10x_misc.c:47
*******************************************************************************************/
void NVIC_Init(NVIC_InitTypeDef* NVIC_InitStruct)
{
	//uint8_t tmppre = 0;

	if((PFIC->CFGR&(1<<1)) != 0)                    //中断嵌套标志位：1为关闭
     c70:	e000e737          	lui	a4,0xe000e
     c74:	473c                	lw	a5,72(a4)
     c76:	00054683          	lbu	a3,0(a0)
     c7a:	8b89                	andi	a5,a5,2
     c7c:	cb85                	beqz	a5,cac <NVIC_Init+0x3c>
C:\Users\windows\Desktop\比赛\100 成渝版 带按键\17 110 舵机横向放置 比赛版\RED_BULL\Dual-core_Communication_Demo\MASTER\obj/../Libraries/wch_libraries/Peripheral/ch32v10x_misc.c:49
	{
		NVIC_SetPriority( NVIC_InitStruct->NVIC_IRQChannel, NVIC_InitStruct->NVIC_IRQChannelSubPriority<<4);
     c7e:	00254783          	lbu	a5,2(a0)
NVIC_SetPriority():
C:\Users\windows\Desktop\比赛\100 成渝版 带按键\17 110 舵机横向放置 比赛版\RED_BULL\Dual-core_Communication_Demo\MASTER\obj/../Libraries/wch_libraries/Core/core_riscv.h:209
*                            bit6-bit4: subpriority
* Return         : None
*******************************************************************************/
RV_STATIC_INLINE void NVIC_SetPriority(IRQn_Type IRQn, uint8_t priority)
{
  NVIC->IPRIOR[(uint32_t)(IRQn)] = priority;
     c82:	9736                	add	a4,a4,a3
NVIC_Init():
C:\Users\windows\Desktop\比赛\100 成渝版 带按键\17 110 舵机横向放置 比赛版\RED_BULL\Dual-core_Communication_Demo\MASTER\obj/../Libraries/wch_libraries/Peripheral/ch32v10x_misc.c:49
     c84:	0792                	slli	a5,a5,0x4
     c86:	0ff7f793          	andi	a5,a5,255
NVIC_SetPriority():
C:\Users\windows\Desktop\比赛\100 成渝版 带按键\17 110 舵机横向放置 比赛版\RED_BULL\Dual-core_Communication_Demo\MASTER\obj/../Libraries/wch_libraries/Core/core_riscv.h:209
     c8a:	40f70023          	sb	a5,1024(a4) # e000e400 <_eusrstack+0xc0009400>
NVIC_Init():
C:\Users\windows\Desktop\比赛\100 成渝版 带按键\17 110 舵机横向放置 比赛版\RED_BULL\Dual-core_Communication_Demo\MASTER\obj/../Libraries/wch_libraries/Peripheral/ch32v10x_misc.c:93
//	else if(NVIC_Priority_Group == NVIC_PriorityGroup_4)
//	{
//		NVIC_SetPriority( NVIC_InitStruct->NVIC_IRQChannel, NVIC_InitStruct->NVIC_IRQChannelPreemptionPriority<<4);
//	}

  if (NVIC_InitStruct->NVIC_IRQChannelCmd != DISABLE)
     c8e:	4705                	li	a4,1
     c90:	0056d793          	srli	a5,a3,0x5
     c94:	00d71733          	sll	a4,a4,a3
     c98:	4154                	lw	a3,4(a0)
     c9a:	ca95                	beqz	a3,cce <NVIC_Init+0x5e>
NVIC_EnableIRQ():
C:\Users\windows\Desktop\比赛\100 成渝版 带按键\17 110 舵机横向放置 比赛版\RED_BULL\Dual-core_Communication_Demo\MASTER\obj/../Libraries/wch_libraries/Core/core_riscv.h:127
  NVIC->IENR[((uint32_t)(IRQn) >> 5)] = (1 << ((uint32_t)(IRQn) & 0x1F));
     c9c:	04078793          	addi	a5,a5,64 # 300040 <_data_lma+0x2fc1b8>
NVIC_DisableIRQ():
C:\Users\windows\Desktop\比赛\100 成渝版 带按键\17 110 舵机横向放置 比赛版\RED_BULL\Dual-core_Communication_Demo\MASTER\obj/../Libraries/wch_libraries/Core/core_riscv.h:138
  NVIC->IRER[((uint32_t)(IRQn) >> 5)] = (1 << ((uint32_t)(IRQn) & 0x1F));
     ca0:	078a                	slli	a5,a5,0x2
     ca2:	e000e6b7          	lui	a3,0xe000e
     ca6:	97b6                	add	a5,a5,a3
     ca8:	c398                	sw	a4,0(a5)
NVIC_Init():
C:\Users\windows\Desktop\比赛\100 成渝版 带按键\17 110 舵机横向放置 比赛版\RED_BULL\Dual-core_Communication_Demo\MASTER\obj/../Libraries/wch_libraries/Peripheral/ch32v10x_misc.c:101
  }
  else
  {
  	NVIC_DisableIRQ(NVIC_InitStruct->NVIC_IRQChannel);
  }
}
     caa:	8082                	ret
C:\Users\windows\Desktop\比赛\100 成渝版 带按键\17 110 舵机横向放置 比赛版\RED_BULL\Dual-core_Communication_Demo\MASTER\obj/../Libraries/wch_libraries/Peripheral/ch32v10x_misc.c:51
	else if((PFIC->CFGR&(1<<1)) == 0)               //中断嵌套标志位：0为打开
     cac:	473c                	lw	a5,72(a4)
     cae:	8b89                	andi	a5,a5,2
     cb0:	fff9                	bnez	a5,c8e <NVIC_Init+0x1e>
C:\Users\windows\Desktop\比赛\100 成渝版 带按键\17 110 舵机横向放置 比赛版\RED_BULL\Dual-core_Communication_Demo\MASTER\obj/../Libraries/wch_libraries/Peripheral/ch32v10x_misc.c:53
        if(NVIC_InitStruct->NVIC_IRQChannelPreemptionPriority == 1)
     cb2:	00254783          	lbu	a5,2(a0)
     cb6:	00154583          	lbu	a1,1(a0)
     cba:	4605                	li	a2,1
     cbc:	9736                	add	a4,a4,a3
     cbe:	0792                	slli	a5,a5,0x4
     cc0:	00c59463          	bne	a1,a2,cc8 <NVIC_Init+0x58>
C:\Users\windows\Desktop\比赛\100 成渝版 带按键\17 110 舵机横向放置 比赛版\RED_BULL\Dual-core_Communication_Demo\MASTER\obj/../Libraries/wch_libraries/Peripheral/ch32v10x_misc.c:55
            NVIC_SetPriority( NVIC_InitStruct->NVIC_IRQChannel, (1<<7)|(NVIC_InitStruct->NVIC_IRQChannelSubPriority<<4));
     cc4:	f807e793          	ori	a5,a5,-128
C:\Users\windows\Desktop\比赛\100 成渝版 带按键\17 110 舵机横向放置 比赛版\RED_BULL\Dual-core_Communication_Demo\MASTER\obj/../Libraries/wch_libraries/Peripheral/ch32v10x_misc.c:59
            NVIC_SetPriority( NVIC_InitStruct->NVIC_IRQChannel, (0<<7)|(NVIC_InitStruct->NVIC_IRQChannelSubPriority<<4));
     cc8:	0ff7f793          	andi	a5,a5,255
     ccc:	bf7d                	j	c8a <NVIC_Init+0x1a>
NVIC_DisableIRQ():
C:\Users\windows\Desktop\比赛\100 成渝版 带按键\17 110 舵机横向放置 比赛版\RED_BULL\Dual-core_Communication_Demo\MASTER\obj/../Libraries/wch_libraries/Core/core_riscv.h:138
     cce:	06078793          	addi	a5,a5,96
     cd2:	b7f9                	j	ca0 <NVIC_Init+0x30>

00000cd4 <RCC_GetClocksFreq>:
RCC_GetClocksFreq():
C:\Users\windows\Desktop\比赛\100 成渝版 带按键\17 110 舵机横向放置 比赛版\RED_BULL\Dual-core_Communication_Demo\MASTER\obj/../Libraries/wch_libraries/Peripheral/ch32v10x_rcc.c:472
********************************************************************************/
void RCC_GetClocksFreq(RCC_ClocksTypeDef* RCC_Clocks)
{
  uint32_t tmp = 0, pllmull = 0, pllsource = 0, presc = 0;
  
  tmp = RCC->CFGR0 & CFGR0_SWS_Mask;
     cd4:	40021737          	lui	a4,0x40021
     cd8:	435c                	lw	a5,4(a4)
     cda:	4691                	li	a3,4
     cdc:	8bb1                	andi	a5,a5,12
C:\Users\windows\Desktop\比赛\100 成渝版 带按键\17 110 舵机横向放置 比赛版\RED_BULL\Dual-core_Communication_Demo\MASTER\obj/../Libraries/wch_libraries/Peripheral/ch32v10x_rcc.c:474
  
  switch (tmp)
     cde:	00d78563          	beq	a5,a3,ce8 <RCC_GetClocksFreq+0x14>
     ce2:	46a1                	li	a3,8
     ce4:	06d78663          	beq	a5,a3,d50 <RCC_GetClocksFreq+0x7c>
C:\Users\windows\Desktop\比赛\100 成渝版 带按键\17 110 舵机横向放置 比赛版\RED_BULL\Dual-core_Communication_Demo\MASTER\obj/../Libraries/wch_libraries/Peripheral/ch32v10x_rcc.c:477
  {
    case 0x00: 
      RCC_Clocks->SYSCLK_Frequency = HSI_VALUE;
     ce8:	007a17b7          	lui	a5,0x7a1
     cec:	20078793          	addi	a5,a5,512 # 7a1200 <_data_lma+0x79d378>
C:\Users\windows\Desktop\比赛\100 成渝版 带按键\17 110 舵机横向放置 比赛版\RED_BULL\Dual-core_Communication_Demo\MASTER\obj/../Libraries/wch_libraries/Peripheral/ch32v10x_rcc.c:501
        {
          RCC_Clocks->SYSCLK_Frequency = (HSE_VALUE >> 1) * pllmull;
        }
        else
        {
          RCC_Clocks->SYSCLK_Frequency = HSE_VALUE * pllmull;
     cf0:	c11c                	sw	a5,0(a0)
C:\Users\windows\Desktop\比赛\100 成渝版 带按键\17 110 舵机横向放置 比赛版\RED_BULL\Dual-core_Communication_Demo\MASTER\obj/../Libraries/wch_libraries/Peripheral/ch32v10x_rcc.c:511
    default:
      RCC_Clocks->SYSCLK_Frequency = HSI_VALUE;
      break;
  }

  tmp = RCC->CFGR0 & CFGR0_HPRE_Set_Mask;
     cf2:	40021637          	lui	a2,0x40021
     cf6:	425c                	lw	a5,4(a2)
C:\Users\windows\Desktop\比赛\100 成渝版 带按键\17 110 舵机横向放置 比赛版\RED_BULL\Dual-core_Communication_Demo\MASTER\obj/../Libraries/wch_libraries/Peripheral/ch32v10x_rcc.c:513
  tmp = tmp >> 4;
  presc = APBAHBPrescTable[tmp];
     cf8:	20000737          	lui	a4,0x20000
     cfc:	00070713          	mv	a4,a4
C:\Users\windows\Desktop\比赛\100 成渝版 带按键\17 110 舵机横向放置 比赛版\RED_BULL\Dual-core_Communication_Demo\MASTER\obj/../Libraries/wch_libraries/Peripheral/ch32v10x_rcc.c:512
  tmp = tmp >> 4;
     d00:	8391                	srli	a5,a5,0x4
     d02:	8bbd                	andi	a5,a5,15
C:\Users\windows\Desktop\比赛\100 成渝版 带按键\17 110 舵机横向放置 比赛版\RED_BULL\Dual-core_Communication_Demo\MASTER\obj/../Libraries/wch_libraries/Peripheral/ch32v10x_rcc.c:513
  presc = APBAHBPrescTable[tmp];
     d04:	97ba                	add	a5,a5,a4
     d06:	0007c683          	lbu	a3,0(a5)
C:\Users\windows\Desktop\比赛\100 成渝版 带按键\17 110 舵机横向放置 比赛版\RED_BULL\Dual-core_Communication_Demo\MASTER\obj/../Libraries/wch_libraries/Peripheral/ch32v10x_rcc.c:514
  RCC_Clocks->HCLK_Frequency = RCC_Clocks->SYSCLK_Frequency >> presc;
     d0a:	411c                	lw	a5,0(a0)
     d0c:	00d7d7b3          	srl	a5,a5,a3
     d10:	c15c                	sw	a5,4(a0)
C:\Users\windows\Desktop\比赛\100 成渝版 带按键\17 110 舵机横向放置 比赛版\RED_BULL\Dual-core_Communication_Demo\MASTER\obj/../Libraries/wch_libraries/Peripheral/ch32v10x_rcc.c:515
  tmp = RCC->CFGR0 & CFGR0_PPRE1_Set_Mask;
     d12:	4254                	lw	a3,4(a2)
C:\Users\windows\Desktop\比赛\100 成渝版 带按键\17 110 舵机横向放置 比赛版\RED_BULL\Dual-core_Communication_Demo\MASTER\obj/../Libraries/wch_libraries/Peripheral/ch32v10x_rcc.c:516
  tmp = tmp >> 8;
     d14:	82a1                	srli	a3,a3,0x8
     d16:	8a9d                	andi	a3,a3,7
C:\Users\windows\Desktop\比赛\100 成渝版 带按键\17 110 舵机横向放置 比赛版\RED_BULL\Dual-core_Communication_Demo\MASTER\obj/../Libraries/wch_libraries/Peripheral/ch32v10x_rcc.c:517
  presc = APBAHBPrescTable[tmp];
     d18:	96ba                	add	a3,a3,a4
     d1a:	0006c683          	lbu	a3,0(a3) # e000e000 <_eusrstack+0xc0009000>
C:\Users\windows\Desktop\比赛\100 成渝版 带按键\17 110 舵机横向放置 比赛版\RED_BULL\Dual-core_Communication_Demo\MASTER\obj/../Libraries/wch_libraries/Peripheral/ch32v10x_rcc.c:518
  RCC_Clocks->PCLK1_Frequency = RCC_Clocks->HCLK_Frequency >> presc;
     d1e:	00d7d6b3          	srl	a3,a5,a3
     d22:	c514                	sw	a3,8(a0)
C:\Users\windows\Desktop\比赛\100 成渝版 带按键\17 110 舵机横向放置 比赛版\RED_BULL\Dual-core_Communication_Demo\MASTER\obj/../Libraries/wch_libraries/Peripheral/ch32v10x_rcc.c:519
  tmp = RCC->CFGR0 & CFGR0_PPRE2_Set_Mask;
     d24:	4254                	lw	a3,4(a2)
C:\Users\windows\Desktop\比赛\100 成渝版 带按键\17 110 舵机横向放置 比赛版\RED_BULL\Dual-core_Communication_Demo\MASTER\obj/../Libraries/wch_libraries/Peripheral/ch32v10x_rcc.c:520
  tmp = tmp >> 11;
     d26:	82ad                	srli	a3,a3,0xb
     d28:	8a9d                	andi	a3,a3,7
C:\Users\windows\Desktop\比赛\100 成渝版 带按键\17 110 舵机横向放置 比赛版\RED_BULL\Dual-core_Communication_Demo\MASTER\obj/../Libraries/wch_libraries/Peripheral/ch32v10x_rcc.c:521
  presc = APBAHBPrescTable[tmp];
     d2a:	9736                	add	a4,a4,a3
     d2c:	00074703          	lbu	a4,0(a4) # 20000000 <_data_vma>
C:\Users\windows\Desktop\比赛\100 成渝版 带按键\17 110 舵机横向放置 比赛版\RED_BULL\Dual-core_Communication_Demo\MASTER\obj/../Libraries/wch_libraries/Peripheral/ch32v10x_rcc.c:522
  RCC_Clocks->PCLK2_Frequency = RCC_Clocks->HCLK_Frequency >> presc;
     d30:	00e7d7b3          	srl	a5,a5,a4
     d34:	c55c                	sw	a5,12(a0)
C:\Users\windows\Desktop\比赛\100 成渝版 带按键\17 110 舵机横向放置 比赛版\RED_BULL\Dual-core_Communication_Demo\MASTER\obj/../Libraries/wch_libraries/Peripheral/ch32v10x_rcc.c:523
  tmp = RCC->CFGR0 & CFGR0_ADCPRE_Set_Mask;
     d36:	4258                	lw	a4,4(a2)
C:\Users\windows\Desktop\比赛\100 成渝版 带按键\17 110 舵机横向放置 比赛版\RED_BULL\Dual-core_Communication_Demo\MASTER\obj/../Libraries/wch_libraries/Peripheral/ch32v10x_rcc.c:524
  tmp = tmp >> 14;
     d38:	8339                	srli	a4,a4,0xe
     d3a:	00377693          	andi	a3,a4,3
C:\Users\windows\Desktop\比赛\100 成渝版 带按键\17 110 舵机横向放置 比赛版\RED_BULL\Dual-core_Communication_Demo\MASTER\obj/../Libraries/wch_libraries/Peripheral/ch32v10x_rcc.c:525
  presc = ADCPrescTable[tmp];
     d3e:	81018713          	addi	a4,gp,-2032 # 20000020 <ADCPrescTable>
     d42:	9736                	add	a4,a4,a3
     d44:	00074703          	lbu	a4,0(a4)
C:\Users\windows\Desktop\比赛\100 成渝版 带按键\17 110 舵机横向放置 比赛版\RED_BULL\Dual-core_Communication_Demo\MASTER\obj/../Libraries/wch_libraries/Peripheral/ch32v10x_rcc.c:526
  RCC_Clocks->ADCCLK_Frequency = RCC_Clocks->PCLK2_Frequency / presc;
     d48:	02e7d7b3          	divu	a5,a5,a4
     d4c:	c91c                	sw	a5,16(a0)
C:\Users\windows\Desktop\比赛\100 成渝版 带按键\17 110 舵机横向放置 比赛版\RED_BULL\Dual-core_Communication_Demo\MASTER\obj/../Libraries/wch_libraries/Peripheral/ch32v10x_rcc.c:527
}
     d4e:	8082                	ret
C:\Users\windows\Desktop\比赛\100 成渝版 带按键\17 110 舵机横向放置 比赛版\RED_BULL\Dual-core_Communication_Demo\MASTER\obj/../Libraries/wch_libraries/Peripheral/ch32v10x_rcc.c:485
      pllmull = RCC->CFGR0 & CFGR0_PLLMull_Mask;
     d50:	435c                	lw	a5,4(a4)
C:\Users\windows\Desktop\比赛\100 成渝版 带按键\17 110 舵机横向放置 比赛版\RED_BULL\Dual-core_Communication_Demo\MASTER\obj/../Libraries/wch_libraries/Peripheral/ch32v10x_rcc.c:486
      pllsource = RCC->CFGR0 & CFGR0_PLLSRC_Mask;    
     d52:	4354                	lw	a3,4(a4)
C:\Users\windows\Desktop\比赛\100 成渝版 带按键\17 110 舵机横向放置 比赛版\RED_BULL\Dual-core_Communication_Demo\MASTER\obj/../Libraries/wch_libraries/Peripheral/ch32v10x_rcc.c:487
      pllmull = ( pllmull >> 18) + 2;
     d54:	83c9                	srli	a5,a5,0x12
     d56:	8bbd                	andi	a5,a5,15
C:\Users\windows\Desktop\比赛\100 成渝版 带按键\17 110 舵机横向放置 比赛版\RED_BULL\Dual-core_Communication_Demo\MASTER\obj/../Libraries/wch_libraries/Peripheral/ch32v10x_rcc.c:489
      if (pllsource == 0x00)
     d58:	00f69613          	slli	a2,a3,0xf
C:\Users\windows\Desktop\比赛\100 成渝版 带按键\17 110 舵机横向放置 比赛版\RED_BULL\Dual-core_Communication_Demo\MASTER\obj/../Libraries/wch_libraries/Peripheral/ch32v10x_rcc.c:487
      pllmull = ( pllmull >> 18) + 2;
     d5c:	0789                	addi	a5,a5,2
C:\Users\windows\Desktop\比赛\100 成渝版 带按键\17 110 舵机横向放置 比赛版\RED_BULL\Dual-core_Communication_Demo\MASTER\obj/../Libraries/wch_libraries/Peripheral/ch32v10x_rcc.c:489
      if (pllsource == 0x00)
     d5e:	00064963          	bltz	a2,d70 <RCC_GetClocksFreq+0x9c>
C:\Users\windows\Desktop\比赛\100 成渝版 带按键\17 110 舵机横向放置 比赛版\RED_BULL\Dual-core_Communication_Demo\MASTER\obj/../Libraries/wch_libraries/Peripheral/ch32v10x_rcc.c:497
          RCC_Clocks->SYSCLK_Frequency = (HSE_VALUE >> 1) * pllmull;
     d62:	003d1737          	lui	a4,0x3d1
     d66:	90070713          	addi	a4,a4,-1792 # 3d0900 <_data_lma+0x3cca78>
C:\Users\windows\Desktop\比赛\100 成渝版 带按键\17 110 舵机横向放置 比赛版\RED_BULL\Dual-core_Communication_Demo\MASTER\obj/../Libraries/wch_libraries/Peripheral/ch32v10x_rcc.c:501
          RCC_Clocks->SYSCLK_Frequency = HSE_VALUE * pllmull;
     d6a:	02e787b3          	mul	a5,a5,a4
     d6e:	b749                	j	cf0 <RCC_GetClocksFreq+0x1c>
C:\Users\windows\Desktop\比赛\100 成渝版 带按键\17 110 舵机横向放置 比赛版\RED_BULL\Dual-core_Communication_Demo\MASTER\obj/../Libraries/wch_libraries/Peripheral/ch32v10x_rcc.c:495
        if ((RCC->CFGR0 & CFGR0_PLLXTPRE_Mask) != (uint32_t)RESET)
     d70:	4358                	lw	a4,4(a4)
     d72:	00e71693          	slli	a3,a4,0xe
     d76:	fe06c6e3          	bltz	a3,d62 <RCC_GetClocksFreq+0x8e>
C:\Users\windows\Desktop\比赛\100 成渝版 带按键\17 110 舵机横向放置 比赛版\RED_BULL\Dual-core_Communication_Demo\MASTER\obj/../Libraries/wch_libraries/Peripheral/ch32v10x_rcc.c:501
          RCC_Clocks->SYSCLK_Frequency = HSE_VALUE * pllmull;
     d7a:	007a1737          	lui	a4,0x7a1
     d7e:	20070713          	addi	a4,a4,512 # 7a1200 <_data_lma+0x79d378>
     d82:	b7e5                	j	d6a <RCC_GetClocksFreq+0x96>

00000d84 <RCC_APB2PeriphClockCmd>:
RCC_APB2PeriphClockCmd():
C:\Users\windows\Desktop\比赛\100 成渝版 带按键\17 110 舵机横向放置 比赛版\RED_BULL\Dual-core_Communication_Demo\MASTER\obj/../Libraries/wch_libraries/Peripheral/ch32v10x_rcc.c:571
*                  NewState: ENABLE or DISABLE
* Return         : None
*******************************************************************************/	
void RCC_APB2PeriphClockCmd(uint32_t RCC_APB2Periph, FunctionalState NewState)
{
  if (NewState != DISABLE)
     d84:	c599                	beqz	a1,d92 <RCC_APB2PeriphClockCmd+0xe>
C:\Users\windows\Desktop\比赛\100 成渝版 带按键\17 110 舵机横向放置 比赛版\RED_BULL\Dual-core_Communication_Demo\MASTER\obj/../Libraries/wch_libraries/Peripheral/ch32v10x_rcc.c:573
  {
    RCC->APB2PCENR |= RCC_APB2Periph;
     d86:	40021737          	lui	a4,0x40021
     d8a:	4f1c                	lw	a5,24(a4)
     d8c:	8d5d                	or	a0,a0,a5
     d8e:	cf08                	sw	a0,24(a4)
     d90:	8082                	ret
C:\Users\windows\Desktop\比赛\100 成渝版 带按键\17 110 舵机横向放置 比赛版\RED_BULL\Dual-core_Communication_Demo\MASTER\obj/../Libraries/wch_libraries/Peripheral/ch32v10x_rcc.c:577
  }
  else
  {
    RCC->APB2PCENR &= ~RCC_APB2Periph;
     d92:	400217b7          	lui	a5,0x40021
     d96:	4f98                	lw	a4,24(a5)
     d98:	fff54513          	not	a0,a0
     d9c:	8d79                	and	a0,a0,a4
     d9e:	cf88                	sw	a0,24(a5)
C:\Users\windows\Desktop\比赛\100 成渝版 带按键\17 110 舵机横向放置 比赛版\RED_BULL\Dual-core_Communication_Demo\MASTER\obj/../Libraries/wch_libraries/Peripheral/ch32v10x_rcc.c:579
  }
}
     da0:	8082                	ret

00000da2 <RCC_APB1PeriphClockCmd>:
RCC_APB1PeriphClockCmd():
C:\Users\windows\Desktop\比赛\100 成渝版 带按键\17 110 舵机横向放置 比赛版\RED_BULL\Dual-core_Communication_Demo\MASTER\obj/../Libraries/wch_libraries/Peripheral/ch32v10x_rcc.c:604
*                  NewState: ENABLE or DISABLE.
* Return         : None
*******************************************************************************/	
void RCC_APB1PeriphClockCmd(uint32_t RCC_APB1Periph, FunctionalState NewState)
{
  if (NewState != DISABLE)
     da2:	c599                	beqz	a1,db0 <RCC_APB1PeriphClockCmd+0xe>
C:\Users\windows\Desktop\比赛\100 成渝版 带按键\17 110 舵机横向放置 比赛版\RED_BULL\Dual-core_Communication_Demo\MASTER\obj/../Libraries/wch_libraries/Peripheral/ch32v10x_rcc.c:606
  {
    RCC->APB1PCENR |= RCC_APB1Periph;
     da4:	40021737          	lui	a4,0x40021
     da8:	4f5c                	lw	a5,28(a4)
     daa:	8d5d                	or	a0,a0,a5
     dac:	cf48                	sw	a0,28(a4)
     dae:	8082                	ret
C:\Users\windows\Desktop\比赛\100 成渝版 带按键\17 110 舵机横向放置 比赛版\RED_BULL\Dual-core_Communication_Demo\MASTER\obj/../Libraries/wch_libraries/Peripheral/ch32v10x_rcc.c:610
  }
  else
  {
    RCC->APB1PCENR &= ~RCC_APB1Periph;
     db0:	400217b7          	lui	a5,0x40021
     db4:	4fd8                	lw	a4,28(a5)
     db6:	fff54513          	not	a0,a0
     dba:	8d79                	and	a0,a0,a4
     dbc:	cfc8                	sw	a0,28(a5)
C:\Users\windows\Desktop\比赛\100 成渝版 带按键\17 110 舵机横向放置 比赛版\RED_BULL\Dual-core_Communication_Demo\MASTER\obj/../Libraries/wch_libraries/Peripheral/ch32v10x_rcc.c:612
  }
}
     dbe:	8082                	ret

00000dc0 <TIM_TimeBaseInit>:
TIM_TimeBaseInit():
C:\Users\windows\Desktop\比赛\100 成渝版 带按键\17 110 舵机横向放置 比赛版\RED_BULL\Dual-core_Communication_Demo\MASTER\obj/../Libraries/wch_libraries/Peripheral/ch32v10x_tim.c:70
*******************************************************************************/
void TIM_TimeBaseInit(TIM_TypeDef* TIMx, TIM_TimeBaseInitTypeDef* TIM_TimeBaseInitStruct)
{
  uint16_t tmpcr1 = 0;

  tmpcr1 = TIMx->CTLR1;  
     dc0:	00055783          	lhu	a5,0(a0)
C:\Users\windows\Desktop\比赛\100 成渝版 带按键\17 110 舵机横向放置 比赛版\RED_BULL\Dual-core_Communication_Demo\MASTER\obj/../Libraries/wch_libraries/Peripheral/ch32v10x_tim.c:72

  if((TIMx == TIM1) || (TIMx == TIM2) || (TIMx == TIM3)|| (TIMx == TIM4)) 
     dc4:	40013737          	lui	a4,0x40013
     dc8:	c0070713          	addi	a4,a4,-1024 # 40012c00 <_eusrstack+0x2000dc00>
C:\Users\windows\Desktop\比赛\100 成渝版 带按键\17 110 舵机横向放置 比赛版\RED_BULL\Dual-core_Communication_Demo\MASTER\obj/../Libraries/wch_libraries/Peripheral/ch32v10x_tim.c:70
  tmpcr1 = TIMx->CTLR1;  
     dcc:	07c2                	slli	a5,a5,0x10
     dce:	83c1                	srli	a5,a5,0x10
C:\Users\windows\Desktop\比赛\100 成渝版 带按键\17 110 舵机横向放置 比赛版\RED_BULL\Dual-core_Communication_Demo\MASTER\obj/../Libraries/wch_libraries/Peripheral/ch32v10x_tim.c:72
  if((TIMx == TIM1) || (TIMx == TIM2) || (TIMx == TIM3)|| (TIMx == TIM4)) 
     dd0:	02e50063          	beq	a0,a4,df0 <TIM_TimeBaseInit+0x30>
C:\Users\windows\Desktop\比赛\100 成渝版 带按键\17 110 舵机横向放置 比赛版\RED_BULL\Dual-core_Communication_Demo\MASTER\obj/../Libraries/wch_libraries/Peripheral/ch32v10x_tim.c:72 (discriminator 1)
     dd4:	40000737          	lui	a4,0x40000
     dd8:	00e50c63          	beq	a0,a4,df0 <TIM_TimeBaseInit+0x30>
C:\Users\windows\Desktop\比赛\100 成渝版 带按键\17 110 舵机横向放置 比赛版\RED_BULL\Dual-core_Communication_Demo\MASTER\obj/../Libraries/wch_libraries/Peripheral/ch32v10x_tim.c:72 (discriminator 2)
     ddc:	40070713          	addi	a4,a4,1024 # 40000400 <_eusrstack+0x1fffb400>
     de0:	00e50863          	beq	a0,a4,df0 <TIM_TimeBaseInit+0x30>
C:\Users\windows\Desktop\比赛\100 成渝版 带按键\17 110 舵机横向放置 比赛版\RED_BULL\Dual-core_Communication_Demo\MASTER\obj/../Libraries/wch_libraries/Peripheral/ch32v10x_tim.c:72 (discriminator 3)
     de4:	40001737          	lui	a4,0x40001
     de8:	80070713          	addi	a4,a4,-2048 # 40000800 <_eusrstack+0x1fffb800>
     dec:	00e51763          	bne	a0,a4,dfa <TIM_TimeBaseInit+0x3a>
C:\Users\windows\Desktop\比赛\100 成渝版 带按键\17 110 舵机横向放置 比赛版\RED_BULL\Dual-core_Communication_Demo\MASTER\obj/../Libraries/wch_libraries/Peripheral/ch32v10x_tim.c:75
  {
    tmpcr1 &= (uint16_t)(~((uint16_t)(TIM_DIR | TIM_CMS)));
    tmpcr1 |= (uint32_t)TIM_TimeBaseInitStruct->TIM_CounterMode;
     df0:	0025d703          	lhu	a4,2(a1) # 40010002 <_eusrstack+0x2000b002>
C:\Users\windows\Desktop\比赛\100 成渝版 带按键\17 110 舵机横向放置 比赛版\RED_BULL\Dual-core_Communication_Demo\MASTER\obj/../Libraries/wch_libraries/Peripheral/ch32v10x_tim.c:74
    tmpcr1 &= (uint16_t)(~((uint16_t)(TIM_DIR | TIM_CMS)));
     df4:	f8f7f793          	andi	a5,a5,-113
C:\Users\windows\Desktop\比赛\100 成渝版 带按键\17 110 舵机横向放置 比赛版\RED_BULL\Dual-core_Communication_Demo\MASTER\obj/../Libraries/wch_libraries/Peripheral/ch32v10x_tim.c:75
    tmpcr1 |= (uint32_t)TIM_TimeBaseInitStruct->TIM_CounterMode;
     df8:	8fd9                	or	a5,a5,a4
C:\Users\windows\Desktop\比赛\100 成渝版 带按键\17 110 舵机横向放置 比赛版\RED_BULL\Dual-core_Communication_Demo\MASTER\obj/../Libraries/wch_libraries/Peripheral/ch32v10x_tim.c:79
  }

  tmpcr1 &= (uint16_t)(~((uint16_t)TIM_CTLR1_CKD));
  tmpcr1 |= (uint32_t)TIM_TimeBaseInitStruct->TIM_ClockDivision;
     dfa:	0065d703          	lhu	a4,6(a1)
C:\Users\windows\Desktop\比赛\100 成渝版 带按键\17 110 舵机横向放置 比赛版\RED_BULL\Dual-core_Communication_Demo\MASTER\obj/../Libraries/wch_libraries/Peripheral/ch32v10x_tim.c:78
  tmpcr1 &= (uint16_t)(~((uint16_t)TIM_CTLR1_CKD));
     dfe:	cff7f793          	andi	a5,a5,-769
     e02:	07c2                	slli	a5,a5,0x10
     e04:	83c1                	srli	a5,a5,0x10
C:\Users\windows\Desktop\比赛\100 成渝版 带按键\17 110 舵机横向放置 比赛版\RED_BULL\Dual-core_Communication_Demo\MASTER\obj/../Libraries/wch_libraries/Peripheral/ch32v10x_tim.c:79
  tmpcr1 |= (uint32_t)TIM_TimeBaseInitStruct->TIM_ClockDivision;
     e06:	8fd9                	or	a5,a5,a4
C:\Users\windows\Desktop\比赛\100 成渝版 带按键\17 110 舵机横向放置 比赛版\RED_BULL\Dual-core_Communication_Demo\MASTER\obj/../Libraries/wch_libraries/Peripheral/ch32v10x_tim.c:81

  TIMx->CTLR1 = tmpcr1;
     e08:	00f51023          	sh	a5,0(a0)
C:\Users\windows\Desktop\比赛\100 成渝版 带按键\17 110 舵机横向放置 比赛版\RED_BULL\Dual-core_Communication_Demo\MASTER\obj/../Libraries/wch_libraries/Peripheral/ch32v10x_tim.c:82
  TIMx->ATRLR = TIM_TimeBaseInitStruct->TIM_Period ;
     e0c:	0045d783          	lhu	a5,4(a1)
     e10:	02f51623          	sh	a5,44(a0)
C:\Users\windows\Desktop\比赛\100 成渝版 带按键\17 110 舵机横向放置 比赛版\RED_BULL\Dual-core_Communication_Demo\MASTER\obj/../Libraries/wch_libraries/Peripheral/ch32v10x_tim.c:83
  TIMx->PSC = TIM_TimeBaseInitStruct->TIM_Prescaler;
     e14:	0005d783          	lhu	a5,0(a1)
     e18:	02f51423          	sh	a5,40(a0)
C:\Users\windows\Desktop\比赛\100 成渝版 带按键\17 110 舵机横向放置 比赛版\RED_BULL\Dual-core_Communication_Demo\MASTER\obj/../Libraries/wch_libraries/Peripheral/ch32v10x_tim.c:85
    
  if (TIMx == TIM1)  
     e1c:	400137b7          	lui	a5,0x40013
     e20:	c0078793          	addi	a5,a5,-1024 # 40012c00 <_eusrstack+0x2000dc00>
     e24:	00f51663          	bne	a0,a5,e30 <TIM_TimeBaseInit+0x70>
C:\Users\windows\Desktop\比赛\100 成渝版 带按键\17 110 舵机横向放置 比赛版\RED_BULL\Dual-core_Communication_Demo\MASTER\obj/../Libraries/wch_libraries/Peripheral/ch32v10x_tim.c:87
  {
    TIMx->RPTCR = TIM_TimeBaseInitStruct->TIM_RepetitionCounter;
     e28:	0085c783          	lbu	a5,8(a1)
     e2c:	02f51823          	sh	a5,48(a0)
C:\Users\windows\Desktop\比赛\100 成渝版 带按键\17 110 舵机横向放置 比赛版\RED_BULL\Dual-core_Communication_Demo\MASTER\obj/../Libraries/wch_libraries/Peripheral/ch32v10x_tim.c:90
  }

  TIMx->SWEVGR = TIM_PSCReloadMode_Immediate;           
     e30:	4785                	li	a5,1
     e32:	00f51a23          	sh	a5,20(a0)
C:\Users\windows\Desktop\比赛\100 成渝版 带按键\17 110 舵机横向放置 比赛版\RED_BULL\Dual-core_Communication_Demo\MASTER\obj/../Libraries/wch_libraries/Peripheral/ch32v10x_tim.c:91
}
     e36:	8082                	ret

00000e38 <TIM_OC1Init>:
TIM_OC1Init():
C:\Users\windows\Desktop\比赛\100 成渝版 带按键\17 110 舵机横向放置 比赛版\RED_BULL\Dual-core_Communication_Demo\MASTER\obj/../Libraries/wch_libraries/Peripheral/ch32v10x_tim.c:105
*******************************************************************************/
void TIM_OC1Init(TIM_TypeDef* TIMx, TIM_OCInitTypeDef* TIM_OCInitStruct)
{
  uint16_t tmpccmrx = 0, tmpccer = 0, tmpcr2 = 0;
     
  TIMx->CCER &= (uint16_t)(~(uint16_t)TIM_CC1E);
     e38:	02055783          	lhu	a5,32(a0)
C:\Users\windows\Desktop\比赛\100 成渝版 带按键\17 110 舵机横向放置 比赛版\RED_BULL\Dual-core_Communication_Demo\MASTER\obj/../Libraries/wch_libraries/Peripheral/ch32v10x_tim.c:111
  tmpccer = TIMx->CCER;
  tmpcr2 =  TIMx->CTLR2;
  tmpccmrx = TIMx->CHCTLR1;
  tmpccmrx &= (uint16_t)(~((uint16_t)TIM_OC1M));
  tmpccmrx &= (uint16_t)(~((uint16_t)TIM_CC1S));
  tmpccmrx |= TIM_OCInitStruct->TIM_OCMode;
     e3c:	0005d603          	lhu	a2,0(a1)
C:\Users\windows\Desktop\比赛\100 成渝版 带按键\17 110 舵机横向放置 比赛版\RED_BULL\Dual-core_Communication_Demo\MASTER\obj/../Libraries/wch_libraries/Peripheral/ch32v10x_tim.c:114
  tmpccer &= (uint16_t)(~((uint16_t)TIM_CC1P));
  tmpccer |= TIM_OCInitStruct->TIM_OCPolarity;
  tmpccer |= TIM_OCInitStruct->TIM_OutputState;
     e40:	0025d803          	lhu	a6,2(a1)
C:\Users\windows\Desktop\比赛\100 成渝版 带按键\17 110 舵机横向放置 比赛版\RED_BULL\Dual-core_Communication_Demo\MASTER\obj/../Libraries/wch_libraries/Peripheral/ch32v10x_tim.c:105
  TIMx->CCER &= (uint16_t)(~(uint16_t)TIM_CC1E);
     e44:	07c2                	slli	a5,a5,0x10
     e46:	83c1                	srli	a5,a5,0x10
     e48:	9bf9                	andi	a5,a5,-2
     e4a:	07c2                	slli	a5,a5,0x10
     e4c:	83c1                	srli	a5,a5,0x10
     e4e:	02f51023          	sh	a5,32(a0)
C:\Users\windows\Desktop\比赛\100 成渝版 带按键\17 110 舵机横向放置 比赛版\RED_BULL\Dual-core_Communication_Demo\MASTER\obj/../Libraries/wch_libraries/Peripheral/ch32v10x_tim.c:106
  tmpccer = TIMx->CCER;
     e52:	02055783          	lhu	a5,32(a0)
C:\Users\windows\Desktop\比赛\100 成渝版 带按键\17 110 舵机横向放置 比赛版\RED_BULL\Dual-core_Communication_Demo\MASTER\obj/../Libraries/wch_libraries/Peripheral/ch32v10x_tim.c:107
  tmpcr2 =  TIMx->CTLR2;
     e56:	00455683          	lhu	a3,4(a0)
C:\Users\windows\Desktop\比赛\100 成渝版 带按键\17 110 舵机横向放置 比赛版\RED_BULL\Dual-core_Communication_Demo\MASTER\obj/../Libraries/wch_libraries/Peripheral/ch32v10x_tim.c:108
  tmpccmrx = TIMx->CHCTLR1;
     e5a:	01855703          	lhu	a4,24(a0)
C:\Users\windows\Desktop\比赛\100 成渝版 带按键\17 110 舵机横向放置 比赛版\RED_BULL\Dual-core_Communication_Demo\MASTER\obj/../Libraries/wch_libraries/Peripheral/ch32v10x_tim.c:106
  tmpccer = TIMx->CCER;
     e5e:	07c2                	slli	a5,a5,0x10
     e60:	83c1                	srli	a5,a5,0x10
C:\Users\windows\Desktop\比赛\100 成渝版 带按键\17 110 舵机横向放置 比赛版\RED_BULL\Dual-core_Communication_Demo\MASTER\obj/../Libraries/wch_libraries/Peripheral/ch32v10x_tim.c:108
  tmpccmrx = TIMx->CHCTLR1;
     e62:	0742                	slli	a4,a4,0x10
     e64:	8341                	srli	a4,a4,0x10
C:\Users\windows\Desktop\比赛\100 成渝版 带按键\17 110 舵机横向放置 比赛版\RED_BULL\Dual-core_Communication_Demo\MASTER\obj/../Libraries/wch_libraries/Peripheral/ch32v10x_tim.c:110
  tmpccmrx &= (uint16_t)(~((uint16_t)TIM_CC1S));
     e66:	f8c77713          	andi	a4,a4,-116
C:\Users\windows\Desktop\比赛\100 成渝版 带按键\17 110 舵机横向放置 比赛版\RED_BULL\Dual-core_Communication_Demo\MASTER\obj/../Libraries/wch_libraries/Peripheral/ch32v10x_tim.c:111
  tmpccmrx |= TIM_OCInitStruct->TIM_OCMode;
     e6a:	8f51                	or	a4,a4,a2
C:\Users\windows\Desktop\比赛\100 成渝版 带按键\17 110 舵机横向放置 比赛版\RED_BULL\Dual-core_Communication_Demo\MASTER\obj/../Libraries/wch_libraries/Peripheral/ch32v10x_tim.c:114
  tmpccer |= TIM_OCInitStruct->TIM_OutputState;
     e6c:	0085d603          	lhu	a2,8(a1)
C:\Users\windows\Desktop\比赛\100 成渝版 带按键\17 110 舵机横向放置 比赛版\RED_BULL\Dual-core_Communication_Demo\MASTER\obj/../Libraries/wch_libraries/Peripheral/ch32v10x_tim.c:112
  tmpccer &= (uint16_t)(~((uint16_t)TIM_CC1P));
     e70:	9bf5                	andi	a5,a5,-3
C:\Users\windows\Desktop\比赛\100 成渝版 带按键\17 110 舵机横向放置 比赛版\RED_BULL\Dual-core_Communication_Demo\MASTER\obj/../Libraries/wch_libraries/Peripheral/ch32v10x_tim.c:107
  tmpcr2 =  TIMx->CTLR2;
     e72:	06c2                	slli	a3,a3,0x10
C:\Users\windows\Desktop\比赛\100 成渝版 带按键\17 110 舵机横向放置 比赛版\RED_BULL\Dual-core_Communication_Demo\MASTER\obj/../Libraries/wch_libraries/Peripheral/ch32v10x_tim.c:114
  tmpccer |= TIM_OCInitStruct->TIM_OutputState;
     e74:	01066633          	or	a2,a2,a6
     e78:	8fd1                	or	a5,a5,a2
C:\Users\windows\Desktop\比赛\100 成渝版 带按键\17 110 舵机横向放置 比赛版\RED_BULL\Dual-core_Communication_Demo\MASTER\obj/../Libraries/wch_libraries/Peripheral/ch32v10x_tim.c:116
    
  if(TIMx == TIM1)
     e7a:	40013637          	lui	a2,0x40013
     e7e:	c0060613          	addi	a2,a2,-1024 # 40012c00 <_eusrstack+0x2000dc00>
C:\Users\windows\Desktop\比赛\100 成渝版 带按键\17 110 舵机横向放置 比赛版\RED_BULL\Dual-core_Communication_Demo\MASTER\obj/../Libraries/wch_libraries/Peripheral/ch32v10x_tim.c:107
  tmpcr2 =  TIMx->CTLR2;
     e82:	82c1                	srli	a3,a3,0x10
C:\Users\windows\Desktop\比赛\100 成渝版 带按键\17 110 舵机横向放置 比赛版\RED_BULL\Dual-core_Communication_Demo\MASTER\obj/../Libraries/wch_libraries/Peripheral/ch32v10x_tim.c:116
  if(TIMx == TIM1)
     e84:	02c51363          	bne	a0,a2,eaa <TIM_OC1Init+0x72>
C:\Users\windows\Desktop\比赛\100 成渝版 带按键\17 110 舵机横向放置 比赛版\RED_BULL\Dual-core_Communication_Demo\MASTER\obj/../Libraries/wch_libraries/Peripheral/ch32v10x_tim.c:119
  {
    tmpccer &= (uint16_t)(~((uint16_t)TIM_CC1NP));
    tmpccer |= TIM_OCInitStruct->TIM_OCNPolarity;
     e88:	00a5d603          	lhu	a2,10(a1)
C:\Users\windows\Desktop\比赛\100 成渝版 带按键\17 110 舵机横向放置 比赛版\RED_BULL\Dual-core_Communication_Demo\MASTER\obj/../Libraries/wch_libraries/Peripheral/ch32v10x_tim.c:118
    tmpccer &= (uint16_t)(~((uint16_t)TIM_CC1NP));
     e8c:	9bdd                	andi	a5,a5,-9
C:\Users\windows\Desktop\比赛\100 成渝版 带按键\17 110 舵机横向放置 比赛版\RED_BULL\Dual-core_Communication_Demo\MASTER\obj/../Libraries/wch_libraries/Peripheral/ch32v10x_tim.c:128
    
    tmpcr2 &= (uint16_t)(~((uint16_t)TIM_OIS1));
    tmpcr2 &= (uint16_t)(~((uint16_t)TIM_OIS1N));
    
    tmpcr2 |= TIM_OCInitStruct->TIM_OCIdleState;
    tmpcr2 |= TIM_OCInitStruct->TIM_OCNIdleState;
     e8e:	00e5d803          	lhu	a6,14(a1)
C:\Users\windows\Desktop\比赛\100 成渝版 带按键\17 110 舵机横向放置 比赛版\RED_BULL\Dual-core_Communication_Demo\MASTER\obj/../Libraries/wch_libraries/Peripheral/ch32v10x_tim.c:119
    tmpccer |= TIM_OCInitStruct->TIM_OCNPolarity;
     e92:	8fd1                	or	a5,a5,a2
C:\Users\windows\Desktop\比赛\100 成渝版 带按键\17 110 舵机横向放置 比赛版\RED_BULL\Dual-core_Communication_Demo\MASTER\obj/../Libraries/wch_libraries/Peripheral/ch32v10x_tim.c:122
    tmpccer |= TIM_OCInitStruct->TIM_OutputNState;
     e94:	0045d603          	lhu	a2,4(a1)
C:\Users\windows\Desktop\比赛\100 成渝版 带按键\17 110 舵机横向放置 比赛版\RED_BULL\Dual-core_Communication_Demo\MASTER\obj/../Libraries/wch_libraries/Peripheral/ch32v10x_tim.c:121
    tmpccer &= (uint16_t)(~((uint16_t)TIM_CC1NE));    
     e98:	9bed                	andi	a5,a5,-5
C:\Users\windows\Desktop\比赛\100 成渝版 带按键\17 110 舵机横向放置 比赛版\RED_BULL\Dual-core_Communication_Demo\MASTER\obj/../Libraries/wch_libraries/Peripheral/ch32v10x_tim.c:125
    tmpcr2 &= (uint16_t)(~((uint16_t)TIM_OIS1N));
     e9a:	cff6f693          	andi	a3,a3,-769
C:\Users\windows\Desktop\比赛\100 成渝版 带按键\17 110 舵机横向放置 比赛版\RED_BULL\Dual-core_Communication_Demo\MASTER\obj/../Libraries/wch_libraries/Peripheral/ch32v10x_tim.c:122
    tmpccer |= TIM_OCInitStruct->TIM_OutputNState;
     e9e:	8fd1                	or	a5,a5,a2
C:\Users\windows\Desktop\比赛\100 成渝版 带按键\17 110 舵机横向放置 比赛版\RED_BULL\Dual-core_Communication_Demo\MASTER\obj/../Libraries/wch_libraries/Peripheral/ch32v10x_tim.c:128
    tmpcr2 |= TIM_OCInitStruct->TIM_OCNIdleState;
     ea0:	00c5d603          	lhu	a2,12(a1)
     ea4:	01066633          	or	a2,a2,a6
     ea8:	8ed1                	or	a3,a3,a2
C:\Users\windows\Desktop\比赛\100 成渝版 带按键\17 110 舵机横向放置 比赛版\RED_BULL\Dual-core_Communication_Demo\MASTER\obj/../Libraries/wch_libraries/Peripheral/ch32v10x_tim.c:131
  }

  TIMx->CTLR2 = tmpcr2;
     eaa:	00d51223          	sh	a3,4(a0)
C:\Users\windows\Desktop\比赛\100 成渝版 带按键\17 110 舵机横向放置 比赛版\RED_BULL\Dual-core_Communication_Demo\MASTER\obj/../Libraries/wch_libraries/Peripheral/ch32v10x_tim.c:132
  TIMx->CHCTLR1 = tmpccmrx;
     eae:	00e51c23          	sh	a4,24(a0)
C:\Users\windows\Desktop\比赛\100 成渝版 带按键\17 110 舵机横向放置 比赛版\RED_BULL\Dual-core_Communication_Demo\MASTER\obj/../Libraries/wch_libraries/Peripheral/ch32v10x_tim.c:133
  TIMx->CH1CVR = TIM_OCInitStruct->TIM_Pulse; 
     eb2:	0065d703          	lhu	a4,6(a1)
     eb6:	02e51a23          	sh	a4,52(a0)
C:\Users\windows\Desktop\比赛\100 成渝版 带按键\17 110 舵机横向放置 比赛版\RED_BULL\Dual-core_Communication_Demo\MASTER\obj/../Libraries/wch_libraries/Peripheral/ch32v10x_tim.c:134
  TIMx->CCER = tmpccer;
     eba:	02f51023          	sh	a5,32(a0)
C:\Users\windows\Desktop\比赛\100 成渝版 带按键\17 110 舵机横向放置 比赛版\RED_BULL\Dual-core_Communication_Demo\MASTER\obj/../Libraries/wch_libraries/Peripheral/ch32v10x_tim.c:135
}
     ebe:	8082                	ret

00000ec0 <TIM_OC2Init>:
TIM_OC2Init():
C:\Users\windows\Desktop\比赛\100 成渝版 带按键\17 110 舵机横向放置 比赛版\RED_BULL\Dual-core_Communication_Demo\MASTER\obj/../Libraries/wch_libraries/Peripheral/ch32v10x_tim.c:149
*******************************************************************************/
void TIM_OC2Init(TIM_TypeDef* TIMx, TIM_OCInitTypeDef* TIM_OCInitStruct)
{
  uint16_t tmpccmrx = 0, tmpccer = 0, tmpcr2 = 0;
   
  TIMx->CCER &= (uint16_t)(~((uint16_t)TIM_CC2E)); 
     ec0:	02055783          	lhu	a5,32(a0)
C:\Users\windows\Desktop\比赛\100 成渝版 带按键\17 110 舵机横向放置 比赛版\RED_BULL\Dual-core_Communication_Demo\MASTER\obj/../Libraries/wch_libraries/Peripheral/ch32v10x_tim.c:154
  tmpccer = TIMx->CCER;
  tmpcr2 =  TIMx->CTLR2;
  tmpccmrx = TIMx->CHCTLR1;
  tmpccmrx &= (uint16_t)(~((uint16_t)TIM_OC2M));
  tmpccmrx &= (uint16_t)(~((uint16_t)TIM_CC2S));
     ec4:	7765                	lui	a4,0xffff9
     ec6:	cff70713          	addi	a4,a4,-769 # ffff8cff <_eusrstack+0xdfff3cff>
C:\Users\windows\Desktop\比赛\100 成渝版 带按键\17 110 舵机横向放置 比赛版\RED_BULL\Dual-core_Communication_Demo\MASTER\obj/../Libraries/wch_libraries/Peripheral/ch32v10x_tim.c:149
  TIMx->CCER &= (uint16_t)(~((uint16_t)TIM_CC2E)); 
     eca:	07c2                	slli	a5,a5,0x10
     ecc:	83c1                	srli	a5,a5,0x10
     ece:	9bbd                	andi	a5,a5,-17
     ed0:	07c2                	slli	a5,a5,0x10
     ed2:	83c1                	srli	a5,a5,0x10
     ed4:	02f51023          	sh	a5,32(a0)
C:\Users\windows\Desktop\比赛\100 成渝版 带按键\17 110 舵机横向放置 比赛版\RED_BULL\Dual-core_Communication_Demo\MASTER\obj/../Libraries/wch_libraries/Peripheral/ch32v10x_tim.c:150
  tmpccer = TIMx->CCER;
     ed8:	02055783          	lhu	a5,32(a0)
C:\Users\windows\Desktop\比赛\100 成渝版 带按键\17 110 舵机横向放置 比赛版\RED_BULL\Dual-core_Communication_Demo\MASTER\obj/../Libraries/wch_libraries/Peripheral/ch32v10x_tim.c:151
  tmpcr2 =  TIMx->CTLR2;
     edc:	00455683          	lhu	a3,4(a0)
C:\Users\windows\Desktop\比赛\100 成渝版 带按键\17 110 舵机横向放置 比赛版\RED_BULL\Dual-core_Communication_Demo\MASTER\obj/../Libraries/wch_libraries/Peripheral/ch32v10x_tim.c:157
  tmpccmrx |= (uint16_t)(TIM_OCInitStruct->TIM_OCMode << 8);
  tmpccer &= (uint16_t)(~((uint16_t)TIM_CC2P));
  tmpccer |= (uint16_t)(TIM_OCInitStruct->TIM_OCPolarity << 4);
     ee0:	0085d803          	lhu	a6,8(a1)
C:\Users\windows\Desktop\比赛\100 成渝版 带按键\17 110 舵机横向放置 比赛版\RED_BULL\Dual-core_Communication_Demo\MASTER\obj/../Libraries/wch_libraries/Peripheral/ch32v10x_tim.c:150
  tmpccer = TIMx->CCER;
     ee4:	07c2                	slli	a5,a5,0x10
C:\Users\windows\Desktop\比赛\100 成渝版 带按键\17 110 舵机横向放置 比赛版\RED_BULL\Dual-core_Communication_Demo\MASTER\obj/../Libraries/wch_libraries/Peripheral/ch32v10x_tim.c:151
  tmpcr2 =  TIMx->CTLR2;
     ee6:	01069613          	slli	a2,a3,0x10
C:\Users\windows\Desktop\比赛\100 成渝版 带按键\17 110 舵机横向放置 比赛版\RED_BULL\Dual-core_Communication_Demo\MASTER\obj/../Libraries/wch_libraries/Peripheral/ch32v10x_tim.c:152
  tmpccmrx = TIMx->CHCTLR1;
     eea:	01855683          	lhu	a3,24(a0)
C:\Users\windows\Desktop\比赛\100 成渝版 带按键\17 110 舵机横向放置 比赛版\RED_BULL\Dual-core_Communication_Demo\MASTER\obj/../Libraries/wch_libraries/Peripheral/ch32v10x_tim.c:150
  tmpccer = TIMx->CCER;
     eee:	83c1                	srli	a5,a5,0x10
C:\Users\windows\Desktop\比赛\100 成渝版 带按键\17 110 舵机横向放置 比赛版\RED_BULL\Dual-core_Communication_Demo\MASTER\obj/../Libraries/wch_libraries/Peripheral/ch32v10x_tim.c:156
  tmpccer &= (uint16_t)(~((uint16_t)TIM_CC2P));
     ef0:	fdf7f793          	andi	a5,a5,-33
C:\Users\windows\Desktop\比赛\100 成渝版 带按键\17 110 舵机横向放置 比赛版\RED_BULL\Dual-core_Communication_Demo\MASTER\obj/../Libraries/wch_libraries/Peripheral/ch32v10x_tim.c:154
  tmpccmrx &= (uint16_t)(~((uint16_t)TIM_CC2S));
     ef4:	8f75                	and	a4,a4,a3
C:\Users\windows\Desktop\比赛\100 成渝版 带按键\17 110 舵机横向放置 比赛版\RED_BULL\Dual-core_Communication_Demo\MASTER\obj/../Libraries/wch_libraries/Peripheral/ch32v10x_tim.c:155
  tmpccmrx |= (uint16_t)(TIM_OCInitStruct->TIM_OCMode << 8);
     ef6:	0005d683          	lhu	a3,0(a1)
C:\Users\windows\Desktop\比赛\100 成渝版 带按键\17 110 舵机横向放置 比赛版\RED_BULL\Dual-core_Communication_Demo\MASTER\obj/../Libraries/wch_libraries/Peripheral/ch32v10x_tim.c:151
  tmpcr2 =  TIMx->CTLR2;
     efa:	8241                	srli	a2,a2,0x10
C:\Users\windows\Desktop\比赛\100 成渝版 带按键\17 110 舵机横向放置 比赛版\RED_BULL\Dual-core_Communication_Demo\MASTER\obj/../Libraries/wch_libraries/Peripheral/ch32v10x_tim.c:155
  tmpccmrx |= (uint16_t)(TIM_OCInitStruct->TIM_OCMode << 8);
     efc:	06a2                	slli	a3,a3,0x8
     efe:	8f55                	or	a4,a4,a3
C:\Users\windows\Desktop\比赛\100 成渝版 带按键\17 110 舵机横向放置 比赛版\RED_BULL\Dual-core_Communication_Demo\MASTER\obj/../Libraries/wch_libraries/Peripheral/ch32v10x_tim.c:158
  tmpccer |= (uint16_t)(TIM_OCInitStruct->TIM_OutputState << 4);
     f00:	0025d683          	lhu	a3,2(a1)
C:\Users\windows\Desktop\比赛\100 成渝版 带按键\17 110 舵机横向放置 比赛版\RED_BULL\Dual-core_Communication_Demo\MASTER\obj/../Libraries/wch_libraries/Peripheral/ch32v10x_tim.c:155
  tmpccmrx |= (uint16_t)(TIM_OCInitStruct->TIM_OCMode << 8);
     f04:	0742                	slli	a4,a4,0x10
     f06:	8341                	srli	a4,a4,0x10
C:\Users\windows\Desktop\比赛\100 成渝版 带按键\17 110 舵机横向放置 比赛版\RED_BULL\Dual-core_Communication_Demo\MASTER\obj/../Libraries/wch_libraries/Peripheral/ch32v10x_tim.c:158
  tmpccer |= (uint16_t)(TIM_OCInitStruct->TIM_OutputState << 4);
     f08:	0106e6b3          	or	a3,a3,a6
     f0c:	0692                	slli	a3,a3,0x4
     f0e:	8fd5                	or	a5,a5,a3
C:\Users\windows\Desktop\比赛\100 成渝版 带按键\17 110 舵机横向放置 比赛版\RED_BULL\Dual-core_Communication_Demo\MASTER\obj/../Libraries/wch_libraries/Peripheral/ch32v10x_tim.c:160
    
  if(TIMx == TIM1)
     f10:	400136b7          	lui	a3,0x40013
C:\Users\windows\Desktop\比赛\100 成渝版 带按键\17 110 舵机横向放置 比赛版\RED_BULL\Dual-core_Communication_Demo\MASTER\obj/../Libraries/wch_libraries/Peripheral/ch32v10x_tim.c:158
  tmpccer |= (uint16_t)(TIM_OCInitStruct->TIM_OutputState << 4);
     f14:	07c2                	slli	a5,a5,0x10
C:\Users\windows\Desktop\比赛\100 成渝版 带按键\17 110 舵机横向放置 比赛版\RED_BULL\Dual-core_Communication_Demo\MASTER\obj/../Libraries/wch_libraries/Peripheral/ch32v10x_tim.c:160
  if(TIMx == TIM1)
     f16:	c0068693          	addi	a3,a3,-1024 # 40012c00 <_eusrstack+0x2000dc00>
C:\Users\windows\Desktop\比赛\100 成渝版 带按键\17 110 舵机横向放置 比赛版\RED_BULL\Dual-core_Communication_Demo\MASTER\obj/../Libraries/wch_libraries/Peripheral/ch32v10x_tim.c:158
  tmpccer |= (uint16_t)(TIM_OCInitStruct->TIM_OutputState << 4);
     f1a:	83c1                	srli	a5,a5,0x10
C:\Users\windows\Desktop\比赛\100 成渝版 带按键\17 110 舵机横向放置 比赛版\RED_BULL\Dual-core_Communication_Demo\MASTER\obj/../Libraries/wch_libraries/Peripheral/ch32v10x_tim.c:160
  if(TIMx == TIM1)
     f1c:	04d51163          	bne	a0,a3,f5e <TIM_OC2Init+0x9e>
C:\Users\windows\Desktop\比赛\100 成渝版 带按键\17 110 舵机横向放置 比赛版\RED_BULL\Dual-core_Communication_Demo\MASTER\obj/../Libraries/wch_libraries/Peripheral/ch32v10x_tim.c:163
  {
    tmpccer &= (uint16_t)(~((uint16_t)TIM_CC2NP));
    tmpccer |= (uint16_t)(TIM_OCInitStruct->TIM_OCNPolarity << 4);
     f20:	00a5d683          	lhu	a3,10(a1)
C:\Users\windows\Desktop\比赛\100 成渝版 带按键\17 110 舵机横向放置 比赛版\RED_BULL\Dual-core_Communication_Demo\MASTER\obj/../Libraries/wch_libraries/Peripheral/ch32v10x_tim.c:162
    tmpccer &= (uint16_t)(~((uint16_t)TIM_CC2NP));
     f24:	f7f7f793          	andi	a5,a5,-129
C:\Users\windows\Desktop\比赛\100 成渝版 带按键\17 110 舵机横向放置 比赛版\RED_BULL\Dual-core_Communication_Demo\MASTER\obj/../Libraries/wch_libraries/Peripheral/ch32v10x_tim.c:169
    tmpccer &= (uint16_t)(~((uint16_t)TIM_CC2NE));    
    tmpccer |= (uint16_t)(TIM_OCInitStruct->TIM_OutputNState << 4);
    
    tmpcr2 &= (uint16_t)(~((uint16_t)TIM_OIS2));
    tmpcr2 &= (uint16_t)(~((uint16_t)TIM_OIS2N));
    tmpcr2 |= (uint16_t)(TIM_OCInitStruct->TIM_OCIdleState << 2);
     f28:	00c5d803          	lhu	a6,12(a1)
C:\Users\windows\Desktop\比赛\100 成渝版 带按键\17 110 舵机横向放置 比赛版\RED_BULL\Dual-core_Communication_Demo\MASTER\obj/../Libraries/wch_libraries/Peripheral/ch32v10x_tim.c:163
    tmpccer |= (uint16_t)(TIM_OCInitStruct->TIM_OCNPolarity << 4);
     f2c:	0692                	slli	a3,a3,0x4
     f2e:	8fd5                	or	a5,a5,a3
C:\Users\windows\Desktop\比赛\100 成渝版 带按键\17 110 舵机横向放置 比赛版\RED_BULL\Dual-core_Communication_Demo\MASTER\obj/../Libraries/wch_libraries/Peripheral/ch32v10x_tim.c:165
    tmpccer |= (uint16_t)(TIM_OCInitStruct->TIM_OutputNState << 4);
     f30:	0045d683          	lhu	a3,4(a1)
C:\Users\windows\Desktop\比赛\100 成渝版 带按键\17 110 舵机横向放置 比赛版\RED_BULL\Dual-core_Communication_Demo\MASTER\obj/../Libraries/wch_libraries/Peripheral/ch32v10x_tim.c:163
    tmpccer |= (uint16_t)(TIM_OCInitStruct->TIM_OCNPolarity << 4);
     f34:	07c2                	slli	a5,a5,0x10
     f36:	83c1                	srli	a5,a5,0x10
C:\Users\windows\Desktop\比赛\100 成渝版 带按键\17 110 舵机横向放置 比赛版\RED_BULL\Dual-core_Communication_Demo\MASTER\obj/../Libraries/wch_libraries/Peripheral/ch32v10x_tim.c:165
    tmpccer |= (uint16_t)(TIM_OCInitStruct->TIM_OutputNState << 4);
     f38:	0692                	slli	a3,a3,0x4
C:\Users\windows\Desktop\比赛\100 成渝版 带按键\17 110 舵机横向放置 比赛版\RED_BULL\Dual-core_Communication_Demo\MASTER\obj/../Libraries/wch_libraries/Peripheral/ch32v10x_tim.c:164
    tmpccer &= (uint16_t)(~((uint16_t)TIM_CC2NE));    
     f3a:	fbf7f793          	andi	a5,a5,-65
C:\Users\windows\Desktop\比赛\100 成渝版 带按键\17 110 舵机横向放置 比赛版\RED_BULL\Dual-core_Communication_Demo\MASTER\obj/../Libraries/wch_libraries/Peripheral/ch32v10x_tim.c:165
    tmpccer |= (uint16_t)(TIM_OCInitStruct->TIM_OutputNState << 4);
     f3e:	8fd5                	or	a5,a5,a3
C:\Users\windows\Desktop\比赛\100 成渝版 带按键\17 110 舵机横向放置 比赛版\RED_BULL\Dual-core_Communication_Demo\MASTER\obj/../Libraries/wch_libraries/Peripheral/ch32v10x_tim.c:168
    tmpcr2 &= (uint16_t)(~((uint16_t)TIM_OIS2N));
     f40:	76fd                	lui	a3,0xfffff
     f42:	3ff68693          	addi	a3,a3,1023 # fffff3ff <_eusrstack+0xdfffa3ff>
     f46:	8ef1                	and	a3,a3,a2
C:\Users\windows\Desktop\比赛\100 成渝版 带按键\17 110 舵机横向放置 比赛版\RED_BULL\Dual-core_Communication_Demo\MASTER\obj/../Libraries/wch_libraries/Peripheral/ch32v10x_tim.c:170
    tmpcr2 |= (uint16_t)(TIM_OCInitStruct->TIM_OCNIdleState << 2);
     f48:	00e5d603          	lhu	a2,14(a1)
C:\Users\windows\Desktop\比赛\100 成渝版 带按键\17 110 舵机横向放置 比赛版\RED_BULL\Dual-core_Communication_Demo\MASTER\obj/../Libraries/wch_libraries/Peripheral/ch32v10x_tim.c:165
    tmpccer |= (uint16_t)(TIM_OCInitStruct->TIM_OutputNState << 4);
     f4c:	07c2                	slli	a5,a5,0x10
     f4e:	83c1                	srli	a5,a5,0x10
C:\Users\windows\Desktop\比赛\100 成渝版 带按键\17 110 舵机横向放置 比赛版\RED_BULL\Dual-core_Communication_Demo\MASTER\obj/../Libraries/wch_libraries/Peripheral/ch32v10x_tim.c:170
    tmpcr2 |= (uint16_t)(TIM_OCInitStruct->TIM_OCNIdleState << 2);
     f50:	01066633          	or	a2,a2,a6
     f54:	060a                	slli	a2,a2,0x2
     f56:	8ed1                	or	a3,a3,a2
     f58:	01069613          	slli	a2,a3,0x10
     f5c:	8241                	srli	a2,a2,0x10
C:\Users\windows\Desktop\比赛\100 成渝版 带按键\17 110 舵机横向放置 比赛版\RED_BULL\Dual-core_Communication_Demo\MASTER\obj/../Libraries/wch_libraries/Peripheral/ch32v10x_tim.c:173
  }

  TIMx->CTLR2 = tmpcr2;
     f5e:	00c51223          	sh	a2,4(a0)
C:\Users\windows\Desktop\比赛\100 成渝版 带按键\17 110 舵机横向放置 比赛版\RED_BULL\Dual-core_Communication_Demo\MASTER\obj/../Libraries/wch_libraries/Peripheral/ch32v10x_tim.c:174
  TIMx->CHCTLR1 = tmpccmrx;
     f62:	00e51c23          	sh	a4,24(a0)
C:\Users\windows\Desktop\比赛\100 成渝版 带按键\17 110 舵机横向放置 比赛版\RED_BULL\Dual-core_Communication_Demo\MASTER\obj/../Libraries/wch_libraries/Peripheral/ch32v10x_tim.c:175
  TIMx->CH2CVR = TIM_OCInitStruct->TIM_Pulse;
     f66:	0065d703          	lhu	a4,6(a1)
     f6a:	02e51c23          	sh	a4,56(a0)
C:\Users\windows\Desktop\比赛\100 成渝版 带按键\17 110 舵机横向放置 比赛版\RED_BULL\Dual-core_Communication_Demo\MASTER\obj/../Libraries/wch_libraries/Peripheral/ch32v10x_tim.c:176
  TIMx->CCER = tmpccer;
     f6e:	02f51023          	sh	a5,32(a0)
C:\Users\windows\Desktop\比赛\100 成渝版 带按键\17 110 舵机横向放置 比赛版\RED_BULL\Dual-core_Communication_Demo\MASTER\obj/../Libraries/wch_libraries/Peripheral/ch32v10x_tim.c:177
}
     f72:	8082                	ret

00000f74 <TIM_OC3Init>:
TIM_OC3Init():
C:\Users\windows\Desktop\比赛\100 成渝版 带按键\17 110 舵机横向放置 比赛版\RED_BULL\Dual-core_Communication_Demo\MASTER\obj/../Libraries/wch_libraries/Peripheral/ch32v10x_tim.c:191
*******************************************************************************/
void TIM_OC3Init(TIM_TypeDef* TIMx, TIM_OCInitTypeDef* TIM_OCInitStruct)
{
  uint16_t tmpccmrx = 0, tmpccer = 0, tmpcr2 = 0;
   
  TIMx->CCER &= (uint16_t)(~((uint16_t)TIM_CC3E));
     f74:	02055783          	lhu	a5,32(a0)
C:\Users\windows\Desktop\比赛\100 成渝版 带按键\17 110 舵机横向放置 比赛版\RED_BULL\Dual-core_Communication_Demo\MASTER\obj/../Libraries/wch_libraries/Peripheral/ch32v10x_tim.c:199
  tmpccmrx = TIMx->CHCTLR2;
  tmpccmrx &= (uint16_t)(~((uint16_t)TIM_OC3M));
  tmpccmrx &= (uint16_t)(~((uint16_t)TIM_CC3S));  
  tmpccmrx |= TIM_OCInitStruct->TIM_OCMode;
  tmpccer &= (uint16_t)(~((uint16_t)TIM_CC3P));
  tmpccer |= (uint16_t)(TIM_OCInitStruct->TIM_OCPolarity << 8);
     f78:	0085d803          	lhu	a6,8(a1)
C:\Users\windows\Desktop\比赛\100 成渝版 带按键\17 110 舵机横向放置 比赛版\RED_BULL\Dual-core_Communication_Demo\MASTER\obj/../Libraries/wch_libraries/Peripheral/ch32v10x_tim.c:191
  TIMx->CCER &= (uint16_t)(~((uint16_t)TIM_CC3E));
     f7c:	07c2                	slli	a5,a5,0x10
     f7e:	83c1                	srli	a5,a5,0x10
     f80:	eff7f793          	andi	a5,a5,-257
     f84:	07c2                	slli	a5,a5,0x10
     f86:	83c1                	srli	a5,a5,0x10
     f88:	02f51023          	sh	a5,32(a0)
C:\Users\windows\Desktop\比赛\100 成渝版 带按键\17 110 舵机横向放置 比赛版\RED_BULL\Dual-core_Communication_Demo\MASTER\obj/../Libraries/wch_libraries/Peripheral/ch32v10x_tim.c:192
  tmpccer = TIMx->CCER;
     f8c:	02055783          	lhu	a5,32(a0)
C:\Users\windows\Desktop\比赛\100 成渝版 带按键\17 110 舵机横向放置 比赛版\RED_BULL\Dual-core_Communication_Demo\MASTER\obj/../Libraries/wch_libraries/Peripheral/ch32v10x_tim.c:193
  tmpcr2 =  TIMx->CTLR2;
     f90:	00455683          	lhu	a3,4(a0)
C:\Users\windows\Desktop\比赛\100 成渝版 带按键\17 110 舵机横向放置 比赛版\RED_BULL\Dual-core_Communication_Demo\MASTER\obj/../Libraries/wch_libraries/Peripheral/ch32v10x_tim.c:194
  tmpccmrx = TIMx->CHCTLR2;
     f94:	01c55703          	lhu	a4,28(a0)
C:\Users\windows\Desktop\比赛\100 成渝版 带按键\17 110 舵机横向放置 比赛版\RED_BULL\Dual-core_Communication_Demo\MASTER\obj/../Libraries/wch_libraries/Peripheral/ch32v10x_tim.c:192
  tmpccer = TIMx->CCER;
     f98:	07c2                	slli	a5,a5,0x10
C:\Users\windows\Desktop\比赛\100 成渝版 带按键\17 110 舵机横向放置 比赛版\RED_BULL\Dual-core_Communication_Demo\MASTER\obj/../Libraries/wch_libraries/Peripheral/ch32v10x_tim.c:193
  tmpcr2 =  TIMx->CTLR2;
     f9a:	01069613          	slli	a2,a3,0x10
C:\Users\windows\Desktop\比赛\100 成渝版 带按键\17 110 舵机横向放置 比赛版\RED_BULL\Dual-core_Communication_Demo\MASTER\obj/../Libraries/wch_libraries/Peripheral/ch32v10x_tim.c:194
  tmpccmrx = TIMx->CHCTLR2;
     f9e:	0742                	slli	a4,a4,0x10
C:\Users\windows\Desktop\比赛\100 成渝版 带按键\17 110 舵机横向放置 比赛版\RED_BULL\Dual-core_Communication_Demo\MASTER\obj/../Libraries/wch_libraries/Peripheral/ch32v10x_tim.c:197
  tmpccmrx |= TIM_OCInitStruct->TIM_OCMode;
     fa0:	0005d683          	lhu	a3,0(a1)
C:\Users\windows\Desktop\比赛\100 成渝版 带按键\17 110 舵机横向放置 比赛版\RED_BULL\Dual-core_Communication_Demo\MASTER\obj/../Libraries/wch_libraries/Peripheral/ch32v10x_tim.c:194
  tmpccmrx = TIMx->CHCTLR2;
     fa4:	8341                	srli	a4,a4,0x10
C:\Users\windows\Desktop\比赛\100 成渝版 带按键\17 110 舵机横向放置 比赛版\RED_BULL\Dual-core_Communication_Demo\MASTER\obj/../Libraries/wch_libraries/Peripheral/ch32v10x_tim.c:196
  tmpccmrx &= (uint16_t)(~((uint16_t)TIM_CC3S));  
     fa6:	f8c77713          	andi	a4,a4,-116
C:\Users\windows\Desktop\比赛\100 成渝版 带按键\17 110 舵机横向放置 比赛版\RED_BULL\Dual-core_Communication_Demo\MASTER\obj/../Libraries/wch_libraries/Peripheral/ch32v10x_tim.c:197
  tmpccmrx |= TIM_OCInitStruct->TIM_OCMode;
     faa:	8f55                	or	a4,a4,a3
C:\Users\windows\Desktop\比赛\100 成渝版 带按键\17 110 舵机横向放置 比赛版\RED_BULL\Dual-core_Communication_Demo\MASTER\obj/../Libraries/wch_libraries/Peripheral/ch32v10x_tim.c:200
  tmpccer |= (uint16_t)(TIM_OCInitStruct->TIM_OutputState << 8);
     fac:	0025d683          	lhu	a3,2(a1)
C:\Users\windows\Desktop\比赛\100 成渝版 带按键\17 110 舵机横向放置 比赛版\RED_BULL\Dual-core_Communication_Demo\MASTER\obj/../Libraries/wch_libraries/Peripheral/ch32v10x_tim.c:192
  tmpccer = TIMx->CCER;
     fb0:	83c1                	srli	a5,a5,0x10
C:\Users\windows\Desktop\比赛\100 成渝版 带按键\17 110 舵机横向放置 比赛版\RED_BULL\Dual-core_Communication_Demo\MASTER\obj/../Libraries/wch_libraries/Peripheral/ch32v10x_tim.c:198
  tmpccer &= (uint16_t)(~((uint16_t)TIM_CC3P));
     fb2:	dff7f793          	andi	a5,a5,-513
C:\Users\windows\Desktop\比赛\100 成渝版 带按键\17 110 舵机横向放置 比赛版\RED_BULL\Dual-core_Communication_Demo\MASTER\obj/../Libraries/wch_libraries/Peripheral/ch32v10x_tim.c:200
  tmpccer |= (uint16_t)(TIM_OCInitStruct->TIM_OutputState << 8);
     fb6:	0106e6b3          	or	a3,a3,a6
     fba:	06a2                	slli	a3,a3,0x8
     fbc:	8fd5                	or	a5,a5,a3
C:\Users\windows\Desktop\比赛\100 成渝版 带按键\17 110 舵机横向放置 比赛版\RED_BULL\Dual-core_Communication_Demo\MASTER\obj/../Libraries/wch_libraries/Peripheral/ch32v10x_tim.c:202
    
  if(TIMx == TIM1)
     fbe:	400136b7          	lui	a3,0x40013
C:\Users\windows\Desktop\比赛\100 成渝版 带按键\17 110 舵机横向放置 比赛版\RED_BULL\Dual-core_Communication_Demo\MASTER\obj/../Libraries/wch_libraries/Peripheral/ch32v10x_tim.c:200
  tmpccer |= (uint16_t)(TIM_OCInitStruct->TIM_OutputState << 8);
     fc2:	07c2                	slli	a5,a5,0x10
C:\Users\windows\Desktop\比赛\100 成渝版 带按键\17 110 舵机横向放置 比赛版\RED_BULL\Dual-core_Communication_Demo\MASTER\obj/../Libraries/wch_libraries/Peripheral/ch32v10x_tim.c:202
  if(TIMx == TIM1)
     fc4:	c0068693          	addi	a3,a3,-1024 # 40012c00 <_eusrstack+0x2000dc00>
C:\Users\windows\Desktop\比赛\100 成渝版 带按键\17 110 舵机横向放置 比赛版\RED_BULL\Dual-core_Communication_Demo\MASTER\obj/../Libraries/wch_libraries/Peripheral/ch32v10x_tim.c:193
  tmpcr2 =  TIMx->CTLR2;
     fc8:	8241                	srli	a2,a2,0x10
C:\Users\windows\Desktop\比赛\100 成渝版 带按键\17 110 舵机横向放置 比赛版\RED_BULL\Dual-core_Communication_Demo\MASTER\obj/../Libraries/wch_libraries/Peripheral/ch32v10x_tim.c:200
  tmpccer |= (uint16_t)(TIM_OCInitStruct->TIM_OutputState << 8);
     fca:	83c1                	srli	a5,a5,0x10
C:\Users\windows\Desktop\比赛\100 成渝版 带按键\17 110 舵机横向放置 比赛版\RED_BULL\Dual-core_Communication_Demo\MASTER\obj/../Libraries/wch_libraries/Peripheral/ch32v10x_tim.c:202
  if(TIMx == TIM1)
     fcc:	04d51263          	bne	a0,a3,1010 <TIM_OC3Init+0x9c>
C:\Users\windows\Desktop\比赛\100 成渝版 带按键\17 110 舵机横向放置 比赛版\RED_BULL\Dual-core_Communication_Demo\MASTER\obj/../Libraries/wch_libraries/Peripheral/ch32v10x_tim.c:204
  {
    tmpccer &= (uint16_t)(~((uint16_t)TIM_CC3NP));
     fd0:	76fd                	lui	a3,0xfffff
     fd2:	7ff68693          	addi	a3,a3,2047 # fffff7ff <_eusrstack+0xdfffa7ff>
     fd6:	8ff5                	and	a5,a5,a3
C:\Users\windows\Desktop\比赛\100 成渝版 带按键\17 110 舵机横向放置 比赛版\RED_BULL\Dual-core_Communication_Demo\MASTER\obj/../Libraries/wch_libraries/Peripheral/ch32v10x_tim.c:205
    tmpccer |= (uint16_t)(TIM_OCInitStruct->TIM_OCNPolarity << 8);
     fd8:	00a5d683          	lhu	a3,10(a1)
C:\Users\windows\Desktop\比赛\100 成渝版 带按键\17 110 舵机横向放置 比赛版\RED_BULL\Dual-core_Communication_Demo\MASTER\obj/../Libraries/wch_libraries/Peripheral/ch32v10x_tim.c:210
    tmpccer &= (uint16_t)(~((uint16_t)TIM_CC3NE));
    tmpccer |= (uint16_t)(TIM_OCInitStruct->TIM_OutputNState << 8);
    tmpcr2 &= (uint16_t)(~((uint16_t)TIM_OIS3));
    tmpcr2 &= (uint16_t)(~((uint16_t)TIM_OIS3N));
    tmpcr2 |= (uint16_t)(TIM_OCInitStruct->TIM_OCIdleState << 4);
     fdc:	00c5d803          	lhu	a6,12(a1)
C:\Users\windows\Desktop\比赛\100 成渝版 带按键\17 110 舵机横向放置 比赛版\RED_BULL\Dual-core_Communication_Demo\MASTER\obj/../Libraries/wch_libraries/Peripheral/ch32v10x_tim.c:205
    tmpccer |= (uint16_t)(TIM_OCInitStruct->TIM_OCNPolarity << 8);
     fe0:	06a2                	slli	a3,a3,0x8
     fe2:	8fd5                	or	a5,a5,a3
C:\Users\windows\Desktop\比赛\100 成渝版 带按键\17 110 舵机横向放置 比赛版\RED_BULL\Dual-core_Communication_Demo\MASTER\obj/../Libraries/wch_libraries/Peripheral/ch32v10x_tim.c:207
    tmpccer |= (uint16_t)(TIM_OCInitStruct->TIM_OutputNState << 8);
     fe4:	0045d683          	lhu	a3,4(a1)
C:\Users\windows\Desktop\比赛\100 成渝版 带按键\17 110 舵机横向放置 比赛版\RED_BULL\Dual-core_Communication_Demo\MASTER\obj/../Libraries/wch_libraries/Peripheral/ch32v10x_tim.c:205
    tmpccer |= (uint16_t)(TIM_OCInitStruct->TIM_OCNPolarity << 8);
     fe8:	07c2                	slli	a5,a5,0x10
     fea:	83c1                	srli	a5,a5,0x10
C:\Users\windows\Desktop\比赛\100 成渝版 带按键\17 110 舵机横向放置 比赛版\RED_BULL\Dual-core_Communication_Demo\MASTER\obj/../Libraries/wch_libraries/Peripheral/ch32v10x_tim.c:207
    tmpccer |= (uint16_t)(TIM_OCInitStruct->TIM_OutputNState << 8);
     fec:	06a2                	slli	a3,a3,0x8
C:\Users\windows\Desktop\比赛\100 成渝版 带按键\17 110 舵机横向放置 比赛版\RED_BULL\Dual-core_Communication_Demo\MASTER\obj/../Libraries/wch_libraries/Peripheral/ch32v10x_tim.c:206
    tmpccer &= (uint16_t)(~((uint16_t)TIM_CC3NE));
     fee:	bff7f793          	andi	a5,a5,-1025
C:\Users\windows\Desktop\比赛\100 成渝版 带按键\17 110 舵机横向放置 比赛版\RED_BULL\Dual-core_Communication_Demo\MASTER\obj/../Libraries/wch_libraries/Peripheral/ch32v10x_tim.c:207
    tmpccer |= (uint16_t)(TIM_OCInitStruct->TIM_OutputNState << 8);
     ff2:	8fd5                	or	a5,a5,a3
C:\Users\windows\Desktop\比赛\100 成渝版 带按键\17 110 舵机横向放置 比赛版\RED_BULL\Dual-core_Communication_Demo\MASTER\obj/../Libraries/wch_libraries/Peripheral/ch32v10x_tim.c:209
    tmpcr2 &= (uint16_t)(~((uint16_t)TIM_OIS3N));
     ff4:	76f5                	lui	a3,0xffffd
     ff6:	16fd                	addi	a3,a3,-1
     ff8:	8ef1                	and	a3,a3,a2
C:\Users\windows\Desktop\比赛\100 成渝版 带按键\17 110 舵机横向放置 比赛版\RED_BULL\Dual-core_Communication_Demo\MASTER\obj/../Libraries/wch_libraries/Peripheral/ch32v10x_tim.c:211
    tmpcr2 |= (uint16_t)(TIM_OCInitStruct->TIM_OCNIdleState << 4);
     ffa:	00e5d603          	lhu	a2,14(a1)
C:\Users\windows\Desktop\比赛\100 成渝版 带按键\17 110 舵机横向放置 比赛版\RED_BULL\Dual-core_Communication_Demo\MASTER\obj/../Libraries/wch_libraries/Peripheral/ch32v10x_tim.c:207
    tmpccer |= (uint16_t)(TIM_OCInitStruct->TIM_OutputNState << 8);
     ffe:	07c2                	slli	a5,a5,0x10
    1000:	83c1                	srli	a5,a5,0x10
C:\Users\windows\Desktop\比赛\100 成渝版 带按键\17 110 舵机横向放置 比赛版\RED_BULL\Dual-core_Communication_Demo\MASTER\obj/../Libraries/wch_libraries/Peripheral/ch32v10x_tim.c:211
    tmpcr2 |= (uint16_t)(TIM_OCInitStruct->TIM_OCNIdleState << 4);
    1002:	01066633          	or	a2,a2,a6
    1006:	0612                	slli	a2,a2,0x4
    1008:	8ed1                	or	a3,a3,a2
    100a:	01069613          	slli	a2,a3,0x10
    100e:	8241                	srli	a2,a2,0x10
C:\Users\windows\Desktop\比赛\100 成渝版 带按键\17 110 舵机横向放置 比赛版\RED_BULL\Dual-core_Communication_Demo\MASTER\obj/../Libraries/wch_libraries/Peripheral/ch32v10x_tim.c:214
  }

  TIMx->CTLR2 = tmpcr2;
    1010:	00c51223          	sh	a2,4(a0)
C:\Users\windows\Desktop\比赛\100 成渝版 带按键\17 110 舵机横向放置 比赛版\RED_BULL\Dual-core_Communication_Demo\MASTER\obj/../Libraries/wch_libraries/Peripheral/ch32v10x_tim.c:215
  TIMx->CHCTLR2 = tmpccmrx;
    1014:	00e51e23          	sh	a4,28(a0)
C:\Users\windows\Desktop\比赛\100 成渝版 带按键\17 110 舵机横向放置 比赛版\RED_BULL\Dual-core_Communication_Demo\MASTER\obj/../Libraries/wch_libraries/Peripheral/ch32v10x_tim.c:216
  TIMx->CH3CVR = TIM_OCInitStruct->TIM_Pulse;
    1018:	0065d703          	lhu	a4,6(a1)
    101c:	02e51e23          	sh	a4,60(a0)
C:\Users\windows\Desktop\比赛\100 成渝版 带按键\17 110 舵机横向放置 比赛版\RED_BULL\Dual-core_Communication_Demo\MASTER\obj/../Libraries/wch_libraries/Peripheral/ch32v10x_tim.c:217
  TIMx->CCER = tmpccer;
    1020:	02f51023          	sh	a5,32(a0)
C:\Users\windows\Desktop\比赛\100 成渝版 带按键\17 110 舵机横向放置 比赛版\RED_BULL\Dual-core_Communication_Demo\MASTER\obj/../Libraries/wch_libraries/Peripheral/ch32v10x_tim.c:218
}
    1024:	8082                	ret

00001026 <TIM_OC4Init>:
TIM_OC4Init():
C:\Users\windows\Desktop\比赛\100 成渝版 带按键\17 110 舵机横向放置 比赛版\RED_BULL\Dual-core_Communication_Demo\MASTER\obj/../Libraries/wch_libraries/Peripheral/ch32v10x_tim.c:232
*******************************************************************************/
void TIM_OC4Init(TIM_TypeDef* TIMx, TIM_OCInitTypeDef* TIM_OCInitStruct)
{
  uint16_t tmpccmrx = 0, tmpccer = 0, tmpcr2 = 0;

  TIMx->CCER &= (uint16_t)(~((uint16_t)TIM_CC4E));
    1026:	02055703          	lhu	a4,32(a0)
    102a:	77fd                	lui	a5,0xfffff
    102c:	17fd                	addi	a5,a5,-1
    102e:	8ff9                	and	a5,a5,a4
    1030:	02f51023          	sh	a5,32(a0)
C:\Users\windows\Desktop\比赛\100 成渝版 带按键\17 110 舵机横向放置 比赛版\RED_BULL\Dual-core_Communication_Demo\MASTER\obj/../Libraries/wch_libraries/Peripheral/ch32v10x_tim.c:233
  tmpccer = TIMx->CCER;
    1034:	02055803          	lhu	a6,32(a0)
C:\Users\windows\Desktop\比赛\100 成渝版 带按键\17 110 舵机横向放置 比赛版\RED_BULL\Dual-core_Communication_Demo\MASTER\obj/../Libraries/wch_libraries/Peripheral/ch32v10x_tim.c:234
  tmpcr2 =  TIMx->CTLR2;
    1038:	00455683          	lhu	a3,4(a0)
C:\Users\windows\Desktop\比赛\100 成渝版 带按键\17 110 舵机横向放置 比赛版\RED_BULL\Dual-core_Communication_Demo\MASTER\obj/../Libraries/wch_libraries/Peripheral/ch32v10x_tim.c:235
  tmpccmrx = TIMx->CHCTLR2;
    103c:	01c55783          	lhu	a5,28(a0)
C:\Users\windows\Desktop\比赛\100 成渝版 带按键\17 110 舵机横向放置 比赛版\RED_BULL\Dual-core_Communication_Demo\MASTER\obj/../Libraries/wch_libraries/Peripheral/ch32v10x_tim.c:237
  tmpccmrx &= (uint16_t)(~((uint16_t)TIM_OC4M));
  tmpccmrx &= (uint16_t)(~((uint16_t)TIM_CC4S));
    1040:	7765                	lui	a4,0xffff9
C:\Users\windows\Desktop\比赛\100 成渝版 带按键\17 110 舵机横向放置 比赛版\RED_BULL\Dual-core_Communication_Demo\MASTER\obj/../Libraries/wch_libraries/Peripheral/ch32v10x_tim.c:238
  tmpccmrx |= (uint16_t)(TIM_OCInitStruct->TIM_OCMode << 8);
    1042:	0005d603          	lhu	a2,0(a1)
C:\Users\windows\Desktop\比赛\100 成渝版 带按键\17 110 舵机横向放置 比赛版\RED_BULL\Dual-core_Communication_Demo\MASTER\obj/../Libraries/wch_libraries/Peripheral/ch32v10x_tim.c:237
  tmpccmrx &= (uint16_t)(~((uint16_t)TIM_CC4S));
    1046:	cff70713          	addi	a4,a4,-769 # ffff8cff <_eusrstack+0xdfff3cff>
    104a:	8f7d                	and	a4,a4,a5
C:\Users\windows\Desktop\比赛\100 成渝版 带按键\17 110 舵机横向放置 比赛版\RED_BULL\Dual-core_Communication_Demo\MASTER\obj/../Libraries/wch_libraries/Peripheral/ch32v10x_tim.c:239
  tmpccer &= (uint16_t)(~((uint16_t)TIM_CC4P));
    104c:	77f9                	lui	a5,0xffffe
C:\Users\windows\Desktop\比赛\100 成渝版 带按键\17 110 舵机横向放置 比赛版\RED_BULL\Dual-core_Communication_Demo\MASTER\obj/../Libraries/wch_libraries/Peripheral/ch32v10x_tim.c:238
  tmpccmrx |= (uint16_t)(TIM_OCInitStruct->TIM_OCMode << 8);
    104e:	0622                	slli	a2,a2,0x8
C:\Users\windows\Desktop\比赛\100 成渝版 带按键\17 110 舵机横向放置 比赛版\RED_BULL\Dual-core_Communication_Demo\MASTER\obj/../Libraries/wch_libraries/Peripheral/ch32v10x_tim.c:239
  tmpccer &= (uint16_t)(~((uint16_t)TIM_CC4P));
    1050:	17fd                	addi	a5,a5,-1
C:\Users\windows\Desktop\比赛\100 成渝版 带按键\17 110 舵机横向放置 比赛版\RED_BULL\Dual-core_Communication_Demo\MASTER\obj/../Libraries/wch_libraries/Peripheral/ch32v10x_tim.c:238
  tmpccmrx |= (uint16_t)(TIM_OCInitStruct->TIM_OCMode << 8);
    1052:	8f51                	or	a4,a4,a2
C:\Users\windows\Desktop\比赛\100 成渝版 带按键\17 110 舵机横向放置 比赛版\RED_BULL\Dual-core_Communication_Demo\MASTER\obj/../Libraries/wch_libraries/Peripheral/ch32v10x_tim.c:239
  tmpccer &= (uint16_t)(~((uint16_t)TIM_CC4P));
    1054:	0107f7b3          	and	a5,a5,a6
C:\Users\windows\Desktop\比赛\100 成渝版 带按键\17 110 舵机横向放置 比赛版\RED_BULL\Dual-core_Communication_Demo\MASTER\obj/../Libraries/wch_libraries/Peripheral/ch32v10x_tim.c:241
  tmpccer |= (uint16_t)(TIM_OCInitStruct->TIM_OCPolarity << 12);
  tmpccer |= (uint16_t)(TIM_OCInitStruct->TIM_OutputState << 12);
    1058:	0025d603          	lhu	a2,2(a1)
C:\Users\windows\Desktop\比赛\100 成渝版 带按键\17 110 舵机横向放置 比赛版\RED_BULL\Dual-core_Communication_Demo\MASTER\obj/../Libraries/wch_libraries/Peripheral/ch32v10x_tim.c:240
  tmpccer |= (uint16_t)(TIM_OCInitStruct->TIM_OCPolarity << 12);
    105c:	0085d803          	lhu	a6,8(a1)
C:\Users\windows\Desktop\比赛\100 成渝版 带按键\17 110 舵机横向放置 比赛版\RED_BULL\Dual-core_Communication_Demo\MASTER\obj/../Libraries/wch_libraries/Peripheral/ch32v10x_tim.c:234
  tmpcr2 =  TIMx->CTLR2;
    1060:	06c2                	slli	a3,a3,0x10
C:\Users\windows\Desktop\比赛\100 成渝版 带按键\17 110 舵机横向放置 比赛版\RED_BULL\Dual-core_Communication_Demo\MASTER\obj/../Libraries/wch_libraries/Peripheral/ch32v10x_tim.c:238
  tmpccmrx |= (uint16_t)(TIM_OCInitStruct->TIM_OCMode << 8);
    1062:	0742                	slli	a4,a4,0x10
C:\Users\windows\Desktop\比赛\100 成渝版 带按键\17 110 舵机横向放置 比赛版\RED_BULL\Dual-core_Communication_Demo\MASTER\obj/../Libraries/wch_libraries/Peripheral/ch32v10x_tim.c:241
  tmpccer |= (uint16_t)(TIM_OCInitStruct->TIM_OutputState << 12);
    1064:	01066633          	or	a2,a2,a6
    1068:	0632                	slli	a2,a2,0xc
    106a:	8fd1                	or	a5,a5,a2
C:\Users\windows\Desktop\比赛\100 成渝版 带按键\17 110 舵机横向放置 比赛版\RED_BULL\Dual-core_Communication_Demo\MASTER\obj/../Libraries/wch_libraries/Peripheral/ch32v10x_tim.c:243
    
  if(TIMx == TIM1)
    106c:	40013637          	lui	a2,0x40013
C:\Users\windows\Desktop\比赛\100 成渝版 带按键\17 110 舵机横向放置 比赛版\RED_BULL\Dual-core_Communication_Demo\MASTER\obj/../Libraries/wch_libraries/Peripheral/ch32v10x_tim.c:241
  tmpccer |= (uint16_t)(TIM_OCInitStruct->TIM_OutputState << 12);
    1070:	07c2                	slli	a5,a5,0x10
C:\Users\windows\Desktop\比赛\100 成渝版 带按键\17 110 舵机横向放置 比赛版\RED_BULL\Dual-core_Communication_Demo\MASTER\obj/../Libraries/wch_libraries/Peripheral/ch32v10x_tim.c:243
  if(TIMx == TIM1)
    1072:	c0060613          	addi	a2,a2,-1024 # 40012c00 <_eusrstack+0x2000dc00>
C:\Users\windows\Desktop\比赛\100 成渝版 带按键\17 110 舵机横向放置 比赛版\RED_BULL\Dual-core_Communication_Demo\MASTER\obj/../Libraries/wch_libraries/Peripheral/ch32v10x_tim.c:234
  tmpcr2 =  TIMx->CTLR2;
    1076:	82c1                	srli	a3,a3,0x10
C:\Users\windows\Desktop\比赛\100 成渝版 带按键\17 110 舵机横向放置 比赛版\RED_BULL\Dual-core_Communication_Demo\MASTER\obj/../Libraries/wch_libraries/Peripheral/ch32v10x_tim.c:238
  tmpccmrx |= (uint16_t)(TIM_OCInitStruct->TIM_OCMode << 8);
    1078:	8341                	srli	a4,a4,0x10
C:\Users\windows\Desktop\比赛\100 成渝版 带按键\17 110 舵机横向放置 比赛版\RED_BULL\Dual-core_Communication_Demo\MASTER\obj/../Libraries/wch_libraries/Peripheral/ch32v10x_tim.c:241
  tmpccer |= (uint16_t)(TIM_OCInitStruct->TIM_OutputState << 12);
    107a:	83c1                	srli	a5,a5,0x10
C:\Users\windows\Desktop\比赛\100 成渝版 带按键\17 110 舵机横向放置 比赛版\RED_BULL\Dual-core_Communication_Demo\MASTER\obj/../Libraries/wch_libraries/Peripheral/ch32v10x_tim.c:243
  if(TIMx == TIM1)
    107c:	00c51b63          	bne	a0,a2,1092 <TIM_OC4Init+0x6c>
C:\Users\windows\Desktop\比赛\100 成渝版 带按键\17 110 舵机横向放置 比赛版\RED_BULL\Dual-core_Communication_Demo\MASTER\obj/../Libraries/wch_libraries/Peripheral/ch32v10x_tim.c:245
  {
    tmpcr2 &= (uint16_t)(~((uint16_t)TIM_OIS4));
    1080:	7671                	lui	a2,0xffffc
    1082:	167d                	addi	a2,a2,-1
    1084:	8ef1                	and	a3,a3,a2
C:\Users\windows\Desktop\比赛\100 成渝版 带按键\17 110 舵机横向放置 比赛版\RED_BULL\Dual-core_Communication_Demo\MASTER\obj/../Libraries/wch_libraries/Peripheral/ch32v10x_tim.c:246
    tmpcr2 |= (uint16_t)(TIM_OCInitStruct->TIM_OCIdleState << 6);
    1086:	00c5d603          	lhu	a2,12(a1)
    108a:	061a                	slli	a2,a2,0x6
    108c:	8ed1                	or	a3,a3,a2
    108e:	06c2                	slli	a3,a3,0x10
    1090:	82c1                	srli	a3,a3,0x10
C:\Users\windows\Desktop\比赛\100 成渝版 带按键\17 110 舵机横向放置 比赛版\RED_BULL\Dual-core_Communication_Demo\MASTER\obj/../Libraries/wch_libraries/Peripheral/ch32v10x_tim.c:249
  }

  TIMx->CTLR2 = tmpcr2; 
    1092:	00d51223          	sh	a3,4(a0)
C:\Users\windows\Desktop\比赛\100 成渝版 带按键\17 110 舵机横向放置 比赛版\RED_BULL\Dual-core_Communication_Demo\MASTER\obj/../Libraries/wch_libraries/Peripheral/ch32v10x_tim.c:250
  TIMx->CHCTLR2 = tmpccmrx;
    1096:	00e51e23          	sh	a4,28(a0)
C:\Users\windows\Desktop\比赛\100 成渝版 带按键\17 110 舵机横向放置 比赛版\RED_BULL\Dual-core_Communication_Demo\MASTER\obj/../Libraries/wch_libraries/Peripheral/ch32v10x_tim.c:251
  TIMx->CH4CVR = TIM_OCInitStruct->TIM_Pulse;
    109a:	0065d703          	lhu	a4,6(a1)
    109e:	04e51023          	sh	a4,64(a0)
C:\Users\windows\Desktop\比赛\100 成渝版 带按键\17 110 舵机横向放置 比赛版\RED_BULL\Dual-core_Communication_Demo\MASTER\obj/../Libraries/wch_libraries/Peripheral/ch32v10x_tim.c:252
  TIMx->CCER = tmpccer;
    10a2:	02f51023          	sh	a5,32(a0)
C:\Users\windows\Desktop\比赛\100 成渝版 带按键\17 110 舵机横向放置 比赛版\RED_BULL\Dual-core_Communication_Demo\MASTER\obj/../Libraries/wch_libraries/Peripheral/ch32v10x_tim.c:253
}
    10a6:	8082                	ret

000010a8 <TIM_TimeBaseStructInit>:
TIM_TimeBaseStructInit():
C:\Users\windows\Desktop\比赛\100 成渝版 带按键\17 110 舵机横向放置 比赛版\RED_BULL\Dual-core_Communication_Demo\MASTER\obj/../Libraries/wch_libraries/Peripheral/ch32v10x_tim.c:368
* Input          : TIM_TimeBaseInitStruct : pointer to a TIM_TimeBaseInitTypeDef structure.                 
* Return         : None
*******************************************************************************/
void TIM_TimeBaseStructInit(TIM_TimeBaseInitTypeDef* TIM_TimeBaseInitStruct)
{
  TIM_TimeBaseInitStruct->TIM_Period = 0xFFFF;
    10a8:	57fd                	li	a5,-1
    10aa:	00f51223          	sh	a5,4(a0)
C:\Users\windows\Desktop\比赛\100 成渝版 带按键\17 110 舵机横向放置 比赛版\RED_BULL\Dual-core_Communication_Demo\MASTER\obj/../Libraries/wch_libraries/Peripheral/ch32v10x_tim.c:369
  TIM_TimeBaseInitStruct->TIM_Prescaler = 0x0000;
    10ae:	00051023          	sh	zero,0(a0)
C:\Users\windows\Desktop\比赛\100 成渝版 带按键\17 110 舵机横向放置 比赛版\RED_BULL\Dual-core_Communication_Demo\MASTER\obj/../Libraries/wch_libraries/Peripheral/ch32v10x_tim.c:370
  TIM_TimeBaseInitStruct->TIM_ClockDivision = TIM_CKD_DIV1;
    10b2:	00051323          	sh	zero,6(a0)
C:\Users\windows\Desktop\比赛\100 成渝版 带按键\17 110 舵机横向放置 比赛版\RED_BULL\Dual-core_Communication_Demo\MASTER\obj/../Libraries/wch_libraries/Peripheral/ch32v10x_tim.c:371
  TIM_TimeBaseInitStruct->TIM_CounterMode = TIM_CounterMode_Up;
    10b6:	00051123          	sh	zero,2(a0)
C:\Users\windows\Desktop\比赛\100 成渝版 带按键\17 110 舵机横向放置 比赛版\RED_BULL\Dual-core_Communication_Demo\MASTER\obj/../Libraries/wch_libraries/Peripheral/ch32v10x_tim.c:372
  TIM_TimeBaseInitStruct->TIM_RepetitionCounter = 0x0000;
    10ba:	00050423          	sb	zero,8(a0)
C:\Users\windows\Desktop\比赛\100 成渝版 带按键\17 110 舵机横向放置 比赛版\RED_BULL\Dual-core_Communication_Demo\MASTER\obj/../Libraries/wch_libraries/Peripheral/ch32v10x_tim.c:373
}
    10be:	8082                	ret

000010c0 <TIM_Cmd>:
TIM_Cmd():
C:\Users\windows\Desktop\比赛\100 成渝版 带按键\17 110 舵机横向放置 比赛版\RED_BULL\Dual-core_Communication_Demo\MASTER\obj/../Libraries/wch_libraries/Peripheral/ch32v10x_tim.c:436
*******************************************************************************/
void TIM_Cmd(TIM_TypeDef* TIMx, FunctionalState NewState)
{ 
  if (NewState != DISABLE)
  {
    TIMx->CTLR1 |= TIM_CEN;
    10c0:	00055783          	lhu	a5,0(a0)
C:\Users\windows\Desktop\比赛\100 成渝版 带按键\17 110 舵机横向放置 比赛版\RED_BULL\Dual-core_Communication_Demo\MASTER\obj/../Libraries/wch_libraries/Peripheral/ch32v10x_tim.c:434
  if (NewState != DISABLE)
    10c4:	c591                	beqz	a1,10d0 <TIM_Cmd+0x10>
C:\Users\windows\Desktop\比赛\100 成渝版 带按键\17 110 舵机横向放置 比赛版\RED_BULL\Dual-core_Communication_Demo\MASTER\obj/../Libraries/wch_libraries/Peripheral/ch32v10x_tim.c:436
    TIMx->CTLR1 |= TIM_CEN;
    10c6:	0017e793          	ori	a5,a5,1
C:\Users\windows\Desktop\比赛\100 成渝版 带按键\17 110 舵机横向放置 比赛版\RED_BULL\Dual-core_Communication_Demo\MASTER\obj/../Libraries/wch_libraries/Peripheral/ch32v10x_tim.c:440
  }
  else
  {
    TIMx->CTLR1 &= (uint16_t)(~((uint16_t)TIM_CEN));
    10ca:	00f51023          	sh	a5,0(a0)
C:\Users\windows\Desktop\比赛\100 成渝版 带按键\17 110 舵机横向放置 比赛版\RED_BULL\Dual-core_Communication_Demo\MASTER\obj/../Libraries/wch_libraries/Peripheral/ch32v10x_tim.c:442
  }
}
    10ce:	8082                	ret
C:\Users\windows\Desktop\比赛\100 成渝版 带按键\17 110 舵机横向放置 比赛版\RED_BULL\Dual-core_Communication_Demo\MASTER\obj/../Libraries/wch_libraries/Peripheral/ch32v10x_tim.c:440
    TIMx->CTLR1 &= (uint16_t)(~((uint16_t)TIM_CEN));
    10d0:	07c2                	slli	a5,a5,0x10
    10d2:	83c1                	srli	a5,a5,0x10
    10d4:	9bf9                	andi	a5,a5,-2
    10d6:	07c2                	slli	a5,a5,0x10
    10d8:	83c1                	srli	a5,a5,0x10
    10da:	bfc5                	j	10ca <TIM_Cmd+0xa>

000010dc <TIM_CtrlPWMOutputs>:
TIM_CtrlPWMOutputs():
C:\Users\windows\Desktop\比赛\100 成渝版 带按键\17 110 舵机横向放置 比赛版\RED_BULL\Dual-core_Communication_Demo\MASTER\obj/../Libraries/wch_libraries/Peripheral/ch32v10x_tim.c:455
*******************************************************************************/
void TIM_CtrlPWMOutputs(TIM_TypeDef* TIMx, FunctionalState NewState)
{
  if (NewState != DISABLE)
  {
    TIMx->BDTR |= TIM_MOE;
    10dc:	04455783          	lhu	a5,68(a0)
C:\Users\windows\Desktop\比赛\100 成渝版 带按键\17 110 舵机横向放置 比赛版\RED_BULL\Dual-core_Communication_Demo\MASTER\obj/../Libraries/wch_libraries/Peripheral/ch32v10x_tim.c:453
  if (NewState != DISABLE)
    10e0:	c591                	beqz	a1,10ec <TIM_CtrlPWMOutputs+0x10>
C:\Users\windows\Desktop\比赛\100 成渝版 带按键\17 110 舵机横向放置 比赛版\RED_BULL\Dual-core_Communication_Demo\MASTER\obj/../Libraries/wch_libraries/Peripheral/ch32v10x_tim.c:455
    TIMx->BDTR |= TIM_MOE;
    10e2:	6721                	lui	a4,0x8
    10e4:	8fd9                	or	a5,a5,a4
C:\Users\windows\Desktop\比赛\100 成渝版 带按键\17 110 舵机横向放置 比赛版\RED_BULL\Dual-core_Communication_Demo\MASTER\obj/../Libraries/wch_libraries/Peripheral/ch32v10x_tim.c:459
  }
  else
  {
    TIMx->BDTR &= (uint16_t)(~((uint16_t)TIM_MOE));
    10e6:	04f51223          	sh	a5,68(a0)
C:\Users\windows\Desktop\比赛\100 成渝版 带按键\17 110 舵机横向放置 比赛版\RED_BULL\Dual-core_Communication_Demo\MASTER\obj/../Libraries/wch_libraries/Peripheral/ch32v10x_tim.c:461
  }  
}
    10ea:	8082                	ret
C:\Users\windows\Desktop\比赛\100 成渝版 带按键\17 110 舵机横向放置 比赛版\RED_BULL\Dual-core_Communication_Demo\MASTER\obj/../Libraries/wch_libraries/Peripheral/ch32v10x_tim.c:459
    TIMx->BDTR &= (uint16_t)(~((uint16_t)TIM_MOE));
    10ec:	07c6                	slli	a5,a5,0x11
    10ee:	83c5                	srli	a5,a5,0x11
    10f0:	bfdd                	j	10e6 <TIM_CtrlPWMOutputs+0xa>

000010f2 <TIM_EncoderInterfaceConfig>:
TIM_EncoderInterfaceConfig():
C:\Users\windows\Desktop\比赛\100 成渝版 带按键\17 110 舵机横向放置 比赛版\RED_BULL\Dual-core_Communication_Demo\MASTER\obj/../Libraries/wch_libraries/Peripheral/ch32v10x_tim.c:801
{
  uint16_t tmpsmcr = 0;
  uint16_t tmpccmr1 = 0;
  uint16_t tmpccer = 0;
    
  tmpsmcr = TIMx->SMCFGR;
    10f2:	00855803          	lhu	a6,8(a0)
C:\Users\windows\Desktop\比赛\100 成渝版 带按键\17 110 舵机横向放置 比赛版\RED_BULL\Dual-core_Communication_Demo\MASTER\obj/../Libraries/wch_libraries/Peripheral/ch32v10x_tim.c:802
  tmpccmr1 = TIMx->CHCTLR1;
    10f6:	01855703          	lhu	a4,24(a0)
C:\Users\windows\Desktop\比赛\100 成渝版 带按键\17 110 舵机横向放置 比赛版\RED_BULL\Dual-core_Communication_Demo\MASTER\obj/../Libraries/wch_libraries/Peripheral/ch32v10x_tim.c:803
  tmpccer = TIMx->CCER;
    10fa:	02055783          	lhu	a5,32(a0)
C:\Users\windows\Desktop\比赛\100 成渝版 带按键\17 110 舵机横向放置 比赛版\RED_BULL\Dual-core_Communication_Demo\MASTER\obj/../Libraries/wch_libraries/Peripheral/ch32v10x_tim.c:801
  tmpsmcr = TIMx->SMCFGR;
    10fe:	0842                	slli	a6,a6,0x10
    1100:	01085813          	srli	a6,a6,0x10
C:\Users\windows\Desktop\比赛\100 成渝版 带按键\17 110 舵机横向放置 比赛版\RED_BULL\Dual-core_Communication_Demo\MASTER\obj/../Libraries/wch_libraries/Peripheral/ch32v10x_tim.c:803
  tmpccer = TIMx->CCER;
    1104:	07c2                	slli	a5,a5,0x10
C:\Users\windows\Desktop\比赛\100 成渝版 带按键\17 110 舵机横向放置 比赛版\RED_BULL\Dual-core_Communication_Demo\MASTER\obj/../Libraries/wch_libraries/Peripheral/ch32v10x_tim.c:802
  tmpccmr1 = TIMx->CHCTLR1;
    1106:	0742                	slli	a4,a4,0x10
C:\Users\windows\Desktop\比赛\100 成渝版 带按键\17 110 舵机横向放置 比赛版\RED_BULL\Dual-core_Communication_Demo\MASTER\obj/../Libraries/wch_libraries/Peripheral/ch32v10x_tim.c:803
  tmpccer = TIMx->CCER;
    1108:	83c1                	srli	a5,a5,0x10
C:\Users\windows\Desktop\比赛\100 成渝版 带按键\17 110 舵机横向放置 比赛版\RED_BULL\Dual-core_Communication_Demo\MASTER\obj/../Libraries/wch_libraries/Peripheral/ch32v10x_tim.c:809
  tmpsmcr &= (uint16_t)(~((uint16_t)TIM_SMS));
  tmpsmcr |= TIM_EncoderMode;
  tmpccmr1 &= (uint16_t)(((uint16_t)~((uint16_t)TIM_CC1S)) & (uint16_t)(~((uint16_t)TIM_CC2S)));
  tmpccmr1 |= TIM_CC1S_0 | TIM_CC2S_0;
  tmpccer &= (uint16_t)(((uint16_t)~((uint16_t)TIM_CC1P)) & ((uint16_t)~((uint16_t)TIM_CC2P)));
  tmpccer |= (uint16_t)(TIM_IC1Polarity | (uint16_t)(TIM_IC2Polarity << (uint16_t)4)); 
    110a:	0692                	slli	a3,a3,0x4
C:\Users\windows\Desktop\比赛\100 成渝版 带按键\17 110 舵机横向放置 比赛版\RED_BULL\Dual-core_Communication_Demo\MASTER\obj/../Libraries/wch_libraries/Peripheral/ch32v10x_tim.c:802
  tmpccmr1 = TIMx->CHCTLR1;
    110c:	8341                	srli	a4,a4,0x10
C:\Users\windows\Desktop\比赛\100 成渝版 带按键\17 110 舵机横向放置 比赛版\RED_BULL\Dual-core_Communication_Demo\MASTER\obj/../Libraries/wch_libraries/Peripheral/ch32v10x_tim.c:804
  tmpsmcr &= (uint16_t)(~((uint16_t)TIM_SMS));
    110e:	ff887813          	andi	a6,a6,-8
C:\Users\windows\Desktop\比赛\100 成渝版 带按键\17 110 舵机横向放置 比赛版\RED_BULL\Dual-core_Communication_Demo\MASTER\obj/../Libraries/wch_libraries/Peripheral/ch32v10x_tim.c:808
  tmpccer &= (uint16_t)(((uint16_t)~((uint16_t)TIM_CC1P)) & ((uint16_t)~((uint16_t)TIM_CC2P)));
    1112:	fdd7f793          	andi	a5,a5,-35
C:\Users\windows\Desktop\比赛\100 成渝版 带按键\17 110 舵机横向放置 比赛版\RED_BULL\Dual-core_Communication_Demo\MASTER\obj/../Libraries/wch_libraries/Peripheral/ch32v10x_tim.c:809
  tmpccer |= (uint16_t)(TIM_IC1Polarity | (uint16_t)(TIM_IC2Polarity << (uint16_t)4)); 
    1116:	8e55                	or	a2,a2,a3
C:\Users\windows\Desktop\比赛\100 成渝版 带按键\17 110 舵机横向放置 比赛版\RED_BULL\Dual-core_Communication_Demo\MASTER\obj/../Libraries/wch_libraries/Peripheral/ch32v10x_tim.c:805
  tmpsmcr |= TIM_EncoderMode;
    1118:	00b865b3          	or	a1,a6,a1
C:\Users\windows\Desktop\比赛\100 成渝版 带按键\17 110 舵机横向放置 比赛版\RED_BULL\Dual-core_Communication_Demo\MASTER\obj/../Libraries/wch_libraries/Peripheral/ch32v10x_tim.c:806
  tmpccmr1 &= (uint16_t)(((uint16_t)~((uint16_t)TIM_CC1S)) & (uint16_t)(~((uint16_t)TIM_CC2S)));
    111c:	cfc77713          	andi	a4,a4,-772
C:\Users\windows\Desktop\比赛\100 成渝版 带按键\17 110 舵机横向放置 比赛版\RED_BULL\Dual-core_Communication_Demo\MASTER\obj/../Libraries/wch_libraries/Peripheral/ch32v10x_tim.c:809
  tmpccer |= (uint16_t)(TIM_IC1Polarity | (uint16_t)(TIM_IC2Polarity << (uint16_t)4)); 
    1120:	8fd1                	or	a5,a5,a2
C:\Users\windows\Desktop\比赛\100 成渝版 带按键\17 110 舵机横向放置 比赛版\RED_BULL\Dual-core_Communication_Demo\MASTER\obj/../Libraries/wch_libraries/Peripheral/ch32v10x_tim.c:810
  TIMx->SMCFGR = tmpsmcr;
    1122:	00b51423          	sh	a1,8(a0)
C:\Users\windows\Desktop\比赛\100 成渝版 带按键\17 110 舵机横向放置 比赛版\RED_BULL\Dual-core_Communication_Demo\MASTER\obj/../Libraries/wch_libraries/Peripheral/ch32v10x_tim.c:807
  tmpccmr1 |= TIM_CC1S_0 | TIM_CC2S_0;
    1126:	10176713          	ori	a4,a4,257
C:\Users\windows\Desktop\比赛\100 成渝版 带按键\17 110 舵机横向放置 比赛版\RED_BULL\Dual-core_Communication_Demo\MASTER\obj/../Libraries/wch_libraries/Peripheral/ch32v10x_tim.c:809
  tmpccer |= (uint16_t)(TIM_IC1Polarity | (uint16_t)(TIM_IC2Polarity << (uint16_t)4)); 
    112a:	07c2                	slli	a5,a5,0x10
    112c:	83c1                	srli	a5,a5,0x10
C:\Users\windows\Desktop\比赛\100 成渝版 带按键\17 110 舵机横向放置 比赛版\RED_BULL\Dual-core_Communication_Demo\MASTER\obj/../Libraries/wch_libraries/Peripheral/ch32v10x_tim.c:811
  TIMx->CHCTLR1 = tmpccmr1;
    112e:	00e51c23          	sh	a4,24(a0)
C:\Users\windows\Desktop\比赛\100 成渝版 带按键\17 110 舵机横向放置 比赛版\RED_BULL\Dual-core_Communication_Demo\MASTER\obj/../Libraries/wch_libraries/Peripheral/ch32v10x_tim.c:812
  TIMx->CCER = tmpccer;
    1132:	02f51023          	sh	a5,32(a0)
C:\Users\windows\Desktop\比赛\100 成渝版 带按键\17 110 舵机横向放置 比赛版\RED_BULL\Dual-core_Communication_Demo\MASTER\obj/../Libraries/wch_libraries/Peripheral/ch32v10x_tim.c:813
}
    1136:	8082                	ret

00001138 <TIM_OC1PreloadConfig>:
TIM_OC1PreloadConfig():
C:\Users\windows\Desktop\比赛\100 成渝版 带按键\17 110 舵机横向放置 比赛版\RED_BULL\Dual-core_Communication_Demo\MASTER\obj/../Libraries/wch_libraries/Peripheral/ch32v10x_tim.c:984
*******************************************************************************/
void TIM_OC1PreloadConfig(TIM_TypeDef* TIMx, uint16_t TIM_OCPreload)
{
  uint16_t tmpccmr1 = 0;

  tmpccmr1 = TIMx->CHCTLR1;
    1138:	01855783          	lhu	a5,24(a0)
    113c:	07c2                	slli	a5,a5,0x10
    113e:	83c1                	srli	a5,a5,0x10
C:\Users\windows\Desktop\比赛\100 成渝版 带按键\17 110 舵机横向放置 比赛版\RED_BULL\Dual-core_Communication_Demo\MASTER\obj/../Libraries/wch_libraries/Peripheral/ch32v10x_tim.c:985
  tmpccmr1 &= (uint16_t)~((uint16_t)TIM_OC1PE);
    1140:	9bdd                	andi	a5,a5,-9
C:\Users\windows\Desktop\比赛\100 成渝版 带按键\17 110 舵机横向放置 比赛版\RED_BULL\Dual-core_Communication_Demo\MASTER\obj/../Libraries/wch_libraries/Peripheral/ch32v10x_tim.c:986
  tmpccmr1 |= TIM_OCPreload;
    1142:	8ddd                	or	a1,a1,a5
C:\Users\windows\Desktop\比赛\100 成渝版 带按键\17 110 舵机横向放置 比赛版\RED_BULL\Dual-core_Communication_Demo\MASTER\obj/../Libraries/wch_libraries/Peripheral/ch32v10x_tim.c:987
  TIMx->CHCTLR1 = tmpccmr1;
    1144:	00b51c23          	sh	a1,24(a0)
C:\Users\windows\Desktop\比赛\100 成渝版 带按键\17 110 舵机横向放置 比赛版\RED_BULL\Dual-core_Communication_Demo\MASTER\obj/../Libraries/wch_libraries/Peripheral/ch32v10x_tim.c:988
}
    1148:	8082                	ret

0000114a <TIM_OC2PreloadConfig>:
TIM_OC2PreloadConfig():
C:\Users\windows\Desktop\比赛\100 成渝版 带按键\17 110 舵机横向放置 比赛版\RED_BULL\Dual-core_Communication_Demo\MASTER\obj/../Libraries/wch_libraries/Peripheral/ch32v10x_tim.c:1003
*******************************************************************************/
void TIM_OC2PreloadConfig(TIM_TypeDef* TIMx, uint16_t TIM_OCPreload)
{
  uint16_t tmpccmr1 = 0;

  tmpccmr1 = TIMx->CHCTLR1;
    114a:	01855703          	lhu	a4,24(a0)
C:\Users\windows\Desktop\比赛\100 成渝版 带按键\17 110 舵机横向放置 比赛版\RED_BULL\Dual-core_Communication_Demo\MASTER\obj/../Libraries/wch_libraries/Peripheral/ch32v10x_tim.c:1004
  tmpccmr1 &= (uint16_t)~((uint16_t)TIM_OC2PE);
    114e:	77fd                	lui	a5,0xfffff
    1150:	7ff78793          	addi	a5,a5,2047 # fffff7ff <_eusrstack+0xdfffa7ff>
    1154:	8ff9                	and	a5,a5,a4
C:\Users\windows\Desktop\比赛\100 成渝版 带按键\17 110 舵机横向放置 比赛版\RED_BULL\Dual-core_Communication_Demo\MASTER\obj/../Libraries/wch_libraries/Peripheral/ch32v10x_tim.c:1005
  tmpccmr1 |= (uint16_t)(TIM_OCPreload << 8);	
    1156:	05a2                	slli	a1,a1,0x8
    1158:	8fcd                	or	a5,a5,a1
    115a:	07c2                	slli	a5,a5,0x10
    115c:	83c1                	srli	a5,a5,0x10
C:\Users\windows\Desktop\比赛\100 成渝版 带按键\17 110 舵机横向放置 比赛版\RED_BULL\Dual-core_Communication_Demo\MASTER\obj/../Libraries/wch_libraries/Peripheral/ch32v10x_tim.c:1006
  TIMx->CHCTLR1 = tmpccmr1;
    115e:	00f51c23          	sh	a5,24(a0)
C:\Users\windows\Desktop\比赛\100 成渝版 带按键\17 110 舵机横向放置 比赛版\RED_BULL\Dual-core_Communication_Demo\MASTER\obj/../Libraries/wch_libraries/Peripheral/ch32v10x_tim.c:1007
}
    1162:	8082                	ret

00001164 <TIM_OC3PreloadConfig>:
TIM_OC3PreloadConfig():
C:\Users\windows\Desktop\比赛\100 成渝版 带按键\17 110 舵机横向放置 比赛版\RED_BULL\Dual-core_Communication_Demo\MASTER\obj/../Libraries/wch_libraries/Peripheral/ch32v10x_tim.c:1022
*******************************************************************************/
void TIM_OC3PreloadConfig(TIM_TypeDef* TIMx, uint16_t TIM_OCPreload)
{
  uint16_t tmpccmr2 = 0;

  tmpccmr2 = TIMx->CHCTLR2;
    1164:	01c55783          	lhu	a5,28(a0)
    1168:	07c2                	slli	a5,a5,0x10
    116a:	83c1                	srli	a5,a5,0x10
C:\Users\windows\Desktop\比赛\100 成渝版 带按键\17 110 舵机横向放置 比赛版\RED_BULL\Dual-core_Communication_Demo\MASTER\obj/../Libraries/wch_libraries/Peripheral/ch32v10x_tim.c:1023
  tmpccmr2 &= (uint16_t)~((uint16_t)TIM_OC3PE);
    116c:	9bdd                	andi	a5,a5,-9
C:\Users\windows\Desktop\比赛\100 成渝版 带按键\17 110 舵机横向放置 比赛版\RED_BULL\Dual-core_Communication_Demo\MASTER\obj/../Libraries/wch_libraries/Peripheral/ch32v10x_tim.c:1024
  tmpccmr2 |= TIM_OCPreload;
    116e:	8ddd                	or	a1,a1,a5
C:\Users\windows\Desktop\比赛\100 成渝版 带按键\17 110 舵机横向放置 比赛版\RED_BULL\Dual-core_Communication_Demo\MASTER\obj/../Libraries/wch_libraries/Peripheral/ch32v10x_tim.c:1025
  TIMx->CHCTLR2 = tmpccmr2;
    1170:	00b51e23          	sh	a1,28(a0)
C:\Users\windows\Desktop\比赛\100 成渝版 带按键\17 110 舵机横向放置 比赛版\RED_BULL\Dual-core_Communication_Demo\MASTER\obj/../Libraries/wch_libraries/Peripheral/ch32v10x_tim.c:1026
}
    1174:	8082                	ret

00001176 <TIM_OC4PreloadConfig>:
TIM_OC4PreloadConfig():
C:\Users\windows\Desktop\比赛\100 成渝版 带按键\17 110 舵机横向放置 比赛版\RED_BULL\Dual-core_Communication_Demo\MASTER\obj/../Libraries/wch_libraries/Peripheral/ch32v10x_tim.c:1041
*******************************************************************************/
void TIM_OC4PreloadConfig(TIM_TypeDef* TIMx, uint16_t TIM_OCPreload)
{
  uint16_t tmpccmr2 = 0;

  tmpccmr2 = TIMx->CHCTLR2;
    1176:	01c55703          	lhu	a4,28(a0)
C:\Users\windows\Desktop\比赛\100 成渝版 带按键\17 110 舵机横向放置 比赛版\RED_BULL\Dual-core_Communication_Demo\MASTER\obj/../Libraries/wch_libraries/Peripheral/ch32v10x_tim.c:1042
  tmpccmr2 &= (uint16_t)~((uint16_t)TIM_OC4PE);
    117a:	77fd                	lui	a5,0xfffff
    117c:	7ff78793          	addi	a5,a5,2047 # fffff7ff <_eusrstack+0xdfffa7ff>
    1180:	8ff9                	and	a5,a5,a4
C:\Users\windows\Desktop\比赛\100 成渝版 带按键\17 110 舵机横向放置 比赛版\RED_BULL\Dual-core_Communication_Demo\MASTER\obj/../Libraries/wch_libraries/Peripheral/ch32v10x_tim.c:1043
  tmpccmr2 |= (uint16_t)(TIM_OCPreload << 8);
    1182:	05a2                	slli	a1,a1,0x8
    1184:	8fcd                	or	a5,a5,a1
    1186:	07c2                	slli	a5,a5,0x10
    1188:	83c1                	srli	a5,a5,0x10
C:\Users\windows\Desktop\比赛\100 成渝版 带按键\17 110 舵机横向放置 比赛版\RED_BULL\Dual-core_Communication_Demo\MASTER\obj/../Libraries/wch_libraries/Peripheral/ch32v10x_tim.c:1044
  TIMx->CHCTLR2 = tmpccmr2;
    118a:	00f51e23          	sh	a5,28(a0)
C:\Users\windows\Desktop\比赛\100 成渝版 带按键\17 110 舵机横向放置 比赛版\RED_BULL\Dual-core_Communication_Demo\MASTER\obj/../Libraries/wch_libraries/Peripheral/ch32v10x_tim.c:1045
}
    118e:	8082                	ret

00001190 <TIM_OC1FastConfig>:
TIM_OC1FastConfig():
C:\Users\windows\Desktop\比赛\100 成渝版 带按键\17 110 舵机横向放置 比赛版\RED_BULL\Dual-core_Communication_Demo\MASTER\obj/../Libraries/wch_libraries/Peripheral/ch32v10x_tim.c:1060
*******************************************************************************/
void TIM_OC1FastConfig(TIM_TypeDef* TIMx, uint16_t TIM_OCFast)
{
  uint16_t tmpccmr1 = 0;

  tmpccmr1 = TIMx->CHCTLR1;
    1190:	01855783          	lhu	a5,24(a0)
    1194:	07c2                	slli	a5,a5,0x10
    1196:	83c1                	srli	a5,a5,0x10
C:\Users\windows\Desktop\比赛\100 成渝版 带按键\17 110 舵机横向放置 比赛版\RED_BULL\Dual-core_Communication_Demo\MASTER\obj/../Libraries/wch_libraries/Peripheral/ch32v10x_tim.c:1061
  tmpccmr1 &= (uint16_t)~((uint16_t)TIM_OC1FE);
    1198:	9bed                	andi	a5,a5,-5
C:\Users\windows\Desktop\比赛\100 成渝版 带按键\17 110 舵机横向放置 比赛版\RED_BULL\Dual-core_Communication_Demo\MASTER\obj/../Libraries/wch_libraries/Peripheral/ch32v10x_tim.c:1062
  tmpccmr1 |= TIM_OCFast;
    119a:	8ddd                	or	a1,a1,a5
C:\Users\windows\Desktop\比赛\100 成渝版 带按键\17 110 舵机横向放置 比赛版\RED_BULL\Dual-core_Communication_Demo\MASTER\obj/../Libraries/wch_libraries/Peripheral/ch32v10x_tim.c:1063
  TIMx->CHCTLR1 = tmpccmr1;
    119c:	00b51c23          	sh	a1,24(a0)
C:\Users\windows\Desktop\比赛\100 成渝版 带按键\17 110 舵机横向放置 比赛版\RED_BULL\Dual-core_Communication_Demo\MASTER\obj/../Libraries/wch_libraries/Peripheral/ch32v10x_tim.c:1064
}
    11a0:	8082                	ret

000011a2 <TIM_OC2FastConfig>:
TIM_OC2FastConfig():
C:\Users\windows\Desktop\比赛\100 成渝版 带按键\17 110 舵机横向放置 比赛版\RED_BULL\Dual-core_Communication_Demo\MASTER\obj/../Libraries/wch_libraries/Peripheral/ch32v10x_tim.c:1079
*******************************************************************************/
void TIM_OC2FastConfig(TIM_TypeDef* TIMx, uint16_t TIM_OCFast)
{
  uint16_t tmpccmr1 = 0;

  tmpccmr1 = TIMx->CHCTLR1;
    11a2:	01855783          	lhu	a5,24(a0)
C:\Users\windows\Desktop\比赛\100 成渝版 带按键\17 110 舵机横向放置 比赛版\RED_BULL\Dual-core_Communication_Demo\MASTER\obj/../Libraries/wch_libraries/Peripheral/ch32v10x_tim.c:1081
  tmpccmr1 &= (uint16_t)~((uint16_t)TIM_OC2FE);
  tmpccmr1 |= (uint16_t)(TIM_OCFast << 8);
    11a6:	05a2                	slli	a1,a1,0x8
C:\Users\windows\Desktop\比赛\100 成渝版 带按键\17 110 舵机横向放置 比赛版\RED_BULL\Dual-core_Communication_Demo\MASTER\obj/../Libraries/wch_libraries/Peripheral/ch32v10x_tim.c:1079
  tmpccmr1 = TIMx->CHCTLR1;
    11a8:	07c2                	slli	a5,a5,0x10
    11aa:	83c1                	srli	a5,a5,0x10
C:\Users\windows\Desktop\比赛\100 成渝版 带按键\17 110 舵机横向放置 比赛版\RED_BULL\Dual-core_Communication_Demo\MASTER\obj/../Libraries/wch_libraries/Peripheral/ch32v10x_tim.c:1080
  tmpccmr1 &= (uint16_t)~((uint16_t)TIM_OC2FE);
    11ac:	bff7f793          	andi	a5,a5,-1025
C:\Users\windows\Desktop\比赛\100 成渝版 带按键\17 110 舵机横向放置 比赛版\RED_BULL\Dual-core_Communication_Demo\MASTER\obj/../Libraries/wch_libraries/Peripheral/ch32v10x_tim.c:1081
  tmpccmr1 |= (uint16_t)(TIM_OCFast << 8);
    11b0:	8fcd                	or	a5,a5,a1
    11b2:	07c2                	slli	a5,a5,0x10
    11b4:	83c1                	srli	a5,a5,0x10
C:\Users\windows\Desktop\比赛\100 成渝版 带按键\17 110 舵机横向放置 比赛版\RED_BULL\Dual-core_Communication_Demo\MASTER\obj/../Libraries/wch_libraries/Peripheral/ch32v10x_tim.c:1082
  TIMx->CHCTLR1 = tmpccmr1;
    11b6:	00f51c23          	sh	a5,24(a0)
C:\Users\windows\Desktop\比赛\100 成渝版 带按键\17 110 舵机横向放置 比赛版\RED_BULL\Dual-core_Communication_Demo\MASTER\obj/../Libraries/wch_libraries/Peripheral/ch32v10x_tim.c:1083
}
    11ba:	8082                	ret

000011bc <TIM_OC3FastConfig>:
TIM_OC3FastConfig():
C:\Users\windows\Desktop\比赛\100 成渝版 带按键\17 110 舵机横向放置 比赛版\RED_BULL\Dual-core_Communication_Demo\MASTER\obj/../Libraries/wch_libraries/Peripheral/ch32v10x_tim.c:1098
*******************************************************************************/
void TIM_OC3FastConfig(TIM_TypeDef* TIMx, uint16_t TIM_OCFast)
{
  uint16_t tmpccmr2 = 0;

  tmpccmr2 = TIMx->CHCTLR2;
    11bc:	01c55783          	lhu	a5,28(a0)
    11c0:	07c2                	slli	a5,a5,0x10
    11c2:	83c1                	srli	a5,a5,0x10
C:\Users\windows\Desktop\比赛\100 成渝版 带按键\17 110 舵机横向放置 比赛版\RED_BULL\Dual-core_Communication_Demo\MASTER\obj/../Libraries/wch_libraries/Peripheral/ch32v10x_tim.c:1099
  tmpccmr2 &= (uint16_t)~((uint16_t)TIM_OC3FE);
    11c4:	9bed                	andi	a5,a5,-5
C:\Users\windows\Desktop\比赛\100 成渝版 带按键\17 110 舵机横向放置 比赛版\RED_BULL\Dual-core_Communication_Demo\MASTER\obj/../Libraries/wch_libraries/Peripheral/ch32v10x_tim.c:1100
  tmpccmr2 |= TIM_OCFast;	
    11c6:	8ddd                	or	a1,a1,a5
C:\Users\windows\Desktop\比赛\100 成渝版 带按键\17 110 舵机横向放置 比赛版\RED_BULL\Dual-core_Communication_Demo\MASTER\obj/../Libraries/wch_libraries/Peripheral/ch32v10x_tim.c:1101
  TIMx->CHCTLR2 = tmpccmr2;
    11c8:	00b51e23          	sh	a1,28(a0)
C:\Users\windows\Desktop\比赛\100 成渝版 带按键\17 110 舵机横向放置 比赛版\RED_BULL\Dual-core_Communication_Demo\MASTER\obj/../Libraries/wch_libraries/Peripheral/ch32v10x_tim.c:1102
}
    11cc:	8082                	ret

000011ce <TIM_OC4FastConfig>:
TIM_OC4FastConfig():
C:\Users\windows\Desktop\比赛\100 成渝版 带按键\17 110 舵机横向放置 比赛版\RED_BULL\Dual-core_Communication_Demo\MASTER\obj/../Libraries/wch_libraries/Peripheral/ch32v10x_tim.c:1117
*******************************************************************************/
void TIM_OC4FastConfig(TIM_TypeDef* TIMx, uint16_t TIM_OCFast)
{
  uint16_t tmpccmr2 = 0;

  tmpccmr2 = TIMx->CHCTLR2;
    11ce:	01c55783          	lhu	a5,28(a0)
C:\Users\windows\Desktop\比赛\100 成渝版 带按键\17 110 舵机横向放置 比赛版\RED_BULL\Dual-core_Communication_Demo\MASTER\obj/../Libraries/wch_libraries/Peripheral/ch32v10x_tim.c:1119
  tmpccmr2 &= (uint16_t)~((uint16_t)TIM_OC4FE);
  tmpccmr2 |= (uint16_t)(TIM_OCFast << 8);
    11d2:	05a2                	slli	a1,a1,0x8
C:\Users\windows\Desktop\比赛\100 成渝版 带按键\17 110 舵机横向放置 比赛版\RED_BULL\Dual-core_Communication_Demo\MASTER\obj/../Libraries/wch_libraries/Peripheral/ch32v10x_tim.c:1117
  tmpccmr2 = TIMx->CHCTLR2;
    11d4:	07c2                	slli	a5,a5,0x10
    11d6:	83c1                	srli	a5,a5,0x10
C:\Users\windows\Desktop\比赛\100 成渝版 带按键\17 110 舵机横向放置 比赛版\RED_BULL\Dual-core_Communication_Demo\MASTER\obj/../Libraries/wch_libraries/Peripheral/ch32v10x_tim.c:1118
  tmpccmr2 &= (uint16_t)~((uint16_t)TIM_OC4FE);
    11d8:	bff7f793          	andi	a5,a5,-1025
C:\Users\windows\Desktop\比赛\100 成渝版 带按键\17 110 舵机横向放置 比赛版\RED_BULL\Dual-core_Communication_Demo\MASTER\obj/../Libraries/wch_libraries/Peripheral/ch32v10x_tim.c:1119
  tmpccmr2 |= (uint16_t)(TIM_OCFast << 8);
    11dc:	8fcd                	or	a5,a5,a1
    11de:	07c2                	slli	a5,a5,0x10
    11e0:	83c1                	srli	a5,a5,0x10
C:\Users\windows\Desktop\比赛\100 成渝版 带按键\17 110 舵机横向放置 比赛版\RED_BULL\Dual-core_Communication_Demo\MASTER\obj/../Libraries/wch_libraries/Peripheral/ch32v10x_tim.c:1120
  TIMx->CHCTLR2 = tmpccmr2;
    11e2:	00f51e23          	sh	a5,28(a0)
C:\Users\windows\Desktop\比赛\100 成渝版 带按键\17 110 舵机横向放置 比赛版\RED_BULL\Dual-core_Communication_Demo\MASTER\obj/../Libraries/wch_libraries/Peripheral/ch32v10x_tim.c:1121
}
    11e6:	8082                	ret

000011e8 <TIM_GetITStatus>:
TIM_GetITStatus():
C:\Users\windows\Desktop\比赛\100 成渝版 带按键\17 110 舵机横向放置 比赛版\RED_BULL\Dual-core_Communication_Demo\MASTER\obj/../Libraries/wch_libraries/Peripheral/ch32v10x_tim.c:1857
ITStatus TIM_GetITStatus(TIM_TypeDef* TIMx, uint16_t TIM_IT)
{
  ITStatus bitstatus = RESET;  
  uint16_t itstatus = 0x0, itenable = 0x0;
   
  itstatus = TIMx->INTFR & TIM_IT;
    11e8:	01055783          	lhu	a5,16(a0)
C:\Users\windows\Desktop\比赛\100 成渝版 带按键\17 110 舵机横向放置 比赛版\RED_BULL\Dual-core_Communication_Demo\MASTER\obj/../Libraries/wch_libraries/Peripheral/ch32v10x_tim.c:1859
  
  itenable = TIMx->DMAINTENR & TIM_IT;
    11ec:	00c55503          	lhu	a0,12(a0)
C:\Users\windows\Desktop\比赛\100 成渝版 带按键\17 110 舵机横向放置 比赛版\RED_BULL\Dual-core_Communication_Demo\MASTER\obj/../Libraries/wch_libraries/Peripheral/ch32v10x_tim.c:1860
  if ((itstatus != (uint16_t)RESET) && (itenable != (uint16_t)RESET))
    11f0:	8fed                	and	a5,a5,a1
C:\Users\windows\Desktop\比赛\100 成渝版 带按键\17 110 舵机横向放置 比赛版\RED_BULL\Dual-core_Communication_Demo\MASTER\obj/../Libraries/wch_libraries/Peripheral/ch32v10x_tim.c:1859
  itenable = TIMx->DMAINTENR & TIM_IT;
    11f2:	0542                	slli	a0,a0,0x10
    11f4:	8141                	srli	a0,a0,0x10
C:\Users\windows\Desktop\比赛\100 成渝版 带按键\17 110 舵机横向放置 比赛版\RED_BULL\Dual-core_Communication_Demo\MASTER\obj/../Libraries/wch_libraries/Peripheral/ch32v10x_tim.c:1860
  if ((itstatus != (uint16_t)RESET) && (itenable != (uint16_t)RESET))
    11f6:	c789                	beqz	a5,1200 <TIM_GetITStatus+0x18>
C:\Users\windows\Desktop\比赛\100 成渝版 带按键\17 110 舵机横向放置 比赛版\RED_BULL\Dual-core_Communication_Demo\MASTER\obj/../Libraries/wch_libraries/Peripheral/ch32v10x_tim.c:1860 (discriminator 1)
    11f8:	8d6d                	and	a0,a0,a1
    11fa:	00a03533          	snez	a0,a0
    11fe:	8082                	ret
C:\Users\windows\Desktop\比赛\100 成渝版 带按键\17 110 舵机横向放置 比赛版\RED_BULL\Dual-core_Communication_Demo\MASTER\obj/../Libraries/wch_libraries/Peripheral/ch32v10x_tim.c:1866
  {
    bitstatus = SET;
  }
  else
  {
    bitstatus = RESET;
    1200:	4501                	li	a0,0
C:\Users\windows\Desktop\比赛\100 成渝版 带按键\17 110 舵机横向放置 比赛版\RED_BULL\Dual-core_Communication_Demo\MASTER\obj/../Libraries/wch_libraries/Peripheral/ch32v10x_tim.c:1870
  }
	
  return bitstatus;
}
    1202:	8082                	ret

00001204 <TIM_ClearITPendingBit>:
TIM_ClearITPendingBit():
    1204:	fff5c593          	not	a1,a1
    1208:	05c2                	slli	a1,a1,0x10
    120a:	81c1                	srli	a1,a1,0x10
    120c:	00b51823          	sh	a1,16(a0)
    1210:	8082                	ret

00001212 <USART_Init>:
USART_Init():
C:\Users\windows\Desktop\比赛\100 成渝版 带按键\17 110 舵机横向放置 比赛版\RED_BULL\Dual-core_Communication_Demo\MASTER\obj/../Libraries/wch_libraries/Peripheral/ch32v10x_usart.c:117
  if (USART_InitStruct->USART_HardwareFlowControl != USART_HardwareFlowControl_None)
  {
  }

  usartxbase = (uint32_t)USARTx;
  tmpreg = USARTx->CTLR2;
    1212:	01055683          	lhu	a3,16(a0)
    1216:	77f5                	lui	a5,0xffffd
    1218:	17fd                	addi	a5,a5,-1
    121a:	8ff5                	and	a5,a5,a3
    121c:	0065d683          	lhu	a3,6(a1)
C:\Users\windows\Desktop\比赛\100 成渝版 带按键\17 110 舵机横向放置 比赛版\RED_BULL\Dual-core_Communication_Demo\MASTER\obj/../Libraries/wch_libraries/Peripheral/ch32v10x_usart.c:105
{
    1220:	7139                	addi	sp,sp,-64
    1222:	dc22                	sw	s0,56(sp)
    1224:	de06                	sw	ra,60(sp)
    1226:	8fd5                	or	a5,a5,a3
C:\Users\windows\Desktop\比赛\100 成渝版 带按键\17 110 舵机横向放置 比赛版\RED_BULL\Dual-core_Communication_Demo\MASTER\obj/../Libraries/wch_libraries/Peripheral/ch32v10x_usart.c:112
  if (USART_InitStruct->USART_HardwareFlowControl != USART_HardwareFlowControl_None)
    1228:	00c5d703          	lhu	a4,12(a1)
C:\Users\windows\Desktop\比赛\100 成渝版 带按键\17 110 舵机横向放置 比赛版\RED_BULL\Dual-core_Communication_Demo\MASTER\obj/../Libraries/wch_libraries/Peripheral/ch32v10x_usart.c:121
  tmpreg &= CTLR2_STOP_CLEAR_Mask;
  tmpreg |= (uint32_t)USART_InitStruct->USART_StopBits;  
	
  USARTx->CTLR2 = (uint16_t)tmpreg;
    122c:	00f51823          	sh	a5,16(a0)
C:\Users\windows\Desktop\比赛\100 成渝版 带按键\17 110 舵机横向放置 比赛版\RED_BULL\Dual-core_Communication_Demo\MASTER\obj/../Libraries/wch_libraries/Peripheral/ch32v10x_usart.c:122
  tmpreg = USARTx->CTLR1;
    1230:	00c55683          	lhu	a3,12(a0)
C:\Users\windows\Desktop\比赛\100 成渝版 带按键\17 110 舵机横向放置 比赛版\RED_BULL\Dual-core_Communication_Demo\MASTER\obj/../Libraries/wch_libraries/Peripheral/ch32v10x_usart.c:124
  tmpreg &= CTLR1_CLEAR_Mask;
  tmpreg |= (uint32_t)USART_InitStruct->USART_WordLength | USART_InitStruct->USART_Parity |
    1234:	77fd                	lui	a5,0xfffff
    1236:	9f378793          	addi	a5,a5,-1549 # ffffe9f3 <_eusrstack+0xdfff99f3>
    123a:	8ff5                	and	a5,a5,a3
    123c:	0045d683          	lhu	a3,4(a1)
C:\Users\windows\Desktop\比赛\100 成渝版 带按键\17 110 舵机横向放置 比赛版\RED_BULL\Dual-core_Communication_Demo\MASTER\obj/../Libraries/wch_libraries/Peripheral/ch32v10x_usart.c:105
{
    1240:	842a                	mv	s0,a0
    1242:	c62e                	sw	a1,12(sp)
    1244:	8fd5                	or	a5,a5,a3
    1246:	0085d683          	lhu	a3,8(a1)
    124a:	8fd5                	or	a5,a5,a3
    124c:	00a5d683          	lhu	a3,10(a1)
    1250:	8fd5                	or	a5,a5,a3
C:\Users\windows\Desktop\比赛\100 成渝版 带按键\17 110 舵机横向放置 比赛版\RED_BULL\Dual-core_Communication_Demo\MASTER\obj/../Libraries/wch_libraries/Peripheral/ch32v10x_usart.c:126
            USART_InitStruct->USART_Mode;
  USARTx->CTLR1 = (uint16_t)tmpreg;
    1252:	00f51623          	sh	a5,12(a0)
C:\Users\windows\Desktop\比赛\100 成渝版 带按键\17 110 舵机横向放置 比赛版\RED_BULL\Dual-core_Communication_Demo\MASTER\obj/../Libraries/wch_libraries/Peripheral/ch32v10x_usart.c:128
 
  tmpreg = USARTx->CTLR3;
    1256:	01455783          	lhu	a5,20(a0)
    125a:	07c2                	slli	a5,a5,0x10
    125c:	83c1                	srli	a5,a5,0x10
C:\Users\windows\Desktop\比赛\100 成渝版 带按键\17 110 舵机横向放置 比赛版\RED_BULL\Dual-core_Communication_Demo\MASTER\obj/../Libraries/wch_libraries/Peripheral/ch32v10x_usart.c:130
  tmpreg &= CTLR3_CLEAR_Mask;
  tmpreg |= USART_InitStruct->USART_HardwareFlowControl;
    125e:	cff7f793          	andi	a5,a5,-769
    1262:	8fd9                	or	a5,a5,a4
C:\Users\windows\Desktop\比赛\100 成渝版 带按键\17 110 舵机横向放置 比赛版\RED_BULL\Dual-core_Communication_Demo\MASTER\obj/../Libraries/wch_libraries/Peripheral/ch32v10x_usart.c:131
  USARTx->CTLR3 = (uint16_t)tmpreg;
    1264:	00f51a23          	sh	a5,20(a0)
C:\Users\windows\Desktop\比赛\100 成渝版 带按键\17 110 舵机横向放置 比赛版\RED_BULL\Dual-core_Communication_Demo\MASTER\obj/../Libraries/wch_libraries/Peripheral/ch32v10x_usart.c:133

  RCC_GetClocksFreq(&RCC_ClocksStatus);
    1268:	0868                	addi	a0,sp,28
    126a:	a6bff0ef          	jal	ra,cd4 <RCC_GetClocksFreq>
C:\Users\windows\Desktop\比赛\100 成渝版 带按键\17 110 舵机横向放置 比赛版\RED_BULL\Dual-core_Communication_Demo\MASTER\obj/../Libraries/wch_libraries/Peripheral/ch32v10x_usart.c:135
	
  if (usartxbase == USART1_BASE)
    126e:	400147b7          	lui	a5,0x40014
    1272:	80078793          	addi	a5,a5,-2048 # 40013800 <_eusrstack+0x2000e800>
    1276:	45b2                	lw	a1,12(sp)
    1278:	04f41e63          	bne	s0,a5,12d4 <USART_Init+0xc2>
C:\Users\windows\Desktop\比赛\100 成渝版 带按键\17 110 舵机横向放置 比赛版\RED_BULL\Dual-core_Communication_Demo\MASTER\obj/../Libraries/wch_libraries/Peripheral/ch32v10x_usart.c:137
  {
    apbclock = RCC_ClocksStatus.PCLK2_Frequency;
    127c:	57a2                	lw	a5,40(sp)
C:\Users\windows\Desktop\比赛\100 成渝版 带按键\17 110 舵机横向放置 比赛版\RED_BULL\Dual-core_Communication_Demo\MASTER\obj/../Libraries/wch_libraries/Peripheral/ch32v10x_usart.c:144
  else
  {
    apbclock = RCC_ClocksStatus.PCLK1_Frequency;
  }
  
  if ((USARTx->CTLR1 & CTLR1_OVER8_Set) != 0)
    127e:	00c45683          	lhu	a3,12(s0)
    1282:	4765                	li	a4,25
    1284:	02e787b3          	mul	a5,a5,a4
    1288:	06c2                	slli	a3,a3,0x10
    128a:	86c1                	srai	a3,a3,0x10
    128c:	4198                	lw	a4,0(a1)
    128e:	0406d563          	bgez	a3,12d8 <USART_Init+0xc6>
C:\Users\windows\Desktop\比赛\100 成渝版 带按键\17 110 舵机横向放置 比赛版\RED_BULL\Dual-core_Communication_Demo\MASTER\obj/../Libraries/wch_libraries/Peripheral/ch32v10x_usart.c:146
  {
    integerdivider = ((25 * apbclock) / (2 * (USART_InitStruct->USART_BaudRate)));    
    1292:	0706                	slli	a4,a4,0x1
C:\Users\windows\Desktop\比赛\100 成渝版 带按键\17 110 舵机横向放置 比赛版\RED_BULL\Dual-core_Communication_Demo\MASTER\obj/../Libraries/wch_libraries/Peripheral/ch32v10x_usart.c:156
  }
  tmpreg = (integerdivider / 100) << 4;

  fractionaldivider = integerdivider - (100 * (tmpreg >> 4));

  if ((USARTx->CTLR1 & CTLR1_OVER8_Set) != 0)
    1294:	00c45603          	lhu	a2,12(s0)
    1298:	0642                	slli	a2,a2,0x10
C:\Users\windows\Desktop\比赛\100 成渝版 带按键\17 110 舵机横向放置 比赛版\RED_BULL\Dual-core_Communication_Demo\MASTER\obj/../Libraries/wch_libraries/Peripheral/ch32v10x_usart.c:150
    integerdivider = ((25 * apbclock) / (4 * (USART_InitStruct->USART_BaudRate)));    
    129a:	02e7d7b3          	divu	a5,a5,a4
C:\Users\windows\Desktop\比赛\100 成渝版 带按键\17 110 舵机横向放置 比赛版\RED_BULL\Dual-core_Communication_Demo\MASTER\obj/../Libraries/wch_libraries/Peripheral/ch32v10x_usart.c:152
  tmpreg = (integerdivider / 100) << 4;
    129e:	06400713          	li	a4,100
C:\Users\windows\Desktop\比赛\100 成渝版 带按键\17 110 舵机横向放置 比赛版\RED_BULL\Dual-core_Communication_Demo\MASTER\obj/../Libraries/wch_libraries/Peripheral/ch32v10x_usart.c:156
  if ((USARTx->CTLR1 & CTLR1_OVER8_Set) != 0)
    12a2:	8641                	srai	a2,a2,0x10
C:\Users\windows\Desktop\比赛\100 成渝版 带按键\17 110 舵机横向放置 比赛版\RED_BULL\Dual-core_Communication_Demo\MASTER\obj/../Libraries/wch_libraries/Peripheral/ch32v10x_usart.c:152
  tmpreg = (integerdivider / 100) << 4;
    12a4:	02e7d6b3          	divu	a3,a5,a4
    12a8:	02e7f7b3          	remu	a5,a5,a4
    12ac:	0692                	slli	a3,a3,0x4
C:\Users\windows\Desktop\比赛\100 成渝版 带按键\17 110 舵机横向放置 比赛版\RED_BULL\Dual-core_Communication_Demo\MASTER\obj/../Libraries/wch_libraries/Peripheral/ch32v10x_usart.c:156
  if ((USARTx->CTLR1 & CTLR1_OVER8_Set) != 0)
    12ae:	02065763          	bgez	a2,12dc <USART_Init+0xca>
C:\Users\windows\Desktop\比赛\100 成渝版 带按键\17 110 舵机横向放置 比赛版\RED_BULL\Dual-core_Communication_Demo\MASTER\obj/../Libraries/wch_libraries/Peripheral/ch32v10x_usart.c:158
  {
    tmpreg |= ((((fractionaldivider * 8) + 50) / 100)) & ((uint8_t)0x07);
    12b2:	078e                	slli	a5,a5,0x3
    12b4:	03278793          	addi	a5,a5,50
    12b8:	02e7d7b3          	divu	a5,a5,a4
    12bc:	0077f713          	andi	a4,a5,7
    12c0:	00d767b3          	or	a5,a4,a3
C:\Users\windows\Desktop\比赛\100 成渝版 带按键\17 110 舵机横向放置 比赛版\RED_BULL\Dual-core_Communication_Demo\MASTER\obj/../Libraries/wch_libraries/Peripheral/ch32v10x_usart.c:165
  else 
  {
    tmpreg |= ((((fractionaldivider * 16) + 50) / 100)) & ((uint8_t)0x0F);
  }
  
  USARTx->BRR = (uint16_t)tmpreg;
    12c4:	07c2                	slli	a5,a5,0x10
    12c6:	83c1                	srli	a5,a5,0x10
    12c8:	00f41423          	sh	a5,8(s0)
C:\Users\windows\Desktop\比赛\100 成渝版 带按键\17 110 舵机横向放置 比赛版\RED_BULL\Dual-core_Communication_Demo\MASTER\obj/../Libraries/wch_libraries/Peripheral/ch32v10x_usart.c:166
}
    12cc:	50f2                	lw	ra,60(sp)
    12ce:	5462                	lw	s0,56(sp)
    12d0:	6121                	addi	sp,sp,64
    12d2:	8082                	ret
C:\Users\windows\Desktop\比赛\100 成渝版 带按键\17 110 舵机横向放置 比赛版\RED_BULL\Dual-core_Communication_Demo\MASTER\obj/../Libraries/wch_libraries/Peripheral/ch32v10x_usart.c:141
    apbclock = RCC_ClocksStatus.PCLK1_Frequency;
    12d4:	5792                	lw	a5,36(sp)
    12d6:	b765                	j	127e <USART_Init+0x6c>
C:\Users\windows\Desktop\比赛\100 成渝版 带按键\17 110 舵机横向放置 比赛版\RED_BULL\Dual-core_Communication_Demo\MASTER\obj/../Libraries/wch_libraries/Peripheral/ch32v10x_usart.c:150
    integerdivider = ((25 * apbclock) / (4 * (USART_InitStruct->USART_BaudRate)));    
    12d8:	070a                	slli	a4,a4,0x2
    12da:	bf6d                	j	1294 <USART_Init+0x82>
C:\Users\windows\Desktop\比赛\100 成渝版 带按键\17 110 舵机横向放置 比赛版\RED_BULL\Dual-core_Communication_Demo\MASTER\obj/../Libraries/wch_libraries/Peripheral/ch32v10x_usart.c:162
    tmpreg |= ((((fractionaldivider * 16) + 50) / 100)) & ((uint8_t)0x0F);
    12dc:	0792                	slli	a5,a5,0x4
    12de:	03278793          	addi	a5,a5,50
    12e2:	02e7d7b3          	divu	a5,a5,a4
    12e6:	8bbd                	andi	a5,a5,15
    12e8:	8fd5                	or	a5,a5,a3
    12ea:	bfe9                	j	12c4 <USART_Init+0xb2>

000012ec <USART_Cmd>:
USART_Cmd():
C:\Users\windows\Desktop\比赛\100 成渝版 带按键\17 110 舵机横向放置 比赛版\RED_BULL\Dual-core_Communication_Demo\MASTER\obj/../Libraries/wch_libraries/Peripheral/ch32v10x_usart.c:230
*                  NewState: ENABLE or DISABLE.
* Return         : None
*******************************************************************************/
void USART_Cmd(USART_TypeDef* USARTx, FunctionalState NewState)
{
  if (NewState != DISABLE)
    12ec:	c981                	beqz	a1,12fc <USART_Cmd+0x10>
C:\Users\windows\Desktop\比赛\100 成渝版 带按键\17 110 舵机横向放置 比赛版\RED_BULL\Dual-core_Communication_Demo\MASTER\obj/../Libraries/wch_libraries/Peripheral/ch32v10x_usart.c:232
  {
    USARTx->CTLR1 |= CTLR1_UE_Set;
    12ee:	00c55783          	lhu	a5,12(a0)
    12f2:	6709                	lui	a4,0x2
    12f4:	8fd9                	or	a5,a5,a4
C:\Users\windows\Desktop\比赛\100 成渝版 带按键\17 110 舵机横向放置 比赛版\RED_BULL\Dual-core_Communication_Demo\MASTER\obj/../Libraries/wch_libraries/Peripheral/ch32v10x_usart.c:236
  }
  else
  {
    USARTx->CTLR1 &= CTLR1_UE_Reset;
    12f6:	00f51623          	sh	a5,12(a0)
C:\Users\windows\Desktop\比赛\100 成渝版 带按键\17 110 舵机横向放置 比赛版\RED_BULL\Dual-core_Communication_Demo\MASTER\obj/../Libraries/wch_libraries/Peripheral/ch32v10x_usart.c:238
  }
}
    12fa:	8082                	ret
C:\Users\windows\Desktop\比赛\100 成渝版 带按键\17 110 舵机横向放置 比赛版\RED_BULL\Dual-core_Communication_Demo\MASTER\obj/../Libraries/wch_libraries/Peripheral/ch32v10x_usart.c:236
    USARTx->CTLR1 &= CTLR1_UE_Reset;
    12fc:	00c55703          	lhu	a4,12(a0)
    1300:	77f9                	lui	a5,0xffffe
    1302:	17fd                	addi	a5,a5,-1
    1304:	8ff9                	and	a5,a5,a4
    1306:	bfc5                	j	12f6 <USART_Cmd+0xa>

00001308 <USART_ITConfig>:
USART_ITConfig():
C:\Users\windows\Desktop\比赛\100 成渝版 带按键\17 110 舵机横向放置 比赛版\RED_BULL\Dual-core_Communication_Demo\MASTER\obj/../Libraries/wch_libraries/Peripheral/ch32v10x_usart.c:266
  if (USART_IT == USART_IT_CTS)
  {
  }   
  
  usartxbase = (uint32_t)USARTx;
  usartreg = (((uint8_t)USART_IT) >> 0x05);
    1308:	0ff5f713          	andi	a4,a1,255
C:\Users\windows\Desktop\比赛\100 成渝版 带按键\17 110 舵机横向放置 比赛版\RED_BULL\Dual-core_Communication_Demo\MASTER\obj/../Libraries/wch_libraries/Peripheral/ch32v10x_usart.c:268
  itpos = USART_IT & IT_Mask;
  itmask = (((uint32_t)0x01) << itpos);
    130c:	4785                	li	a5,1
C:\Users\windows\Desktop\比赛\100 成渝版 带按键\17 110 舵机横向放置 比赛版\RED_BULL\Dual-core_Communication_Demo\MASTER\obj/../Libraries/wch_libraries/Peripheral/ch32v10x_usart.c:266
  usartreg = (((uint8_t)USART_IT) >> 0x05);
    130e:	8315                	srli	a4,a4,0x5
C:\Users\windows\Desktop\比赛\100 成渝版 带按键\17 110 舵机横向放置 比赛版\RED_BULL\Dual-core_Communication_Demo\MASTER\obj/../Libraries/wch_libraries/Peripheral/ch32v10x_usart.c:268
  itmask = (((uint32_t)0x01) << itpos);
    1310:	00b795b3          	sll	a1,a5,a1
C:\Users\windows\Desktop\比赛\100 成渝版 带按键\17 110 舵机横向放置 比赛版\RED_BULL\Dual-core_Communication_Demo\MASTER\obj/../Libraries/wch_libraries/Peripheral/ch32v10x_usart.c:270
    
  if (usartreg == 0x01) 
    1314:	00f71963          	bne	a4,a5,1326 <USART_ITConfig+0x1e>
C:\Users\windows\Desktop\比赛\100 成渝版 带按键\17 110 舵机横向放置 比赛版\RED_BULL\Dual-core_Communication_Demo\MASTER\obj/../Libraries/wch_libraries/Peripheral/ch32v10x_usart.c:272
  {
    usartxbase += 0x0C;
    1318:	00c50793          	addi	a5,a0,12
C:\Users\windows\Desktop\比赛\100 成渝版 带按键\17 110 舵机横向放置 比赛版\RED_BULL\Dual-core_Communication_Demo\MASTER\obj/../Libraries/wch_libraries/Peripheral/ch32v10x_usart.c:285
    usartxbase += 0x14; 
  }
	
  if (NewState != DISABLE)
  {
    *(__IO uint32_t*)usartxbase  |= itmask;
    131c:	4398                	lw	a4,0(a5)
C:\Users\windows\Desktop\比赛\100 成渝版 带按键\17 110 舵机横向放置 比赛版\RED_BULL\Dual-core_Communication_Demo\MASTER\obj/../Libraries/wch_libraries/Peripheral/ch32v10x_usart.c:283
  if (NewState != DISABLE)
    131e:	ce01                	beqz	a2,1336 <USART_ITConfig+0x2e>
C:\Users\windows\Desktop\比赛\100 成渝版 带按键\17 110 舵机横向放置 比赛版\RED_BULL\Dual-core_Communication_Demo\MASTER\obj/../Libraries/wch_libraries/Peripheral/ch32v10x_usart.c:285
    *(__IO uint32_t*)usartxbase  |= itmask;
    1320:	8dd9                	or	a1,a1,a4
C:\Users\windows\Desktop\比赛\100 成渝版 带按键\17 110 舵机横向放置 比赛版\RED_BULL\Dual-core_Communication_Demo\MASTER\obj/../Libraries/wch_libraries/Peripheral/ch32v10x_usart.c:289
  }
  else
  {
    *(__IO uint32_t*)usartxbase &= ~itmask;
    1322:	c38c                	sw	a1,0(a5)
C:\Users\windows\Desktop\比赛\100 成渝版 带按键\17 110 舵机横向放置 比赛版\RED_BULL\Dual-core_Communication_Demo\MASTER\obj/../Libraries/wch_libraries/Peripheral/ch32v10x_usart.c:291
  }
}
    1324:	8082                	ret
C:\Users\windows\Desktop\比赛\100 成渝版 带按键\17 110 舵机横向放置 比赛版\RED_BULL\Dual-core_Communication_Demo\MASTER\obj/../Libraries/wch_libraries/Peripheral/ch32v10x_usart.c:274
  else if (usartreg == 0x02) 
    1326:	4689                	li	a3,2
C:\Users\windows\Desktop\比赛\100 成渝版 带按键\17 110 舵机横向放置 比赛版\RED_BULL\Dual-core_Communication_Demo\MASTER\obj/../Libraries/wch_libraries/Peripheral/ch32v10x_usart.c:280
    usartxbase += 0x14; 
    1328:	01450793          	addi	a5,a0,20
C:\Users\windows\Desktop\比赛\100 成渝版 带按键\17 110 舵机横向放置 比赛版\RED_BULL\Dual-core_Communication_Demo\MASTER\obj/../Libraries/wch_libraries/Peripheral/ch32v10x_usart.c:274
  else if (usartreg == 0x02) 
    132c:	fed718e3          	bne	a4,a3,131c <USART_ITConfig+0x14>
C:\Users\windows\Desktop\比赛\100 成渝版 带按键\17 110 舵机横向放置 比赛版\RED_BULL\Dual-core_Communication_Demo\MASTER\obj/../Libraries/wch_libraries/Peripheral/ch32v10x_usart.c:276
    usartxbase += 0x10;
    1330:	01050793          	addi	a5,a0,16
    1334:	b7e5                	j	131c <USART_ITConfig+0x14>
C:\Users\windows\Desktop\比赛\100 成渝版 带按键\17 110 舵机横向放置 比赛版\RED_BULL\Dual-core_Communication_Demo\MASTER\obj/../Libraries/wch_libraries/Peripheral/ch32v10x_usart.c:289
    *(__IO uint32_t*)usartxbase &= ~itmask;
    1336:	fff5c593          	not	a1,a1
    133a:	8df9                	and	a1,a1,a4
    133c:	b7dd                	j	1322 <USART_ITConfig+0x1a>

0000133e <USART_ReceiveData>:
USART_ReceiveData():
C:\Users\windows\Desktop\比赛\100 成渝版 带按键\17 110 舵机横向放置 比赛版\RED_BULL\Dual-core_Communication_Demo\MASTER\obj/../Libraries/wch_libraries/Peripheral/ch32v10x_usart.c:416
* Input          : USARTx: where x can be 1, 2, 3 to select the USART peripheral.
* Return         : The received data.
*******************************************************************************/
uint16_t USART_ReceiveData(USART_TypeDef* USARTx)
{
  return (uint16_t)(USARTx->DATAR & (uint16_t)0x01FF);
    133e:	00455503          	lhu	a0,4(a0)
C:\Users\windows\Desktop\比赛\100 成渝版 带按键\17 110 舵机横向放置 比赛版\RED_BULL\Dual-core_Communication_Demo\MASTER\obj/../Libraries/wch_libraries/Peripheral/ch32v10x_usart.c:417
}
    1342:	1ff57513          	andi	a0,a0,511
    1346:	8082                	ret

00001348 <USART_GetITStatus>:
USART_GetITStatus():
C:\Users\windows\Desktop\比赛\100 成渝版 带按键\17 110 舵机横向放置 比赛版\RED_BULL\Dual-core_Communication_Demo\MASTER\obj/../Libraries/wch_libraries/Peripheral/ch32v10x_usart.c:668

  if (USART_IT == USART_IT_CTS)
  {
  }   
  
  usartreg = (((uint8_t)USART_IT) >> 0x05);
    1348:	0ff5f713          	andi	a4,a1,255
C:\Users\windows\Desktop\比赛\100 成渝版 带按键\17 110 舵机横向放置 比赛版\RED_BULL\Dual-core_Communication_Demo\MASTER\obj/../Libraries/wch_libraries/Peripheral/ch32v10x_usart.c:670
  itmask = USART_IT & IT_Mask;
  itmask = (uint32_t)0x01 << itmask;
    134c:	4685                	li	a3,1
C:\Users\windows\Desktop\比赛\100 成渝版 带按键\17 110 舵机横向放置 比赛版\RED_BULL\Dual-core_Communication_Demo\MASTER\obj/../Libraries/wch_libraries/Peripheral/ch32v10x_usart.c:668
  usartreg = (((uint8_t)USART_IT) >> 0x05);
    134e:	8315                	srli	a4,a4,0x5
C:\Users\windows\Desktop\比赛\100 成渝版 带按键\17 110 舵机横向放置 比赛版\RED_BULL\Dual-core_Communication_Demo\MASTER\obj/../Libraries/wch_libraries/Peripheral/ch32v10x_usart.c:670
  itmask = (uint32_t)0x01 << itmask;
    1350:	00b697b3          	sll	a5,a3,a1
C:\Users\windows\Desktop\比赛\100 成渝版 带按键\17 110 舵机横向放置 比赛版\RED_BULL\Dual-core_Communication_Demo\MASTER\obj/../Libraries/wch_libraries/Peripheral/ch32v10x_usart.c:672
  
  if (usartreg == 0x01) 
    1354:	02d71363          	bne	a4,a3,137a <USART_GetITStatus+0x32>
C:\Users\windows\Desktop\比赛\100 成渝版 带按键\17 110 舵机横向放置 比赛版\RED_BULL\Dual-core_Communication_Demo\MASTER\obj/../Libraries/wch_libraries/Peripheral/ch32v10x_usart.c:674
  {
    itmask &= USARTx->CTLR1;
    1358:	00c55703          	lhu	a4,12(a0)
C:\Users\windows\Desktop\比赛\100 成渝版 带按键\17 110 舵机横向放置 比赛版\RED_BULL\Dual-core_Communication_Demo\MASTER\obj/../Libraries/wch_libraries/Peripheral/ch32v10x_usart.c:682
  {
    itmask &= USARTx->CTLR2;
  }
  else 
  {
    itmask &= USARTx->CTLR3;
    135c:	8ff9                	and	a5,a5,a4
C:\Users\windows\Desktop\比赛\100 成渝版 带按键\17 110 舵机横向放置 比赛版\RED_BULL\Dual-core_Communication_Demo\MASTER\obj/../Libraries/wch_libraries/Peripheral/ch32v10x_usart.c:687
  }
  
  bitpos = USART_IT >> 0x08;
  bitpos = (uint32_t)0x01 << bitpos;
  bitpos &= USARTx->STATR;
    135e:	00055703          	lhu	a4,0(a0)
C:\Users\windows\Desktop\比赛\100 成渝版 带按键\17 110 舵机横向放置 比赛版\RED_BULL\Dual-core_Communication_Demo\MASTER\obj/../Libraries/wch_libraries/Peripheral/ch32v10x_usart.c:695
  {
    bitstatus = SET;
  }
  else
  {
    bitstatus = RESET;
    1362:	4501                	li	a0,0
C:\Users\windows\Desktop\比赛\100 成渝版 带按键\17 110 舵机横向放置 比赛版\RED_BULL\Dual-core_Communication_Demo\MASTER\obj/../Libraries/wch_libraries/Peripheral/ch32v10x_usart.c:687
  bitpos &= USARTx->STATR;
    1364:	0742                	slli	a4,a4,0x10
    1366:	8341                	srli	a4,a4,0x10
C:\Users\windows\Desktop\比赛\100 成渝版 带按键\17 110 舵机横向放置 比赛版\RED_BULL\Dual-core_Communication_Demo\MASTER\obj/../Libraries/wch_libraries/Peripheral/ch32v10x_usart.c:689
  if ((itmask != (uint16_t)RESET)&&(bitpos != (uint16_t)RESET))
    1368:	cb81                	beqz	a5,1378 <USART_GetITStatus+0x30>
C:\Users\windows\Desktop\比赛\100 成渝版 带按键\17 110 舵机横向放置 比赛版\RED_BULL\Dual-core_Communication_Demo\MASTER\obj/../Libraries/wch_libraries/Peripheral/ch32v10x_usart.c:686 (discriminator 1)
  bitpos = (uint32_t)0x01 << bitpos;
    136a:	4505                	li	a0,1
C:\Users\windows\Desktop\比赛\100 成渝版 带按键\17 110 舵机横向放置 比赛版\RED_BULL\Dual-core_Communication_Demo\MASTER\obj/../Libraries/wch_libraries/Peripheral/ch32v10x_usart.c:685 (discriminator 1)
  bitpos = USART_IT >> 0x08;
    136c:	81a1                	srli	a1,a1,0x8
C:\Users\windows\Desktop\比赛\100 成渝版 带按键\17 110 舵机横向放置 比赛版\RED_BULL\Dual-core_Communication_Demo\MASTER\obj/../Libraries/wch_libraries/Peripheral/ch32v10x_usart.c:686 (discriminator 1)
  bitpos = (uint32_t)0x01 << bitpos;
    136e:	00b515b3          	sll	a1,a0,a1
C:\Users\windows\Desktop\比赛\100 成渝版 带按键\17 110 舵机横向放置 比赛版\RED_BULL\Dual-core_Communication_Demo\MASTER\obj/../Libraries/wch_libraries/Peripheral/ch32v10x_usart.c:687 (discriminator 1)
  bitpos &= USARTx->STATR;
    1372:	8f6d                	and	a4,a4,a1
C:\Users\windows\Desktop\比赛\100 成渝版 带按键\17 110 舵机横向放置 比赛版\RED_BULL\Dual-core_Communication_Demo\MASTER\obj/../Libraries/wch_libraries/Peripheral/ch32v10x_usart.c:689 (discriminator 1)
  if ((itmask != (uint16_t)RESET)&&(bitpos != (uint16_t)RESET))
    1374:	00e03533          	snez	a0,a4
C:\Users\windows\Desktop\比赛\100 成渝版 带按键\17 110 舵机横向放置 比赛版\RED_BULL\Dual-core_Communication_Demo\MASTER\obj/../Libraries/wch_libraries/Peripheral/ch32v10x_usart.c:699
  }
  
  return bitstatus;  
}
    1378:	8082                	ret
C:\Users\windows\Desktop\比赛\100 成渝版 带按键\17 110 舵机横向放置 比赛版\RED_BULL\Dual-core_Communication_Demo\MASTER\obj/../Libraries/wch_libraries/Peripheral/ch32v10x_usart.c:676
  else if (usartreg == 0x02) 
    137a:	4689                	li	a3,2
    137c:	00d71563          	bne	a4,a3,1386 <USART_GetITStatus+0x3e>
C:\Users\windows\Desktop\比赛\100 成渝版 带按键\17 110 舵机横向放置 比赛版\RED_BULL\Dual-core_Communication_Demo\MASTER\obj/../Libraries/wch_libraries/Peripheral/ch32v10x_usart.c:678
    itmask &= USARTx->CTLR2;
    1380:	01055703          	lhu	a4,16(a0)
    1384:	bfe1                	j	135c <USART_GetITStatus+0x14>
C:\Users\windows\Desktop\比赛\100 成渝版 带按键\17 110 舵机横向放置 比赛版\RED_BULL\Dual-core_Communication_Demo\MASTER\obj/../Libraries/wch_libraries/Peripheral/ch32v10x_usart.c:682
    itmask &= USARTx->CTLR3;
    1386:	01455703          	lhu	a4,20(a0)
    138a:	bfc9                	j	135c <USART_GetITStatus+0x14>

0000138c <USART_ClearITPendingBit>:
USART_ClearITPendingBit():
C:\Users\windows\Desktop\比赛\100 成渝版 带按键\17 110 舵机横向放置 比赛版\RED_BULL\Dual-core_Communication_Demo\MASTER\obj/../Libraries/wch_libraries/Peripheral/ch32v10x_usart.c:721
  if (USART_IT == USART_IT_CTS)
  {
  }   
  
  bitpos = USART_IT >> 0x08;
  itmask = ((uint16_t)0x01 << (uint16_t)bitpos);
    138c:	81a1                	srli	a1,a1,0x8
    138e:	4785                	li	a5,1
    1390:	00b797b3          	sll	a5,a5,a1
C:\Users\windows\Desktop\比赛\100 成渝版 带按键\17 110 舵机横向放置 比赛版\RED_BULL\Dual-core_Communication_Demo\MASTER\obj/../Libraries/wch_libraries/Peripheral/ch32v10x_usart.c:722
  USARTx->STATR = (uint16_t)~itmask;
    1394:	fff7c793          	not	a5,a5
    1398:	07c2                	slli	a5,a5,0x10
    139a:	83c1                	srli	a5,a5,0x10
    139c:	00f51023          	sh	a5,0(a0)
C:\Users\windows\Desktop\比赛\100 成渝版 带按键\17 110 舵机横向放置 比赛版\RED_BULL\Dual-core_Communication_Demo\MASTER\obj/../Libraries/wch_libraries/Peripheral/ch32v10x_usart.c:723
}
    13a0:	8082                	ret

000013a2 <mt9v03x_uart_callback>:
mt9v03x_uart_callback():
C:\Users\windows\Desktop\比赛\100 成渝版 带按键\17 110 舵机横向放置 比赛版\RED_BULL\Dual-core_Communication_Demo\MASTER\obj/../Libraries/seekfree_peripheral/SEEKFREE_MT9V03X.c:91
//  Sample usage:
//  @note       
//-------------------------------------------------------------------------------------------------------------------
void mt9v03x_uart_callback(void)
{
    receive[receive_num] = ((USART_TypeDef*)UARTN[MT9V03X_COF_UART])->DATAR & 0x01FF;;
    13a2:	6791                	lui	a5,0x4
    13a4:	cc47a783          	lw	a5,-828(a5) # 3cc4 <UARTN+0x4>
    13a8:	83b18713          	addi	a4,gp,-1989 # 2000004b <receive_num>
    13ac:	0047d583          	lhu	a1,4(a5)
    13b0:	00074783          	lbu	a5,0(a4) # 2000 <Duty_Init+0x14>
    13b4:	83818693          	addi	a3,gp,-1992 # 20000048 <receive>
    13b8:	00f68633          	add	a2,a3,a5
C:\Users\windows\Desktop\比赛\100 成渝版 带按键\17 110 舵机横向放置 比赛版\RED_BULL\Dual-core_Communication_Demo\MASTER\obj/../Libraries/seekfree_peripheral/SEEKFREE_MT9V03X.c:92
    receive_num++;
    13bc:	0785                	addi	a5,a5,1
    13be:	0ff7f793          	andi	a5,a5,255
C:\Users\windows\Desktop\比赛\100 成渝版 带按键\17 110 舵机横向放置 比赛版\RED_BULL\Dual-core_Communication_Demo\MASTER\obj/../Libraries/seekfree_peripheral/SEEKFREE_MT9V03X.c:91
    receive[receive_num] = ((USART_TypeDef*)UARTN[MT9V03X_COF_UART])->DATAR & 0x01FF;;
    13c2:	00b60023          	sb	a1,0(a2) # ffffc000 <_eusrstack+0xdfff7000>
C:\Users\windows\Desktop\比赛\100 成渝版 带按键\17 110 舵机横向放置 比赛版\RED_BULL\Dual-core_Communication_Demo\MASTER\obj/../Libraries/seekfree_peripheral/SEEKFREE_MT9V03X.c:92
    receive_num++;
    13c6:	00f70023          	sb	a5,0(a4)
C:\Users\windows\Desktop\比赛\100 成渝版 带按键\17 110 舵机横向放置 比赛版\RED_BULL\Dual-core_Communication_Demo\MASTER\obj/../Libraries/seekfree_peripheral/SEEKFREE_MT9V03X.c:94

    if(1==receive_num && 0XA5!=receive[0])  receive_num = 0;
    13ca:	4605                	li	a2,1
    13cc:	00c79b63          	bne	a5,a2,13e2 <mt9v03x_uart_callback+0x40>
C:\Users\windows\Desktop\比赛\100 成渝版 带按键\17 110 舵机横向放置 比赛版\RED_BULL\Dual-core_Communication_Demo\MASTER\obj/../Libraries/seekfree_peripheral/SEEKFREE_MT9V03X.c:94 (discriminator 1)
    13d0:	0006c683          	lbu	a3,0(a3) # ffffd000 <_eusrstack+0xdfff8000>
    13d4:	0a500793          	li	a5,165
    13d8:	00f68c63          	beq	a3,a5,13f0 <mt9v03x_uart_callback+0x4e>
C:\Users\windows\Desktop\比赛\100 成渝版 带按键\17 110 舵机横向放置 比赛版\RED_BULL\Dual-core_Communication_Demo\MASTER\obj/../Libraries/seekfree_peripheral/SEEKFREE_MT9V03X.c:94 (discriminator 2)
    13dc:	00070023          	sb	zero,0(a4)
    13e0:	8082                	ret
C:\Users\windows\Desktop\比赛\100 成渝版 带按键\17 110 舵机横向放置 比赛版\RED_BULL\Dual-core_Communication_Demo\MASTER\obj/../Libraries/seekfree_peripheral/SEEKFREE_MT9V03X.c:95
    if(3 == receive_num)
    13e2:	468d                	li	a3,3
    13e4:	00d79663          	bne	a5,a3,13f0 <mt9v03x_uart_callback+0x4e>
C:\Users\windows\Desktop\比赛\100 成渝版 带按键\17 110 舵机横向放置 比赛版\RED_BULL\Dual-core_Communication_Demo\MASTER\obj/../Libraries/seekfree_peripheral/SEEKFREE_MT9V03X.c:97
    {
        receive_num = 0;
    13e8:	00070023          	sb	zero,0(a4)
C:\Users\windows\Desktop\比赛\100 成渝版 带按键\17 110 舵机横向放置 比赛版\RED_BULL\Dual-core_Communication_Demo\MASTER\obj/../Libraries/seekfree_peripheral/SEEKFREE_MT9V03X.c:98
        uart_receive_flag = 1;
    13ec:	82c18e23          	sb	a2,-1988(gp) # 2000004c <uart_receive_flag>
C:\Users\windows\Desktop\比赛\100 成渝版 带按键\17 110 舵机横向放置 比赛版\RED_BULL\Dual-core_Communication_Demo\MASTER\obj/../Libraries/seekfree_peripheral/SEEKFREE_MT9V03X.c:101
    }
    
}
    13f0:	8082                	ret

000013f2 <mt9v03x_vsync>:
mt9v03x_vsync():
C:\Users\windows\Desktop\比赛\100 成渝版 带按键\17 110 舵机横向放置 比赛版\RED_BULL\Dual-core_Communication_Demo\MASTER\obj/../Libraries/seekfree_peripheral/SEEKFREE_MT9V03X.c:377
//  @since      v1.0
//  Sample usage:               在isr.c里面先创建对应的中断函数，然后调用该函数(之后别忘记清除中断标志位)
//-------------------------------------------------------------------------------------------------------------------
void mt9v03x_vsync(void)
{
	if(mt9v03x_finish_flag  == 0)
    13f2:	8341c783          	lbu	a5,-1996(gp) # 20000044 <mt9v03x_finish_flag>
    13f6:	0ff7f793          	andi	a5,a5,255
    13fa:	e385                	bnez	a5,141a <mt9v03x_vsync+0x28>
C:\Users\windows\Desktop\比赛\100 成渝版 带按键\17 110 舵机横向放置 比赛版\RED_BULL\Dual-core_Communication_Demo\MASTER\obj/../Libraries/seekfree_peripheral/SEEKFREE_MT9V03X.c:379
	{
	    MT9V03X_DMA_CH->CFGR &= (uint16)(~DMA_CFGR1_EN);   		//关闭DMA1
    13fc:	400207b7          	lui	a5,0x40020
    1400:	43f8                	lw	a4,68(a5)
    1402:	66c1                	lui	a3,0x10
    1404:	16f9                	addi	a3,a3,-2
    1406:	8f75                	and	a4,a4,a3
    1408:	c3f8                	sw	a4,68(a5)
C:\Users\windows\Desktop\比赛\100 成渝版 带按键\17 110 舵机横向放置 比赛版\RED_BULL\Dual-core_Communication_Demo\MASTER\obj/../Libraries/seekfree_peripheral/SEEKFREE_MT9V03X.c:380
	    MT9V03X_DMA_CH->CNTR = MT9V03X_H*MT9V03X_W;             //设置当前DMA传输的剩余数量，向下递减，该寄存器只能在DMA不工作时更改。
    140a:	6709                	lui	a4,0x2
    140c:	4b870713          	addi	a4,a4,1208 # 24b8 <__adddf3+0x16c>
    1410:	c7b8                	sw	a4,72(a5)
C:\Users\windows\Desktop\比赛\100 成渝版 带按键\17 110 舵机横向放置 比赛版\RED_BULL\Dual-core_Communication_Demo\MASTER\obj/../Libraries/seekfree_peripheral/SEEKFREE_MT9V03X.c:381
	    MT9V03X_DMA_CH->CFGR |= DMA_CFGR1_EN;					//使能DMA1，开始采集摄像头图像
    1412:	43f8                	lw	a4,68(a5)
    1414:	00176713          	ori	a4,a4,1
    1418:	c3f8                	sw	a4,68(a5)
C:\Users\windows\Desktop\比赛\100 成渝版 带按键\17 110 舵机横向放置 比赛版\RED_BULL\Dual-core_Communication_Demo\MASTER\obj/../Libraries/seekfree_peripheral/SEEKFREE_MT9V03X.c:383
	}
}
    141a:	8082                	ret

0000141c <mt9v03x_dma>:
mt9v03x_dma():
C:\Users\windows\Desktop\比赛\100 成渝版 带按键\17 110 舵机横向放置 比赛版\RED_BULL\Dual-core_Communication_Demo\MASTER\obj/../Libraries/seekfree_peripheral/SEEKFREE_MT9V03X.c:394
//  @since      v1.0
//  Sample usage:
//-------------------------------------------------------------------------------------------------------------------
void mt9v03x_dma(void)
{
    mt9v03x_finish_flag = 1;//一副图像从采集开始到采集结束耗时3.8MS左右(50FPS、188*120分辨率)
    141c:	4705                	li	a4,1
    141e:	82e18a23          	sb	a4,-1996(gp) # 20000044 <mt9v03x_finish_flag>
C:\Users\windows\Desktop\比赛\100 成渝版 带按键\17 110 舵机横向放置 比赛版\RED_BULL\Dual-core_Communication_Demo\MASTER\obj/../Libraries/seekfree_peripheral/SEEKFREE_MT9V03X.c:396
                         	//使用完摄像头数组必须将其清0，下一次才能采集摄像头数据。
}
    1422:	8082                	ret

00001424 <ov7725_cof_uart_interrupt>:
ov7725_cof_uart_interrupt():
C:\Users\windows\Desktop\比赛\100 成渝版 带按键\17 110 舵机横向放置 比赛版\RED_BULL\Dual-core_Communication_Demo\MASTER\obj/../Libraries/seekfree_peripheral/SEEKFREE_UART_7725.c:83
//-------------------------------------------------------------------------------------------------------------------

void ov7725_cof_uart_interrupt(void)
{

    ov7725_uart_receive[ov7725_uart_receive_num] = ((USART_TypeDef*)UARTN[OV7725_UART_COF_UART])->DATAR & 0x01FF;
    1424:	6791                	lui	a5,0x4
    1426:	cc47a783          	lw	a5,-828(a5) # 3cc4 <UARTN+0x4>
    142a:	84418713          	addi	a4,gp,-1980 # 20000054 <ov7725_uart_receive_num>
    142e:	0047d583          	lhu	a1,4(a5)
    1432:	00074783          	lbu	a5,0(a4)
    1436:	84018693          	addi	a3,gp,-1984 # 20000050 <ov7725_uart_receive>
    143a:	00f68633          	add	a2,a3,a5
C:\Users\windows\Desktop\比赛\100 成渝版 带按键\17 110 舵机横向放置 比赛版\RED_BULL\Dual-core_Communication_Demo\MASTER\obj/../Libraries/seekfree_peripheral/SEEKFREE_UART_7725.c:84
    ov7725_uart_receive_num++;
    143e:	0785                	addi	a5,a5,1
    1440:	0ff7f793          	andi	a5,a5,255
C:\Users\windows\Desktop\比赛\100 成渝版 带按键\17 110 舵机横向放置 比赛版\RED_BULL\Dual-core_Communication_Demo\MASTER\obj/../Libraries/seekfree_peripheral/SEEKFREE_UART_7725.c:83
    ov7725_uart_receive[ov7725_uart_receive_num] = ((USART_TypeDef*)UARTN[OV7725_UART_COF_UART])->DATAR & 0x01FF;
    1444:	00b60023          	sb	a1,0(a2)
C:\Users\windows\Desktop\比赛\100 成渝版 带按键\17 110 舵机横向放置 比赛版\RED_BULL\Dual-core_Communication_Demo\MASTER\obj/../Libraries/seekfree_peripheral/SEEKFREE_UART_7725.c:84
    ov7725_uart_receive_num++;
    1448:	00f70023          	sb	a5,0(a4)
C:\Users\windows\Desktop\比赛\100 成渝版 带按键\17 110 舵机横向放置 比赛版\RED_BULL\Dual-core_Communication_Demo\MASTER\obj/../Libraries/seekfree_peripheral/SEEKFREE_UART_7725.c:86

    if(1==ov7725_uart_receive_num && 0XA5!=ov7725_uart_receive[0])  ov7725_uart_receive_num = 0;
    144c:	4605                	li	a2,1
    144e:	00c79b63          	bne	a5,a2,1464 <ov7725_cof_uart_interrupt+0x40>
C:\Users\windows\Desktop\比赛\100 成渝版 带按键\17 110 舵机横向放置 比赛版\RED_BULL\Dual-core_Communication_Demo\MASTER\obj/../Libraries/seekfree_peripheral/SEEKFREE_UART_7725.c:86 (discriminator 1)
    1452:	0006c683          	lbu	a3,0(a3) # 10000 <_data_lma+0xc178>
    1456:	0a500793          	li	a5,165
    145a:	00f68c63          	beq	a3,a5,1472 <ov7725_cof_uart_interrupt+0x4e>
C:\Users\windows\Desktop\比赛\100 成渝版 带按键\17 110 舵机横向放置 比赛版\RED_BULL\Dual-core_Communication_Demo\MASTER\obj/../Libraries/seekfree_peripheral/SEEKFREE_UART_7725.c:86 (discriminator 2)
    145e:	00070023          	sb	zero,0(a4)
    1462:	8082                	ret
C:\Users\windows\Desktop\比赛\100 成渝版 带按键\17 110 舵机横向放置 比赛版\RED_BULL\Dual-core_Communication_Demo\MASTER\obj/../Libraries/seekfree_peripheral/SEEKFREE_UART_7725.c:87
    if(3 == ov7725_uart_receive_num)
    1464:	468d                	li	a3,3
    1466:	00d79663          	bne	a5,a3,1472 <ov7725_cof_uart_interrupt+0x4e>
C:\Users\windows\Desktop\比赛\100 成渝版 带按键\17 110 舵机横向放置 比赛版\RED_BULL\Dual-core_Communication_Demo\MASTER\obj/../Libraries/seekfree_peripheral/SEEKFREE_UART_7725.c:89
    {
        ov7725_uart_receive_num = 0;
    146a:	00070023          	sb	zero,0(a4)
C:\Users\windows\Desktop\比赛\100 成渝版 带按键\17 110 舵机横向放置 比赛版\RED_BULL\Dual-core_Communication_Demo\MASTER\obj/../Libraries/seekfree_peripheral/SEEKFREE_UART_7725.c:90
        ov7725_uart_receive_flag = 1;
    146e:	84c181a3          	sb	a2,-1981(gp) # 20000053 <ov7725_uart_receive_flag>
C:\Users\windows\Desktop\比赛\100 成渝版 带按键\17 110 舵机横向放置 比赛版\RED_BULL\Dual-core_Communication_Demo\MASTER\obj/../Libraries/seekfree_peripheral/SEEKFREE_UART_7725.c:92
    }
}
    1472:	8082                	ret

00001474 <ov7725_uart_vsync>:
ov7725_uart_vsync():
C:\Users\windows\Desktop\比赛\100 成渝版 带按键\17 110 舵机横向放置 比赛版\RED_BULL\Dual-core_Communication_Demo\MASTER\obj/../Libraries/seekfree_peripheral/SEEKFREE_UART_7725.c:104
//  Sample usage:                   在isr.c里面先创建对应的中断函数，然后调用该函数(之后别忘记清除中断标志位)
//-------------------------------------------------------------------------------------------------------------------

void ov7725_uart_vsync(void)
{
    OV7725_UART_DMA_CH->CNTR = OV7725_UART_SIZE;             //设置当前DMA传输的剩余数量，向下递减，该寄存器只能在DMA不工作时更改。
    1474:	6705                	lui	a4,0x1
    1476:	400207b7          	lui	a5,0x40020
    147a:	96070713          	addi	a4,a4,-1696 # 960 <main+0x5e>
    147e:	c7b8                	sw	a4,72(a5)
C:\Users\windows\Desktop\比赛\100 成渝版 带按键\17 110 舵机横向放置 比赛版\RED_BULL\Dual-core_Communication_Demo\MASTER\obj/../Libraries/seekfree_peripheral/SEEKFREE_UART_7725.c:105
    OV7725_UART_DMA_CH->CFGR |= DMA_CFGR1_EN;                //开启DMA1
    1480:	43f8                	lw	a4,68(a5)
    1482:	00176713          	ori	a4,a4,1
    1486:	c3f8                	sw	a4,68(a5)
C:\Users\windows\Desktop\比赛\100 成渝版 带按键\17 110 舵机横向放置 比赛版\RED_BULL\Dual-core_Communication_Demo\MASTER\obj/../Libraries/seekfree_peripheral/SEEKFREE_UART_7725.c:106
}
    1488:	8082                	ret

0000148a <ov7725_uart_dma>:
ov7725_uart_dma():
C:\Users\windows\Desktop\比赛\100 成渝版 带按键\17 110 舵机横向放置 比赛版\RED_BULL\Dual-core_Communication_Demo\MASTER\obj/../Libraries/seekfree_peripheral/SEEKFREE_UART_7725.c:118
//  @since      v1.0
//  Sample usage:                   在isr.c里面先创建对应的中断函数，然后调用该函数(之后别忘记清除中断标志位)
//-------------------------------------------------------------------------------------------------------------------
void ov7725_uart_dma(void)
{
    ov7725_uart_finish_flag = 1;                             //摄像头数据采集置1
    148a:	4705                	li	a4,1
    148c:	82e18ea3          	sb	a4,-1987(gp) # 2000004d <ov7725_uart_finish_flag>
C:\Users\windows\Desktop\比赛\100 成渝版 带按键\17 110 舵机横向放置 比赛版\RED_BULL\Dual-core_Communication_Demo\MASTER\obj/../Libraries/seekfree_peripheral/SEEKFREE_UART_7725.c:119
    OV7725_UART_DMA_CH->CFGR &= (uint16)(~DMA_CFGR1_EN);     //关闭DMA1
    1490:	400206b7          	lui	a3,0x40020
    1494:	42fc                	lw	a5,68(a3)
    1496:	6741                	lui	a4,0x10
    1498:	1779                	addi	a4,a4,-2
    149a:	8ff9                	and	a5,a5,a4
    149c:	c2fc                	sw	a5,68(a3)
C:\Users\windows\Desktop\比赛\100 成渝版 带按键\17 110 舵机横向放置 比赛版\RED_BULL\Dual-core_Communication_Demo\MASTER\obj/../Libraries/seekfree_peripheral/SEEKFREE_UART_7725.c:120
}
    149e:	8082                	ret

000014a0 <gpio_init>:
gpio_init():
C:\Users\windows\Desktop\比赛\100 成渝版 带按键\17 110 舵机横向放置 比赛版\RED_BULL\Dual-core_Communication_Demo\MASTER\obj/../Libraries/seekfree_libraries/zf_gpio.c:46
    GPIO_InitTypeDef GPIO_InitStructure;
    uint8 io_group = (pin & 0xE0) >> 5;
    uint8 io_pin = pin & 0x1F;


    if(PIN_NULL == pin) return;
    14a0:	08000713          	li	a4,128
    14a4:	0ce50c63          	beq	a0,a4,157c <gpio_init+0xdc>
C:\Users\windows\Desktop\比赛\100 成渝版 带按键\17 110 舵机横向放置 比赛版\RED_BULL\Dual-core_Communication_Demo\MASTER\obj/../Libraries/seekfree_libraries/zf_gpio.c:40
{
    14a8:	7179                	addi	sp,sp,-48
    14aa:	d422                	sw	s0,40(sp)
    14ac:	d226                	sw	s1,36(sp)
    14ae:	d04a                	sw	s2,32(sp)
    14b0:	ce4e                	sw	s3,28(sp)
    14b2:	cc52                	sw	s4,24(sp)
    14b4:	00555793          	srli	a5,a0,0x5
    14b8:	d606                	sw	ra,44(sp)
    14ba:	0077fa13          	andi	s4,a5,7
    14be:	01f57413          	andi	s0,a0,31
    14c2:	84b6                	mv	s1,a3
    14c4:	89b2                	mv	s3,a2
    14c6:	892e                	mv	s2,a1
C:\Users\windows\Desktop\比赛\100 成渝版 带按键\17 110 舵机横向放置 比赛版\RED_BULL\Dual-core_Communication_Demo\MASTER\obj/../Libraries/seekfree_libraries/zf_gpio.c:48
    //GPIO总线使能
    if(0 == (pin >> 5))      RCC_APB2PeriphClockCmd(RCC_APB2Periph_GPIOA, ENABLE);
    14c8:	e3b5                	bnez	a5,152c <gpio_init+0x8c>
C:\Users\windows\Desktop\比赛\100 成渝版 带按键\17 110 舵机横向放置 比赛版\RED_BULL\Dual-core_Communication_Demo\MASTER\obj/../Libraries/seekfree_libraries/zf_gpio.c:48 (discriminator 1)
    14ca:	4585                	li	a1,1
    14cc:	4511                	li	a0,4
C:\Users\windows\Desktop\比赛\100 成渝版 带按键\17 110 舵机横向放置 比赛版\RED_BULL\Dual-core_Communication_Demo\MASTER\obj/../Libraries/seekfree_libraries/zf_gpio.c:54 (discriminator 1)
    else if(1 == (pin >> 5)) RCC_APB2PeriphClockCmd(RCC_APB2Periph_GPIOB, ENABLE);
    else if(2 == (pin >> 5)) RCC_APB2PeriphClockCmd(RCC_APB2Periph_GPIOC, ENABLE);
    else if(3 == (pin >> 5)) RCC_APB2PeriphClockCmd(RCC_APB2Periph_GPIOD, ENABLE);
    else if(4 == (pin >> 5)) RCC_APB2PeriphClockCmd(RCC_APB2Periph_GPIOE, ENABLE);
    else if(5 == (pin >> 5)) RCC_APB2PeriphClockCmd(RCC_APB2Periph_GPIOF, ENABLE);
    else if(6 == (pin >> 5)) RCC_APB2PeriphClockCmd(RCC_APB2Periph_GPIOG, ENABLE);
    14ce:	8b7ff0ef          	jal	ra,d84 <RCC_APB2PeriphClockCmd>
C:\Users\windows\Desktop\比赛\100 成渝版 带按键\17 110 舵机横向放置 比赛版\RED_BULL\Dual-core_Communication_Demo\MASTER\obj/../Libraries/seekfree_libraries/zf_gpio.c:58


    //设置引脚号
    GPIO_InitStructure.GPIO_Pin = (uint16)(1 << io_pin);
    14d2:	4785                	li	a5,1
    14d4:	00879433          	sll	s0,a5,s0
    14d8:	0442                	slli	s0,s0,0x10
    14da:	8041                	srli	s0,s0,0x10
    14dc:	00811223          	sh	s0,4(sp)
C:\Users\windows\Desktop\比赛\100 成渝版 带按键\17 110 舵机横向放置 比赛版\RED_BULL\Dual-core_Communication_Demo\MASTER\obj/../Libraries/seekfree_libraries/zf_gpio.c:60

    if(GPO == dir)
    14e0:	00f91963          	bne	s2,a5,14f2 <gpio_init+0x52>
C:\Users\windows\Desktop\比赛\100 成渝版 带按键\17 110 舵机横向放置 比赛版\RED_BULL\Dual-core_Communication_Demo\MASTER\obj/../Libraries/seekfree_libraries/zf_gpio.c:63
    {
        //只有输出需要设置速度
        if((uint16)pinconf >> 8 == 0) GPIO_InitStructure.GPIO_Speed = (GPIOSpeed_TypeDef)(GPIO_Speed_50MHz);  //防止没有填写这个参数,默认设置50Mhz
    14e4:	01049793          	slli	a5,s1,0x10
    14e8:	83c1                	srli	a5,a5,0x10
    14ea:	83a1                	srli	a5,a5,0x8
    14ec:	e391                	bnez	a5,14f0 <gpio_init+0x50>
C:\Users\windows\Desktop\比赛\100 成渝版 带按键\17 110 舵机横向放置 比赛版\RED_BULL\Dual-core_Communication_Demo\MASTER\obj/../Libraries/seekfree_libraries/zf_gpio.c:63 (discriminator 1)
    14ee:	478d                	li	a5,3
C:\Users\windows\Desktop\比赛\100 成渝版 带按键\17 110 舵机横向放置 比赛版\RED_BULL\Dual-core_Communication_Demo\MASTER\obj/../Libraries/seekfree_libraries/zf_gpio.c:64
        else GPIO_InitStructure.GPIO_Speed = (GPIOSpeed_TypeDef)((uint16)pinconf >> 8);                       //已经填写了该参数。根据值来设置
    14f0:	c43e                	sw	a5,8(sp)
C:\Users\windows\Desktop\比赛\100 成渝版 带按键\17 110 舵机横向放置 比赛版\RED_BULL\Dual-core_Communication_Demo\MASTER\obj/../Libraries/seekfree_libraries/zf_gpio.c:69
    }

    //设置模式
    GPIO_InitStructure.GPIO_Mode = (GPIOMode_TypeDef)((uint16)pinconf & 0xff);
    GPIO_Init((GPIO_TypeDef *)(GPION[io_group]), &GPIO_InitStructure);
    14f2:	6791                	lui	a5,0x4
    14f4:	0a0a                	slli	s4,s4,0x2
    14f6:	ca078793          	addi	a5,a5,-864 # 3ca0 <GPION>
    14fa:	97d2                	add	a5,a5,s4
C:\Users\windows\Desktop\比赛\100 成渝版 带按键\17 110 舵机横向放置 比赛版\RED_BULL\Dual-core_Communication_Demo\MASTER\obj/../Libraries/seekfree_libraries/zf_gpio.c:68
    GPIO_InitStructure.GPIO_Mode = (GPIOMode_TypeDef)((uint16)pinconf & 0xff);
    14fc:	0ff4f493          	andi	s1,s1,255
    1500:	c626                	sw	s1,12(sp)
C:\Users\windows\Desktop\比赛\100 成渝版 带按键\17 110 舵机横向放置 比赛版\RED_BULL\Dual-core_Communication_Demo\MASTER\obj/../Libraries/seekfree_libraries/zf_gpio.c:69
    GPIO_Init((GPIO_TypeDef *)(GPION[io_group]), &GPIO_InitStructure);
    1502:	4384                	lw	s1,0(a5)
    1504:	004c                	addi	a1,sp,4
    1506:	8526                	mv	a0,s1
    1508:	deaff0ef          	jal	ra,af2 <GPIO_Init>
C:\Users\windows\Desktop\比赛\100 成渝版 带按键\17 110 舵机横向放置 比赛版\RED_BULL\Dual-core_Communication_Demo\MASTER\obj/../Libraries/seekfree_libraries/zf_gpio.c:71

    if(GPO == dir)
    150c:	4785                	li	a5,1
    150e:	00f91763          	bne	s2,a5,151c <gpio_init+0x7c>
C:\Users\windows\Desktop\比赛\100 成渝版 带按键\17 110 舵机横向放置 比赛版\RED_BULL\Dual-core_Communication_Demo\MASTER\obj/../Libraries/seekfree_libraries/zf_gpio.c:74
    {
        //只有输出需要设置引脚状态
        GPIO_WriteBit((GPIO_TypeDef *)(GPION[io_group]), (uint16)(1 << io_pin), dat);
    1512:	864e                	mv	a2,s3
    1514:	85a2                	mv	a1,s0
    1516:	8526                	mv	a0,s1
    1518:	e9cff0ef          	jal	ra,bb4 <GPIO_WriteBit>
C:\Users\windows\Desktop\比赛\100 成渝版 带按键\17 110 舵机横向放置 比赛版\RED_BULL\Dual-core_Communication_Demo\MASTER\obj/../Libraries/seekfree_libraries/zf_gpio.c:76
    }
}
    151c:	50b2                	lw	ra,44(sp)
    151e:	5422                	lw	s0,40(sp)
    1520:	5492                	lw	s1,36(sp)
    1522:	5902                	lw	s2,32(sp)
    1524:	49f2                	lw	s3,28(sp)
    1526:	4a62                	lw	s4,24(sp)
    1528:	6145                	addi	sp,sp,48
    152a:	8082                	ret
C:\Users\windows\Desktop\比赛\100 成渝版 带按键\17 110 舵机横向放置 比赛版\RED_BULL\Dual-core_Communication_Demo\MASTER\obj/../Libraries/seekfree_libraries/zf_gpio.c:49
    else if(1 == (pin >> 5)) RCC_APB2PeriphClockCmd(RCC_APB2Periph_GPIOB, ENABLE);
    152c:	4705                	li	a4,1
    152e:	00e79563          	bne	a5,a4,1538 <gpio_init+0x98>
C:\Users\windows\Desktop\比赛\100 成渝版 带按键\17 110 舵机横向放置 比赛版\RED_BULL\Dual-core_Communication_Demo\MASTER\obj/../Libraries/seekfree_libraries/zf_gpio.c:49 (discriminator 1)
    1532:	4585                	li	a1,1
    1534:	4521                	li	a0,8
    1536:	bf61                	j	14ce <gpio_init+0x2e>
C:\Users\windows\Desktop\比赛\100 成渝版 带按键\17 110 舵机横向放置 比赛版\RED_BULL\Dual-core_Communication_Demo\MASTER\obj/../Libraries/seekfree_libraries/zf_gpio.c:50
    else if(2 == (pin >> 5)) RCC_APB2PeriphClockCmd(RCC_APB2Periph_GPIOC, ENABLE);
    1538:	4709                	li	a4,2
    153a:	00e79563          	bne	a5,a4,1544 <gpio_init+0xa4>
C:\Users\windows\Desktop\比赛\100 成渝版 带按键\17 110 舵机横向放置 比赛版\RED_BULL\Dual-core_Communication_Demo\MASTER\obj/../Libraries/seekfree_libraries/zf_gpio.c:50 (discriminator 1)
    153e:	4585                	li	a1,1
    1540:	4541                	li	a0,16
    1542:	b771                	j	14ce <gpio_init+0x2e>
C:\Users\windows\Desktop\比赛\100 成渝版 带按键\17 110 舵机横向放置 比赛版\RED_BULL\Dual-core_Communication_Demo\MASTER\obj/../Libraries/seekfree_libraries/zf_gpio.c:51
    else if(3 == (pin >> 5)) RCC_APB2PeriphClockCmd(RCC_APB2Periph_GPIOD, ENABLE);
    1544:	470d                	li	a4,3
    1546:	00e79663          	bne	a5,a4,1552 <gpio_init+0xb2>
C:\Users\windows\Desktop\比赛\100 成渝版 带按键\17 110 舵机横向放置 比赛版\RED_BULL\Dual-core_Communication_Demo\MASTER\obj/../Libraries/seekfree_libraries/zf_gpio.c:51 (discriminator 1)
    154a:	4585                	li	a1,1
    154c:	02000513          	li	a0,32
    1550:	bfbd                	j	14ce <gpio_init+0x2e>
C:\Users\windows\Desktop\比赛\100 成渝版 带按键\17 110 舵机横向放置 比赛版\RED_BULL\Dual-core_Communication_Demo\MASTER\obj/../Libraries/seekfree_libraries/zf_gpio.c:52
    else if(4 == (pin >> 5)) RCC_APB2PeriphClockCmd(RCC_APB2Periph_GPIOE, ENABLE);
    1552:	4711                	li	a4,4
    1554:	00e79663          	bne	a5,a4,1560 <gpio_init+0xc0>
C:\Users\windows\Desktop\比赛\100 成渝版 带按键\17 110 舵机横向放置 比赛版\RED_BULL\Dual-core_Communication_Demo\MASTER\obj/../Libraries/seekfree_libraries/zf_gpio.c:52 (discriminator 1)
    1558:	4585                	li	a1,1
    155a:	04000513          	li	a0,64
    155e:	bf85                	j	14ce <gpio_init+0x2e>
C:\Users\windows\Desktop\比赛\100 成渝版 带按键\17 110 舵机横向放置 比赛版\RED_BULL\Dual-core_Communication_Demo\MASTER\obj/../Libraries/seekfree_libraries/zf_gpio.c:53
    else if(5 == (pin >> 5)) RCC_APB2PeriphClockCmd(RCC_APB2Periph_GPIOF, ENABLE);
    1560:	4715                	li	a4,5
    1562:	00e79663          	bne	a5,a4,156e <gpio_init+0xce>
C:\Users\windows\Desktop\比赛\100 成渝版 带按键\17 110 舵机横向放置 比赛版\RED_BULL\Dual-core_Communication_Demo\MASTER\obj/../Libraries/seekfree_libraries/zf_gpio.c:53 (discriminator 1)
    1566:	4585                	li	a1,1
    1568:	08000513          	li	a0,128
    156c:	b78d                	j	14ce <gpio_init+0x2e>
C:\Users\windows\Desktop\比赛\100 成渝版 带按键\17 110 舵机横向放置 比赛版\RED_BULL\Dual-core_Communication_Demo\MASTER\obj/../Libraries/seekfree_libraries/zf_gpio.c:54
    else if(6 == (pin >> 5)) RCC_APB2PeriphClockCmd(RCC_APB2Periph_GPIOG, ENABLE);
    156e:	4719                	li	a4,6
    1570:	f6e791e3          	bne	a5,a4,14d2 <gpio_init+0x32>
C:\Users\windows\Desktop\比赛\100 成渝版 带按键\17 110 舵机横向放置 比赛版\RED_BULL\Dual-core_Communication_Demo\MASTER\obj/../Libraries/seekfree_libraries/zf_gpio.c:54 (discriminator 1)
    1574:	4585                	li	a1,1
    1576:	10000513          	li	a0,256
    157a:	bf91                	j	14ce <gpio_init+0x2e>
    157c:	8082                	ret

0000157e <gpio_set>:
gpio_set():
C:\Users\windows\Desktop\比赛\100 成渝版 带按键\17 110 舵机横向放置 比赛版\RED_BULL\Dual-core_Communication_Demo\MASTER\obj/../Libraries/seekfree_libraries/zf_gpio.c:90
void gpio_set(PIN_enum pin, uint8 dat)
{
    uint8 io_group = (pin & 0xE0) >> 5;
    uint8 io_pin = pin & 0x1F;

    if (dat == 1)
    157e:	00355793          	srli	a5,a0,0x3
    1582:	01c7f713          	andi	a4,a5,28
    1586:	6791                	lui	a5,0x4
    1588:	ca078793          	addi	a5,a5,-864 # 3ca0 <GPION>
    158c:	97ba                	add	a5,a5,a4
    158e:	4705                	li	a4,1
    1590:	439c                	lw	a5,0(a5)
    1592:	00a71533          	sll	a0,a4,a0
    1596:	00e59463          	bne	a1,a4,159e <gpio_set+0x20>
C:\Users\windows\Desktop\比赛\100 成渝版 带按键\17 110 舵机横向放置 比赛版\RED_BULL\Dual-core_Communication_Demo\MASTER\obj/../Libraries/seekfree_libraries/zf_gpio.c:91
         ((GPIO_TypeDef *)(GPION[io_group]))->BSHR = 1 << io_pin;
    159a:	cb88                	sw	a0,16(a5)
    159c:	8082                	ret
C:\Users\windows\Desktop\比赛\100 成渝版 带按键\17 110 舵机横向放置 比赛版\RED_BULL\Dual-core_Communication_Demo\MASTER\obj/../Libraries/seekfree_libraries/zf_gpio.c:93
    else
         ((GPIO_TypeDef *)(GPION[io_group]))->BCR = 1 << io_pin;
    159e:	cbc8                	sw	a0,20(a5)
C:\Users\windows\Desktop\比赛\100 成渝版 带按键\17 110 舵机横向放置 比赛版\RED_BULL\Dual-core_Communication_Demo\MASTER\obj/../Libraries/seekfree_libraries/zf_gpio.c:94
}
    15a0:	8082                	ret

000015a2 <gpio_interrupt_init>:
gpio_interrupt_init():
C:\Users\windows\Desktop\比赛\100 成渝版 带按键\17 110 舵机横向放置 比赛版\RED_BULL\Dual-core_Communication_Demo\MASTER\obj/../Libraries/seekfree_libraries/zf_gpio.c:141
//  @param      trigger     中断触发方式 选择范围参见h文件TRIGGER_enum枚举
//  @return     void
//  Sample usage:           gpio_interrupt_init(D0, RISING, GPIO_INT_CONFIG);//D0上升沿中断
//-------------------------------------------------------------------------------------------------------------------
void gpio_interrupt_init(PIN_enum pin,TRIGGER_enum trigger, uint32 pinconf)
{
    15a2:	7179                	addi	sp,sp,-48
    15a4:	d422                	sw	s0,40(sp)
    15a6:	d04a                	sw	s2,32(sp)
    15a8:	842a                	mv	s0,a0
    15aa:	892e                	mv	s2,a1
C:\Users\windows\Desktop\比赛\100 成渝版 带按键\17 110 舵机横向放置 比赛版\RED_BULL\Dual-core_Communication_Demo\MASTER\obj/../Libraries/seekfree_libraries/zf_gpio.c:143
    EXTI_InitTypeDef EXTI_InitStructure;
    RCC_APB2PeriphClockCmd(RCC_APB2Periph_AFIO,ENABLE);
    15ac:	4505                	li	a0,1
    15ae:	4585                	li	a1,1
C:\Users\windows\Desktop\比赛\100 成渝版 带按键\17 110 舵机横向放置 比赛版\RED_BULL\Dual-core_Communication_Demo\MASTER\obj/../Libraries/seekfree_libraries/zf_gpio.c:141
{
    15b0:	d606                	sw	ra,44(sp)
    15b2:	d226                	sw	s1,36(sp)
    15b4:	c632                	sw	a2,12(sp)
C:\Users\windows\Desktop\比赛\100 成渝版 带按键\17 110 舵机横向放置 比赛版\RED_BULL\Dual-core_Communication_Demo\MASTER\obj/../Libraries/seekfree_libraries/zf_gpio.c:143
    RCC_APB2PeriphClockCmd(RCC_APB2Periph_AFIO,ENABLE);
    15b6:	fceff0ef          	jal	ra,d84 <RCC_APB2PeriphClockCmd>
C:\Users\windows\Desktop\比赛\100 成渝版 带按键\17 110 舵机横向放置 比赛版\RED_BULL\Dual-core_Communication_Demo\MASTER\obj/../Libraries/seekfree_libraries/zf_gpio.c:144
    gpio_init(pin, GPI, 0, pinconf);
    15ba:	46b2                	lw	a3,12(sp)
    15bc:	4601                	li	a2,0
    15be:	8522                	mv	a0,s0
    15c0:	4581                	li	a1,0
    15c2:	3df9                	jal	14a0 <gpio_init>
C:\Users\windows\Desktop\比赛\100 成渝版 带按键\17 110 舵机横向放置 比赛版\RED_BULL\Dual-core_Communication_Demo\MASTER\obj/../Libraries/seekfree_libraries/zf_gpio.c:145
    GPIO_EXTILineConfig(pin >> 5, pin & 0x1F);              //引脚中断号配置
    15c4:	01f47493          	andi	s1,s0,31
    15c8:	00545513          	srli	a0,s0,0x5
    15cc:	85a6                	mv	a1,s1
    15ce:	0ff57513          	andi	a0,a0,255
    15d2:	e72ff0ef          	jal	ra,c44 <GPIO_EXTILineConfig>
C:\Users\windows\Desktop\比赛\100 成渝版 带按键\17 110 舵机横向放置 比赛版\RED_BULL\Dual-core_Communication_Demo\MASTER\obj/../Libraries/seekfree_libraries/zf_gpio.c:146
    EXTI_InitStructure.EXTI_Line = 1 << (pin & 0x1F);       //引脚号配置
    15d6:	4785                	li	a5,1
    15d8:	009794b3          	sll	s1,a5,s1
C:\Users\windows\Desktop\比赛\100 成渝版 带按键\17 110 舵机横向放置 比赛版\RED_BULL\Dual-core_Communication_Demo\MASTER\obj/../Libraries/seekfree_libraries/zf_gpio.c:150
    EXTI_InitStructure.EXTI_Mode = EXTI_Mode_Interrupt;     //触发模式
    EXTI_InitStructure.EXTI_Trigger = trigger;              //触发方式
    EXTI_InitStructure.EXTI_LineCmd = ENABLE;               //使能或者失能
    EXTI_Init(&EXTI_InitStructure);
    15dc:	0808                	addi	a0,sp,16
C:\Users\windows\Desktop\比赛\100 成渝版 带按键\17 110 舵机横向放置 比赛版\RED_BULL\Dual-core_Communication_Demo\MASTER\obj/../Libraries/seekfree_libraries/zf_gpio.c:146
    EXTI_InitStructure.EXTI_Line = 1 << (pin & 0x1F);       //引脚号配置
    15de:	c826                	sw	s1,16(sp)
C:\Users\windows\Desktop\比赛\100 成渝版 带按键\17 110 舵机横向放置 比赛版\RED_BULL\Dual-core_Communication_Demo\MASTER\obj/../Libraries/seekfree_libraries/zf_gpio.c:148
    EXTI_InitStructure.EXTI_Trigger = trigger;              //触发方式
    15e0:	cc4a                	sw	s2,24(sp)
C:\Users\windows\Desktop\比赛\100 成渝版 带按键\17 110 舵机横向放置 比赛版\RED_BULL\Dual-core_Communication_Demo\MASTER\obj/../Libraries/seekfree_libraries/zf_gpio.c:147
    EXTI_InitStructure.EXTI_Mode = EXTI_Mode_Interrupt;     //触发模式
    15e2:	ca02                	sw	zero,20(sp)
C:\Users\windows\Desktop\比赛\100 成渝版 带按键\17 110 舵机横向放置 比赛版\RED_BULL\Dual-core_Communication_Demo\MASTER\obj/../Libraries/seekfree_libraries/zf_gpio.c:149
    EXTI_InitStructure.EXTI_LineCmd = ENABLE;               //使能或者失能
    15e4:	ce3e                	sw	a5,28(sp)
C:\Users\windows\Desktop\比赛\100 成渝版 带按键\17 110 舵机横向放置 比赛版\RED_BULL\Dual-core_Communication_Demo\MASTER\obj/../Libraries/seekfree_libraries/zf_gpio.c:150
    EXTI_Init(&EXTI_InitStructure);
    15e6:	c7aff0ef          	jal	ra,a60 <EXTI_Init>
C:\Users\windows\Desktop\比赛\100 成渝版 带按键\17 110 舵机横向放置 比赛版\RED_BULL\Dual-core_Communication_Demo\MASTER\obj/../Libraries/seekfree_libraries/zf_gpio.c:151
}
    15ea:	50b2                	lw	ra,44(sp)
    15ec:	5422                	lw	s0,40(sp)
    15ee:	5492                	lw	s1,36(sp)
    15f0:	5902                	lw	s2,32(sp)
    15f2:	6145                	addi	sp,sp,48
    15f4:	8082                	ret

000015f6 <close_all_irq>:
close_all_irq():
C:\Users\windows\Desktop\比赛\100 成渝版 带按键\17 110 舵机横向放置 比赛版\RED_BULL\Dual-core_Communication_Demo\MASTER\obj/../Libraries/seekfree_libraries/zf_nvic.c:65
//  Sample usage:
//-------------------------------------------------------------------------------------------------------------------
void close_all_irq(void)
{
    //写1，清空状态
    PFIC->IRER[0] = 0xffffffff;
    15f6:	e000e7b7          	lui	a5,0xe000e
    15fa:	577d                	li	a4,-1
    15fc:	18e7a023          	sw	a4,384(a5) # e000e180 <_eusrstack+0xc0009180>
C:\Users\windows\Desktop\比赛\100 成渝版 带按键\17 110 舵机横向放置 比赛版\RED_BULL\Dual-core_Communication_Demo\MASTER\obj/../Libraries/seekfree_libraries/zf_nvic.c:66
    PFIC->IRER[1] = 0xffffffff;
    1600:	18e7a223          	sw	a4,388(a5)
C:\Users\windows\Desktop\比赛\100 成渝版 带按键\17 110 舵机横向放置 比赛版\RED_BULL\Dual-core_Communication_Demo\MASTER\obj/../Libraries/seekfree_libraries/zf_nvic.c:67
}
    1604:	8082                	ret

00001606 <nvic_init>:
nvic_init():
C:\Users\windows\Desktop\比赛\100 成渝版 带按键\17 110 舵机横向放置 比赛版\RED_BULL\Dual-core_Communication_Demo\MASTER\obj/../Libraries/seekfree_libraries/zf_nvic.c:38
{
    1606:	1101                	addi	sp,sp,-32
C:\Users\windows\Desktop\比赛\100 成渝版 带按键\17 110 舵机横向放置 比赛版\RED_BULL\Dual-core_Communication_Demo\MASTER\obj/../Libraries/seekfree_libraries/zf_nvic.c:41
    NVIC_InitStructure.NVIC_IRQChannel = irqn;                                  //中断号设置
    1608:	00a10423          	sb	a0,8(sp)
C:\Users\windows\Desktop\比赛\100 成渝版 带按键\17 110 舵机横向放置 比赛版\RED_BULL\Dual-core_Communication_Demo\MASTER\obj/../Libraries/seekfree_libraries/zf_nvic.c:45
    NVIC_Init(&NVIC_InitStructure);
    160c:	0028                	addi	a0,sp,8
C:\Users\windows\Desktop\比赛\100 成渝版 带按键\17 110 舵机横向放置 比赛版\RED_BULL\Dual-core_Communication_Demo\MASTER\obj/../Libraries/seekfree_libraries/zf_nvic.c:43
    NVIC_InitStructure.NVIC_IRQChannelSubPriority = sub_priority;               //次优先级值越小，优先级越高
    160e:	00c10523          	sb	a2,10(sp)
C:\Users\windows\Desktop\比赛\100 成渝版 带按键\17 110 舵机横向放置 比赛版\RED_BULL\Dual-core_Communication_Demo\MASTER\obj/../Libraries/seekfree_libraries/zf_nvic.c:44
    NVIC_InitStructure.NVIC_IRQChannelCmd = status;                             //使能
    1612:	c636                	sw	a3,12(sp)
C:\Users\windows\Desktop\比赛\100 成渝版 带按键\17 110 舵机横向放置 比赛版\RED_BULL\Dual-core_Communication_Demo\MASTER\obj/../Libraries/seekfree_libraries/zf_nvic.c:38
{
    1614:	ce06                	sw	ra,28(sp)
C:\Users\windows\Desktop\比赛\100 成渝版 带按键\17 110 舵机横向放置 比赛版\RED_BULL\Dual-core_Communication_Demo\MASTER\obj/../Libraries/seekfree_libraries/zf_nvic.c:42
    NVIC_InitStructure.NVIC_IRQChannelPreemptionPriority=preemption_priority;   //抢占优先级值越小，优先级越高
    1616:	00b104a3          	sb	a1,9(sp)
C:\Users\windows\Desktop\比赛\100 成渝版 带按键\17 110 舵机横向放置 比赛版\RED_BULL\Dual-core_Communication_Demo\MASTER\obj/../Libraries/seekfree_libraries/zf_nvic.c:45
    NVIC_Init(&NVIC_InitStructure);
    161a:	e56ff0ef          	jal	ra,c70 <NVIC_Init>
C:\Users\windows\Desktop\比赛\100 成渝版 带按键\17 110 舵机横向放置 比赛版\RED_BULL\Dual-core_Communication_Demo\MASTER\obj/../Libraries/seekfree_libraries/zf_nvic.c:48
    irq_status.ienr0 |= (PFIC->ISR[0] & 0xFFFFF000);    //[31:12]
    161e:	e000e637          	lui	a2,0xe000e
    1622:	4218                	lw	a4,0(a2)
    1624:	76fd                	lui	a3,0xfffff
    1626:	8ef9                	and	a3,a3,a4
    1628:	94c1a703          	lw	a4,-1716(gp) # 2000015c <irq_status>
    162c:	8f55                	or	a4,a4,a3
    162e:	94e1a623          	sw	a4,-1716(gp) # 2000015c <irq_status>
C:\Users\windows\Desktop\比赛\100 成渝版 带按键\17 110 舵机横向放置 比赛版\RED_BULL\Dual-core_Communication_Demo\MASTER\obj/../Libraries/seekfree_libraries/zf_nvic.c:49
    irq_status.ienr1 |= (PFIC->ISR[1] & 0x0FFFFFFF);    //[27:0]
    1632:	4258                	lw	a4,4(a2)
    1634:	94c18793          	addi	a5,gp,-1716 # 2000015c <irq_status>
    1638:	43d4                	lw	a3,4(a5)
    163a:	0712                	slli	a4,a4,0x4
    163c:	8311                	srli	a4,a4,0x4
    163e:	8f55                	or	a4,a4,a3
    1640:	c3d8                	sw	a4,4(a5)
C:\Users\windows\Desktop\比赛\100 成渝版 带按键\17 110 舵机横向放置 比赛版\RED_BULL\Dual-core_Communication_Demo\MASTER\obj/../Libraries/seekfree_libraries/zf_nvic.c:50
    if(irq_status.flag == 1)
    1642:	0087c703          	lbu	a4,8(a5)
    1646:	4785                	li	a5,1
    1648:	00f71363          	bne	a4,a5,164e <nvic_init+0x48>
C:\Users\windows\Desktop\比赛\100 成渝版 带按键\17 110 舵机横向放置 比赛版\RED_BULL\Dual-core_Communication_Demo\MASTER\obj/../Libraries/seekfree_libraries/zf_nvic.c:52
        close_all_irq();
    164c:	376d                	jal	15f6 <close_all_irq>
C:\Users\windows\Desktop\比赛\100 成渝版 带按键\17 110 舵机横向放置 比赛版\RED_BULL\Dual-core_Communication_Demo\MASTER\obj/../Libraries/seekfree_libraries/zf_nvic.c:54
}
    164e:	40f2                	lw	ra,28(sp)
    1650:	6105                	addi	sp,sp,32
    1652:	8082                	ret

00001654 <sys_recover_irq>:
sys_recover_irq():
C:\Users\windows\Desktop\比赛\100 成渝版 带按键\17 110 舵机横向放置 比赛版\RED_BULL\Dual-core_Communication_Demo\MASTER\obj/../Libraries/seekfree_libraries/zf_nvic.c:78
//  @since      v1.0
//  Sample usage:
//-------------------------------------------------------------------------------------------------------------------
void sys_recover_irq(void)
{
    PFIC->IENR[0] = irq_status.ienr0;
    1654:	94c1a683          	lw	a3,-1716(gp) # 2000015c <irq_status>
    1658:	e000e737          	lui	a4,0xe000e
C:\Users\windows\Desktop\比赛\100 成渝版 带按键\17 110 舵机横向放置 比赛版\RED_BULL\Dual-core_Communication_Demo\MASTER\obj/../Libraries/seekfree_libraries/zf_nvic.c:79
    PFIC->IENR[1] = irq_status.ienr1;
    165c:	94c18793          	addi	a5,gp,-1716 # 2000015c <irq_status>
C:\Users\windows\Desktop\比赛\100 成渝版 带按键\17 110 舵机横向放置 比赛版\RED_BULL\Dual-core_Communication_Demo\MASTER\obj/../Libraries/seekfree_libraries/zf_nvic.c:78
    PFIC->IENR[0] = irq_status.ienr0;
    1660:	10d72023          	sw	a3,256(a4) # e000e100 <_eusrstack+0xc0009100>
C:\Users\windows\Desktop\比赛\100 成渝版 带按键\17 110 舵机横向放置 比赛版\RED_BULL\Dual-core_Communication_Demo\MASTER\obj/../Libraries/seekfree_libraries/zf_nvic.c:79
    PFIC->IENR[1] = irq_status.ienr1;
    1664:	43dc                	lw	a5,4(a5)
    1666:	10f72223          	sw	a5,260(a4)
C:\Users\windows\Desktop\比赛\100 成渝版 带按键\17 110 舵机横向放置 比赛版\RED_BULL\Dual-core_Communication_Demo\MASTER\obj/../Libraries/seekfree_libraries/zf_nvic.c:80
}
    166a:	8082                	ret

0000166c <DisableGlobalIRQ>:
DisableGlobalIRQ():
C:\Users\windows\Desktop\比赛\100 成渝版 带按键\17 110 舵机横向放置 比赛版\RED_BULL\Dual-core_Communication_Demo\MASTER\obj/../Libraries/seekfree_libraries/zf_nvic.c:90
//  @return     void
//  @since      v1.0
//  Sample usage:
//-------------------------------------------------------------------------------------------------------------------
uint8 DisableGlobalIRQ(void)
{
    166c:	1101                	addi	sp,sp,-32
    166e:	ce06                	sw	ra,28(sp)
C:\Users\windows\Desktop\比赛\100 成渝版 带按键\17 110 舵机横向放置 比赛版\RED_BULL\Dual-core_Communication_Demo\MASTER\obj/../Libraries/seekfree_libraries/zf_nvic.c:92
    uint8 state;
    irq_status.flag = 1;
    1670:	94c18793          	addi	a5,gp,-1716 # 2000015c <irq_status>
    1674:	4685                	li	a3,1
    1676:	00d78423          	sb	a3,8(a5)
C:\Users\windows\Desktop\比赛\100 成渝版 带按键\17 110 舵机横向放置 比赛版\RED_BULL\Dual-core_Communication_Demo\MASTER\obj/../Libraries/seekfree_libraries/zf_nvic.c:93
    if((irq_status.ienr0 == 0) && (irq_status.ienr1 == 0))   state = 0;  //没有就返回0
    167a:	94c1a503          	lw	a0,-1716(gp) # 2000015c <irq_status>
    167e:	43dc                	lw	a5,4(a5)
    1680:	8d5d                	or	a0,a0,a5
    1682:	00a03533          	snez	a0,a0
    1686:	c62a                	sw	a0,12(sp)
C:\Users\windows\Desktop\比赛\100 成渝版 带按键\17 110 舵机横向放置 比赛版\RED_BULL\Dual-core_Communication_Demo\MASTER\obj/../Libraries/seekfree_libraries/zf_nvic.c:95
    else state = 1;  //有中断就返回1
    close_all_irq();
    1688:	37bd                	jal	15f6 <close_all_irq>
C:\Users\windows\Desktop\比赛\100 成渝版 带按键\17 110 舵机横向放置 比赛版\RED_BULL\Dual-core_Communication_Demo\MASTER\obj/../Libraries/seekfree_libraries/zf_nvic.c:97
    return state;
}
    168a:	40f2                	lw	ra,28(sp)
    168c:	4532                	lw	a0,12(sp)
    168e:	6105                	addi	sp,sp,32
    1690:	8082                	ret

00001692 <EnableGlobalIRQ>:
EnableGlobalIRQ():
C:\Users\windows\Desktop\比赛\100 成渝版 带按键\17 110 舵机横向放置 比赛版\RED_BULL\Dual-core_Communication_Demo\MASTER\obj/../Libraries/seekfree_libraries/zf_nvic.c:108
//  @since      v1.0
//  Sample usage:
//-------------------------------------------------------------------------------------------------------------------
void EnableGlobalIRQ(uint8 state)
{
    if(state == 0)
    1692:	e501                	bnez	a0,169a <EnableGlobalIRQ+0x8>
C:\Users\windows\Desktop\比赛\100 成渝版 带按键\17 110 舵机横向放置 比赛版\RED_BULL\Dual-core_Communication_Demo\MASTER\obj/../Libraries/seekfree_libraries/zf_nvic.c:110
    {
        irq_status.flag = 0;
    1694:	94018a23          	sb	zero,-1708(gp) # 20000164 <irq_status+0x8>
C:\Users\windows\Desktop\比赛\100 成渝版 带按键\17 110 舵机横向放置 比赛版\RED_BULL\Dual-core_Communication_Demo\MASTER\obj/../Libraries/seekfree_libraries/zf_nvic.c:111
        sys_recover_irq();
    1698:	bf75                	j	1654 <sys_recover_irq>
C:\Users\windows\Desktop\比赛\100 成渝版 带按键\17 110 舵机横向放置 比赛版\RED_BULL\Dual-core_Communication_Demo\MASTER\obj/../Libraries/seekfree_libraries/zf_nvic.c:113
    }
}
    169a:	8082                	ret

0000169c <pwm_gpio_init>:
pwm_gpio_init():
C:\Users\windows\Desktop\比赛\100 成渝版 带按键\17 110 舵机横向放置 比赛版\RED_BULL\Dual-core_Communication_Demo\MASTER\obj/../Libraries/seekfree_libraries/zf_pwm.c:36
//  @return     void
//  Sample usage:           内部使用  用户无需关心
//-------------------------------------------------------------------------------------------------------------------
void pwm_gpio_init(PWMCH_enum pwmch)
{
    switch(pwmch)
    169c:	20000793          	li	a5,512
    16a0:	16f50b63          	beq	a0,a5,1816 <pwm_gpio_init+0x17a>
    16a4:	06a7e463          	bltu	a5,a0,170c <pwm_gpio_init+0x70>
    16a8:	10100793          	li	a5,257
    16ac:	10f50863          	beq	a0,a5,17bc <pwm_gpio_init+0x120>
    16b0:	02a7e463          	bltu	a5,a0,16d8 <pwm_gpio_init+0x3c>
    16b4:	4789                	li	a5,2
    16b6:	0ef50163          	beq	a0,a5,1798 <pwm_gpio_init+0xfc>
    16ba:	00a7e763          	bltu	a5,a0,16c8 <pwm_gpio_init+0x2c>
    16be:	c169                	beqz	a0,1780 <pwm_gpio_init+0xe4>
    16c0:	4785                	li	a5,1
    16c2:	0cf50563          	beq	a0,a5,178c <pwm_gpio_init+0xf0>
    16c6:	8082                	ret
    16c8:	478d                	li	a5,3
    16ca:	0cf50d63          	beq	a0,a5,17a4 <pwm_gpio_init+0x108>
    16ce:	10000793          	li	a5,256
    16d2:	0cf50f63          	beq	a0,a5,17b0 <pwm_gpio_init+0x114>
    16d6:	8082                	ret
    16d8:	11000793          	li	a5,272
    16dc:	10f50263          	beq	a0,a5,17e0 <pwm_gpio_init+0x144>
    16e0:	00a7eb63          	bltu	a5,a0,16f6 <pwm_gpio_init+0x5a>
    16e4:	10200793          	li	a5,258
    16e8:	0ef50063          	beq	a0,a5,17c8 <pwm_gpio_init+0x12c>
    16ec:	10300793          	li	a5,259
    16f0:	0ef50263          	beq	a0,a5,17d4 <pwm_gpio_init+0x138>
    16f4:	8082                	ret
    16f6:	11200793          	li	a5,274
    16fa:	10f50063          	beq	a0,a5,17fa <pwm_gpio_init+0x15e>
    16fe:	0ef56763          	bltu	a0,a5,17ec <pwm_gpio_init+0x150>
    1702:	11300793          	li	a5,275
    1706:	10f50163          	beq	a0,a5,1808 <pwm_gpio_init+0x16c>
    170a:	8082                	ret
    170c:	21300793          	li	a5,531
    1710:	16f50263          	beq	a0,a5,1874 <pwm_gpio_init+0x1d8>
    1714:	02a7ec63          	bltu	a5,a0,174c <pwm_gpio_init+0xb0>
    1718:	20300793          	li	a5,515
    171c:	12f50063          	beq	a0,a5,183c <pwm_gpio_init+0x1a0>
    1720:	00a7eb63          	bltu	a5,a0,1736 <pwm_gpio_init+0x9a>
    1724:	20100793          	li	a5,513
    1728:	0ef50d63          	beq	a0,a5,1822 <pwm_gpio_init+0x186>
    172c:	20200793          	li	a5,514
    1730:	0ef50f63          	beq	a0,a5,182e <pwm_gpio_init+0x192>
    1734:	8082                	ret
    1736:	21100793          	li	a5,529
    173a:	10f50f63          	beq	a0,a5,1858 <pwm_gpio_init+0x1bc>
    173e:	12a7e463          	bltu	a5,a0,1866 <pwm_gpio_init+0x1ca>
    1742:	21000793          	li	a5,528
    1746:	10f50263          	beq	a0,a5,184a <pwm_gpio_init+0x1ae>
    174a:	8082                	ret
    174c:	30000793          	li	a5,768
    1750:	14f50763          	beq	a0,a5,189e <pwm_gpio_init+0x202>
    1754:	00a7eb63          	bltu	a5,a0,176a <pwm_gpio_init+0xce>
    1758:	22000793          	li	a5,544
    175c:	12f50363          	beq	a0,a5,1882 <pwm_gpio_init+0x1e6>
    1760:	22100793          	li	a5,545
    1764:	12f50663          	beq	a0,a5,1890 <pwm_gpio_init+0x1f4>
    1768:	8082                	ret
    176a:	30200793          	li	a5,770
    176e:	14f50663          	beq	a0,a5,18ba <pwm_gpio_init+0x21e>
    1772:	12f56d63          	bltu	a0,a5,18ac <pwm_gpio_init+0x210>
    1776:	30300793          	li	a5,771
    177a:	14f50763          	beq	a0,a5,18c8 <pwm_gpio_init+0x22c>
    177e:	8082                	ret
C:\Users\windows\Desktop\比赛\100 成渝版 带按键\17 110 舵机横向放置 比赛版\RED_BULL\Dual-core_Communication_Demo\MASTER\obj/../Libraries/seekfree_libraries/zf_pwm.c:40
    {

        case PWM1_CH1_A8:
            gpio_init(A8, GPO, 0, SPEED_50MHZ|OUT_AF_PP);
    1780:	31800693          	li	a3,792
    1784:	4601                	li	a2,0
    1786:	4585                	li	a1,1
    1788:	4521                	li	a0,8
C:\Users\windows\Desktop\比赛\100 成渝版 带按键\17 110 舵机横向放置 比赛版\RED_BULL\Dual-core_Communication_Demo\MASTER\obj/../Libraries/seekfree_libraries/zf_pwm.c:141
            break;
        case PWM4_CH3_B8:
            gpio_init(B8, GPO, 0, SPEED_50MHZ|OUT_AF_PP);
            break;
        case PWM4_CH4_B9:
            gpio_init(B9, GPO, 0, SPEED_50MHZ|OUT_AF_PP);
    178a:	bb19                	j	14a0 <gpio_init>
C:\Users\windows\Desktop\比赛\100 成渝版 带按键\17 110 舵机横向放置 比赛版\RED_BULL\Dual-core_Communication_Demo\MASTER\obj/../Libraries/seekfree_libraries/zf_pwm.c:43
            gpio_init(A9, GPO, 0, SPEED_50MHZ|OUT_AF_PP);
    178c:	31800693          	li	a3,792
    1790:	4601                	li	a2,0
    1792:	4585                	li	a1,1
    1794:	4525                	li	a0,9
    1796:	bfd5                	j	178a <pwm_gpio_init+0xee>
C:\Users\windows\Desktop\比赛\100 成渝版 带按键\17 110 舵机横向放置 比赛版\RED_BULL\Dual-core_Communication_Demo\MASTER\obj/../Libraries/seekfree_libraries/zf_pwm.c:46
            gpio_init(A10, GPO, 0, SPEED_50MHZ|OUT_AF_PP);
    1798:	31800693          	li	a3,792
    179c:	4601                	li	a2,0
    179e:	4585                	li	a1,1
    17a0:	4529                	li	a0,10
    17a2:	b7e5                	j	178a <pwm_gpio_init+0xee>
C:\Users\windows\Desktop\比赛\100 成渝版 带按键\17 110 舵机横向放置 比赛版\RED_BULL\Dual-core_Communication_Demo\MASTER\obj/../Libraries/seekfree_libraries/zf_pwm.c:49
            gpio_init(A11, GPO, 0, SPEED_50MHZ|OUT_AF_PP);
    17a4:	31800693          	li	a3,792
    17a8:	4601                	li	a2,0
    17aa:	4585                	li	a1,1
    17ac:	452d                	li	a0,11
    17ae:	bff1                	j	178a <pwm_gpio_init+0xee>
C:\Users\windows\Desktop\比赛\100 成渝版 带按键\17 110 舵机横向放置 比赛版\RED_BULL\Dual-core_Communication_Demo\MASTER\obj/../Libraries/seekfree_libraries/zf_pwm.c:73
            gpio_init(A0, GPO, 0, SPEED_50MHZ|OUT_AF_PP);
    17b0:	31800693          	li	a3,792
    17b4:	4601                	li	a2,0
    17b6:	4585                	li	a1,1
    17b8:	4501                	li	a0,0
    17ba:	bfc1                	j	178a <pwm_gpio_init+0xee>
C:\Users\windows\Desktop\比赛\100 成渝版 带按键\17 110 舵机横向放置 比赛版\RED_BULL\Dual-core_Communication_Demo\MASTER\obj/../Libraries/seekfree_libraries/zf_pwm.c:76
            gpio_init(A1, GPO, 0, SPEED_50MHZ|OUT_AF_PP);
    17bc:	31800693          	li	a3,792
    17c0:	4601                	li	a2,0
    17c2:	4585                	li	a1,1
    17c4:	4505                	li	a0,1
    17c6:	b7d1                	j	178a <pwm_gpio_init+0xee>
C:\Users\windows\Desktop\比赛\100 成渝版 带按键\17 110 舵机横向放置 比赛版\RED_BULL\Dual-core_Communication_Demo\MASTER\obj/../Libraries/seekfree_libraries/zf_pwm.c:79
            gpio_init(A2, GPO, 0, SPEED_50MHZ|OUT_AF_PP);
    17c8:	31800693          	li	a3,792
    17cc:	4601                	li	a2,0
    17ce:	4585                	li	a1,1
    17d0:	4509                	li	a0,2
    17d2:	bf65                	j	178a <pwm_gpio_init+0xee>
C:\Users\windows\Desktop\比赛\100 成渝版 带按键\17 110 舵机横向放置 比赛版\RED_BULL\Dual-core_Communication_Demo\MASTER\obj/../Libraries/seekfree_libraries/zf_pwm.c:82
            gpio_init(A3, GPO, 0, SPEED_50MHZ|OUT_AF_PP);
    17d4:	31800693          	li	a3,792
    17d8:	4601                	li	a2,0
    17da:	4585                	li	a1,1
    17dc:	450d                	li	a0,3
    17de:	b775                	j	178a <pwm_gpio_init+0xee>
C:\Users\windows\Desktop\比赛\100 成渝版 带按键\17 110 舵机横向放置 比赛版\RED_BULL\Dual-core_Communication_Demo\MASTER\obj/../Libraries/seekfree_libraries/zf_pwm.c:86
            gpio_init(A15, GPO, 0, SPEED_50MHZ|OUT_AF_PP);
    17e0:	31800693          	li	a3,792
    17e4:	4601                	li	a2,0
    17e6:	4585                	li	a1,1
    17e8:	453d                	li	a0,15
    17ea:	b745                	j	178a <pwm_gpio_init+0xee>
C:\Users\windows\Desktop\比赛\100 成渝版 带按键\17 110 舵机横向放置 比赛版\RED_BULL\Dual-core_Communication_Demo\MASTER\obj/../Libraries/seekfree_libraries/zf_pwm.c:89
            gpio_init(B3, GPO, 0, SPEED_50MHZ|OUT_AF_PP);
    17ec:	31800693          	li	a3,792
    17f0:	4601                	li	a2,0
    17f2:	4585                	li	a1,1
    17f4:	02300513          	li	a0,35
    17f8:	bf49                	j	178a <pwm_gpio_init+0xee>
C:\Users\windows\Desktop\比赛\100 成渝版 带按键\17 110 舵机横向放置 比赛版\RED_BULL\Dual-core_Communication_Demo\MASTER\obj/../Libraries/seekfree_libraries/zf_pwm.c:92
            gpio_init(B10, GPO, 0, SPEED_50MHZ|OUT_AF_PP);
    17fa:	31800693          	li	a3,792
    17fe:	4601                	li	a2,0
    1800:	4585                	li	a1,1
    1802:	02a00513          	li	a0,42
    1806:	b751                	j	178a <pwm_gpio_init+0xee>
C:\Users\windows\Desktop\比赛\100 成渝版 带按键\17 110 舵机横向放置 比赛版\RED_BULL\Dual-core_Communication_Demo\MASTER\obj/../Libraries/seekfree_libraries/zf_pwm.c:95
            gpio_init(B11, GPO, 0, SPEED_50MHZ|OUT_AF_PP);
    1808:	31800693          	li	a3,792
    180c:	4601                	li	a2,0
    180e:	4585                	li	a1,1
    1810:	02b00513          	li	a0,43
    1814:	bf9d                	j	178a <pwm_gpio_init+0xee>
C:\Users\windows\Desktop\比赛\100 成渝版 带按键\17 110 舵机横向放置 比赛版\RED_BULL\Dual-core_Communication_Demo\MASTER\obj/../Libraries/seekfree_libraries/zf_pwm.c:99
            gpio_init(A6, GPO, 0, SPEED_50MHZ|OUT_AF_PP);
    1816:	31800693          	li	a3,792
    181a:	4601                	li	a2,0
    181c:	4585                	li	a1,1
    181e:	4519                	li	a0,6
    1820:	b7ad                	j	178a <pwm_gpio_init+0xee>
C:\Users\windows\Desktop\比赛\100 成渝版 带按键\17 110 舵机横向放置 比赛版\RED_BULL\Dual-core_Communication_Demo\MASTER\obj/../Libraries/seekfree_libraries/zf_pwm.c:102
            gpio_init(A7, GPO, 0, SPEED_50MHZ|OUT_AF_PP);
    1822:	31800693          	li	a3,792
    1826:	4601                	li	a2,0
    1828:	4585                	li	a1,1
    182a:	451d                	li	a0,7
    182c:	bfb9                	j	178a <pwm_gpio_init+0xee>
C:\Users\windows\Desktop\比赛\100 成渝版 带按键\17 110 舵机横向放置 比赛版\RED_BULL\Dual-core_Communication_Demo\MASTER\obj/../Libraries/seekfree_libraries/zf_pwm.c:105
            gpio_init(B0, GPO, 0, SPEED_50MHZ|OUT_AF_PP);
    182e:	31800693          	li	a3,792
    1832:	4601                	li	a2,0
    1834:	4585                	li	a1,1
    1836:	02000513          	li	a0,32
    183a:	bf81                	j	178a <pwm_gpio_init+0xee>
C:\Users\windows\Desktop\比赛\100 成渝版 带按键\17 110 舵机横向放置 比赛版\RED_BULL\Dual-core_Communication_Demo\MASTER\obj/../Libraries/seekfree_libraries/zf_pwm.c:108
            gpio_init(B1, GPO, 0, SPEED_50MHZ|OUT_AF_PP);
    183c:	31800693          	li	a3,792
    1840:	4601                	li	a2,0
    1842:	4585                	li	a1,1
    1844:	02100513          	li	a0,33
    1848:	b789                	j	178a <pwm_gpio_init+0xee>
C:\Users\windows\Desktop\比赛\100 成渝版 带按键\17 110 舵机横向放置 比赛版\RED_BULL\Dual-core_Communication_Demo\MASTER\obj/../Libraries/seekfree_libraries/zf_pwm.c:112
            gpio_init(C6, GPO, 0, SPEED_50MHZ|OUT_AF_PP);
    184a:	31800693          	li	a3,792
    184e:	4601                	li	a2,0
    1850:	4585                	li	a1,1
    1852:	04600513          	li	a0,70
    1856:	bf15                	j	178a <pwm_gpio_init+0xee>
C:\Users\windows\Desktop\比赛\100 成渝版 带按键\17 110 舵机横向放置 比赛版\RED_BULL\Dual-core_Communication_Demo\MASTER\obj/../Libraries/seekfree_libraries/zf_pwm.c:115
            gpio_init(C7, GPO, 0, SPEED_50MHZ|OUT_AF_PP);
    1858:	31800693          	li	a3,792
    185c:	4601                	li	a2,0
    185e:	4585                	li	a1,1
    1860:	04700513          	li	a0,71
    1864:	b71d                	j	178a <pwm_gpio_init+0xee>
C:\Users\windows\Desktop\比赛\100 成渝版 带按键\17 110 舵机横向放置 比赛版\RED_BULL\Dual-core_Communication_Demo\MASTER\obj/../Libraries/seekfree_libraries/zf_pwm.c:118
            gpio_init(C8, GPO, 0, SPEED_50MHZ|OUT_AF_PP);
    1866:	31800693          	li	a3,792
    186a:	4601                	li	a2,0
    186c:	4585                	li	a1,1
    186e:	04800513          	li	a0,72
    1872:	bf21                	j	178a <pwm_gpio_init+0xee>
C:\Users\windows\Desktop\比赛\100 成渝版 带按键\17 110 舵机横向放置 比赛版\RED_BULL\Dual-core_Communication_Demo\MASTER\obj/../Libraries/seekfree_libraries/zf_pwm.c:121
            gpio_init(C9, GPO, 0, SPEED_50MHZ|OUT_AF_PP);
    1874:	31800693          	li	a3,792
    1878:	4601                	li	a2,0
    187a:	4585                	li	a1,1
    187c:	04900513          	li	a0,73
    1880:	b729                	j	178a <pwm_gpio_init+0xee>
C:\Users\windows\Desktop\比赛\100 成渝版 带按键\17 110 舵机横向放置 比赛版\RED_BULL\Dual-core_Communication_Demo\MASTER\obj/../Libraries/seekfree_libraries/zf_pwm.c:125
            gpio_init(B4, GPO, 0, SPEED_50MHZ|OUT_AF_PP);
    1882:	31800693          	li	a3,792
    1886:	4601                	li	a2,0
    1888:	4585                	li	a1,1
    188a:	02400513          	li	a0,36
    188e:	bdf5                	j	178a <pwm_gpio_init+0xee>
C:\Users\windows\Desktop\比赛\100 成渝版 带按键\17 110 舵机横向放置 比赛版\RED_BULL\Dual-core_Communication_Demo\MASTER\obj/../Libraries/seekfree_libraries/zf_pwm.c:128
            gpio_init(B5, GPO, 0, SPEED_50MHZ|OUT_AF_PP);
    1890:	31800693          	li	a3,792
    1894:	4601                	li	a2,0
    1896:	4585                	li	a1,1
    1898:	02500513          	li	a0,37
    189c:	b5fd                	j	178a <pwm_gpio_init+0xee>
C:\Users\windows\Desktop\比赛\100 成渝版 带按键\17 110 舵机横向放置 比赛版\RED_BULL\Dual-core_Communication_Demo\MASTER\obj/../Libraries/seekfree_libraries/zf_pwm.c:132
            gpio_init(B6, GPO, 0, SPEED_50MHZ|OUT_AF_PP);
    189e:	31800693          	li	a3,792
    18a2:	4601                	li	a2,0
    18a4:	4585                	li	a1,1
    18a6:	02600513          	li	a0,38
    18aa:	b5c5                	j	178a <pwm_gpio_init+0xee>
C:\Users\windows\Desktop\比赛\100 成渝版 带按键\17 110 舵机横向放置 比赛版\RED_BULL\Dual-core_Communication_Demo\MASTER\obj/../Libraries/seekfree_libraries/zf_pwm.c:135
            gpio_init(B7, GPO, 0, SPEED_50MHZ|OUT_AF_PP);
    18ac:	31800693          	li	a3,792
    18b0:	4601                	li	a2,0
    18b2:	4585                	li	a1,1
    18b4:	02700513          	li	a0,39
    18b8:	bdc9                	j	178a <pwm_gpio_init+0xee>
C:\Users\windows\Desktop\比赛\100 成渝版 带按键\17 110 舵机横向放置 比赛版\RED_BULL\Dual-core_Communication_Demo\MASTER\obj/../Libraries/seekfree_libraries/zf_pwm.c:138
            gpio_init(B8, GPO, 0, SPEED_50MHZ|OUT_AF_PP);
    18ba:	31800693          	li	a3,792
    18be:	4601                	li	a2,0
    18c0:	4585                	li	a1,1
    18c2:	02800513          	li	a0,40
    18c6:	b5d1                	j	178a <pwm_gpio_init+0xee>
C:\Users\windows\Desktop\比赛\100 成渝版 带按键\17 110 舵机横向放置 比赛版\RED_BULL\Dual-core_Communication_Demo\MASTER\obj/../Libraries/seekfree_libraries/zf_pwm.c:141
            gpio_init(B9, GPO, 0, SPEED_50MHZ|OUT_AF_PP);
    18c8:	31800693          	li	a3,792
    18cc:	4601                	li	a2,0
    18ce:	4585                	li	a1,1
    18d0:	02900513          	li	a0,41
    18d4:	bd5d                	j	178a <pwm_gpio_init+0xee>

000018d6 <pwm_init>:
pwm_init():
C:\Users\windows\Desktop\比赛\100 成渝版 带按键\17 110 舵机横向放置 比赛版\RED_BULL\Dual-core_Communication_Demo\MASTER\obj/../Libraries/seekfree_libraries/zf_pwm.c:165
//  @return     void
//  Sample usage:               pwm_init(PWM1_CH1_A8, 50, 5000);   //初始化PWM1 通道1 使用引脚A8  输出PWM频率50HZ   占空比为百分之 5000/PWM_DUTY_MAX*100
//                              PWM_DUTY_MAX在zf_pwm.h文件中 默认为50000
//-------------------------------------------------------------------------------------------------------------------
void pwm_init(PWMCH_enum pwmch, uint32 freq, uint32 duty)
{
    18d6:	7139                	addi	sp,sp,-64
    18d8:	da26                	sw	s1,52(sp)
    18da:	84aa                	mv	s1,a0
    18dc:	dc22                	sw	s0,56(sp)
C:\Users\windows\Desktop\比赛\100 成渝版 带按键\17 110 舵机横向放置 比赛版\RED_BULL\Dual-core_Communication_Demo\MASTER\obj/../Libraries/seekfree_libraries/zf_pwm.c:174
    uint16 period_temp;                                         //周期值
    uint16 freq_div = 0;                                        //分频值

    pwm_gpio_init(pwmch);                                       //PWM引脚初始化

    if((pwmch >> 8) == 0x00)
    18de:	0084d413          	srli	s0,s1,0x8
C:\Users\windows\Desktop\比赛\100 成渝版 带按键\17 110 舵机横向放置 比赛版\RED_BULL\Dual-core_Communication_Demo\MASTER\obj/../Libraries/seekfree_libraries/zf_pwm.c:165
{
    18e2:	d84a                	sw	s2,48(sp)
    18e4:	d64e                	sw	s3,44(sp)
    18e6:	de06                	sw	ra,60(sp)
    18e8:	89ae                	mv	s3,a1
    18ea:	8932                	mv	s2,a2
C:\Users\windows\Desktop\比赛\100 成渝版 带按键\17 110 舵机横向放置 比赛版\RED_BULL\Dual-core_Communication_Demo\MASTER\obj/../Libraries/seekfree_libraries/zf_pwm.c:172
    pwm_gpio_init(pwmch);                                       //PWM引脚初始化
    18ec:	3b45                	jal	169c <pwm_gpio_init>
C:\Users\windows\Desktop\比赛\100 成渝版 带按键\17 110 舵机横向放置 比赛版\RED_BULL\Dual-core_Communication_Demo\MASTER\obj/../Libraries/seekfree_libraries/zf_pwm.c:174
    if((pwmch >> 8) == 0x00)
    18ee:	0e041c63          	bnez	s0,19e6 <pwm_init+0x110>
C:\Users\windows\Desktop\比赛\100 成渝版 带按键\17 110 舵机横向放置 比赛版\RED_BULL\Dual-core_Communication_Demo\MASTER\obj/../Libraries/seekfree_libraries/zf_pwm.c:175
        RCC_APB2PeriphClockCmd(RCC_APB2Periph_TIM1, ENABLE);    //使能定时器1时钟
    18f2:	6505                	lui	a0,0x1
    18f4:	4585                	li	a1,1
    18f6:	80050513          	addi	a0,a0,-2048 # 800 <__stack_size>
    18fa:	c8aff0ef          	jal	ra,d84 <RCC_APB2PeriphClockCmd>
C:\Users\windows\Desktop\比赛\100 成渝版 带按键\17 110 舵机横向放置 比赛版\RED_BULL\Dual-core_Communication_Demo\MASTER\obj/../Libraries/seekfree_libraries/zf_pwm.c:183
    else if((pwmch >> 8) == 0x02)
        RCC_APB1PeriphClockCmd(RCC_APB1Periph_TIM3, ENABLE);    //使能定时器3时钟
    else if((pwmch >> 8) == 0x03)
        RCC_APB1PeriphClockCmd(RCC_APB1Periph_TIM4, ENABLE);    //使能定时器4时钟

    RCC_APB2PeriphClockCmd(RCC_APB2Periph_AFIO, ENABLE);        //使能AFIO复用功能模块时钟
    18fe:	4585                	li	a1,1
    1900:	4505                	li	a0,1
    1902:	c82ff0ef          	jal	ra,d84 <RCC_APB2PeriphClockCmd>
C:\Users\windows\Desktop\比赛\100 成渝版 带按键\17 110 舵机横向放置 比赛版\RED_BULL\Dual-core_Communication_Demo\MASTER\obj/../Libraries/seekfree_libraries/zf_pwm.c:186

    //引脚重映射
    if((pwmch >> 4) == 0x10)        //PWM1的部分重映射
    1906:	0044d713          	srli	a4,s1,0x4
    190a:	47c1                	li	a5,16
    190c:	10f71163          	bne	a4,a5,1a0e <pwm_init+0x138>
C:\Users\windows\Desktop\比赛\100 成渝版 带按键\17 110 舵机横向放置 比赛版\RED_BULL\Dual-core_Communication_Demo\MASTER\obj/../Libraries/seekfree_libraries/zf_pwm.c:187
        GPIO_PinRemapConfig(GPIO_PartialRemap_TIM1, ENABLE);
    1910:	00160537          	lui	a0,0x160
    1914:	4585                	li	a1,1
    1916:	04050513          	addi	a0,a0,64 # 160040 <_data_lma+0x15c1b8>
C:\Users\windows\Desktop\比赛\100 成渝版 带按键\17 110 舵机横向放置 比赛版\RED_BULL\Dual-core_Communication_Demo\MASTER\obj/../Libraries/seekfree_libraries/zf_pwm.c:193
    else if((pwmch >> 4) == 0x11)   //PWM2的完全重映射
        GPIO_PinRemapConfig(GPIO_FullRemap_TIM2, ENABLE);
    else if((pwmch >> 4) == 0x21)   //PWM3的完全重映射
        GPIO_PinRemapConfig(GPIO_FullRemap_TIM3, ENABLE);
    else if((pwmch >> 4) == 0x22)   //PWM3的部分重映射
        GPIO_PinRemapConfig(GPIO_PartialRemap_TIM3, ENABLE);
    191a:	aa4ff0ef          	jal	ra,bbe <GPIO_PinRemapConfig>
C:\Users\windows\Desktop\比赛\100 成渝版 带按键\17 110 舵机横向放置 比赛版\RED_BULL\Dual-core_Communication_Demo\MASTER\obj/../Libraries/seekfree_libraries/zf_pwm.c:196

    //获取系统主频
    sys_clk = 8000000 * (((RCC->CFGR0 >> 18)&0x0F) + 2);
    191e:	400217b7          	lui	a5,0x40021
    1922:	43dc                	lw	a5,4(a5)
    1924:	007a1737          	lui	a4,0x7a1
    1928:	20070713          	addi	a4,a4,512 # 7a1200 <_data_lma+0x79d378>
    192c:	83c9                	srli	a5,a5,0x12
    192e:	8bbd                	andi	a5,a5,15
    1930:	02e787b3          	mul	a5,a5,a4
    1934:	00f42737          	lui	a4,0xf42
    1938:	40070713          	addi	a4,a4,1024 # f42400 <_data_lma+0xf3e578>
C:\Users\windows\Desktop\比赛\100 成渝版 带按键\17 110 舵机横向放置 比赛版\RED_BULL\Dual-core_Communication_Demo\MASTER\obj/../Libraries/seekfree_libraries/zf_pwm.c:221
    TIM_OCInitStructure.TIM_OCIdleState = TIM_OCIdleState_Reset;
    TIM_OCInitStructure.TIM_OCNIdleState = TIM_OCIdleState_Reset;



    TIM_TimeBaseInit(((TIM_TypeDef *) TIMERN[pwmch>>8]), &TIM_TimeBaseStructure);  //根据TIM_TimeBaseInitStruct中指定的参数初始化TIMx的时间基数单位
    193c:	040a                	slli	s0,s0,0x2
C:\Users\windows\Desktop\比赛\100 成渝版 带按键\17 110 舵机横向放置 比赛版\RED_BULL\Dual-core_Communication_Demo\MASTER\obj/../Libraries/seekfree_libraries/zf_pwm.c:231
//        {
//            TIM_OCInitStructure.TIM_OutputState = TIM_OutputState_Enable;   //P通道
//            TIM_OCInitStructure.TIM_OutputNState = TIM_OutputState_Enable;  //N通道
//        }

    if((pwmch & 0x03) == 0x00)                                          //通道选择
    193e:	888d                	andi	s1,s1,3
C:\Users\windows\Desktop\比赛\100 成渝版 带按键\17 110 舵机横向放置 比赛版\RED_BULL\Dual-core_Communication_Demo\MASTER\obj/../Libraries/seekfree_libraries/zf_pwm.c:205
    TIM_TimeBaseStructure.TIM_ClockDivision = TIM_CKD_DIV1;                 //设置时钟分割:TDTS = Tck_tim
    1940:	00011523          	sh	zero,10(sp)
C:\Users\windows\Desktop\比赛\100 成渝版 带按键\17 110 舵机横向放置 比赛版\RED_BULL\Dual-core_Communication_Demo\MASTER\obj/../Libraries/seekfree_libraries/zf_pwm.c:206
    TIM_TimeBaseStructure.TIM_CounterMode = TIM_CounterMode_Up;             //TIM向上计数模式
    1944:	00011323          	sh	zero,6(sp)
C:\Users\windows\Desktop\比赛\100 成渝版 带按键\17 110 舵机横向放置 比赛版\RED_BULL\Dual-core_Communication_Demo\MASTER\obj/../Libraries/seekfree_libraries/zf_pwm.c:207
    TIM_TimeBaseStructure.TIM_RepetitionCounter = 0;
    1948:	00010623          	sb	zero,12(sp)
C:\Users\windows\Desktop\比赛\100 成渝版 带按键\17 110 舵机横向放置 比赛版\RED_BULL\Dual-core_Communication_Demo\MASTER\obj/../Libraries/seekfree_libraries/zf_pwm.c:212
    TIM_OCInitStructure.TIM_OutputNState = TIM_OutputState_Disable;
    194c:	00011a23          	sh	zero,20(sp)
C:\Users\windows\Desktop\比赛\100 成渝版 带按键\17 110 舵机横向放置 比赛版\RED_BULL\Dual-core_Communication_Demo\MASTER\obj/../Libraries/seekfree_libraries/zf_pwm.c:216
    TIM_OCInitStructure.TIM_OCIdleState = TIM_OCIdleState_Reset;
    1950:	ce02                	sw	zero,28(sp)
C:\Users\windows\Desktop\比赛\100 成渝版 带按键\17 110 舵机横向放置 比赛版\RED_BULL\Dual-core_Communication_Demo\MASTER\obj/../Libraries/seekfree_libraries/zf_pwm.c:196
    sys_clk = 8000000 * (((RCC->CFGR0 >> 18)&0x0F) + 2);
    1952:	97ba                	add	a5,a5,a4
    1954:	84f1a423          	sw	a5,-1976(gp) # 20000058 <sys_clk>
C:\Users\windows\Desktop\比赛\100 成渝版 带按键\17 110 舵机横向放置 比赛版\RED_BULL\Dual-core_Communication_Demo\MASTER\obj/../Libraries/seekfree_libraries/zf_pwm.c:198
    freq_div = (uint16)((sys_clk / freq) >> 16);                            //多少分频
    1958:	0337d733          	divu	a4,a5,s3
    195c:	8341                	srli	a4,a4,0x10
C:\Users\windows\Desktop\比赛\100 成渝版 带按键\17 110 舵机横向放置 比赛版\RED_BULL\Dual-core_Communication_Demo\MASTER\obj/../Libraries/seekfree_libraries/zf_pwm.c:199
    period_temp = (uint16)(sys_clk/(freq*(freq_div + 1)));                  //周期
    195e:	00170593          	addi	a1,a4,1
    1962:	033585b3          	mul	a1,a1,s3
C:\Users\windows\Desktop\比赛\100 成渝版 带按键\17 110 舵机横向放置 比赛版\RED_BULL\Dual-core_Communication_Demo\MASTER\obj/../Libraries/seekfree_libraries/zf_pwm.c:198
    freq_div = (uint16)((sys_clk / freq) >> 16);                            //多少分频
    1966:	00e11223          	sh	a4,4(sp)
C:\Users\windows\Desktop\比赛\100 成渝版 带按键\17 110 舵机横向放置 比赛版\RED_BULL\Dual-core_Communication_Demo\MASTER\obj/../Libraries/seekfree_libraries/zf_pwm.c:210
    TIM_OCInitStructure.TIM_OCMode = TIM_OCMode_PWM2;                       //选择定时器模式:TIM脉冲宽度调制模式2
    196a:	6741                	lui	a4,0x10
    196c:	07070713          	addi	a4,a4,112 # 10070 <_data_lma+0xc1e8>
    1970:	c83a                	sw	a4,16(sp)
C:\Users\windows\Desktop\比赛\100 成渝版 带按键\17 110 舵机横向放置 比赛版\RED_BULL\Dual-core_Communication_Demo\MASTER\obj/../Libraries/seekfree_libraries/zf_pwm.c:200
    match_temp = period_temp * duty / PWM_DUTY_MAX;                         //占空比
    1972:	6709                	lui	a4,0x2
    1974:	71070713          	addi	a4,a4,1808 # 2710 <__adddf3+0x3c4>
C:\Users\windows\Desktop\比赛\100 成渝版 带按键\17 110 舵机横向放置 比赛版\RED_BULL\Dual-core_Communication_Demo\MASTER\obj/../Libraries/seekfree_libraries/zf_pwm.c:199
    period_temp = (uint16)(sys_clk/(freq*(freq_div + 1)));                  //周期
    1978:	02b7d7b3          	divu	a5,a5,a1
C:\Users\windows\Desktop\比赛\100 成渝版 带按键\17 110 舵机横向放置 比赛版\RED_BULL\Dual-core_Communication_Demo\MASTER\obj/../Libraries/seekfree_libraries/zf_pwm.c:221
    TIM_TimeBaseInit(((TIM_TypeDef *) TIMERN[pwmch>>8]), &TIM_TimeBaseStructure);  //根据TIM_TimeBaseInitStruct中指定的参数初始化TIMx的时间基数单位
    197c:	004c                	addi	a1,sp,4
C:\Users\windows\Desktop\比赛\100 成渝版 带按键\17 110 舵机横向放置 比赛版\RED_BULL\Dual-core_Communication_Demo\MASTER\obj/../Libraries/seekfree_libraries/zf_pwm.c:203
    TIM_TimeBaseStructure.TIM_Period = period_temp - 1;                     //设置在下一个更新事件装入活动的自动重装载寄存器周期的值
    197e:	fff78693          	addi	a3,a5,-1 # 40020fff <_eusrstack+0x2001bfff>
C:\Users\windows\Desktop\比赛\100 成渝版 带按键\17 110 舵机横向放置 比赛版\RED_BULL\Dual-core_Communication_Demo\MASTER\obj/../Libraries/seekfree_libraries/zf_pwm.c:200
    match_temp = period_temp * duty / PWM_DUTY_MAX;                         //占空比
    1982:	07c2                	slli	a5,a5,0x10
    1984:	83c1                	srli	a5,a5,0x10
    1986:	032787b3          	mul	a5,a5,s2
C:\Users\windows\Desktop\比赛\100 成渝版 带按键\17 110 舵机横向放置 比赛版\RED_BULL\Dual-core_Communication_Demo\MASTER\obj/../Libraries/seekfree_libraries/zf_pwm.c:203
    TIM_TimeBaseStructure.TIM_Period = period_temp - 1;                     //设置在下一个更新事件装入活动的自动重装载寄存器周期的值
    198a:	00d11423          	sh	a3,8(sp)
C:\Users\windows\Desktop\比赛\100 成渝版 带按键\17 110 舵机横向放置 比赛版\RED_BULL\Dual-core_Communication_Demo\MASTER\obj/../Libraries/seekfree_libraries/zf_pwm.c:200
    match_temp = period_temp * duty / PWM_DUTY_MAX;                         //占空比
    198e:	02e7d7b3          	divu	a5,a5,a4
    1992:	00f11b23          	sh	a5,22(sp)
C:\Users\windows\Desktop\比赛\100 成渝版 带按键\17 110 舵机横向放置 比赛版\RED_BULL\Dual-core_Communication_Demo\MASTER\obj/../Libraries/seekfree_libraries/zf_pwm.c:214
    TIM_OCInitStructure.TIM_OCPolarity = TIM_OCPolarity_Low;                //输出极性:TIM输出比较极性高
    1996:	000207b7          	lui	a5,0x20
    199a:	0789                	addi	a5,a5,2
    199c:	cc3e                	sw	a5,24(sp)
C:\Users\windows\Desktop\比赛\100 成渝版 带按键\17 110 舵机横向放置 比赛版\RED_BULL\Dual-core_Communication_Demo\MASTER\obj/../Libraries/seekfree_libraries/zf_pwm.c:221
    TIM_TimeBaseInit(((TIM_TypeDef *) TIMERN[pwmch>>8]), &TIM_TimeBaseStructure);  //根据TIM_TimeBaseInitStruct中指定的参数初始化TIMx的时间基数单位
    199e:	6791                	lui	a5,0x4
    19a0:	cb078793          	addi	a5,a5,-848 # 3cb0 <TIMERN>
    19a4:	943e                	add	s0,s0,a5
    19a6:	4000                	lw	s0,0(s0)
    19a8:	8522                	mv	a0,s0
    19aa:	c16ff0ef          	jal	ra,dc0 <TIM_TimeBaseInit>
C:\Users\windows\Desktop\比赛\100 成渝版 带按键\17 110 舵机横向放置 比赛版\RED_BULL\Dual-core_Communication_Demo\MASTER\obj/../Libraries/seekfree_libraries/zf_pwm.c:231
    if((pwmch & 0x03) == 0x00)                                          //通道选择
    19ae:	ecc9                	bnez	s1,1a48 <pwm_init+0x172>
C:\Users\windows\Desktop\比赛\100 成渝版 带按键\17 110 舵机横向放置 比赛版\RED_BULL\Dual-core_Communication_Demo\MASTER\obj/../Libraries/seekfree_libraries/zf_pwm.c:233
    {
        TIM_OC1Init(((TIM_TypeDef *) TIMERN[pwmch>>8]), &TIM_OCInitStructure );                       //定时器通道1初始化
    19b0:	080c                	addi	a1,sp,16
    19b2:	8522                	mv	a0,s0
    19b4:	c84ff0ef          	jal	ra,e38 <TIM_OC1Init>
C:\Users\windows\Desktop\比赛\100 成渝版 带按键\17 110 舵机横向放置 比赛版\RED_BULL\Dual-core_Communication_Demo\MASTER\obj/../Libraries/seekfree_libraries/zf_pwm.c:234
        TIM_OC1PreloadConfig(((TIM_TypeDef *) TIMERN[pwmch>>8]), TIM_OCPreload_Enable);               //定时器预装载配置
    19b8:	45a1                	li	a1,8
    19ba:	8522                	mv	a0,s0
    19bc:	f7cff0ef          	jal	ra,1138 <TIM_OC1PreloadConfig>
C:\Users\windows\Desktop\比赛\100 成渝版 带按键\17 110 舵机横向放置 比赛版\RED_BULL\Dual-core_Communication_Demo\MASTER\obj/../Libraries/seekfree_libraries/zf_pwm.c:235
        TIM_OC1FastConfig(((TIM_TypeDef *) TIMERN[pwmch>>8]), TIM_OC1FE);                             //比较捕获通道快速使能
    19c0:	4591                	li	a1,4
    19c2:	8522                	mv	a0,s0
    19c4:	fccff0ef          	jal	ra,1190 <TIM_OC1FastConfig>
C:\Users\windows\Desktop\比赛\100 成渝版 带按键\17 110 舵机横向放置 比赛版\RED_BULL\Dual-core_Communication_Demo\MASTER\obj/../Libraries/seekfree_libraries/zf_pwm.c:256
        TIM_OC4Init(((TIM_TypeDef *) TIMERN[pwmch>>8]), &TIM_OCInitStructure );
        TIM_OC4PreloadConfig(((TIM_TypeDef *) TIMERN[pwmch>>8]), TIM_OCPreload_Enable);
        TIM_OC4FastConfig(((TIM_TypeDef *) TIMERN[pwmch>>8]), TIM_OC4FE);                             //比较捕获通道快速使能
    }

    TIM_Cmd(((TIM_TypeDef *) TIMERN[pwmch>>8]), ENABLE);                                              //定时器使能
    19c8:	8522                	mv	a0,s0
    19ca:	4585                	li	a1,1
    19cc:	ef4ff0ef          	jal	ra,10c0 <TIM_Cmd>
C:\Users\windows\Desktop\比赛\100 成渝版 带按键\17 110 舵机横向放置 比赛版\RED_BULL\Dual-core_Communication_Demo\MASTER\obj/../Libraries/seekfree_libraries/zf_pwm.c:257
    TIM_CtrlPWMOutputs(((TIM_TypeDef *) TIMERN[pwmch>>8]), ENABLE );
    19d0:	8522                	mv	a0,s0
    19d2:	4585                	li	a1,1
    19d4:	f08ff0ef          	jal	ra,10dc <TIM_CtrlPWMOutputs>
C:\Users\windows\Desktop\比赛\100 成渝版 带按键\17 110 舵机横向放置 比赛版\RED_BULL\Dual-core_Communication_Demo\MASTER\obj/../Libraries/seekfree_libraries/zf_pwm.c:259
    //TIM_ARRPreloadConfig( TIM1, ENABLE );
}
    19d8:	50f2                	lw	ra,60(sp)
    19da:	5462                	lw	s0,56(sp)
    19dc:	54d2                	lw	s1,52(sp)
    19de:	5942                	lw	s2,48(sp)
    19e0:	59b2                	lw	s3,44(sp)
    19e2:	6121                	addi	sp,sp,64
    19e4:	8082                	ret
C:\Users\windows\Desktop\比赛\100 成渝版 带按键\17 110 舵机横向放置 比赛版\RED_BULL\Dual-core_Communication_Demo\MASTER\obj/../Libraries/seekfree_libraries/zf_pwm.c:176
    else if((pwmch >> 8) == 0x01)
    19e6:	4785                	li	a5,1
    19e8:	00f41763          	bne	s0,a5,19f6 <pwm_init+0x120>
C:\Users\windows\Desktop\比赛\100 成渝版 带按键\17 110 舵机横向放置 比赛版\RED_BULL\Dual-core_Communication_Demo\MASTER\obj/../Libraries/seekfree_libraries/zf_pwm.c:177
        RCC_APB1PeriphClockCmd(RCC_APB1Periph_TIM2, ENABLE);    //使能定时器2时钟
    19ec:	4585                	li	a1,1
    19ee:	4505                	li	a0,1
C:\Users\windows\Desktop\比赛\100 成渝版 带按键\17 110 舵机横向放置 比赛版\RED_BULL\Dual-core_Communication_Demo\MASTER\obj/../Libraries/seekfree_libraries/zf_pwm.c:181
        RCC_APB1PeriphClockCmd(RCC_APB1Periph_TIM4, ENABLE);    //使能定时器4时钟
    19f0:	bb2ff0ef          	jal	ra,da2 <RCC_APB1PeriphClockCmd>
    19f4:	b729                	j	18fe <pwm_init+0x28>
C:\Users\windows\Desktop\比赛\100 成渝版 带按键\17 110 舵机横向放置 比赛版\RED_BULL\Dual-core_Communication_Demo\MASTER\obj/../Libraries/seekfree_libraries/zf_pwm.c:178
    else if((pwmch >> 8) == 0x02)
    19f6:	4789                	li	a5,2
    19f8:	00f41563          	bne	s0,a5,1a02 <pwm_init+0x12c>
C:\Users\windows\Desktop\比赛\100 成渝版 带按键\17 110 舵机横向放置 比赛版\RED_BULL\Dual-core_Communication_Demo\MASTER\obj/../Libraries/seekfree_libraries/zf_pwm.c:179
        RCC_APB1PeriphClockCmd(RCC_APB1Periph_TIM3, ENABLE);    //使能定时器3时钟
    19fc:	4585                	li	a1,1
    19fe:	4509                	li	a0,2
    1a00:	bfc5                	j	19f0 <pwm_init+0x11a>
C:\Users\windows\Desktop\比赛\100 成渝版 带按键\17 110 舵机横向放置 比赛版\RED_BULL\Dual-core_Communication_Demo\MASTER\obj/../Libraries/seekfree_libraries/zf_pwm.c:180
    else if((pwmch >> 8) == 0x03)
    1a02:	478d                	li	a5,3
    1a04:	eef41de3          	bne	s0,a5,18fe <pwm_init+0x28>
C:\Users\windows\Desktop\比赛\100 成渝版 带按键\17 110 舵机横向放置 比赛版\RED_BULL\Dual-core_Communication_Demo\MASTER\obj/../Libraries/seekfree_libraries/zf_pwm.c:181
        RCC_APB1PeriphClockCmd(RCC_APB1Periph_TIM4, ENABLE);    //使能定时器4时钟
    1a08:	4585                	li	a1,1
    1a0a:	4511                	li	a0,4
    1a0c:	b7d5                	j	19f0 <pwm_init+0x11a>
C:\Users\windows\Desktop\比赛\100 成渝版 带按键\17 110 舵机横向放置 比赛版\RED_BULL\Dual-core_Communication_Demo\MASTER\obj/../Libraries/seekfree_libraries/zf_pwm.c:188
    else if((pwmch >> 4) == 0x11)   //PWM2的完全重映射
    1a0e:	47c5                	li	a5,17
    1a10:	00f71863          	bne	a4,a5,1a20 <pwm_init+0x14a>
C:\Users\windows\Desktop\比赛\100 成渝版 带按键\17 110 舵机横向放置 比赛版\RED_BULL\Dual-core_Communication_Demo\MASTER\obj/../Libraries/seekfree_libraries/zf_pwm.c:189
        GPIO_PinRemapConfig(GPIO_FullRemap_TIM2, ENABLE);
    1a14:	00180537          	lui	a0,0x180
    1a18:	4585                	li	a1,1
    1a1a:	30050513          	addi	a0,a0,768 # 180300 <_data_lma+0x17c478>
    1a1e:	bdf5                	j	191a <pwm_init+0x44>
C:\Users\windows\Desktop\比赛\100 成渝版 带按键\17 110 舵机横向放置 比赛版\RED_BULL\Dual-core_Communication_Demo\MASTER\obj/../Libraries/seekfree_libraries/zf_pwm.c:190
    else if((pwmch >> 4) == 0x21)   //PWM3的完全重映射
    1a20:	02100793          	li	a5,33
    1a24:	00f71863          	bne	a4,a5,1a34 <pwm_init+0x15e>
C:\Users\windows\Desktop\比赛\100 成渝版 带按键\17 110 舵机横向放置 比赛版\RED_BULL\Dual-core_Communication_Demo\MASTER\obj/../Libraries/seekfree_libraries/zf_pwm.c:191
        GPIO_PinRemapConfig(GPIO_FullRemap_TIM3, ENABLE);
    1a28:	001a1537          	lui	a0,0x1a1
    1a2c:	4585                	li	a1,1
    1a2e:	c0050513          	addi	a0,a0,-1024 # 1a0c00 <_data_lma+0x19cd78>
    1a32:	b5e5                	j	191a <pwm_init+0x44>
C:\Users\windows\Desktop\比赛\100 成渝版 带按键\17 110 舵机横向放置 比赛版\RED_BULL\Dual-core_Communication_Demo\MASTER\obj/../Libraries/seekfree_libraries/zf_pwm.c:192
    else if((pwmch >> 4) == 0x22)   //PWM3的部分重映射
    1a34:	02200793          	li	a5,34
    1a38:	eef713e3          	bne	a4,a5,191e <pwm_init+0x48>
C:\Users\windows\Desktop\比赛\100 成渝版 带按键\17 110 舵机横向放置 比赛版\RED_BULL\Dual-core_Communication_Demo\MASTER\obj/../Libraries/seekfree_libraries/zf_pwm.c:193
        GPIO_PinRemapConfig(GPIO_PartialRemap_TIM3, ENABLE);
    1a3c:	001a1537          	lui	a0,0x1a1
    1a40:	4585                	li	a1,1
    1a42:	80050513          	addi	a0,a0,-2048 # 1a0800 <_data_lma+0x19c978>
    1a46:	bdd1                	j	191a <pwm_init+0x44>
C:\Users\windows\Desktop\比赛\100 成渝版 带按键\17 110 舵机横向放置 比赛版\RED_BULL\Dual-core_Communication_Demo\MASTER\obj/../Libraries/seekfree_libraries/zf_pwm.c:237
    else if((pwmch & 0x03) == 0x01)
    1a48:	4785                	li	a5,1
    1a4a:	02f49063          	bne	s1,a5,1a6a <pwm_init+0x194>
C:\Users\windows\Desktop\比赛\100 成渝版 带按键\17 110 舵机横向放置 比赛版\RED_BULL\Dual-core_Communication_Demo\MASTER\obj/../Libraries/seekfree_libraries/zf_pwm.c:239
        TIM_OC2Init(((TIM_TypeDef *) TIMERN[pwmch>>8]), &TIM_OCInitStructure );
    1a4e:	080c                	addi	a1,sp,16
    1a50:	8522                	mv	a0,s0
    1a52:	c6eff0ef          	jal	ra,ec0 <TIM_OC2Init>
C:\Users\windows\Desktop\比赛\100 成渝版 带按键\17 110 舵机横向放置 比赛版\RED_BULL\Dual-core_Communication_Demo\MASTER\obj/../Libraries/seekfree_libraries/zf_pwm.c:240
        TIM_OC2PreloadConfig(((TIM_TypeDef *) TIMERN[pwmch>>8]), TIM_OCPreload_Enable);
    1a56:	8522                	mv	a0,s0
    1a58:	45a1                	li	a1,8
    1a5a:	ef0ff0ef          	jal	ra,114a <TIM_OC2PreloadConfig>
C:\Users\windows\Desktop\比赛\100 成渝版 带按键\17 110 舵机横向放置 比赛版\RED_BULL\Dual-core_Communication_Demo\MASTER\obj/../Libraries/seekfree_libraries/zf_pwm.c:241
        TIM_OC2FastConfig(((TIM_TypeDef *) TIMERN[pwmch>>8]), TIM_OC2FE);                             //比较捕获通道快速使能
    1a5e:	40000593          	li	a1,1024
    1a62:	8522                	mv	a0,s0
    1a64:	f3eff0ef          	jal	ra,11a2 <TIM_OC2FastConfig>
    1a68:	b785                	j	19c8 <pwm_init+0xf2>
C:\Users\windows\Desktop\比赛\100 成渝版 带按键\17 110 舵机横向放置 比赛版\RED_BULL\Dual-core_Communication_Demo\MASTER\obj/../Libraries/seekfree_libraries/zf_pwm.c:243
    else if((pwmch & 0x03) == 0x02)
    1a6a:	4789                	li	a5,2
C:\Users\windows\Desktop\比赛\100 成渝版 带按键\17 110 舵机横向放置 比赛版\RED_BULL\Dual-core_Communication_Demo\MASTER\obj/../Libraries/seekfree_libraries/zf_pwm.c:245
        TIM_OC3Init(((TIM_TypeDef *) TIMERN[pwmch>>8]), &TIM_OCInitStructure );
    1a6c:	080c                	addi	a1,sp,16
    1a6e:	8522                	mv	a0,s0
C:\Users\windows\Desktop\比赛\100 成渝版 带按键\17 110 舵机横向放置 比赛版\RED_BULL\Dual-core_Communication_Demo\MASTER\obj/../Libraries/seekfree_libraries/zf_pwm.c:243
    else if((pwmch & 0x03) == 0x02)
    1a70:	00f49d63          	bne	s1,a5,1a8a <pwm_init+0x1b4>
C:\Users\windows\Desktop\比赛\100 成渝版 带按键\17 110 舵机横向放置 比赛版\RED_BULL\Dual-core_Communication_Demo\MASTER\obj/../Libraries/seekfree_libraries/zf_pwm.c:245
        TIM_OC3Init(((TIM_TypeDef *) TIMERN[pwmch>>8]), &TIM_OCInitStructure );
    1a74:	d00ff0ef          	jal	ra,f74 <TIM_OC3Init>
C:\Users\windows\Desktop\比赛\100 成渝版 带按键\17 110 舵机横向放置 比赛版\RED_BULL\Dual-core_Communication_Demo\MASTER\obj/../Libraries/seekfree_libraries/zf_pwm.c:246
        TIM_OC3PreloadConfig(((TIM_TypeDef *) TIMERN[pwmch>>8]), TIM_OCPreload_Enable);
    1a78:	8522                	mv	a0,s0
    1a7a:	45a1                	li	a1,8
    1a7c:	ee8ff0ef          	jal	ra,1164 <TIM_OC3PreloadConfig>
C:\Users\windows\Desktop\比赛\100 成渝版 带按键\17 110 舵机横向放置 比赛版\RED_BULL\Dual-core_Communication_Demo\MASTER\obj/../Libraries/seekfree_libraries/zf_pwm.c:247
        TIM_OC3FastConfig(((TIM_TypeDef *) TIMERN[pwmch>>8]), TIM_OC3FE);                             //比较捕获通道快速使能
    1a80:	4591                	li	a1,4
    1a82:	8522                	mv	a0,s0
    1a84:	f38ff0ef          	jal	ra,11bc <TIM_OC3FastConfig>
    1a88:	b781                	j	19c8 <pwm_init+0xf2>
C:\Users\windows\Desktop\比赛\100 成渝版 带按键\17 110 舵机横向放置 比赛版\RED_BULL\Dual-core_Communication_Demo\MASTER\obj/../Libraries/seekfree_libraries/zf_pwm.c:251
        TIM_OC4Init(((TIM_TypeDef *) TIMERN[pwmch>>8]), &TIM_OCInitStructure );
    1a8a:	d9cff0ef          	jal	ra,1026 <TIM_OC4Init>
C:\Users\windows\Desktop\比赛\100 成渝版 带按键\17 110 舵机横向放置 比赛版\RED_BULL\Dual-core_Communication_Demo\MASTER\obj/../Libraries/seekfree_libraries/zf_pwm.c:252
        TIM_OC4PreloadConfig(((TIM_TypeDef *) TIMERN[pwmch>>8]), TIM_OCPreload_Enable);
    1a8e:	8522                	mv	a0,s0
    1a90:	45a1                	li	a1,8
    1a92:	ee4ff0ef          	jal	ra,1176 <TIM_OC4PreloadConfig>
C:\Users\windows\Desktop\比赛\100 成渝版 带按键\17 110 舵机横向放置 比赛版\RED_BULL\Dual-core_Communication_Demo\MASTER\obj/../Libraries/seekfree_libraries/zf_pwm.c:253
        TIM_OC4FastConfig(((TIM_TypeDef *) TIMERN[pwmch>>8]), TIM_OC4FE);                             //比较捕获通道快速使能
    1a96:	40000593          	li	a1,1024
    1a9a:	8522                	mv	a0,s0
    1a9c:	f32ff0ef          	jal	ra,11ce <TIM_OC4FastConfig>
    1aa0:	b725                	j	19c8 <pwm_init+0xf2>

00001aa2 <pwm_duty>:
pwm_duty():
C:\Users\windows\Desktop\比赛\100 成渝版 带按键\17 110 舵机横向放置 比赛版\RED_BULL\Dual-core_Communication_Demo\MASTER\obj/../Libraries/seekfree_libraries/zf_pwm.c:277
    uint16 period_temp;
    //const uint32 TIMERN[] = {TIM1_BASE, TIM2_BASE, TIM3_BASE, TIM4_BASE};
    //获取周期值
    //计算占空比

    period_temp = ((TIM_TypeDef *) TIMERN[pwmch>>8])->ATRLR;    //获取定时器的周期值
    1aa2:	00855713          	srli	a4,a0,0x8
    1aa6:	6691                	lui	a3,0x4
    1aa8:	00271793          	slli	a5,a4,0x2
    1aac:	cb068693          	addi	a3,a3,-848 # 3cb0 <TIMERN>
    1ab0:	97b6                	add	a5,a5,a3
    1ab2:	439c                	lw	a5,0(a5)
    1ab4:	02c7d783          	lhu	a5,44(a5)
C:\Users\windows\Desktop\比赛\100 成渝版 带按键\17 110 舵机横向放置 比赛版\RED_BULL\Dual-core_Communication_Demo\MASTER\obj/../Libraries/seekfree_libraries/zf_pwm.c:278
    match_temp = period_temp * duty / PWM_DUTY_MAX;             //占空比
    1ab8:	02f585b3          	mul	a1,a1,a5
    1abc:	6789                	lui	a5,0x2
    1abe:	71078793          	addi	a5,a5,1808 # 2710 <__adddf3+0x3c4>
    1ac2:	02f5d5b3          	divu	a1,a1,a5
C:\Users\windows\Desktop\比赛\100 成渝版 带按键\17 110 舵机横向放置 比赛版\RED_BULL\Dual-core_Communication_Demo\MASTER\obj/../Libraries/seekfree_libraries/zf_pwm.c:280

    if((pwmch >> 8) == 0x00)
    1ac6:	ef01                	bnez	a4,1ade <pwm_duty+0x3c>
C:\Users\windows\Desktop\比赛\100 成渝版 带按键\17 110 舵机横向放置 比赛版\RED_BULL\Dual-core_Communication_Demo\MASTER\obj/../Libraries/seekfree_libraries/zf_pwm.c:282
    {
        (*(volatile uint32*)(0x40012C34 + (pwmch&0x03) * 0x04)) = match_temp;
    1ac8:	100057b7          	lui	a5,0x10005
    1acc:	890d                	andi	a0,a0,3
    1ace:	b0d78793          	addi	a5,a5,-1267 # 10004b0d <_data_lma+0x10000c85>
C:\Users\windows\Desktop\比赛\100 成渝版 带按键\17 110 舵机横向放置 比赛版\RED_BULL\Dual-core_Communication_Demo\MASTER\obj/../Libraries/seekfree_libraries/zf_pwm.c:306
        //0x4000043C TIM3->CH3CVR
        //0x40000440 TIM3->CH4CVR
    }
    else if((pwmch >> 8) == 0x03)
    {
        (*(volatile uint32*)(0x40000834 + (pwmch&0x03) * 0x04)) = match_temp;
    1ad2:	953e                	add	a0,a0,a5
    1ad4:	05c2                	slli	a1,a1,0x10
    1ad6:	050a                	slli	a0,a0,0x2
    1ad8:	81c1                	srli	a1,a1,0x10
    1ada:	c10c                	sw	a1,0(a0)
C:\Users\windows\Desktop\比赛\100 成渝版 带按键\17 110 舵机横向放置 比赛版\RED_BULL\Dual-core_Communication_Demo\MASTER\obj/../Libraries/seekfree_libraries/zf_pwm.c:312
        //0x40000834 TIM4->CH1CVR
        //0x40000838 TIM4->CH2CVR
        //0x4000083C TIM4->CH3CVR
        //0x40000840 TIM4->CH4CVR
    }
}
    1adc:	8082                	ret
C:\Users\windows\Desktop\比赛\100 成渝版 带按键\17 110 舵机横向放置 比赛版\RED_BULL\Dual-core_Communication_Demo\MASTER\obj/../Libraries/seekfree_libraries/zf_pwm.c:288
    else if((pwmch >> 8) == 0x01)
    1ade:	4785                	li	a5,1
    1ae0:	00f71763          	bne	a4,a5,1aee <pwm_duty+0x4c>
C:\Users\windows\Desktop\比赛\100 成渝版 带按键\17 110 舵机横向放置 比赛版\RED_BULL\Dual-core_Communication_Demo\MASTER\obj/../Libraries/seekfree_libraries/zf_pwm.c:290
        (*(volatile uint32*)(0x40000034 + (pwmch&0x03) * 0x04)) = match_temp;
    1ae4:	100007b7          	lui	a5,0x10000
    1ae8:	890d                	andi	a0,a0,3
    1aea:	07b5                	addi	a5,a5,13
    1aec:	b7dd                	j	1ad2 <pwm_duty+0x30>
C:\Users\windows\Desktop\比赛\100 成渝版 带按键\17 110 舵机横向放置 比赛版\RED_BULL\Dual-core_Communication_Demo\MASTER\obj/../Libraries/seekfree_libraries/zf_pwm.c:296
    else if((pwmch >> 8) == 0x02)
    1aee:	4789                	li	a5,2
    1af0:	00f71863          	bne	a4,a5,1b00 <pwm_duty+0x5e>
C:\Users\windows\Desktop\比赛\100 成渝版 带按键\17 110 舵机横向放置 比赛版\RED_BULL\Dual-core_Communication_Demo\MASTER\obj/../Libraries/seekfree_libraries/zf_pwm.c:298
        (*(volatile uint32*)(0x40000434 + (pwmch&0x03) * 0x04)) = match_temp;
    1af4:	100007b7          	lui	a5,0x10000
    1af8:	890d                	andi	a0,a0,3
    1afa:	10d78793          	addi	a5,a5,269 # 1000010d <_data_lma+0xfffc285>
    1afe:	bfd1                	j	1ad2 <pwm_duty+0x30>
C:\Users\windows\Desktop\比赛\100 成渝版 带按键\17 110 舵机横向放置 比赛版\RED_BULL\Dual-core_Communication_Demo\MASTER\obj/../Libraries/seekfree_libraries/zf_pwm.c:304
    else if((pwmch >> 8) == 0x03)
    1b00:	478d                	li	a5,3
    1b02:	fcf71de3          	bne	a4,a5,1adc <pwm_duty+0x3a>
C:\Users\windows\Desktop\比赛\100 成渝版 带按键\17 110 舵机横向放置 比赛版\RED_BULL\Dual-core_Communication_Demo\MASTER\obj/../Libraries/seekfree_libraries/zf_pwm.c:306
        (*(volatile uint32*)(0x40000834 + (pwmch&0x03) * 0x04)) = match_temp;
    1b06:	100007b7          	lui	a5,0x10000
    1b0a:	890d                	andi	a0,a0,3
    1b0c:	20d78793          	addi	a5,a5,525 # 1000020d <_data_lma+0xfffc385>
    1b10:	b7c9                	j	1ad2 <pwm_duty+0x30>

00001b12 <timer_gpio_quad_init>:
timer_gpio_quad_init():
C:\Users\windows\Desktop\比赛\100 成渝版 带按键\17 110 舵机横向放置 比赛版\RED_BULL\Dual-core_Communication_Demo\MASTER\obj/../Libraries/seekfree_libraries/zf_qtimer.c:40
//  @param      phaseB      通道B以及引脚
//  @return     void
//  Sample usage:           内部使用，用户无需关心
//-------------------------------------------------------------------------------------------------------------------
void timer_gpio_quad_init(TIMER_PIN_enum phaseA, TIMER_PIN_enum phaseB)
{
    1b12:	1141                	addi	sp,sp,-16
    1b14:	c422                	sw	s0,8(sp)
    1b16:	c606                	sw	ra,12(sp)
    1b18:	842e                	mv	s0,a1
C:\Users\windows\Desktop\比赛\100 成渝版 带按键\17 110 舵机横向放置 比赛版\RED_BULL\Dual-core_Communication_Demo\MASTER\obj/../Libraries/seekfree_libraries/zf_qtimer.c:41
    if(TIMER1_CHA_A8 == phaseA)       gpio_init(A8, GPI, 0, IN_FLOAT);
    1b1a:	e11d                	bnez	a0,1b40 <timer_gpio_quad_init+0x2e>
C:\Users\windows\Desktop\比赛\100 成渝版 带按键\17 110 舵机横向放置 比赛版\RED_BULL\Dual-core_Communication_Demo\MASTER\obj/../Libraries/seekfree_libraries/zf_qtimer.c:41 (discriminator 1)
    1b1c:	4691                	li	a3,4
    1b1e:	4601                	li	a2,0
    1b20:	4581                	li	a1,0
    1b22:	4521                	li	a0,8
C:\Users\windows\Desktop\比赛\100 成渝版 带按键\17 110 舵机横向放置 比赛版\RED_BULL\Dual-core_Communication_Demo\MASTER\obj/../Libraries/seekfree_libraries/zf_qtimer.c:47 (discriminator 1)
    else if(TIMER2_CHA_A0 == phaseA)  gpio_init(A0, GPI, 0, IN_FLOAT);
    else if(TIMER2_CHA_A15 == phaseA) gpio_init(A15, GPI, 0, IN_FLOAT);
    else if(TIMER3_CHA_A6 == phaseA)  gpio_init(A6, GPI, 0, IN_FLOAT);
    else if(TIMER3_CHA_C6 == phaseA)  gpio_init(C6, GPI, 0, IN_FLOAT);
    else if(TIMER3_CHA_B4 == phaseA)  gpio_init(B4, GPI, 0, IN_FLOAT);
    else if(TIMER4_CHA_B6 == phaseA)  gpio_init(B6, GPI, 0, IN_FLOAT);
    1b24:	97dff0ef          	jal	ra,14a0 <gpio_init>
C:\Users\windows\Desktop\比赛\100 成渝版 带按键\17 110 舵机横向放置 比赛版\RED_BULL\Dual-core_Communication_Demo\MASTER\obj/../Libraries/seekfree_libraries/zf_qtimer.c:49

    if(TIMER1_CHB_A9 == phaseB)       gpio_init(A9, GPI, 0, IN_FLOAT);
    1b28:	4785                	li	a5,1
    1b2a:	06f41d63          	bne	s0,a5,1ba4 <timer_gpio_quad_init+0x92>
C:\Users\windows\Desktop\比赛\100 成渝版 带按键\17 110 舵机横向放置 比赛版\RED_BULL\Dual-core_Communication_Demo\MASTER\obj/../Libraries/seekfree_libraries/zf_qtimer.c:49 (discriminator 1)
    1b2e:	4691                	li	a3,4
    1b30:	4601                	li	a2,0
    1b32:	4581                	li	a1,0
    1b34:	4525                	li	a0,9
C:\Users\windows\Desktop\比赛\100 成渝版 带按键\17 110 舵机横向放置 比赛版\RED_BULL\Dual-core_Communication_Demo\MASTER\obj/../Libraries/seekfree_libraries/zf_qtimer.c:57 (discriminator 1)
    else if(TIMER3_CHB_A7 == phaseB)  gpio_init(A7, GPI, 0, IN_FLOAT);
    else if(TIMER3_CHB_C7 == phaseB)  gpio_init(C7, GPI, 0, IN_FLOAT);
    else if(TIMER3_CHB_B5 == phaseB)  gpio_init(B5, GPI, 0, IN_FLOAT);
    else if(TIMER4_CHB_B7 == phaseB)  gpio_init(B7, GPI, 0, IN_FLOAT);

}
    1b36:	4422                	lw	s0,8(sp)
    1b38:	40b2                	lw	ra,12(sp)
    1b3a:	0141                	addi	sp,sp,16
C:\Users\windows\Desktop\比赛\100 成渝版 带按键\17 110 舵机横向放置 比赛版\RED_BULL\Dual-core_Communication_Demo\MASTER\obj/../Libraries/seekfree_libraries/zf_qtimer.c:55 (discriminator 1)
    else if(TIMER4_CHB_B7 == phaseB)  gpio_init(B7, GPI, 0, IN_FLOAT);
    1b3c:	965ff06f          	j	14a0 <gpio_init>
C:\Users\windows\Desktop\比赛\100 成渝版 带按键\17 110 舵机横向放置 比赛版\RED_BULL\Dual-core_Communication_Demo\MASTER\obj/../Libraries/seekfree_libraries/zf_qtimer.c:42
    else if(TIMER2_CHA_A0 == phaseA)  gpio_init(A0, GPI, 0, IN_FLOAT);
    1b40:	4709                	li	a4,2
    1b42:	00e51763          	bne	a0,a4,1b50 <timer_gpio_quad_init+0x3e>
C:\Users\windows\Desktop\比赛\100 成渝版 带按键\17 110 舵机横向放置 比赛版\RED_BULL\Dual-core_Communication_Demo\MASTER\obj/../Libraries/seekfree_libraries/zf_qtimer.c:42 (discriminator 1)
    1b46:	4691                	li	a3,4
    1b48:	4601                	li	a2,0
    1b4a:	4581                	li	a1,0
    1b4c:	4501                	li	a0,0
    1b4e:	bfd9                	j	1b24 <timer_gpio_quad_init+0x12>
C:\Users\windows\Desktop\比赛\100 成渝版 带按键\17 110 舵机横向放置 比赛版\RED_BULL\Dual-core_Communication_Demo\MASTER\obj/../Libraries/seekfree_libraries/zf_qtimer.c:43
    else if(TIMER2_CHA_A15 == phaseA) gpio_init(A15, GPI, 0, IN_FLOAT);
    1b50:	4711                	li	a4,4
    1b52:	00e51763          	bne	a0,a4,1b60 <timer_gpio_quad_init+0x4e>
C:\Users\windows\Desktop\比赛\100 成渝版 带按键\17 110 舵机横向放置 比赛版\RED_BULL\Dual-core_Communication_Demo\MASTER\obj/../Libraries/seekfree_libraries/zf_qtimer.c:43 (discriminator 1)
    1b56:	4691                	li	a3,4
    1b58:	4601                	li	a2,0
    1b5a:	4581                	li	a1,0
    1b5c:	453d                	li	a0,15
    1b5e:	b7d9                	j	1b24 <timer_gpio_quad_init+0x12>
C:\Users\windows\Desktop\比赛\100 成渝版 带按键\17 110 舵机横向放置 比赛版\RED_BULL\Dual-core_Communication_Demo\MASTER\obj/../Libraries/seekfree_libraries/zf_qtimer.c:44
    else if(TIMER3_CHA_A6 == phaseA)  gpio_init(A6, GPI, 0, IN_FLOAT);
    1b60:	4719                	li	a4,6
    1b62:	00e51663          	bne	a0,a4,1b6e <timer_gpio_quad_init+0x5c>
C:\Users\windows\Desktop\比赛\100 成渝版 带按键\17 110 舵机横向放置 比赛版\RED_BULL\Dual-core_Communication_Demo\MASTER\obj/../Libraries/seekfree_libraries/zf_qtimer.c:44 (discriminator 1)
    1b66:	4691                	li	a3,4
    1b68:	4601                	li	a2,0
    1b6a:	4581                	li	a1,0
    1b6c:	bf65                	j	1b24 <timer_gpio_quad_init+0x12>
C:\Users\windows\Desktop\比赛\100 成渝版 带按键\17 110 舵机横向放置 比赛版\RED_BULL\Dual-core_Communication_Demo\MASTER\obj/../Libraries/seekfree_libraries/zf_qtimer.c:45
    else if(TIMER3_CHA_C6 == phaseA)  gpio_init(C6, GPI, 0, IN_FLOAT);
    1b6e:	4721                	li	a4,8
    1b70:	00e51863          	bne	a0,a4,1b80 <timer_gpio_quad_init+0x6e>
C:\Users\windows\Desktop\比赛\100 成渝版 带按键\17 110 舵机横向放置 比赛版\RED_BULL\Dual-core_Communication_Demo\MASTER\obj/../Libraries/seekfree_libraries/zf_qtimer.c:45 (discriminator 1)
    1b74:	4691                	li	a3,4
    1b76:	4601                	li	a2,0
    1b78:	4581                	li	a1,0
    1b7a:	04600513          	li	a0,70
    1b7e:	b75d                	j	1b24 <timer_gpio_quad_init+0x12>
C:\Users\windows\Desktop\比赛\100 成渝版 带按键\17 110 舵机横向放置 比赛版\RED_BULL\Dual-core_Communication_Demo\MASTER\obj/../Libraries/seekfree_libraries/zf_qtimer.c:46
    else if(TIMER3_CHA_B4 == phaseA)  gpio_init(B4, GPI, 0, IN_FLOAT);
    1b80:	4729                	li	a4,10
    1b82:	00e51863          	bne	a0,a4,1b92 <timer_gpio_quad_init+0x80>
C:\Users\windows\Desktop\比赛\100 成渝版 带按键\17 110 舵机横向放置 比赛版\RED_BULL\Dual-core_Communication_Demo\MASTER\obj/../Libraries/seekfree_libraries/zf_qtimer.c:46 (discriminator 1)
    1b86:	4691                	li	a3,4
    1b88:	4601                	li	a2,0
    1b8a:	4581                	li	a1,0
    1b8c:	02400513          	li	a0,36
    1b90:	bf51                	j	1b24 <timer_gpio_quad_init+0x12>
C:\Users\windows\Desktop\比赛\100 成渝版 带按键\17 110 舵机横向放置 比赛版\RED_BULL\Dual-core_Communication_Demo\MASTER\obj/../Libraries/seekfree_libraries/zf_qtimer.c:47
    else if(TIMER4_CHA_B6 == phaseA)  gpio_init(B6, GPI, 0, IN_FLOAT);
    1b92:	4731                	li	a4,12
    1b94:	f8e51ae3          	bne	a0,a4,1b28 <timer_gpio_quad_init+0x16>
C:\Users\windows\Desktop\比赛\100 成渝版 带按键\17 110 舵机横向放置 比赛版\RED_BULL\Dual-core_Communication_Demo\MASTER\obj/../Libraries/seekfree_libraries/zf_qtimer.c:47 (discriminator 1)
    1b98:	4691                	li	a3,4
    1b9a:	4601                	li	a2,0
    1b9c:	4581                	li	a1,0
    1b9e:	02600513          	li	a0,38
    1ba2:	b749                	j	1b24 <timer_gpio_quad_init+0x12>
C:\Users\windows\Desktop\比赛\100 成渝版 带按键\17 110 舵机横向放置 比赛版\RED_BULL\Dual-core_Communication_Demo\MASTER\obj/../Libraries/seekfree_libraries/zf_qtimer.c:50
    else if(TIMER2_CHB_A1 == phaseB)  gpio_init(A1, GPI, 0, IN_FLOAT);
    1ba4:	478d                	li	a5,3
    1ba6:	00f41763          	bne	s0,a5,1bb4 <timer_gpio_quad_init+0xa2>
C:\Users\windows\Desktop\比赛\100 成渝版 带按键\17 110 舵机横向放置 比赛版\RED_BULL\Dual-core_Communication_Demo\MASTER\obj/../Libraries/seekfree_libraries/zf_qtimer.c:50 (discriminator 1)
    1baa:	4691                	li	a3,4
    1bac:	4601                	li	a2,0
    1bae:	4581                	li	a1,0
    1bb0:	4505                	li	a0,1
    1bb2:	b751                	j	1b36 <timer_gpio_quad_init+0x24>
C:\Users\windows\Desktop\比赛\100 成渝版 带按键\17 110 舵机横向放置 比赛版\RED_BULL\Dual-core_Communication_Demo\MASTER\obj/../Libraries/seekfree_libraries/zf_qtimer.c:51
    else if(TIMER2_CHB_B3 == phaseB)  gpio_init(B3, GPI, 0, IN_FLOAT);
    1bb4:	4795                	li	a5,5
    1bb6:	00f41863          	bne	s0,a5,1bc6 <timer_gpio_quad_init+0xb4>
C:\Users\windows\Desktop\比赛\100 成渝版 带按键\17 110 舵机横向放置 比赛版\RED_BULL\Dual-core_Communication_Demo\MASTER\obj/../Libraries/seekfree_libraries/zf_qtimer.c:51 (discriminator 1)
    1bba:	4691                	li	a3,4
    1bbc:	4601                	li	a2,0
    1bbe:	4581                	li	a1,0
    1bc0:	02300513          	li	a0,35
    1bc4:	bf8d                	j	1b36 <timer_gpio_quad_init+0x24>
C:\Users\windows\Desktop\比赛\100 成渝版 带按键\17 110 舵机横向放置 比赛版\RED_BULL\Dual-core_Communication_Demo\MASTER\obj/../Libraries/seekfree_libraries/zf_qtimer.c:52
    else if(TIMER3_CHB_A7 == phaseB)  gpio_init(A7, GPI, 0, IN_FLOAT);
    1bc6:	479d                	li	a5,7
    1bc8:	00f41763          	bne	s0,a5,1bd6 <timer_gpio_quad_init+0xc4>
C:\Users\windows\Desktop\比赛\100 成渝版 带按键\17 110 舵机横向放置 比赛版\RED_BULL\Dual-core_Communication_Demo\MASTER\obj/../Libraries/seekfree_libraries/zf_qtimer.c:52 (discriminator 1)
    1bcc:	4691                	li	a3,4
    1bce:	4601                	li	a2,0
    1bd0:	4581                	li	a1,0
    1bd2:	451d                	li	a0,7
    1bd4:	b78d                	j	1b36 <timer_gpio_quad_init+0x24>
C:\Users\windows\Desktop\比赛\100 成渝版 带按键\17 110 舵机横向放置 比赛版\RED_BULL\Dual-core_Communication_Demo\MASTER\obj/../Libraries/seekfree_libraries/zf_qtimer.c:53
    else if(TIMER3_CHB_C7 == phaseB)  gpio_init(C7, GPI, 0, IN_FLOAT);
    1bd6:	47a5                	li	a5,9
    1bd8:	00f41863          	bne	s0,a5,1be8 <timer_gpio_quad_init+0xd6>
C:\Users\windows\Desktop\比赛\100 成渝版 带按键\17 110 舵机横向放置 比赛版\RED_BULL\Dual-core_Communication_Demo\MASTER\obj/../Libraries/seekfree_libraries/zf_qtimer.c:53 (discriminator 1)
    1bdc:	4691                	li	a3,4
    1bde:	4601                	li	a2,0
    1be0:	4581                	li	a1,0
    1be2:	04700513          	li	a0,71
    1be6:	bf81                	j	1b36 <timer_gpio_quad_init+0x24>
C:\Users\windows\Desktop\比赛\100 成渝版 带按键\17 110 舵机横向放置 比赛版\RED_BULL\Dual-core_Communication_Demo\MASTER\obj/../Libraries/seekfree_libraries/zf_qtimer.c:54
    else if(TIMER3_CHB_B5 == phaseB)  gpio_init(B5, GPI, 0, IN_FLOAT);
    1be8:	47ad                	li	a5,11
    1bea:	00f41863          	bne	s0,a5,1bfa <timer_gpio_quad_init+0xe8>
C:\Users\windows\Desktop\比赛\100 成渝版 带按键\17 110 舵机横向放置 比赛版\RED_BULL\Dual-core_Communication_Demo\MASTER\obj/../Libraries/seekfree_libraries/zf_qtimer.c:54 (discriminator 1)
    1bee:	4691                	li	a3,4
    1bf0:	4601                	li	a2,0
    1bf2:	4581                	li	a1,0
    1bf4:	02500513          	li	a0,37
    1bf8:	bf3d                	j	1b36 <timer_gpio_quad_init+0x24>
C:\Users\windows\Desktop\比赛\100 成渝版 带按键\17 110 舵机横向放置 比赛版\RED_BULL\Dual-core_Communication_Demo\MASTER\obj/../Libraries/seekfree_libraries/zf_qtimer.c:55
    else if(TIMER4_CHB_B7 == phaseB)  gpio_init(B7, GPI, 0, IN_FLOAT);
    1bfa:	47b5                	li	a5,13
    1bfc:	00f41863          	bne	s0,a5,1c0c <timer_gpio_quad_init+0xfa>
C:\Users\windows\Desktop\比赛\100 成渝版 带按键\17 110 舵机横向放置 比赛版\RED_BULL\Dual-core_Communication_Demo\MASTER\obj/../Libraries/seekfree_libraries/zf_qtimer.c:55 (discriminator 1)
    1c00:	4691                	li	a3,4
    1c02:	4601                	li	a2,0
    1c04:	4581                	li	a1,0
    1c06:	02700513          	li	a0,39
    1c0a:	b735                	j	1b36 <timer_gpio_quad_init+0x24>
C:\Users\windows\Desktop\比赛\100 成渝版 带按键\17 110 舵机横向放置 比赛版\RED_BULL\Dual-core_Communication_Demo\MASTER\obj/../Libraries/seekfree_libraries/zf_qtimer.c:57
}
    1c0c:	40b2                	lw	ra,12(sp)
    1c0e:	4422                	lw	s0,8(sp)
    1c10:	0141                	addi	sp,sp,16
    1c12:	8082                	ret

00001c14 <timer_quad_init>:
timer_quad_init():
C:\Users\windows\Desktop\比赛\100 成渝版 带按键\17 110 舵机横向放置 比赛版\RED_BULL\Dual-core_Communication_Demo\MASTER\obj/../Libraries/seekfree_libraries/zf_qtimer.c:69
//  @param      phaseB      通道B以及引脚
//  @return     void
//  Sample usage:           推荐使用正交解码编码器。
//-------------------------------------------------------------------------------------------------------------------
void timer_quad_init(TIMERN_enum timern, TIMER_PIN_enum phaseA, TIMER_PIN_enum phaseB)
{
    1c14:	1101                	addi	sp,sp,-32
    1c16:	cc22                	sw	s0,24(sp)
    1c18:	ca26                	sw	s1,20(sp)
    1c1a:	c84a                	sw	s2,16(sp)
    1c1c:	ce06                	sw	ra,28(sp)
    1c1e:	842a                	mv	s0,a0
    1c20:	892e                	mv	s2,a1
    1c22:	84b2                	mv	s1,a2
C:\Users\windows\Desktop\比赛\100 成渝版 带按键\17 110 舵机横向放置 比赛版\RED_BULL\Dual-core_Communication_Demo\MASTER\obj/../Libraries/seekfree_libraries/zf_qtimer.c:72
    TIM_TimeBaseInitTypeDef TIM_TimeBaseStructure;

    if(TIMER_1 == timern)       RCC_APB2PeriphClockCmd(RCC_APB2Periph_TIM1, ENABLE);//使能定时器1的时钟
    1c24:	ed3d                	bnez	a0,1ca2 <timer_quad_init+0x8e>
C:\Users\windows\Desktop\比赛\100 成渝版 带按键\17 110 舵机横向放置 比赛版\RED_BULL\Dual-core_Communication_Demo\MASTER\obj/../Libraries/seekfree_libraries/zf_qtimer.c:72 (discriminator 1)
    1c26:	6505                	lui	a0,0x1
    1c28:	4585                	li	a1,1
    1c2a:	80050513          	addi	a0,a0,-2048 # 800 <__stack_size>
    1c2e:	956ff0ef          	jal	ra,d84 <RCC_APB2PeriphClockCmd>
C:\Users\windows\Desktop\比赛\100 成渝版 带按键\17 110 舵机横向放置 比赛版\RED_BULL\Dual-core_Communication_Demo\MASTER\obj/../Libraries/seekfree_libraries/zf_qtimer.c:77
    else  if(TIMER_2 == timern) RCC_APB1PeriphClockCmd(RCC_APB1Periph_TIM2, ENABLE);//使能定时器2的时钟
    else  if(TIMER_3 == timern) RCC_APB1PeriphClockCmd(RCC_APB1Periph_TIM3, ENABLE);//使能定时器3的时钟
    else  if(TIMER_4 == timern) RCC_APB1PeriphClockCmd(RCC_APB1Periph_TIM4, ENABLE);//使能定时器4的时钟

    timer_gpio_quad_init(phaseA, phaseB);                                           //初始化引脚
    1c32:	85a6                	mv	a1,s1
    1c34:	854a                	mv	a0,s2
    1c36:	3df1                	jal	1b12 <timer_gpio_quad_init>
C:\Users\windows\Desktop\比赛\100 成渝版 带按键\17 110 舵机横向放置 比赛版\RED_BULL\Dual-core_Communication_Demo\MASTER\obj/../Libraries/seekfree_libraries/zf_qtimer.c:79

    RCC_APB2PeriphClockCmd(RCC_APB2Periph_AFIO, ENABLE);                            //使能AFIO复用功能模块时钟
    1c38:	4585                	li	a1,1
    1c3a:	4505                	li	a0,1
    1c3c:	948ff0ef          	jal	ra,d84 <RCC_APB2PeriphClockCmd>
C:\Users\windows\Desktop\比赛\100 成渝版 带按键\17 110 舵机横向放置 比赛版\RED_BULL\Dual-core_Communication_Demo\MASTER\obj/../Libraries/seekfree_libraries/zf_qtimer.c:81

    if(TIMER2_CHA_A15 == phaseA && TIMER2_CHB_B3 == phaseB)                         //引脚重映射
    1c40:	4791                	li	a5,4
    1c42:	08f91063          	bne	s2,a5,1cc2 <timer_quad_init+0xae>
C:\Users\windows\Desktop\比赛\100 成渝版 带按键\17 110 舵机横向放置 比赛版\RED_BULL\Dual-core_Communication_Demo\MASTER\obj/../Libraries/seekfree_libraries/zf_qtimer.c:81 (discriminator 1)
    1c46:	4795                	li	a5,5
    1c48:	00f49963          	bne	s1,a5,1c5a <timer_quad_init+0x46>
C:\Users\windows\Desktop\比赛\100 成渝版 带按键\17 110 舵机横向放置 比赛版\RED_BULL\Dual-core_Communication_Demo\MASTER\obj/../Libraries/seekfree_libraries/zf_qtimer.c:82
        GPIO_PinRemapConfig(GPIO_FullRemap_TIM2, ENABLE);
    1c4c:	00180537          	lui	a0,0x180
    1c50:	4585                	li	a1,1
    1c52:	30050513          	addi	a0,a0,768 # 180300 <_data_lma+0x17c478>
C:\Users\windows\Desktop\比赛\100 成渝版 带按键\17 110 舵机横向放置 比赛版\RED_BULL\Dual-core_Communication_Demo\MASTER\obj/../Libraries/seekfree_libraries/zf_qtimer.c:86
    else    if(TIMER3_CHA_C6 == phaseA && TIMER3_CHB_C7 == phaseB)
        GPIO_PinRemapConfig(GPIO_FullRemap_TIM3, ENABLE);
    else    if(TIMER3_CHA_B4 == phaseA && TIMER3_CHB_B5 == phaseB)
        GPIO_PinRemapConfig(GPIO_PartialRemap_TIM3, ENABLE);
    1c56:	f69fe0ef          	jal	ra,bbe <GPIO_PinRemapConfig>
C:\Users\windows\Desktop\比赛\100 成渝版 带按键\17 110 舵机横向放置 比赛版\RED_BULL\Dual-core_Communication_Demo\MASTER\obj/../Libraries/seekfree_libraries/zf_qtimer.c:88

    TIM_TimeBaseStructInit(&TIM_TimeBaseStructure);
    1c5a:	0048                	addi	a0,sp,4
    1c5c:	c4cff0ef          	jal	ra,10a8 <TIM_TimeBaseStructInit>
C:\Users\windows\Desktop\比赛\100 成渝版 带按键\17 110 舵机横向放置 比赛版\RED_BULL\Dual-core_Communication_Demo\MASTER\obj/../Libraries/seekfree_libraries/zf_qtimer.c:89
    TIM_TimeBaseStructure.TIM_Prescaler = 1;                                        //预分频器
    1c60:	4785                	li	a5,1
    1c62:	c23e                	sw	a5,4(sp)
C:\Users\windows\Desktop\比赛\100 成渝版 带按键\17 110 舵机横向放置 比赛版\RED_BULL\Dual-core_Communication_Demo\MASTER\obj/../Libraries/seekfree_libraries/zf_qtimer.c:90
    TIM_TimeBaseStructure.TIM_Period = 0xFFFF;                                      //设定计数器自动重装值
    1c64:	67c1                	lui	a5,0x10
    1c66:	17fd                	addi	a5,a5,-1
    1c68:	c43e                	sw	a5,8(sp)
C:\Users\windows\Desktop\比赛\100 成渝版 带按键\17 110 舵机横向放置 比赛版\RED_BULL\Dual-core_Communication_Demo\MASTER\obj/../Libraries/seekfree_libraries/zf_qtimer.c:94
    TIM_TimeBaseStructure.TIM_ClockDivision = TIM_CKD_DIV1;                         //选择时钟分频：不分频
    TIM_TimeBaseStructure.TIM_CounterMode = TIM_CounterMode_Up;                     //TIM向上计数
    TIM_TimeBaseStructure.TIM_RepetitionCounter = 0;                                //重复计数器
    TIM_TimeBaseInit((TIM_TypeDef*)(TIMERN[timern]), &TIM_TimeBaseStructure);       //初始化结构体
    1c6a:	6791                	lui	a5,0x4
    1c6c:	cb078793          	addi	a5,a5,-848 # 3cb0 <TIMERN>
    1c70:	040a                	slli	s0,s0,0x2
    1c72:	943e                	add	s0,s0,a5
    1c74:	4000                	lw	s0,0(s0)
    1c76:	004c                	addi	a1,sp,4
C:\Users\windows\Desktop\比赛\100 成渝版 带按键\17 110 舵机横向放置 比赛版\RED_BULL\Dual-core_Communication_Demo\MASTER\obj/../Libraries/seekfree_libraries/zf_qtimer.c:93
    TIM_TimeBaseStructure.TIM_RepetitionCounter = 0;                                //重复计数器
    1c78:	00010623          	sb	zero,12(sp)
C:\Users\windows\Desktop\比赛\100 成渝版 带按键\17 110 舵机横向放置 比赛版\RED_BULL\Dual-core_Communication_Demo\MASTER\obj/../Libraries/seekfree_libraries/zf_qtimer.c:94
    TIM_TimeBaseInit((TIM_TypeDef*)(TIMERN[timern]), &TIM_TimeBaseStructure);       //初始化结构体
    1c7c:	8522                	mv	a0,s0
    1c7e:	942ff0ef          	jal	ra,dc0 <TIM_TimeBaseInit>
C:\Users\windows\Desktop\比赛\100 成渝版 带按键\17 110 舵机横向放置 比赛版\RED_BULL\Dual-core_Communication_Demo\MASTER\obj/../Libraries/seekfree_libraries/zf_qtimer.c:95
    TIM_EncoderInterfaceConfig((TIM_TypeDef*)(TIMERN[timern]), TIM_EncoderMode_TI2 , TIM_ICPolarity_Rising, TIM_ICPolarity_Rising);//使用编码器模式
    1c82:	8522                	mv	a0,s0
    1c84:	4681                	li	a3,0
    1c86:	4601                	li	a2,0
    1c88:	4589                	li	a1,2
    1c8a:	c68ff0ef          	jal	ra,10f2 <TIM_EncoderInterfaceConfig>
C:\Users\windows\Desktop\比赛\100 成渝版 带按键\17 110 舵机横向放置 比赛版\RED_BULL\Dual-core_Communication_Demo\MASTER\obj/../Libraries/seekfree_libraries/zf_qtimer.c:97

    TIM_Cmd((TIM_TypeDef*)(TIMERN[timern]), ENABLE);                                //定时器使能
    1c8e:	8522                	mv	a0,s0
    1c90:	4585                	li	a1,1
    1c92:	c2eff0ef          	jal	ra,10c0 <TIM_Cmd>
C:\Users\windows\Desktop\比赛\100 成渝版 带按键\17 110 舵机横向放置 比赛版\RED_BULL\Dual-core_Communication_Demo\MASTER\obj/../Libraries/seekfree_libraries/zf_qtimer.c:98
}
    1c96:	40f2                	lw	ra,28(sp)
    1c98:	4462                	lw	s0,24(sp)
    1c9a:	44d2                	lw	s1,20(sp)
    1c9c:	4942                	lw	s2,16(sp)
    1c9e:	6105                	addi	sp,sp,32
    1ca0:	8082                	ret
C:\Users\windows\Desktop\比赛\100 成渝版 带按键\17 110 舵机横向放置 比赛版\RED_BULL\Dual-core_Communication_Demo\MASTER\obj/../Libraries/seekfree_libraries/zf_qtimer.c:73
    else  if(TIMER_2 == timern) RCC_APB1PeriphClockCmd(RCC_APB1Periph_TIM2, ENABLE);//使能定时器2的时钟
    1ca2:	4785                	li	a5,1
    1ca4:	00f51663          	bne	a0,a5,1cb0 <timer_quad_init+0x9c>
C:\Users\windows\Desktop\比赛\100 成渝版 带按键\17 110 舵机横向放置 比赛版\RED_BULL\Dual-core_Communication_Demo\MASTER\obj/../Libraries/seekfree_libraries/zf_qtimer.c:74 (discriminator 1)
    else  if(TIMER_3 == timern) RCC_APB1PeriphClockCmd(RCC_APB1Periph_TIM3, ENABLE);//使能定时器3的时钟
    1ca8:	4585                	li	a1,1
C:\Users\windows\Desktop\比赛\100 成渝版 带按键\17 110 舵机横向放置 比赛版\RED_BULL\Dual-core_Communication_Demo\MASTER\obj/../Libraries/seekfree_libraries/zf_qtimer.c:75 (discriminator 1)
    else  if(TIMER_4 == timern) RCC_APB1PeriphClockCmd(RCC_APB1Periph_TIM4, ENABLE);//使能定时器4的时钟
    1caa:	8f8ff0ef          	jal	ra,da2 <RCC_APB1PeriphClockCmd>
    1cae:	b751                	j	1c32 <timer_quad_init+0x1e>
C:\Users\windows\Desktop\比赛\100 成渝版 带按键\17 110 舵机横向放置 比赛版\RED_BULL\Dual-core_Communication_Demo\MASTER\obj/../Libraries/seekfree_libraries/zf_qtimer.c:74
    else  if(TIMER_3 == timern) RCC_APB1PeriphClockCmd(RCC_APB1Periph_TIM3, ENABLE);//使能定时器3的时钟
    1cb0:	4789                	li	a5,2
    1cb2:	fef50be3          	beq	a0,a5,1ca8 <timer_quad_init+0x94>
C:\Users\windows\Desktop\比赛\100 成渝版 带按键\17 110 舵机横向放置 比赛版\RED_BULL\Dual-core_Communication_Demo\MASTER\obj/../Libraries/seekfree_libraries/zf_qtimer.c:75
    else  if(TIMER_4 == timern) RCC_APB1PeriphClockCmd(RCC_APB1Periph_TIM4, ENABLE);//使能定时器4的时钟
    1cb6:	478d                	li	a5,3
    1cb8:	f6f51de3          	bne	a0,a5,1c32 <timer_quad_init+0x1e>
C:\Users\windows\Desktop\比赛\100 成渝版 带按键\17 110 舵机横向放置 比赛版\RED_BULL\Dual-core_Communication_Demo\MASTER\obj/../Libraries/seekfree_libraries/zf_qtimer.c:75 (discriminator 1)
    1cbc:	4585                	li	a1,1
    1cbe:	4511                	li	a0,4
    1cc0:	b7ed                	j	1caa <timer_quad_init+0x96>
C:\Users\windows\Desktop\比赛\100 成渝版 带按键\17 110 舵机横向放置 比赛版\RED_BULL\Dual-core_Communication_Demo\MASTER\obj/../Libraries/seekfree_libraries/zf_qtimer.c:83
    else    if(TIMER3_CHA_C6 == phaseA && TIMER3_CHB_C7 == phaseB)
    1cc2:	47a1                	li	a5,8
    1cc4:	00f91b63          	bne	s2,a5,1cda <timer_quad_init+0xc6>
C:\Users\windows\Desktop\比赛\100 成渝版 带按键\17 110 舵机横向放置 比赛版\RED_BULL\Dual-core_Communication_Demo\MASTER\obj/../Libraries/seekfree_libraries/zf_qtimer.c:83 (discriminator 1)
    1cc8:	47a5                	li	a5,9
    1cca:	f8f498e3          	bne	s1,a5,1c5a <timer_quad_init+0x46>
C:\Users\windows\Desktop\比赛\100 成渝版 带按键\17 110 舵机横向放置 比赛版\RED_BULL\Dual-core_Communication_Demo\MASTER\obj/../Libraries/seekfree_libraries/zf_qtimer.c:84
        GPIO_PinRemapConfig(GPIO_FullRemap_TIM3, ENABLE);
    1cce:	001a1537          	lui	a0,0x1a1
    1cd2:	4585                	li	a1,1
    1cd4:	c0050513          	addi	a0,a0,-1024 # 1a0c00 <_data_lma+0x19cd78>
    1cd8:	bfbd                	j	1c56 <timer_quad_init+0x42>
C:\Users\windows\Desktop\比赛\100 成渝版 带按键\17 110 舵机横向放置 比赛版\RED_BULL\Dual-core_Communication_Demo\MASTER\obj/../Libraries/seekfree_libraries/zf_qtimer.c:85
    else    if(TIMER3_CHA_B4 == phaseA && TIMER3_CHB_B5 == phaseB)
    1cda:	47a9                	li	a5,10
    1cdc:	f6f91fe3          	bne	s2,a5,1c5a <timer_quad_init+0x46>
C:\Users\windows\Desktop\比赛\100 成渝版 带按键\17 110 舵机横向放置 比赛版\RED_BULL\Dual-core_Communication_Demo\MASTER\obj/../Libraries/seekfree_libraries/zf_qtimer.c:85 (discriminator 1)
    1ce0:	47ad                	li	a5,11
    1ce2:	f6f49ce3          	bne	s1,a5,1c5a <timer_quad_init+0x46>
C:\Users\windows\Desktop\比赛\100 成渝版 带按键\17 110 舵机横向放置 比赛版\RED_BULL\Dual-core_Communication_Demo\MASTER\obj/../Libraries/seekfree_libraries/zf_qtimer.c:86
        GPIO_PinRemapConfig(GPIO_PartialRemap_TIM3, ENABLE);
    1ce6:	001a1537          	lui	a0,0x1a1
    1cea:	4585                	li	a1,1
    1cec:	80050513          	addi	a0,a0,-2048 # 1a0800 <_data_lma+0x19c978>
    1cf0:	b79d                	j	1c56 <timer_quad_init+0x42>

00001cf2 <timer_quad_get>:
timer_quad_get():
C:\Users\windows\Desktop\比赛\100 成渝版 带按键\17 110 舵机横向放置 比赛版\RED_BULL\Dual-core_Communication_Demo\MASTER\obj/../Libraries/seekfree_libraries/zf_qtimer.c:108
//  @return     void
//  Sample usage:
//-------------------------------------------------------------------------------------------------------------------
int16 timer_quad_get(TIMERN_enum timern)
{
    int16 count = ((TIM_TypeDef*)(TIMERN[timern]))->CNT;
    1cf2:	6791                	lui	a5,0x4
    1cf4:	050a                	slli	a0,a0,0x2
    1cf6:	cb078793          	addi	a5,a5,-848 # 3cb0 <TIMERN>
    1cfa:	97aa                	add	a5,a5,a0
    1cfc:	439c                	lw	a5,0(a5)
    1cfe:	0247d503          	lhu	a0,36(a5)
C:\Users\windows\Desktop\比赛\100 成渝版 带按键\17 110 舵机横向放置 比赛版\RED_BULL\Dual-core_Communication_Demo\MASTER\obj/../Libraries/seekfree_libraries/zf_qtimer.c:110
    return count;
}
    1d02:	0542                	slli	a0,a0,0x10
    1d04:	8541                	srai	a0,a0,0x10
    1d06:	8082                	ret

00001d08 <timer_quad_clear>:
timer_quad_clear():
C:\Users\windows\Desktop\比赛\100 成渝版 带按键\17 110 舵机横向放置 比赛版\RED_BULL\Dual-core_Communication_Demo\MASTER\obj/../Libraries/seekfree_libraries/zf_qtimer.c:120
//  @return     void
//  Sample usage:
//-------------------------------------------------------------------------------------------------------------------
void timer_quad_clear(TIMERN_enum timern)
{
    ((TIM_TypeDef*)(TIMERN[timern]))->CNT = 0;
    1d08:	6791                	lui	a5,0x4
    1d0a:	050a                	slli	a0,a0,0x2
    1d0c:	cb078793          	addi	a5,a5,-848 # 3cb0 <TIMERN>
    1d10:	97aa                	add	a5,a5,a0
    1d12:	439c                	lw	a5,0(a5)
    1d14:	02079223          	sh	zero,36(a5)
C:\Users\windows\Desktop\比赛\100 成渝版 带按键\17 110 舵机横向放置 比赛版\RED_BULL\Dual-core_Communication_Demo\MASTER\obj/../Libraries/seekfree_libraries/zf_qtimer.c:121
}
    1d18:	8082                	ret

00001d1a <uart_gpio_init>:
uart_gpio_init():
C:\Users\windows\Desktop\比赛\100 成渝版 带按键\17 110 舵机横向放置 比赛版\RED_BULL\Dual-core_Communication_Demo\MASTER\obj/../Libraries/seekfree_libraries/zf_uart.c:38
//  @param      rx_pin      串口接收引脚号
//  @return     void
//  Sample usage:           内部使用，用户无需关心
//-------------------------------------------------------------------------------------------------------------------
void uart_gpio_init(UARTPIN_enum tx_pin, UARTPIN_enum rx_pin)
{
    1d1a:	1141                	addi	sp,sp,-16
    1d1c:	c606                	sw	ra,12(sp)
C:\Users\windows\Desktop\比赛\100 成渝版 带按键\17 110 舵机横向放置 比赛版\RED_BULL\Dual-core_Communication_Demo\MASTER\obj/../Libraries/seekfree_libraries/zf_uart.c:39
    if(tx_pin == UART1_TX_A9 && rx_pin == UART1_RX_A10)
    1d1e:	e115                	bnez	a0,1d42 <uart_gpio_init+0x28>
C:\Users\windows\Desktop\比赛\100 成渝版 带按键\17 110 舵机横向放置 比赛版\RED_BULL\Dual-core_Communication_Demo\MASTER\obj/../Libraries/seekfree_libraries/zf_uart.c:39 (discriminator 1)
    1d20:	4785                	li	a5,1
    1d22:	0af59463          	bne	a1,a5,1dca <uart_gpio_init+0xb0>
C:\Users\windows\Desktop\比赛\100 成渝版 带按键\17 110 舵机横向放置 比赛版\RED_BULL\Dual-core_Communication_Demo\MASTER\obj/../Libraries/seekfree_libraries/zf_uart.c:41
    {
        gpio_init(A9, GPO, 0, SPEED_50MHZ|OUT_AF_PP);
    1d26:	31800693          	li	a3,792
    1d2a:	4601                	li	a2,0
    1d2c:	4525                	li	a0,9
    1d2e:	f72ff0ef          	jal	ra,14a0 <gpio_init>
C:\Users\windows\Desktop\比赛\100 成渝版 带按键\17 110 舵机横向放置 比赛版\RED_BULL\Dual-core_Communication_Demo\MASTER\obj/../Libraries/seekfree_libraries/zf_uart.c:42
        gpio_init(A10, GPI, 0, IN_FLOAT);
    1d32:	4691                	li	a3,4
    1d34:	4601                	li	a2,0
    1d36:	4581                	li	a1,0
    1d38:	4529                	li	a0,10
C:\Users\windows\Desktop\比赛\100 成渝版 带按键\17 110 舵机横向放置 比赛版\RED_BULL\Dual-core_Communication_Demo\MASTER\obj/../Libraries/seekfree_libraries/zf_uart.c:67
    else if(tx_pin == UART3_TX_C10)
    {
        gpio_init(C10, GPO, 0, SPEED_50MHZ|OUT_AF_PP);
        gpio_init(C11, GPI, 0, IN_FLOAT);
    }
}
    1d3a:	40b2                	lw	ra,12(sp)
    1d3c:	0141                	addi	sp,sp,16
C:\Users\windows\Desktop\比赛\100 成渝版 带按键\17 110 舵机横向放置 比赛版\RED_BULL\Dual-core_Communication_Demo\MASTER\obj/../Libraries/seekfree_libraries/zf_uart.c:65
        gpio_init(C11, GPI, 0, IN_FLOAT);
    1d3e:	f62ff06f          	j	14a0 <gpio_init>
C:\Users\windows\Desktop\比赛\100 成渝版 带按键\17 110 舵机横向放置 比赛版\RED_BULL\Dual-core_Communication_Demo\MASTER\obj/../Libraries/seekfree_libraries/zf_uart.c:44
    else if(tx_pin == UART1_TX_B6)
    1d42:	4789                	li	a5,2
    1d44:	02f51063          	bne	a0,a5,1d64 <uart_gpio_init+0x4a>
C:\Users\windows\Desktop\比赛\100 成渝版 带按键\17 110 舵机横向放置 比赛版\RED_BULL\Dual-core_Communication_Demo\MASTER\obj/../Libraries/seekfree_libraries/zf_uart.c:46
        gpio_init(B6, GPO, 0, SPEED_50MHZ|OUT_AF_PP);
    1d48:	31800693          	li	a3,792
    1d4c:	4601                	li	a2,0
    1d4e:	4585                	li	a1,1
    1d50:	02600513          	li	a0,38
    1d54:	f4cff0ef          	jal	ra,14a0 <gpio_init>
C:\Users\windows\Desktop\比赛\100 成渝版 带按键\17 110 舵机横向放置 比赛版\RED_BULL\Dual-core_Communication_Demo\MASTER\obj/../Libraries/seekfree_libraries/zf_uart.c:47
        gpio_init(B7, GPI, 0, IN_FLOAT);
    1d58:	4691                	li	a3,4
    1d5a:	4601                	li	a2,0
    1d5c:	4581                	li	a1,0
    1d5e:	02700513          	li	a0,39
    1d62:	bfe1                	j	1d3a <uart_gpio_init+0x20>
C:\Users\windows\Desktop\比赛\100 成渝版 带按键\17 110 舵机横向放置 比赛版\RED_BULL\Dual-core_Communication_Demo\MASTER\obj/../Libraries/seekfree_libraries/zf_uart.c:50
    else if(tx_pin == UART2_TX_A2)
    1d64:	47c1                	li	a5,16
    1d66:	00f51e63          	bne	a0,a5,1d82 <uart_gpio_init+0x68>
C:\Users\windows\Desktop\比赛\100 成渝版 带按键\17 110 舵机横向放置 比赛版\RED_BULL\Dual-core_Communication_Demo\MASTER\obj/../Libraries/seekfree_libraries/zf_uart.c:52
        gpio_init(A2, GPO, 0, SPEED_50MHZ|OUT_AF_PP);
    1d6a:	31800693          	li	a3,792
    1d6e:	4601                	li	a2,0
    1d70:	4585                	li	a1,1
    1d72:	4509                	li	a0,2
    1d74:	f2cff0ef          	jal	ra,14a0 <gpio_init>
C:\Users\windows\Desktop\比赛\100 成渝版 带按键\17 110 舵机横向放置 比赛版\RED_BULL\Dual-core_Communication_Demo\MASTER\obj/../Libraries/seekfree_libraries/zf_uart.c:53
        gpio_init(A3, GPI, 0, IN_FLOAT);
    1d78:	4691                	li	a3,4
    1d7a:	4601                	li	a2,0
    1d7c:	4581                	li	a1,0
    1d7e:	450d                	li	a0,3
    1d80:	bf6d                	j	1d3a <uart_gpio_init+0x20>
C:\Users\windows\Desktop\比赛\100 成渝版 带按键\17 110 舵机横向放置 比赛版\RED_BULL\Dual-core_Communication_Demo\MASTER\obj/../Libraries/seekfree_libraries/zf_uart.c:56
    else if(tx_pin == UART3_TX_B10)
    1d82:	02000793          	li	a5,32
    1d86:	02f51063          	bne	a0,a5,1da6 <uart_gpio_init+0x8c>
C:\Users\windows\Desktop\比赛\100 成渝版 带按键\17 110 舵机横向放置 比赛版\RED_BULL\Dual-core_Communication_Demo\MASTER\obj/../Libraries/seekfree_libraries/zf_uart.c:58
        gpio_init(B10, GPO, 0, SPEED_50MHZ|OUT_AF_PP);
    1d8a:	31800693          	li	a3,792
    1d8e:	4601                	li	a2,0
    1d90:	4585                	li	a1,1
    1d92:	02a00513          	li	a0,42
    1d96:	f0aff0ef          	jal	ra,14a0 <gpio_init>
C:\Users\windows\Desktop\比赛\100 成渝版 带按键\17 110 舵机横向放置 比赛版\RED_BULL\Dual-core_Communication_Demo\MASTER\obj/../Libraries/seekfree_libraries/zf_uart.c:59
        gpio_init(B11, GPI, 0, IN_FLOAT);
    1d9a:	4691                	li	a3,4
    1d9c:	4601                	li	a2,0
    1d9e:	4581                	li	a1,0
    1da0:	02b00513          	li	a0,43
    1da4:	bf59                	j	1d3a <uart_gpio_init+0x20>
C:\Users\windows\Desktop\比赛\100 成渝版 带按键\17 110 舵机横向放置 比赛版\RED_BULL\Dual-core_Communication_Demo\MASTER\obj/../Libraries/seekfree_libraries/zf_uart.c:62
    else if(tx_pin == UART3_TX_C10)
    1da6:	02200793          	li	a5,34
    1daa:	02f51063          	bne	a0,a5,1dca <uart_gpio_init+0xb0>
C:\Users\windows\Desktop\比赛\100 成渝版 带按键\17 110 舵机横向放置 比赛版\RED_BULL\Dual-core_Communication_Demo\MASTER\obj/../Libraries/seekfree_libraries/zf_uart.c:64
        gpio_init(C10, GPO, 0, SPEED_50MHZ|OUT_AF_PP);
    1dae:	31800693          	li	a3,792
    1db2:	4601                	li	a2,0
    1db4:	4585                	li	a1,1
    1db6:	04a00513          	li	a0,74
    1dba:	ee6ff0ef          	jal	ra,14a0 <gpio_init>
C:\Users\windows\Desktop\比赛\100 成渝版 带按键\17 110 舵机横向放置 比赛版\RED_BULL\Dual-core_Communication_Demo\MASTER\obj/../Libraries/seekfree_libraries/zf_uart.c:65
        gpio_init(C11, GPI, 0, IN_FLOAT);
    1dbe:	4691                	li	a3,4
    1dc0:	4601                	li	a2,0
    1dc2:	4581                	li	a1,0
    1dc4:	04b00513          	li	a0,75
    1dc8:	bf8d                	j	1d3a <uart_gpio_init+0x20>
C:\Users\windows\Desktop\比赛\100 成渝版 带按键\17 110 舵机横向放置 比赛版\RED_BULL\Dual-core_Communication_Demo\MASTER\obj/../Libraries/seekfree_libraries/zf_uart.c:67
}
    1dca:	40b2                	lw	ra,12(sp)
    1dcc:	0141                	addi	sp,sp,16
    1dce:	8082                	ret

00001dd0 <uart_init>:
uart_init():
C:\Users\windows\Desktop\比赛\100 成渝版 带按键\17 110 舵机横向放置 比赛版\RED_BULL\Dual-core_Communication_Demo\MASTER\obj/../Libraries/seekfree_libraries/zf_uart.c:79
//  @param      rx_pin      串口接收引脚号
//  @return     void
//  Sample usage:           uart_init(UART_1, 115200, UART1_TX_A9, UART1_RX_A10); //串口1初始化引脚号,TX为A9,RX为A10
//-------------------------------------------------------------------------------------------------------------------
void uart_init(UARTN_enum uartn, uint32 baud, UARTPIN_enum tx_pin, UARTPIN_enum rx_pin)
{
    1dd0:	7179                	addi	sp,sp,-48
    1dd2:	d422                	sw	s0,40(sp)
    1dd4:	ce4e                	sw	s3,28(sp)
    1dd6:	842a                	mv	s0,a0
    1dd8:	89ae                	mv	s3,a1
C:\Users\windows\Desktop\比赛\100 成渝版 带按键\17 110 舵机横向放置 比赛版\RED_BULL\Dual-core_Communication_Demo\MASTER\obj/../Libraries/seekfree_libraries/zf_uart.c:83
    USART_InitTypeDef USART_InitStructure;


    RCC_APB2PeriphClockCmd(RCC_APB2Periph_AFIO, ENABLE);
    1dda:	4505                	li	a0,1
    1ddc:	4585                	li	a1,1
C:\Users\windows\Desktop\比赛\100 成渝版 带按键\17 110 舵机横向放置 比赛版\RED_BULL\Dual-core_Communication_Demo\MASTER\obj/../Libraries/seekfree_libraries/zf_uart.c:79
{
    1dde:	d606                	sw	ra,44(sp)
    1de0:	d226                	sw	s1,36(sp)
    1de2:	d04a                	sw	s2,32(sp)
    1de4:	84b6                	mv	s1,a3
    1de6:	8932                	mv	s2,a2
C:\Users\windows\Desktop\比赛\100 成渝版 带按键\17 110 舵机横向放置 比赛版\RED_BULL\Dual-core_Communication_Demo\MASTER\obj/../Libraries/seekfree_libraries/zf_uart.c:83
    RCC_APB2PeriphClockCmd(RCC_APB2Periph_AFIO, ENABLE);
    1de8:	f9dfe0ef          	jal	ra,d84 <RCC_APB2PeriphClockCmd>
C:\Users\windows\Desktop\比赛\100 成渝版 带按键\17 110 舵机横向放置 比赛版\RED_BULL\Dual-core_Communication_Demo\MASTER\obj/../Libraries/seekfree_libraries/zf_uart.c:86

    //引脚初始化
    uart_gpio_init(tx_pin, rx_pin);
    1dec:	85a6                	mv	a1,s1
    1dee:	854a                	mv	a0,s2
    1df0:	372d                	jal	1d1a <uart_gpio_init>
C:\Users\windows\Desktop\比赛\100 成渝版 带按键\17 110 舵机横向放置 比赛版\RED_BULL\Dual-core_Communication_Demo\MASTER\obj/../Libraries/seekfree_libraries/zf_uart.c:88

    if(UART1_TX_B6 == tx_pin && UART1_RX_B7 == rx_pin)                         //引脚重映射
    1df2:	4789                	li	a5,2
    1df4:	04f91a63          	bne	s2,a5,1e48 <uart_init+0x78>
C:\Users\windows\Desktop\比赛\100 成渝版 带按键\17 110 舵机横向放置 比赛版\RED_BULL\Dual-core_Communication_Demo\MASTER\obj/../Libraries/seekfree_libraries/zf_uart.c:88 (discriminator 1)
    1df8:	478d                	li	a5,3
    1dfa:	00f49663          	bne	s1,a5,1e06 <uart_init+0x36>
C:\Users\windows\Desktop\比赛\100 成渝版 带按键\17 110 舵机横向放置 比赛版\RED_BULL\Dual-core_Communication_Demo\MASTER\obj/../Libraries/seekfree_libraries/zf_uart.c:89
        GPIO_PinRemapConfig(GPIO_Remap_USART1, ENABLE);
    1dfe:	4585                	li	a1,1
    1e00:	4511                	li	a0,4
C:\Users\windows\Desktop\比赛\100 成渝版 带按键\17 110 舵机横向放置 比赛版\RED_BULL\Dual-core_Communication_Demo\MASTER\obj/../Libraries/seekfree_libraries/zf_uart.c:91
    if(UART3_TX_C10 == tx_pin && UART3_RX_C11 == rx_pin)
        GPIO_PinRemapConfig(GPIO_PartialRemap_USART3, ENABLE);
    1e02:	dbdfe0ef          	jal	ra,bbe <GPIO_PinRemapConfig>
C:\Users\windows\Desktop\比赛\100 成渝版 带按键\17 110 舵机横向放置 比赛版\RED_BULL\Dual-core_Communication_Demo\MASTER\obj/../Libraries/seekfree_libraries/zf_uart.c:94

    //串口总线使能
    if(UART_1 == uartn) RCC_APB2PeriphClockCmd(RCC_APB2Periph_USART1, ENABLE);
    1e06:	ec31                	bnez	s0,1e62 <uart_init+0x92>
C:\Users\windows\Desktop\比赛\100 成渝版 带按键\17 110 舵机横向放置 比赛版\RED_BULL\Dual-core_Communication_Demo\MASTER\obj/../Libraries/seekfree_libraries/zf_uart.c:94 (discriminator 1)
    1e08:	4585                	li	a1,1
    1e0a:	6511                	lui	a0,0x4
    1e0c:	f79fe0ef          	jal	ra,d84 <RCC_APB2PeriphClockCmd>
C:\Users\windows\Desktop\比赛\100 成渝版 带按键\17 110 舵机横向放置 比赛版\RED_BULL\Dual-core_Communication_Demo\MASTER\obj/../Libraries/seekfree_libraries/zf_uart.c:102

    //串口参数配置
    USART_InitStructure.USART_BaudRate = baud;
    USART_InitStructure.USART_WordLength = USART_WordLength_8b;
    USART_InitStructure.USART_StopBits = USART_StopBits_1;
    USART_InitStructure.USART_Parity = USART_Parity_No;
    1e10:	000c07b7          	lui	a5,0xc0
    1e14:	c43e                	sw	a5,8(sp)
C:\Users\windows\Desktop\比赛\100 成渝版 带按键\17 110 舵机横向放置 比赛版\RED_BULL\Dual-core_Communication_Demo\MASTER\obj/../Libraries/seekfree_libraries/zf_uart.c:107
    USART_InitStructure.USART_HardwareFlowControl = USART_HardwareFlowControl_None;
    USART_InitStructure.USART_Mode = USART_Mode_Tx | USART_Mode_Rx;

    //使能串口
    USART_Init((USART_TypeDef*)UARTN[uartn], &USART_InitStructure);
    1e16:	6791                	lui	a5,0x4
    1e18:	cc078793          	addi	a5,a5,-832 # 3cc0 <UARTN>
    1e1c:	040a                	slli	s0,s0,0x2
    1e1e:	943e                	add	s0,s0,a5
    1e20:	4000                	lw	s0,0(s0)
    1e22:	858a                	mv	a1,sp
C:\Users\windows\Desktop\比赛\100 成渝版 带按键\17 110 舵机横向放置 比赛版\RED_BULL\Dual-core_Communication_Demo\MASTER\obj/../Libraries/seekfree_libraries/zf_uart.c:99
    USART_InitStructure.USART_BaudRate = baud;
    1e24:	c04e                	sw	s3,0(sp)
C:\Users\windows\Desktop\比赛\100 成渝版 带按键\17 110 舵机横向放置 比赛版\RED_BULL\Dual-core_Communication_Demo\MASTER\obj/../Libraries/seekfree_libraries/zf_uart.c:107
    USART_Init((USART_TypeDef*)UARTN[uartn], &USART_InitStructure);
    1e26:	8522                	mv	a0,s0
C:\Users\windows\Desktop\比赛\100 成渝版 带按键\17 110 舵机横向放置 比赛版\RED_BULL\Dual-core_Communication_Demo\MASTER\obj/../Libraries/seekfree_libraries/zf_uart.c:100
    USART_InitStructure.USART_WordLength = USART_WordLength_8b;
    1e28:	c202                	sw	zero,4(sp)
C:\Users\windows\Desktop\比赛\100 成渝版 带按键\17 110 舵机横向放置 比赛版\RED_BULL\Dual-core_Communication_Demo\MASTER\obj/../Libraries/seekfree_libraries/zf_uart.c:103
    USART_InitStructure.USART_HardwareFlowControl = USART_HardwareFlowControl_None;
    1e2a:	00011623          	sh	zero,12(sp)
C:\Users\windows\Desktop\比赛\100 成渝版 带按键\17 110 舵机横向放置 比赛版\RED_BULL\Dual-core_Communication_Demo\MASTER\obj/../Libraries/seekfree_libraries/zf_uart.c:107
    USART_Init((USART_TypeDef*)UARTN[uartn], &USART_InitStructure);
    1e2e:	be4ff0ef          	jal	ra,1212 <USART_Init>
C:\Users\windows\Desktop\比赛\100 成渝版 带按键\17 110 舵机横向放置 比赛版\RED_BULL\Dual-core_Communication_Demo\MASTER\obj/../Libraries/seekfree_libraries/zf_uart.c:108
    USART_Cmd((USART_TypeDef*)UARTN[uartn], ENABLE);
    1e32:	8522                	mv	a0,s0
    1e34:	4585                	li	a1,1
    1e36:	cb6ff0ef          	jal	ra,12ec <USART_Cmd>
C:\Users\windows\Desktop\比赛\100 成渝版 带按键\17 110 舵机横向放置 比赛版\RED_BULL\Dual-core_Communication_Demo\MASTER\obj/../Libraries/seekfree_libraries/zf_uart.c:111


}
    1e3a:	50b2                	lw	ra,44(sp)
    1e3c:	5422                	lw	s0,40(sp)
    1e3e:	5492                	lw	s1,36(sp)
    1e40:	5902                	lw	s2,32(sp)
    1e42:	49f2                	lw	s3,28(sp)
    1e44:	6145                	addi	sp,sp,48
    1e46:	8082                	ret
C:\Users\windows\Desktop\比赛\100 成渝版 带按键\17 110 舵机横向放置 比赛版\RED_BULL\Dual-core_Communication_Demo\MASTER\obj/../Libraries/seekfree_libraries/zf_uart.c:90
    if(UART3_TX_C10 == tx_pin && UART3_RX_C11 == rx_pin)
    1e48:	02200793          	li	a5,34
    1e4c:	faf91de3          	bne	s2,a5,1e06 <uart_init+0x36>
C:\Users\windows\Desktop\比赛\100 成渝版 带按键\17 110 舵机横向放置 比赛版\RED_BULL\Dual-core_Communication_Demo\MASTER\obj/../Libraries/seekfree_libraries/zf_uart.c:90 (discriminator 1)
    1e50:	02300793          	li	a5,35
    1e54:	faf499e3          	bne	s1,a5,1e06 <uart_init+0x36>
C:\Users\windows\Desktop\比赛\100 成渝版 带按键\17 110 舵机横向放置 比赛版\RED_BULL\Dual-core_Communication_Demo\MASTER\obj/../Libraries/seekfree_libraries/zf_uart.c:91
        GPIO_PinRemapConfig(GPIO_PartialRemap_USART3, ENABLE);
    1e58:	00140537          	lui	a0,0x140
    1e5c:	4585                	li	a1,1
    1e5e:	0541                	addi	a0,a0,16
    1e60:	b74d                	j	1e02 <uart_init+0x32>
C:\Users\windows\Desktop\比赛\100 成渝版 带按键\17 110 舵机横向放置 比赛版\RED_BULL\Dual-core_Communication_Demo\MASTER\obj/../Libraries/seekfree_libraries/zf_uart.c:95
    else if(UART_2 == uartn) RCC_APB1PeriphClockCmd(RCC_APB1Periph_USART2, ENABLE);
    1e62:	4785                	li	a5,1
    1e64:	00f41863          	bne	s0,a5,1e74 <uart_init+0xa4>
C:\Users\windows\Desktop\比赛\100 成渝版 带按键\17 110 舵机横向放置 比赛版\RED_BULL\Dual-core_Communication_Demo\MASTER\obj/../Libraries/seekfree_libraries/zf_uart.c:95 (discriminator 1)
    1e68:	4585                	li	a1,1
    1e6a:	00020537          	lui	a0,0x20
C:\Users\windows\Desktop\比赛\100 成渝版 带按键\17 110 舵机横向放置 比赛版\RED_BULL\Dual-core_Communication_Demo\MASTER\obj/../Libraries/seekfree_libraries/zf_uart.c:96 (discriminator 1)
    else if(UART_3 == uartn) RCC_APB1PeriphClockCmd(RCC_APB1Periph_USART3, ENABLE);
    1e6e:	f35fe0ef          	jal	ra,da2 <RCC_APB1PeriphClockCmd>
    1e72:	bf79                	j	1e10 <uart_init+0x40>
C:\Users\windows\Desktop\比赛\100 成渝版 带按键\17 110 舵机横向放置 比赛版\RED_BULL\Dual-core_Communication_Demo\MASTER\obj/../Libraries/seekfree_libraries/zf_uart.c:96
    1e74:	4789                	li	a5,2
    1e76:	f8f41de3          	bne	s0,a5,1e10 <uart_init+0x40>
C:\Users\windows\Desktop\比赛\100 成渝版 带按键\17 110 舵机横向放置 比赛版\RED_BULL\Dual-core_Communication_Demo\MASTER\obj/../Libraries/seekfree_libraries/zf_uart.c:96 (discriminator 1)
    1e7a:	4585                	li	a1,1
    1e7c:	00040537          	lui	a0,0x40
    1e80:	b7fd                	j	1e6e <uart_init+0x9e>

00001e82 <uart_rx_irq>:
uart_rx_irq():
C:\Users\windows\Desktop\比赛\100 成渝版 带按键\17 110 舵机横向放置 比赛版\RED_BULL\Dual-core_Communication_Demo\MASTER\obj/../Libraries/seekfree_libraries/zf_uart.c:166
//  @return     void
//  Sample usage:           uart_rx_irq(UART_1, ENABLE);        //打开串口1接收中断
//-------------------------------------------------------------------------------------------------------------------
void uart_rx_irq(UARTN_enum uartn,uint8 status)
{
    USART_ITConfig(((USART_TypeDef*)UARTN[uartn]), USART_IT_RXNE, ENABLE);
    1e82:	6791                	lui	a5,0x4
    1e84:	00251713          	slli	a4,a0,0x2
    1e88:	cc078793          	addi	a5,a5,-832 # 3cc0 <UARTN>
C:\Users\windows\Desktop\比赛\100 成渝版 带按键\17 110 舵机横向放置 比赛版\RED_BULL\Dual-core_Communication_Demo\MASTER\obj/../Libraries/seekfree_libraries/zf_uart.c:165
{
    1e8c:	1101                	addi	sp,sp,-32
C:\Users\windows\Desktop\比赛\100 成渝版 带按键\17 110 舵机横向放置 比赛版\RED_BULL\Dual-core_Communication_Demo\MASTER\obj/../Libraries/seekfree_libraries/zf_uart.c:166
    USART_ITConfig(((USART_TypeDef*)UARTN[uartn]), USART_IT_RXNE, ENABLE);
    1e8e:	97ba                	add	a5,a5,a4
C:\Users\windows\Desktop\比赛\100 成渝版 带按键\17 110 舵机横向放置 比赛版\RED_BULL\Dual-core_Communication_Demo\MASTER\obj/../Libraries/seekfree_libraries/zf_uart.c:165
{
    1e90:	cc22                	sw	s0,24(sp)
    1e92:	842a                	mv	s0,a0
C:\Users\windows\Desktop\比赛\100 成渝版 带按键\17 110 舵机横向放置 比赛版\RED_BULL\Dual-core_Communication_Demo\MASTER\obj/../Libraries/seekfree_libraries/zf_uart.c:166
    USART_ITConfig(((USART_TypeDef*)UARTN[uartn]), USART_IT_RXNE, ENABLE);
    1e94:	4388                	lw	a0,0(a5)
C:\Users\windows\Desktop\比赛\100 成渝版 带按键\17 110 舵机横向放置 比赛版\RED_BULL\Dual-core_Communication_Demo\MASTER\obj/../Libraries/seekfree_libraries/zf_uart.c:165
{
    1e96:	c62e                	sw	a1,12(sp)
C:\Users\windows\Desktop\比赛\100 成渝版 带按键\17 110 舵机横向放置 比赛版\RED_BULL\Dual-core_Communication_Demo\MASTER\obj/../Libraries/seekfree_libraries/zf_uart.c:166
    USART_ITConfig(((USART_TypeDef*)UARTN[uartn]), USART_IT_RXNE, ENABLE);
    1e98:	4605                	li	a2,1
    1e9a:	52500593          	li	a1,1317
C:\Users\windows\Desktop\比赛\100 成渝版 带按键\17 110 舵机横向放置 比赛版\RED_BULL\Dual-core_Communication_Demo\MASTER\obj/../Libraries/seekfree_libraries/zf_uart.c:165
{
    1e9e:	ce06                	sw	ra,28(sp)
C:\Users\windows\Desktop\比赛\100 成渝版 带按键\17 110 舵机横向放置 比赛版\RED_BULL\Dual-core_Communication_Demo\MASTER\obj/../Libraries/seekfree_libraries/zf_uart.c:166
    USART_ITConfig(((USART_TypeDef*)UARTN[uartn]), USART_IT_RXNE, ENABLE);
    1ea0:	c68ff0ef          	jal	ra,1308 <USART_ITConfig>
C:\Users\windows\Desktop\比赛\100 成渝版 带按键\17 110 舵机横向放置 比赛版\RED_BULL\Dual-core_Communication_Demo\MASTER\obj/../Libraries/seekfree_libraries/zf_uart.c:167
    nvic_init(USART1_IRQn + uartn, 0, 0, status);
    1ea4:	03540513          	addi	a0,s0,53
C:\Users\windows\Desktop\比赛\100 成渝版 带按键\17 110 舵机横向放置 比赛版\RED_BULL\Dual-core_Communication_Demo\MASTER\obj/../Libraries/seekfree_libraries/zf_uart.c:168
}
    1ea8:	4462                	lw	s0,24(sp)
C:\Users\windows\Desktop\比赛\100 成渝版 带按键\17 110 舵机横向放置 比赛版\RED_BULL\Dual-core_Communication_Demo\MASTER\obj/../Libraries/seekfree_libraries/zf_uart.c:167
    nvic_init(USART1_IRQn + uartn, 0, 0, status);
    1eaa:	46b2                	lw	a3,12(sp)
C:\Users\windows\Desktop\比赛\100 成渝版 带按键\17 110 舵机横向放置 比赛版\RED_BULL\Dual-core_Communication_Demo\MASTER\obj/../Libraries/seekfree_libraries/zf_uart.c:168
}
    1eac:	40f2                	lw	ra,28(sp)
C:\Users\windows\Desktop\比赛\100 成渝版 带按键\17 110 舵机横向放置 比赛版\RED_BULL\Dual-core_Communication_Demo\MASTER\obj/../Libraries/seekfree_libraries/zf_uart.c:167
    nvic_init(USART1_IRQn + uartn, 0, 0, status);
    1eae:	4601                	li	a2,0
    1eb0:	4581                	li	a1,0
C:\Users\windows\Desktop\比赛\100 成渝版 带按键\17 110 舵机横向放置 比赛版\RED_BULL\Dual-core_Communication_Demo\MASTER\obj/../Libraries/seekfree_libraries/zf_uart.c:168
}
    1eb2:	6105                	addi	sp,sp,32
C:\Users\windows\Desktop\比赛\100 成渝版 带按键\17 110 舵机横向放置 比赛版\RED_BULL\Dual-core_Communication_Demo\MASTER\obj/../Libraries/seekfree_libraries/zf_uart.c:167
    nvic_init(USART1_IRQn + uartn, 0, 0, status);
    1eb4:	f52ff06f          	j	1606 <nvic_init>

00001eb8 <board_init>:
board_init():
C:\Users\windows\Desktop\比赛\100 成渝版 带按键\17 110 舵机横向放置 比赛版\RED_BULL\Dual-core_Communication_Demo\MASTER\obj/../Libraries/board/board.c:11


void board_init(void)
{
    //获取系统主频
    sys_clk = 8000000 * (((RCC->CFGR0 >> 18)&0x0F) + 2);
    1eb8:	400217b7          	lui	a5,0x40021
    1ebc:	43dc                	lw	a5,4(a5)
    1ebe:	007a1737          	lui	a4,0x7a1
    1ec2:	20070713          	addi	a4,a4,512 # 7a1200 <_data_lma+0x79d378>
    1ec6:	83c9                	srli	a5,a5,0x12
    1ec8:	8bbd                	andi	a5,a5,15
    1eca:	02e787b3          	mul	a5,a5,a4
    1ece:	00f42737          	lui	a4,0xf42
    1ed2:	40070713          	addi	a4,a4,1024 # f42400 <_data_lma+0xf3e578>
C:\Users\windows\Desktop\比赛\100 成渝版 带按键\17 110 舵机横向放置 比赛版\RED_BULL\Dual-core_Communication_Demo\MASTER\obj/../Libraries/board/board.c:13
    //初始化DEBUG串口
    uart_init(DEBUG_UART, DEBUG_UART_BAUD, DEBUG_UART_TX_PIN, DEBUG_UART_RX_PIN);
    1ed6:	65f1                	lui	a1,0x1c
    1ed8:	4685                	li	a3,1
    1eda:	4601                	li	a2,0
    1edc:	20058593          	addi	a1,a1,512 # 1c200 <_data_lma+0x18378>
    1ee0:	4501                	li	a0,0
C:\Users\windows\Desktop\比赛\100 成渝版 带按键\17 110 舵机横向放置 比赛版\RED_BULL\Dual-core_Communication_Demo\MASTER\obj/../Libraries/board/board.c:11
    sys_clk = 8000000 * (((RCC->CFGR0 >> 18)&0x0F) + 2);
    1ee2:	97ba                	add	a5,a5,a4
    1ee4:	84f1a423          	sw	a5,-1976(gp) # 20000058 <sys_clk>
C:\Users\windows\Desktop\比赛\100 成渝版 带按键\17 110 舵机横向放置 比赛版\RED_BULL\Dual-core_Communication_Demo\MASTER\obj/../Libraries/board/board.c:13
    uart_init(DEBUG_UART, DEBUG_UART_BAUD, DEBUG_UART_TX_PIN, DEBUG_UART_RX_PIN);
    1ee8:	b5e5                	j	1dd0 <uart_init>

00001eea <SystemInit>:
SystemInit():
C:\Users\windows\Desktop\比赛\100 成渝版 带按键\17 110 舵机横向放置 比赛版\RED_BULL\Dual-core_Communication_Demo\MASTER\obj/../Libraries/board/clock_config.c:85
* Input          : None
* Return         : None
*******************************************************************************************/
void SystemInit (void)
{
    RCC->CTLR |= (uint32_t)0x00000001;
    1eea:	400217b7          	lui	a5,0x40021
    1eee:	4398                	lw	a4,0(a5)
C:\Users\windows\Desktop\比赛\100 成渝版 带按键\17 110 舵机横向放置 比赛版\RED_BULL\Dual-core_Communication_Demo\MASTER\obj/../Libraries/board/clock_config.c:86
    RCC->CFGR0 &= (uint32_t)0xF8FF0000;
    1ef0:	f8ff06b7          	lui	a3,0xf8ff0
C:\Users\windows\Desktop\比赛\100 成渝版 带按键\17 110 舵机横向放置 比赛版\RED_BULL\Dual-core_Communication_Demo\MASTER\obj/../Libraries/board/clock_config.c:84
{
    1ef4:	1141                	addi	sp,sp,-16
C:\Users\windows\Desktop\比赛\100 成渝版 带按键\17 110 舵机横向放置 比赛版\RED_BULL\Dual-core_Communication_Demo\MASTER\obj/../Libraries/board/clock_config.c:85
    RCC->CTLR |= (uint32_t)0x00000001;
    1ef6:	00176713          	ori	a4,a4,1
    1efa:	c398                	sw	a4,0(a5)
C:\Users\windows\Desktop\比赛\100 成渝版 带按键\17 110 舵机横向放置 比赛版\RED_BULL\Dual-core_Communication_Demo\MASTER\obj/../Libraries/board/clock_config.c:86
    RCC->CFGR0 &= (uint32_t)0xF8FF0000;
    1efc:	43d8                	lw	a4,4(a5)
SetSysClock():
C:\Users\windows\Desktop\比赛\100 成渝版 带按键\17 110 舵机横向放置 比赛版\RED_BULL\Dual-core_Communication_Demo\MASTER\obj/../Libraries/board/clock_config.c:19
        HSEStatus = RCC->CTLR & RCC_HSERDY;
    1efe:	00020637          	lui	a2,0x20
SystemInit():
C:\Users\windows\Desktop\比赛\100 成渝版 带按键\17 110 舵机横向放置 比赛版\RED_BULL\Dual-core_Communication_Demo\MASTER\obj/../Libraries/board/clock_config.c:86
    RCC->CFGR0 &= (uint32_t)0xF8FF0000;
    1f02:	8f75                	and	a4,a4,a3
    1f04:	c3d8                	sw	a4,4(a5)
C:\Users\windows\Desktop\比赛\100 成渝版 带按键\17 110 舵机横向放置 比赛版\RED_BULL\Dual-core_Communication_Demo\MASTER\obj/../Libraries/board/clock_config.c:87
    RCC->CTLR &= (uint32_t)0xFEF6FFFF;
    1f06:	4398                	lw	a4,0(a5)
    1f08:	fef706b7          	lui	a3,0xfef70
    1f0c:	16fd                	addi	a3,a3,-1
    1f0e:	8f75                	and	a4,a4,a3
    1f10:	c398                	sw	a4,0(a5)
C:\Users\windows\Desktop\比赛\100 成渝版 带按键\17 110 舵机横向放置 比赛版\RED_BULL\Dual-core_Communication_Demo\MASTER\obj/../Libraries/board/clock_config.c:88
    RCC->CTLR &= (uint32_t)0xFFFBFFFF;
    1f12:	4398                	lw	a4,0(a5)
    1f14:	fffc06b7          	lui	a3,0xfffc0
    1f18:	16fd                	addi	a3,a3,-1
    1f1a:	8f75                	and	a4,a4,a3
    1f1c:	c398                	sw	a4,0(a5)
C:\Users\windows\Desktop\比赛\100 成渝版 带按键\17 110 舵机横向放置 比赛版\RED_BULL\Dual-core_Communication_Demo\MASTER\obj/../Libraries/board/clock_config.c:89
    RCC->CFGR0 &= (uint32_t)0xFF80FFFF;
    1f1e:	43d8                	lw	a4,4(a5)
    1f20:	ff8106b7          	lui	a3,0xff810
    1f24:	16fd                	addi	a3,a3,-1
    1f26:	8f75                	and	a4,a4,a3
    1f28:	c3d8                	sw	a4,4(a5)
C:\Users\windows\Desktop\比赛\100 成渝版 带按键\17 110 舵机横向放置 比赛版\RED_BULL\Dual-core_Communication_Demo\MASTER\obj/../Libraries/board/clock_config.c:90
    RCC->INTR = 0x009F0000;
    1f2a:	009f0737          	lui	a4,0x9f0
    1f2e:	c798                	sw	a4,8(a5)
SetSysClock():
C:\Users\windows\Desktop\比赛\100 成渝版 带按键\17 110 舵机横向放置 比赛版\RED_BULL\Dual-core_Communication_Demo\MASTER\obj/../Libraries/board/clock_config.c:12
    __IO uint32_t StartUpCounter = 0, HSEStatus = 0;
    1f30:	c402                	sw	zero,8(sp)
    1f32:	c602                	sw	zero,12(sp)
C:\Users\windows\Desktop\比赛\100 成渝版 带按键\17 110 舵机横向放置 比赛版\RED_BULL\Dual-core_Communication_Demo\MASTER\obj/../Libraries/board/clock_config.c:14
    RCC->CTLR |= ((uint32_t)RCC_HSEON);
    1f34:	4398                	lw	a4,0(a5)
    1f36:	66c1                	lui	a3,0x10
    1f38:	8f55                	or	a4,a4,a3
    1f3a:	c398                	sw	a4,0(a5)
C:\Users\windows\Desktop\比赛\100 成渝版 带按键\17 110 舵机横向放置 比赛版\RED_BULL\Dual-core_Communication_Demo\MASTER\obj/../Libraries/board/clock_config.c:19
        HSEStatus = RCC->CTLR & RCC_HSERDY;
    1f3c:	400216b7          	lui	a3,0x40021
C:\Users\windows\Desktop\比赛\100 成渝版 带按键\17 110 舵机横向放置 比赛版\RED_BULL\Dual-core_Communication_Demo\MASTER\obj/../Libraries/board/clock_config.c:21
    } while((HSEStatus == 0) && (StartUpCounter != HSE_STARTUP_TIMEOUT));
    1f40:	50000713          	li	a4,1280
C:\Users\windows\Desktop\比赛\100 成渝版 带按键\17 110 舵机横向放置 比赛版\RED_BULL\Dual-core_Communication_Demo\MASTER\obj/../Libraries/board/clock_config.c:19
        HSEStatus = RCC->CTLR & RCC_HSERDY;
    1f44:	429c                	lw	a5,0(a3)
    1f46:	8ff1                	and	a5,a5,a2
    1f48:	c63e                	sw	a5,12(sp)
C:\Users\windows\Desktop\比赛\100 成渝版 带按键\17 110 舵机横向放置 比赛版\RED_BULL\Dual-core_Communication_Demo\MASTER\obj/../Libraries/board/clock_config.c:20
        StartUpCounter++;
    1f4a:	47a2                	lw	a5,8(sp)
    1f4c:	0785                	addi	a5,a5,1
    1f4e:	c43e                	sw	a5,8(sp)
C:\Users\windows\Desktop\比赛\100 成渝版 带按键\17 110 舵机横向放置 比赛版\RED_BULL\Dual-core_Communication_Demo\MASTER\obj/../Libraries/board/clock_config.c:21
    } while((HSEStatus == 0) && (StartUpCounter != HSE_STARTUP_TIMEOUT));
    1f50:	47b2                	lw	a5,12(sp)
    1f52:	e781                	bnez	a5,1f5a <SystemInit+0x70>
    1f54:	47a2                	lw	a5,8(sp)
    1f56:	fee797e3          	bne	a5,a4,1f44 <SystemInit+0x5a>
C:\Users\windows\Desktop\比赛\100 成渝版 带按键\17 110 舵机横向放置 比赛版\RED_BULL\Dual-core_Communication_Demo\MASTER\obj/../Libraries/board/clock_config.c:23
    if ((RCC->CTLR & RCC_HSERDY) != RESET)
    1f5a:	400217b7          	lui	a5,0x40021
    1f5e:	439c                	lw	a5,0(a5)
    1f60:	00e79713          	slli	a4,a5,0xe
    1f64:	08075263          	bgez	a4,1fe8 <SystemInit+0xfe>
C:\Users\windows\Desktop\比赛\100 成渝版 带按键\17 110 舵机横向放置 比赛版\RED_BULL\Dual-core_Communication_Demo\MASTER\obj/../Libraries/board/clock_config.c:25
        HSEStatus = (uint32_t)0x01;
    1f68:	4785                	li	a5,1
    1f6a:	c63e                	sw	a5,12(sp)
C:\Users\windows\Desktop\比赛\100 成渝版 带按键\17 110 舵机横向放置 比赛版\RED_BULL\Dual-core_Communication_Demo\MASTER\obj/../Libraries/board/clock_config.c:32
    if (HSEStatus == (uint32_t)0x01)
    1f6c:	4732                	lw	a4,12(sp)
    1f6e:	4785                	li	a5,1
    1f70:	06f71a63          	bne	a4,a5,1fe4 <SystemInit+0xfa>
C:\Users\windows\Desktop\比赛\100 成渝版 带按键\17 110 舵机横向放置 比赛版\RED_BULL\Dual-core_Communication_Demo\MASTER\obj/../Libraries/board/clock_config.c:35
        FLASH->ACTLR |= FLASH_ACTLR_PRFTBE;
    1f74:	400227b7          	lui	a5,0x40022
    1f78:	4398                	lw	a4,0(a5)
C:\Users\windows\Desktop\比赛\100 成渝版 带按键\17 110 舵机横向放置 比赛版\RED_BULL\Dual-core_Communication_Demo\MASTER\obj/../Libraries/board/clock_config.c:49
        RCC->CFGR0 &= (uint32_t)((uint32_t)~(RCC_PLLSRC | RCC_PLLXTPRE |
    1f7a:	ffc106b7          	lui	a3,0xffc10
    1f7e:	16fd                	addi	a3,a3,-1
C:\Users\windows\Desktop\比赛\100 成渝版 带按键\17 110 舵机横向放置 比赛版\RED_BULL\Dual-core_Communication_Demo\MASTER\obj/../Libraries/board/clock_config.c:35
        FLASH->ACTLR |= FLASH_ACTLR_PRFTBE;
    1f80:	01076713          	ori	a4,a4,16
    1f84:	c398                	sw	a4,0(a5)
C:\Users\windows\Desktop\比赛\100 成渝版 带按键\17 110 舵机横向放置 比赛版\RED_BULL\Dual-core_Communication_Demo\MASTER\obj/../Libraries/board/clock_config.c:38
        FLASH->ACTLR &= (uint32_t)((uint32_t)~FLASH_ACTLR_LATENCY);
    1f86:	4398                	lw	a4,0(a5)
    1f88:	9b71                	andi	a4,a4,-4
    1f8a:	c398                	sw	a4,0(a5)
C:\Users\windows\Desktop\比赛\100 成渝版 带按键\17 110 舵机横向放置 比赛版\RED_BULL\Dual-core_Communication_Demo\MASTER\obj/../Libraries/board/clock_config.c:39
        FLASH->ACTLR |= (uint32_t)FLASH_ACTLR_LATENCY_2;
    1f8c:	4398                	lw	a4,0(a5)
    1f8e:	00276713          	ori	a4,a4,2
    1f92:	c398                	sw	a4,0(a5)
C:\Users\windows\Desktop\比赛\100 成渝版 带按键\17 110 舵机横向放置 比赛版\RED_BULL\Dual-core_Communication_Demo\MASTER\obj/../Libraries/board/clock_config.c:42
        RCC->CFGR0 |= (uint32_t)RCC_HPRE_DIV1;
    1f94:	400217b7          	lui	a5,0x40021
    1f98:	43d8                	lw	a4,4(a5)
    1f9a:	c3d8                	sw	a4,4(a5)
C:\Users\windows\Desktop\比赛\100 成渝版 带按键\17 110 舵机横向放置 比赛版\RED_BULL\Dual-core_Communication_Demo\MASTER\obj/../Libraries/board/clock_config.c:44
        RCC->CFGR0 |= (uint32_t)RCC_PPRE2_DIV1;
    1f9c:	43d8                	lw	a4,4(a5)
    1f9e:	c3d8                	sw	a4,4(a5)
C:\Users\windows\Desktop\比赛\100 成渝版 带按键\17 110 舵机横向放置 比赛版\RED_BULL\Dual-core_Communication_Demo\MASTER\obj/../Libraries/board/clock_config.c:46
        RCC->CFGR0 |= (uint32_t)RCC_PPRE1_DIV1;
    1fa0:	43d8                	lw	a4,4(a5)
    1fa2:	c3d8                	sw	a4,4(a5)
C:\Users\windows\Desktop\比赛\100 成渝版 带按键\17 110 舵机横向放置 比赛版\RED_BULL\Dual-core_Communication_Demo\MASTER\obj/../Libraries/board/clock_config.c:49
        RCC->CFGR0 &= (uint32_t)((uint32_t)~(RCC_PLLSRC | RCC_PLLXTPRE |
    1fa4:	43d8                	lw	a4,4(a5)
    1fa6:	8f75                	and	a4,a4,a3
    1fa8:	c3d8                	sw	a4,4(a5)
C:\Users\windows\Desktop\比赛\100 成渝版 带按键\17 110 舵机横向放置 比赛版\RED_BULL\Dual-core_Communication_Demo\MASTER\obj/../Libraries/board/clock_config.c:52
        RCC->CFGR0 |= (uint32_t)(RCC_PLLSRC_HSE | RCC_PLLMULL11);
    1faa:	43d8                	lw	a4,4(a5)
    1fac:	002506b7          	lui	a3,0x250
    1fb0:	8f55                	or	a4,a4,a3
    1fb2:	c3d8                	sw	a4,4(a5)
C:\Users\windows\Desktop\比赛\100 成渝版 带按键\17 110 舵机横向放置 比赛版\RED_BULL\Dual-core_Communication_Demo\MASTER\obj/../Libraries/board/clock_config.c:54
        RCC->CTLR |= RCC_PLLON;
    1fb4:	4398                	lw	a4,0(a5)
    1fb6:	010006b7          	lui	a3,0x1000
    1fba:	8f55                	or	a4,a4,a3
    1fbc:	c398                	sw	a4,0(a5)
C:\Users\windows\Desktop\比赛\100 成渝版 带按键\17 110 舵机横向放置 比赛版\RED_BULL\Dual-core_Communication_Demo\MASTER\obj/../Libraries/board/clock_config.c:56
        while((RCC->CTLR & RCC_PLLRDY) == 0)
    1fbe:	4398                	lw	a4,0(a5)
    1fc0:	00671693          	slli	a3,a4,0x6
    1fc4:	fe06dde3          	bgez	a3,1fbe <SystemInit+0xd4>
C:\Users\windows\Desktop\比赛\100 成渝版 带按键\17 110 舵机横向放置 比赛版\RED_BULL\Dual-core_Communication_Demo\MASTER\obj/../Libraries/board/clock_config.c:60
        RCC->CFGR0 &= (uint32_t)((uint32_t)~(RCC_SW));
    1fc8:	43d8                	lw	a4,4(a5)
C:\Users\windows\Desktop\比赛\100 成渝版 带按键\17 110 舵机横向放置 比赛版\RED_BULL\Dual-core_Communication_Demo\MASTER\obj/../Libraries/board/clock_config.c:63
        while ((RCC->CFGR0 & (uint32_t)RCC_SWS) != (uint32_t)0x08)
    1fca:	400216b7          	lui	a3,0x40021
C:\Users\windows\Desktop\比赛\100 成渝版 带按键\17 110 舵机横向放置 比赛版\RED_BULL\Dual-core_Communication_Demo\MASTER\obj/../Libraries/board/clock_config.c:60
        RCC->CFGR0 &= (uint32_t)((uint32_t)~(RCC_SW));
    1fce:	9b71                	andi	a4,a4,-4
    1fd0:	c3d8                	sw	a4,4(a5)
C:\Users\windows\Desktop\比赛\100 成渝版 带按键\17 110 舵机横向放置 比赛版\RED_BULL\Dual-core_Communication_Demo\MASTER\obj/../Libraries/board/clock_config.c:61
        RCC->CFGR0 |= (uint32_t)RCC_SW_PLL;
    1fd2:	43d8                	lw	a4,4(a5)
    1fd4:	00276713          	ori	a4,a4,2
    1fd8:	c3d8                	sw	a4,4(a5)
C:\Users\windows\Desktop\比赛\100 成渝版 带按键\17 110 舵机横向放置 比赛版\RED_BULL\Dual-core_Communication_Demo\MASTER\obj/../Libraries/board/clock_config.c:63
        while ((RCC->CFGR0 & (uint32_t)RCC_SWS) != (uint32_t)0x08)
    1fda:	4721                	li	a4,8
    1fdc:	42dc                	lw	a5,4(a3)
    1fde:	8bb1                	andi	a5,a5,12
    1fe0:	fee79ee3          	bne	a5,a4,1fdc <SystemInit+0xf2>
SystemInit():
C:\Users\windows\Desktop\比赛\100 成渝版 带按键\17 110 舵机横向放置 比赛版\RED_BULL\Dual-core_Communication_Demo\MASTER\obj/../Libraries/board/clock_config.c:92
    SetSysClock();
}
    1fe4:	0141                	addi	sp,sp,16
    1fe6:	8082                	ret
SetSysClock():
C:\Users\windows\Desktop\比赛\100 成渝版 带按键\17 110 舵机横向放置 比赛版\RED_BULL\Dual-core_Communication_Demo\MASTER\obj/../Libraries/board/clock_config.c:29
        HSEStatus = (uint32_t)0x00;
    1fe8:	c602                	sw	zero,12(sp)
    1fea:	b749                	j	1f6c <SystemInit+0x82>

00001fec <Duty_Init>:
Duty_Init():
C:\Users\windows\Desktop\比赛\100 成渝版 带按键\17 110 舵机横向放置 比赛版\RED_BULL\Dual-core_Communication_Demo\MASTER\obj/../CODE/Motor.c:14
#define PWM_FREQ 17000
#define MAX_DUTY 10000


void Duty_Init()
{
    1fec:	1141                	addi	sp,sp,-16
    1fee:	c422                	sw	s0,8(sp)
C:\Users\windows\Desktop\比赛\100 成渝版 带按键\17 110 舵机横向放置 比赛版\RED_BULL\Dual-core_Communication_Demo\MASTER\obj/../CODE/Motor.c:15
    pwm_init(PWM4_CH2_B7,PWM_FREQ,0);//电机PWM引脚初始化PWM4_CH1_B6
    1ff0:	6411                	lui	s0,0x4
    1ff2:	26840593          	addi	a1,s0,616 # 4268 <_data_lma+0x3e0>
    1ff6:	4601                	li	a2,0
    1ff8:	30100513          	li	a0,769
C:\Users\windows\Desktop\比赛\100 成渝版 带按键\17 110 舵机横向放置 比赛版\RED_BULL\Dual-core_Communication_Demo\MASTER\obj/../CODE/Motor.c:14
{
    1ffc:	c606                	sw	ra,12(sp)
C:\Users\windows\Desktop\比赛\100 成渝版 带按键\17 110 舵机横向放置 比赛版\RED_BULL\Dual-core_Communication_Demo\MASTER\obj/../CODE/Motor.c:15
    pwm_init(PWM4_CH2_B7,PWM_FREQ,0);//电机PWM引脚初始化PWM4_CH1_B6
    1ffe:	8d9ff0ef          	jal	ra,18d6 <pwm_init>
C:\Users\windows\Desktop\比赛\100 成渝版 带按键\17 110 舵机横向放置 比赛版\RED_BULL\Dual-core_Communication_Demo\MASTER\obj/../CODE/Motor.c:16
    pwm_init(PWM4_CH1_B6,PWM_FREQ,0);
    2002:	26840593          	addi	a1,s0,616
    2006:	4601                	li	a2,0
    2008:	30000513          	li	a0,768
    200c:	8cbff0ef          	jal	ra,18d6 <pwm_init>
C:\Users\windows\Desktop\比赛\100 成渝版 带按键\17 110 舵机横向放置 比赛版\RED_BULL\Dual-core_Communication_Demo\MASTER\obj/../CODE/Motor.c:17
    pwm_init(PWM4_CH3_B8,PWM_FREQ,0);
    2010:	26840593          	addi	a1,s0,616
    2014:	4601                	li	a2,0
    2016:	30200513          	li	a0,770
    201a:	8bdff0ef          	jal	ra,18d6 <pwm_init>
C:\Users\windows\Desktop\比赛\100 成渝版 带按键\17 110 舵机横向放置 比赛版\RED_BULL\Dual-core_Communication_Demo\MASTER\obj/../CODE/Motor.c:18
    pwm_init(PWM4_CH4_B9,PWM_FREQ,0);
    201e:	26840593          	addi	a1,s0,616
    2022:	4601                	li	a2,0
    2024:	30300513          	li	a0,771
    2028:	8afff0ef          	jal	ra,18d6 <pwm_init>
C:\Users\windows\Desktop\比赛\100 成渝版 带按键\17 110 舵机横向放置 比赛版\RED_BULL\Dual-core_Communication_Demo\MASTER\obj/../CODE/Motor.c:20

    gpio_init(C11,GPO,0,GPIO_PIN_CONFIG);//电机方向引脚初始化
    202c:	31000693          	li	a3,784
    2030:	4601                	li	a2,0
    2032:	4585                	li	a1,1
    2034:	04b00513          	li	a0,75
    2038:	c68ff0ef          	jal	ra,14a0 <gpio_init>
C:\Users\windows\Desktop\比赛\100 成渝版 带按键\17 110 舵机横向放置 比赛版\RED_BULL\Dual-core_Communication_Demo\MASTER\obj/../CODE/Motor.c:21
    gpio_init(C10,GPO,0,GPIO_PIN_CONFIG);
    203c:	31000693          	li	a3,784
    2040:	4601                	li	a2,0
    2042:	4585                	li	a1,1
    2044:	04a00513          	li	a0,74
    2048:	c58ff0ef          	jal	ra,14a0 <gpio_init>
C:\Users\windows\Desktop\比赛\100 成渝版 带按键\17 110 舵机横向放置 比赛版\RED_BULL\Dual-core_Communication_Demo\MASTER\obj/../CODE/Motor.c:22
    gpio_init(B12,GPO,1,GPIO_PIN_CONFIG);
    204c:	31000693          	li	a3,784
    2050:	4605                	li	a2,1
    2052:	4585                	li	a1,1
    2054:	02c00513          	li	a0,44
    2058:	c48ff0ef          	jal	ra,14a0 <gpio_init>
C:\Users\windows\Desktop\比赛\100 成渝版 带按键\17 110 舵机横向放置 比赛版\RED_BULL\Dual-core_Communication_Demo\MASTER\obj/../CODE/Motor.c:25
    gpio_init(C12,GPO,1,GPIO_PIN_CONFIG);//C12
    return;
}
    205c:	4422                	lw	s0,8(sp)
    205e:	40b2                	lw	ra,12(sp)
C:\Users\windows\Desktop\比赛\100 成渝版 带按键\17 110 舵机横向放置 比赛版\RED_BULL\Dual-core_Communication_Demo\MASTER\obj/../CODE/Motor.c:23
    gpio_init(C12,GPO,1,GPIO_PIN_CONFIG);//C12
    2060:	31000693          	li	a3,784
    2064:	4605                	li	a2,1
    2066:	4585                	li	a1,1
    2068:	04c00513          	li	a0,76
C:\Users\windows\Desktop\比赛\100 成渝版 带按键\17 110 舵机横向放置 比赛版\RED_BULL\Dual-core_Communication_Demo\MASTER\obj/../CODE/Motor.c:25
}
    206c:	0141                	addi	sp,sp,16
C:\Users\windows\Desktop\比赛\100 成渝版 带按键\17 110 舵机横向放置 比赛版\RED_BULL\Dual-core_Communication_Demo\MASTER\obj/../CODE/Motor.c:23
    gpio_init(C12,GPO,1,GPIO_PIN_CONFIG);//C12
    206e:	c32ff06f          	j	14a0 <gpio_init>

00002072 <Duty_Single>:
Duty_Single():
C:\Users\windows\Desktop\比赛\100 成渝版 带按键\17 110 舵机横向放置 比赛版\RED_BULL\Dual-core_Communication_Demo\MASTER\obj/../CODE/Motor.c:36
    pwm_stop(PWM4_CH3_B8);
    pwm_stop(PWM4_CH4_B9);
}

void Duty_Single(Wheel_Type wh,int32 duty)//设定某个轮子的占空比
{
    2072:	1141                	addi	sp,sp,-16
C:\Users\windows\Desktop\比赛\100 成渝版 带按键\17 110 舵机横向放置 比赛版\RED_BULL\Dual-core_Communication_Demo\MASTER\obj/../CODE/Motor.c:37
    if(duty>10000)
    2074:	6789                	lui	a5,0x2
C:\Users\windows\Desktop\比赛\100 成渝版 带按键\17 110 舵机横向放置 比赛版\RED_BULL\Dual-core_Communication_Demo\MASTER\obj/../CODE/Motor.c:36
{
    2076:	c606                	sw	ra,12(sp)
    2078:	c422                	sw	s0,8(sp)
C:\Users\windows\Desktop\比赛\100 成渝版 带按键\17 110 舵机横向放置 比赛版\RED_BULL\Dual-core_Communication_Demo\MASTER\obj/../CODE/Motor.c:37
    if(duty>10000)
    207a:	71078793          	addi	a5,a5,1808 # 2710 <__adddf3+0x3c4>
    207e:	06b7c063          	blt	a5,a1,20de <Duty_Single+0x6c>
C:\Users\windows\Desktop\比赛\100 成渝版 带按键\17 110 舵机横向放置 比赛版\RED_BULL\Dual-core_Communication_Demo\MASTER\obj/../CODE/Motor.c:39
        duty=10000;
    if(duty<-10000)
    2082:	77f9                	lui	a5,0xffffe
    2084:	8f078793          	addi	a5,a5,-1808 # ffffd8f0 <_eusrstack+0xdfff88f0>
    2088:	02f5cc63          	blt	a1,a5,20c0 <Duty_Single+0x4e>
C:\Users\windows\Desktop\比赛\100 成渝版 带按键\17 110 舵机横向放置 比赛版\RED_BULL\Dual-core_Communication_Demo\MASTER\obj/../CODE/Motor.c:42
        duty=-10000;
    uint32 tmp;
    if(duty<0)
    208c:	0205cb63          	bltz	a1,20c2 <Duty_Single+0x50>
C:\Users\windows\Desktop\比赛\100 成渝版 带按键\17 110 舵机横向放置 比赛版\RED_BULL\Dual-core_Communication_Demo\MASTER\obj/../CODE/Motor.c:45
        tmp=(uint32)-duty;
    else
        tmp=(uint32)duty;
    2090:	4789                	li	a5,2
    2092:	842e                	mv	s0,a1
C:\Users\windows\Desktop\比赛\100 成渝版 带按键\17 110 舵机横向放置 比赛版\RED_BULL\Dual-core_Communication_Demo\MASTER\obj/../CODE/Motor.c:46
    switch(wh)
    2094:	06f50863          	beq	a0,a5,2104 <Duty_Single+0x92>
    2098:	04a7e563          	bltu	a5,a0,20e2 <Duty_Single+0x70>
    209c:	4785                	li	a5,1
    209e:	02f51c63          	bne	a0,a5,20d6 <Duty_Single+0x64>
C:\Users\windows\Desktop\比赛\100 成渝版 带按键\17 110 舵机横向放置 比赛版\RED_BULL\Dual-core_Communication_Demo\MASTER\obj/../CODE/Motor.c:50
    {
    case FL:
        if(duty>0)
            gpio_set(C11,0);
    20a2:	4581                	li	a1,0
C:\Users\windows\Desktop\比赛\100 成渝版 带按键\17 110 舵机横向放置 比赛版\RED_BULL\Dual-core_Communication_Demo\MASTER\obj/../CODE/Motor.c:49
        if(duty>0)
    20a4:	e011                	bnez	s0,20a8 <Duty_Single+0x36>
C:\Users\windows\Desktop\比赛\100 成渝版 带按键\17 110 舵机横向放置 比赛版\RED_BULL\Dual-core_Communication_Demo\MASTER\obj/../CODE/Motor.c:52
        else
            gpio_set(C11,1);
    20a6:	4585                	li	a1,1
    20a8:	04b00513          	li	a0,75
    20ac:	cd2ff0ef          	jal	ra,157e <gpio_set>
C:\Users\windows\Desktop\比赛\100 成渝版 带按键\17 110 舵机横向放置 比赛版\RED_BULL\Dual-core_Communication_Demo\MASTER\obj/../CODE/Motor.c:53
        pwm_duty(PWM4_CH2_B7,tmp);
    20b0:	85a2                	mv	a1,s0
    20b2:	30100513          	li	a0,769
C:\Users\windows\Desktop\比赛\100 成渝版 带按键\17 110 舵机横向放置 比赛版\RED_BULL\Dual-core_Communication_Demo\MASTER\obj/../CODE/Motor.c:78
            gpio_set(C12,1);
        pwm_duty(PWM4_CH4_B9,tmp);//C12
        break;
    }
    return;
}
    20b6:	4422                	lw	s0,8(sp)
    20b8:	40b2                	lw	ra,12(sp)
    20ba:	0141                	addi	sp,sp,16
C:\Users\windows\Desktop\比赛\100 成渝版 带按键\17 110 舵机横向放置 比赛版\RED_BULL\Dual-core_Communication_Demo\MASTER\obj/../CODE/Motor.c:74
        pwm_duty(PWM4_CH4_B9,tmp);//C12
    20bc:	9e7ff06f          	j	1aa2 <pwm_duty>
C:\Users\windows\Desktop\比赛\100 成渝版 带按键\17 110 舵机横向放置 比赛版\RED_BULL\Dual-core_Communication_Demo\MASTER\obj/../CODE/Motor.c:40
        duty=-10000;
    20c0:	85be                	mv	a1,a5
C:\Users\windows\Desktop\比赛\100 成渝版 带按键\17 110 舵机横向放置 比赛版\RED_BULL\Dual-core_Communication_Demo\MASTER\obj/../CODE/Motor.c:43
        tmp=(uint32)-duty;
    20c2:	4789                	li	a5,2
    20c4:	40b00433          	neg	s0,a1
C:\Users\windows\Desktop\比赛\100 成渝版 带按键\17 110 舵机横向放置 比赛版\RED_BULL\Dual-core_Communication_Demo\MASTER\obj/../CODE/Motor.c:46
    switch(wh)
    20c8:	02f50e63          	beq	a0,a5,2104 <Duty_Single+0x92>
    20cc:	00a7eb63          	bltu	a5,a0,20e2 <Duty_Single+0x70>
    20d0:	4785                	li	a5,1
    20d2:	fcf50ae3          	beq	a0,a5,20a6 <Duty_Single+0x34>
C:\Users\windows\Desktop\比赛\100 成渝版 带按键\17 110 舵机横向放置 比赛版\RED_BULL\Dual-core_Communication_Demo\MASTER\obj/../CODE/Motor.c:78
}
    20d6:	40b2                	lw	ra,12(sp)
    20d8:	4422                	lw	s0,8(sp)
    20da:	0141                	addi	sp,sp,16
    20dc:	8082                	ret
C:\Users\windows\Desktop\比赛\100 成渝版 带按键\17 110 舵机横向放置 比赛版\RED_BULL\Dual-core_Communication_Demo\MASTER\obj/../CODE/Motor.c:38
        duty=10000;
    20de:	85be                	mv	a1,a5
    20e0:	bf45                	j	2090 <Duty_Single+0x1e>
    20e2:	478d                	li	a5,3
    20e4:	02f50d63          	beq	a0,a5,211e <Duty_Single+0xac>
    20e8:	4791                	li	a5,4
    20ea:	fef516e3          	bne	a0,a5,20d6 <Duty_Single+0x64>
C:\Users\windows\Desktop\比赛\100 成渝版 带按键\17 110 舵机横向放置 比赛版\RED_BULL\Dual-core_Communication_Demo\MASTER\obj/../CODE/Motor.c:70
        if(duty>0)
    20ee:	04b05563          	blez	a1,2138 <Duty_Single+0xc6>
C:\Users\windows\Desktop\比赛\100 成渝版 带按键\17 110 舵机横向放置 比赛版\RED_BULL\Dual-core_Communication_Demo\MASTER\obj/../CODE/Motor.c:71
            gpio_set(C12,0);//C12
    20f2:	4581                	li	a1,0
C:\Users\windows\Desktop\比赛\100 成渝版 带按键\17 110 舵机横向放置 比赛版\RED_BULL\Dual-core_Communication_Demo\MASTER\obj/../CODE/Motor.c:73
            gpio_set(C12,1);
    20f4:	04c00513          	li	a0,76
    20f8:	c86ff0ef          	jal	ra,157e <gpio_set>
C:\Users\windows\Desktop\比赛\100 成渝版 带按键\17 110 舵机横向放置 比赛版\RED_BULL\Dual-core_Communication_Demo\MASTER\obj/../CODE/Motor.c:74
        pwm_duty(PWM4_CH4_B9,tmp);//C12
    20fc:	85a2                	mv	a1,s0
    20fe:	30300513          	li	a0,771
    2102:	bf55                	j	20b6 <Duty_Single+0x44>
C:\Users\windows\Desktop\比赛\100 成渝版 带按键\17 110 舵机横向放置 比赛版\RED_BULL\Dual-core_Communication_Demo\MASTER\obj/../CODE/Motor.c:56
        if(duty>0)
    2104:	00b05b63          	blez	a1,211a <Duty_Single+0xa8>
C:\Users\windows\Desktop\比赛\100 成渝版 带按键\17 110 舵机横向放置 比赛版\RED_BULL\Dual-core_Communication_Demo\MASTER\obj/../CODE/Motor.c:57
            gpio_set(C10,1);
    2108:	4585                	li	a1,1
C:\Users\windows\Desktop\比赛\100 成渝版 带按键\17 110 舵机横向放置 比赛版\RED_BULL\Dual-core_Communication_Demo\MASTER\obj/../CODE/Motor.c:59
            gpio_set(C10,0);
    210a:	04a00513          	li	a0,74
    210e:	c70ff0ef          	jal	ra,157e <gpio_set>
C:\Users\windows\Desktop\比赛\100 成渝版 带按键\17 110 舵机横向放置 比赛版\RED_BULL\Dual-core_Communication_Demo\MASTER\obj/../CODE/Motor.c:60
        pwm_duty(PWM4_CH1_B6,tmp);
    2112:	85a2                	mv	a1,s0
    2114:	30000513          	li	a0,768
    2118:	bf79                	j	20b6 <Duty_Single+0x44>
C:\Users\windows\Desktop\比赛\100 成渝版 带按键\17 110 舵机横向放置 比赛版\RED_BULL\Dual-core_Communication_Demo\MASTER\obj/../CODE/Motor.c:59
            gpio_set(C10,0);
    211a:	4581                	li	a1,0
    211c:	b7fd                	j	210a <Duty_Single+0x98>
C:\Users\windows\Desktop\比赛\100 成渝版 带按键\17 110 舵机横向放置 比赛版\RED_BULL\Dual-core_Communication_Demo\MASTER\obj/../CODE/Motor.c:63
        if(duty>0)
    211e:	00b05b63          	blez	a1,2134 <Duty_Single+0xc2>
C:\Users\windows\Desktop\比赛\100 成渝版 带按键\17 110 舵机横向放置 比赛版\RED_BULL\Dual-core_Communication_Demo\MASTER\obj/../CODE/Motor.c:64
            gpio_set(B12,0);
    2122:	4581                	li	a1,0
C:\Users\windows\Desktop\比赛\100 成渝版 带按键\17 110 舵机横向放置 比赛版\RED_BULL\Dual-core_Communication_Demo\MASTER\obj/../CODE/Motor.c:66
            gpio_set(B12,1);
    2124:	02c00513          	li	a0,44
    2128:	c56ff0ef          	jal	ra,157e <gpio_set>
C:\Users\windows\Desktop\比赛\100 成渝版 带按键\17 110 舵机横向放置 比赛版\RED_BULL\Dual-core_Communication_Demo\MASTER\obj/../CODE/Motor.c:67
        pwm_duty(PWM4_CH3_B8,tmp);
    212c:	85a2                	mv	a1,s0
    212e:	30200513          	li	a0,770
    2132:	b751                	j	20b6 <Duty_Single+0x44>
C:\Users\windows\Desktop\比赛\100 成渝版 带按键\17 110 舵机横向放置 比赛版\RED_BULL\Dual-core_Communication_Demo\MASTER\obj/../CODE/Motor.c:66
            gpio_set(B12,1);
    2134:	4585                	li	a1,1
    2136:	b7fd                	j	2124 <Duty_Single+0xb2>
C:\Users\windows\Desktop\比赛\100 成渝版 带按键\17 110 舵机横向放置 比赛版\RED_BULL\Dual-core_Communication_Demo\MASTER\obj/../CODE/Motor.c:73
            gpio_set(C12,1);
    2138:	4585                	li	a1,1
    213a:	bf6d                	j	20f4 <Duty_Single+0x82>

0000213c <Duty_All>:
Duty_All():
C:\Users\windows\Desktop\比赛\100 成渝版 带按键\17 110 舵机横向放置 比赛版\RED_BULL\Dual-core_Communication_Demo\MASTER\obj/../CODE/Motor.c:81

void Duty_All(int32 duty_fl,int32 duty_fr,int32 duty_rl,int32 duty_rr)//设定所有轮子的占空比
{
    213c:	1101                	addi	sp,sp,-32
    213e:	cc22                	sw	s0,24(sp)
    2140:	842e                	mv	s0,a1
C:\Users\windows\Desktop\比赛\100 成渝版 带按键\17 110 舵机横向放置 比赛版\RED_BULL\Dual-core_Communication_Demo\MASTER\obj/../CODE/Motor.c:82
    Duty_Single(FL,duty_fl);
    2142:	85aa                	mv	a1,a0
    2144:	4505                	li	a0,1
C:\Users\windows\Desktop\比赛\100 成渝版 带按键\17 110 舵机横向放置 比赛版\RED_BULL\Dual-core_Communication_Demo\MASTER\obj/../CODE/Motor.c:81
{
    2146:	ce06                	sw	ra,28(sp)
    2148:	c436                	sw	a3,8(sp)
    214a:	c632                	sw	a2,12(sp)
C:\Users\windows\Desktop\比赛\100 成渝版 带按键\17 110 舵机横向放置 比赛版\RED_BULL\Dual-core_Communication_Demo\MASTER\obj/../CODE/Motor.c:82
    Duty_Single(FL,duty_fl);
    214c:	371d                	jal	2072 <Duty_Single>
C:\Users\windows\Desktop\比赛\100 成渝版 带按键\17 110 舵机横向放置 比赛版\RED_BULL\Dual-core_Communication_Demo\MASTER\obj/../CODE/Motor.c:83
    Duty_Single(FR,duty_fr);
    214e:	85a2                	mv	a1,s0
    2150:	4509                	li	a0,2
    2152:	3705                	jal	2072 <Duty_Single>
C:\Users\windows\Desktop\比赛\100 成渝版 带按键\17 110 舵机横向放置 比赛版\RED_BULL\Dual-core_Communication_Demo\MASTER\obj/../CODE/Motor.c:84
    Duty_Single(RL,duty_rl);
    2154:	4632                	lw	a2,12(sp)
    2156:	450d                	li	a0,3
    2158:	85b2                	mv	a1,a2
    215a:	3f21                	jal	2072 <Duty_Single>
C:\Users\windows\Desktop\比赛\100 成渝版 带按键\17 110 舵机横向放置 比赛版\RED_BULL\Dual-core_Communication_Demo\MASTER\obj/../CODE/Motor.c:85
    Duty_Single(RR,duty_rr);
    215c:	46a2                	lw	a3,8(sp)
C:\Users\windows\Desktop\比赛\100 成渝版 带按键\17 110 舵机横向放置 比赛版\RED_BULL\Dual-core_Communication_Demo\MASTER\obj/../CODE/Motor.c:87
    return;
}
    215e:	4462                	lw	s0,24(sp)
    2160:	40f2                	lw	ra,28(sp)
C:\Users\windows\Desktop\比赛\100 成渝版 带按键\17 110 舵机横向放置 比赛版\RED_BULL\Dual-core_Communication_Demo\MASTER\obj/../CODE/Motor.c:85
    Duty_Single(RR,duty_rr);
    2162:	85b6                	mv	a1,a3
    2164:	4511                	li	a0,4
C:\Users\windows\Desktop\比赛\100 成渝版 带按键\17 110 舵机横向放置 比赛版\RED_BULL\Dual-core_Communication_Demo\MASTER\obj/../CODE/Motor.c:87
}
    2166:	6105                	addi	sp,sp,32
C:\Users\windows\Desktop\比赛\100 成渝版 带按键\17 110 舵机横向放置 比赛版\RED_BULL\Dual-core_Communication_Demo\MASTER\obj/../CODE/Motor.c:85
    Duty_Single(RR,duty_rr);
    2168:	b729                	j	2072 <Duty_Single>

0000216a <PID_dir_Init>:
PID_dir_Init():
C:\Users\windows\Desktop\比赛\100 成渝版 带按键\17 110 舵机横向放置 比赛版\RED_BULL\Dual-core_Communication_Demo\MASTER\obj/../CODE/PID.c:17
//extern int16 master_encoder_left,master_encoder_right;
//extern int16 slave_encoder_left,slave_encoder_right;

void PID_dir_Init(Pid_Param *tmp,int8 sign)
{
    if(sign==0)
    216a:	e59d                	bnez	a1,2198 <PID_dir_Init+0x2e>
C:\Users\windows\Desktop\比赛\100 成渝版 带按键\17 110 舵机横向放置 比赛版\RED_BULL\Dual-core_Communication_Demo\MASTER\obj/../CODE/PID.c:19
    {
        tmp->kp=0.8;//0.92(速度110), 1.15(速度120), 1.26(速度130), 1.47(速度140)
    216c:	000047b7          	lui	a5,0x4
    2170:	cf47a783          	lw	a5,-780(a5) # 3cf4 <UARTN+0x34>
    2174:	c11c                	sw	a5,0(a0)
C:\Users\windows\Desktop\比赛\100 成渝版 带按键\17 110 舵机横向放置 比赛版\RED_BULL\Dual-core_Communication_Demo\MASTER\obj/../CODE/PID.c:20
        tmp->ki=0;
    2176:	00000793          	li	a5,0
    217a:	c15c                	sw	a5,4(a0)
C:\Users\windows\Desktop\比赛\100 成渝版 带按键\17 110 舵机横向放置 比赛版\RED_BULL\Dual-core_Communication_Demo\MASTER\obj/../CODE/PID.c:21
        tmp->kd=1;//0.8(速度110), 0.5(速度120), 0.5(速度130), 0.3(速度140)
    217c:	000047b7          	lui	a5,0x4
    2180:	cf87a783          	lw	a5,-776(a5) # 3cf8 <UARTN+0x38>
C:\Users\windows\Desktop\比赛\100 成渝版 带按键\17 110 舵机横向放置 比赛版\RED_BULL\Dual-core_Communication_Demo\MASTER\obj/../CODE/PID.c:27
    }
    else if(sign==1)
    {
        tmp->kp=0.7;//0.63(速度70), 0.95(速度80), 1.05(速度90), 1.15(速度95)
        tmp->ki=0;
        tmp->kd=0;//
    2184:	c51c                	sw	a5,8(a0)
C:\Users\windows\Desktop\比赛\100 成渝版 带按键\17 110 舵机横向放置 比赛版\RED_BULL\Dual-core_Communication_Demo\MASTER\obj/../CODE/PID.c:29
    }
        tmp->out=0;
    2186:	00000793          	li	a5,0
    218a:	cd1c                	sw	a5,24(a0)
C:\Users\windows\Desktop\比赛\100 成渝版 带按键\17 110 舵机横向放置 比赛版\RED_BULL\Dual-core_Communication_Demo\MASTER\obj/../CODE/PID.c:30
        tmp->out_p=0;
    218c:	c55c                	sw	a5,12(a0)
C:\Users\windows\Desktop\比赛\100 成渝版 带按键\17 110 舵机横向放置 比赛版\RED_BULL\Dual-core_Communication_Demo\MASTER\obj/../CODE/PID.c:31
        tmp->out_i=0;
    218e:	c91c                	sw	a5,16(a0)
C:\Users\windows\Desktop\比赛\100 成渝版 带按键\17 110 舵机横向放置 比赛版\RED_BULL\Dual-core_Communication_Demo\MASTER\obj/../CODE/PID.c:32
        tmp->out_d=0;
    2190:	c95c                	sw	a5,20(a0)
C:\Users\windows\Desktop\比赛\100 成渝版 带按键\17 110 舵机横向放置 比赛版\RED_BULL\Dual-core_Communication_Demo\MASTER\obj/../CODE/PID.c:34

        tmp->last_last_error=0;
    2192:	d15c                	sw	a5,36(a0)
C:\Users\windows\Desktop\比赛\100 成渝版 带按键\17 110 舵机横向放置 比赛版\RED_BULL\Dual-core_Communication_Demo\MASTER\obj/../CODE/PID.c:35
        tmp->last_error=0;
    2194:	d11c                	sw	a5,32(a0)
C:\Users\windows\Desktop\比赛\100 成渝版 带按键\17 110 舵机横向放置 比赛版\RED_BULL\Dual-core_Communication_Demo\MASTER\obj/../CODE/PID.c:36
}
    2196:	8082                	ret
C:\Users\windows\Desktop\比赛\100 成渝版 带按键\17 110 舵机横向放置 比赛版\RED_BULL\Dual-core_Communication_Demo\MASTER\obj/../CODE/PID.c:23
    else if(sign==1)
    2198:	4785                	li	a5,1
    219a:	fef596e3          	bne	a1,a5,2186 <PID_dir_Init+0x1c>
C:\Users\windows\Desktop\比赛\100 成渝版 带按键\17 110 舵机横向放置 比赛版\RED_BULL\Dual-core_Communication_Demo\MASTER\obj/../CODE/PID.c:25
        tmp->kp=0.7;//0.63(速度70), 0.95(速度80), 1.05(速度90), 1.15(速度95)
    219e:	000047b7          	lui	a5,0x4
    21a2:	cfc7a783          	lw	a5,-772(a5) # 3cfc <UARTN+0x3c>
    21a6:	c11c                	sw	a5,0(a0)
C:\Users\windows\Desktop\比赛\100 成渝版 带按键\17 110 舵机横向放置 比赛版\RED_BULL\Dual-core_Communication_Demo\MASTER\obj/../CODE/PID.c:26
        tmp->ki=0;
    21a8:	00000793          	li	a5,0
    21ac:	c15c                	sw	a5,4(a0)
    21ae:	bfd9                	j	2184 <PID_dir_Init+0x1a>

000021b0 <PID_Init>:
PID_Init():
C:\Users\windows\Desktop\比赛\100 成渝版 带按键\17 110 舵机横向放置 比赛版\RED_BULL\Dual-core_Communication_Demo\MASTER\obj/../CODE/PID.c:40

void PID_Init(Pid_Param *tmp,int8 sign)//PID初始化
{
    switch(sign)
    21b0:	4789                	li	a5,2
    21b2:	06f58263          	beq	a1,a5,2216 <PID_Init+0x66>
    21b6:	00b7ce63          	blt	a5,a1,21d2 <PID_Init+0x22>
    21ba:	0205de63          	bgez	a1,21f6 <PID_Init+0x46>
C:\Users\windows\Desktop\比赛\100 成渝版 带按键\17 110 舵机横向放置 比赛版\RED_BULL\Dual-core_Communication_Demo\MASTER\obj/../CODE/PID.c:59
    case 3: tmp->kp=110;
            tmp->ki=28;//250: 110,28,120
            tmp->kd=120;//150: 81,15,110
            break;
    }
    tmp->out=0;
    21be:	00000793          	li	a5,0
    21c2:	cd1c                	sw	a5,24(a0)
C:\Users\windows\Desktop\比赛\100 成渝版 带按键\17 110 舵机横向放置 比赛版\RED_BULL\Dual-core_Communication_Demo\MASTER\obj/../CODE/PID.c:60
    tmp->out_p=0;
    21c4:	c55c                	sw	a5,12(a0)
C:\Users\windows\Desktop\比赛\100 成渝版 带按键\17 110 舵机横向放置 比赛版\RED_BULL\Dual-core_Communication_Demo\MASTER\obj/../CODE/PID.c:61
    tmp->out_i=0;
    21c6:	c91c                	sw	a5,16(a0)
C:\Users\windows\Desktop\比赛\100 成渝版 带按键\17 110 舵机横向放置 比赛版\RED_BULL\Dual-core_Communication_Demo\MASTER\obj/../CODE/PID.c:62
    tmp->out_d=0;
    21c8:	c95c                	sw	a5,20(a0)
C:\Users\windows\Desktop\比赛\100 成渝版 带按键\17 110 舵机横向放置 比赛版\RED_BULL\Dual-core_Communication_Demo\MASTER\obj/../CODE/PID.c:64

    tmp->last_out_d=0;
    21ca:	cd5c                	sw	a5,28(a0)
C:\Users\windows\Desktop\比赛\100 成渝版 带按键\17 110 舵机横向放置 比赛版\RED_BULL\Dual-core_Communication_Demo\MASTER\obj/../CODE/PID.c:65
    tmp->last_last_error=0;
    21cc:	d15c                	sw	a5,36(a0)
C:\Users\windows\Desktop\比赛\100 成渝版 带按键\17 110 舵机横向放置 比赛版\RED_BULL\Dual-core_Communication_Demo\MASTER\obj/../CODE/PID.c:66
    tmp->last_error=0;
    21ce:	d11c                	sw	a5,32(a0)
C:\Users\windows\Desktop\比赛\100 成渝版 带按键\17 110 舵机横向放置 比赛版\RED_BULL\Dual-core_Communication_Demo\MASTER\obj/../CODE/PID.c:67
}
    21d0:	8082                	ret
    21d2:	478d                	li	a5,3
    21d4:	fef595e3          	bne	a1,a5,21be <PID_Init+0xe>
C:\Users\windows\Desktop\比赛\100 成渝版 带按键\17 110 舵机横向放置 比赛版\RED_BULL\Dual-core_Communication_Demo\MASTER\obj/../CODE/PID.c:54
    case 3: tmp->kp=110;
    21d8:	000047b7          	lui	a5,0x4
    21dc:	ce87a783          	lw	a5,-792(a5) # 3ce8 <UARTN+0x28>
    21e0:	c11c                	sw	a5,0(a0)
C:\Users\windows\Desktop\比赛\100 成渝版 带按键\17 110 舵机横向放置 比赛版\RED_BULL\Dual-core_Communication_Demo\MASTER\obj/../CODE/PID.c:55
            tmp->ki=28;//250: 110,28,120
    21e2:	000047b7          	lui	a5,0x4
    21e6:	cec7a783          	lw	a5,-788(a5) # 3cec <UARTN+0x2c>
    21ea:	c15c                	sw	a5,4(a0)
C:\Users\windows\Desktop\比赛\100 成渝版 带按键\17 110 舵机横向放置 比赛版\RED_BULL\Dual-core_Communication_Demo\MASTER\obj/../CODE/PID.c:56
            tmp->kd=120;//150: 81,15,110
    21ec:	000047b7          	lui	a5,0x4
    21f0:	cf07a783          	lw	a5,-784(a5) # 3cf0 <UARTN+0x30>
    21f4:	a839                	j	2212 <PID_Init+0x62>
C:\Users\windows\Desktop\比赛\100 成渝版 带按键\17 110 舵机横向放置 比赛版\RED_BULL\Dual-core_Communication_Demo\MASTER\obj/../CODE/PID.c:42
    case 0: tmp->kp=102;//5.29--106,23,150
    21f6:	000047b7          	lui	a5,0x4
    21fa:	cd07a783          	lw	a5,-816(a5) # 3cd0 <UARTN+0x10>
    21fe:	c11c                	sw	a5,0(a0)
C:\Users\windows\Desktop\比赛\100 成渝版 带按键\17 110 舵机横向放置 比赛版\RED_BULL\Dual-core_Communication_Demo\MASTER\obj/../CODE/PID.c:43
            tmp->ki=26;//250: 102,26,100
    2200:	000047b7          	lui	a5,0x4
    2204:	cd47a783          	lw	a5,-812(a5) # 3cd4 <UARTN+0x14>
    2208:	c15c                	sw	a5,4(a0)
C:\Users\windows\Desktop\比赛\100 成渝版 带按键\17 110 舵机横向放置 比赛版\RED_BULL\Dual-core_Communication_Demo\MASTER\obj/../CODE/PID.c:44
            tmp->kd=100;//150: 97,19,140
    220a:	000047b7          	lui	a5,0x4
    220e:	cd87a783          	lw	a5,-808(a5) # 3cd8 <UARTN+0x18>
C:\Users\windows\Desktop\比赛\100 成渝版 带按键\17 110 舵机横向放置 比赛版\RED_BULL\Dual-core_Communication_Demo\MASTER\obj/../CODE/PID.c:56
            tmp->kd=120;//150: 81,15,110
    2212:	c51c                	sw	a5,8(a0)
C:\Users\windows\Desktop\比赛\100 成渝版 带按键\17 110 舵机横向放置 比赛版\RED_BULL\Dual-core_Communication_Demo\MASTER\obj/../CODE/PID.c:57
            break;
    2214:	b76d                	j	21be <PID_Init+0xe>
C:\Users\windows\Desktop\比赛\100 成渝版 带按键\17 110 舵机横向放置 比赛版\RED_BULL\Dual-core_Communication_Demo\MASTER\obj/../CODE/PID.c:50
    case 2: tmp->kp=89;
    2216:	000047b7          	lui	a5,0x4
    221a:	cdc7a783          	lw	a5,-804(a5) # 3cdc <UARTN+0x1c>
    221e:	c11c                	sw	a5,0(a0)
C:\Users\windows\Desktop\比赛\100 成渝版 带按键\17 110 舵机横向放置 比赛版\RED_BULL\Dual-core_Communication_Demo\MASTER\obj/../CODE/PID.c:51
            tmp->ki=19;//250: 89,19,150
    2220:	000047b7          	lui	a5,0x4
    2224:	ce07a783          	lw	a5,-800(a5) # 3ce0 <UARTN+0x20>
    2228:	c15c                	sw	a5,4(a0)
C:\Users\windows\Desktop\比赛\100 成渝版 带按键\17 110 舵机横向放置 比赛版\RED_BULL\Dual-core_Communication_Demo\MASTER\obj/../CODE/PID.c:52
            tmp->kd=150;//150: 70,13,100
    222a:	000047b7          	lui	a5,0x4
    222e:	ce47a783          	lw	a5,-796(a5) # 3ce4 <UARTN+0x24>
    2232:	b7c5                	j	2212 <PID_Init+0x62>

00002234 <PID_posCtrl>:
PID_posCtrl():
C:\Users\windows\Desktop\比赛\100 成渝版 带按键\17 110 舵机横向放置 比赛版\RED_BULL\Dual-core_Communication_Demo\MASTER\obj/../CODE/PID.c:70

void PID_posCtrl(Pid_Param *tmp, float error)
{
    2234:	1101                	addi	sp,sp,-32
    2236:	ca26                	sw	s1,20(sp)
    2238:	84ae                	mv	s1,a1
C:\Users\windows\Desktop\比赛\100 成渝版 带按键\17 110 舵机横向放置 比赛版\RED_BULL\Dual-core_Communication_Demo\MASTER\obj/../CODE/PID.c:71
    tmp->out_p = tmp->kp * error;
    223a:	410c                	lw	a1,0(a0)
C:\Users\windows\Desktop\比赛\100 成渝版 带按键\17 110 舵机横向放置 比赛版\RED_BULL\Dual-core_Communication_Demo\MASTER\obj/../CODE/PID.c:70
{
    223c:	cc22                	sw	s0,24(sp)
    223e:	842a                	mv	s0,a0
C:\Users\windows\Desktop\比赛\100 成渝版 带按键\17 110 舵机横向放置 比赛版\RED_BULL\Dual-core_Communication_Demo\MASTER\obj/../CODE/PID.c:71
    tmp->out_p = tmp->kp * error;
    2240:	8526                	mv	a0,s1
C:\Users\windows\Desktop\比赛\100 成渝版 带按键\17 110 舵机横向放置 比赛版\RED_BULL\Dual-core_Communication_Demo\MASTER\obj/../CODE/PID.c:70
{
    2242:	ce06                	sw	ra,28(sp)
    2244:	c84a                	sw	s2,16(sp)
    2246:	c64e                	sw	s3,12(sp)
    2248:	c452                	sw	s4,8(sp)
C:\Users\windows\Desktop\比赛\100 成渝版 带按键\17 110 舵机横向放置 比赛版\RED_BULL\Dual-core_Communication_Demo\MASTER\obj/../CODE/PID.c:71
    tmp->out_p = tmp->kp * error;
    224a:	240010ef          	jal	ra,348a <__mulsf3>
C:\Users\windows\Desktop\比赛\100 成渝版 带按键\17 110 舵机横向放置 比赛版\RED_BULL\Dual-core_Communication_Demo\MASTER\obj/../CODE/PID.c:72
    tmp->out_i += tmp->ki * error;
    224e:	404c                	lw	a1,4(s0)
C:\Users\windows\Desktop\比赛\100 成渝版 带按键\17 110 舵机横向放置 比赛版\RED_BULL\Dual-core_Communication_Demo\MASTER\obj/../CODE/PID.c:71
    tmp->out_p = tmp->kp * error;
    2250:	89aa                	mv	s3,a0
    2252:	c448                	sw	a0,12(s0)
C:\Users\windows\Desktop\比赛\100 成渝版 带按键\17 110 舵机横向放置 比赛版\RED_BULL\Dual-core_Communication_Demo\MASTER\obj/../CODE/PID.c:72
    tmp->out_i += tmp->ki * error;
    2254:	8526                	mv	a0,s1
    2256:	234010ef          	jal	ra,348a <__mulsf3>
    225a:	480c                	lw	a1,16(s0)
    225c:	5b3000ef          	jal	ra,300e <__addsf3>
C:\Users\windows\Desktop\比赛\100 成渝版 带按键\17 110 舵机横向放置 比赛版\RED_BULL\Dual-core_Communication_Demo\MASTER\obj/../CODE/PID.c:73
    tmp->out_d = tmp->kd*(error - tmp->last_error);
    2260:	500c                	lw	a1,32(s0)
C:\Users\windows\Desktop\比赛\100 成渝版 带按键\17 110 舵机横向放置 比赛版\RED_BULL\Dual-core_Communication_Demo\MASTER\obj/../CODE/PID.c:72
    tmp->out_i += tmp->ki * error;
    2262:	8a2a                	mv	s4,a0
    2264:	c808                	sw	a0,16(s0)
C:\Users\windows\Desktop\比赛\100 成渝版 带按键\17 110 舵机横向放置 比赛版\RED_BULL\Dual-core_Communication_Demo\MASTER\obj/../CODE/PID.c:73
    tmp->out_d = tmp->kd*(error - tmp->last_error);
    2266:	8526                	mv	a0,s1
    2268:	4b2010ef          	jal	ra,371a <__subsf3>
    226c:	440c                	lw	a1,8(s0)
    226e:	21c010ef          	jal	ra,348a <__mulsf3>
    2272:	892a                	mv	s2,a0
    2274:	c848                	sw	a0,20(s0)
C:\Users\windows\Desktop\比赛\100 成渝版 带按键\17 110 舵机横向放置 比赛版\RED_BULL\Dual-core_Communication_Demo\MASTER\obj/../CODE/PID.c:75

    tmp->last_error = error;
    2276:	d004                	sw	s1,32(s0)
C:\Users\windows\Desktop\比赛\100 成渝版 带按键\17 110 舵机横向放置 比赛版\RED_BULL\Dual-core_Communication_Demo\MASTER\obj/../CODE/PID.c:77

    tmp->out = tmp->out_p + tmp->out_i + tmp->out_d;
    2278:	85d2                	mv	a1,s4
    227a:	854e                	mv	a0,s3
    227c:	593000ef          	jal	ra,300e <__addsf3>
    2280:	85ca                	mv	a1,s2
    2282:	58d000ef          	jal	ra,300e <__addsf3>
    2286:	cc08                	sw	a0,24(s0)
C:\Users\windows\Desktop\比赛\100 成渝版 带按键\17 110 舵机横向放置 比赛版\RED_BULL\Dual-core_Communication_Demo\MASTER\obj/../CODE/PID.c:78
}
    2288:	40f2                	lw	ra,28(sp)
    228a:	4462                	lw	s0,24(sp)
    228c:	44d2                	lw	s1,20(sp)
    228e:	4942                	lw	s2,16(sp)
    2290:	49b2                	lw	s3,12(sp)
    2292:	4a22                	lw	s4,8(sp)
    2294:	6105                	addi	sp,sp,32
    2296:	8082                	ret

00002298 <PID_incCtrl>:
PID_incCtrl():
C:\Users\windows\Desktop\比赛\100 成渝版 带按键\17 110 舵机横向放置 比赛版\RED_BULL\Dual-core_Communication_Demo\MASTER\obj/../CODE/PID.c:81

void PID_incCtrl(Pid_Param *tmp, float error)
{
    2298:	1101                	addi	sp,sp,-32
    229a:	c84a                	sw	s2,16(sp)
C:\Users\windows\Desktop\比赛\100 成渝版 带按键\17 110 舵机横向放置 比赛版\RED_BULL\Dual-core_Communication_Demo\MASTER\obj/../CODE/PID.c:82
    tmp->out_p = tmp->kp * (error-tmp->last_error);
    229c:	02052903          	lw	s2,32(a0) # 40020 <_data_lma+0x3c198>
C:\Users\windows\Desktop\比赛\100 成渝版 带按键\17 110 舵机横向放置 比赛版\RED_BULL\Dual-core_Communication_Demo\MASTER\obj/../CODE/PID.c:81
{
    22a0:	ca26                	sw	s1,20(sp)
    22a2:	84ae                	mv	s1,a1
    22a4:	cc22                	sw	s0,24(sp)
C:\Users\windows\Desktop\比赛\100 成渝版 带按键\17 110 舵机横向放置 比赛版\RED_BULL\Dual-core_Communication_Demo\MASTER\obj/../CODE/PID.c:82
    tmp->out_p = tmp->kp * (error-tmp->last_error);
    22a6:	85ca                	mv	a1,s2
C:\Users\windows\Desktop\比赛\100 成渝版 带按键\17 110 舵机横向放置 比赛版\RED_BULL\Dual-core_Communication_Demo\MASTER\obj/../CODE/PID.c:81
{
    22a8:	842a                	mv	s0,a0
C:\Users\windows\Desktop\比赛\100 成渝版 带按键\17 110 舵机横向放置 比赛版\RED_BULL\Dual-core_Communication_Demo\MASTER\obj/../CODE/PID.c:82
    tmp->out_p = tmp->kp * (error-tmp->last_error);
    22aa:	8526                	mv	a0,s1
C:\Users\windows\Desktop\比赛\100 成渝版 带按键\17 110 舵机横向放置 比赛版\RED_BULL\Dual-core_Communication_Demo\MASTER\obj/../CODE/PID.c:81
{
    22ac:	ce06                	sw	ra,28(sp)
    22ae:	c64e                	sw	s3,12(sp)
    22b0:	c452                	sw	s4,8(sp)
    22b2:	c256                	sw	s5,4(sp)
C:\Users\windows\Desktop\比赛\100 成渝版 带按键\17 110 舵机横向放置 比赛版\RED_BULL\Dual-core_Communication_Demo\MASTER\obj/../CODE/PID.c:82
    tmp->out_p = tmp->kp * (error-tmp->last_error);
    22b4:	466010ef          	jal	ra,371a <__subsf3>
    22b8:	400c                	lw	a1,0(s0)
    22ba:	1d0010ef          	jal	ra,348a <__mulsf3>
C:\Users\windows\Desktop\比赛\100 成渝版 带按键\17 110 舵机横向放置 比赛版\RED_BULL\Dual-core_Communication_Demo\MASTER\obj/../CODE/PID.c:84

    tmp->out_i=tmp->ki * error;
    22be:	404c                	lw	a1,4(s0)
C:\Users\windows\Desktop\比赛\100 成渝版 带按键\17 110 舵机横向放置 比赛版\RED_BULL\Dual-core_Communication_Demo\MASTER\obj/../CODE/PID.c:82
    tmp->out_p = tmp->kp * (error-tmp->last_error);
    22c0:	8aaa                	mv	s5,a0
    22c2:	c448                	sw	a0,12(s0)
C:\Users\windows\Desktop\比赛\100 成渝版 带按键\17 110 舵机横向放置 比赛版\RED_BULL\Dual-core_Communication_Demo\MASTER\obj/../CODE/PID.c:84
    tmp->out_i=tmp->ki * error;
    22c4:	8526                	mv	a0,s1
    22c6:	1c4010ef          	jal	ra,348a <__mulsf3>
C:\Users\windows\Desktop\比赛\100 成渝版 带按键\17 110 舵机横向放置 比赛版\RED_BULL\Dual-core_Communication_Demo\MASTER\obj/../CODE/PID.c:85
    tmp->out_d = tmp->kd * (error - 2*tmp->last_error + tmp->last_last_error);
    22ca:	85ca                	mv	a1,s2
C:\Users\windows\Desktop\比赛\100 成渝版 带按键\17 110 舵机横向放置 比赛版\RED_BULL\Dual-core_Communication_Demo\MASTER\obj/../CODE/PID.c:84
    tmp->out_i=tmp->ki * error;
    22cc:	8a2a                	mv	s4,a0
    22ce:	c808                	sw	a0,16(s0)
C:\Users\windows\Desktop\比赛\100 成渝版 带按键\17 110 舵机横向放置 比赛版\RED_BULL\Dual-core_Communication_Demo\MASTER\obj/../CODE/PID.c:85
    tmp->out_d = tmp->kd * (error - 2*tmp->last_error + tmp->last_last_error);
    22d0:	854a                	mv	a0,s2
    22d2:	53d000ef          	jal	ra,300e <__addsf3>
    22d6:	85aa                	mv	a1,a0
    22d8:	8526                	mv	a0,s1
    22da:	440010ef          	jal	ra,371a <__subsf3>
    22de:	504c                	lw	a1,36(s0)
    22e0:	52f000ef          	jal	ra,300e <__addsf3>
    22e4:	440c                	lw	a1,8(s0)
    22e6:	1a4010ef          	jal	ra,348a <__mulsf3>
C:\Users\windows\Desktop\比赛\100 成渝版 带按键\17 110 舵机横向放置 比赛版\RED_BULL\Dual-core_Communication_Demo\MASTER\obj/../CODE/PID.c:91

    tmp->last_last_error = tmp->last_error;
    tmp->last_error = error;
    tmp->last_out_d = tmp->out_d;

    tmp->out = tmp->out + tmp->out_p + tmp->out_i + tmp->out_d;
    22ea:	4c0c                	lw	a1,24(s0)
C:\Users\windows\Desktop\比赛\100 成渝版 带按键\17 110 舵机横向放置 比赛版\RED_BULL\Dual-core_Communication_Demo\MASTER\obj/../CODE/PID.c:85
    tmp->out_d = tmp->kd * (error - 2*tmp->last_error + tmp->last_last_error);
    22ec:	89aa                	mv	s3,a0
    22ee:	c848                	sw	a0,20(s0)
C:\Users\windows\Desktop\比赛\100 成渝版 带按键\17 110 舵机横向放置 比赛版\RED_BULL\Dual-core_Communication_Demo\MASTER\obj/../CODE/PID.c:87
    tmp->last_last_error = tmp->last_error;
    22f0:	03242223          	sw	s2,36(s0)
C:\Users\windows\Desktop\比赛\100 成渝版 带按键\17 110 舵机横向放置 比赛版\RED_BULL\Dual-core_Communication_Demo\MASTER\obj/../CODE/PID.c:88
    tmp->last_error = error;
    22f4:	d004                	sw	s1,32(s0)
C:\Users\windows\Desktop\比赛\100 成渝版 带按键\17 110 舵机横向放置 比赛版\RED_BULL\Dual-core_Communication_Demo\MASTER\obj/../CODE/PID.c:89
    tmp->last_out_d = tmp->out_d;
    22f6:	cc48                	sw	a0,28(s0)
C:\Users\windows\Desktop\比赛\100 成渝版 带按键\17 110 舵机横向放置 比赛版\RED_BULL\Dual-core_Communication_Demo\MASTER\obj/../CODE/PID.c:91
    tmp->out = tmp->out + tmp->out_p + tmp->out_i + tmp->out_d;
    22f8:	8556                	mv	a0,s5
    22fa:	515000ef          	jal	ra,300e <__addsf3>
    22fe:	85d2                	mv	a1,s4
    2300:	50f000ef          	jal	ra,300e <__addsf3>
    2304:	85ce                	mv	a1,s3
    2306:	509000ef          	jal	ra,300e <__addsf3>
C:\Users\windows\Desktop\比赛\100 成渝版 带按键\17 110 舵机横向放置 比赛版\RED_BULL\Dual-core_Communication_Demo\MASTER\obj/../CODE/PID.c:93

    if(tmp->out > 8000)
    230a:	000047b7          	lui	a5,0x4
    230e:	d007a483          	lw	s1,-768(a5) # 3d00 <UARTN+0x40>
C:\Users\windows\Desktop\比赛\100 成渝版 带按键\17 110 舵机横向放置 比赛版\RED_BULL\Dual-core_Communication_Demo\MASTER\obj/../CODE/PID.c:91
    tmp->out = tmp->out + tmp->out_p + tmp->out_i + tmp->out_d;
    2312:	892a                	mv	s2,a0
C:\Users\windows\Desktop\比赛\100 成渝版 带按键\17 110 舵机横向放置 比赛版\RED_BULL\Dual-core_Communication_Demo\MASTER\obj/../CODE/PID.c:93
    if(tmp->out > 8000)
    2314:	85a6                	mv	a1,s1
    2316:	062010ef          	jal	ra,3378 <__gesf2>
    231a:	00a05463          	blez	a0,2322 <PID_incCtrl+0x8a>
C:\Users\windows\Desktop\比赛\100 成渝版 带按键\17 110 舵机横向放置 比赛版\RED_BULL\Dual-core_Communication_Demo\MASTER\obj/../CODE/PID.c:96
        tmp->out = 8000;
    if(tmp->out < -8000)
        tmp->out = -8000;
    231e:	cc04                	sw	s1,24(s0)
C:\Users\windows\Desktop\比赛\100 成渝版 带按键\17 110 舵机横向放置 比赛版\RED_BULL\Dual-core_Communication_Demo\MASTER\obj/../CODE/PID.c:97
}
    2320:	a829                	j	233a <PID_incCtrl+0xa2>
C:\Users\windows\Desktop\比赛\100 成渝版 带按键\17 110 舵机横向放置 比赛版\RED_BULL\Dual-core_Communication_Demo\MASTER\obj/../CODE/PID.c:95
    if(tmp->out < -8000)
    2322:	000047b7          	lui	a5,0x4
    2326:	d047a483          	lw	s1,-764(a5) # 3d04 <UARTN+0x44>
    232a:	854a                	mv	a0,s2
    232c:	85a6                	mv	a1,s1
    232e:	0d0010ef          	jal	ra,33fe <__lesf2>
    2332:	fe0546e3          	bltz	a0,231e <PID_incCtrl+0x86>
C:\Users\windows\Desktop\比赛\100 成渝版 带按键\17 110 舵机横向放置 比赛版\RED_BULL\Dual-core_Communication_Demo\MASTER\obj/../CODE/PID.c:91
    tmp->out = tmp->out + tmp->out_p + tmp->out_i + tmp->out_d;
    2336:	01242c23          	sw	s2,24(s0)
C:\Users\windows\Desktop\比赛\100 成渝版 带按键\17 110 舵机横向放置 比赛版\RED_BULL\Dual-core_Communication_Demo\MASTER\obj/../CODE/PID.c:97
}
    233a:	40f2                	lw	ra,28(sp)
    233c:	4462                	lw	s0,24(sp)
    233e:	44d2                	lw	s1,20(sp)
    2340:	4942                	lw	s2,16(sp)
    2342:	49b2                	lw	s3,12(sp)
    2344:	4a22                	lw	s4,8(sp)
    2346:	4a92                	lw	s5,4(sp)
    2348:	6105                	addi	sp,sp,32
    234a:	8082                	ret

0000234c <__adddf3>:
__adddf3():
    234c:	00100837          	lui	a6,0x100
    2350:	1101                	addi	sp,sp,-32
    2352:	187d                	addi	a6,a6,-1
    2354:	00b87733          	and	a4,a6,a1
    2358:	ca26                	sw	s1,20(sp)
    235a:	00d87833          	and	a6,a6,a3
    235e:	0145d493          	srli	s1,a1,0x14
    2362:	0146d313          	srli	t1,a3,0x14
    2366:	00371e13          	slli	t3,a4,0x3
    236a:	c64e                	sw	s3,12(sp)
    236c:	01d55713          	srli	a4,a0,0x1d
    2370:	080e                	slli	a6,a6,0x3
    2372:	01d65793          	srli	a5,a2,0x1d
    2376:	7ff4f493          	andi	s1,s1,2047
    237a:	7ff37313          	andi	t1,t1,2047
    237e:	ce06                	sw	ra,28(sp)
    2380:	cc22                	sw	s0,24(sp)
    2382:	c84a                	sw	s2,16(sp)
    2384:	01f5d993          	srli	s3,a1,0x1f
    2388:	01f6de93          	srli	t4,a3,0x1f
    238c:	01c76733          	or	a4,a4,t3
    2390:	00351f13          	slli	t5,a0,0x3
    2394:	0107e833          	or	a6,a5,a6
    2398:	00361f93          	slli	t6,a2,0x3
    239c:	40648e33          	sub	t3,s1,t1
    23a0:	19d98063          	beq	s3,t4,2520 <__adddf3+0x1d4>
    23a4:	13c05663          	blez	t3,24d0 <__adddf3+0x184>
    23a8:	1c030463          	beqz	t1,2570 <__adddf3+0x224>
    23ac:	008006b7          	lui	a3,0x800
    23b0:	7ff00793          	li	a5,2047
    23b4:	00d86833          	or	a6,a6,a3
    23b8:	36f48f63          	beq	s1,a5,2736 <__adddf3+0x3ea>
    23bc:	03800793          	li	a5,56
    23c0:	35c7c063          	blt	a5,t3,2700 <__adddf3+0x3b4>
    23c4:	47fd                	li	a5,31
    23c6:	47c7cd63          	blt	a5,t3,2840 <__adddf3+0x4f4>
    23ca:	02000513          	li	a0,32
    23ce:	41c50533          	sub	a0,a0,t3
    23d2:	01cfd7b3          	srl	a5,t6,t3
    23d6:	00a816b3          	sll	a3,a6,a0
    23da:	00af9933          	sll	s2,t6,a0
    23de:	8edd                	or	a3,a3,a5
    23e0:	01203933          	snez	s2,s2
    23e4:	01c857b3          	srl	a5,a6,t3
    23e8:	0126e933          	or	s2,a3,s2
    23ec:	8f1d                	sub	a4,a4,a5
    23ee:	412f0933          	sub	s2,t5,s2
    23f2:	012f37b3          	sltu	a5,t5,s2
    23f6:	40f70633          	sub	a2,a4,a5
    23fa:	00861793          	slli	a5,a2,0x8
    23fe:	2407d463          	bgez	a5,2646 <__adddf3+0x2fa>
    2402:	00800737          	lui	a4,0x800
    2406:	177d                	addi	a4,a4,-1
    2408:	00e67433          	and	s0,a2,a4
    240c:	2c040c63          	beqz	s0,26e4 <__adddf3+0x398>
    2410:	8522                	mv	a0,s0
    2412:	7b8010ef          	jal	ra,3bca <__clzsi2>
    2416:	ff850713          	addi	a4,a0,-8
    241a:	02000793          	li	a5,32
    241e:	8f99                	sub	a5,a5,a4
    2420:	00f957b3          	srl	a5,s2,a5
    2424:	00e41633          	sll	a2,s0,a4
    2428:	8fd1                	or	a5,a5,a2
    242a:	00e91933          	sll	s2,s2,a4
    242e:	2a974163          	blt	a4,s1,26d0 <__adddf3+0x384>
    2432:	40970533          	sub	a0,a4,s1
    2436:	00150613          	addi	a2,a0,1
    243a:	477d                	li	a4,31
    243c:	38c74d63          	blt	a4,a2,27d6 <__adddf3+0x48a>
    2440:	02000713          	li	a4,32
    2444:	8f11                	sub	a4,a4,a2
    2446:	00c956b3          	srl	a3,s2,a2
    244a:	00e91933          	sll	s2,s2,a4
    244e:	00e79733          	sll	a4,a5,a4
    2452:	8f55                	or	a4,a4,a3
    2454:	01203933          	snez	s2,s2
    2458:	01276933          	or	s2,a4,s2
    245c:	00c7d633          	srl	a2,a5,a2
    2460:	4481                	li	s1,0
    2462:	00797793          	andi	a5,s2,7
    2466:	cf81                	beqz	a5,247e <__adddf3+0x132>
    2468:	00f97713          	andi	a4,s2,15
    246c:	4791                	li	a5,4
    246e:	00f70863          	beq	a4,a5,247e <__adddf3+0x132>
    2472:	00490713          	addi	a4,s2,4
    2476:	01273933          	sltu	s2,a4,s2
    247a:	964a                	add	a2,a2,s2
    247c:	893a                	mv	s2,a4
    247e:	00861793          	slli	a5,a2,0x8
    2482:	1c07d663          	bgez	a5,264e <__adddf3+0x302>
    2486:	00148513          	addi	a0,s1,1
    248a:	7ff00793          	li	a5,2047
    248e:	85ce                	mv	a1,s3
    2490:	20f50463          	beq	a0,a5,2698 <__adddf3+0x34c>
    2494:	ff8007b7          	lui	a5,0xff800
    2498:	17fd                	addi	a5,a5,-1
    249a:	8ff1                	and	a5,a5,a2
    249c:	01d79893          	slli	a7,a5,0x1d
    24a0:	00395913          	srli	s2,s2,0x3
    24a4:	07a6                	slli	a5,a5,0x9
    24a6:	0128e8b3          	or	a7,a7,s2
    24aa:	83b1                	srli	a5,a5,0xc
    24ac:	7ff57513          	andi	a0,a0,2047
    24b0:	00c79693          	slli	a3,a5,0xc
    24b4:	0552                	slli	a0,a0,0x14
    24b6:	40f2                	lw	ra,28(sp)
    24b8:	4462                	lw	s0,24(sp)
    24ba:	82b1                	srli	a3,a3,0xc
    24bc:	05fe                	slli	a1,a1,0x1f
    24be:	8ec9                	or	a3,a3,a0
    24c0:	8ecd                	or	a3,a3,a1
    24c2:	44d2                	lw	s1,20(sp)
    24c4:	4942                	lw	s2,16(sp)
    24c6:	49b2                	lw	s3,12(sp)
    24c8:	8546                	mv	a0,a7
    24ca:	85b6                	mv	a1,a3
    24cc:	6105                	addi	sp,sp,32
    24ce:	8082                	ret
    24d0:	0a0e1e63          	bnez	t3,258c <__adddf3+0x240>
    24d4:	00148313          	addi	t1,s1,1
    24d8:	7fe37313          	andi	t1,t1,2046
    24dc:	22031763          	bnez	t1,270a <__adddf3+0x3be>
    24e0:	01e767b3          	or	a5,a4,t5
    24e4:	01f868b3          	or	a7,a6,t6
    24e8:	1a049d63          	bnez	s1,26a2 <__adddf3+0x356>
    24ec:	40078763          	beqz	a5,28fa <__adddf3+0x5ae>
    24f0:	44088663          	beqz	a7,293c <__adddf3+0x5f0>
    24f4:	41ff0933          	sub	s2,t5,t6
    24f8:	410707b3          	sub	a5,a4,a6
    24fc:	012f3633          	sltu	a2,t5,s2
    2500:	40c78633          	sub	a2,a5,a2
    2504:	00861793          	slli	a5,a2,0x8
    2508:	4c07d663          	bgez	a5,29d4 <__adddf3+0x688>
    250c:	41ef8933          	sub	s2,t6,t5
    2510:	40e807b3          	sub	a5,a6,a4
    2514:	012fb633          	sltu	a2,t6,s2
    2518:	40c78633          	sub	a2,a5,a2
    251c:	89f6                	mv	s3,t4
    251e:	b791                	j	2462 <__adddf3+0x116>
    2520:	0fc05063          	blez	t3,2600 <__adddf3+0x2b4>
    2524:	0c030063          	beqz	t1,25e4 <__adddf3+0x298>
    2528:	008006b7          	lui	a3,0x800
    252c:	7ff00793          	li	a5,2047
    2530:	00d86833          	or	a6,a6,a3
    2534:	3af48a63          	beq	s1,a5,28e8 <__adddf3+0x59c>
    2538:	03800793          	li	a5,56
    253c:	13c7cb63          	blt	a5,t3,2672 <__adddf3+0x326>
    2540:	47fd                	li	a5,31
    2542:	35c7df63          	bge	a5,t3,28a0 <__adddf3+0x554>
    2546:	fe0e0913          	addi	s2,t3,-32
    254a:	02000793          	li	a5,32
    254e:	012856b3          	srl	a3,a6,s2
    2552:	00fe0a63          	beq	t3,a5,2566 <__adddf3+0x21a>
    2556:	04000913          	li	s2,64
    255a:	41c90933          	sub	s2,s2,t3
    255e:	01281933          	sll	s2,a6,s2
    2562:	012fefb3          	or	t6,t6,s2
    2566:	01f03933          	snez	s2,t6
    256a:	00d96933          	or	s2,s2,a3
    256e:	a231                	j	267a <__adddf3+0x32e>
    2570:	01f867b3          	or	a5,a6,t6
    2574:	1c078a63          	beqz	a5,2748 <__adddf3+0x3fc>
    2578:	fffe0793          	addi	a5,t3,-1
    257c:	38078c63          	beqz	a5,2914 <__adddf3+0x5c8>
    2580:	7ff00693          	li	a3,2047
    2584:	1ade0963          	beq	t3,a3,2736 <__adddf3+0x3ea>
    2588:	8e3e                	mv	t3,a5
    258a:	bd0d                	j	23bc <__adddf3+0x70>
    258c:	409305b3          	sub	a1,t1,s1
    2590:	22049163          	bnez	s1,27b2 <__adddf3+0x466>
    2594:	01e767b3          	or	a5,a4,t5
    2598:	32078763          	beqz	a5,28c6 <__adddf3+0x57a>
    259c:	fff58793          	addi	a5,a1,-1
    25a0:	44078163          	beqz	a5,29e2 <__adddf3+0x696>
    25a4:	7ff00693          	li	a3,2047
    25a8:	20d58c63          	beq	a1,a3,27c0 <__adddf3+0x474>
    25ac:	85be                	mv	a1,a5
    25ae:	03800793          	li	a5,56
    25b2:	2ab7cc63          	blt	a5,a1,286a <__adddf3+0x51e>
    25b6:	47fd                	li	a5,31
    25b8:	3cb7cf63          	blt	a5,a1,2996 <__adddf3+0x64a>
    25bc:	02000793          	li	a5,32
    25c0:	8f8d                	sub	a5,a5,a1
    25c2:	00f71933          	sll	s2,a4,a5
    25c6:	00bf56b3          	srl	a3,t5,a1
    25ca:	00ff17b3          	sll	a5,t5,a5
    25ce:	00d96933          	or	s2,s2,a3
    25d2:	00f037b3          	snez	a5,a5
    25d6:	00b75733          	srl	a4,a4,a1
    25da:	00f96933          	or	s2,s2,a5
    25de:	40e80833          	sub	a6,a6,a4
    25e2:	ac41                	j	2872 <__adddf3+0x526>
    25e4:	01f867b3          	or	a5,a6,t6
    25e8:	34078063          	beqz	a5,2928 <__adddf3+0x5dc>
    25ec:	fffe0793          	addi	a5,t3,-1
    25f0:	20078a63          	beqz	a5,2804 <__adddf3+0x4b8>
    25f4:	7ff00693          	li	a3,2047
    25f8:	2ede0863          	beq	t3,a3,28e8 <__adddf3+0x59c>
    25fc:	8e3e                	mv	t3,a5
    25fe:	bf2d                	j	2538 <__adddf3+0x1ec>
    2600:	140e1e63          	bnez	t3,275c <__adddf3+0x410>
    2604:	00148693          	addi	a3,s1,1
    2608:	7fe6f793          	andi	a5,a3,2046
    260c:	34079163          	bnez	a5,294e <__adddf3+0x602>
    2610:	01e767b3          	or	a5,a4,t5
    2614:	2c049563          	bnez	s1,28de <__adddf3+0x592>
    2618:	3e078063          	beqz	a5,29f8 <__adddf3+0x6ac>
    261c:	01f867b3          	or	a5,a6,t6
    2620:	30078e63          	beqz	a5,293c <__adddf3+0x5f0>
    2624:	01ff0933          	add	s2,t5,t6
    2628:	010707b3          	add	a5,a4,a6
    262c:	01e93f33          	sltu	t5,s2,t5
    2630:	01e78633          	add	a2,a5,t5
    2634:	00861793          	slli	a5,a2,0x8
    2638:	0007d763          	bgez	a5,2646 <__adddf3+0x2fa>
    263c:	ff8007b7          	lui	a5,0xff800
    2640:	17fd                	addi	a5,a5,-1
    2642:	8e7d                	and	a2,a2,a5
    2644:	4485                	li	s1,1
    2646:	00797793          	andi	a5,s2,7
    264a:	e0079fe3          	bnez	a5,2468 <__adddf3+0x11c>
    264e:	01d61793          	slli	a5,a2,0x1d
    2652:	00395893          	srli	a7,s2,0x3
    2656:	00f8e8b3          	or	a7,a7,a5
    265a:	00365793          	srli	a5,a2,0x3
    265e:	7ff00713          	li	a4,2047
    2662:	04e48d63          	beq	s1,a4,26bc <__adddf3+0x370>
    2666:	07b2                	slli	a5,a5,0xc
    2668:	83b1                	srli	a5,a5,0xc
    266a:	7ff4f513          	andi	a0,s1,2047
    266e:	85ce                	mv	a1,s3
    2670:	b581                	j	24b0 <__adddf3+0x164>
    2672:	01f86933          	or	s2,a6,t6
    2676:	01203933          	snez	s2,s2
    267a:	997a                	add	s2,s2,t5
    267c:	01e937b3          	sltu	a5,s2,t5
    2680:	00e78633          	add	a2,a5,a4
    2684:	00861793          	slli	a5,a2,0x8
    2688:	fa07dfe3          	bgez	a5,2646 <__adddf3+0x2fa>
    268c:	0485                	addi	s1,s1,1
    268e:	7ff00793          	li	a5,2047
    2692:	18f49663          	bne	s1,a5,281e <__adddf3+0x4d2>
    2696:	85ce                	mv	a1,s3
    2698:	7ff00513          	li	a0,2047
    269c:	4781                	li	a5,0
    269e:	4881                	li	a7,0
    26a0:	bd01                	j	24b0 <__adddf3+0x164>
    26a2:	ebc1                	bnez	a5,2732 <__adddf3+0x3e6>
    26a4:	3a088463          	beqz	a7,2a4c <__adddf3+0x700>
    26a8:	00361693          	slli	a3,a2,0x3
    26ac:	01d81793          	slli	a5,a6,0x1d
    26b0:	828d                	srli	a3,a3,0x3
    26b2:	00d7e8b3          	or	a7,a5,a3
    26b6:	89f6                	mv	s3,t4
    26b8:	00385793          	srli	a5,a6,0x3
    26bc:	00f8e7b3          	or	a5,a7,a5
    26c0:	dbf9                	beqz	a5,2696 <__adddf3+0x34a>
    26c2:	4581                	li	a1,0
    26c4:	7ff00513          	li	a0,2047
    26c8:	000807b7          	lui	a5,0x80
    26cc:	4881                	li	a7,0
    26ce:	b3cd                	j	24b0 <__adddf3+0x164>
    26d0:	ff800637          	lui	a2,0xff800
    26d4:	167d                	addi	a2,a2,-1
    26d6:	8e7d                	and	a2,a2,a5
    26d8:	00797793          	andi	a5,s2,7
    26dc:	8c99                	sub	s1,s1,a4
    26de:	d80795e3          	bnez	a5,2468 <__adddf3+0x11c>
    26e2:	b7b5                	j	264e <__adddf3+0x302>
    26e4:	854a                	mv	a0,s2
    26e6:	4e4010ef          	jal	ra,3bca <__clzsi2>
    26ea:	01850713          	addi	a4,a0,24
    26ee:	47fd                	li	a5,31
    26f0:	d2e7d5e3          	bge	a5,a4,241a <__adddf3+0xce>
    26f4:	ff850613          	addi	a2,a0,-8
    26f8:	00c917b3          	sll	a5,s2,a2
    26fc:	4901                	li	s2,0
    26fe:	bb05                	j	242e <__adddf3+0xe2>
    2700:	01f86933          	or	s2,a6,t6
    2704:	01203933          	snez	s2,s2
    2708:	b1dd                	j	23ee <__adddf3+0xa2>
    270a:	41ff0933          	sub	s2,t5,t6
    270e:	41070633          	sub	a2,a4,a6
    2712:	012f3433          	sltu	s0,t5,s2
    2716:	40860433          	sub	s0,a2,s0
    271a:	00841793          	slli	a5,s0,0x8
    271e:	2407cd63          	bltz	a5,2978 <__adddf3+0x62c>
    2722:	008968b3          	or	a7,s2,s0
    2726:	ce0893e3          	bnez	a7,240c <__adddf3+0xc0>
    272a:	4781                	li	a5,0
    272c:	4981                	li	s3,0
    272e:	4481                	li	s1,0
    2730:	bf1d                	j	2666 <__adddf3+0x31a>
    2732:	f80898e3          	bnez	a7,26c2 <__adddf3+0x376>
    2736:	050e                	slli	a0,a0,0x3
    2738:	01d71793          	slli	a5,a4,0x1d
    273c:	810d                	srli	a0,a0,0x3
    273e:	00a7e8b3          	or	a7,a5,a0
    2742:	00375793          	srli	a5,a4,0x3
    2746:	bf9d                	j	26bc <__adddf3+0x370>
    2748:	050e                	slli	a0,a0,0x3
    274a:	01d71793          	slli	a5,a4,0x1d
    274e:	810d                	srli	a0,a0,0x3
    2750:	00a7e8b3          	or	a7,a5,a0
    2754:	84f2                	mv	s1,t3
    2756:	00375793          	srli	a5,a4,0x3
    275a:	b711                	j	265e <__adddf3+0x312>
    275c:	40930533          	sub	a0,t1,s1
    2760:	12048263          	beqz	s1,2884 <__adddf3+0x538>
    2764:	008006b7          	lui	a3,0x800
    2768:	7ff00793          	li	a5,2047
    276c:	8f55                	or	a4,a4,a3
    276e:	2ef30d63          	beq	t1,a5,2a68 <__adddf3+0x71c>
    2772:	03800793          	li	a5,56
    2776:	20a7cb63          	blt	a5,a0,298c <__adddf3+0x640>
    277a:	47fd                	li	a5,31
    277c:	2aa7c363          	blt	a5,a0,2a22 <__adddf3+0x6d6>
    2780:	02000793          	li	a5,32
    2784:	8f89                	sub	a5,a5,a0
    2786:	00f71933          	sll	s2,a4,a5
    278a:	00af56b3          	srl	a3,t5,a0
    278e:	00ff17b3          	sll	a5,t5,a5
    2792:	00d96933          	or	s2,s2,a3
    2796:	00f037b3          	snez	a5,a5
    279a:	00a75733          	srl	a4,a4,a0
    279e:	00f96933          	or	s2,s2,a5
    27a2:	983a                	add	a6,a6,a4
    27a4:	997e                	add	s2,s2,t6
    27a6:	01f937b3          	sltu	a5,s2,t6
    27aa:	01078633          	add	a2,a5,a6
    27ae:	849a                	mv	s1,t1
    27b0:	bdd1                	j	2684 <__adddf3+0x338>
    27b2:	008006b7          	lui	a3,0x800
    27b6:	7ff00793          	li	a5,2047
    27ba:	8f55                	or	a4,a4,a3
    27bc:	def319e3          	bne	t1,a5,25ae <__adddf3+0x262>
    27c0:	00361793          	slli	a5,a2,0x3
    27c4:	838d                	srli	a5,a5,0x3
    27c6:	01d81893          	slli	a7,a6,0x1d
    27ca:	0117e8b3          	or	a7,a5,a7
    27ce:	89f6                	mv	s3,t4
    27d0:	00385793          	srli	a5,a6,0x3
    27d4:	b5e5                	j	26bc <__adddf3+0x370>
    27d6:	fe150713          	addi	a4,a0,-31
    27da:	02000693          	li	a3,32
    27de:	00e7d733          	srl	a4,a5,a4
    27e2:	00d60a63          	beq	a2,a3,27f6 <__adddf3+0x4aa>
    27e6:	04000693          	li	a3,64
    27ea:	40c68633          	sub	a2,a3,a2
    27ee:	00c79633          	sll	a2,a5,a2
    27f2:	00c96933          	or	s2,s2,a2
    27f6:	01203933          	snez	s2,s2
    27fa:	00e96933          	or	s2,s2,a4
    27fe:	4601                	li	a2,0
    2800:	4481                	li	s1,0
    2802:	b591                	j	2646 <__adddf3+0x2fa>
    2804:	01ff0933          	add	s2,t5,t6
    2808:	010707b3          	add	a5,a4,a6
    280c:	01e93633          	sltu	a2,s2,t5
    2810:	963e                	add	a2,a2,a5
    2812:	00861793          	slli	a5,a2,0x8
    2816:	4485                	li	s1,1
    2818:	e207d7e3          	bgez	a5,2646 <__adddf3+0x2fa>
    281c:	4489                	li	s1,2
    281e:	ff8007b7          	lui	a5,0xff800
    2822:	17fd                	addi	a5,a5,-1
    2824:	8ff1                	and	a5,a5,a2
    2826:	00195713          	srli	a4,s2,0x1
    282a:	00197913          	andi	s2,s2,1
    282e:	01276933          	or	s2,a4,s2
    2832:	01f79893          	slli	a7,a5,0x1f
    2836:	0128e933          	or	s2,a7,s2
    283a:	0017d613          	srli	a2,a5,0x1
    283e:	b115                	j	2462 <__adddf3+0x116>
    2840:	fe0e0913          	addi	s2,t3,-32
    2844:	02000793          	li	a5,32
    2848:	012856b3          	srl	a3,a6,s2
    284c:	00fe0a63          	beq	t3,a5,2860 <__adddf3+0x514>
    2850:	04000913          	li	s2,64
    2854:	41c90933          	sub	s2,s2,t3
    2858:	01281933          	sll	s2,a6,s2
    285c:	012fefb3          	or	t6,t6,s2
    2860:	01f03933          	snez	s2,t6
    2864:	00d96933          	or	s2,s2,a3
    2868:	b659                	j	23ee <__adddf3+0xa2>
    286a:	01e76933          	or	s2,a4,t5
    286e:	01203933          	snez	s2,s2
    2872:	412f8933          	sub	s2,t6,s2
    2876:	012fb7b3          	sltu	a5,t6,s2
    287a:	40f80633          	sub	a2,a6,a5
    287e:	849a                	mv	s1,t1
    2880:	89f6                	mv	s3,t4
    2882:	bea5                	j	23fa <__adddf3+0xae>
    2884:	01e767b3          	or	a5,a4,t5
    2888:	18078263          	beqz	a5,2a0c <__adddf3+0x6c0>
    288c:	fff50793          	addi	a5,a0,-1
    2890:	1c078463          	beqz	a5,2a58 <__adddf3+0x70c>
    2894:	7ff00693          	li	a3,2047
    2898:	12d50463          	beq	a0,a3,29c0 <__adddf3+0x674>
    289c:	853e                	mv	a0,a5
    289e:	bdd1                	j	2772 <__adddf3+0x426>
    28a0:	02000793          	li	a5,32
    28a4:	41c787b3          	sub	a5,a5,t3
    28a8:	00f816b3          	sll	a3,a6,a5
    28ac:	00ff9933          	sll	s2,t6,a5
    28b0:	01cfd633          	srl	a2,t6,t3
    28b4:	8ed1                	or	a3,a3,a2
    28b6:	01203933          	snez	s2,s2
    28ba:	01c857b3          	srl	a5,a6,t3
    28be:	0126e933          	or	s2,a3,s2
    28c2:	973e                	add	a4,a4,a5
    28c4:	bb5d                	j	267a <__adddf3+0x32e>
    28c6:	00361793          	slli	a5,a2,0x3
    28ca:	838d                	srli	a5,a5,0x3
    28cc:	01d81893          	slli	a7,a6,0x1d
    28d0:	0117e8b3          	or	a7,a5,a7
    28d4:	84ae                	mv	s1,a1
    28d6:	00385793          	srli	a5,a6,0x3
    28da:	89f6                	mv	s3,t4
    28dc:	b349                	j	265e <__adddf3+0x312>
    28de:	c3ed                	beqz	a5,29c0 <__adddf3+0x674>
    28e0:	01f86933          	or	s2,a6,t6
    28e4:	dc091fe3          	bnez	s2,26c2 <__adddf3+0x376>
    28e8:	050e                	slli	a0,a0,0x3
    28ea:	01d71793          	slli	a5,a4,0x1d
    28ee:	810d                	srli	a0,a0,0x3
    28f0:	00f568b3          	or	a7,a0,a5
    28f4:	00375793          	srli	a5,a4,0x3
    28f8:	b3d1                	j	26bc <__adddf3+0x370>
    28fa:	0e088163          	beqz	a7,29dc <__adddf3+0x690>
    28fe:	00361693          	slli	a3,a2,0x3
    2902:	01d81793          	slli	a5,a6,0x1d
    2906:	828d                	srli	a3,a3,0x3
    2908:	00d7e8b3          	or	a7,a5,a3
    290c:	89f6                	mv	s3,t4
    290e:	00385793          	srli	a5,a6,0x3
    2912:	bb91                	j	2666 <__adddf3+0x31a>
    2914:	41ff0933          	sub	s2,t5,t6
    2918:	410707b3          	sub	a5,a4,a6
    291c:	012f3f33          	sltu	t5,t5,s2
    2920:	41e78633          	sub	a2,a5,t5
    2924:	4485                	li	s1,1
    2926:	bcd1                	j	23fa <__adddf3+0xae>
    2928:	050e                	slli	a0,a0,0x3
    292a:	01d71793          	slli	a5,a4,0x1d
    292e:	810d                	srli	a0,a0,0x3
    2930:	00f568b3          	or	a7,a0,a5
    2934:	84f2                	mv	s1,t3
    2936:	00375793          	srli	a5,a4,0x3
    293a:	b315                	j	265e <__adddf3+0x312>
    293c:	050e                	slli	a0,a0,0x3
    293e:	01d71793          	slli	a5,a4,0x1d
    2942:	810d                	srli	a0,a0,0x3
    2944:	00a7e8b3          	or	a7,a5,a0
    2948:	00375793          	srli	a5,a4,0x3
    294c:	bb29                	j	2666 <__adddf3+0x31a>
    294e:	7ff00793          	li	a5,2047
    2952:	d4f682e3          	beq	a3,a5,2696 <__adddf3+0x34a>
    2956:	01ff0933          	add	s2,t5,t6
    295a:	01e93633          	sltu	a2,s2,t5
    295e:	010707b3          	add	a5,a4,a6
    2962:	97b2                	add	a5,a5,a2
    2964:	01f79893          	slli	a7,a5,0x1f
    2968:	00195913          	srli	s2,s2,0x1
    296c:	0128e933          	or	s2,a7,s2
    2970:	0017d613          	srli	a2,a5,0x1
    2974:	84b6                	mv	s1,a3
    2976:	b9c1                	j	2646 <__adddf3+0x2fa>
    2978:	41ef8933          	sub	s2,t6,t5
    297c:	40e80733          	sub	a4,a6,a4
    2980:	012fb633          	sltu	a2,t6,s2
    2984:	40c70433          	sub	s0,a4,a2
    2988:	89f6                	mv	s3,t4
    298a:	b449                	j	240c <__adddf3+0xc0>
    298c:	01e76933          	or	s2,a4,t5
    2990:	01203933          	snez	s2,s2
    2994:	bd01                	j	27a4 <__adddf3+0x458>
    2996:	fe058793          	addi	a5,a1,-32
    299a:	02000693          	li	a3,32
    299e:	00f757b3          	srl	a5,a4,a5
    29a2:	00d58a63          	beq	a1,a3,29b6 <__adddf3+0x66a>
    29a6:	04000693          	li	a3,64
    29aa:	40b685b3          	sub	a1,a3,a1
    29ae:	00b71733          	sll	a4,a4,a1
    29b2:	00ef6f33          	or	t5,t5,a4
    29b6:	01e03933          	snez	s2,t5
    29ba:	00f96933          	or	s2,s2,a5
    29be:	bd55                	j	2872 <__adddf3+0x526>
    29c0:	00361793          	slli	a5,a2,0x3
    29c4:	838d                	srli	a5,a5,0x3
    29c6:	01d81893          	slli	a7,a6,0x1d
    29ca:	0117e8b3          	or	a7,a5,a7
    29ce:	00385793          	srli	a5,a6,0x3
    29d2:	b1ed                	j	26bc <__adddf3+0x370>
    29d4:	00c968b3          	or	a7,s2,a2
    29d8:	c60897e3          	bnez	a7,2646 <__adddf3+0x2fa>
    29dc:	4781                	li	a5,0
    29de:	4981                	li	s3,0
    29e0:	b159                	j	2666 <__adddf3+0x31a>
    29e2:	41ef8933          	sub	s2,t6,t5
    29e6:	40e807b3          	sub	a5,a6,a4
    29ea:	012fb633          	sltu	a2,t6,s2
    29ee:	40c78633          	sub	a2,a5,a2
    29f2:	89f6                	mv	s3,t4
    29f4:	4485                	li	s1,1
    29f6:	b411                	j	23fa <__adddf3+0xae>
    29f8:	00361693          	slli	a3,a2,0x3
    29fc:	01d81793          	slli	a5,a6,0x1d
    2a00:	828d                	srli	a3,a3,0x3
    2a02:	00d7e8b3          	or	a7,a5,a3
    2a06:	00385793          	srli	a5,a6,0x3
    2a0a:	b9b1                	j	2666 <__adddf3+0x31a>
    2a0c:	00361693          	slli	a3,a2,0x3
    2a10:	01d81793          	slli	a5,a6,0x1d
    2a14:	828d                	srli	a3,a3,0x3
    2a16:	00d7e8b3          	or	a7,a5,a3
    2a1a:	84aa                	mv	s1,a0
    2a1c:	00385793          	srli	a5,a6,0x3
    2a20:	b93d                	j	265e <__adddf3+0x312>
    2a22:	fe050793          	addi	a5,a0,-32
    2a26:	02000693          	li	a3,32
    2a2a:	00f757b3          	srl	a5,a4,a5
    2a2e:	00d50a63          	beq	a0,a3,2a42 <__adddf3+0x6f6>
    2a32:	04000693          	li	a3,64
    2a36:	40a68533          	sub	a0,a3,a0
    2a3a:	00a71733          	sll	a4,a4,a0
    2a3e:	00ef6f33          	or	t5,t5,a4
    2a42:	01e03933          	snez	s2,t5
    2a46:	00f96933          	or	s2,s2,a5
    2a4a:	bba9                	j	27a4 <__adddf3+0x458>
    2a4c:	4581                	li	a1,0
    2a4e:	7ff00513          	li	a0,2047
    2a52:	000807b7          	lui	a5,0x80
    2a56:	bca9                	j	24b0 <__adddf3+0x164>
    2a58:	01ff0933          	add	s2,t5,t6
    2a5c:	010707b3          	add	a5,a4,a6
    2a60:	01f93633          	sltu	a2,s2,t6
    2a64:	963e                	add	a2,a2,a5
    2a66:	b375                	j	2812 <__adddf3+0x4c6>
    2a68:	00361693          	slli	a3,a2,0x3
    2a6c:	01d81793          	slli	a5,a6,0x1d
    2a70:	828d                	srli	a3,a3,0x3
    2a72:	00d7e8b3          	or	a7,a5,a3
    2a76:	00385793          	srli	a5,a6,0x3
    2a7a:	b189                	j	26bc <__adddf3+0x370>

00002a7c <__muldf3>:
__muldf3():
    2a7c:	7139                	addi	sp,sp,-64
    2a7e:	d84a                	sw	s2,48(sp)
    2a80:	0145d913          	srli	s2,a1,0x14
    2a84:	d64e                	sw	s3,44(sp)
    2a86:	d452                	sw	s4,40(sp)
    2a88:	d256                	sw	s5,36(sp)
    2a8a:	00c59993          	slli	s3,a1,0xc
    2a8e:	de06                	sw	ra,60(sp)
    2a90:	dc22                	sw	s0,56(sp)
    2a92:	da26                	sw	s1,52(sp)
    2a94:	d05a                	sw	s6,32(sp)
    2a96:	ce5e                	sw	s7,28(sp)
    2a98:	7ff97913          	andi	s2,s2,2047
    2a9c:	8a2a                	mv	s4,a0
    2a9e:	00c9d993          	srli	s3,s3,0xc
    2aa2:	01f5da93          	srli	s5,a1,0x1f
    2aa6:	0e090d63          	beqz	s2,2ba0 <__muldf3+0x124>
    2aaa:	7ff00793          	li	a5,2047
    2aae:	18f90663          	beq	s2,a5,2c3a <__muldf3+0x1be>
    2ab2:	01d55413          	srli	s0,a0,0x1d
    2ab6:	098e                	slli	s3,s3,0x3
    2ab8:	013469b3          	or	s3,s0,s3
    2abc:	00800437          	lui	s0,0x800
    2ac0:	0089e433          	or	s0,s3,s0
    2ac4:	00351493          	slli	s1,a0,0x3
    2ac8:	c0190913          	addi	s2,s2,-1023
    2acc:	4981                	li	s3,0
    2ace:	4b81                	li	s7,0
    2ad0:	0146d713          	srli	a4,a3,0x14
    2ad4:	00c69a13          	slli	s4,a3,0xc
    2ad8:	7ff77713          	andi	a4,a4,2047
    2adc:	85b2                	mv	a1,a2
    2ade:	00ca5a13          	srli	s4,s4,0xc
    2ae2:	01f6db13          	srli	s6,a3,0x1f
    2ae6:	10070b63          	beqz	a4,2bfc <__muldf3+0x180>
    2aea:	7ff00793          	li	a5,2047
    2aee:	04f70363          	beq	a4,a5,2b34 <__muldf3+0xb8>
    2af2:	01d65793          	srli	a5,a2,0x1d
    2af6:	0a0e                	slli	s4,s4,0x3
    2af8:	0147ea33          	or	s4,a5,s4
    2afc:	c0170713          	addi	a4,a4,-1023 # 7ffc01 <_data_lma+0x7fbd79>
    2b00:	008007b7          	lui	a5,0x800
    2b04:	00fa67b3          	or	a5,s4,a5
    2b08:	00361593          	slli	a1,a2,0x3
    2b0c:	993a                	add	s2,s2,a4
    2b0e:	4881                	li	a7,0
    2b10:	016ac733          	xor	a4,s5,s6
    2b14:	46bd                	li	a3,15
    2b16:	853a                	mv	a0,a4
    2b18:	00190813          	addi	a6,s2,1
    2b1c:	1736e863          	bltu	a3,s3,2c8c <__muldf3+0x210>
    2b20:	00001617          	auipc	a2,0x1
    2b24:	1e860613          	addi	a2,a2,488 # 3d08 <UARTN+0x48>
    2b28:	098a                	slli	s3,s3,0x2
    2b2a:	99b2                	add	s3,s3,a2
    2b2c:	0009a683          	lw	a3,0(s3)
    2b30:	96b2                	add	a3,a3,a2
    2b32:	8682                	jr	a3
    2b34:	00ca67b3          	or	a5,s4,a2
    2b38:	7ff90913          	addi	s2,s2,2047
    2b3c:	12079963          	bnez	a5,2c6e <__muldf3+0x1f2>
    2b40:	0029e993          	ori	s3,s3,2
    2b44:	4581                	li	a1,0
    2b46:	4889                	li	a7,2
    2b48:	b7e1                	j	2b10 <__muldf3+0x94>
    2b4a:	4701                	li	a4,0
    2b4c:	7ff00793          	li	a5,2047
    2b50:	00080437          	lui	s0,0x80
    2b54:	4481                	li	s1,0
    2b56:	0432                	slli	s0,s0,0xc
    2b58:	07d2                	slli	a5,a5,0x14
    2b5a:	8031                	srli	s0,s0,0xc
    2b5c:	077e                	slli	a4,a4,0x1f
    2b5e:	8c5d                	or	s0,s0,a5
    2b60:	8c59                	or	s0,s0,a4
    2b62:	85a2                	mv	a1,s0
    2b64:	50f2                	lw	ra,60(sp)
    2b66:	5462                	lw	s0,56(sp)
    2b68:	8526                	mv	a0,s1
    2b6a:	5942                	lw	s2,48(sp)
    2b6c:	54d2                	lw	s1,52(sp)
    2b6e:	59b2                	lw	s3,44(sp)
    2b70:	5a22                	lw	s4,40(sp)
    2b72:	5a92                	lw	s5,36(sp)
    2b74:	5b02                	lw	s6,32(sp)
    2b76:	4bf2                	lw	s7,28(sp)
    2b78:	6121                	addi	sp,sp,64
    2b7a:	8082                	ret
    2b7c:	855a                	mv	a0,s6
    2b7e:	843e                	mv	s0,a5
    2b80:	84ae                	mv	s1,a1
    2b82:	8bc6                	mv	s7,a7
    2b84:	4789                	li	a5,2
    2b86:	0efb8d63          	beq	s7,a5,2c80 <__muldf3+0x204>
    2b8a:	478d                	li	a5,3
    2b8c:	fafb8fe3          	beq	s7,a5,2b4a <__muldf3+0xce>
    2b90:	4785                	li	a5,1
    2b92:	872a                	mv	a4,a0
    2b94:	38fb9e63          	bne	s7,a5,2f30 <__muldf3+0x4b4>
    2b98:	4781                	li	a5,0
    2b9a:	4401                	li	s0,0
    2b9c:	4481                	li	s1,0
    2b9e:	bf65                	j	2b56 <__muldf3+0xda>
    2ba0:	00a9e433          	or	s0,s3,a0
    2ba4:	c061                	beqz	s0,2c64 <__muldf3+0x1e8>
    2ba6:	c636                	sw	a3,12(sp)
    2ba8:	c432                	sw	a2,8(sp)
    2baa:	2a098c63          	beqz	s3,2e62 <__muldf3+0x3e6>
    2bae:	854e                	mv	a0,s3
    2bb0:	01a010ef          	jal	ra,3bca <__clzsi2>
    2bb4:	4622                	lw	a2,8(sp)
    2bb6:	46b2                	lw	a3,12(sp)
    2bb8:	87aa                	mv	a5,a0
    2bba:	ff550713          	addi	a4,a0,-11
    2bbe:	4475                	li	s0,29
    2bc0:	ff878493          	addi	s1,a5,-8 # 7ffff8 <_data_lma+0x7fc170>
    2bc4:	8c19                	sub	s0,s0,a4
    2bc6:	009999b3          	sll	s3,s3,s1
    2bca:	008a5433          	srl	s0,s4,s0
    2bce:	01346433          	or	s0,s0,s3
    2bd2:	009a14b3          	sll	s1,s4,s1
    2bd6:	0146d713          	srli	a4,a3,0x14
    2bda:	c0d00913          	li	s2,-1011
    2bde:	00c69a13          	slli	s4,a3,0xc
    2be2:	7ff77713          	andi	a4,a4,2047
    2be6:	40f90933          	sub	s2,s2,a5
    2bea:	4981                	li	s3,0
    2bec:	4b81                	li	s7,0
    2bee:	85b2                	mv	a1,a2
    2bf0:	00ca5a13          	srli	s4,s4,0xc
    2bf4:	01f6db13          	srli	s6,a3,0x1f
    2bf8:	ee0719e3          	bnez	a4,2aea <__muldf3+0x6e>
    2bfc:	00ca67b3          	or	a5,s4,a2
    2c00:	c7b1                	beqz	a5,2c4c <__muldf3+0x1d0>
    2c02:	220a0f63          	beqz	s4,2e40 <__muldf3+0x3c4>
    2c06:	8552                	mv	a0,s4
    2c08:	c432                	sw	a2,8(sp)
    2c0a:	7c1000ef          	jal	ra,3bca <__clzsi2>
    2c0e:	4622                	lw	a2,8(sp)
    2c10:	872a                	mv	a4,a0
    2c12:	ff550693          	addi	a3,a0,-11
    2c16:	47f5                	li	a5,29
    2c18:	ff870593          	addi	a1,a4,-8
    2c1c:	8f95                	sub	a5,a5,a3
    2c1e:	00ba1a33          	sll	s4,s4,a1
    2c22:	00f657b3          	srl	a5,a2,a5
    2c26:	0147e7b3          	or	a5,a5,s4
    2c2a:	00b615b3          	sll	a1,a2,a1
    2c2e:	40e90933          	sub	s2,s2,a4
    2c32:	c0d90913          	addi	s2,s2,-1011
    2c36:	4881                	li	a7,0
    2c38:	bde1                	j	2b10 <__muldf3+0x94>
    2c3a:	00a9e433          	or	s0,s3,a0
    2c3e:	ec01                	bnez	s0,2c56 <__muldf3+0x1da>
    2c40:	49a1                	li	s3,8
    2c42:	4481                	li	s1,0
    2c44:	7ff00913          	li	s2,2047
    2c48:	4b89                	li	s7,2
    2c4a:	b559                	j	2ad0 <__muldf3+0x54>
    2c4c:	0019e993          	ori	s3,s3,1
    2c50:	4581                	li	a1,0
    2c52:	4885                	li	a7,1
    2c54:	bd75                	j	2b10 <__muldf3+0x94>
    2c56:	844e                	mv	s0,s3
    2c58:	84aa                	mv	s1,a0
    2c5a:	49b1                	li	s3,12
    2c5c:	7ff00913          	li	s2,2047
    2c60:	4b8d                	li	s7,3
    2c62:	b5bd                	j	2ad0 <__muldf3+0x54>
    2c64:	4991                	li	s3,4
    2c66:	4481                	li	s1,0
    2c68:	4901                	li	s2,0
    2c6a:	4b85                	li	s7,1
    2c6c:	b595                	j	2ad0 <__muldf3+0x54>
    2c6e:	0039e993          	ori	s3,s3,3
    2c72:	87d2                	mv	a5,s4
    2c74:	488d                	li	a7,3
    2c76:	bd69                	j	2b10 <__muldf3+0x94>
    2c78:	4789                	li	a5,2
    2c7a:	8556                	mv	a0,s5
    2c7c:	f0fb97e3          	bne	s7,a5,2b8a <__muldf3+0x10e>
    2c80:	872a                	mv	a4,a0
    2c82:	7ff00793          	li	a5,2047
    2c86:	4401                	li	s0,0
    2c88:	4481                	li	s1,0
    2c8a:	b5f1                	j	2b56 <__muldf3+0xda>
    2c8c:	6ec1                	lui	t4,0x10
    2c8e:	fffe8613          	addi	a2,t4,-1 # ffff <_data_lma+0xc177>
    2c92:	0104d693          	srli	a3,s1,0x10
    2c96:	0105de13          	srli	t3,a1,0x10
    2c9a:	8cf1                	and	s1,s1,a2
    2c9c:	8df1                	and	a1,a1,a2
    2c9e:	02958633          	mul	a2,a1,s1
    2ca2:	02b68333          	mul	t1,a3,a1
    2ca6:	01065893          	srli	a7,a2,0x10
    2caa:	029e0533          	mul	a0,t3,s1
    2cae:	951a                	add	a0,a0,t1
    2cb0:	98aa                	add	a7,a7,a0
    2cb2:	03c682b3          	mul	t0,a3,t3
    2cb6:	0068f363          	bgeu	a7,t1,2cbc <__muldf3+0x240>
    2cba:	92f6                	add	t0,t0,t4
    2cbc:	6fc1                	lui	t6,0x10
    2cbe:	ffff8313          	addi	t1,t6,-1 # ffff <_data_lma+0xc177>
    2cc2:	0067f533          	and	a0,a5,t1
    2cc6:	0107d393          	srli	t2,a5,0x10
    2cca:	0068f7b3          	and	a5,a7,t1
    2cce:	07c2                	slli	a5,a5,0x10
    2cd0:	00667333          	and	t1,a2,t1
    2cd4:	933e                	add	t1,t1,a5
    2cd6:	02950633          	mul	a2,a0,s1
    2cda:	0108d893          	srli	a7,a7,0x10
    2cde:	02a687b3          	mul	a5,a3,a0
    2ce2:	01065f13          	srli	t5,a2,0x10
    2ce6:	029384b3          	mul	s1,t2,s1
    2cea:	94be                	add	s1,s1,a5
    2cec:	94fa                	add	s1,s1,t5
    2cee:	02768eb3          	mul	t4,a3,t2
    2cf2:	00f4f363          	bgeu	s1,a5,2cf8 <__muldf3+0x27c>
    2cf6:	9efe                	add	t4,t4,t6
    2cf8:	6a41                	lui	s4,0x10
    2cfa:	fffa0793          	addi	a5,s4,-1 # ffff <_data_lma+0xc177>
    2cfe:	01045f93          	srli	t6,s0,0x10
    2d02:	00f476b3          	and	a3,s0,a5
    2d06:	00f4f9b3          	and	s3,s1,a5
    2d0a:	8e7d                	and	a2,a2,a5
    2d0c:	80c1                	srli	s1,s1,0x10
    2d0e:	02d58433          	mul	s0,a1,a3
    2d12:	09c2                	slli	s3,s3,0x10
    2d14:	01d48f33          	add	t5,s1,t4
    2d18:	99b2                	add	s3,s3,a2
    2d1a:	98ce                	add	a7,a7,s3
    2d1c:	02de07b3          	mul	a5,t3,a3
    2d20:	01045e93          	srli	t4,s0,0x10
    2d24:	02bf85b3          	mul	a1,t6,a1
    2d28:	97ae                	add	a5,a5,a1
    2d2a:	9ebe                	add	t4,t4,a5
    2d2c:	03fe0e33          	mul	t3,t3,t6
    2d30:	00bef363          	bgeu	t4,a1,2d36 <__muldf3+0x2ba>
    2d34:	9e52                	add	t3,t3,s4
    2d36:	67c1                	lui	a5,0x10
    2d38:	fff78593          	addi	a1,a5,-1 # ffff <_data_lma+0xc177>
    2d3c:	00bef633          	and	a2,t4,a1
    2d40:	8c6d                	and	s0,s0,a1
    2d42:	0642                	slli	a2,a2,0x10
    2d44:	9622                	add	a2,a2,s0
    2d46:	010ede93          	srli	t4,t4,0x10
    2d4a:	02d505b3          	mul	a1,a0,a3
    2d4e:	9e76                	add	t3,t3,t4
    2d50:	02af8533          	mul	a0,t6,a0
    2d54:	0105d413          	srli	s0,a1,0x10
    2d58:	02d386b3          	mul	a3,t2,a3
    2d5c:	96aa                	add	a3,a3,a0
    2d5e:	96a2                	add	a3,a3,s0
    2d60:	03f38fb3          	mul	t6,t2,t6
    2d64:	00a6f363          	bgeu	a3,a0,2d6a <__muldf3+0x2ee>
    2d68:	9fbe                	add	t6,t6,a5
    2d6a:	6541                	lui	a0,0x10
    2d6c:	157d                	addi	a0,a0,-1
    2d6e:	00a6f7b3          	and	a5,a3,a0
    2d72:	07c2                	slli	a5,a5,0x10
    2d74:	8d6d                	and	a0,a0,a1
    2d76:	97aa                	add	a5,a5,a0
    2d78:	005885b3          	add	a1,a7,t0
    2d7c:	0135b9b3          	sltu	s3,a1,s3
    2d80:	97fa                	add	a5,a5,t5
    2d82:	95b2                	add	a1,a1,a2
    2d84:	01378433          	add	s0,a5,s3
    2d88:	00c5b633          	sltu	a2,a1,a2
    2d8c:	01c40eb3          	add	t4,s0,t3
    2d90:	00ce8533          	add	a0,t4,a2
    2d94:	01343433          	sltu	s0,s0,s3
    2d98:	01e7b7b3          	sltu	a5,a5,t5
    2d9c:	8fc1                	or	a5,a5,s0
    2d9e:	01cebe33          	sltu	t3,t4,t3
    2da2:	0106d413          	srli	s0,a3,0x10
    2da6:	00c53633          	sltu	a2,a0,a2
    2daa:	943e                	add	s0,s0,a5
    2dac:	00ce6633          	or	a2,t3,a2
    2db0:	00959493          	slli	s1,a1,0x9
    2db4:	9432                	add	s0,s0,a2
    2db6:	947e                	add	s0,s0,t6
    2db8:	0064e4b3          	or	s1,s1,t1
    2dbc:	0426                	slli	s0,s0,0x9
    2dbe:	01755693          	srli	a3,a0,0x17
    2dc2:	009034b3          	snez	s1,s1
    2dc6:	81dd                	srli	a1,a1,0x17
    2dc8:	00951793          	slli	a5,a0,0x9
    2dcc:	8ccd                	or	s1,s1,a1
    2dce:	8c55                	or	s0,s0,a3
    2dd0:	8cdd                	or	s1,s1,a5
    2dd2:	00741793          	slli	a5,s0,0x7
    2dd6:	0007db63          	bgez	a5,2dec <__muldf3+0x370>
    2dda:	0014d793          	srli	a5,s1,0x1
    2dde:	8885                	andi	s1,s1,1
    2de0:	01f41693          	slli	a3,s0,0x1f
    2de4:	8cdd                	or	s1,s1,a5
    2de6:	8cd5                	or	s1,s1,a3
    2de8:	8005                	srli	s0,s0,0x1
    2dea:	8942                	mv	s2,a6
    2dec:	3ff90793          	addi	a5,s2,1023
    2df0:	08f05963          	blez	a5,2e82 <__muldf3+0x406>
    2df4:	0074f693          	andi	a3,s1,7
    2df8:	ce81                	beqz	a3,2e10 <__muldf3+0x394>
    2dfa:	00f4f693          	andi	a3,s1,15
    2dfe:	4611                	li	a2,4
    2e00:	00c68863          	beq	a3,a2,2e10 <__muldf3+0x394>
    2e04:	00448693          	addi	a3,s1,4
    2e08:	0096b4b3          	sltu	s1,a3,s1
    2e0c:	9426                	add	s0,s0,s1
    2e0e:	84b6                	mv	s1,a3
    2e10:	00741693          	slli	a3,s0,0x7
    2e14:	0006d863          	bgez	a3,2e24 <__muldf3+0x3a8>
    2e18:	ff0007b7          	lui	a5,0xff000
    2e1c:	17fd                	addi	a5,a5,-1
    2e1e:	8c7d                	and	s0,s0,a5
    2e20:	40090793          	addi	a5,s2,1024
    2e24:	7fe00693          	li	a3,2046
    2e28:	0ef6cf63          	blt	a3,a5,2f26 <__muldf3+0x4aa>
    2e2c:	0034d693          	srli	a3,s1,0x3
    2e30:	01d41493          	slli	s1,s0,0x1d
    2e34:	0426                	slli	s0,s0,0x9
    2e36:	8cd5                	or	s1,s1,a3
    2e38:	8031                	srli	s0,s0,0xc
    2e3a:	7ff7f793          	andi	a5,a5,2047
    2e3e:	bb21                	j	2b56 <__muldf3+0xda>
    2e40:	8532                	mv	a0,a2
    2e42:	c432                	sw	a2,8(sp)
    2e44:	587000ef          	jal	ra,3bca <__clzsi2>
    2e48:	01550693          	addi	a3,a0,21 # 10015 <_data_lma+0xc18d>
    2e4c:	47f1                	li	a5,28
    2e4e:	02050713          	addi	a4,a0,32
    2e52:	4622                	lw	a2,8(sp)
    2e54:	dcd7d1e3          	bge	a5,a3,2c16 <__muldf3+0x19a>
    2e58:	1561                	addi	a0,a0,-8
    2e5a:	00a617b3          	sll	a5,a2,a0
    2e5e:	4581                	li	a1,0
    2e60:	b3f9                	j	2c2e <__muldf3+0x1b2>
    2e62:	569000ef          	jal	ra,3bca <__clzsi2>
    2e66:	01550713          	addi	a4,a0,21
    2e6a:	45f1                	li	a1,28
    2e6c:	02050793          	addi	a5,a0,32
    2e70:	4622                	lw	a2,8(sp)
    2e72:	46b2                	lw	a3,12(sp)
    2e74:	d4e5d5e3          	bge	a1,a4,2bbe <__muldf3+0x142>
    2e78:	1561                	addi	a0,a0,-8
    2e7a:	00aa1433          	sll	s0,s4,a0
    2e7e:	4481                	li	s1,0
    2e80:	bb99                	j	2bd6 <__muldf3+0x15a>
    2e82:	4685                	li	a3,1
    2e84:	8e9d                	sub	a3,a3,a5
    2e86:	e7b1                	bnez	a5,2ed2 <__muldf3+0x456>
    2e88:	41e90913          	addi	s2,s2,1054
    2e8c:	012497b3          	sll	a5,s1,s2
    2e90:	00d4d4b3          	srl	s1,s1,a3
    2e94:	01241933          	sll	s2,s0,s2
    2e98:	00f037b3          	snez	a5,a5
    2e9c:	009964b3          	or	s1,s2,s1
    2ea0:	8cdd                	or	s1,s1,a5
    2ea2:	0074f793          	andi	a5,s1,7
    2ea6:	00d456b3          	srl	a3,s0,a3
    2eaa:	cf81                	beqz	a5,2ec2 <__muldf3+0x446>
    2eac:	00f4f793          	andi	a5,s1,15
    2eb0:	4611                	li	a2,4
    2eb2:	00c78863          	beq	a5,a2,2ec2 <__muldf3+0x446>
    2eb6:	00448793          	addi	a5,s1,4
    2eba:	0097b4b3          	sltu	s1,a5,s1
    2ebe:	96a6                	add	a3,a3,s1
    2ec0:	84be                	mv	s1,a5
    2ec2:	00869793          	slli	a5,a3,0x8
    2ec6:	0407d863          	bgez	a5,2f16 <__muldf3+0x49a>
    2eca:	4785                	li	a5,1
    2ecc:	4401                	li	s0,0
    2ece:	4481                	li	s1,0
    2ed0:	b159                	j	2b56 <__muldf3+0xda>
    2ed2:	03800613          	li	a2,56
    2ed6:	ccd641e3          	blt	a2,a3,2b98 <__muldf3+0x11c>
    2eda:	467d                	li	a2,31
    2edc:	fad656e3          	bge	a2,a3,2e88 <__muldf3+0x40c>
    2ee0:	5605                	li	a2,-31
    2ee2:	40f607b3          	sub	a5,a2,a5
    2ee6:	02000593          	li	a1,32
    2eea:	00f45633          	srl	a2,s0,a5
    2eee:	00b68763          	beq	a3,a1,2efc <__muldf3+0x480>
    2ef2:	43e90913          	addi	s2,s2,1086
    2ef6:	012417b3          	sll	a5,s0,s2
    2efa:	8cdd                	or	s1,s1,a5
    2efc:	009034b3          	snez	s1,s1
    2f00:	8cd1                	or	s1,s1,a2
    2f02:	0074f693          	andi	a3,s1,7
    2f06:	4401                	li	s0,0
    2f08:	ca99                	beqz	a3,2f1e <__muldf3+0x4a2>
    2f0a:	00f4f793          	andi	a5,s1,15
    2f0e:	4611                	li	a2,4
    2f10:	4681                	li	a3,0
    2f12:	fac792e3          	bne	a5,a2,2eb6 <__muldf3+0x43a>
    2f16:	00969413          	slli	s0,a3,0x9
    2f1a:	8031                	srli	s0,s0,0xc
    2f1c:	06f6                	slli	a3,a3,0x1d
    2f1e:	808d                	srli	s1,s1,0x3
    2f20:	8cd5                	or	s1,s1,a3
    2f22:	4781                	li	a5,0
    2f24:	b90d                	j	2b56 <__muldf3+0xda>
    2f26:	7ff00793          	li	a5,2047
    2f2a:	4401                	li	s0,0
    2f2c:	4481                	li	s1,0
    2f2e:	b125                	j	2b56 <__muldf3+0xda>
    2f30:	8942                	mv	s2,a6
    2f32:	bd6d                	j	2dec <__muldf3+0x370>

00002f34 <__fixdfsi>:
__fixdfsi():
    2f34:	0145d793          	srli	a5,a1,0x14
    2f38:	001006b7          	lui	a3,0x100
    2f3c:	fff68713          	addi	a4,a3,-1 # fffff <_data_lma+0xfc177>
    2f40:	7ff7f793          	andi	a5,a5,2047
    2f44:	3fe00613          	li	a2,1022
    2f48:	8f6d                	and	a4,a4,a1
    2f4a:	81fd                	srli	a1,a1,0x1f
    2f4c:	00f65c63          	bge	a2,a5,2f64 <__fixdfsi+0x30>
    2f50:	41d00613          	li	a2,1053
    2f54:	00f65a63          	bge	a2,a5,2f68 <__fixdfsi+0x34>
    2f58:	80000537          	lui	a0,0x80000
    2f5c:	fff54513          	not	a0,a0
    2f60:	952e                	add	a0,a0,a1
    2f62:	8082                	ret
    2f64:	4501                	li	a0,0
    2f66:	8082                	ret
    2f68:	43300613          	li	a2,1075
    2f6c:	8e1d                	sub	a2,a2,a5
    2f6e:	487d                	li	a6,31
    2f70:	8f55                	or	a4,a4,a3
    2f72:	00c85d63          	bge	a6,a2,2f8c <__fixdfsi+0x58>
    2f76:	41300693          	li	a3,1043
    2f7a:	40f687b3          	sub	a5,a3,a5
    2f7e:	00f757b3          	srl	a5,a4,a5
    2f82:	40f00533          	neg	a0,a5
    2f86:	f1e5                	bnez	a1,2f66 <__fixdfsi+0x32>
    2f88:	853e                	mv	a0,a5
    2f8a:	8082                	ret
    2f8c:	bed78793          	addi	a5,a5,-1043 # fefffbed <_eusrstack+0xdeffabed>
    2f90:	00f717b3          	sll	a5,a4,a5
    2f94:	00c55533          	srl	a0,a0,a2
    2f98:	8fc9                	or	a5,a5,a0
    2f9a:	b7e5                	j	2f82 <__fixdfsi+0x4e>

00002f9c <__floatsidf>:
__floatsidf():
    2f9c:	1141                	addi	sp,sp,-16
    2f9e:	c606                	sw	ra,12(sp)
    2fa0:	c422                	sw	s0,8(sp)
    2fa2:	c226                	sw	s1,4(sp)
    2fa4:	cd0d                	beqz	a0,2fde <__floatsidf+0x42>
    2fa6:	41f55793          	srai	a5,a0,0x1f
    2faa:	00a7c4b3          	xor	s1,a5,a0
    2fae:	8c9d                	sub	s1,s1,a5
    2fb0:	842a                	mv	s0,a0
    2fb2:	8526                	mv	a0,s1
    2fb4:	417000ef          	jal	ra,3bca <__clzsi2>
    2fb8:	41e00693          	li	a3,1054
    2fbc:	8e89                	sub	a3,a3,a0
    2fbe:	47a9                	li	a5,10
    2fc0:	807d                	srli	s0,s0,0x1f
    2fc2:	7ff6f693          	andi	a3,a3,2047
    2fc6:	02a7cd63          	blt	a5,a0,3000 <__floatsidf+0x64>
    2fca:	472d                	li	a4,11
    2fcc:	8f09                	sub	a4,a4,a0
    2fce:	00e4d7b3          	srl	a5,s1,a4
    2fd2:	0555                	addi	a0,a0,21
    2fd4:	07b2                	slli	a5,a5,0xc
    2fd6:	00a494b3          	sll	s1,s1,a0
    2fda:	83b1                	srli	a5,a5,0xc
    2fdc:	a029                	j	2fe6 <__floatsidf+0x4a>
    2fde:	4401                	li	s0,0
    2fe0:	4681                	li	a3,0
    2fe2:	4781                	li	a5,0
    2fe4:	4481                	li	s1,0
    2fe6:	07b2                	slli	a5,a5,0xc
    2fe8:	06d2                	slli	a3,a3,0x14
    2fea:	83b1                	srli	a5,a5,0xc
    2fec:	047e                	slli	s0,s0,0x1f
    2fee:	8fd5                	or	a5,a5,a3
    2ff0:	8fc1                	or	a5,a5,s0
    2ff2:	40b2                	lw	ra,12(sp)
    2ff4:	4422                	lw	s0,8(sp)
    2ff6:	8526                	mv	a0,s1
    2ff8:	85be                	mv	a1,a5
    2ffa:	4492                	lw	s1,4(sp)
    2ffc:	0141                	addi	sp,sp,16
    2ffe:	8082                	ret
    3000:	1555                	addi	a0,a0,-11
    3002:	00a497b3          	sll	a5,s1,a0
    3006:	07b2                	slli	a5,a5,0xc
    3008:	83b1                	srli	a5,a5,0xc
    300a:	4481                	li	s1,0
    300c:	bfe9                	j	2fe6 <__floatsidf+0x4a>

0000300e <__addsf3>:
__addsf3():
    300e:	1141                	addi	sp,sp,-16
    3010:	00800737          	lui	a4,0x800
    3014:	177d                	addi	a4,a4,-1
    3016:	0175d813          	srli	a6,a1,0x17
    301a:	c226                	sw	s1,4(sp)
    301c:	01755493          	srli	s1,a0,0x17
    3020:	00a77333          	and	t1,a4,a0
    3024:	0ff4f493          	andi	s1,s1,255
    3028:	00b776b3          	and	a3,a4,a1
    302c:	c04a                	sw	s2,0(sp)
    302e:	0ff87813          	andi	a6,a6,255
    3032:	01f55913          	srli	s2,a0,0x1f
    3036:	c606                	sw	ra,12(sp)
    3038:	c422                	sw	s0,8(sp)
    303a:	81fd                	srli	a1,a1,0x1f
    303c:	879a                	mv	a5,t1
    303e:	8526                	mv	a0,s1
    3040:	864a                	mv	a2,s2
    3042:	00331e13          	slli	t3,t1,0x3
    3046:	00369e93          	slli	t4,a3,0x3
    304a:	410488b3          	sub	a7,s1,a6
    304e:	0eb90a63          	beq	s2,a1,3142 <__addsf3+0x134>
    3052:	0d105063          	blez	a7,3112 <__addsf3+0x104>
    3056:	14080463          	beqz	a6,319e <__addsf3+0x190>
    305a:	0ff00793          	li	a5,255
    305e:	14f48b63          	beq	s1,a5,31b4 <__addsf3+0x1a6>
    3062:	040007b7          	lui	a5,0x4000
    3066:	00feeeb3          	or	t4,t4,a5
    306a:	47ed                	li	a5,27
    306c:	2917c163          	blt	a5,a7,32ee <__addsf3+0x2e0>
    3070:	02000793          	li	a5,32
    3074:	411787b3          	sub	a5,a5,a7
    3078:	00fe97b3          	sll	a5,t4,a5
    307c:	011ed8b3          	srl	a7,t4,a7
    3080:	00f037b3          	snez	a5,a5
    3084:	00f8e7b3          	or	a5,a7,a5
    3088:	40fe07b3          	sub	a5,t3,a5
    308c:	00579713          	slli	a4,a5,0x5
    3090:	18075e63          	bgez	a4,322c <__addsf3+0x21e>
    3094:	04000437          	lui	s0,0x4000
    3098:	147d                	addi	s0,s0,-1
    309a:	8c7d                	and	s0,s0,a5
    309c:	8522                	mv	a0,s0
    309e:	32d000ef          	jal	ra,3bca <__clzsi2>
    30a2:	156d                	addi	a0,a0,-5
    30a4:	00a417b3          	sll	a5,s0,a0
    30a8:	1a954863          	blt	a0,s1,3258 <__addsf3+0x24a>
    30ac:	8d05                	sub	a0,a0,s1
    30ae:	00150413          	addi	s0,a0,1 # 80000001 <_eusrstack+0x5fffb001>
    30b2:	02000713          	li	a4,32
    30b6:	8f01                	sub	a4,a4,s0
    30b8:	00e79733          	sll	a4,a5,a4
    30bc:	00e03733          	snez	a4,a4
    30c0:	0087d7b3          	srl	a5,a5,s0
    30c4:	8fd9                	or	a5,a5,a4
    30c6:	4481                	li	s1,0
    30c8:	0077f713          	andi	a4,a5,7
    30cc:	c719                	beqz	a4,30da <__addsf3+0xcc>
    30ce:	00f7f713          	andi	a4,a5,15
    30d2:	4691                	li	a3,4
    30d4:	00d70363          	beq	a4,a3,30da <__addsf3+0xcc>
    30d8:	0791                	addi	a5,a5,4
    30da:	00579713          	slli	a4,a5,0x5
    30de:	14075b63          	bgez	a4,3234 <__addsf3+0x226>
    30e2:	0485                	addi	s1,s1,1
    30e4:	0ff00713          	li	a4,255
    30e8:	864a                	mv	a2,s2
    30ea:	16e48363          	beq	s1,a4,3250 <__addsf3+0x242>
    30ee:	079a                	slli	a5,a5,0x6
    30f0:	83a5                	srli	a5,a5,0x9
    30f2:	0ff4f513          	andi	a0,s1,255
    30f6:	40b2                	lw	ra,12(sp)
    30f8:	4422                	lw	s0,8(sp)
    30fa:	07a6                	slli	a5,a5,0x9
    30fc:	01751493          	slli	s1,a0,0x17
    3100:	0097d513          	srli	a0,a5,0x9
    3104:	8d45                	or	a0,a0,s1
    3106:	067e                	slli	a2,a2,0x1f
    3108:	4492                	lw	s1,4(sp)
    310a:	4902                	lw	s2,0(sp)
    310c:	8d51                	or	a0,a0,a2
    310e:	0141                	addi	sp,sp,16
    3110:	8082                	ret
    3112:	0a089963          	bnez	a7,31c4 <__addsf3+0x1b6>
    3116:	00148713          	addi	a4,s1,1
    311a:	0fe77713          	andi	a4,a4,254
    311e:	14071763          	bnez	a4,326c <__addsf3+0x25e>
    3122:	22049063          	bnez	s1,3342 <__addsf3+0x334>
    3126:	1e0e0d63          	beqz	t3,3320 <__addsf3+0x312>
    312a:	fc0e86e3          	beqz	t4,30f6 <__addsf3+0xe8>
    312e:	41de07b3          	sub	a5,t3,t4
    3132:	00579713          	slli	a4,a5,0x5
    3136:	22075063          	bgez	a4,3356 <__addsf3+0x348>
    313a:	41ce87b3          	sub	a5,t4,t3
    313e:	892e                	mv	s2,a1
    3140:	b761                	j	30c8 <__addsf3+0xba>
    3142:	0b105c63          	blez	a7,31fa <__addsf3+0x1ec>
    3146:	08080e63          	beqz	a6,31e2 <__addsf3+0x1d4>
    314a:	0ff00793          	li	a5,255
    314e:	06f48363          	beq	s1,a5,31b4 <__addsf3+0x1a6>
    3152:	040007b7          	lui	a5,0x4000
    3156:	00feeeb3          	or	t4,t4,a5
    315a:	47ed                	li	a5,27
    315c:	1f17c963          	blt	a5,a7,334e <__addsf3+0x340>
    3160:	02000793          	li	a5,32
    3164:	411787b3          	sub	a5,a5,a7
    3168:	00fe97b3          	sll	a5,t4,a5
    316c:	011ed8b3          	srl	a7,t4,a7
    3170:	00f037b3          	snez	a5,a5
    3174:	00f8e7b3          	or	a5,a7,a5
    3178:	97f2                	add	a5,a5,t3
    317a:	00579713          	slli	a4,a5,0x5
    317e:	0a075763          	bgez	a4,322c <__addsf3+0x21e>
    3182:	0485                	addi	s1,s1,1
    3184:	0ff00713          	li	a4,255
    3188:	0ce48463          	beq	s1,a4,3250 <__addsf3+0x242>
    318c:	7e0006b7          	lui	a3,0x7e000
    3190:	0017d713          	srli	a4,a5,0x1
    3194:	16fd                	addi	a3,a3,-1
    3196:	8b85                	andi	a5,a5,1
    3198:	8f75                	and	a4,a4,a3
    319a:	8fd9                	or	a5,a5,a4
    319c:	b735                	j	30c8 <__addsf3+0xba>
    319e:	080e8d63          	beqz	t4,3238 <__addsf3+0x22a>
    31a2:	18fd                	addi	a7,a7,-1
    31a4:	41de07b3          	sub	a5,t3,t4
    31a8:	ee0882e3          	beqz	a7,308c <__addsf3+0x7e>
    31ac:	0ff00793          	li	a5,255
    31b0:	eaf49de3          	bne	s1,a5,306a <__addsf3+0x5c>
    31b4:	08030d63          	beqz	t1,324e <__addsf3+0x240>
    31b8:	4601                	li	a2,0
    31ba:	0ff00513          	li	a0,255
    31be:	004007b7          	lui	a5,0x400
    31c2:	bf15                	j	30f6 <__addsf3+0xe8>
    31c4:	40980733          	sub	a4,a6,s1
    31c8:	e8ed                	bnez	s1,32ba <__addsf3+0x2ac>
    31ca:	140e0263          	beqz	t3,330e <__addsf3+0x300>
    31ce:	177d                	addi	a4,a4,-1
    31d0:	18070863          	beqz	a4,3360 <__addsf3+0x352>
    31d4:	0ff00793          	li	a5,255
    31d8:	0ef81963          	bne	a6,a5,32ca <__addsf3+0x2bc>
    31dc:	892e                	mv	s2,a1
    31de:	8336                	mv	t1,a3
    31e0:	bfd1                	j	31b4 <__addsf3+0x1a6>
    31e2:	040e8b63          	beqz	t4,3238 <__addsf3+0x22a>
    31e6:	18fd                	addi	a7,a7,-1
    31e8:	01de07b3          	add	a5,t3,t4
    31ec:	f80887e3          	beqz	a7,317a <__addsf3+0x16c>
    31f0:	0ff00793          	li	a5,255
    31f4:	f6f493e3          	bne	s1,a5,315a <__addsf3+0x14c>
    31f8:	bf75                	j	31b4 <__addsf3+0x1a6>
    31fa:	08089563          	bnez	a7,3284 <__addsf3+0x276>
    31fe:	0485                	addi	s1,s1,1
    3200:	0fe4f713          	andi	a4,s1,254
    3204:	12071363          	bnez	a4,332a <__addsf3+0x31c>
    3208:	10051763          	bnez	a0,3316 <__addsf3+0x308>
    320c:	140e0f63          	beqz	t3,336a <__addsf3+0x35c>
    3210:	ee0e83e3          	beqz	t4,30f6 <__addsf3+0xe8>
    3214:	01de07b3          	add	a5,t3,t4
    3218:	00579713          	slli	a4,a5,0x5
    321c:	4481                	li	s1,0
    321e:	00075763          	bgez	a4,322c <__addsf3+0x21e>
    3222:	fc000737          	lui	a4,0xfc000
    3226:	177d                	addi	a4,a4,-1
    3228:	8ff9                	and	a5,a5,a4
    322a:	4485                	li	s1,1
    322c:	0077f713          	andi	a4,a5,7
    3230:	e8071fe3          	bnez	a4,30ce <__addsf3+0xc0>
    3234:	0037d313          	srli	t1,a5,0x3
    3238:	0ff00793          	li	a5,255
    323c:	f6f48ce3          	beq	s1,a5,31b4 <__addsf3+0x1a6>
    3240:	00931793          	slli	a5,t1,0x9
    3244:	83a5                	srli	a5,a5,0x9
    3246:	0ff4f513          	andi	a0,s1,255
    324a:	864a                	mv	a2,s2
    324c:	b56d                	j	30f6 <__addsf3+0xe8>
    324e:	864a                	mv	a2,s2
    3250:	0ff00513          	li	a0,255
    3254:	4781                	li	a5,0
    3256:	b545                	j	30f6 <__addsf3+0xe8>
    3258:	fc000737          	lui	a4,0xfc000
    325c:	177d                	addi	a4,a4,-1
    325e:	8ff9                	and	a5,a5,a4
    3260:	0077f713          	andi	a4,a5,7
    3264:	8c89                	sub	s1,s1,a0
    3266:	e60714e3          	bnez	a4,30ce <__addsf3+0xc0>
    326a:	b7e9                	j	3234 <__addsf3+0x226>
    326c:	41de0433          	sub	s0,t3,t4
    3270:	00541793          	slli	a5,s0,0x5
    3274:	0c07c363          	bltz	a5,333a <__addsf3+0x32c>
    3278:	e20412e3          	bnez	s0,309c <__addsf3+0x8e>
    327c:	4601                	li	a2,0
    327e:	4501                	li	a0,0
    3280:	4781                	li	a5,0
    3282:	bd95                	j	30f6 <__addsf3+0xe8>
    3284:	40980733          	sub	a4,a6,s1
    3288:	c4ad                	beqz	s1,32f2 <__addsf3+0x2e4>
    328a:	0ff00793          	li	a5,255
    328e:	f4f808e3          	beq	a6,a5,31de <__addsf3+0x1d0>
    3292:	040007b7          	lui	a5,0x4000
    3296:	00fe6e33          	or	t3,t3,a5
    329a:	47ed                	li	a5,27
    329c:	0ce7cc63          	blt	a5,a4,3374 <__addsf3+0x366>
    32a0:	02000793          	li	a5,32
    32a4:	8f99                	sub	a5,a5,a4
    32a6:	00fe17b3          	sll	a5,t3,a5
    32aa:	00ee5733          	srl	a4,t3,a4
    32ae:	00f037b3          	snez	a5,a5
    32b2:	8fd9                	or	a5,a5,a4
    32b4:	97f6                	add	a5,a5,t4
    32b6:	84c2                	mv	s1,a6
    32b8:	b5c9                	j	317a <__addsf3+0x16c>
    32ba:	0ff00793          	li	a5,255
    32be:	f0f80fe3          	beq	a6,a5,31dc <__addsf3+0x1ce>
    32c2:	040007b7          	lui	a5,0x4000
    32c6:	00fe6e33          	or	t3,t3,a5
    32ca:	47ed                	li	a5,27
    32cc:	08e7c363          	blt	a5,a4,3352 <__addsf3+0x344>
    32d0:	02000693          	li	a3,32
    32d4:	8e99                	sub	a3,a3,a4
    32d6:	00de16b3          	sll	a3,t3,a3
    32da:	00ee57b3          	srl	a5,t3,a4
    32de:	00d03733          	snez	a4,a3
    32e2:	8fd9                	or	a5,a5,a4
    32e4:	40fe87b3          	sub	a5,t4,a5
    32e8:	84c2                	mv	s1,a6
    32ea:	892e                	mv	s2,a1
    32ec:	b345                	j	308c <__addsf3+0x7e>
    32ee:	4785                	li	a5,1
    32f0:	bb61                	j	3088 <__addsf3+0x7a>
    32f2:	060e0e63          	beqz	t3,336e <__addsf3+0x360>
    32f6:	177d                	addi	a4,a4,-1
    32f8:	01de07b3          	add	a5,t3,t4
    32fc:	84c2                	mv	s1,a6
    32fe:	e6070ee3          	beqz	a4,317a <__addsf3+0x16c>
    3302:	0ff00793          	li	a5,255
    3306:	f8f81ae3          	bne	a6,a5,329a <__addsf3+0x28c>
    330a:	8336                	mv	t1,a3
    330c:	b565                	j	31b4 <__addsf3+0x1a6>
    330e:	8336                	mv	t1,a3
    3310:	84c2                	mv	s1,a6
    3312:	892e                	mv	s2,a1
    3314:	b715                	j	3238 <__addsf3+0x22a>
    3316:	ec0e04e3          	beqz	t3,31de <__addsf3+0x1d0>
    331a:	e80e8de3          	beqz	t4,31b4 <__addsf3+0x1a6>
    331e:	bd69                	j	31b8 <__addsf3+0x1aa>
    3320:	020e8d63          	beqz	t4,335a <__addsf3+0x34c>
    3324:	862e                	mv	a2,a1
    3326:	87b6                	mv	a5,a3
    3328:	b3f9                	j	30f6 <__addsf3+0xe8>
    332a:	0ff00793          	li	a5,255
    332e:	f2f481e3          	beq	s1,a5,3250 <__addsf3+0x242>
    3332:	01de07b3          	add	a5,t3,t4
    3336:	8385                	srli	a5,a5,0x1
    3338:	bdd5                	j	322c <__addsf3+0x21e>
    333a:	41ce8433          	sub	s0,t4,t3
    333e:	892e                	mv	s2,a1
    3340:	bbb1                	j	309c <__addsf3+0x8e>
    3342:	fc0e1ce3          	bnez	t3,331a <__addsf3+0x30c>
    3346:	e60e89e3          	beqz	t4,31b8 <__addsf3+0x1aa>
    334a:	892e                	mv	s2,a1
    334c:	bd49                	j	31de <__addsf3+0x1d0>
    334e:	4785                	li	a5,1
    3350:	b525                	j	3178 <__addsf3+0x16a>
    3352:	4785                	li	a5,1
    3354:	bf41                	j	32e4 <__addsf3+0x2d6>
    3356:	ec079be3          	bnez	a5,322c <__addsf3+0x21e>
    335a:	4601                	li	a2,0
    335c:	4781                	li	a5,0
    335e:	bb61                	j	30f6 <__addsf3+0xe8>
    3360:	41ce87b3          	sub	a5,t4,t3
    3364:	84c2                	mv	s1,a6
    3366:	892e                	mv	s2,a1
    3368:	b315                	j	308c <__addsf3+0x7e>
    336a:	87b6                	mv	a5,a3
    336c:	b369                	j	30f6 <__addsf3+0xe8>
    336e:	8336                	mv	t1,a3
    3370:	84c2                	mv	s1,a6
    3372:	b5d9                	j	3238 <__addsf3+0x22a>
    3374:	4785                	li	a5,1
    3376:	bf3d                	j	32b4 <__addsf3+0x2a6>

00003378 <__gesf2>:
__gtsf2():
    3378:	01755693          	srli	a3,a0,0x17
    337c:	008007b7          	lui	a5,0x800
    3380:	17fd                	addi	a5,a5,-1
    3382:	0175d613          	srli	a2,a1,0x17
    3386:	0ff6f693          	andi	a3,a3,255
    338a:	0ff00813          	li	a6,255
    338e:	00a7f8b3          	and	a7,a5,a0
    3392:	01f55713          	srli	a4,a0,0x1f
    3396:	8fed                	and	a5,a5,a1
    3398:	0ff67613          	andi	a2,a2,255
    339c:	81fd                	srli	a1,a1,0x1f
    339e:	03068163          	beq	a3,a6,33c0 <__gesf2+0x48>
    33a2:	01060c63          	beq	a2,a6,33ba <__gesf2+0x42>
    33a6:	e28d                	bnez	a3,33c8 <__gesf2+0x50>
    33a8:	e211                	bnez	a2,33ac <__gesf2+0x34>
    33aa:	c3b1                	beqz	a5,33ee <__gesf2+0x76>
    33ac:	02088e63          	beqz	a7,33e8 <__gesf2+0x70>
    33b0:	04b70563          	beq	a4,a1,33fa <__gesf2+0x82>
    33b4:	4505                	li	a0,1
    33b6:	e71d                	bnez	a4,33e4 <__gesf2+0x6c>
    33b8:	8082                	ret
    33ba:	d7f5                	beqz	a5,33a6 <__gesf2+0x2e>
    33bc:	5579                	li	a0,-2
    33be:	8082                	ret
    33c0:	fe089ee3          	bnez	a7,33bc <__gesf2+0x44>
    33c4:	02d60963          	beq	a2,a3,33f6 <__gesf2+0x7e>
    33c8:	e211                	bnez	a2,33cc <__gesf2+0x54>
    33ca:	d7ed                	beqz	a5,33b4 <__gesf2+0x3c>
    33cc:	feb714e3          	bne	a4,a1,33b4 <__gesf2+0x3c>
    33d0:	fed642e3          	blt	a2,a3,33b4 <__gesf2+0x3c>
    33d4:	00c6c763          	blt	a3,a2,33e2 <__gesf2+0x6a>
    33d8:	fd17eee3          	bltu	a5,a7,33b4 <__gesf2+0x3c>
    33dc:	4501                	li	a0,0
    33de:	fcf8fde3          	bgeu	a7,a5,33b8 <__gesf2+0x40>
    33e2:	e701                	bnez	a4,33ea <__gesf2+0x72>
    33e4:	557d                	li	a0,-1
    33e6:	8082                	ret
    33e8:	ddf5                	beqz	a1,33e4 <__gesf2+0x6c>
    33ea:	4505                	li	a0,1
    33ec:	8082                	ret
    33ee:	4501                	li	a0,0
    33f0:	fc0892e3          	bnez	a7,33b4 <__gesf2+0x3c>
    33f4:	8082                	ret
    33f6:	dbf9                	beqz	a5,33cc <__gesf2+0x54>
    33f8:	b7d1                	j	33bc <__gesf2+0x44>
    33fa:	4681                	li	a3,0
    33fc:	bfe1                	j	33d4 <__gesf2+0x5c>

000033fe <__lesf2>:
__lesf2():
    33fe:	01755693          	srli	a3,a0,0x17
    3402:	008007b7          	lui	a5,0x800
    3406:	17fd                	addi	a5,a5,-1
    3408:	0175d613          	srli	a2,a1,0x17
    340c:	0ff6f693          	andi	a3,a3,255
    3410:	0ff00813          	li	a6,255
    3414:	00a7f8b3          	and	a7,a5,a0
    3418:	01f55713          	srli	a4,a0,0x1f
    341c:	8fed                	and	a5,a5,a1
    341e:	0ff67613          	andi	a2,a2,255
    3422:	81fd                	srli	a1,a1,0x1f
    3424:	03068763          	beq	a3,a6,3452 <__lesf2+0x54>
    3428:	01060963          	beq	a2,a6,343a <__lesf2+0x3c>
    342c:	ea85                	bnez	a3,345c <__lesf2+0x5e>
    342e:	ea11                	bnez	a2,3442 <__lesf2+0x44>
    3430:	eb89                	bnez	a5,3442 <__lesf2+0x44>
    3432:	4501                	li	a0,0
    3434:	00089b63          	bnez	a7,344a <__lesf2+0x4c>
    3438:	8082                	ret
    343a:	4509                	li	a0,2
    343c:	fff5                	bnez	a5,3438 <__lesf2+0x3a>
    343e:	dae5                	beqz	a3,342e <__lesf2+0x30>
    3440:	a831                	j	345c <__lesf2+0x5e>
    3442:	02088c63          	beqz	a7,347a <__lesf2+0x7c>
    3446:	04b70063          	beq	a4,a1,3486 <__lesf2+0x88>
    344a:	4505                	li	a0,1
    344c:	d775                	beqz	a4,3438 <__lesf2+0x3a>
    344e:	557d                	li	a0,-1
    3450:	8082                	ret
    3452:	4509                	li	a0,2
    3454:	02089863          	bnez	a7,3484 <__lesf2+0x86>
    3458:	02d60463          	beq	a2,a3,3480 <__lesf2+0x82>
    345c:	e211                	bnez	a2,3460 <__lesf2+0x62>
    345e:	d7f5                	beqz	a5,344a <__lesf2+0x4c>
    3460:	feb715e3          	bne	a4,a1,344a <__lesf2+0x4c>
    3464:	fed643e3          	blt	a2,a3,344a <__lesf2+0x4c>
    3468:	00c6c763          	blt	a3,a2,3476 <__lesf2+0x78>
    346c:	fd17efe3          	bltu	a5,a7,344a <__lesf2+0x4c>
    3470:	4501                	li	a0,0
    3472:	fcf8f3e3          	bgeu	a7,a5,3438 <__lesf2+0x3a>
    3476:	e319                	bnez	a4,347c <__lesf2+0x7e>
    3478:	bfd9                	j	344e <__lesf2+0x50>
    347a:	d9f1                	beqz	a1,344e <__lesf2+0x50>
    347c:	4505                	li	a0,1
    347e:	8082                	ret
    3480:	d3e5                	beqz	a5,3460 <__lesf2+0x62>
    3482:	8082                	ret
    3484:	8082                	ret
    3486:	4681                	li	a3,0
    3488:	b7c5                	j	3468 <__lesf2+0x6a>

0000348a <__mulsf3>:
__mulsf3():
    348a:	7179                	addi	sp,sp,-48
    348c:	d422                	sw	s0,40(sp)
    348e:	01755413          	srli	s0,a0,0x17
    3492:	ce4e                	sw	s3,28(sp)
    3494:	cc52                	sw	s4,24(sp)
    3496:	00951993          	slli	s3,a0,0x9
    349a:	d606                	sw	ra,44(sp)
    349c:	d226                	sw	s1,36(sp)
    349e:	d04a                	sw	s2,32(sp)
    34a0:	ca56                	sw	s5,20(sp)
    34a2:	c85a                	sw	s6,16(sp)
    34a4:	0ff47413          	andi	s0,s0,255
    34a8:	0099d993          	srli	s3,s3,0x9
    34ac:	01f55a13          	srli	s4,a0,0x1f
    34b0:	c469                	beqz	s0,357a <__mulsf3+0xf0>
    34b2:	0ff00793          	li	a5,255
    34b6:	0ef40863          	beq	s0,a5,35a6 <__mulsf3+0x11c>
    34ba:	00399793          	slli	a5,s3,0x3
    34be:	04000737          	lui	a4,0x4000
    34c2:	00e7e9b3          	or	s3,a5,a4
    34c6:	f8140413          	addi	s0,s0,-127 # 3ffff81 <_data_lma+0x3ffc0f9>
    34ca:	4481                	li	s1,0
    34cc:	4b01                	li	s6,0
    34ce:	0175d713          	srli	a4,a1,0x17
    34d2:	00959a93          	slli	s5,a1,0x9
    34d6:	0ff77713          	andi	a4,a4,255
    34da:	009ada93          	srli	s5,s5,0x9
    34de:	01f5d913          	srli	s2,a1,0x1f
    34e2:	cf45                	beqz	a4,359a <__mulsf3+0x110>
    34e4:	0ff00793          	li	a5,255
    34e8:	02f70c63          	beq	a4,a5,3520 <__mulsf3+0x96>
    34ec:	0a8e                	slli	s5,s5,0x3
    34ee:	f8170713          	addi	a4,a4,-127 # 3ffff81 <_data_lma+0x3ffc0f9>
    34f2:	040007b7          	lui	a5,0x4000
    34f6:	00faeab3          	or	s5,s5,a5
    34fa:	943a                	add	s0,s0,a4
    34fc:	4601                	li	a2,0
    34fe:	012a4533          	xor	a0,s4,s2
    3502:	47bd                	li	a5,15
    3504:	86aa                	mv	a3,a0
    3506:	00140593          	addi	a1,s0,1
    350a:	1097e063          	bltu	a5,s1,360a <__mulsf3+0x180>
    350e:	00001717          	auipc	a4,0x1
    3512:	83a70713          	addi	a4,a4,-1990 # 3d48 <UARTN+0x88>
    3516:	048a                	slli	s1,s1,0x2
    3518:	94ba                	add	s1,s1,a4
    351a:	409c                	lw	a5,0(s1)
    351c:	97ba                	add	a5,a5,a4
    351e:	8782                	jr	a5
    3520:	0ff40413          	addi	s0,s0,255
    3524:	0c0a9663          	bnez	s5,35f0 <__mulsf3+0x166>
    3528:	0024e493          	ori	s1,s1,2
    352c:	4609                	li	a2,2
    352e:	bfc1                	j	34fe <__mulsf3+0x74>
    3530:	4501                	li	a0,0
    3532:	0ff00713          	li	a4,255
    3536:	004007b7          	lui	a5,0x400
    353a:	50b2                	lw	ra,44(sp)
    353c:	5422                	lw	s0,40(sp)
    353e:	07a6                	slli	a5,a5,0x9
    3540:	075e                	slli	a4,a4,0x17
    3542:	83a5                	srli	a5,a5,0x9
    3544:	057e                	slli	a0,a0,0x1f
    3546:	8fd9                	or	a5,a5,a4
    3548:	5492                	lw	s1,36(sp)
    354a:	5902                	lw	s2,32(sp)
    354c:	49f2                	lw	s3,28(sp)
    354e:	4a62                	lw	s4,24(sp)
    3550:	4ad2                	lw	s5,20(sp)
    3552:	4b42                	lw	s6,16(sp)
    3554:	8d5d                	or	a0,a0,a5
    3556:	6145                	addi	sp,sp,48
    3558:	8082                	ret
    355a:	86ca                	mv	a3,s2
    355c:	89d6                	mv	s3,s5
    355e:	8b32                	mv	s6,a2
    3560:	4789                	li	a5,2
    3562:	08fb0f63          	beq	s6,a5,3600 <__mulsf3+0x176>
    3566:	478d                	li	a5,3
    3568:	fcfb04e3          	beq	s6,a5,3530 <__mulsf3+0xa6>
    356c:	4785                	li	a5,1
    356e:	8536                	mv	a0,a3
    3570:	1afb1063          	bne	s6,a5,3710 <__mulsf3+0x286>
    3574:	4701                	li	a4,0
    3576:	4781                	li	a5,0
    3578:	b7c9                	j	353a <__mulsf3+0xb0>
    357a:	04099d63          	bnez	s3,35d4 <__mulsf3+0x14a>
    357e:	0175d713          	srli	a4,a1,0x17
    3582:	00959a93          	slli	s5,a1,0x9
    3586:	0ff77713          	andi	a4,a4,255
    358a:	4491                	li	s1,4
    358c:	4401                	li	s0,0
    358e:	4b05                	li	s6,1
    3590:	009ada93          	srli	s5,s5,0x9
    3594:	01f5d913          	srli	s2,a1,0x1f
    3598:	f731                	bnez	a4,34e4 <__mulsf3+0x5a>
    359a:	000a9d63          	bnez	s5,35b4 <__mulsf3+0x12a>
    359e:	0014e493          	ori	s1,s1,1
    35a2:	4605                	li	a2,1
    35a4:	bfa9                	j	34fe <__mulsf3+0x74>
    35a6:	02099263          	bnez	s3,35ca <__mulsf3+0x140>
    35aa:	44a1                	li	s1,8
    35ac:	0ff00413          	li	s0,255
    35b0:	4b09                	li	s6,2
    35b2:	bf31                	j	34ce <__mulsf3+0x44>
    35b4:	8556                	mv	a0,s5
    35b6:	2d11                	jal	3bca <__clzsi2>
    35b8:	ffb50793          	addi	a5,a0,-5
    35bc:	8c09                	sub	s0,s0,a0
    35be:	00fa9ab3          	sll	s5,s5,a5
    35c2:	f8a40413          	addi	s0,s0,-118
    35c6:	4601                	li	a2,0
    35c8:	bf1d                	j	34fe <__mulsf3+0x74>
    35ca:	44b1                	li	s1,12
    35cc:	0ff00413          	li	s0,255
    35d0:	4b0d                	li	s6,3
    35d2:	bdf5                	j	34ce <__mulsf3+0x44>
    35d4:	854e                	mv	a0,s3
    35d6:	c62e                	sw	a1,12(sp)
    35d8:	2bcd                	jal	3bca <__clzsi2>
    35da:	ffb50793          	addi	a5,a0,-5
    35de:	f8a00413          	li	s0,-118
    35e2:	00f999b3          	sll	s3,s3,a5
    35e6:	8c09                	sub	s0,s0,a0
    35e8:	4481                	li	s1,0
    35ea:	4b01                	li	s6,0
    35ec:	45b2                	lw	a1,12(sp)
    35ee:	b5c5                	j	34ce <__mulsf3+0x44>
    35f0:	0034e493          	ori	s1,s1,3
    35f4:	460d                	li	a2,3
    35f6:	b721                	j	34fe <__mulsf3+0x74>
    35f8:	4789                	li	a5,2
    35fa:	86d2                	mv	a3,s4
    35fc:	f6fb15e3          	bne	s6,a5,3566 <__mulsf3+0xdc>
    3600:	8536                	mv	a0,a3
    3602:	0ff00713          	li	a4,255
    3606:	4781                	li	a5,0
    3608:	bf0d                	j	353a <__mulsf3+0xb0>
    360a:	6341                	lui	t1,0x10
    360c:	fff30693          	addi	a3,t1,-1 # ffff <_data_lma+0xc177>
    3610:	0109d613          	srli	a2,s3,0x10
    3614:	010ad893          	srli	a7,s5,0x10
    3618:	00d9f7b3          	and	a5,s3,a3
    361c:	00dafab3          	and	s5,s5,a3
    3620:	03578833          	mul	a6,a5,s5
    3624:	02f889b3          	mul	s3,a7,a5
    3628:	01085713          	srli	a4,a6,0x10
    362c:	03560ab3          	mul	s5,a2,s5
    3630:	99d6                	add	s3,s3,s5
    3632:	974e                	add	a4,a4,s3
    3634:	03160633          	mul	a2,a2,a7
    3638:	01577363          	bgeu	a4,s5,363e <__mulsf3+0x1b4>
    363c:	961a                	add	a2,a2,t1
    363e:	67c1                	lui	a5,0x10
    3640:	17fd                	addi	a5,a5,-1
    3642:	00f776b3          	and	a3,a4,a5
    3646:	00f87833          	and	a6,a6,a5
    364a:	06c2                	slli	a3,a3,0x10
    364c:	96c2                	add	a3,a3,a6
    364e:	00669993          	slli	s3,a3,0x6
    3652:	01075793          	srli	a5,a4,0x10
    3656:	013039b3          	snez	s3,s3
    365a:	82e9                	srli	a3,a3,0x1a
    365c:	97b2                	add	a5,a5,a2
    365e:	079a                	slli	a5,a5,0x6
    3660:	00d9e6b3          	or	a3,s3,a3
    3664:	00d7e9b3          	or	s3,a5,a3
    3668:	00499793          	slli	a5,s3,0x4
    366c:	0007d963          	bgez	a5,367e <__mulsf3+0x1f4>
    3670:	0019d713          	srli	a4,s3,0x1
    3674:	0019f793          	andi	a5,s3,1
    3678:	00f769b3          	or	s3,a4,a5
    367c:	842e                	mv	s0,a1
    367e:	07f40713          	addi	a4,s0,127
    3682:	04e05063          	blez	a4,36c2 <__mulsf3+0x238>
    3686:	0079f793          	andi	a5,s3,7
    368a:	c799                	beqz	a5,3698 <__mulsf3+0x20e>
    368c:	00f9f793          	andi	a5,s3,15
    3690:	4691                	li	a3,4
    3692:	00d78363          	beq	a5,a3,3698 <__mulsf3+0x20e>
    3696:	0991                	addi	s3,s3,4
    3698:	00499793          	slli	a5,s3,0x4
    369c:	0007d963          	bgez	a5,36ae <__mulsf3+0x224>
    36a0:	f80007b7          	lui	a5,0xf8000
    36a4:	17fd                	addi	a5,a5,-1
    36a6:	00f9f9b3          	and	s3,s3,a5
    36aa:	08040713          	addi	a4,s0,128
    36ae:	0fe00793          	li	a5,254
    36b2:	04e7cb63          	blt	a5,a4,3708 <__mulsf3+0x27e>
    36b6:	00699793          	slli	a5,s3,0x6
    36ba:	83a5                	srli	a5,a5,0x9
    36bc:	0ff77713          	andi	a4,a4,255
    36c0:	bdad                	j	353a <__mulsf3+0xb0>
    36c2:	4785                	li	a5,1
    36c4:	40e786b3          	sub	a3,a5,a4
    36c8:	c711                	beqz	a4,36d4 <__mulsf3+0x24a>
    36ca:	466d                	li	a2,27
    36cc:	4701                	li	a4,0
    36ce:	4781                	li	a5,0
    36d0:	e6d645e3          	blt	a2,a3,353a <__mulsf3+0xb0>
    36d4:	09e40713          	addi	a4,s0,158
    36d8:	00e99733          	sll	a4,s3,a4
    36dc:	00e03733          	snez	a4,a4
    36e0:	00d9d7b3          	srl	a5,s3,a3
    36e4:	8fd9                	or	a5,a5,a4
    36e6:	0077f713          	andi	a4,a5,7
    36ea:	c719                	beqz	a4,36f8 <__mulsf3+0x26e>
    36ec:	00f7f713          	andi	a4,a5,15
    36f0:	4691                	li	a3,4
    36f2:	00d70363          	beq	a4,a3,36f8 <__mulsf3+0x26e>
    36f6:	0791                	addi	a5,a5,4
    36f8:	00579713          	slli	a4,a5,0x5
    36fc:	00074c63          	bltz	a4,3714 <__mulsf3+0x28a>
    3700:	079a                	slli	a5,a5,0x6
    3702:	83a5                	srli	a5,a5,0x9
    3704:	4701                	li	a4,0
    3706:	bd15                	j	353a <__mulsf3+0xb0>
    3708:	0ff00713          	li	a4,255
    370c:	4781                	li	a5,0
    370e:	b535                	j	353a <__mulsf3+0xb0>
    3710:	842e                	mv	s0,a1
    3712:	b7b5                	j	367e <__mulsf3+0x1f4>
    3714:	4705                	li	a4,1
    3716:	4781                	li	a5,0
    3718:	b50d                	j	353a <__mulsf3+0xb0>

0000371a <__subsf3>:
__subsf3():
    371a:	00800737          	lui	a4,0x800
    371e:	1141                	addi	sp,sp,-16
    3720:	177d                	addi	a4,a4,-1
    3722:	01755693          	srli	a3,a0,0x17
    3726:	0175d813          	srli	a6,a1,0x17
    372a:	00a777b3          	and	a5,a4,a0
    372e:	0ff6f693          	andi	a3,a3,255
    3732:	01f55e93          	srli	t4,a0,0x1f
    3736:	00b77633          	and	a2,a4,a1
    373a:	c226                	sw	s1,4(sp)
    373c:	c04a                	sw	s2,0(sp)
    373e:	0ff87813          	andi	a6,a6,255
    3742:	c606                	sw	ra,12(sp)
    3744:	c422                	sw	s0,8(sp)
    3746:	0ff00313          	li	t1,255
    374a:	8e3e                	mv	t3,a5
    374c:	8936                	mv	s2,a3
    374e:	84f6                	mv	s1,t4
    3750:	00379f13          	slli	t5,a5,0x3
    3754:	81fd                	srli	a1,a1,0x1f
    3756:	00361513          	slli	a0,a2,0x3
    375a:	410688b3          	sub	a7,a3,a6
    375e:	10680263          	beq	a6,t1,3862 <__subsf3+0x148>
    3762:	0015c593          	xori	a1,a1,1
    3766:	10be8c63          	beq	t4,a1,387e <__subsf3+0x164>
    376a:	0d105463          	blez	a7,3832 <__subsf3+0x118>
    376e:	10081063          	bnez	a6,386e <__subsf3+0x154>
    3772:	1e050463          	beqz	a0,395a <__subsf3+0x240>
    3776:	18fd                	addi	a7,a7,-1
    3778:	40af07b3          	sub	a5,t5,a0
    377c:	02088663          	beqz	a7,37a8 <__subsf3+0x8e>
    3780:	0ff00793          	li	a5,255
    3784:	16f68863          	beq	a3,a5,38f4 <__subsf3+0x1da>
    3788:	47ed                	li	a5,27
    378a:	2917c763          	blt	a5,a7,3a18 <__subsf3+0x2fe>
    378e:	02000713          	li	a4,32
    3792:	41170733          	sub	a4,a4,a7
    3796:	00e51733          	sll	a4,a0,a4
    379a:	011557b3          	srl	a5,a0,a7
    379e:	00e03733          	snez	a4,a4
    37a2:	8fd9                	or	a5,a5,a4
    37a4:	40ff07b3          	sub	a5,t5,a5
    37a8:	00579713          	slli	a4,a5,0x5
    37ac:	1a075163          	bgez	a4,394e <__subsf3+0x234>
    37b0:	04000437          	lui	s0,0x4000
    37b4:	147d                	addi	s0,s0,-1
    37b6:	8c7d                	and	s0,s0,a5
    37b8:	8522                	mv	a0,s0
    37ba:	2901                	jal	3bca <__clzsi2>
    37bc:	156d                	addi	a0,a0,-5
    37be:	00a417b3          	sll	a5,s0,a0
    37c2:	1b254e63          	blt	a0,s2,397e <__subsf3+0x264>
    37c6:	41250533          	sub	a0,a0,s2
    37ca:	00150413          	addi	s0,a0,1
    37ce:	02000713          	li	a4,32
    37d2:	8f01                	sub	a4,a4,s0
    37d4:	00e79733          	sll	a4,a5,a4
    37d8:	00e03733          	snez	a4,a4
    37dc:	0087d7b3          	srl	a5,a5,s0
    37e0:	8fd9                	or	a5,a5,a4
    37e2:	4901                	li	s2,0
    37e4:	0077f713          	andi	a4,a5,7
    37e8:	c719                	beqz	a4,37f6 <__subsf3+0xdc>
    37ea:	00f7f713          	andi	a4,a5,15
    37ee:	4691                	li	a3,4
    37f0:	00d70363          	beq	a4,a3,37f6 <__subsf3+0xdc>
    37f4:	0791                	addi	a5,a5,4
    37f6:	00579713          	slli	a4,a5,0x5
    37fa:	14075e63          	bgez	a4,3956 <__subsf3+0x23c>
    37fe:	00190693          	addi	a3,s2,1
    3802:	0ff00713          	li	a4,255
    3806:	0014fe93          	andi	t4,s1,1
    380a:	16e68663          	beq	a3,a4,3976 <__subsf3+0x25c>
    380e:	079a                	slli	a5,a5,0x6
    3810:	83a5                	srli	a5,a5,0x9
    3812:	0ff6f693          	andi	a3,a3,255
    3816:	07a6                	slli	a5,a5,0x9
    3818:	40b2                	lw	ra,12(sp)
    381a:	4422                	lw	s0,8(sp)
    381c:	0097d513          	srli	a0,a5,0x9
    3820:	06de                	slli	a3,a3,0x17
    3822:	01fe9793          	slli	a5,t4,0x1f
    3826:	8d55                	or	a0,a0,a3
    3828:	4492                	lw	s1,4(sp)
    382a:	4902                	lw	s2,0(sp)
    382c:	8d5d                	or	a0,a0,a5
    382e:	0141                	addi	sp,sp,16
    3830:	8082                	ret
    3832:	0a089263          	bnez	a7,38d6 <__subsf3+0x1bc>
    3836:	00168713          	addi	a4,a3,1 # 7e000001 <_eusrstack+0x5dffb001>
    383a:	0fe77713          	andi	a4,a4,254
    383e:	14071b63          	bnez	a4,3994 <__subsf3+0x27a>
    3842:	22069463          	bnez	a3,3a6a <__subsf3+0x350>
    3846:	200f0263          	beqz	t5,3a4a <__subsf3+0x330>
    384a:	d571                	beqz	a0,3816 <__subsf3+0xfc>
    384c:	40af07b3          	sub	a5,t5,a0
    3850:	00579713          	slli	a4,a5,0x5
    3854:	22075563          	bgez	a4,3a7e <__subsf3+0x364>
    3858:	41e507b3          	sub	a5,a0,t5
    385c:	4901                	li	s2,0
    385e:	84ae                	mv	s1,a1
    3860:	b751                	j	37e4 <__subsf3+0xca>
    3862:	f00500e3          	beqz	a0,3762 <__subsf3+0x48>
    3866:	0abe8a63          	beq	t4,a1,391a <__subsf3+0x200>
    386a:	fd1054e3          	blez	a7,3832 <__subsf3+0x118>
    386e:	0ff00793          	li	a5,255
    3872:	08f68163          	beq	a3,a5,38f4 <__subsf3+0x1da>
    3876:	040007b7          	lui	a5,0x4000
    387a:	8d5d                	or	a0,a0,a5
    387c:	b731                	j	3788 <__subsf3+0x6e>
    387e:	09105e63          	blez	a7,391a <__subsf3+0x200>
    3882:	08080163          	beqz	a6,3904 <__subsf3+0x1ea>
    3886:	0ff00793          	li	a5,255
    388a:	06f68563          	beq	a3,a5,38f4 <__subsf3+0x1da>
    388e:	040007b7          	lui	a5,0x4000
    3892:	8d5d                	or	a0,a0,a5
    3894:	47ed                	li	a5,27
    3896:	1f17c063          	blt	a5,a7,3a76 <__subsf3+0x35c>
    389a:	02000713          	li	a4,32
    389e:	41170733          	sub	a4,a4,a7
    38a2:	00e51733          	sll	a4,a0,a4
    38a6:	011557b3          	srl	a5,a0,a7
    38aa:	00e03733          	snez	a4,a4
    38ae:	8fd9                	or	a5,a5,a4
    38b0:	97fa                	add	a5,a5,t5
    38b2:	00579713          	slli	a4,a5,0x5
    38b6:	08075c63          	bgez	a4,394e <__subsf3+0x234>
    38ba:	0905                	addi	s2,s2,1
    38bc:	0ff00713          	li	a4,255
    38c0:	0ae90b63          	beq	s2,a4,3976 <__subsf3+0x25c>
    38c4:	7e0006b7          	lui	a3,0x7e000
    38c8:	0017d713          	srli	a4,a5,0x1
    38cc:	16fd                	addi	a3,a3,-1
    38ce:	8b85                	andi	a5,a5,1
    38d0:	8f75                	and	a4,a4,a3
    38d2:	8fd9                	or	a5,a5,a4
    38d4:	bf01                	j	37e4 <__subsf3+0xca>
    38d6:	40d80733          	sub	a4,a6,a3
    38da:	10069563          	bnez	a3,39e4 <__subsf3+0x2ca>
    38de:	140f0d63          	beqz	t5,3a38 <__subsf3+0x31e>
    38e2:	177d                	addi	a4,a4,-1
    38e4:	1a070363          	beqz	a4,3a8a <__subsf3+0x370>
    38e8:	0ff00793          	li	a5,255
    38ec:	10f81463          	bne	a6,a5,39f4 <__subsf3+0x2da>
    38f0:	84ae                	mv	s1,a1
    38f2:	8e32                	mv	t3,a2
    38f4:	060e0f63          	beqz	t3,3972 <__subsf3+0x258>
    38f8:	4e81                	li	t4,0
    38fa:	0ff00693          	li	a3,255
    38fe:	004007b7          	lui	a5,0x400
    3902:	bf11                	j	3816 <__subsf3+0xfc>
    3904:	c939                	beqz	a0,395a <__subsf3+0x240>
    3906:	18fd                	addi	a7,a7,-1
    3908:	00af07b3          	add	a5,t5,a0
    390c:	fa0883e3          	beqz	a7,38b2 <__subsf3+0x198>
    3910:	0ff00793          	li	a5,255
    3914:	f8f690e3          	bne	a3,a5,3894 <__subsf3+0x17a>
    3918:	bff1                	j	38f4 <__subsf3+0x1da>
    391a:	08089963          	bnez	a7,39ac <__subsf3+0x292>
    391e:	00168913          	addi	s2,a3,1 # 7e000001 <_eusrstack+0x5dffb001>
    3922:	0fe97713          	andi	a4,s2,254
    3926:	12071663          	bnez	a4,3a52 <__subsf3+0x338>
    392a:	10069b63          	bnez	a3,3a40 <__subsf3+0x326>
    392e:	160f0363          	beqz	t5,3a94 <__subsf3+0x37a>
    3932:	ee0502e3          	beqz	a0,3816 <__subsf3+0xfc>
    3936:	00af07b3          	add	a5,t5,a0
    393a:	00579713          	slli	a4,a5,0x5
    393e:	4901                	li	s2,0
    3940:	00075763          	bgez	a4,394e <__subsf3+0x234>
    3944:	fc000737          	lui	a4,0xfc000
    3948:	177d                	addi	a4,a4,-1
    394a:	8ff9                	and	a5,a5,a4
    394c:	4905                	li	s2,1
    394e:	0077f713          	andi	a4,a5,7
    3952:	e8071ce3          	bnez	a4,37ea <__subsf3+0xd0>
    3956:	0037de13          	srli	t3,a5,0x3
    395a:	0ff00793          	li	a5,255
    395e:	f8f90be3          	beq	s2,a5,38f4 <__subsf3+0x1da>
    3962:	009e1793          	slli	a5,t3,0x9
    3966:	83a5                	srli	a5,a5,0x9
    3968:	0ff97693          	andi	a3,s2,255
    396c:	0014fe93          	andi	t4,s1,1
    3970:	b55d                	j	3816 <__subsf3+0xfc>
    3972:	0014fe93          	andi	t4,s1,1
    3976:	0ff00693          	li	a3,255
    397a:	4781                	li	a5,0
    397c:	bd69                	j	3816 <__subsf3+0xfc>
    397e:	fc000737          	lui	a4,0xfc000
    3982:	177d                	addi	a4,a4,-1
    3984:	8ff9                	and	a5,a5,a4
    3986:	0077f713          	andi	a4,a5,7
    398a:	40a90933          	sub	s2,s2,a0
    398e:	e4071ee3          	bnez	a4,37ea <__subsf3+0xd0>
    3992:	b7d1                	j	3956 <__subsf3+0x23c>
    3994:	40af0433          	sub	s0,t5,a0
    3998:	00541793          	slli	a5,s0,0x5
    399c:	0c07c363          	bltz	a5,3a62 <__subsf3+0x348>
    39a0:	e0041ce3          	bnez	s0,37b8 <__subsf3+0x9e>
    39a4:	4e81                	li	t4,0
    39a6:	4681                	li	a3,0
    39a8:	4781                	li	a5,0
    39aa:	b5b5                	j	3816 <__subsf3+0xfc>
    39ac:	40d80733          	sub	a4,a6,a3
    39b0:	c6b5                	beqz	a3,3a1c <__subsf3+0x302>
    39b2:	0ff00793          	li	a5,255
    39b6:	f2f80ee3          	beq	a6,a5,38f2 <__subsf3+0x1d8>
    39ba:	040007b7          	lui	a5,0x4000
    39be:	00ff6f33          	or	t5,t5,a5
    39c2:	47ed                	li	a5,27
    39c4:	0ce7cd63          	blt	a5,a4,3a9e <__subsf3+0x384>
    39c8:	02000793          	li	a5,32
    39cc:	8f99                	sub	a5,a5,a4
    39ce:	00ff17b3          	sll	a5,t5,a5
    39d2:	00ef5733          	srl	a4,t5,a4
    39d6:	00f037b3          	snez	a5,a5
    39da:	8f5d                	or	a4,a4,a5
    39dc:	00a707b3          	add	a5,a4,a0
    39e0:	8942                	mv	s2,a6
    39e2:	bdc1                	j	38b2 <__subsf3+0x198>
    39e4:	0ff00793          	li	a5,255
    39e8:	f0f804e3          	beq	a6,a5,38f0 <__subsf3+0x1d6>
    39ec:	040007b7          	lui	a5,0x4000
    39f0:	00ff6f33          	or	t5,t5,a5
    39f4:	47ed                	li	a5,27
    39f6:	08e7c263          	blt	a5,a4,3a7a <__subsf3+0x360>
    39fa:	02000793          	li	a5,32
    39fe:	8f99                	sub	a5,a5,a4
    3a00:	00ff17b3          	sll	a5,t5,a5
    3a04:	00ef5733          	srl	a4,t5,a4
    3a08:	00f037b3          	snez	a5,a5
    3a0c:	8fd9                	or	a5,a5,a4
    3a0e:	40f507b3          	sub	a5,a0,a5
    3a12:	8942                	mv	s2,a6
    3a14:	84ae                	mv	s1,a1
    3a16:	bb49                	j	37a8 <__subsf3+0x8e>
    3a18:	4785                	li	a5,1
    3a1a:	b369                	j	37a4 <__subsf3+0x8a>
    3a1c:	060f0e63          	beqz	t5,3a98 <__subsf3+0x37e>
    3a20:	177d                	addi	a4,a4,-1
    3a22:	00af07b3          	add	a5,t5,a0
    3a26:	8942                	mv	s2,a6
    3a28:	e80705e3          	beqz	a4,38b2 <__subsf3+0x198>
    3a2c:	0ff00793          	li	a5,255
    3a30:	f8f819e3          	bne	a6,a5,39c2 <__subsf3+0x2a8>
    3a34:	8e32                	mv	t3,a2
    3a36:	bd7d                	j	38f4 <__subsf3+0x1da>
    3a38:	8e32                	mv	t3,a2
    3a3a:	8942                	mv	s2,a6
    3a3c:	84ae                	mv	s1,a1
    3a3e:	bf31                	j	395a <__subsf3+0x240>
    3a40:	ea0f09e3          	beqz	t5,38f2 <__subsf3+0x1d8>
    3a44:	ea0508e3          	beqz	a0,38f4 <__subsf3+0x1da>
    3a48:	bd45                	j	38f8 <__subsf3+0x1de>
    3a4a:	cd0d                	beqz	a0,3a84 <__subsf3+0x36a>
    3a4c:	8eae                	mv	t4,a1
    3a4e:	87b2                	mv	a5,a2
    3a50:	b3d9                	j	3816 <__subsf3+0xfc>
    3a52:	0ff00793          	li	a5,255
    3a56:	f2f900e3          	beq	s2,a5,3976 <__subsf3+0x25c>
    3a5a:	00af07b3          	add	a5,t5,a0
    3a5e:	8385                	srli	a5,a5,0x1
    3a60:	b5fd                	j	394e <__subsf3+0x234>
    3a62:	41e50433          	sub	s0,a0,t5
    3a66:	84ae                	mv	s1,a1
    3a68:	bb81                	j	37b8 <__subsf3+0x9e>
    3a6a:	fc0f1de3          	bnez	t5,3a44 <__subsf3+0x32a>
    3a6e:	e80505e3          	beqz	a0,38f8 <__subsf3+0x1de>
    3a72:	84ae                	mv	s1,a1
    3a74:	bdbd                	j	38f2 <__subsf3+0x1d8>
    3a76:	4785                	li	a5,1
    3a78:	bd25                	j	38b0 <__subsf3+0x196>
    3a7a:	4785                	li	a5,1
    3a7c:	bf49                	j	3a0e <__subsf3+0x2f4>
    3a7e:	4901                	li	s2,0
    3a80:	ec0797e3          	bnez	a5,394e <__subsf3+0x234>
    3a84:	4e81                	li	t4,0
    3a86:	4781                	li	a5,0
    3a88:	b379                	j	3816 <__subsf3+0xfc>
    3a8a:	41e507b3          	sub	a5,a0,t5
    3a8e:	8942                	mv	s2,a6
    3a90:	84ae                	mv	s1,a1
    3a92:	bb19                	j	37a8 <__subsf3+0x8e>
    3a94:	87b2                	mv	a5,a2
    3a96:	b341                	j	3816 <__subsf3+0xfc>
    3a98:	8e32                	mv	t3,a2
    3a9a:	8942                	mv	s2,a6
    3a9c:	bd7d                	j	395a <__subsf3+0x240>
    3a9e:	4705                	li	a4,1
    3aa0:	bf35                	j	39dc <__subsf3+0x2c2>

00003aa2 <__fixsfsi>:
__fixsfsi():
    3aa2:	00800637          	lui	a2,0x800
    3aa6:	01755713          	srli	a4,a0,0x17
    3aaa:	fff60793          	addi	a5,a2,-1 # 7fffff <_data_lma+0x7fc177>
    3aae:	0ff77713          	andi	a4,a4,255
    3ab2:	07e00593          	li	a1,126
    3ab6:	00a7f6b3          	and	a3,a5,a0
    3aba:	01f55793          	srli	a5,a0,0x1f
    3abe:	00e5fc63          	bgeu	a1,a4,3ad6 <__fixsfsi+0x34>
    3ac2:	09d00593          	li	a1,157
    3ac6:	00e5fa63          	bgeu	a1,a4,3ada <__fixsfsi+0x38>
    3aca:	80000537          	lui	a0,0x80000
    3ace:	fff54513          	not	a0,a0
    3ad2:	953e                	add	a0,a0,a5
    3ad4:	8082                	ret
    3ad6:	4501                	li	a0,0
    3ad8:	8082                	ret
    3ada:	09500593          	li	a1,149
    3ade:	8ed1                	or	a3,a3,a2
    3ae0:	00e5cd63          	blt	a1,a4,3afa <__fixsfsi+0x58>
    3ae4:	09600613          	li	a2,150
    3ae8:	40e60733          	sub	a4,a2,a4
    3aec:	00e6d733          	srl	a4,a3,a4
    3af0:	40e00533          	neg	a0,a4
    3af4:	f3f5                	bnez	a5,3ad8 <__fixsfsi+0x36>
    3af6:	853a                	mv	a0,a4
    3af8:	8082                	ret
    3afa:	f6a70713          	addi	a4,a4,-150 # fbffff6a <_eusrstack+0xdbffaf6a>
    3afe:	00e69733          	sll	a4,a3,a4
    3b02:	b7fd                	j	3af0 <__fixsfsi+0x4e>

00003b04 <__floatsisf>:
__floatsisf():
    3b04:	1141                	addi	sp,sp,-16
    3b06:	c606                	sw	ra,12(sp)
    3b08:	c422                	sw	s0,8(sp)
    3b0a:	c226                	sw	s1,4(sp)
    3b0c:	cd0d                	beqz	a0,3b46 <__floatsisf+0x42>
    3b0e:	41f55793          	srai	a5,a0,0x1f
    3b12:	00a7c433          	xor	s0,a5,a0
    3b16:	8c1d                	sub	s0,s0,a5
    3b18:	84aa                	mv	s1,a0
    3b1a:	8522                	mv	a0,s0
    3b1c:	207d                	jal	3bca <__clzsi2>
    3b1e:	09e00793          	li	a5,158
    3b22:	40a78733          	sub	a4,a5,a0
    3b26:	09600793          	li	a5,150
    3b2a:	80fd                	srli	s1,s1,0x1f
    3b2c:	02e7cc63          	blt	a5,a4,3b64 <__floatsisf+0x60>
    3b30:	46a1                	li	a3,8
    3b32:	0ff77793          	andi	a5,a4,255
    3b36:	00a6d563          	bge	a3,a0,3b40 <__floatsisf+0x3c>
    3b3a:	1561                	addi	a0,a0,-8
    3b3c:	00a41433          	sll	s0,s0,a0
    3b40:	0426                	slli	s0,s0,0x9
    3b42:	8025                	srli	s0,s0,0x9
    3b44:	a021                	j	3b4c <__floatsisf+0x48>
    3b46:	4481                	li	s1,0
    3b48:	4781                	li	a5,0
    3b4a:	4401                	li	s0,0
    3b4c:	0426                	slli	s0,s0,0x9
    3b4e:	00945513          	srli	a0,s0,0x9
    3b52:	40b2                	lw	ra,12(sp)
    3b54:	4422                	lw	s0,8(sp)
    3b56:	07de                	slli	a5,a5,0x17
    3b58:	04fe                	slli	s1,s1,0x1f
    3b5a:	8d5d                	or	a0,a0,a5
    3b5c:	8d45                	or	a0,a0,s1
    3b5e:	4492                	lw	s1,4(sp)
    3b60:	0141                	addi	sp,sp,16
    3b62:	8082                	ret
    3b64:	09900793          	li	a5,153
    3b68:	00e7dd63          	bge	a5,a4,3b82 <__floatsisf+0x7e>
    3b6c:	01b50793          	addi	a5,a0,27 # 8000001b <_eusrstack+0x5fffb01b>
    3b70:	4695                	li	a3,5
    3b72:	00f417b3          	sll	a5,s0,a5
    3b76:	8e89                	sub	a3,a3,a0
    3b78:	00d45433          	srl	s0,s0,a3
    3b7c:	00f037b3          	snez	a5,a5
    3b80:	8c5d                	or	s0,s0,a5
    3b82:	4795                	li	a5,5
    3b84:	00a7d663          	bge	a5,a0,3b90 <__floatsisf+0x8c>
    3b88:	ffb50793          	addi	a5,a0,-5
    3b8c:	00f41433          	sll	s0,s0,a5
    3b90:	fc0006b7          	lui	a3,0xfc000
    3b94:	16fd                	addi	a3,a3,-1
    3b96:	00747793          	andi	a5,s0,7
    3b9a:	00d47633          	and	a2,s0,a3
    3b9e:	c385                	beqz	a5,3bbe <__floatsisf+0xba>
    3ba0:	00f47793          	andi	a5,s0,15
    3ba4:	4591                	li	a1,4
    3ba6:	00b78c63          	beq	a5,a1,3bbe <__floatsisf+0xba>
    3baa:	0611                	addi	a2,a2,4
    3bac:	00561793          	slli	a5,a2,0x5
    3bb0:	0007d763          	bgez	a5,3bbe <__floatsisf+0xba>
    3bb4:	09f00793          	li	a5,159
    3bb8:	8e75                	and	a2,a2,a3
    3bba:	40a78733          	sub	a4,a5,a0
    3bbe:	00661413          	slli	s0,a2,0x6
    3bc2:	8025                	srli	s0,s0,0x9
    3bc4:	0ff77793          	andi	a5,a4,255
    3bc8:	b751                	j	3b4c <__floatsisf+0x48>

00003bca <__clzsi2>:
__clzsi2():
    3bca:	67c1                	lui	a5,0x10
    3bcc:	02f57e63          	bgeu	a0,a5,3c08 <__clzsi2+0x3e>
    3bd0:	0ff00793          	li	a5,255
    3bd4:	02000713          	li	a4,32
    3bd8:	00a7ec63          	bltu	a5,a0,3bf0 <__clzsi2+0x26>
    3bdc:	00000797          	auipc	a5,0x0
    3be0:	1ac78793          	addi	a5,a5,428 # 3d88 <__clz_tab>
    3be4:	97aa                	add	a5,a5,a0
    3be6:	0007c503          	lbu	a0,0(a5)
    3bea:	40a70533          	sub	a0,a4,a0
    3bee:	8082                	ret
    3bf0:	8121                	srli	a0,a0,0x8
    3bf2:	00000797          	auipc	a5,0x0
    3bf6:	19678793          	addi	a5,a5,406 # 3d88 <__clz_tab>
    3bfa:	97aa                	add	a5,a5,a0
    3bfc:	0007c503          	lbu	a0,0(a5)
    3c00:	4761                	li	a4,24
    3c02:	40a70533          	sub	a0,a4,a0
    3c06:	8082                	ret
    3c08:	010007b7          	lui	a5,0x1000
    3c0c:	00f56e63          	bltu	a0,a5,3c28 <__clzsi2+0x5e>
    3c10:	8161                	srli	a0,a0,0x18
    3c12:	00000797          	auipc	a5,0x0
    3c16:	17678793          	addi	a5,a5,374 # 3d88 <__clz_tab>
    3c1a:	97aa                	add	a5,a5,a0
    3c1c:	0007c503          	lbu	a0,0(a5)
    3c20:	4721                	li	a4,8
    3c22:	40a70533          	sub	a0,a4,a0
    3c26:	8082                	ret
    3c28:	8141                	srli	a0,a0,0x10
    3c2a:	00000797          	auipc	a5,0x0
    3c2e:	15e78793          	addi	a5,a5,350 # 3d88 <__clz_tab>
    3c32:	97aa                	add	a5,a5,a0
    3c34:	0007c503          	lbu	a0,0(a5)
    3c38:	4741                	li	a4,16
    3c3a:	40a70533          	sub	a0,a4,a0
    3c3e:	8082                	ret
    3c40:	05a8                	addi	a0,sp,712
    3c42:	0000                	unimp
    3c44:	05e0                	addi	s0,sp,716
    3c46:	0000                	unimp
    3c48:	0610                	addi	a2,sp,768
    3c4a:	0000                	unimp
    3c4c:	0620                	addi	s0,sp,776
    3c4e:	0000                	unimp
    3c50:	0630                	addi	a2,sp,776
    3c52:	0000                	unimp
    3c54:	0640                	addi	s0,sp,772
    3c56:	0000                	unimp
    3c58:	0650                	addi	a2,sp,772
    3c5a:	0000                	unimp
    3c5c:	0650                	addi	a2,sp,772
    3c5e:	0000                	unimp
    3c60:	0650                	addi	a2,sp,772
    3c62:	0000                	unimp
    3c64:	0650                	addi	a2,sp,772
    3c66:	0000                	unimp
    3c68:	065a                	slli	a2,a2,0x16
    3c6a:	0000                	unimp
    3c6c:	06aa                	slli	a3,a3,0xa
    3c6e:	0000                	unimp
    3c70:	07da                	slli	a5,a5,0x16
    3c72:	0000                	unimp
    3c74:	0844                	addi	s1,sp,20
    3c76:	0000                	unimp
    3c78:	087e                	slli	a6,a6,0x1f
    3c7a:	0000                	unimp
    3c7c:	08b2                	slli	a7,a7,0xc
    3c7e:	0000                	unimp
    3c80:	08a2                	slli	a7,a7,0x8
    3c82:	0000                	unimp
    3c84:	08d6                	slli	a7,a7,0x15
    3c86:	0000                	unimp
    3c88:	08ac                	addi	a1,sp,88
    3c8a:	0000                	unimp
    3c8c:	08e0                	addi	s0,sp,92
    3c8e:	0000                	unimp
    3c90:	999a                	add	s3,s3,t1
    3c92:	9999                	andi	a1,a1,-26
    3c94:	9999                	andi	a1,a1,-26
    3c96:	3fe9                	jal	3c70 <__clzsi2+0xa6>
    3c98:	999a                	add	s3,s3,t1
    3c9a:	9999                	andi	a1,a1,-26
    3c9c:	9999                	andi	a1,a1,-26
    3c9e:	3fc9                	jal	3c70 <__clzsi2+0xa6>

00003ca0 <GPION>:
    3ca0:	0800 4001 0c00 4001 1000 4001 1400 4001     ...@...@...@...@

00003cb0 <TIMERN>:
    3cb0:	2c00 4001 0000 4000 0400 4000 0800 4000     .,.@...@...@...@

00003cc0 <UARTN>:
    3cc0:	3800 4001 4400 4000 4800 4000 4c00 4000     .8.@.D.@.H.@.L.@
    3cd0:	0000 42cc 0000 41d0 0000 42c8 0000 42b2     ...B...A...B...B
    3ce0:	0000 4198 0000 4316 0000 42dc 0000 41e0     ...A...C...B...A
    3cf0:	0000 42f0 cccd 3f4c 0000 3f80 3333 3f33     ...B..L?...?333?
    3d00:	0000 45fa 0000 c5fa ef84 ffff ee76 ffff     ...E........v...
    3d10:	ee76 ffff ee74 ffff ee7c ffff ee7c ffff     v...t...|...|...
    3d20:	ee42 ffff ee74 ffff ee7c ffff ee42 ffff     B...t...|...B...
    3d30:	ee7c ffff ee74 ffff ef70 ffff ef70 ffff     |...t...p...p...
    3d40:	ef70 ffff ee42 ffff f8c2 ffff f814 ffff     p...B...........
    3d50:	f814 ffff f812 ffff f818 ffff f818 ffff     ................
    3d60:	f7e8 ffff f812 ffff f818 ffff f7e8 ffff     ................
    3d70:	f818 ffff f812 ffff f8b0 ffff f8b0 ffff     ................
    3d80:	f8b0 ffff f7e8 ffff                         ........

00003d88 <__clz_tab>:
    3d88:	0100 0202 0303 0303 0404 0404 0404 0404     ................
    3d98:	0505 0505 0505 0505 0505 0505 0505 0505     ................
    3da8:	0606 0606 0606 0606 0606 0606 0606 0606     ................
    3db8:	0606 0606 0606 0606 0606 0606 0606 0606     ................
    3dc8:	0707 0707 0707 0707 0707 0707 0707 0707     ................
    3dd8:	0707 0707 0707 0707 0707 0707 0707 0707     ................
    3de8:	0707 0707 0707 0707 0707 0707 0707 0707     ................
    3df8:	0707 0707 0707 0707 0707 0707 0707 0707     ................
    3e08:	0808 0808 0808 0808 0808 0808 0808 0808     ................
    3e18:	0808 0808 0808 0808 0808 0808 0808 0808     ................
    3e28:	0808 0808 0808 0808 0808 0808 0808 0808     ................
    3e38:	0808 0808 0808 0808 0808 0808 0808 0808     ................
    3e48:	0808 0808 0808 0808 0808 0808 0808 0808     ................
    3e58:	0808 0808 0808 0808 0808 0808 0808 0808     ................
    3e68:	0808 0808 0808 0808 0808 0808 0808 0808     ................
    3e78:	0808 0808 0808 0808 0808 0808 0808 0808     ................
