
MASTER.elf:     file format elf32-littleriscv
MASTER.elf
architecture: riscv:rv32, flags 0x00000112:
EXEC_P, HAS_SYMS, D_PAGED
start address 0x00000000

Program Header:
    LOAD off    0x00001000 vaddr 0x00000000 paddr 0x00000000 align 2**12
         filesz 0x00006d98 memsz 0x00006d98 flags r-x
    LOAD off    0x00008000 vaddr 0x20000000 paddr 0x00006d98 align 2**12
         filesz 0x00000088 memsz 0x00000194 flags rw-
    LOAD off    0x00008800 vaddr 0x20004800 paddr 0x20004800 align 2**12
         filesz 0x00000000 memsz 0x00000800 flags rw-

Sections:
Idx Name           Size      VMA       LMA       File off  Algn  Flags
  0 .init          00000038  00000000  00000000  00001000  2**1  CONTENTS, ALLOC, LOAD, READONLY, CODE
  1 .vector        00000108  00000038  00000038  00001038  2**1  CONTENTS, ALLOC, LOAD, READONLY, CODE
  2 .text          00006c58  00000140  00000140  00001140  2**2  CONTENTS, ALLOC, LOAD, READONLY, CODE
  3 .fini          00000000  00006d98  00006d98  00008088  2**0  CONTENTS, ALLOC, LOAD, CODE
  4 .dalign        00000000  20000000  20000000  00008088  2**0  CONTENTS
  5 .dlalign       00000000  00006d98  00006d98  00008088  2**0  CONTENTS
  6 .data          00000088  20000000  00006d98  00008000  2**2  CONTENTS, ALLOC, LOAD, DATA
  7 .bss           0000010c  20000088  00006e20  00008088  2**2  ALLOC
  8 .stack         00000800  20004800  20004800  00008800  2**0  ALLOC
  9 .debug_info    00017fef  00000000  00000000  00008088  2**0  CONTENTS, READONLY, DEBUGGING
 10 .debug_abbrev  00003bb3  00000000  00000000  00020077  2**0  CONTENTS, READONLY, DEBUGGING
 11 .debug_aranges 00000d00  00000000  00000000  00023c30  2**3  CONTENTS, READONLY, DEBUGGING
 12 .debug_ranges  00000b48  00000000  00000000  00024930  2**3  CONTENTS, READONLY, DEBUGGING
 13 .debug_line    0000d288  00000000  00000000  00025478  2**0  CONTENTS, READONLY, DEBUGGING
 14 .debug_str     000040ea  00000000  00000000  00032700  2**0  CONTENTS, READONLY, DEBUGGING
 15 .comment       00000033  00000000  00000000  000367ea  2**0  CONTENTS, READONLY
 16 .debug_frame   0000394c  00000000  00000000  00036820  2**2  CONTENTS, READONLY, DEBUGGING
 17 .stab          000000b4  00000000  00000000  0003a16c  2**2  CONTENTS, READONLY, DEBUGGING
 18 .stabstr       00000183  00000000  00000000  0003a220  2**0  CONTENTS, READONLY, DEBUGGING
SYMBOL TABLE:
00000000 l    d  .init	00000000 .init
00000038 l    d  .vector	00000000 .vector
00000140 l    d  .text	00000000 .text
00006d98 l    d  .fini	00000000 .fini
20000000 l    d  .dalign	00000000 .dalign
00006d98 l    d  .dlalign	00000000 .dlalign
20000000 l    d  .data	00000000 .data
20000088 l    d  .bss	00000000 .bss
20004800 l    d  .stack	00000000 .stack
00000000 l    d  .debug_info	00000000 .debug_info
00000000 l    d  .debug_abbrev	00000000 .debug_abbrev
00000000 l    d  .debug_aranges	00000000 .debug_aranges
00000000 l    d  .debug_ranges	00000000 .debug_ranges
00000000 l    d  .debug_line	00000000 .debug_line
00000000 l    d  .debug_str	00000000 .debug_str
00000000 l    d  .comment	00000000 .comment
00000000 l    d  .debug_frame	00000000 .debug_frame
00000000 l    d  .stab	00000000 .stab
00000000 l    d  .stabstr	00000000 .stabstr
00000000 l    df *ABS*	00000000 ./Libraries/wch_libraries/Startup/startup_ch32v10x.o
00000038 l       .vector	00000000 _vector_base
00000000 l    df *ABS*	00000000 isr.c
00000000 l    df *ABS*	00000000 main.c
20000095 l     O .bss	00000001 uart_num.5961
00000000 l    df *ABS*	00000000 ch32v10x_dma.c
00000000 l    df *ABS*	00000000 ch32v10x_exti.c
00000000 l    df *ABS*	00000000 ch32v10x_gpio.c
00000000 l    df *ABS*	00000000 ch32v10x_misc.c
00001090 l     F .text	00000032 NVIC_EnableIRQ
000010c2 l     F .text	00000032 NVIC_DisableIRQ
000010f4 l     F .text	0000002a NVIC_SetPriority
00000000 l    df *ABS*	00000000 ch32v10x_rcc.c
20000000 l     O .data	00000010 APBAHBPrescTable
20000070 l     O .data	00000004 ADCPrescTable
00000000 l    df *ABS*	00000000 ch32v10x_spi.c
00000000 l    df *ABS*	00000000 ch32v10x_tim.c
00000000 l    df *ABS*	00000000 ch32v10x_usart.c
00000000 l    df *ABS*	00000000 SEEKFREE_IPS114_SPI.c
00000000 l    df *ABS*	00000000 SEEKFREE_MT9V03X.c
00000000 l    df *ABS*	00000000 SEEKFREE_UART_7725.c
00000000 l    df *ABS*	00000000 zf_gpio.c
00000000 l    df *ABS*	00000000 zf_nvic.c
00000000 l    df *ABS*	00000000 zf_pwm.c
00000000 l    df *ABS*	00000000 zf_qtimer.c
00000000 l    df *ABS*	00000000 zf_spi.c
00006b5c l     O .text	0000000e __func__.3348
00000000 l    df *ABS*	00000000 zf_systick.c
00000000 l    df *ABS*	00000000 zf_uart.c
00000000 l    df *ABS*	00000000 board.c
00000000 l    df *ABS*	00000000 clock_config.c
00004460 l     F .text	00000140 SetSysClock
00000000 l    df *ABS*	00000000 Motor.c
00000000 l    df *ABS*	00000000 PID.c
00000000 l    df *ABS*	00000000 addsf3.c
00000000 l    df *ABS*	00000000 mulsf3.c
00000000 l    df *ABS*	00000000 subsf3.c
00000000 l    df *ABS*	00000000 floatsisf.c
00000000 l    df *ABS*	00000000 libgcc2.c
00000000 l    df *ABS*	00000000 assert.c
00000000 l    df *ABS*	00000000 fprintf.c
00000000 l    df *ABS*	00000000 nano-vfprintf.c
0000532c l     F .text	00000028 __sfputc_r
00000000 l    df *ABS*	00000000 nano-vfprintf_i.c
00000000 l    df *ABS*	00000000 wbuf.c
00000000 l    df *ABS*	00000000 wsetup.c
00000000 l    df *ABS*	00000000 abort.c
00000000 l    df *ABS*	00000000 fflush.c
00000000 l    df *ABS*	00000000 findfp.c
00005d64 l     F .text	0000006a std
00000000 l    df *ABS*	00000000 fwalk.c
00000000 l    df *ABS*	00000000 makebuf.c
00000000 l    df *ABS*	00000000 memchr.c
00000000 l    df *ABS*	00000000 nano-mallocr.c
00000000 l    df *ABS*	00000000 nano-mallocr.c
00000000 l    df *ABS*	00000000 sbrkr.c
00000000 l    df *ABS*	00000000 signal.c
00000000 l    df *ABS*	00000000 signalr.c
00000000 l    df *ABS*	00000000 stdio.c
00000000 l    df *ABS*	00000000 writer.c
00000000 l    df *ABS*	00000000 closer.c
00000000 l    df *ABS*	00000000 fstatr.c
00000000 l    df *ABS*	00000000 isattyr.c
00000000 l    df *ABS*	00000000 lseekr.c
00000000 l    df *ABS*	00000000 mlock.c
00000000 l    df *ABS*	00000000 readr.c
00000000 l    df *ABS*	00000000 close.c
00000000 l    df *ABS*	00000000 fstat.c
00000000 l    df *ABS*	00000000 getpid.c
00000000 l    df *ABS*	00000000 isatty.c
00000000 l    df *ABS*	00000000 kill.c
00000000 l    df *ABS*	00000000 lseek.c
00000000 l    df *ABS*	00000000 read.c
00000000 l    df *ABS*	00000000 sbrk.c
200000b4 l     O .bss	00000004 heap_end.1518
00000000 l    df *ABS*	00000000 _exit.c
00000000 l    df *ABS*	00000000 SEEKFREE_FONT.c
00000000 l    df *ABS*	00000000 libgcc2.c
00000000 l    df *ABS*	00000000 impure.c
20000010 l     O .data	00000060 impure_data
00000000 l    df *ABS*	00000000 common.c
00000000 l    df *ABS*	00000000 reent.c
00001cf4 g     F .text	0000003c TIM_TimeBaseStructInit
00000232 g     F .text	00000016 EXTI2_IRQHandler
00006414 g     F .text	00000028 _isatty_r
00002aa4 g     F .text	0000007e ips114_set_region
000064b0 g     F .text	0000000c _getpid
0000643c g     F .text	0000002c _lseek_r
2000008a g     O .bss	00000002 slave_encoder_left
00003130 g     F .text	00000080 gpio_interrupt_init
000062ae g     F .text	0000002a _kill_r
00002c6e g     F .text	00000176 ips114_showint16
20000870 g       .data	00000000 __global_pointer$
00000354 g     F .text	00000090 TIM1_CC_IRQHandler
00006358 g     F .text	00000036 __sseek
00005e1e g     F .text	0000006c __sinit
000059e8 g     F .text	000000c0 __swbuf_r
0000052c g     F .text	00000008 HardFault_Handler
00005dd8 g     F .text	00000046 __sfmoreglue
0000646a g     F .text	00000002 __malloc_unlock
00001ec0 g     F .text	0000004c TIM_OC1PreloadConfig
0000111e g     F .text	000000c4 NVIC_Init
200000a8 g     O .bss	00000004 sys_clk
0000051c g     F .text	00000010 NMI_Handler
20000124 g     O .bss	00000030 Pid_rl
00000248 g     F .text	00000010 EXTI3_IRQHandler
20000074 g     O .data	00000004 camera_type
0000259a g     F .text	00000046 USART_GetFlagStatus
000063ea g     F .text	0000002a _fstat_r
00006b4c g     O .text	00000010 TIMERN
200000f4 g     O .bss	00000030 Pid_fr
20000190 g     O .bss	00000004 errno
20000088 g       .bss	00000000 _sbss
00000800 g       *ABS*	00000000 __stack_size
200000b8 g     O .bss	0000000b temp_buff
00004e08 g     F .text	00000388 .hidden __subsf3
20000088 g     O .bss	00000001 uart_flag
200000a5 g     O .bss	00000001 ov7725_uart_finish_flag
0000086e g     F .text	00000026 Encoder_Init_Master
00001d88 g     F .text	00000060 TIM_CtrlPWMOutputs
00005dce g     F .text	0000000a _cleanup_r
00000eb2 g     F .text	0000013c GPIO_PinRemapConfig
000006d4 g     F .text	0000019a EXTI0_IRQHandler
00000534 g     F .text	00000086 get_slave_data
00001d30 g     F .text	00000058 TIM_Cmd
00001fb2 g     F .text	0000005a TIM_OC4PreloadConfig
00002574 g     F .text	00000026 USART_ReceiveData
2000008c g     O .bss	00000002 slave_encoder_right
00006240 g     F .text	00000062 _raise_r
000064a4 g     F .text	0000000c _fstat
00003ed2 g     F .text	00000136 spi_init
000052cc g     F .text	0000003a __assert_func
00000038 g       .init	00000000 _einit
0000326a g     F .text	00000028 sys_recover_irq
000021c0 g     F .text	0000002e TIM_ClearITPendingBit
000013fc g     F .text	00000046 RCC_APB2PeriphClockCmd
00002e54 g     F .text	00000036 mt9v03x_vsync
0000654c g     O .text	000005f0 tft_ascii
00000288 g     F .text	00000010 ADC1_2_IRQHandler
000062d8 g     F .text	00000002 _getpid_r
00000c50 g     F .text	0000022a GPIO_Init
000031b0 g     F .text	00000098 nvic_init
00002422 g     F .text	00000060 USART_Cmd
00006218 g     F .text	00000028 _sbrk_r
000019fa g     F .text	000001b0 TIM_OC3Init
0000646c g     F .text	0000002c _read_r
000026e2 g     F .text	0000004e USART_ClearITPendingBit
2000007c g     O .data	00000008 SPIN
00001442 g     F .text	00000046 RCC_APB1PeriphClockCmd
000064bc g     F .text	0000000c _isatty
00003a1e g     F .text	00000170 timer_gpio_quad_init
20000084 g     O .data	00000004 _global_impure_ptr
000005ba g     F .text	000000cc data_analysis
000004d6 g     F .text	00000046 DMA1_Channel4_IRQHandler
2000008e g     O .bss	00000002 slave_position
000020ae g     F .text	0000004c TIM_OC3FastConfig
00005bb4 g     F .text	0000000e abort
000064ec g     F .text	00000020 _sbrk
20000094 g     O .bss	00000001 show_flag
000009d6 g     F .text	0000005c DMA_GetFlagStatus
00000686 g     F .text	0000004e USART3_IRQHandler
00000c30 g     F .text	00000020 EXTI_ClearITPendingBit
20000194 g       .bss	00000000 _ebss
000025e0 g     F .text	00000102 USART_GetITStatus
000016d4 g     F .text	00000170 TIM_OC1Init
00001f66 g     F .text	0000004c TIM_OC3PreloadConfig
000046ae g     F .text	00000074 PID_Init
00002844 g     F .text	00000260 ips114_init
00002b22 g     F .text	00000066 ips114_clear
000027d4 g     F .text	00000070 ips114_writedata_16bit
000040ca g     F .text	00000094 systick_delay
00002eb8 g     F .text	00000070 ov7725_cof_uart_interrupt
00006b6c g     O .text	00000010 UARTN
0000365a g     F .text	000003c4 pwm_init
00005306 g     F .text	00000026 fprintf
0000043c g     F .text	00000030 TIM4_IRQHandler
00000e7a g     F .text	00000038 GPIO_WriteBit
200000a3 g     O .bss	00000001 ov7725_uart_receive_num
0000461e g     F .text	00000090 Duty_Init
00006d38 g     O .text	00000020 __sf_fake_stderr
20000194 g       .bss	00000000 end
00003b8e g     F .text	0000015e timer_quad_init
00002150 g     F .text	00000070 TIM_GetITStatus
000011e2 g     F .text	0000021a RCC_GetClocksFreq
00005256 g     F .text	00000076 .hidden __clzsi2
00005354 g     F .text	00000044 __sfputs_r
0000424a g     F .text	00000106 uart_init
0000608c g     F .text	0000001a memchr
000021ee g     F .text	00000234 USART_Init
000060a6 g     F .text	000000a4 _free_r
0000040c g     F .text	00000030 TIM3_IRQHandler
000032ce g     F .text	00000028 EnableGlobalIRQ
0000415e g     F .text	000000ec uart_gpio_init
000002fc g     F .text	00000058 TIM1_TRG_COM_IRQHandler
0000200c g     F .text	0000004c TIM_OC1FastConfig
00002f5e g     F .text	0000002e ov7725_uart_dma
00000000 g       .init	00000000 _start
20000092 g     O .bss	00000002 master_encoder_right
000064d4 g     F .text	0000000c _lseek
200000a4 g     O .bss	00000001 ov7725_uart_receive_flag
00001f0c g     F .text	0000005a TIM_OC2PreloadConfig
00003248 g     F .text	00000022 close_all_irq
00005190 g     F .text	000000c6 .hidden __floatsisf
00000278 g     F .text	00000010 EXTI15_10_IRQHandler
00006b3c g     O .text	00000010 GPION
00001844 g     F .text	000001b6 TIM_OC2Init
00002482 g     F .text	000000c4 USART_ITConfig
00000a6a g     F .text	00000170 EXTI_Init
000063c2 g     F .text	00000028 _close_r
20000000 g       .dalign	00000000 _data_vma
00001baa g     F .text	0000014a TIM_OC4Init
00002730 g     F .text	00000052 ips114_writeIndex
00005aa8 g     F .text	0000010c __swsetup_r
00000268 g     F .text	00000010 EXTI9_5_IRQHandler
00005e8a g     F .text	000000a0 __sfp
00000fee g     F .text	000000a2 GPIO_EXTILineConfig
000043a0 g     F .text	00000048 board_init
000062da g     F .text	00000030 __sread
00006468 g     F .text	00000002 __malloc_lock
00005cfe g     F .text	00000066 _fflush_r
00000bda g     F .text	00000056 EXTI_GetITStatus
00006d58 g     O .text	00000020 __sf_fake_stdin
00002e8a g     F .text	0000002e mt9v03x_dma
00000140 g     F .text	000000a8 memset
00000894 g     F .text	000000c8 main
0000638e g     F .text	00000006 __sclose
0000614a g     F .text	000000ce _malloc_r
00002058 g     F .text	00000056 TIM_OC2FastConfig
00000258 g     F .text	00000010 EXTI4_IRQHandler
00004b78 g     F .text	00000290 .hidden __mulsf3
00001580 g     F .text	0000005a SPI_Cmd
00003292 g     F .text	0000003c DisableGlobalIRQ
000045a0 g     F .text	0000007e SystemInit
00006bbc g     O .text	00000100 .hidden __clz_tab
00000000 g       .init	00000000 _sinit
00006394 g     F .text	0000002e _write_r
2000009b g     O .bss	00000001 receive_num
20000184 g     O .bss	0000000c irq_status
00005638 g     F .text	0000010c _printf_common
20000078 g     O .data	00000004 _impure_ptr
000002cc g     F .text	00000030 TIM1_UP_IRQHandler
20000098 g     O .bss	00000003 receive
00005bc2 g     F .text	0000013c __sflush_r
00002f28 g     F .text	00000036 ov7725_uart_vsync
20000090 g     O .bss	00000002 master_encoder_left
00004722 g     F .text	000000ec PID_incCtrl
000003e4 g     F .text	00000028 TIM2_IRQHandler
20005000 g       .stack	00000000 _eusrstack
200000c4 g     O .bss	00000030 Pid_fl
2000009c g     O .bss	00000001 uart_receive_flag
00002de4 g     F .text	00000070 mt9v03x_uart_callback
2000009d g     O .bss	00000001 mt9v03x_finish_flag
00000298 g     F .text	00000034 TIM1_BRK_IRQHandler
00005f96 g     F .text	00000058 __swhatbuf_r
00002546 g     F .text	0000002e USART_SendData
000001e8 g     F .text	0000004a EXTI1_IRQHandler
000043e8 g     F .text	00000078 _write
20000088 g       .data	00000000 _edata
00002782 g     F .text	00000052 ips114_writeData
000015da g     F .text	000000fa TIM_TimeBaseInit
00006d98 g       .dlalign	00000000 _data_lma
0000047c g     F .text	0000005a USART2_IRQHandler
0000630a g     F .text	0000004e __swrite
00005306 g     F .text	00000026 fiprintf
00005398 g     F .text	000002a0 _vfiprintf_r
00004008 g     F .text	000000c2 spi_mosi
00005f2a g     F .text	0000006c _fwalk_reent
000064c8 g     F .text	0000000c _kill
00006d78 g     O .text	00000020 __sf_fake_stdout
00000a32 g     F .text	00000038 DMA_ClearFlag
000064e0 g     F .text	0000000c _read
0000095c  w      .text	00000000 handle_reset
000032f6 g     F .text	00000364 pwm_gpio_init
0000650c g     F .text	00000002 _exit
00003cec g     F .text	00000032 timer_quad_get
20000154 g     O .bss	00000030 Pid_rr
0000046c g     F .text	00000010 USART1_IRQHandler
00005fee g     F .text	0000009e __smakebuf_r
00005744 g     F .text	000002a4 _printf_i
200000b0 g     O .bss	00000004 __malloc_sbrk_start
00004350 g     F .text	00000050 uart_rx_irq
00001488 g     F .text	000000f8 SPI_Init
00003d44 g     F .text	0000018e spi_gpio_init
00003d1e g     F .text	00000026 timer_quad_clear
00002f8c g     F .text	000001a4 gpio_init
200000ac g     O .bss	00000004 __malloc_free_list
00001de8 g     F .text	000000d8 TIM_EncoderInterfaceConfig
00005398 g     F .text	000002a0 _vfprintf_r
000020fa g     F .text	00000056 TIM_OC4FastConfig
0000480e g     F .text	0000036a .hidden __addsf3
200000a0 g     O .bss	00000003 ov7725_uart_receive
00006498 g     F .text	0000000c _close
000062a2 g     F .text	0000000c raise
00002b88 g     F .text	000000e6 ips114_showchar



Disassembly of section .init:

00000000 <_sinit>:
_start():
C:\Users\16917\Desktop\Dual-core_Communication_Demo\Dual-core_Communication_Demo\MASTER\obj/../Libraries/wch_libraries/Startup/startup_ch32v10x.S:13
   0:	15d0006f          	j	95c <handle_reset>
   4:	00000013          	nop
   8:	00000013          	nop
   c:	00000013          	nop
  10:	00000013          	nop
  14:	00000013          	nop
  18:	00000013          	nop
  1c:	00000013          	nop
  20:	00000013          	nop
  24:	00000013          	nop
  28:	00000013          	nop
  2c:	00000013          	nop
  30:	00000013          	nop
  34:	00100073          	ebreak

Disassembly of section .vector:

00000038 <_vector_base>:
_vector_base():
C:\Users\16917\Desktop\Dual-core_Communication_Demo\Dual-core_Communication_Demo\MASTER\obj/../Libraries/wch_libraries/Startup/startup_ch32v10x.S:31
  38:	fc9ff06f          	j	0 <_sinit>
  3c:	0000                	unimp
  3e:	0000                	unimp
C:\Users\16917\Desktop\Dual-core_Communication_Demo\Dual-core_Communication_Demo\MASTER\obj/../Libraries/wch_libraries/Startup/startup_ch32v10x.S:33
  40:	4dc0006f          	j	51c <NMI_Handler>
C:\Users\16917\Desktop\Dual-core_Communication_Demo\Dual-core_Communication_Demo\MASTER\obj/../Libraries/wch_libraries/Startup/startup_ch32v10x.S:34
  44:	4e80006f          	j	52c <HardFault_Handler>
	...
C:\Users\16917\Desktop\Dual-core_Communication_Demo\Dual-core_Communication_Demo\MASTER\obj/../Libraries/wch_libraries/Startup/startup_ch32v10x.S:43
  68:	f99ff06f          	j	0 <_sinit>
  6c:	0000                	unimp
  6e:	0000                	unimp
C:\Users\16917\Desktop\Dual-core_Communication_Demo\Dual-core_Communication_Demo\MASTER\obj/../Libraries/wch_libraries/Startup/startup_ch32v10x.S:45
  70:	f91ff06f          	j	0 <_sinit>
  74:	0000                	unimp
  76:	0000                	unimp
C:\Users\16917\Desktop\Dual-core_Communication_Demo\Dual-core_Communication_Demo\MASTER\obj/../Libraries/wch_libraries/Startup/startup_ch32v10x.S:48
  78:	f89ff06f          	j	0 <_sinit>
C:\Users\16917\Desktop\Dual-core_Communication_Demo\Dual-core_Communication_Demo\MASTER\obj/../Libraries/wch_libraries/Startup/startup_ch32v10x.S:49
  7c:	f85ff06f          	j	0 <_sinit>
C:\Users\16917\Desktop\Dual-core_Communication_Demo\Dual-core_Communication_Demo\MASTER\obj/../Libraries/wch_libraries/Startup/startup_ch32v10x.S:50
  80:	f81ff06f          	j	0 <_sinit>
C:\Users\16917\Desktop\Dual-core_Communication_Demo\Dual-core_Communication_Demo\MASTER\obj/../Libraries/wch_libraries/Startup/startup_ch32v10x.S:51
  84:	f7dff06f          	j	0 <_sinit>
C:\Users\16917\Desktop\Dual-core_Communication_Demo\Dual-core_Communication_Demo\MASTER\obj/../Libraries/wch_libraries/Startup/startup_ch32v10x.S:52
  88:	f79ff06f          	j	0 <_sinit>
C:\Users\16917\Desktop\Dual-core_Communication_Demo\Dual-core_Communication_Demo\MASTER\obj/../Libraries/wch_libraries/Startup/startup_ch32v10x.S:53
  8c:	f75ff06f          	j	0 <_sinit>
C:\Users\16917\Desktop\Dual-core_Communication_Demo\Dual-core_Communication_Demo\MASTER\obj/../Libraries/wch_libraries/Startup/startup_ch32v10x.S:54
  90:	6440006f          	j	6d4 <EXTI0_IRQHandler>
C:\Users\16917\Desktop\Dual-core_Communication_Demo\Dual-core_Communication_Demo\MASTER\obj/../Libraries/wch_libraries/Startup/startup_ch32v10x.S:55
  94:	1540006f          	j	1e8 <EXTI1_IRQHandler>
C:\Users\16917\Desktop\Dual-core_Communication_Demo\Dual-core_Communication_Demo\MASTER\obj/../Libraries/wch_libraries/Startup/startup_ch32v10x.S:56
  98:	19a0006f          	j	232 <EXTI2_IRQHandler>
C:\Users\16917\Desktop\Dual-core_Communication_Demo\Dual-core_Communication_Demo\MASTER\obj/../Libraries/wch_libraries/Startup/startup_ch32v10x.S:57
  9c:	1ac0006f          	j	248 <EXTI3_IRQHandler>
C:\Users\16917\Desktop\Dual-core_Communication_Demo\Dual-core_Communication_Demo\MASTER\obj/../Libraries/wch_libraries/Startup/startup_ch32v10x.S:58
  a0:	1b80006f          	j	258 <EXTI4_IRQHandler>
C:\Users\16917\Desktop\Dual-core_Communication_Demo\Dual-core_Communication_Demo\MASTER\obj/../Libraries/wch_libraries/Startup/startup_ch32v10x.S:59
  a4:	f5dff06f          	j	0 <_sinit>
C:\Users\16917\Desktop\Dual-core_Communication_Demo\Dual-core_Communication_Demo\MASTER\obj/../Libraries/wch_libraries/Startup/startup_ch32v10x.S:60
  a8:	f59ff06f          	j	0 <_sinit>
C:\Users\16917\Desktop\Dual-core_Communication_Demo\Dual-core_Communication_Demo\MASTER\obj/../Libraries/wch_libraries/Startup/startup_ch32v10x.S:61
  ac:	f55ff06f          	j	0 <_sinit>
C:\Users\16917\Desktop\Dual-core_Communication_Demo\Dual-core_Communication_Demo\MASTER\obj/../Libraries/wch_libraries/Startup/startup_ch32v10x.S:62
  b0:	4260006f          	j	4d6 <DMA1_Channel4_IRQHandler>
C:\Users\16917\Desktop\Dual-core_Communication_Demo\Dual-core_Communication_Demo\MASTER\obj/../Libraries/wch_libraries/Startup/startup_ch32v10x.S:63
  b4:	f4dff06f          	j	0 <_sinit>
C:\Users\16917\Desktop\Dual-core_Communication_Demo\Dual-core_Communication_Demo\MASTER\obj/../Libraries/wch_libraries/Startup/startup_ch32v10x.S:64
  b8:	f49ff06f          	j	0 <_sinit>
C:\Users\16917\Desktop\Dual-core_Communication_Demo\Dual-core_Communication_Demo\MASTER\obj/../Libraries/wch_libraries/Startup/startup_ch32v10x.S:65
  bc:	f45ff06f          	j	0 <_sinit>
C:\Users\16917\Desktop\Dual-core_Communication_Demo\Dual-core_Communication_Demo\MASTER\obj/../Libraries/wch_libraries/Startup/startup_ch32v10x.S:66
  c0:	1c80006f          	j	288 <ADC1_2_IRQHandler>
	...
C:\Users\16917\Desktop\Dual-core_Communication_Demo\Dual-core_Communication_Demo\MASTER\obj/../Libraries/wch_libraries/Startup/startup_ch32v10x.S:71
  d4:	1940006f          	j	268 <EXTI9_5_IRQHandler>
C:\Users\16917\Desktop\Dual-core_Communication_Demo\Dual-core_Communication_Demo\MASTER\obj/../Libraries/wch_libraries/Startup/startup_ch32v10x.S:72
  d8:	1c00006f          	j	298 <TIM1_BRK_IRQHandler>
C:\Users\16917\Desktop\Dual-core_Communication_Demo\Dual-core_Communication_Demo\MASTER\obj/../Libraries/wch_libraries/Startup/startup_ch32v10x.S:73
  dc:	1f00006f          	j	2cc <TIM1_UP_IRQHandler>
C:\Users\16917\Desktop\Dual-core_Communication_Demo\Dual-core_Communication_Demo\MASTER\obj/../Libraries/wch_libraries/Startup/startup_ch32v10x.S:74
  e0:	21c0006f          	j	2fc <TIM1_TRG_COM_IRQHandler>
C:\Users\16917\Desktop\Dual-core_Communication_Demo\Dual-core_Communication_Demo\MASTER\obj/../Libraries/wch_libraries/Startup/startup_ch32v10x.S:75
  e4:	2700006f          	j	354 <TIM1_CC_IRQHandler>
C:\Users\16917\Desktop\Dual-core_Communication_Demo\Dual-core_Communication_Demo\MASTER\obj/../Libraries/wch_libraries/Startup/startup_ch32v10x.S:76
  e8:	2fc0006f          	j	3e4 <TIM2_IRQHandler>
C:\Users\16917\Desktop\Dual-core_Communication_Demo\Dual-core_Communication_Demo\MASTER\obj/../Libraries/wch_libraries/Startup/startup_ch32v10x.S:77
  ec:	3200006f          	j	40c <TIM3_IRQHandler>
C:\Users\16917\Desktop\Dual-core_Communication_Demo\Dual-core_Communication_Demo\MASTER\obj/../Libraries/wch_libraries/Startup/startup_ch32v10x.S:78
  f0:	34c0006f          	j	43c <TIM4_IRQHandler>
C:\Users\16917\Desktop\Dual-core_Communication_Demo\Dual-core_Communication_Demo\MASTER\obj/../Libraries/wch_libraries/Startup/startup_ch32v10x.S:79
  f4:	f0dff06f          	j	0 <_sinit>
C:\Users\16917\Desktop\Dual-core_Communication_Demo\Dual-core_Communication_Demo\MASTER\obj/../Libraries/wch_libraries/Startup/startup_ch32v10x.S:80
  f8:	f09ff06f          	j	0 <_sinit>
C:\Users\16917\Desktop\Dual-core_Communication_Demo\Dual-core_Communication_Demo\MASTER\obj/../Libraries/wch_libraries/Startup/startup_ch32v10x.S:81
  fc:	f05ff06f          	j	0 <_sinit>
C:\Users\16917\Desktop\Dual-core_Communication_Demo\Dual-core_Communication_Demo\MASTER\obj/../Libraries/wch_libraries/Startup/startup_ch32v10x.S:82
 100:	f01ff06f          	j	0 <_sinit>
C:\Users\16917\Desktop\Dual-core_Communication_Demo\Dual-core_Communication_Demo\MASTER\obj/../Libraries/wch_libraries/Startup/startup_ch32v10x.S:83
 104:	efdff06f          	j	0 <_sinit>
C:\Users\16917\Desktop\Dual-core_Communication_Demo\Dual-core_Communication_Demo\MASTER\obj/../Libraries/wch_libraries/Startup/startup_ch32v10x.S:84
 108:	ef9ff06f          	j	0 <_sinit>
C:\Users\16917\Desktop\Dual-core_Communication_Demo\Dual-core_Communication_Demo\MASTER\obj/../Libraries/wch_libraries/Startup/startup_ch32v10x.S:85
 10c:	3600006f          	j	46c <USART1_IRQHandler>
C:\Users\16917\Desktop\Dual-core_Communication_Demo\Dual-core_Communication_Demo\MASTER\obj/../Libraries/wch_libraries/Startup/startup_ch32v10x.S:86
 110:	36c0006f          	j	47c <USART2_IRQHandler>
C:\Users\16917\Desktop\Dual-core_Communication_Demo\Dual-core_Communication_Demo\MASTER\obj/../Libraries/wch_libraries/Startup/startup_ch32v10x.S:87
 114:	5720006f          	j	686 <USART3_IRQHandler>
C:\Users\16917\Desktop\Dual-core_Communication_Demo\Dual-core_Communication_Demo\MASTER\obj/../Libraries/wch_libraries/Startup/startup_ch32v10x.S:88
 118:	1600006f          	j	278 <EXTI15_10_IRQHandler>
C:\Users\16917\Desktop\Dual-core_Communication_Demo\Dual-core_Communication_Demo\MASTER\obj/../Libraries/wch_libraries/Startup/startup_ch32v10x.S:89
 11c:	ee5ff06f          	j	0 <_sinit>
C:\Users\16917\Desktop\Dual-core_Communication_Demo\Dual-core_Communication_Demo\MASTER\obj/../Libraries/wch_libraries/Startup/startup_ch32v10x.S:90
 120:	ee1ff06f          	j	0 <_sinit>
C:\Users\16917\Desktop\Dual-core_Communication_Demo\Dual-core_Communication_Demo\MASTER\obj/../Libraries/wch_libraries/Startup/startup_ch32v10x.S:91
 124:	eddff06f          	j	0 <_sinit>
	...

Disassembly of section .text:

00000140 <memset>:
memset():
     140:	433d                	li	t1,15
     142:	872a                	mv	a4,a0
     144:	02c37363          	bgeu	t1,a2,16a <memset+0x2a>
     148:	00f77793          	andi	a5,a4,15
     14c:	efbd                	bnez	a5,1ca <memset+0x8a>
     14e:	e5ad                	bnez	a1,1b8 <memset+0x78>
     150:	ff067693          	andi	a3,a2,-16
     154:	8a3d                	andi	a2,a2,15
     156:	96ba                	add	a3,a3,a4
     158:	c30c                	sw	a1,0(a4)
     15a:	c34c                	sw	a1,4(a4)
     15c:	c70c                	sw	a1,8(a4)
     15e:	c74c                	sw	a1,12(a4)
     160:	0741                	addi	a4,a4,16
     162:	fed76be3          	bltu	a4,a3,158 <memset+0x18>
     166:	e211                	bnez	a2,16a <memset+0x2a>
     168:	8082                	ret
     16a:	40c306b3          	sub	a3,t1,a2
     16e:	068a                	slli	a3,a3,0x2
     170:	00000297          	auipc	t0,0x0
     174:	9696                	add	a3,a3,t0
     176:	00a68067          	jr	10(a3)
     17a:	00b70723          	sb	a1,14(a4)
     17e:	00b706a3          	sb	a1,13(a4)
     182:	00b70623          	sb	a1,12(a4)
     186:	00b705a3          	sb	a1,11(a4)
     18a:	00b70523          	sb	a1,10(a4)
     18e:	00b704a3          	sb	a1,9(a4)
     192:	00b70423          	sb	a1,8(a4)
     196:	00b703a3          	sb	a1,7(a4)
     19a:	00b70323          	sb	a1,6(a4)
     19e:	00b702a3          	sb	a1,5(a4)
     1a2:	00b70223          	sb	a1,4(a4)
     1a6:	00b701a3          	sb	a1,3(a4)
     1aa:	00b70123          	sb	a1,2(a4)
     1ae:	00b700a3          	sb	a1,1(a4)
     1b2:	00b70023          	sb	a1,0(a4)
     1b6:	8082                	ret
     1b8:	0ff5f593          	andi	a1,a1,255
     1bc:	00859693          	slli	a3,a1,0x8
     1c0:	8dd5                	or	a1,a1,a3
     1c2:	01059693          	slli	a3,a1,0x10
     1c6:	8dd5                	or	a1,a1,a3
     1c8:	b761                	j	150 <memset+0x10>
     1ca:	00279693          	slli	a3,a5,0x2
     1ce:	00000297          	auipc	t0,0x0
     1d2:	9696                	add	a3,a3,t0
     1d4:	8286                	mv	t0,ra
     1d6:	fa8680e7          	jalr	-88(a3)
     1da:	8096                	mv	ra,t0
     1dc:	17c1                	addi	a5,a5,-16
     1de:	8f1d                	sub	a4,a4,a5
     1e0:	963e                	add	a2,a2,a5
     1e2:	f8c374e3          	bgeu	t1,a2,16a <memset+0x2a>
     1e6:	b7a5                	j	14e <memset+0xe>

000001e8 <EXTI1_IRQHandler>:
EXTI1_IRQHandler():
C:\Users\16917\Desktop\Dual-core_Communication_Demo\Dual-core_Communication_Demo\MASTER\obj/../USER/isr.c:69
     1e8:	1141                	addi	sp,sp,-16
     1ea:	c622                	sw	s0,12(sp)
     1ec:	0800                	addi	s0,sp,16
C:\Users\16917\Desktop\Dual-core_Communication_Demo\Dual-core_Communication_Demo\MASTER\obj/../USER/isr.c:70
     1ee:	4509                	li	a0,2
     1f0:	1eb000ef          	jal	ra,bda <EXTI_GetITStatus>
     1f4:	872a                	mv	a4,a0
     1f6:	4785                	li	a5,1
     1f8:	02f71863          	bne	a4,a5,228 <EXTI1_IRQHandler+0x40>
C:\Users\16917\Desktop\Dual-core_Communication_Demo\Dual-core_Communication_Demo\MASTER\obj/../USER/isr.c:72
     1fc:	200007b7          	lui	a5,0x20000
     200:	0747a703          	lw	a4,116(a5) # 20000074 <camera_type>
     204:	4789                	li	a5,2
     206:	00f71563          	bne	a4,a5,210 <EXTI1_IRQHandler+0x28>
C:\Users\16917\Desktop\Dual-core_Communication_Demo\Dual-core_Communication_Demo\MASTER\obj/../USER/isr.c:73
     20a:	51f020ef          	jal	ra,2f28 <ov7725_uart_vsync>
     20e:	a811                	j	222 <EXTI1_IRQHandler+0x3a>
C:\Users\16917\Desktop\Dual-core_Communication_Demo\Dual-core_Communication_Demo\MASTER\obj/../USER/isr.c:74
     210:	200007b7          	lui	a5,0x20000
     214:	0747a703          	lw	a4,116(a5) # 20000074 <camera_type>
     218:	4785                	li	a5,1
     21a:	00f71463          	bne	a4,a5,222 <EXTI1_IRQHandler+0x3a>
C:\Users\16917\Desktop\Dual-core_Communication_Demo\Dual-core_Communication_Demo\MASTER\obj/../USER/isr.c:75
     21e:	437020ef          	jal	ra,2e54 <mt9v03x_vsync>
C:\Users\16917\Desktop\Dual-core_Communication_Demo\Dual-core_Communication_Demo\MASTER\obj/../USER/isr.c:76
     222:	4509                	li	a0,2
     224:	20d000ef          	jal	ra,c30 <EXTI_ClearITPendingBit>
C:\Users\16917\Desktop\Dual-core_Communication_Demo\Dual-core_Communication_Demo\MASTER\obj/../USER/isr.c:79
     228:	0001                	nop
     22a:	4432                	lw	s0,12(sp)
     22c:	0141                	addi	sp,sp,16
     22e:	30200073          	mret

00000232 <EXTI2_IRQHandler>:
EXTI2_IRQHandler():
C:\Users\16917\Desktop\Dual-core_Communication_Demo\Dual-core_Communication_Demo\MASTER\obj/../USER/isr.c:82
     232:	1141                	addi	sp,sp,-16
     234:	c622                	sw	s0,12(sp)
     236:	0800                	addi	s0,sp,16
C:\Users\16917\Desktop\Dual-core_Communication_Demo\Dual-core_Communication_Demo\MASTER\obj/../USER/isr.c:83
     238:	4511                	li	a0,4
     23a:	1f7000ef          	jal	ra,c30 <EXTI_ClearITPendingBit>
C:\Users\16917\Desktop\Dual-core_Communication_Demo\Dual-core_Communication_Demo\MASTER\obj/../USER/isr.c:84
     23e:	0001                	nop
     240:	4432                	lw	s0,12(sp)
     242:	0141                	addi	sp,sp,16
     244:	30200073          	mret

00000248 <EXTI3_IRQHandler>:
EXTI3_IRQHandler():
C:\Users\16917\Desktop\Dual-core_Communication_Demo\Dual-core_Communication_Demo\MASTER\obj/../USER/isr.c:87
     248:	1141                	addi	sp,sp,-16
     24a:	c622                	sw	s0,12(sp)
     24c:	0800                	addi	s0,sp,16
C:\Users\16917\Desktop\Dual-core_Communication_Demo\Dual-core_Communication_Demo\MASTER\obj/../USER/isr.c:90
     24e:	0001                	nop
     250:	4432                	lw	s0,12(sp)
     252:	0141                	addi	sp,sp,16
     254:	30200073          	mret

00000258 <EXTI4_IRQHandler>:
EXTI4_IRQHandler():
C:\Users\16917\Desktop\Dual-core_Communication_Demo\Dual-core_Communication_Demo\MASTER\obj/../USER/isr.c:93
     258:	1141                	addi	sp,sp,-16
     25a:	c622                	sw	s0,12(sp)
     25c:	0800                	addi	s0,sp,16
C:\Users\16917\Desktop\Dual-core_Communication_Demo\Dual-core_Communication_Demo\MASTER\obj/../USER/isr.c:96
     25e:	0001                	nop
     260:	4432                	lw	s0,12(sp)
     262:	0141                	addi	sp,sp,16
     264:	30200073          	mret

00000268 <EXTI9_5_IRQHandler>:
EXTI9_5_IRQHandler():
C:\Users\16917\Desktop\Dual-core_Communication_Demo\Dual-core_Communication_Demo\MASTER\obj/../USER/isr.c:99
     268:	1141                	addi	sp,sp,-16
     26a:	c622                	sw	s0,12(sp)
     26c:	0800                	addi	s0,sp,16
C:\Users\16917\Desktop\Dual-core_Communication_Demo\Dual-core_Communication_Demo\MASTER\obj/../USER/isr.c:102
     26e:	0001                	nop
     270:	4432                	lw	s0,12(sp)
     272:	0141                	addi	sp,sp,16
     274:	30200073          	mret

00000278 <EXTI15_10_IRQHandler>:
EXTI15_10_IRQHandler():
C:\Users\16917\Desktop\Dual-core_Communication_Demo\Dual-core_Communication_Demo\MASTER\obj/../USER/isr.c:105
     278:	1141                	addi	sp,sp,-16
     27a:	c622                	sw	s0,12(sp)
     27c:	0800                	addi	s0,sp,16
C:\Users\16917\Desktop\Dual-core_Communication_Demo\Dual-core_Communication_Demo\MASTER\obj/../USER/isr.c:107
     27e:	0001                	nop
     280:	4432                	lw	s0,12(sp)
     282:	0141                	addi	sp,sp,16
     284:	30200073          	mret

00000288 <ADC1_2_IRQHandler>:
ADC1_2_IRQHandler():
C:\Users\16917\Desktop\Dual-core_Communication_Demo\Dual-core_Communication_Demo\MASTER\obj/../USER/isr.c:110
     288:	1141                	addi	sp,sp,-16
     28a:	c622                	sw	s0,12(sp)
     28c:	0800                	addi	s0,sp,16
C:\Users\16917\Desktop\Dual-core_Communication_Demo\Dual-core_Communication_Demo\MASTER\obj/../USER/isr.c:113
     28e:	0001                	nop
     290:	4432                	lw	s0,12(sp)
     292:	0141                	addi	sp,sp,16
     294:	30200073          	mret

00000298 <TIM1_BRK_IRQHandler>:
TIM1_BRK_IRQHandler():
C:\Users\16917\Desktop\Dual-core_Communication_Demo\Dual-core_Communication_Demo\MASTER\obj/../USER/isr.c:116
     298:	1141                	addi	sp,sp,-16
     29a:	c622                	sw	s0,12(sp)
     29c:	0800                	addi	s0,sp,16
C:\Users\16917\Desktop\Dual-core_Communication_Demo\Dual-core_Communication_Demo\MASTER\obj/../USER/isr.c:117
     29e:	08000593          	li	a1,128
     2a2:	400137b7          	lui	a5,0x40013
     2a6:	c0078513          	addi	a0,a5,-1024 # 40012c00 <_eusrstack+0x2000dc00>
     2aa:	6a7010ef          	jal	ra,2150 <TIM_GetITStatus>
     2ae:	87aa                	mv	a5,a0
     2b0:	cb89                	beqz	a5,2c2 <TIM1_BRK_IRQHandler+0x2a>
C:\Users\16917\Desktop\Dual-core_Communication_Demo\Dual-core_Communication_Demo\MASTER\obj/../USER/isr.c:119
     2b2:	08000593          	li	a1,128
     2b6:	400137b7          	lui	a5,0x40013
     2ba:	c0078513          	addi	a0,a5,-1024 # 40012c00 <_eusrstack+0x2000dc00>
     2be:	703010ef          	jal	ra,21c0 <TIM_ClearITPendingBit>
C:\Users\16917\Desktop\Dual-core_Communication_Demo\Dual-core_Communication_Demo\MASTER\obj/../USER/isr.c:122
     2c2:	0001                	nop
     2c4:	4432                	lw	s0,12(sp)
     2c6:	0141                	addi	sp,sp,16
     2c8:	30200073          	mret

000002cc <TIM1_UP_IRQHandler>:
TIM1_UP_IRQHandler():
C:\Users\16917\Desktop\Dual-core_Communication_Demo\Dual-core_Communication_Demo\MASTER\obj/../USER/isr.c:125
     2cc:	1141                	addi	sp,sp,-16
     2ce:	c622                	sw	s0,12(sp)
     2d0:	0800                	addi	s0,sp,16
C:\Users\16917\Desktop\Dual-core_Communication_Demo\Dual-core_Communication_Demo\MASTER\obj/../USER/isr.c:126
     2d2:	4585                	li	a1,1
     2d4:	400137b7          	lui	a5,0x40013
     2d8:	c0078513          	addi	a0,a5,-1024 # 40012c00 <_eusrstack+0x2000dc00>
     2dc:	675010ef          	jal	ra,2150 <TIM_GetITStatus>
     2e0:	87aa                	mv	a5,a0
     2e2:	cb81                	beqz	a5,2f2 <TIM1_UP_IRQHandler+0x26>
C:\Users\16917\Desktop\Dual-core_Communication_Demo\Dual-core_Communication_Demo\MASTER\obj/../USER/isr.c:128
     2e4:	4585                	li	a1,1
     2e6:	400137b7          	lui	a5,0x40013
     2ea:	c0078513          	addi	a0,a5,-1024 # 40012c00 <_eusrstack+0x2000dc00>
     2ee:	6d3010ef          	jal	ra,21c0 <TIM_ClearITPendingBit>
C:\Users\16917\Desktop\Dual-core_Communication_Demo\Dual-core_Communication_Demo\MASTER\obj/../USER/isr.c:131
     2f2:	0001                	nop
     2f4:	4432                	lw	s0,12(sp)
     2f6:	0141                	addi	sp,sp,16
     2f8:	30200073          	mret

000002fc <TIM1_TRG_COM_IRQHandler>:
TIM1_TRG_COM_IRQHandler():
C:\Users\16917\Desktop\Dual-core_Communication_Demo\Dual-core_Communication_Demo\MASTER\obj/../USER/isr.c:134
     2fc:	1141                	addi	sp,sp,-16
     2fe:	c622                	sw	s0,12(sp)
     300:	0800                	addi	s0,sp,16
C:\Users\16917\Desktop\Dual-core_Communication_Demo\Dual-core_Communication_Demo\MASTER\obj/../USER/isr.c:135
     302:	04000593          	li	a1,64
     306:	400137b7          	lui	a5,0x40013
     30a:	c0078513          	addi	a0,a5,-1024 # 40012c00 <_eusrstack+0x2000dc00>
     30e:	643010ef          	jal	ra,2150 <TIM_GetITStatus>
     312:	87aa                	mv	a5,a0
     314:	cb89                	beqz	a5,326 <TIM1_TRG_COM_IRQHandler+0x2a>
C:\Users\16917\Desktop\Dual-core_Communication_Demo\Dual-core_Communication_Demo\MASTER\obj/../USER/isr.c:137
     316:	04000593          	li	a1,64
     31a:	400137b7          	lui	a5,0x40013
     31e:	c0078513          	addi	a0,a5,-1024 # 40012c00 <_eusrstack+0x2000dc00>
     322:	69f010ef          	jal	ra,21c0 <TIM_ClearITPendingBit>
C:\Users\16917\Desktop\Dual-core_Communication_Demo\Dual-core_Communication_Demo\MASTER\obj/../USER/isr.c:140
     326:	02000593          	li	a1,32
     32a:	400137b7          	lui	a5,0x40013
     32e:	c0078513          	addi	a0,a5,-1024 # 40012c00 <_eusrstack+0x2000dc00>
     332:	61f010ef          	jal	ra,2150 <TIM_GetITStatus>
     336:	87aa                	mv	a5,a0
     338:	cb89                	beqz	a5,34a <TIM1_TRG_COM_IRQHandler+0x4e>
C:\Users\16917\Desktop\Dual-core_Communication_Demo\Dual-core_Communication_Demo\MASTER\obj/../USER/isr.c:142
     33a:	02000593          	li	a1,32
     33e:	400137b7          	lui	a5,0x40013
     342:	c0078513          	addi	a0,a5,-1024 # 40012c00 <_eusrstack+0x2000dc00>
     346:	67b010ef          	jal	ra,21c0 <TIM_ClearITPendingBit>
C:\Users\16917\Desktop\Dual-core_Communication_Demo\Dual-core_Communication_Demo\MASTER\obj/../USER/isr.c:145
     34a:	0001                	nop
     34c:	4432                	lw	s0,12(sp)
     34e:	0141                	addi	sp,sp,16
     350:	30200073          	mret

00000354 <TIM1_CC_IRQHandler>:
TIM1_CC_IRQHandler():
C:\Users\16917\Desktop\Dual-core_Communication_Demo\Dual-core_Communication_Demo\MASTER\obj/../USER/isr.c:148
     354:	1141                	addi	sp,sp,-16
     356:	c622                	sw	s0,12(sp)
     358:	0800                	addi	s0,sp,16
C:\Users\16917\Desktop\Dual-core_Communication_Demo\Dual-core_Communication_Demo\MASTER\obj/../USER/isr.c:149
     35a:	4589                	li	a1,2
     35c:	400137b7          	lui	a5,0x40013
     360:	c0078513          	addi	a0,a5,-1024 # 40012c00 <_eusrstack+0x2000dc00>
     364:	5ed010ef          	jal	ra,2150 <TIM_GetITStatus>
     368:	87aa                	mv	a5,a0
     36a:	cb81                	beqz	a5,37a <TIM1_CC_IRQHandler+0x26>
C:\Users\16917\Desktop\Dual-core_Communication_Demo\Dual-core_Communication_Demo\MASTER\obj/../USER/isr.c:151
     36c:	4589                	li	a1,2
     36e:	400137b7          	lui	a5,0x40013
     372:	c0078513          	addi	a0,a5,-1024 # 40012c00 <_eusrstack+0x2000dc00>
     376:	64b010ef          	jal	ra,21c0 <TIM_ClearITPendingBit>
C:\Users\16917\Desktop\Dual-core_Communication_Demo\Dual-core_Communication_Demo\MASTER\obj/../USER/isr.c:154
     37a:	4591                	li	a1,4
     37c:	400137b7          	lui	a5,0x40013
     380:	c0078513          	addi	a0,a5,-1024 # 40012c00 <_eusrstack+0x2000dc00>
     384:	5cd010ef          	jal	ra,2150 <TIM_GetITStatus>
     388:	87aa                	mv	a5,a0
     38a:	cb81                	beqz	a5,39a <TIM1_CC_IRQHandler+0x46>
C:\Users\16917\Desktop\Dual-core_Communication_Demo\Dual-core_Communication_Demo\MASTER\obj/../USER/isr.c:156
     38c:	4591                	li	a1,4
     38e:	400137b7          	lui	a5,0x40013
     392:	c0078513          	addi	a0,a5,-1024 # 40012c00 <_eusrstack+0x2000dc00>
     396:	62b010ef          	jal	ra,21c0 <TIM_ClearITPendingBit>
C:\Users\16917\Desktop\Dual-core_Communication_Demo\Dual-core_Communication_Demo\MASTER\obj/../USER/isr.c:159
     39a:	45a1                	li	a1,8
     39c:	400137b7          	lui	a5,0x40013
     3a0:	c0078513          	addi	a0,a5,-1024 # 40012c00 <_eusrstack+0x2000dc00>
     3a4:	5ad010ef          	jal	ra,2150 <TIM_GetITStatus>
     3a8:	87aa                	mv	a5,a0
     3aa:	cb81                	beqz	a5,3ba <TIM1_CC_IRQHandler+0x66>
C:\Users\16917\Desktop\Dual-core_Communication_Demo\Dual-core_Communication_Demo\MASTER\obj/../USER/isr.c:161
     3ac:	45a1                	li	a1,8
     3ae:	400137b7          	lui	a5,0x40013
     3b2:	c0078513          	addi	a0,a5,-1024 # 40012c00 <_eusrstack+0x2000dc00>
     3b6:	60b010ef          	jal	ra,21c0 <TIM_ClearITPendingBit>
C:\Users\16917\Desktop\Dual-core_Communication_Demo\Dual-core_Communication_Demo\MASTER\obj/../USER/isr.c:164
     3ba:	45c1                	li	a1,16
     3bc:	400137b7          	lui	a5,0x40013
     3c0:	c0078513          	addi	a0,a5,-1024 # 40012c00 <_eusrstack+0x2000dc00>
     3c4:	58d010ef          	jal	ra,2150 <TIM_GetITStatus>
     3c8:	87aa                	mv	a5,a0
     3ca:	cb81                	beqz	a5,3da <TIM1_CC_IRQHandler+0x86>
C:\Users\16917\Desktop\Dual-core_Communication_Demo\Dual-core_Communication_Demo\MASTER\obj/../USER/isr.c:166
     3cc:	45c1                	li	a1,16
     3ce:	400137b7          	lui	a5,0x40013
     3d2:	c0078513          	addi	a0,a5,-1024 # 40012c00 <_eusrstack+0x2000dc00>
     3d6:	5eb010ef          	jal	ra,21c0 <TIM_ClearITPendingBit>
C:\Users\16917\Desktop\Dual-core_Communication_Demo\Dual-core_Communication_Demo\MASTER\obj/../USER/isr.c:169
     3da:	0001                	nop
     3dc:	4432                	lw	s0,12(sp)
     3de:	0141                	addi	sp,sp,16
     3e0:	30200073          	mret

000003e4 <TIM2_IRQHandler>:
TIM2_IRQHandler():
C:\Users\16917\Desktop\Dual-core_Communication_Demo\Dual-core_Communication_Demo\MASTER\obj/../USER/isr.c:172
     3e4:	1141                	addi	sp,sp,-16
     3e6:	c622                	sw	s0,12(sp)
     3e8:	0800                	addi	s0,sp,16
C:\Users\16917\Desktop\Dual-core_Communication_Demo\Dual-core_Communication_Demo\MASTER\obj/../USER/isr.c:174
     3ea:	4585                	li	a1,1
     3ec:	40000537          	lui	a0,0x40000
     3f0:	561010ef          	jal	ra,2150 <TIM_GetITStatus>
     3f4:	87aa                	mv	a5,a0
     3f6:	c791                	beqz	a5,402 <TIM2_IRQHandler+0x1e>
C:\Users\16917\Desktop\Dual-core_Communication_Demo\Dual-core_Communication_Demo\MASTER\obj/../USER/isr.c:176
     3f8:	4585                	li	a1,1
     3fa:	40000537          	lui	a0,0x40000
     3fe:	5c3010ef          	jal	ra,21c0 <TIM_ClearITPendingBit>
C:\Users\16917\Desktop\Dual-core_Communication_Demo\Dual-core_Communication_Demo\MASTER\obj/../USER/isr.c:182
     402:	0001                	nop
     404:	4432                	lw	s0,12(sp)
     406:	0141                	addi	sp,sp,16
     408:	30200073          	mret

0000040c <TIM3_IRQHandler>:
TIM3_IRQHandler():
C:\Users\16917\Desktop\Dual-core_Communication_Demo\Dual-core_Communication_Demo\MASTER\obj/../USER/isr.c:185
     40c:	1141                	addi	sp,sp,-16
     40e:	c622                	sw	s0,12(sp)
     410:	0800                	addi	s0,sp,16
C:\Users\16917\Desktop\Dual-core_Communication_Demo\Dual-core_Communication_Demo\MASTER\obj/../USER/isr.c:186
     412:	4585                	li	a1,1
     414:	400007b7          	lui	a5,0x40000
     418:	40078513          	addi	a0,a5,1024 # 40000400 <_eusrstack+0x1fffb400>
     41c:	535010ef          	jal	ra,2150 <TIM_GetITStatus>
     420:	87aa                	mv	a5,a0
     422:	cb81                	beqz	a5,432 <TIM3_IRQHandler+0x26>
C:\Users\16917\Desktop\Dual-core_Communication_Demo\Dual-core_Communication_Demo\MASTER\obj/../USER/isr.c:188
     424:	4585                	li	a1,1
     426:	400007b7          	lui	a5,0x40000
     42a:	40078513          	addi	a0,a5,1024 # 40000400 <_eusrstack+0x1fffb400>
     42e:	593010ef          	jal	ra,21c0 <TIM_ClearITPendingBit>
C:\Users\16917\Desktop\Dual-core_Communication_Demo\Dual-core_Communication_Demo\MASTER\obj/../USER/isr.c:191
     432:	0001                	nop
     434:	4432                	lw	s0,12(sp)
     436:	0141                	addi	sp,sp,16
     438:	30200073          	mret

0000043c <TIM4_IRQHandler>:
TIM4_IRQHandler():
C:\Users\16917\Desktop\Dual-core_Communication_Demo\Dual-core_Communication_Demo\MASTER\obj/../USER/isr.c:194
     43c:	1141                	addi	sp,sp,-16
     43e:	c622                	sw	s0,12(sp)
     440:	0800                	addi	s0,sp,16
C:\Users\16917\Desktop\Dual-core_Communication_Demo\Dual-core_Communication_Demo\MASTER\obj/../USER/isr.c:195
     442:	4585                	li	a1,1
     444:	400017b7          	lui	a5,0x40001
     448:	80078513          	addi	a0,a5,-2048 # 40000800 <_eusrstack+0x1fffb800>
     44c:	505010ef          	jal	ra,2150 <TIM_GetITStatus>
     450:	87aa                	mv	a5,a0
     452:	cb81                	beqz	a5,462 <TIM4_IRQHandler+0x26>
C:\Users\16917\Desktop\Dual-core_Communication_Demo\Dual-core_Communication_Demo\MASTER\obj/../USER/isr.c:197
     454:	4585                	li	a1,1
     456:	400017b7          	lui	a5,0x40001
     45a:	80078513          	addi	a0,a5,-2048 # 40000800 <_eusrstack+0x1fffb800>
     45e:	563010ef          	jal	ra,21c0 <TIM_ClearITPendingBit>
C:\Users\16917\Desktop\Dual-core_Communication_Demo\Dual-core_Communication_Demo\MASTER\obj/../USER/isr.c:200
     462:	0001                	nop
     464:	4432                	lw	s0,12(sp)
     466:	0141                	addi	sp,sp,16
     468:	30200073          	mret

0000046c <USART1_IRQHandler>:
USART1_IRQHandler():
C:\Users\16917\Desktop\Dual-core_Communication_Demo\Dual-core_Communication_Demo\MASTER\obj/../USER/isr.c:203
     46c:	1141                	addi	sp,sp,-16
     46e:	c622                	sw	s0,12(sp)
     470:	0800                	addi	s0,sp,16
C:\Users\16917\Desktop\Dual-core_Communication_Demo\Dual-core_Communication_Demo\MASTER\obj/../USER/isr.c:205
     472:	0001                	nop
     474:	4432                	lw	s0,12(sp)
     476:	0141                	addi	sp,sp,16
     478:	30200073          	mret

0000047c <USART2_IRQHandler>:
USART2_IRQHandler():
C:\Users\16917\Desktop\Dual-core_Communication_Demo\Dual-core_Communication_Demo\MASTER\obj/../USER/isr.c:208
     47c:	1141                	addi	sp,sp,-16
     47e:	c622                	sw	s0,12(sp)
     480:	0800                	addi	s0,sp,16
C:\Users\16917\Desktop\Dual-core_Communication_Demo\Dual-core_Communication_Demo\MASTER\obj/../USER/isr.c:209
     482:	52500593          	li	a1,1317
     486:	400047b7          	lui	a5,0x40004
     48a:	40078513          	addi	a0,a5,1024 # 40004400 <_eusrstack+0x1ffff400>
     48e:	152020ef          	jal	ra,25e0 <USART_GetITStatus>
     492:	87aa                	mv	a5,a0
     494:	cf85                	beqz	a5,4cc <USART2_IRQHandler+0x50>
C:\Users\16917\Desktop\Dual-core_Communication_Demo\Dual-core_Communication_Demo\MASTER\obj/../USER/isr.c:211
     496:	52500593          	li	a1,1317
     49a:	400047b7          	lui	a5,0x40004
     49e:	40078513          	addi	a0,a5,1024 # 40004400 <_eusrstack+0x1ffff400>
     4a2:	240020ef          	jal	ra,26e2 <USART_ClearITPendingBit>
C:\Users\16917\Desktop\Dual-core_Communication_Demo\Dual-core_Communication_Demo\MASTER\obj/../USER/isr.c:212
     4a6:	200007b7          	lui	a5,0x20000
     4aa:	0747a703          	lw	a4,116(a5) # 20000074 <camera_type>
     4ae:	4789                	li	a5,2
     4b0:	00f71563          	bne	a4,a5,4ba <USART2_IRQHandler+0x3e>
C:\Users\16917\Desktop\Dual-core_Communication_Demo\Dual-core_Communication_Demo\MASTER\obj/../USER/isr.c:213
     4b4:	205020ef          	jal	ra,2eb8 <ov7725_cof_uart_interrupt>
C:\Users\16917\Desktop\Dual-core_Communication_Demo\Dual-core_Communication_Demo\MASTER\obj/../USER/isr.c:217
     4b8:	a811                	j	4cc <USART2_IRQHandler+0x50>
C:\Users\16917\Desktop\Dual-core_Communication_Demo\Dual-core_Communication_Demo\MASTER\obj/../USER/isr.c:214
     4ba:	200007b7          	lui	a5,0x20000
     4be:	0747a703          	lw	a4,116(a5) # 20000074 <camera_type>
     4c2:	4785                	li	a5,1
     4c4:	00f71463          	bne	a4,a5,4cc <USART2_IRQHandler+0x50>
C:\Users\16917\Desktop\Dual-core_Communication_Demo\Dual-core_Communication_Demo\MASTER\obj/../USER/isr.c:215
     4c8:	11d020ef          	jal	ra,2de4 <mt9v03x_uart_callback>
C:\Users\16917\Desktop\Dual-core_Communication_Demo\Dual-core_Communication_Demo\MASTER\obj/../USER/isr.c:217
     4cc:	0001                	nop
     4ce:	4432                	lw	s0,12(sp)
     4d0:	0141                	addi	sp,sp,16
     4d2:	30200073          	mret

000004d6 <DMA1_Channel4_IRQHandler>:
DMA1_Channel4_IRQHandler():
C:\Users\16917\Desktop\Dual-core_Communication_Demo\Dual-core_Communication_Demo\MASTER\obj/../USER/isr.c:225
     4d6:	1141                	addi	sp,sp,-16
     4d8:	c622                	sw	s0,12(sp)
     4da:	0800                	addi	s0,sp,16
C:\Users\16917\Desktop\Dual-core_Communication_Demo\Dual-core_Communication_Demo\MASTER\obj/../USER/isr.c:226
     4dc:	6509                	lui	a0,0x2
     4de:	29e5                	jal	9d6 <DMA_GetFlagStatus>
     4e0:	872a                	mv	a4,a0
     4e2:	4785                	li	a5,1
     4e4:	02f71763          	bne	a4,a5,512 <DMA1_Channel4_IRQHandler+0x3c>
C:\Users\16917\Desktop\Dual-core_Communication_Demo\Dual-core_Communication_Demo\MASTER\obj/../USER/isr.c:228
     4e8:	6509                	lui	a0,0x2
     4ea:	23a1                	jal	a32 <DMA_ClearFlag>
C:\Users\16917\Desktop\Dual-core_Communication_Demo\Dual-core_Communication_Demo\MASTER\obj/../USER/isr.c:229
     4ec:	200007b7          	lui	a5,0x20000
     4f0:	0747a703          	lw	a4,116(a5) # 20000074 <camera_type>
     4f4:	4789                	li	a5,2
     4f6:	00f71563          	bne	a4,a5,500 <DMA1_Channel4_IRQHandler+0x2a>
C:\Users\16917\Desktop\Dual-core_Communication_Demo\Dual-core_Communication_Demo\MASTER\obj/../USER/isr.c:230
     4fa:	265020ef          	jal	ra,2f5e <ov7725_uart_dma>
C:\Users\16917\Desktop\Dual-core_Communication_Demo\Dual-core_Communication_Demo\MASTER\obj/../USER/isr.c:234
     4fe:	a811                	j	512 <DMA1_Channel4_IRQHandler+0x3c>
C:\Users\16917\Desktop\Dual-core_Communication_Demo\Dual-core_Communication_Demo\MASTER\obj/../USER/isr.c:231
     500:	200007b7          	lui	a5,0x20000
     504:	0747a703          	lw	a4,116(a5) # 20000074 <camera_type>
     508:	4785                	li	a5,1
     50a:	00f71463          	bne	a4,a5,512 <DMA1_Channel4_IRQHandler+0x3c>
C:\Users\16917\Desktop\Dual-core_Communication_Demo\Dual-core_Communication_Demo\MASTER\obj/../USER/isr.c:232
     50e:	17d020ef          	jal	ra,2e8a <mt9v03x_dma>
C:\Users\16917\Desktop\Dual-core_Communication_Demo\Dual-core_Communication_Demo\MASTER\obj/../USER/isr.c:234
     512:	0001                	nop
     514:	4432                	lw	s0,12(sp)
     516:	0141                	addi	sp,sp,16
     518:	30200073          	mret

0000051c <NMI_Handler>:
NMI_Handler():
C:\Users\16917\Desktop\Dual-core_Communication_Demo\Dual-core_Communication_Demo\MASTER\obj/../USER/isr.c:243
     51c:	1141                	addi	sp,sp,-16
     51e:	c622                	sw	s0,12(sp)
     520:	0800                	addi	s0,sp,16
C:\Users\16917\Desktop\Dual-core_Communication_Demo\Dual-core_Communication_Demo\MASTER\obj/../USER/isr.c:245
     522:	0001                	nop
     524:	4432                	lw	s0,12(sp)
     526:	0141                	addi	sp,sp,16
     528:	30200073          	mret

0000052c <HardFault_Handler>:
HardFault_Handler():
C:\Users\16917\Desktop\Dual-core_Communication_Demo\Dual-core_Communication_Demo\MASTER\obj/../USER/isr.c:254
     52c:	1141                	addi	sp,sp,-16
     52e:	c622                	sw	s0,12(sp)
     530:	0800                	addi	s0,sp,16
C:\Users\16917\Desktop\Dual-core_Communication_Demo\Dual-core_Communication_Demo\MASTER\obj/../USER/isr.c:256 (discriminator 1)
     532:	a001                	j	532 <HardFault_Handler+0x6>

00000534 <get_slave_data>:
get_slave_data():
D:\A_Dual\Dual-core_Communication_Demo\Dual-core_Communication_Demo\MASTER\obj/../USER/main.c:55
//  @return     void
//  @since      v1.0
//  Sample usage:
//-------------------------------------------------------------------------------------------------------------------
void get_slave_data(uint8 data)
{
     534:	1101                	addi	sp,sp,-32
     536:	ce22                	sw	s0,28(sp)
     538:	1000                	addi	s0,sp,32
     53a:	87aa                	mv	a5,a0
     53c:	fef407a3          	sb	a5,-17(s0)
D:\A_Dual\Dual-core_Communication_Demo\Dual-core_Communication_Demo\MASTER\obj/../USER/main.c:57
    static uint8 uart_num = 0;
    temp_buff[uart_num++] = data;
     540:	8251c783          	lbu	a5,-2011(gp) # 20000095 <uart_num.5961>
     544:	00178713          	addi	a4,a5,1
     548:	0ff77693          	andi	a3,a4,255
     54c:	82d182a3          	sb	a3,-2011(gp) # 20000095 <uart_num.5961>
     550:	873e                	mv	a4,a5
     552:	84818793          	addi	a5,gp,-1976 # 200000b8 <temp_buff>
     556:	97ba                	add	a5,a5,a4
     558:	fef44703          	lbu	a4,-17(s0)
     55c:	00e78023          	sb	a4,0(a5)
D:\A_Dual\Dual-core_Communication_Demo\Dual-core_Communication_Demo\MASTER\obj/../USER/main.c:59

    if(1 == uart_num)
     560:	8251c703          	lbu	a4,-2011(gp) # 20000095 <uart_num.5961>
     564:	4785                	li	a5,1
     566:	00f71d63          	bne	a4,a5,580 <get_slave_data+0x4c>
D:\A_Dual\Dual-core_Communication_Demo\Dual-core_Communication_Demo\MASTER\obj/../USER/main.c:62
    {
        //0xD8
        if(0xD8 != temp_buff[0])
     56a:	8481c703          	lbu	a4,-1976(gp) # 200000b8 <temp_buff>
     56e:	0d800793          	li	a5,216
     572:	00f70763          	beq	a4,a5,580 <get_slave_data+0x4c>
D:\A_Dual\Dual-core_Communication_Demo\Dual-core_Communication_Demo\MASTER\obj/../USER/main.c:64
        {
            uart_num = 0;
     576:	820182a3          	sb	zero,-2011(gp) # 20000095 <uart_num.5961>
D:\A_Dual\Dual-core_Communication_Demo\Dual-core_Communication_Demo\MASTER\obj/../USER/main.c:65
            uart_flag = E_FRAME_HEADER_ERROR;
     57a:	4709                	li	a4,2
     57c:	80e18c23          	sb	a4,-2024(gp) # 20000088 <_edata>
D:\A_Dual\Dual-core_Communication_Demo\Dual-core_Communication_Demo\MASTER\obj/../USER/main.c:69
        }
    }

    if(LINE_LEN == uart_num)
     580:	8251c703          	lbu	a4,-2011(gp) # 20000095 <uart_num.5961>
     584:	47ad                	li	a5,11
     586:	02f71663          	bne	a4,a5,5b2 <get_slave_data+0x7e>
D:\A_Dual\Dual-core_Communication_Demo\Dual-core_Communication_Demo\MASTER\obj/../USER/main.c:71
    {
        uart_flag = E_OK;
     58a:	4705                	li	a4,1
     58c:	80e18c23          	sb	a4,-2024(gp) # 20000088 <_edata>
D:\A_Dual\Dual-core_Communication_Demo\Dual-core_Communication_Demo\MASTER\obj/../USER/main.c:73
        //0xEE
        if(0xEE == temp_buff[LINE_LEN - 1])
     590:	84818793          	addi	a5,gp,-1976 # 200000b8 <temp_buff>
     594:	00a7c703          	lbu	a4,10(a5)
     598:	0ee00793          	li	a5,238
     59c:	00f71663          	bne	a4,a5,5a8 <get_slave_data+0x74>
D:\A_Dual\Dual-core_Communication_Demo\Dual-core_Communication_Demo\MASTER\obj/../USER/main.c:75
        {
            uart_flag = E_OK;
     5a0:	4705                	li	a4,1
     5a2:	80e18c23          	sb	a4,-2024(gp) # 20000088 <_edata>
     5a6:	a021                	j	5ae <get_slave_data+0x7a>
D:\A_Dual\Dual-core_Communication_Demo\Dual-core_Communication_Demo\MASTER\obj/../USER/main.c:79
        }
        else    //0xEE
        {
            uart_flag = E_FRAME_RTAIL_ERROR;
     5a8:	470d                	li	a4,3
     5aa:	80e18c23          	sb	a4,-2024(gp) # 20000088 <_edata>
D:\A_Dual\Dual-core_Communication_Demo\Dual-core_Communication_Demo\MASTER\obj/../USER/main.c:81
        }
        uart_num = 0;
     5ae:	820182a3          	sb	zero,-2011(gp) # 20000095 <uart_num.5961>
D:\A_Dual\Dual-core_Communication_Demo\Dual-core_Communication_Demo\MASTER\obj/../USER/main.c:83
    }
}
     5b2:	0001                	nop
     5b4:	4472                	lw	s0,28(sp)
     5b6:	6105                	addi	sp,sp,32
     5b8:	8082                	ret

000005ba <data_analysis>:
data_analysis():
D:\A_Dual\Dual-core_Communication_Demo\Dual-core_Communication_Demo\MASTER\obj/../USER/main.c:93
//  @return     void
//  @since      v1.0
//  Sample usage:
//-------------------------------------------------------------------------------------------------------------------
void data_analysis(uint8 *line)
{
     5ba:	1101                	addi	sp,sp,-32
     5bc:	ce22                	sw	s0,28(sp)
     5be:	1000                	addi	s0,sp,32
     5c0:	fea42623          	sw	a0,-20(s0)
D:\A_Dual\Dual-core_Communication_Demo\Dual-core_Communication_Demo\MASTER\obj/../USER/main.c:94
    if(line[1] == 0xB0)    slave_encoder_left  = ((int16)line[2] << 8) | line[3];
     5c4:	fec42783          	lw	a5,-20(s0)
     5c8:	0785                	addi	a5,a5,1
     5ca:	0007c703          	lbu	a4,0(a5)
     5ce:	0b000793          	li	a5,176
     5d2:	02f71863          	bne	a4,a5,602 <data_analysis+0x48>
D:\A_Dual\Dual-core_Communication_Demo\Dual-core_Communication_Demo\MASTER\obj/../USER/main.c:94 (discriminator 1)
     5d6:	fec42783          	lw	a5,-20(s0)
     5da:	0789                	addi	a5,a5,2
     5dc:	0007c783          	lbu	a5,0(a5)
     5e0:	07a2                	slli	a5,a5,0x8
     5e2:	01079713          	slli	a4,a5,0x10
     5e6:	8741                	srai	a4,a4,0x10
     5e8:	fec42783          	lw	a5,-20(s0)
     5ec:	078d                	addi	a5,a5,3
     5ee:	0007c783          	lbu	a5,0(a5)
     5f2:	07c2                	slli	a5,a5,0x10
     5f4:	87c1                	srai	a5,a5,0x10
     5f6:	8fd9                	or	a5,a5,a4
     5f8:	01079713          	slli	a4,a5,0x10
     5fc:	8741                	srai	a4,a4,0x10
     5fe:	80e19d23          	sh	a4,-2022(gp) # 2000008a <slave_encoder_left>
D:\A_Dual\Dual-core_Communication_Demo\Dual-core_Communication_Demo\MASTER\obj/../USER/main.c:95
    if(line[4] == 0xB1)    slave_encoder_right = ((int16)line[5] << 8) | line[6];
     602:	fec42783          	lw	a5,-20(s0)
     606:	0791                	addi	a5,a5,4
     608:	0007c703          	lbu	a4,0(a5)
     60c:	0b100793          	li	a5,177
     610:	02f71863          	bne	a4,a5,640 <data_analysis+0x86>
D:\A_Dual\Dual-core_Communication_Demo\Dual-core_Communication_Demo\MASTER\obj/../USER/main.c:95 (discriminator 1)
     614:	fec42783          	lw	a5,-20(s0)
     618:	0795                	addi	a5,a5,5
     61a:	0007c783          	lbu	a5,0(a5)
     61e:	07a2                	slli	a5,a5,0x8
     620:	01079713          	slli	a4,a5,0x10
     624:	8741                	srai	a4,a4,0x10
     626:	fec42783          	lw	a5,-20(s0)
     62a:	0799                	addi	a5,a5,6
     62c:	0007c783          	lbu	a5,0(a5)
     630:	07c2                	slli	a5,a5,0x10
     632:	87c1                	srai	a5,a5,0x10
     634:	8fd9                	or	a5,a5,a4
     636:	01079713          	slli	a4,a5,0x10
     63a:	8741                	srai	a4,a4,0x10
     63c:	80e19e23          	sh	a4,-2020(gp) # 2000008c <slave_encoder_right>
D:\A_Dual\Dual-core_Communication_Demo\Dual-core_Communication_Demo\MASTER\obj/../USER/main.c:96
    if(line[7] == 0xB2)    slave_position      = ((int16)line[8] << 8) | line[9];
     640:	fec42783          	lw	a5,-20(s0)
     644:	079d                	addi	a5,a5,7
     646:	0007c703          	lbu	a4,0(a5)
     64a:	0b200793          	li	a5,178
     64e:	02f71863          	bne	a4,a5,67e <data_analysis+0xc4>
D:\A_Dual\Dual-core_Communication_Demo\Dual-core_Communication_Demo\MASTER\obj/../USER/main.c:96 (discriminator 1)
     652:	fec42783          	lw	a5,-20(s0)
     656:	07a1                	addi	a5,a5,8
     658:	0007c783          	lbu	a5,0(a5)
     65c:	07a2                	slli	a5,a5,0x8
     65e:	01079713          	slli	a4,a5,0x10
     662:	8741                	srai	a4,a4,0x10
     664:	fec42783          	lw	a5,-20(s0)
     668:	07a5                	addi	a5,a5,9
     66a:	0007c783          	lbu	a5,0(a5)
     66e:	07c2                	slli	a5,a5,0x10
     670:	87c1                	srai	a5,a5,0x10
     672:	8fd9                	or	a5,a5,a4
     674:	01079713          	slli	a4,a5,0x10
     678:	8741                	srai	a4,a4,0x10
     67a:	80e19f23          	sh	a4,-2018(gp) # 2000008e <slave_position>
D:\A_Dual\Dual-core_Communication_Demo\Dual-core_Communication_Demo\MASTER\obj/../USER/main.c:97
}
     67e:	0001                	nop
     680:	4472                	lw	s0,28(sp)
     682:	6105                	addi	sp,sp,32
     684:	8082                	ret

00000686 <USART3_IRQHandler>:
USART3_IRQHandler():
D:\A_Dual\Dual-core_Communication_Demo\Dual-core_Communication_Demo\MASTER\obj/../USER/main.c:108
//  @since      v1.0
//  Sample usage:
//-------------------------------------------------------------------------------------------------------------------
void USART3_IRQHandler(void) __attribute__((interrupt("WCH-Interrupt-fast")));
void USART3_IRQHandler(void)
{
     686:	1101                	addi	sp,sp,-32
     688:	ce22                	sw	s0,28(sp)
     68a:	1000                	addi	s0,sp,32
D:\A_Dual\Dual-core_Communication_Demo\Dual-core_Communication_Demo\MASTER\obj/../USER/main.c:110
    uint8 dat;
    if(USART_GetITStatus(USART3, USART_IT_RXNE) != RESET)
     68c:	52500593          	li	a1,1317
     690:	400057b7          	lui	a5,0x40005
     694:	80078513          	addi	a0,a5,-2048 # 40004800 <_eusrstack+0x1ffff800>
     698:	749010ef          	jal	ra,25e0 <USART_GetITStatus>
     69c:	87aa                	mv	a5,a0
     69e:	c795                	beqz	a5,6ca <USART3_IRQHandler+0x44>
D:\A_Dual\Dual-core_Communication_Demo\Dual-core_Communication_Demo\MASTER\obj/../USER/main.c:112
    {
        USART_ClearITPendingBit(USART3, USART_IT_RXNE); //
     6a0:	52500593          	li	a1,1317
     6a4:	400057b7          	lui	a5,0x40005
     6a8:	80078513          	addi	a0,a5,-2048 # 40004800 <_eusrstack+0x1ffff800>
     6ac:	036020ef          	jal	ra,26e2 <USART_ClearITPendingBit>
D:\A_Dual\Dual-core_Communication_Demo\Dual-core_Communication_Demo\MASTER\obj/../USER/main.c:113
        dat = USART_ReceiveData(USART3);                //
     6b0:	400057b7          	lui	a5,0x40005
     6b4:	80078513          	addi	a0,a5,-2048 # 40004800 <_eusrstack+0x1ffff800>
     6b8:	6bd010ef          	jal	ra,2574 <USART_ReceiveData>
     6bc:	87aa                	mv	a5,a0
     6be:	fef407a3          	sb	a5,-17(s0)
D:\A_Dual\Dual-core_Communication_Demo\Dual-core_Communication_Demo\MASTER\obj/../USER/main.c:114
        get_slave_data(dat);                            //temp_buff
     6c2:	fef44783          	lbu	a5,-17(s0)
     6c6:	853e                	mv	a0,a5
     6c8:	35b5                	jal	534 <get_slave_data>
D:\A_Dual\Dual-core_Communication_Demo\Dual-core_Communication_Demo\MASTER\obj/../USER/main.c:116
    }
}
     6ca:	0001                	nop
     6cc:	4472                	lw	s0,28(sp)
     6ce:	6105                	addi	sp,sp,32
     6d0:	30200073          	mret

000006d4 <EXTI0_IRQHandler>:
EXTI0_IRQHandler():
D:\A_Dual\Dual-core_Communication_Demo\Dual-core_Communication_Demo\MASTER\obj/../USER/main.c:127
//  @since      v1.0
//  Sample usage:
//-------------------------------------------------------------------------------------------------------------------
void EXTI0_IRQHandler(void) __attribute__((interrupt("WCH-Interrupt-fast")));
void EXTI0_IRQHandler(void)
{
     6d4:	1101                	addi	sp,sp,-32
     6d6:	ce22                	sw	s0,28(sp)
     6d8:	1000                	addi	s0,sp,32
D:\A_Dual\Dual-core_Communication_Demo\Dual-core_Communication_Demo\MASTER\obj/../USER/main.c:128
    if(SET == EXTI_GetITStatus(EXTI_Line0))
     6da:	4505                	li	a0,1
     6dc:	29fd                	jal	bda <EXTI_GetITStatus>
     6de:	872a                	mv	a4,a0
     6e0:	4785                	li	a5,1
     6e2:	18f71163          	bne	a4,a5,864 <__stack_size+0x64>
D:\A_Dual\Dual-core_Communication_Demo\Dual-core_Communication_Demo\MASTER\obj/../USER/main.c:130
    {
        EXTI_ClearITPendingBit(EXTI_Line0);
     6e6:	4505                	li	a0,1
     6e8:	23a1                	jal	c30 <EXTI_ClearITPendingBit>
D:\A_Dual\Dual-core_Communication_Demo\Dual-core_Communication_Demo\MASTER\obj/../USER/main.c:131
        while(uart_flag != E_OK);                       //
     6ea:	0001                	nop
D:\A_Dual\Dual-core_Communication_Demo\Dual-core_Communication_Demo\MASTER\obj/../USER/main.c:131 (discriminator 1)
     6ec:	8181c783          	lbu	a5,-2024(gp) # 20000088 <_edata>
     6f0:	0ff7f713          	andi	a4,a5,255
     6f4:	4785                	li	a5,1
     6f6:	fef71be3          	bne	a4,a5,6ec <EXTI0_IRQHandler+0x18>
D:\A_Dual\Dual-core_Communication_Demo\Dual-core_Communication_Demo\MASTER\obj/../USER/main.c:132
        uart_flag = E_START;                            //
     6fa:	80018c23          	sb	zero,-2024(gp) # 20000088 <_edata>
D:\A_Dual\Dual-core_Communication_Demo\Dual-core_Communication_Demo\MASTER\obj/../USER/main.c:133
        data_analysis(temp_buff);                       //
     6fe:	84818513          	addi	a0,gp,-1976 # 200000b8 <temp_buff>
     702:	3d65                	jal	5ba <data_analysis>
D:\A_Dual\Dual-core_Communication_Demo\Dual-core_Communication_Demo\MASTER\obj/../USER/main.c:135

        slave_encoder_right=-slave_encoder_right;
     704:	81c19783          	lh	a5,-2020(gp) # 2000008c <slave_encoder_right>
     708:	07c2                	slli	a5,a5,0x10
     70a:	83c1                	srli	a5,a5,0x10
     70c:	40f007b3          	neg	a5,a5
     710:	07c2                	slli	a5,a5,0x10
     712:	83c1                	srli	a5,a5,0x10
     714:	01079713          	slli	a4,a5,0x10
     718:	8741                	srai	a4,a4,0x10
     71a:	80e19e23          	sh	a4,-2020(gp) # 2000008c <slave_encoder_right>
D:\A_Dual\Dual-core_Communication_Demo\Dual-core_Communication_Demo\MASTER\obj/../USER/main.c:136
        master_encoder_left=timer_quad_get(TIMER_2);//
     71e:	4505                	li	a0,1
     720:	5cc030ef          	jal	ra,3cec <timer_quad_get>
     724:	87aa                	mv	a5,a0
     726:	873e                	mv	a4,a5
     728:	82e19023          	sh	a4,-2016(gp) # 20000090 <master_encoder_left>
D:\A_Dual\Dual-core_Communication_Demo\Dual-core_Communication_Demo\MASTER\obj/../USER/main.c:137
        master_encoder_right=-timer_quad_get(TIMER_3);//
     72c:	4509                	li	a0,2
     72e:	5be030ef          	jal	ra,3cec <timer_quad_get>
     732:	87aa                	mv	a5,a0
     734:	07c2                	slli	a5,a5,0x10
     736:	83c1                	srli	a5,a5,0x10
     738:	40f007b3          	neg	a5,a5
     73c:	07c2                	slli	a5,a5,0x10
     73e:	83c1                	srli	a5,a5,0x10
     740:	01079713          	slli	a4,a5,0x10
     744:	8741                	srai	a4,a4,0x10
     746:	82e19123          	sh	a4,-2014(gp) # 20000092 <master_encoder_right>
D:\A_Dual\Dual-core_Communication_Demo\Dual-core_Communication_Demo\MASTER\obj/../USER/main.c:138
        timer_quad_clear(TIMER_2);
     74a:	4505                	li	a0,1
     74c:	5d2030ef          	jal	ra,3d1e <timer_quad_clear>
D:\A_Dual\Dual-core_Communication_Demo\Dual-core_Communication_Demo\MASTER\obj/../USER/main.c:139
        timer_quad_clear(TIMER_3);
     750:	4509                	li	a0,2
     752:	5cc030ef          	jal	ra,3d1e <timer_quad_clear>
D:\A_Dual\Dual-core_Communication_Demo\Dual-core_Communication_Demo\MASTER\obj/../USER/main.c:140
        int16 target=20;
     756:	47d1                	li	a5,20
     758:	fef41323          	sh	a5,-26(s0)
D:\A_Dual\Dual-core_Communication_Demo\Dual-core_Communication_Demo\MASTER\obj/../USER/main.c:143
        int16 target_fl,target_fr,target_rl,target_rr;

        if(slave_position>10||slave_position<-10)
     75c:	81e19703          	lh	a4,-2018(gp) # 2000008e <slave_position>
     760:	47a9                	li	a5,10
     762:	00e7c763          	blt	a5,a4,770 <EXTI0_IRQHandler+0x9c>
D:\A_Dual\Dual-core_Communication_Demo\Dual-core_Communication_Demo\MASTER\obj/../USER/main.c:143 (discriminator 1)
     766:	81e19703          	lh	a4,-2018(gp) # 2000008e <slave_position>
     76a:	57d9                	li	a5,-10
     76c:	06f75163          	bge	a4,a5,7ce <EXTI0_IRQHandler+0xfa>
D:\A_Dual\Dual-core_Communication_Demo\Dual-core_Communication_Demo\MASTER\obj/../USER/main.c:145
        {
            target_fl=target+slave_position;
     770:	fe645703          	lhu	a4,-26(s0)
     774:	81e19783          	lh	a5,-2018(gp) # 2000008e <slave_position>
     778:	07c2                	slli	a5,a5,0x10
     77a:	83c1                	srli	a5,a5,0x10
     77c:	97ba                	add	a5,a5,a4
     77e:	07c2                	slli	a5,a5,0x10
     780:	83c1                	srli	a5,a5,0x10
     782:	fef41723          	sh	a5,-18(s0)
D:\A_Dual\Dual-core_Communication_Demo\Dual-core_Communication_Demo\MASTER\obj/../USER/main.c:146
            target_fr=target-slave_position;
     786:	fe645703          	lhu	a4,-26(s0)
     78a:	81e19783          	lh	a5,-2018(gp) # 2000008e <slave_position>
     78e:	07c2                	slli	a5,a5,0x10
     790:	83c1                	srli	a5,a5,0x10
     792:	40f707b3          	sub	a5,a4,a5
     796:	07c2                	slli	a5,a5,0x10
     798:	83c1                	srli	a5,a5,0x10
     79a:	fef41623          	sh	a5,-20(s0)
D:\A_Dual\Dual-core_Communication_Demo\Dual-core_Communication_Demo\MASTER\obj/../USER/main.c:147
            target_rl=target+slave_position;
     79e:	fe645703          	lhu	a4,-26(s0)
     7a2:	81e19783          	lh	a5,-2018(gp) # 2000008e <slave_position>
     7a6:	07c2                	slli	a5,a5,0x10
     7a8:	83c1                	srli	a5,a5,0x10
     7aa:	97ba                	add	a5,a5,a4
     7ac:	07c2                	slli	a5,a5,0x10
     7ae:	83c1                	srli	a5,a5,0x10
     7b0:	fef41523          	sh	a5,-22(s0)
D:\A_Dual\Dual-core_Communication_Demo\Dual-core_Communication_Demo\MASTER\obj/../USER/main.c:148
            target_rr=target-slave_position;
     7b4:	fe645703          	lhu	a4,-26(s0)
     7b8:	81e19783          	lh	a5,-2018(gp) # 2000008e <slave_position>
     7bc:	07c2                	slli	a5,a5,0x10
     7be:	83c1                	srli	a5,a5,0x10
     7c0:	40f707b3          	sub	a5,a4,a5
     7c4:	07c2                	slli	a5,a5,0x10
     7c6:	83c1                	srli	a5,a5,0x10
     7c8:	fef41423          	sh	a5,-24(s0)
     7cc:	a00d                	j	7ee <EXTI0_IRQHandler+0x11a>
D:\A_Dual\Dual-core_Communication_Demo\Dual-core_Communication_Demo\MASTER\obj/../USER/main.c:152
        }
        else
        {
            target_fl=target_fr=target_rl=target_rr=target;
     7ce:	fe645783          	lhu	a5,-26(s0)
     7d2:	fef41423          	sh	a5,-24(s0)
     7d6:	fe845783          	lhu	a5,-24(s0)
     7da:	fef41523          	sh	a5,-22(s0)
     7de:	fea45783          	lhu	a5,-22(s0)
     7e2:	fef41623          	sh	a5,-20(s0)
     7e6:	fec45783          	lhu	a5,-20(s0)
     7ea:	fef41723          	sh	a5,-18(s0)
D:\A_Dual\Dual-core_Communication_Demo\Dual-core_Communication_Demo\MASTER\obj/../USER/main.c:154
        }
        PID_incCtrl(&Pid_fl,(float)(target_fl-slave_encoder_left));
     7ee:	fee41783          	lh	a5,-18(s0)
     7f2:	81a19703          	lh	a4,-2022(gp) # 2000008a <slave_encoder_left>
     7f6:	8f99                	sub	a5,a5,a4
     7f8:	853e                	mv	a0,a5
     7fa:	197040ef          	jal	ra,5190 <__floatsisf>
     7fe:	87aa                	mv	a5,a0
     800:	85be                	mv	a1,a5
     802:	85418513          	addi	a0,gp,-1964 # 200000c4 <Pid_fl>
     806:	71d030ef          	jal	ra,4722 <PID_incCtrl>
D:\A_Dual\Dual-core_Communication_Demo\Dual-core_Communication_Demo\MASTER\obj/../USER/main.c:155
        PID_incCtrl(&Pid_fr,(float)(target_fr-slave_encoder_right));
     80a:	fec41783          	lh	a5,-20(s0)
     80e:	81c19703          	lh	a4,-2020(gp) # 2000008c <slave_encoder_right>
     812:	8f99                	sub	a5,a5,a4
     814:	853e                	mv	a0,a5
     816:	17b040ef          	jal	ra,5190 <__floatsisf>
     81a:	87aa                	mv	a5,a0
     81c:	85be                	mv	a1,a5
     81e:	88418513          	addi	a0,gp,-1916 # 200000f4 <Pid_fr>
     822:	701030ef          	jal	ra,4722 <PID_incCtrl>
D:\A_Dual\Dual-core_Communication_Demo\Dual-core_Communication_Demo\MASTER\obj/../USER/main.c:156
        PID_incCtrl(&Pid_rl,(float)(target_rl-master_encoder_left));
     826:	fea41783          	lh	a5,-22(s0)
     82a:	82019703          	lh	a4,-2016(gp) # 20000090 <master_encoder_left>
     82e:	8f99                	sub	a5,a5,a4
     830:	853e                	mv	a0,a5
     832:	15f040ef          	jal	ra,5190 <__floatsisf>
     836:	87aa                	mv	a5,a0
     838:	85be                	mv	a1,a5
     83a:	8b418513          	addi	a0,gp,-1868 # 20000124 <Pid_rl>
     83e:	6e5030ef          	jal	ra,4722 <PID_incCtrl>
D:\A_Dual\Dual-core_Communication_Demo\Dual-core_Communication_Demo\MASTER\obj/../USER/main.c:157
        PID_incCtrl(&Pid_rr,(float)(target_rr-master_encoder_right));
     842:	fe841783          	lh	a5,-24(s0)
     846:	82219703          	lh	a4,-2014(gp) # 20000092 <master_encoder_right>
     84a:	8f99                	sub	a5,a5,a4
     84c:	853e                	mv	a0,a5
     84e:	143040ef          	jal	ra,5190 <__floatsisf>
     852:	87aa                	mv	a5,a0
     854:	85be                	mv	a1,a5
     856:	8e418513          	addi	a0,gp,-1820 # 20000154 <Pid_rr>
     85a:	6c9030ef          	jal	ra,4722 <PID_incCtrl>
D:\A_Dual\Dual-core_Communication_Demo\Dual-core_Communication_Demo\MASTER\obj/../USER/main.c:160
        //Duty_All((int32)Pid_fl.out,(int32)Pid_fr.out,(int32)Pid_rl.out,(int32)Pid_rr.out);

        show_flag = 1;                                  //
     85e:	4705                	li	a4,1
     860:	82e18223          	sb	a4,-2012(gp) # 20000094 <show_flag>
D:\A_Dual\Dual-core_Communication_Demo\Dual-core_Communication_Demo\MASTER\obj/../USER/main.c:162
    }
}
     864:	0001                	nop
     866:	4472                	lw	s0,28(sp)
     868:	6105                	addi	sp,sp,32
     86a:	30200073          	mret

0000086e <Encoder_Init_Master>:
Encoder_Init_Master():
D:\A_Dual\Dual-core_Communication_Demo\Dual-core_Communication_Demo\MASTER\obj/../USER/main.c:165

void Encoder_Init_Master()//
{
     86e:	1141                	addi	sp,sp,-16
     870:	c606                	sw	ra,12(sp)
     872:	c422                	sw	s0,8(sp)
     874:	0800                	addi	s0,sp,16
D:\A_Dual\Dual-core_Communication_Demo\Dual-core_Communication_Demo\MASTER\obj/../USER/main.c:166
    timer_quad_init(TIMER_2,TIMER2_CHA_A15,TIMER2_CHB_B3);//32
     876:	4615                	li	a2,5
     878:	4591                	li	a1,4
     87a:	4505                	li	a0,1
     87c:	312030ef          	jal	ra,3b8e <timer_quad_init>
D:\A_Dual\Dual-core_Communication_Demo\Dual-core_Communication_Demo\MASTER\obj/../USER/main.c:167
    timer_quad_init(TIMER_3,TIMER3_CHA_B4,TIMER3_CHB_B5);//43
     880:	462d                	li	a2,11
     882:	45a9                	li	a1,10
     884:	4509                	li	a0,2
     886:	308030ef          	jal	ra,3b8e <timer_quad_init>
D:\A_Dual\Dual-core_Communication_Demo\Dual-core_Communication_Demo\MASTER\obj/../USER/main.c:168
    return;
     88a:	0001                	nop
D:\A_Dual\Dual-core_Communication_Demo\Dual-core_Communication_Demo\MASTER\obj/../USER/main.c:169
}
     88c:	40b2                	lw	ra,12(sp)
     88e:	4422                	lw	s0,8(sp)
     890:	0141                	addi	sp,sp,16
     892:	8082                	ret

00000894 <main>:
main():
D:\A_Dual\Dual-core_Communication_Demo\Dual-core_Communication_Demo\MASTER\obj/../USER/main.c:172

int main(void)
{
     894:	1141                	addi	sp,sp,-16
     896:	c606                	sw	ra,12(sp)
     898:	c422                	sw	s0,8(sp)
     89a:	0800                	addi	s0,sp,16
D:\A_Dual\Dual-core_Communication_Demo\Dual-core_Communication_Demo\MASTER\obj/../USER/main.c:173
    DisableGlobalIRQ();
     89c:	1f7020ef          	jal	ra,3292 <DisableGlobalIRQ>
D:\A_Dual\Dual-core_Communication_Demo\Dual-core_Communication_Demo\MASTER\obj/../USER/main.c:174
    board_init();           //MPU  
     8a0:	301030ef          	jal	ra,43a0 <board_init>
D:\A_Dual\Dual-core_Communication_Demo\Dual-core_Communication_Demo\MASTER\obj/../USER/main.c:176

    ips114_init();
     8a4:	7a1010ef          	jal	ra,2844 <ips114_init>
D:\A_Dual\Dual-core_Communication_Demo\Dual-core_Communication_Demo\MASTER\obj/../USER/main.c:182

    //
    //
    //

    uart_init(UART_3, 460800, UART3_TX_B10, UART3_RX_B11);  //3460800
     8a8:	02100693          	li	a3,33
     8ac:	02000613          	li	a2,32
     8b0:	000717b7          	lui	a5,0x71
     8b4:	80078593          	addi	a1,a5,-2048 # 70800 <_data_lma+0x69a68>
     8b8:	4509                	li	a0,2
     8ba:	191030ef          	jal	ra,424a <uart_init>
D:\A_Dual\Dual-core_Communication_Demo\Dual-core_Communication_Demo\MASTER\obj/../USER/main.c:183
    uart_rx_irq(UART_3, ENABLE);                            //0 0
     8be:	4585                	li	a1,1
     8c0:	4509                	li	a0,2
     8c2:	28f030ef          	jal	ra,4350 <uart_rx_irq>
D:\A_Dual\Dual-core_Communication_Demo\Dual-core_Communication_Demo\MASTER\obj/../USER/main.c:184
    gpio_interrupt_init(A0, RISING, GPIO_INT_CONFIG);       //A0GPIO 
     8c6:	04800613          	li	a2,72
     8ca:	45a1                	li	a1,8
     8cc:	4501                	li	a0,0
     8ce:	063020ef          	jal	ra,3130 <gpio_interrupt_init>
D:\A_Dual\Dual-core_Communication_Demo\Dual-core_Communication_Demo\MASTER\obj/../USER/main.c:185
    nvic_init(EXTI0_IRQn, 1, 1, ENABLE);                    //EXTI011
     8d2:	4685                	li	a3,1
     8d4:	4605                	li	a2,1
     8d6:	4585                	li	a1,1
     8d8:	4559                	li	a0,22
     8da:	0d7020ef          	jal	ra,31b0 <nvic_init>
D:\A_Dual\Dual-core_Communication_Demo\Dual-core_Communication_Demo\MASTER\obj/../USER/main.c:187

    PID_Init(&Pid_fl);
     8de:	85418513          	addi	a0,gp,-1964 # 200000c4 <Pid_fl>
     8e2:	5cd030ef          	jal	ra,46ae <PID_Init>
D:\A_Dual\Dual-core_Communication_Demo\Dual-core_Communication_Demo\MASTER\obj/../USER/main.c:188
    PID_Init(&Pid_fr);
     8e6:	88418513          	addi	a0,gp,-1916 # 200000f4 <Pid_fr>
     8ea:	5c5030ef          	jal	ra,46ae <PID_Init>
D:\A_Dual\Dual-core_Communication_Demo\Dual-core_Communication_Demo\MASTER\obj/../USER/main.c:189
    PID_Init(&Pid_rl);
     8ee:	8b418513          	addi	a0,gp,-1868 # 20000124 <Pid_rl>
     8f2:	5bd030ef          	jal	ra,46ae <PID_Init>
D:\A_Dual\Dual-core_Communication_Demo\Dual-core_Communication_Demo\MASTER\obj/../USER/main.c:190
    PID_Init(&Pid_rr);
     8f6:	8e418513          	addi	a0,gp,-1820 # 20000154 <Pid_rr>
     8fa:	5b5030ef          	jal	ra,46ae <PID_Init>
D:\A_Dual\Dual-core_Communication_Demo\Dual-core_Communication_Demo\MASTER\obj/../USER/main.c:191
    Duty_Init();
     8fe:	521030ef          	jal	ra,461e <Duty_Init>
D:\A_Dual\Dual-core_Communication_Demo\Dual-core_Communication_Demo\MASTER\obj/../USER/main.c:192
    Encoder_Init_Master();
     902:	37b5                	jal	86e <Encoder_Init_Master>
D:\A_Dual\Dual-core_Communication_Demo\Dual-core_Communication_Demo\MASTER\obj/../USER/main.c:196

    //()
    //
    EnableGlobalIRQ(0);
     904:	4501                	li	a0,0
     906:	1c9020ef          	jal	ra,32ce <EnableGlobalIRQ>
D:\A_Dual\Dual-core_Communication_Demo\Dual-core_Communication_Demo\MASTER\obj/../USER/main.c:199
    while(1)
    {
        if(show_flag)
     90a:	8241c783          	lbu	a5,-2012(gp) # 20000094 <show_flag>
     90e:	dff5                	beqz	a5,90a <main+0x76>
D:\A_Dual\Dual-core_Communication_Demo\Dual-core_Communication_Demo\MASTER\obj/../USER/main.c:202
        {
            //
            ips114_showint16(0, 0, slave_encoder_left);
     910:	81a19783          	lh	a5,-2022(gp) # 2000008a <slave_encoder_left>
     914:	863e                	mv	a2,a5
     916:	4581                	li	a1,0
     918:	4501                	li	a0,0
     91a:	354020ef          	jal	ra,2c6e <ips114_showint16>
D:\A_Dual\Dual-core_Communication_Demo\Dual-core_Communication_Demo\MASTER\obj/../USER/main.c:203
            ips114_showint16(0, 1, slave_encoder_right);
     91e:	81c19783          	lh	a5,-2020(gp) # 2000008c <slave_encoder_right>
     922:	863e                	mv	a2,a5
     924:	4585                	li	a1,1
     926:	4501                	li	a0,0
     928:	346020ef          	jal	ra,2c6e <ips114_showint16>
D:\A_Dual\Dual-core_Communication_Demo\Dual-core_Communication_Demo\MASTER\obj/../USER/main.c:204
            ips114_showint16(0, 2, master_encoder_left);
     92c:	82019783          	lh	a5,-2016(gp) # 20000090 <master_encoder_left>
     930:	863e                	mv	a2,a5
     932:	4589                	li	a1,2
     934:	4501                	li	a0,0
     936:	338020ef          	jal	ra,2c6e <ips114_showint16>
D:\A_Dual\Dual-core_Communication_Demo\Dual-core_Communication_Demo\MASTER\obj/../USER/main.c:205
            ips114_showint16(0, 3, master_encoder_right);
     93a:	82219783          	lh	a5,-2014(gp) # 20000092 <master_encoder_right>
     93e:	863e                	mv	a2,a5
     940:	458d                	li	a1,3
     942:	4501                	li	a0,0
     944:	32a020ef          	jal	ra,2c6e <ips114_showint16>
D:\A_Dual\Dual-core_Communication_Demo\Dual-core_Communication_Demo\MASTER\obj/../USER/main.c:206
            ips114_showint16(0, 4, slave_position);
     948:	81e19783          	lh	a5,-2018(gp) # 2000008e <slave_position>
     94c:	863e                	mv	a2,a5
     94e:	4591                	li	a1,4
     950:	4501                	li	a0,0
     952:	31c020ef          	jal	ra,2c6e <ips114_showint16>
D:\A_Dual\Dual-core_Communication_Demo\Dual-core_Communication_Demo\MASTER\obj/../USER/main.c:213
            /*ips114_showfloat(0,5,Pid_fl.out,4,2);
            ips114_showfloat(0,6,Pid_fr.out,4,2);
            ips114_showfloat(0,7,Pid_rl.out,4,2);
            ips114_showfloat(0,8,Pid_rr.out,4,2);*/

            show_flag = 0;
     956:	82018223          	sb	zero,-2012(gp) # 20000094 <show_flag>
D:\A_Dual\Dual-core_Communication_Demo\Dual-core_Communication_Demo\MASTER\obj/../USER/main.c:199
        if(show_flag)
     95a:	bf45                	j	90a <main+0x76>

0000095c <handle_reset>:
handle_reset():
C:\Users\16917\Desktop\Dual-core_Communication_Demo\Dual-core_Communication_Demo\MASTER\obj/../Libraries/wch_libraries/Startup/startup_ch32v10x.S:147
     95c:	20000197          	auipc	gp,0x20000
     960:	f1418193          	addi	gp,gp,-236 # 20000870 <__global_pointer$>
C:\Users\16917\Desktop\Dual-core_Communication_Demo\Dual-core_Communication_Demo\MASTER\obj/../Libraries/wch_libraries/Startup/startup_ch32v10x.S:150
     964:	20004117          	auipc	sp,0x20004
     968:	69c10113          	addi	sp,sp,1692 # 20005000 <_eusrstack>
C:\Users\16917\Desktop\Dual-core_Communication_Demo\Dual-core_Communication_Demo\MASTER\obj/../Libraries/wch_libraries/Startup/startup_ch32v10x.S:153
     96c:	00006517          	auipc	a0,0x6
     970:	42c50513          	addi	a0,a0,1068 # 6d98 <_data_lma>
C:\Users\16917\Desktop\Dual-core_Communication_Demo\Dual-core_Communication_Demo\MASTER\obj/../Libraries/wch_libraries/Startup/startup_ch32v10x.S:154
     974:	1ffff597          	auipc	a1,0x1ffff
     978:	68c58593          	addi	a1,a1,1676 # 20000000 <_data_vma>
C:\Users\16917\Desktop\Dual-core_Communication_Demo\Dual-core_Communication_Demo\MASTER\obj/../Libraries/wch_libraries/Startup/startup_ch32v10x.S:155
     97c:	81818613          	addi	a2,gp,-2024 # 20000088 <_edata>
C:\Users\16917\Desktop\Dual-core_Communication_Demo\Dual-core_Communication_Demo\MASTER\obj/../Libraries/wch_libraries/Startup/startup_ch32v10x.S:156
     980:	00c5fa63          	bgeu	a1,a2,994 <handle_reset+0x38>
C:\Users\16917\Desktop\Dual-core_Communication_Demo\Dual-core_Communication_Demo\MASTER\obj/../Libraries/wch_libraries/Startup/startup_ch32v10x.S:158
     984:	00052283          	lw	t0,0(a0)
C:\Users\16917\Desktop\Dual-core_Communication_Demo\Dual-core_Communication_Demo\MASTER\obj/../Libraries/wch_libraries/Startup/startup_ch32v10x.S:159
     988:	0055a023          	sw	t0,0(a1)
C:\Users\16917\Desktop\Dual-core_Communication_Demo\Dual-core_Communication_Demo\MASTER\obj/../Libraries/wch_libraries/Startup/startup_ch32v10x.S:160
     98c:	0511                	addi	a0,a0,4
C:\Users\16917\Desktop\Dual-core_Communication_Demo\Dual-core_Communication_Demo\MASTER\obj/../Libraries/wch_libraries/Startup/startup_ch32v10x.S:161
     98e:	0591                	addi	a1,a1,4
C:\Users\16917\Desktop\Dual-core_Communication_Demo\Dual-core_Communication_Demo\MASTER\obj/../Libraries/wch_libraries/Startup/startup_ch32v10x.S:162
     990:	fec5eae3          	bltu	a1,a2,984 <handle_reset+0x28>
C:\Users\16917\Desktop\Dual-core_Communication_Demo\Dual-core_Communication_Demo\MASTER\obj/../Libraries/wch_libraries/Startup/startup_ch32v10x.S:165
     994:	81818513          	addi	a0,gp,-2024 # 20000088 <_edata>
C:\Users\16917\Desktop\Dual-core_Communication_Demo\Dual-core_Communication_Demo\MASTER\obj/../Libraries/wch_libraries/Startup/startup_ch32v10x.S:166
     998:	92418593          	addi	a1,gp,-1756 # 20000194 <_ebss>
C:\Users\16917\Desktop\Dual-core_Communication_Demo\Dual-core_Communication_Demo\MASTER\obj/../Libraries/wch_libraries/Startup/startup_ch32v10x.S:167
     99c:	00b57763          	bgeu	a0,a1,9aa <handle_reset+0x4e>
C:\Users\16917\Desktop\Dual-core_Communication_Demo\Dual-core_Communication_Demo\MASTER\obj/../Libraries/wch_libraries/Startup/startup_ch32v10x.S:169
     9a0:	00052023          	sw	zero,0(a0)
C:\Users\16917\Desktop\Dual-core_Communication_Demo\Dual-core_Communication_Demo\MASTER\obj/../Libraries/wch_libraries/Startup/startup_ch32v10x.S:170
     9a4:	0511                	addi	a0,a0,4
C:\Users\16917\Desktop\Dual-core_Communication_Demo\Dual-core_Communication_Demo\MASTER\obj/../Libraries/wch_libraries/Startup/startup_ch32v10x.S:171
     9a6:	feb56de3          	bltu	a0,a1,9a0 <handle_reset+0x44>
C:\Users\16917\Desktop\Dual-core_Communication_Demo\Dual-core_Communication_Demo\MASTER\obj/../Libraries/wch_libraries/Startup/startup_ch32v10x.S:174
     9aa:	08800293          	li	t0,136
C:\Users\16917\Desktop\Dual-core_Communication_Demo\Dual-core_Communication_Demo\MASTER\obj/../Libraries/wch_libraries/Startup/startup_ch32v10x.S:175
     9ae:	3002a073          	csrs	mstatus,t0
C:\Users\16917\Desktop\Dual-core_Communication_Demo\Dual-core_Communication_Demo\MASTER\obj/../Libraries/wch_libraries/Startup/startup_ch32v10x.S:176
     9b2:	fffff297          	auipc	t0,0xfffff
     9b6:	68628293          	addi	t0,t0,1670 # 38 <_einit>
C:\Users\16917\Desktop\Dual-core_Communication_Demo\Dual-core_Communication_Demo\MASTER\obj/../Libraries/wch_libraries/Startup/startup_ch32v10x.S:177
     9ba:	0012e293          	ori	t0,t0,1
C:\Users\16917\Desktop\Dual-core_Communication_Demo\Dual-core_Communication_Demo\MASTER\obj/../Libraries/wch_libraries/Startup/startup_ch32v10x.S:178
     9be:	30529073          	csrw	mtvec,t0
C:\Users\16917\Desktop\Dual-core_Communication_Demo\Dual-core_Communication_Demo\MASTER\obj/../Libraries/wch_libraries/Startup/startup_ch32v10x.S:180
     9c2:	3df030ef          	jal	ra,45a0 <SystemInit>
C:\Users\16917\Desktop\Dual-core_Communication_Demo\Dual-core_Communication_Demo\MASTER\obj/../Libraries/wch_libraries/Startup/startup_ch32v10x.S:181
     9c6:	00000297          	auipc	t0,0x0
     9ca:	ece28293          	addi	t0,t0,-306 # 894 <main>
C:\Users\16917\Desktop\Dual-core_Communication_Demo\Dual-core_Communication_Demo\MASTER\obj/../Libraries/wch_libraries/Startup/startup_ch32v10x.S:182
     9ce:	34129073          	csrw	mepc,t0
C:\Users\16917\Desktop\Dual-core_Communication_Demo\Dual-core_Communication_Demo\MASTER\obj/../Libraries/wch_libraries/Startup/startup_ch32v10x.S:183
     9d2:	30200073          	mret

000009d6 <DMA_GetFlagStatus>:
DMA_GetFlagStatus():
C:\Users\16917\Desktop\Dual-core_Communication_Demo\Dual-core_Communication_Demo\MASTER\obj/../Libraries/wch_libraries/Peripheral/ch32v10x_dma.c:290
     9d6:	7179                	addi	sp,sp,-48
     9d8:	d622                	sw	s0,44(sp)
     9da:	1800                	addi	s0,sp,48
     9dc:	fca42e23          	sw	a0,-36(s0)
C:\Users\16917\Desktop\Dual-core_Communication_Demo\Dual-core_Communication_Demo\MASTER\obj/../Libraries/wch_libraries/Peripheral/ch32v10x_dma.c:291
     9e0:	fe042623          	sw	zero,-20(s0)
C:\Users\16917\Desktop\Dual-core_Communication_Demo\Dual-core_Communication_Demo\MASTER\obj/../Libraries/wch_libraries/Peripheral/ch32v10x_dma.c:292
     9e4:	fe042423          	sw	zero,-24(s0)
C:\Users\16917\Desktop\Dual-core_Communication_Demo\Dual-core_Communication_Demo\MASTER\obj/../Libraries/wch_libraries/Peripheral/ch32v10x_dma.c:294
     9e8:	fdc42703          	lw	a4,-36(s0)
     9ec:	100007b7          	lui	a5,0x10000
     9f0:	8ff9                	and	a5,a5,a4
     9f2:	cb89                	beqz	a5,a04 <DMA_GetFlagStatus+0x2e>
C:\Users\16917\Desktop\Dual-core_Communication_Demo\Dual-core_Communication_Demo\MASTER\obj/../Libraries/wch_libraries/Peripheral/ch32v10x_dma.c:296
     9f4:	400207b7          	lui	a5,0x40020
     9f8:	40078793          	addi	a5,a5,1024 # 40020400 <_eusrstack+0x2001b400>
     9fc:	439c                	lw	a5,0(a5)
     9fe:	fef42423          	sw	a5,-24(s0)
     a02:	a031                	j	a0e <DMA_GetFlagStatus+0x38>
C:\Users\16917\Desktop\Dual-core_Communication_Demo\Dual-core_Communication_Demo\MASTER\obj/../Libraries/wch_libraries/Peripheral/ch32v10x_dma.c:300
     a04:	400207b7          	lui	a5,0x40020
     a08:	439c                	lw	a5,0(a5)
     a0a:	fef42423          	sw	a5,-24(s0)
C:\Users\16917\Desktop\Dual-core_Communication_Demo\Dual-core_Communication_Demo\MASTER\obj/../Libraries/wch_libraries/Peripheral/ch32v10x_dma.c:303
     a0e:	fe842703          	lw	a4,-24(s0)
     a12:	fdc42783          	lw	a5,-36(s0)
     a16:	8ff9                	and	a5,a5,a4
     a18:	c789                	beqz	a5,a22 <DMA_GetFlagStatus+0x4c>
C:\Users\16917\Desktop\Dual-core_Communication_Demo\Dual-core_Communication_Demo\MASTER\obj/../Libraries/wch_libraries/Peripheral/ch32v10x_dma.c:305
     a1a:	4785                	li	a5,1
     a1c:	fef42623          	sw	a5,-20(s0)
     a20:	a019                	j	a26 <DMA_GetFlagStatus+0x50>
C:\Users\16917\Desktop\Dual-core_Communication_Demo\Dual-core_Communication_Demo\MASTER\obj/../Libraries/wch_libraries/Peripheral/ch32v10x_dma.c:309
     a22:	fe042623          	sw	zero,-20(s0)
C:\Users\16917\Desktop\Dual-core_Communication_Demo\Dual-core_Communication_Demo\MASTER\obj/../Libraries/wch_libraries/Peripheral/ch32v10x_dma.c:312
     a26:	fec42783          	lw	a5,-20(s0)
C:\Users\16917\Desktop\Dual-core_Communication_Demo\Dual-core_Communication_Demo\MASTER\obj/../Libraries/wch_libraries/Peripheral/ch32v10x_dma.c:313
     a2a:	853e                	mv	a0,a5
     a2c:	5432                	lw	s0,44(sp)
     a2e:	6145                	addi	sp,sp,48
     a30:	8082                	ret

00000a32 <DMA_ClearFlag>:
DMA_ClearFlag():
C:\Users\16917\Desktop\Dual-core_Communication_Demo\Dual-core_Communication_Demo\MASTER\obj/../Libraries/wch_libraries/Peripheral/ch32v10x_dma.c:371
     a32:	1101                	addi	sp,sp,-32
     a34:	ce22                	sw	s0,28(sp)
     a36:	1000                	addi	s0,sp,32
     a38:	fea42623          	sw	a0,-20(s0)
C:\Users\16917\Desktop\Dual-core_Communication_Demo\Dual-core_Communication_Demo\MASTER\obj/../Libraries/wch_libraries/Peripheral/ch32v10x_dma.c:372
     a3c:	fec42703          	lw	a4,-20(s0)
     a40:	100007b7          	lui	a5,0x10000
     a44:	8ff9                	and	a5,a5,a4
     a46:	cb89                	beqz	a5,a58 <DMA_ClearFlag+0x26>
C:\Users\16917\Desktop\Dual-core_Communication_Demo\Dual-core_Communication_Demo\MASTER\obj/../Libraries/wch_libraries/Peripheral/ch32v10x_dma.c:374
     a48:	400207b7          	lui	a5,0x40020
     a4c:	40078793          	addi	a5,a5,1024 # 40020400 <_eusrstack+0x2001b400>
     a50:	fec42703          	lw	a4,-20(s0)
     a54:	c3d8                	sw	a4,4(a5)
C:\Users\16917\Desktop\Dual-core_Communication_Demo\Dual-core_Communication_Demo\MASTER\obj/../Libraries/wch_libraries/Peripheral/ch32v10x_dma.c:380
     a56:	a031                	j	a62 <DMA_ClearFlag+0x30>
C:\Users\16917\Desktop\Dual-core_Communication_Demo\Dual-core_Communication_Demo\MASTER\obj/../Libraries/wch_libraries/Peripheral/ch32v10x_dma.c:378
     a58:	400207b7          	lui	a5,0x40020
     a5c:	fec42703          	lw	a4,-20(s0)
     a60:	c3d8                	sw	a4,4(a5)
C:\Users\16917\Desktop\Dual-core_Communication_Demo\Dual-core_Communication_Demo\MASTER\obj/../Libraries/wch_libraries/Peripheral/ch32v10x_dma.c:380
     a62:	0001                	nop
     a64:	4472                	lw	s0,28(sp)
     a66:	6105                	addi	sp,sp,32
     a68:	8082                	ret

00000a6a <EXTI_Init>:
EXTI_Init():
C:\Users\16917\Desktop\Dual-core_Communication_Demo\Dual-core_Communication_Demo\MASTER\obj/../Libraries/wch_libraries/Peripheral/ch32v10x_exti.c:37
     a6a:	7179                	addi	sp,sp,-48
     a6c:	d622                	sw	s0,44(sp)
     a6e:	1800                	addi	s0,sp,48
     a70:	fca42e23          	sw	a0,-36(s0)
C:\Users\16917\Desktop\Dual-core_Communication_Demo\Dual-core_Communication_Demo\MASTER\obj/../Libraries/wch_libraries/Peripheral/ch32v10x_exti.c:38
     a74:	fe042623          	sw	zero,-20(s0)
C:\Users\16917\Desktop\Dual-core_Communication_Demo\Dual-core_Communication_Demo\MASTER\obj/../Libraries/wch_libraries/Peripheral/ch32v10x_exti.c:40
     a78:	400107b7          	lui	a5,0x40010
     a7c:	40078793          	addi	a5,a5,1024 # 40010400 <_eusrstack+0x2000b400>
     a80:	fef42623          	sw	a5,-20(s0)
C:\Users\16917\Desktop\Dual-core_Communication_Demo\Dual-core_Communication_Demo\MASTER\obj/../Libraries/wch_libraries/Peripheral/ch32v10x_exti.c:41
     a84:	fdc42783          	lw	a5,-36(s0)
     a88:	47dc                	lw	a5,12(a5)
     a8a:	12078063          	beqz	a5,baa <EXTI_Init+0x140>
C:\Users\16917\Desktop\Dual-core_Communication_Demo\Dual-core_Communication_Demo\MASTER\obj/../Libraries/wch_libraries/Peripheral/ch32v10x_exti.c:43
     a8e:	400107b7          	lui	a5,0x40010
     a92:	40078793          	addi	a5,a5,1024 # 40010400 <_eusrstack+0x2000b400>
     a96:	4394                	lw	a3,0(a5)
     a98:	fdc42783          	lw	a5,-36(s0)
     a9c:	439c                	lw	a5,0(a5)
     a9e:	fff7c713          	not	a4,a5
     aa2:	400107b7          	lui	a5,0x40010
     aa6:	40078793          	addi	a5,a5,1024 # 40010400 <_eusrstack+0x2000b400>
     aaa:	8f75                	and	a4,a4,a3
     aac:	c398                	sw	a4,0(a5)
C:\Users\16917\Desktop\Dual-core_Communication_Demo\Dual-core_Communication_Demo\MASTER\obj/../Libraries/wch_libraries/Peripheral/ch32v10x_exti.c:44
     aae:	400107b7          	lui	a5,0x40010
     ab2:	40078793          	addi	a5,a5,1024 # 40010400 <_eusrstack+0x2000b400>
     ab6:	43d4                	lw	a3,4(a5)
     ab8:	fdc42783          	lw	a5,-36(s0)
     abc:	439c                	lw	a5,0(a5)
     abe:	fff7c713          	not	a4,a5
     ac2:	400107b7          	lui	a5,0x40010
     ac6:	40078793          	addi	a5,a5,1024 # 40010400 <_eusrstack+0x2000b400>
     aca:	8f75                	and	a4,a4,a3
     acc:	c3d8                	sw	a4,4(a5)
C:\Users\16917\Desktop\Dual-core_Communication_Demo\Dual-core_Communication_Demo\MASTER\obj/../Libraries/wch_libraries/Peripheral/ch32v10x_exti.c:45
     ace:	fdc42783          	lw	a5,-36(s0)
     ad2:	43dc                	lw	a5,4(a5)
     ad4:	fec42703          	lw	a4,-20(s0)
     ad8:	97ba                	add	a5,a5,a4
     ada:	fef42623          	sw	a5,-20(s0)
C:\Users\16917\Desktop\Dual-core_Communication_Demo\Dual-core_Communication_Demo\MASTER\obj/../Libraries/wch_libraries/Peripheral/ch32v10x_exti.c:46
     ade:	fec42783          	lw	a5,-20(s0)
     ae2:	4394                	lw	a3,0(a5)
     ae4:	fdc42783          	lw	a5,-36(s0)
     ae8:	4398                	lw	a4,0(a5)
     aea:	fec42783          	lw	a5,-20(s0)
     aee:	8f55                	or	a4,a4,a3
     af0:	c398                	sw	a4,0(a5)
C:\Users\16917\Desktop\Dual-core_Communication_Demo\Dual-core_Communication_Demo\MASTER\obj/../Libraries/wch_libraries/Peripheral/ch32v10x_exti.c:47
     af2:	400107b7          	lui	a5,0x40010
     af6:	40078793          	addi	a5,a5,1024 # 40010400 <_eusrstack+0x2000b400>
     afa:	4794                	lw	a3,8(a5)
     afc:	fdc42783          	lw	a5,-36(s0)
     b00:	439c                	lw	a5,0(a5)
     b02:	fff7c713          	not	a4,a5
     b06:	400107b7          	lui	a5,0x40010
     b0a:	40078793          	addi	a5,a5,1024 # 40010400 <_eusrstack+0x2000b400>
     b0e:	8f75                	and	a4,a4,a3
     b10:	c798                	sw	a4,8(a5)
C:\Users\16917\Desktop\Dual-core_Communication_Demo\Dual-core_Communication_Demo\MASTER\obj/../Libraries/wch_libraries/Peripheral/ch32v10x_exti.c:48
     b12:	400107b7          	lui	a5,0x40010
     b16:	40078793          	addi	a5,a5,1024 # 40010400 <_eusrstack+0x2000b400>
     b1a:	47d4                	lw	a3,12(a5)
     b1c:	fdc42783          	lw	a5,-36(s0)
     b20:	439c                	lw	a5,0(a5)
     b22:	fff7c713          	not	a4,a5
     b26:	400107b7          	lui	a5,0x40010
     b2a:	40078793          	addi	a5,a5,1024 # 40010400 <_eusrstack+0x2000b400>
     b2e:	8f75                	and	a4,a4,a3
     b30:	c7d8                	sw	a4,12(a5)
C:\Users\16917\Desktop\Dual-core_Communication_Demo\Dual-core_Communication_Demo\MASTER\obj/../Libraries/wch_libraries/Peripheral/ch32v10x_exti.c:49
     b32:	fdc42783          	lw	a5,-36(s0)
     b36:	4798                	lw	a4,8(a5)
     b38:	47c1                	li	a5,16
     b3a:	02f71f63          	bne	a4,a5,b78 <EXTI_Init+0x10e>
C:\Users\16917\Desktop\Dual-core_Communication_Demo\Dual-core_Communication_Demo\MASTER\obj/../Libraries/wch_libraries/Peripheral/ch32v10x_exti.c:51
     b3e:	400107b7          	lui	a5,0x40010
     b42:	40078793          	addi	a5,a5,1024 # 40010400 <_eusrstack+0x2000b400>
     b46:	4794                	lw	a3,8(a5)
     b48:	fdc42783          	lw	a5,-36(s0)
     b4c:	4398                	lw	a4,0(a5)
     b4e:	400107b7          	lui	a5,0x40010
     b52:	40078793          	addi	a5,a5,1024 # 40010400 <_eusrstack+0x2000b400>
     b56:	8f55                	or	a4,a4,a3
     b58:	c798                	sw	a4,8(a5)
C:\Users\16917\Desktop\Dual-core_Communication_Demo\Dual-core_Communication_Demo\MASTER\obj/../Libraries/wch_libraries/Peripheral/ch32v10x_exti.c:52
     b5a:	400107b7          	lui	a5,0x40010
     b5e:	40078793          	addi	a5,a5,1024 # 40010400 <_eusrstack+0x2000b400>
     b62:	47d4                	lw	a3,12(a5)
     b64:	fdc42783          	lw	a5,-36(s0)
     b68:	4398                	lw	a4,0(a5)
     b6a:	400107b7          	lui	a5,0x40010
     b6e:	40078793          	addi	a5,a5,1024 # 40010400 <_eusrstack+0x2000b400>
     b72:	8f55                	or	a4,a4,a3
     b74:	c7d8                	sw	a4,12(a5)
C:\Users\16917\Desktop\Dual-core_Communication_Demo\Dual-core_Communication_Demo\MASTER\obj/../Libraries/wch_libraries/Peripheral/ch32v10x_exti.c:66
     b76:	a8b1                	j	bd2 <EXTI_Init+0x168>
C:\Users\16917\Desktop\Dual-core_Communication_Demo\Dual-core_Communication_Demo\MASTER\obj/../Libraries/wch_libraries/Peripheral/ch32v10x_exti.c:56
     b78:	400107b7          	lui	a5,0x40010
     b7c:	40078793          	addi	a5,a5,1024 # 40010400 <_eusrstack+0x2000b400>
     b80:	fef42623          	sw	a5,-20(s0)
C:\Users\16917\Desktop\Dual-core_Communication_Demo\Dual-core_Communication_Demo\MASTER\obj/../Libraries/wch_libraries/Peripheral/ch32v10x_exti.c:57
     b84:	fdc42783          	lw	a5,-36(s0)
     b88:	479c                	lw	a5,8(a5)
     b8a:	fec42703          	lw	a4,-20(s0)
     b8e:	97ba                	add	a5,a5,a4
     b90:	fef42623          	sw	a5,-20(s0)
C:\Users\16917\Desktop\Dual-core_Communication_Demo\Dual-core_Communication_Demo\MASTER\obj/../Libraries/wch_libraries/Peripheral/ch32v10x_exti.c:58
     b94:	fec42783          	lw	a5,-20(s0)
     b98:	4394                	lw	a3,0(a5)
     b9a:	fdc42783          	lw	a5,-36(s0)
     b9e:	4398                	lw	a4,0(a5)
     ba0:	fec42783          	lw	a5,-20(s0)
     ba4:	8f55                	or	a4,a4,a3
     ba6:	c398                	sw	a4,0(a5)
C:\Users\16917\Desktop\Dual-core_Communication_Demo\Dual-core_Communication_Demo\MASTER\obj/../Libraries/wch_libraries/Peripheral/ch32v10x_exti.c:66
     ba8:	a02d                	j	bd2 <EXTI_Init+0x168>
C:\Users\16917\Desktop\Dual-core_Communication_Demo\Dual-core_Communication_Demo\MASTER\obj/../Libraries/wch_libraries/Peripheral/ch32v10x_exti.c:63
     baa:	fdc42783          	lw	a5,-36(s0)
     bae:	43dc                	lw	a5,4(a5)
     bb0:	fec42703          	lw	a4,-20(s0)
     bb4:	97ba                	add	a5,a5,a4
     bb6:	fef42623          	sw	a5,-20(s0)
C:\Users\16917\Desktop\Dual-core_Communication_Demo\Dual-core_Communication_Demo\MASTER\obj/../Libraries/wch_libraries/Peripheral/ch32v10x_exti.c:64
     bba:	fec42783          	lw	a5,-20(s0)
     bbe:	4394                	lw	a3,0(a5)
     bc0:	fdc42783          	lw	a5,-36(s0)
     bc4:	439c                	lw	a5,0(a5)
     bc6:	fff7c713          	not	a4,a5
     bca:	fec42783          	lw	a5,-20(s0)
     bce:	8f75                	and	a4,a4,a3
     bd0:	c398                	sw	a4,0(a5)
C:\Users\16917\Desktop\Dual-core_Communication_Demo\Dual-core_Communication_Demo\MASTER\obj/../Libraries/wch_libraries/Peripheral/ch32v10x_exti.c:66
     bd2:	0001                	nop
     bd4:	5432                	lw	s0,44(sp)
     bd6:	6145                	addi	sp,sp,48
     bd8:	8082                	ret

00000bda <EXTI_GetITStatus>:
EXTI_GetITStatus():
C:\Users\16917\Desktop\Dual-core_Communication_Demo\Dual-core_Communication_Demo\MASTER\obj/../Libraries/wch_libraries/Peripheral/ch32v10x_exti.c:131
     bda:	7179                	addi	sp,sp,-48
     bdc:	d622                	sw	s0,44(sp)
     bde:	1800                	addi	s0,sp,48
     be0:	fca42e23          	sw	a0,-36(s0)
C:\Users\16917\Desktop\Dual-core_Communication_Demo\Dual-core_Communication_Demo\MASTER\obj/../Libraries/wch_libraries/Peripheral/ch32v10x_exti.c:132
     be4:	fe042623          	sw	zero,-20(s0)
C:\Users\16917\Desktop\Dual-core_Communication_Demo\Dual-core_Communication_Demo\MASTER\obj/../Libraries/wch_libraries/Peripheral/ch32v10x_exti.c:133
     be8:	fe042423          	sw	zero,-24(s0)
C:\Users\16917\Desktop\Dual-core_Communication_Demo\Dual-core_Communication_Demo\MASTER\obj/../Libraries/wch_libraries/Peripheral/ch32v10x_exti.c:135
     bec:	400107b7          	lui	a5,0x40010
     bf0:	40078793          	addi	a5,a5,1024 # 40010400 <_eusrstack+0x2000b400>
     bf4:	439c                	lw	a5,0(a5)
     bf6:	fdc42703          	lw	a4,-36(s0)
     bfa:	8ff9                	and	a5,a5,a4
     bfc:	fef42423          	sw	a5,-24(s0)
C:\Users\16917\Desktop\Dual-core_Communication_Demo\Dual-core_Communication_Demo\MASTER\obj/../Libraries/wch_libraries/Peripheral/ch32v10x_exti.c:136
     c00:	400107b7          	lui	a5,0x40010
     c04:	40078793          	addi	a5,a5,1024 # 40010400 <_eusrstack+0x2000b400>
     c08:	4bd8                	lw	a4,20(a5)
     c0a:	fdc42783          	lw	a5,-36(s0)
     c0e:	8ff9                	and	a5,a5,a4
     c10:	cb81                	beqz	a5,c20 <EXTI_GetITStatus+0x46>
C:\Users\16917\Desktop\Dual-core_Communication_Demo\Dual-core_Communication_Demo\MASTER\obj/../Libraries/wch_libraries/Peripheral/ch32v10x_exti.c:136 (discriminator 1)
     c12:	fe842783          	lw	a5,-24(s0)
     c16:	c789                	beqz	a5,c20 <EXTI_GetITStatus+0x46>
C:\Users\16917\Desktop\Dual-core_Communication_Demo\Dual-core_Communication_Demo\MASTER\obj/../Libraries/wch_libraries/Peripheral/ch32v10x_exti.c:138
     c18:	4785                	li	a5,1
     c1a:	fef42623          	sw	a5,-20(s0)
     c1e:	a019                	j	c24 <EXTI_GetITStatus+0x4a>
C:\Users\16917\Desktop\Dual-core_Communication_Demo\Dual-core_Communication_Demo\MASTER\obj/../Libraries/wch_libraries/Peripheral/ch32v10x_exti.c:142
     c20:	fe042623          	sw	zero,-20(s0)
C:\Users\16917\Desktop\Dual-core_Communication_Demo\Dual-core_Communication_Demo\MASTER\obj/../Libraries/wch_libraries/Peripheral/ch32v10x_exti.c:144
     c24:	fec42783          	lw	a5,-20(s0)
C:\Users\16917\Desktop\Dual-core_Communication_Demo\Dual-core_Communication_Demo\MASTER\obj/../Libraries/wch_libraries/Peripheral/ch32v10x_exti.c:145
     c28:	853e                	mv	a0,a5
     c2a:	5432                	lw	s0,44(sp)
     c2c:	6145                	addi	sp,sp,48
     c2e:	8082                	ret

00000c30 <EXTI_ClearITPendingBit>:
EXTI_ClearITPendingBit():
C:\Users\16917\Desktop\Dual-core_Communication_Demo\Dual-core_Communication_Demo\MASTER\obj/../Libraries/wch_libraries/Peripheral/ch32v10x_exti.c:154
     c30:	1101                	addi	sp,sp,-32
     c32:	ce22                	sw	s0,28(sp)
     c34:	1000                	addi	s0,sp,32
     c36:	fea42623          	sw	a0,-20(s0)
C:\Users\16917\Desktop\Dual-core_Communication_Demo\Dual-core_Communication_Demo\MASTER\obj/../Libraries/wch_libraries/Peripheral/ch32v10x_exti.c:155
     c3a:	400107b7          	lui	a5,0x40010
     c3e:	40078793          	addi	a5,a5,1024 # 40010400 <_eusrstack+0x2000b400>
     c42:	fec42703          	lw	a4,-20(s0)
     c46:	cbd8                	sw	a4,20(a5)
C:\Users\16917\Desktop\Dual-core_Communication_Demo\Dual-core_Communication_Demo\MASTER\obj/../Libraries/wch_libraries/Peripheral/ch32v10x_exti.c:156
     c48:	0001                	nop
     c4a:	4472                	lw	s0,28(sp)
     c4c:	6105                	addi	sp,sp,32
     c4e:	8082                	ret

00000c50 <GPIO_Init>:
GPIO_Init():
C:\Users\16917\Desktop\Dual-core_Communication_Demo\Dual-core_Communication_Demo\MASTER\obj/../Libraries/wch_libraries/Peripheral/ch32v10x_gpio.c:88
     c50:	7139                	addi	sp,sp,-64
     c52:	de22                	sw	s0,60(sp)
     c54:	0080                	addi	s0,sp,64
     c56:	fca42623          	sw	a0,-52(s0)
     c5a:	fcb42423          	sw	a1,-56(s0)
C:\Users\16917\Desktop\Dual-core_Communication_Demo\Dual-core_Communication_Demo\MASTER\obj/../Libraries/wch_libraries/Peripheral/ch32v10x_gpio.c:89
     c5e:	fe042623          	sw	zero,-20(s0)
     c62:	fe042023          	sw	zero,-32(s0)
     c66:	fe042423          	sw	zero,-24(s0)
     c6a:	fc042e23          	sw	zero,-36(s0)
C:\Users\16917\Desktop\Dual-core_Communication_Demo\Dual-core_Communication_Demo\MASTER\obj/../Libraries/wch_libraries/Peripheral/ch32v10x_gpio.c:90
     c6e:	fe042223          	sw	zero,-28(s0)
     c72:	fc042c23          	sw	zero,-40(s0)
C:\Users\16917\Desktop\Dual-core_Communication_Demo\Dual-core_Communication_Demo\MASTER\obj/../Libraries/wch_libraries/Peripheral/ch32v10x_gpio.c:92
     c76:	fc842783          	lw	a5,-56(s0)
     c7a:	479c                	lw	a5,8(a5)
     c7c:	8bbd                	andi	a5,a5,15
     c7e:	fef42623          	sw	a5,-20(s0)
C:\Users\16917\Desktop\Dual-core_Communication_Demo\Dual-core_Communication_Demo\MASTER\obj/../Libraries/wch_libraries/Peripheral/ch32v10x_gpio.c:94
     c82:	fc842783          	lw	a5,-56(s0)
     c86:	479c                	lw	a5,8(a5)
     c88:	8bc1                	andi	a5,a5,16
     c8a:	cb89                	beqz	a5,c9c <GPIO_Init+0x4c>
C:\Users\16917\Desktop\Dual-core_Communication_Demo\Dual-core_Communication_Demo\MASTER\obj/../Libraries/wch_libraries/Peripheral/ch32v10x_gpio.c:96
     c8c:	fc842783          	lw	a5,-56(s0)
     c90:	43dc                	lw	a5,4(a5)
     c92:	fec42703          	lw	a4,-20(s0)
     c96:	8fd9                	or	a5,a5,a4
     c98:	fef42623          	sw	a5,-20(s0)
C:\Users\16917\Desktop\Dual-core_Communication_Demo\Dual-core_Communication_Demo\MASTER\obj/../Libraries/wch_libraries/Peripheral/ch32v10x_gpio.c:99
     c9c:	fc842783          	lw	a5,-56(s0)
     ca0:	0007d783          	lhu	a5,0(a5)
     ca4:	0ff7f793          	andi	a5,a5,255
     ca8:	cff1                	beqz	a5,d84 <GPIO_Init+0x134>
C:\Users\16917\Desktop\Dual-core_Communication_Demo\Dual-core_Communication_Demo\MASTER\obj/../Libraries/wch_libraries/Peripheral/ch32v10x_gpio.c:101
     caa:	fcc42783          	lw	a5,-52(s0)
     cae:	439c                	lw	a5,0(a5)
     cb0:	fef42223          	sw	a5,-28(s0)
C:\Users\16917\Desktop\Dual-core_Communication_Demo\Dual-core_Communication_Demo\MASTER\obj/../Libraries/wch_libraries/Peripheral/ch32v10x_gpio.c:103
     cb4:	fe042423          	sw	zero,-24(s0)
     cb8:	a865                	j	d70 <GPIO_Init+0x120>
C:\Users\16917\Desktop\Dual-core_Communication_Demo\Dual-core_Communication_Demo\MASTER\obj/../Libraries/wch_libraries/Peripheral/ch32v10x_gpio.c:105
     cba:	fe842783          	lw	a5,-24(s0)
     cbe:	4705                	li	a4,1
     cc0:	00f717b3          	sll	a5,a4,a5
     cc4:	fcf42e23          	sw	a5,-36(s0)
C:\Users\16917\Desktop\Dual-core_Communication_Demo\Dual-core_Communication_Demo\MASTER\obj/../Libraries/wch_libraries/Peripheral/ch32v10x_gpio.c:106
     cc8:	fc842783          	lw	a5,-56(s0)
     ccc:	0007d783          	lhu	a5,0(a5)
     cd0:	873e                	mv	a4,a5
     cd2:	fdc42783          	lw	a5,-36(s0)
     cd6:	8ff9                	and	a5,a5,a4
     cd8:	fef42023          	sw	a5,-32(s0)
C:\Users\16917\Desktop\Dual-core_Communication_Demo\Dual-core_Communication_Demo\MASTER\obj/../Libraries/wch_libraries/Peripheral/ch32v10x_gpio.c:108
     cdc:	fe042703          	lw	a4,-32(s0)
     ce0:	fdc42783          	lw	a5,-36(s0)
     ce4:	08f71163          	bne	a4,a5,d66 <GPIO_Init+0x116>
C:\Users\16917\Desktop\Dual-core_Communication_Demo\Dual-core_Communication_Demo\MASTER\obj/../Libraries/wch_libraries/Peripheral/ch32v10x_gpio.c:110
     ce8:	fe842783          	lw	a5,-24(s0)
     cec:	078a                	slli	a5,a5,0x2
     cee:	fcf42e23          	sw	a5,-36(s0)
C:\Users\16917\Desktop\Dual-core_Communication_Demo\Dual-core_Communication_Demo\MASTER\obj/../Libraries/wch_libraries/Peripheral/ch32v10x_gpio.c:111
     cf2:	fdc42783          	lw	a5,-36(s0)
     cf6:	473d                	li	a4,15
     cf8:	00f717b3          	sll	a5,a4,a5
     cfc:	fcf42c23          	sw	a5,-40(s0)
C:\Users\16917\Desktop\Dual-core_Communication_Demo\Dual-core_Communication_Demo\MASTER\obj/../Libraries/wch_libraries/Peripheral/ch32v10x_gpio.c:112
     d00:	fd842783          	lw	a5,-40(s0)
     d04:	fff7c793          	not	a5,a5
     d08:	fe442703          	lw	a4,-28(s0)
     d0c:	8ff9                	and	a5,a5,a4
     d0e:	fef42223          	sw	a5,-28(s0)
C:\Users\16917\Desktop\Dual-core_Communication_Demo\Dual-core_Communication_Demo\MASTER\obj/../Libraries/wch_libraries/Peripheral/ch32v10x_gpio.c:113
     d12:	fdc42783          	lw	a5,-36(s0)
     d16:	fec42703          	lw	a4,-20(s0)
     d1a:	00f717b3          	sll	a5,a4,a5
     d1e:	fe442703          	lw	a4,-28(s0)
     d22:	8fd9                	or	a5,a5,a4
     d24:	fef42223          	sw	a5,-28(s0)
C:\Users\16917\Desktop\Dual-core_Communication_Demo\Dual-core_Communication_Demo\MASTER\obj/../Libraries/wch_libraries/Peripheral/ch32v10x_gpio.c:115
     d28:	fc842783          	lw	a5,-56(s0)
     d2c:	4798                	lw	a4,8(a5)
     d2e:	02800793          	li	a5,40
     d32:	00f71b63          	bne	a4,a5,d48 <GPIO_Init+0xf8>
C:\Users\16917\Desktop\Dual-core_Communication_Demo\Dual-core_Communication_Demo\MASTER\obj/../Libraries/wch_libraries/Peripheral/ch32v10x_gpio.c:117
     d36:	fe842783          	lw	a5,-24(s0)
     d3a:	4705                	li	a4,1
     d3c:	00f71733          	sll	a4,a4,a5
     d40:	fcc42783          	lw	a5,-52(s0)
     d44:	cbd8                	sw	a4,20(a5)
     d46:	a005                	j	d66 <GPIO_Init+0x116>
C:\Users\16917\Desktop\Dual-core_Communication_Demo\Dual-core_Communication_Demo\MASTER\obj/../Libraries/wch_libraries/Peripheral/ch32v10x_gpio.c:121
     d48:	fc842783          	lw	a5,-56(s0)
     d4c:	4798                	lw	a4,8(a5)
     d4e:	04800793          	li	a5,72
     d52:	00f71a63          	bne	a4,a5,d66 <GPIO_Init+0x116>
C:\Users\16917\Desktop\Dual-core_Communication_Demo\Dual-core_Communication_Demo\MASTER\obj/../Libraries/wch_libraries/Peripheral/ch32v10x_gpio.c:123
     d56:	fe842783          	lw	a5,-24(s0)
     d5a:	4705                	li	a4,1
     d5c:	00f71733          	sll	a4,a4,a5
     d60:	fcc42783          	lw	a5,-52(s0)
     d64:	cb98                	sw	a4,16(a5)
C:\Users\16917\Desktop\Dual-core_Communication_Demo\Dual-core_Communication_Demo\MASTER\obj/../Libraries/wch_libraries/Peripheral/ch32v10x_gpio.c:103 (discriminator 2)
     d66:	fe842783          	lw	a5,-24(s0)
     d6a:	0785                	addi	a5,a5,1
     d6c:	fef42423          	sw	a5,-24(s0)
C:\Users\16917\Desktop\Dual-core_Communication_Demo\Dual-core_Communication_Demo\MASTER\obj/../Libraries/wch_libraries/Peripheral/ch32v10x_gpio.c:103 (discriminator 1)
     d70:	fe842703          	lw	a4,-24(s0)
     d74:	479d                	li	a5,7
     d76:	f4e7f2e3          	bgeu	a5,a4,cba <GPIO_Init+0x6a>
C:\Users\16917\Desktop\Dual-core_Communication_Demo\Dual-core_Communication_Demo\MASTER\obj/../Libraries/wch_libraries/Peripheral/ch32v10x_gpio.c:128
     d7a:	fcc42783          	lw	a5,-52(s0)
     d7e:	fe442703          	lw	a4,-28(s0)
     d82:	c398                	sw	a4,0(a5)
C:\Users\16917\Desktop\Dual-core_Communication_Demo\Dual-core_Communication_Demo\MASTER\obj/../Libraries/wch_libraries/Peripheral/ch32v10x_gpio.c:131
     d84:	fc842783          	lw	a5,-56(s0)
     d88:	0007d703          	lhu	a4,0(a5)
     d8c:	0ff00793          	li	a5,255
     d90:	0ee7f163          	bgeu	a5,a4,e72 <GPIO_Init+0x222>
C:\Users\16917\Desktop\Dual-core_Communication_Demo\Dual-core_Communication_Demo\MASTER\obj/../Libraries/wch_libraries/Peripheral/ch32v10x_gpio.c:133
     d94:	fcc42783          	lw	a5,-52(s0)
     d98:	43dc                	lw	a5,4(a5)
     d9a:	fef42223          	sw	a5,-28(s0)
C:\Users\16917\Desktop\Dual-core_Communication_Demo\Dual-core_Communication_Demo\MASTER\obj/../Libraries/wch_libraries/Peripheral/ch32v10x_gpio.c:135
     d9e:	fe042423          	sw	zero,-24(s0)
     da2:	a875                	j	e5e <GPIO_Init+0x20e>
C:\Users\16917\Desktop\Dual-core_Communication_Demo\Dual-core_Communication_Demo\MASTER\obj/../Libraries/wch_libraries/Peripheral/ch32v10x_gpio.c:137
     da4:	fe842783          	lw	a5,-24(s0)
     da8:	07a1                	addi	a5,a5,8
     daa:	4705                	li	a4,1
     dac:	00f717b3          	sll	a5,a4,a5
     db0:	fcf42e23          	sw	a5,-36(s0)
C:\Users\16917\Desktop\Dual-core_Communication_Demo\Dual-core_Communication_Demo\MASTER\obj/../Libraries/wch_libraries/Peripheral/ch32v10x_gpio.c:138
     db4:	fc842783          	lw	a5,-56(s0)
     db8:	0007d783          	lhu	a5,0(a5)
     dbc:	873e                	mv	a4,a5
     dbe:	fdc42783          	lw	a5,-36(s0)
     dc2:	8ff9                	and	a5,a5,a4
     dc4:	fef42023          	sw	a5,-32(s0)
C:\Users\16917\Desktop\Dual-core_Communication_Demo\Dual-core_Communication_Demo\MASTER\obj/../Libraries/wch_libraries/Peripheral/ch32v10x_gpio.c:140
     dc8:	fe042703          	lw	a4,-32(s0)
     dcc:	fdc42783          	lw	a5,-36(s0)
     dd0:	08f71263          	bne	a4,a5,e54 <GPIO_Init+0x204>
C:\Users\16917\Desktop\Dual-core_Communication_Demo\Dual-core_Communication_Demo\MASTER\obj/../Libraries/wch_libraries/Peripheral/ch32v10x_gpio.c:142
     dd4:	fe842783          	lw	a5,-24(s0)
     dd8:	078a                	slli	a5,a5,0x2
     dda:	fcf42e23          	sw	a5,-36(s0)
C:\Users\16917\Desktop\Dual-core_Communication_Demo\Dual-core_Communication_Demo\MASTER\obj/../Libraries/wch_libraries/Peripheral/ch32v10x_gpio.c:143
     dde:	fdc42783          	lw	a5,-36(s0)
     de2:	473d                	li	a4,15
     de4:	00f717b3          	sll	a5,a4,a5
     de8:	fcf42c23          	sw	a5,-40(s0)
C:\Users\16917\Desktop\Dual-core_Communication_Demo\Dual-core_Communication_Demo\MASTER\obj/../Libraries/wch_libraries/Peripheral/ch32v10x_gpio.c:144
     dec:	fd842783          	lw	a5,-40(s0)
     df0:	fff7c793          	not	a5,a5
     df4:	fe442703          	lw	a4,-28(s0)
     df8:	8ff9                	and	a5,a5,a4
     dfa:	fef42223          	sw	a5,-28(s0)
C:\Users\16917\Desktop\Dual-core_Communication_Demo\Dual-core_Communication_Demo\MASTER\obj/../Libraries/wch_libraries/Peripheral/ch32v10x_gpio.c:145
     dfe:	fdc42783          	lw	a5,-36(s0)
     e02:	fec42703          	lw	a4,-20(s0)
     e06:	00f717b3          	sll	a5,a4,a5
     e0a:	fe442703          	lw	a4,-28(s0)
     e0e:	8fd9                	or	a5,a5,a4
     e10:	fef42223          	sw	a5,-28(s0)
C:\Users\16917\Desktop\Dual-core_Communication_Demo\Dual-core_Communication_Demo\MASTER\obj/../Libraries/wch_libraries/Peripheral/ch32v10x_gpio.c:147
     e14:	fc842783          	lw	a5,-56(s0)
     e18:	4798                	lw	a4,8(a5)
     e1a:	02800793          	li	a5,40
     e1e:	00f71b63          	bne	a4,a5,e34 <GPIO_Init+0x1e4>
C:\Users\16917\Desktop\Dual-core_Communication_Demo\Dual-core_Communication_Demo\MASTER\obj/../Libraries/wch_libraries/Peripheral/ch32v10x_gpio.c:149
     e22:	fe842783          	lw	a5,-24(s0)
     e26:	07a1                	addi	a5,a5,8
     e28:	4705                	li	a4,1
     e2a:	00f71733          	sll	a4,a4,a5
     e2e:	fcc42783          	lw	a5,-52(s0)
     e32:	cbd8                	sw	a4,20(a5)
C:\Users\16917\Desktop\Dual-core_Communication_Demo\Dual-core_Communication_Demo\MASTER\obj/../Libraries/wch_libraries/Peripheral/ch32v10x_gpio.c:152
     e34:	fc842783          	lw	a5,-56(s0)
     e38:	4798                	lw	a4,8(a5)
     e3a:	04800793          	li	a5,72
     e3e:	00f71b63          	bne	a4,a5,e54 <GPIO_Init+0x204>
C:\Users\16917\Desktop\Dual-core_Communication_Demo\Dual-core_Communication_Demo\MASTER\obj/../Libraries/wch_libraries/Peripheral/ch32v10x_gpio.c:154
     e42:	fe842783          	lw	a5,-24(s0)
     e46:	07a1                	addi	a5,a5,8
     e48:	4705                	li	a4,1
     e4a:	00f71733          	sll	a4,a4,a5
     e4e:	fcc42783          	lw	a5,-52(s0)
     e52:	cb98                	sw	a4,16(a5)
C:\Users\16917\Desktop\Dual-core_Communication_Demo\Dual-core_Communication_Demo\MASTER\obj/../Libraries/wch_libraries/Peripheral/ch32v10x_gpio.c:135 (discriminator 2)
     e54:	fe842783          	lw	a5,-24(s0)
     e58:	0785                	addi	a5,a5,1
     e5a:	fef42423          	sw	a5,-24(s0)
C:\Users\16917\Desktop\Dual-core_Communication_Demo\Dual-core_Communication_Demo\MASTER\obj/../Libraries/wch_libraries/Peripheral/ch32v10x_gpio.c:135 (discriminator 1)
     e5e:	fe842703          	lw	a4,-24(s0)
     e62:	479d                	li	a5,7
     e64:	f4e7f0e3          	bgeu	a5,a4,da4 <GPIO_Init+0x154>
C:\Users\16917\Desktop\Dual-core_Communication_Demo\Dual-core_Communication_Demo\MASTER\obj/../Libraries/wch_libraries/Peripheral/ch32v10x_gpio.c:158
     e68:	fcc42783          	lw	a5,-52(s0)
     e6c:	fe442703          	lw	a4,-28(s0)
     e70:	c3d8                	sw	a4,4(a5)
C:\Users\16917\Desktop\Dual-core_Communication_Demo\Dual-core_Communication_Demo\MASTER\obj/../Libraries/wch_libraries/Peripheral/ch32v10x_gpio.c:160
     e72:	0001                	nop
     e74:	5472                	lw	s0,60(sp)
     e76:	6121                	addi	sp,sp,64
     e78:	8082                	ret

00000e7a <GPIO_WriteBit>:
GPIO_WriteBit():
C:\Users\16917\Desktop\Dual-core_Communication_Demo\Dual-core_Communication_Demo\MASTER\obj/../Libraries/wch_libraries/Peripheral/ch32v10x_gpio.c:282
     e7a:	1101                	addi	sp,sp,-32
     e7c:	ce22                	sw	s0,28(sp)
     e7e:	1000                	addi	s0,sp,32
     e80:	fea42623          	sw	a0,-20(s0)
     e84:	87ae                	mv	a5,a1
     e86:	fec42223          	sw	a2,-28(s0)
     e8a:	fef41523          	sh	a5,-22(s0)
C:\Users\16917\Desktop\Dual-core_Communication_Demo\Dual-core_Communication_Demo\MASTER\obj/../Libraries/wch_libraries/Peripheral/ch32v10x_gpio.c:283
     e8e:	fe442783          	lw	a5,-28(s0)
     e92:	c799                	beqz	a5,ea0 <GPIO_WriteBit+0x26>
C:\Users\16917\Desktop\Dual-core_Communication_Demo\Dual-core_Communication_Demo\MASTER\obj/../Libraries/wch_libraries/Peripheral/ch32v10x_gpio.c:285
     e94:	fea45703          	lhu	a4,-22(s0)
     e98:	fec42783          	lw	a5,-20(s0)
     e9c:	cb98                	sw	a4,16(a5)
C:\Users\16917\Desktop\Dual-core_Communication_Demo\Dual-core_Communication_Demo\MASTER\obj/../Libraries/wch_libraries/Peripheral/ch32v10x_gpio.c:291
     e9e:	a031                	j	eaa <GPIO_WriteBit+0x30>
C:\Users\16917\Desktop\Dual-core_Communication_Demo\Dual-core_Communication_Demo\MASTER\obj/../Libraries/wch_libraries/Peripheral/ch32v10x_gpio.c:289
     ea0:	fea45703          	lhu	a4,-22(s0)
     ea4:	fec42783          	lw	a5,-20(s0)
     ea8:	cbd8                	sw	a4,20(a5)
C:\Users\16917\Desktop\Dual-core_Communication_Demo\Dual-core_Communication_Demo\MASTER\obj/../Libraries/wch_libraries/Peripheral/ch32v10x_gpio.c:291
     eaa:	0001                	nop
     eac:	4472                	lw	s0,28(sp)
     eae:	6105                	addi	sp,sp,32
     eb0:	8082                	ret

00000eb2 <GPIO_PinRemapConfig>:
GPIO_PinRemapConfig():
C:\Users\16917\Desktop\Dual-core_Communication_Demo\Dual-core_Communication_Demo\MASTER\obj/../Libraries/wch_libraries/Peripheral/ch32v10x_gpio.c:402
     eb2:	7179                	addi	sp,sp,-48
     eb4:	d622                	sw	s0,44(sp)
     eb6:	1800                	addi	s0,sp,48
     eb8:	fca42e23          	sw	a0,-36(s0)
     ebc:	fcb42c23          	sw	a1,-40(s0)
C:\Users\16917\Desktop\Dual-core_Communication_Demo\Dual-core_Communication_Demo\MASTER\obj/../Libraries/wch_libraries/Peripheral/ch32v10x_gpio.c:403
     ec0:	fe042423          	sw	zero,-24(s0)
     ec4:	fe042223          	sw	zero,-28(s0)
     ec8:	fe042623          	sw	zero,-20(s0)
     ecc:	fe042023          	sw	zero,-32(s0)
C:\Users\16917\Desktop\Dual-core_Communication_Demo\Dual-core_Communication_Demo\MASTER\obj/../Libraries/wch_libraries/Peripheral/ch32v10x_gpio.c:405
     ed0:	fdc42783          	lw	a5,-36(s0)
     ed4:	0007d863          	bgez	a5,ee4 <GPIO_PinRemapConfig+0x32>
C:\Users\16917\Desktop\Dual-core_Communication_Demo\Dual-core_Communication_Demo\MASTER\obj/../Libraries/wch_libraries/Peripheral/ch32v10x_gpio.c:407
     ed8:	400107b7          	lui	a5,0x40010
     edc:	4fdc                	lw	a5,28(a5)
     ede:	fef42623          	sw	a5,-20(s0)
     ee2:	a031                	j	eee <GPIO_PinRemapConfig+0x3c>
C:\Users\16917\Desktop\Dual-core_Communication_Demo\Dual-core_Communication_Demo\MASTER\obj/../Libraries/wch_libraries/Peripheral/ch32v10x_gpio.c:411
     ee4:	400107b7          	lui	a5,0x40010
     ee8:	43dc                	lw	a5,4(a5)
     eea:	fef42623          	sw	a5,-20(s0)
C:\Users\16917\Desktop\Dual-core_Communication_Demo\Dual-core_Communication_Demo\MASTER\obj/../Libraries/wch_libraries/Peripheral/ch32v10x_gpio.c:414
     eee:	fdc42783          	lw	a5,-36(s0)
     ef2:	83c1                	srli	a5,a5,0x10
     ef4:	8bbd                	andi	a5,a5,15
     ef6:	fef42023          	sw	a5,-32(s0)
C:\Users\16917\Desktop\Dual-core_Communication_Demo\Dual-core_Communication_Demo\MASTER\obj/../Libraries/wch_libraries/Peripheral/ch32v10x_gpio.c:415
     efa:	fdc42703          	lw	a4,-36(s0)
     efe:	67c1                	lui	a5,0x10
     f00:	17fd                	addi	a5,a5,-1
     f02:	8ff9                	and	a5,a5,a4
     f04:	fef42423          	sw	a5,-24(s0)
C:\Users\16917\Desktop\Dual-core_Communication_Demo\Dual-core_Communication_Demo\MASTER\obj/../Libraries/wch_libraries/Peripheral/ch32v10x_gpio.c:417
     f08:	fdc42703          	lw	a4,-36(s0)
     f0c:	003007b7          	lui	a5,0x300
     f10:	8f7d                	and	a4,a4,a5
     f12:	003007b7          	lui	a5,0x300
     f16:	02f71563          	bne	a4,a5,f40 <GPIO_PinRemapConfig+0x8e>
C:\Users\16917\Desktop\Dual-core_Communication_Demo\Dual-core_Communication_Demo\MASTER\obj/../Libraries/wch_libraries/Peripheral/ch32v10x_gpio.c:419
     f1a:	fec42703          	lw	a4,-20(s0)
     f1e:	f10007b7          	lui	a5,0xf1000
     f22:	17fd                	addi	a5,a5,-1
     f24:	8ff9                	and	a5,a5,a4
     f26:	fef42623          	sw	a5,-20(s0)
C:\Users\16917\Desktop\Dual-core_Communication_Demo\Dual-core_Communication_Demo\MASTER\obj/../Libraries/wch_libraries/Peripheral/ch32v10x_gpio.c:420
     f2a:	400107b7          	lui	a5,0x40010
     f2e:	43d4                	lw	a3,4(a5)
     f30:	400107b7          	lui	a5,0x40010
     f34:	f1000737          	lui	a4,0xf1000
     f38:	177d                	addi	a4,a4,-1
     f3a:	8f75                	and	a4,a4,a3
     f3c:	c3d8                	sw	a4,4(a5)
     f3e:	a0ad                	j	fa8 <GPIO_PinRemapConfig+0xf6>
C:\Users\16917\Desktop\Dual-core_Communication_Demo\Dual-core_Communication_Demo\MASTER\obj/../Libraries/wch_libraries/Peripheral/ch32v10x_gpio.c:422
     f40:	fdc42703          	lw	a4,-36(s0)
     f44:	001007b7          	lui	a5,0x100
     f48:	8ff9                	and	a5,a5,a4
     f4a:	cb8d                	beqz	a5,f7c <GPIO_PinRemapConfig+0xca>
C:\Users\16917\Desktop\Dual-core_Communication_Demo\Dual-core_Communication_Demo\MASTER\obj/../Libraries/wch_libraries/Peripheral/ch32v10x_gpio.c:424
     f4c:	fe042783          	lw	a5,-32(s0)
     f50:	470d                	li	a4,3
     f52:	00f717b3          	sll	a5,a4,a5
     f56:	fef42223          	sw	a5,-28(s0)
C:\Users\16917\Desktop\Dual-core_Communication_Demo\Dual-core_Communication_Demo\MASTER\obj/../Libraries/wch_libraries/Peripheral/ch32v10x_gpio.c:425
     f5a:	fe442783          	lw	a5,-28(s0)
     f5e:	fff7c793          	not	a5,a5
     f62:	fec42703          	lw	a4,-20(s0)
     f66:	8ff9                	and	a5,a5,a4
     f68:	fef42623          	sw	a5,-20(s0)
C:\Users\16917\Desktop\Dual-core_Communication_Demo\Dual-core_Communication_Demo\MASTER\obj/../Libraries/wch_libraries/Peripheral/ch32v10x_gpio.c:426
     f6c:	fec42703          	lw	a4,-20(s0)
     f70:	0f0007b7          	lui	a5,0xf000
     f74:	8fd9                	or	a5,a5,a4
     f76:	fef42623          	sw	a5,-20(s0)
     f7a:	a03d                	j	fa8 <GPIO_PinRemapConfig+0xf6>
C:\Users\16917\Desktop\Dual-core_Communication_Demo\Dual-core_Communication_Demo\MASTER\obj/../Libraries/wch_libraries/Peripheral/ch32v10x_gpio.c:430
     f7c:	fdc42783          	lw	a5,-36(s0)
     f80:	83d5                	srli	a5,a5,0x15
     f82:	0792                	slli	a5,a5,0x4
     f84:	fe842703          	lw	a4,-24(s0)
     f88:	00f717b3          	sll	a5,a4,a5
     f8c:	fff7c793          	not	a5,a5
     f90:	fec42703          	lw	a4,-20(s0)
     f94:	8ff9                	and	a5,a5,a4
     f96:	fef42623          	sw	a5,-20(s0)
C:\Users\16917\Desktop\Dual-core_Communication_Demo\Dual-core_Communication_Demo\MASTER\obj/../Libraries/wch_libraries/Peripheral/ch32v10x_gpio.c:431
     f9a:	fec42703          	lw	a4,-20(s0)
     f9e:	0f0007b7          	lui	a5,0xf000
     fa2:	8fd9                	or	a5,a5,a4
     fa4:	fef42623          	sw	a5,-20(s0)
C:\Users\16917\Desktop\Dual-core_Communication_Demo\Dual-core_Communication_Demo\MASTER\obj/../Libraries/wch_libraries/Peripheral/ch32v10x_gpio.c:434
     fa8:	fd842783          	lw	a5,-40(s0)
     fac:	cf91                	beqz	a5,fc8 <GPIO_PinRemapConfig+0x116>
C:\Users\16917\Desktop\Dual-core_Communication_Demo\Dual-core_Communication_Demo\MASTER\obj/../Libraries/wch_libraries/Peripheral/ch32v10x_gpio.c:436
     fae:	fdc42783          	lw	a5,-36(s0)
     fb2:	83d5                	srli	a5,a5,0x15
     fb4:	0792                	slli	a5,a5,0x4
     fb6:	fe842703          	lw	a4,-24(s0)
     fba:	00f717b3          	sll	a5,a4,a5
     fbe:	fec42703          	lw	a4,-20(s0)
     fc2:	8fd9                	or	a5,a5,a4
     fc4:	fef42623          	sw	a5,-20(s0)
C:\Users\16917\Desktop\Dual-core_Communication_Demo\Dual-core_Communication_Demo\MASTER\obj/../Libraries/wch_libraries/Peripheral/ch32v10x_gpio.c:439
     fc8:	fdc42783          	lw	a5,-36(s0)
     fcc:	0007d863          	bgez	a5,fdc <GPIO_PinRemapConfig+0x12a>
C:\Users\16917\Desktop\Dual-core_Communication_Demo\Dual-core_Communication_Demo\MASTER\obj/../Libraries/wch_libraries/Peripheral/ch32v10x_gpio.c:441
     fd0:	400107b7          	lui	a5,0x40010
     fd4:	fec42703          	lw	a4,-20(s0)
     fd8:	cfd8                	sw	a4,28(a5)
C:\Users\16917\Desktop\Dual-core_Communication_Demo\Dual-core_Communication_Demo\MASTER\obj/../Libraries/wch_libraries/Peripheral/ch32v10x_gpio.c:447
     fda:	a031                	j	fe6 <GPIO_PinRemapConfig+0x134>
C:\Users\16917\Desktop\Dual-core_Communication_Demo\Dual-core_Communication_Demo\MASTER\obj/../Libraries/wch_libraries/Peripheral/ch32v10x_gpio.c:445
     fdc:	400107b7          	lui	a5,0x40010
     fe0:	fec42703          	lw	a4,-20(s0)
     fe4:	c3d8                	sw	a4,4(a5)
C:\Users\16917\Desktop\Dual-core_Communication_Demo\Dual-core_Communication_Demo\MASTER\obj/../Libraries/wch_libraries/Peripheral/ch32v10x_gpio.c:447
     fe6:	0001                	nop
     fe8:	5432                	lw	s0,44(sp)
     fea:	6145                	addi	sp,sp,48
     fec:	8082                	ret

00000fee <GPIO_EXTILineConfig>:
GPIO_EXTILineConfig():
C:\Users\16917\Desktop\Dual-core_Communication_Demo\Dual-core_Communication_Demo\MASTER\obj/../Libraries/wch_libraries/Peripheral/ch32v10x_gpio.c:459
     fee:	7179                	addi	sp,sp,-48
     ff0:	d622                	sw	s0,44(sp)
     ff2:	1800                	addi	s0,sp,48
     ff4:	87aa                	mv	a5,a0
     ff6:	872e                	mv	a4,a1
     ff8:	fcf40fa3          	sb	a5,-33(s0)
     ffc:	87ba                	mv	a5,a4
     ffe:	fcf40f23          	sb	a5,-34(s0)
C:\Users\16917\Desktop\Dual-core_Communication_Demo\Dual-core_Communication_Demo\MASTER\obj/../Libraries/wch_libraries/Peripheral/ch32v10x_gpio.c:460
    1002:	fe042623          	sw	zero,-20(s0)
C:\Users\16917\Desktop\Dual-core_Communication_Demo\Dual-core_Communication_Demo\MASTER\obj/../Libraries/wch_libraries/Peripheral/ch32v10x_gpio.c:462
    1006:	fde44783          	lbu	a5,-34(s0)
    100a:	8b8d                	andi	a5,a5,3
    100c:	078a                	slli	a5,a5,0x2
    100e:	473d                	li	a4,15
    1010:	00f717b3          	sll	a5,a4,a5
    1014:	fef42623          	sw	a5,-20(s0)
C:\Users\16917\Desktop\Dual-core_Communication_Demo\Dual-core_Communication_Demo\MASTER\obj/../Libraries/wch_libraries/Peripheral/ch32v10x_gpio.c:463
    1018:	40010737          	lui	a4,0x40010
    101c:	fde44783          	lbu	a5,-34(s0)
    1020:	8389                	srli	a5,a5,0x2
    1022:	0ff7f793          	andi	a5,a5,255
    1026:	078a                	slli	a5,a5,0x2
    1028:	97ba                	add	a5,a5,a4
    102a:	4798                	lw	a4,8(a5)
    102c:	fec42783          	lw	a5,-20(s0)
    1030:	fff7c793          	not	a5,a5
    1034:	400106b7          	lui	a3,0x40010
    1038:	fde44603          	lbu	a2,-34(s0)
    103c:	8209                	srli	a2,a2,0x2
    103e:	0ff67613          	andi	a2,a2,255
    1042:	8f7d                	and	a4,a4,a5
    1044:	00261793          	slli	a5,a2,0x2
    1048:	97b6                	add	a5,a5,a3
    104a:	c798                	sw	a4,8(a5)
C:\Users\16917\Desktop\Dual-core_Communication_Demo\Dual-core_Communication_Demo\MASTER\obj/../Libraries/wch_libraries/Peripheral/ch32v10x_gpio.c:464
    104c:	40010737          	lui	a4,0x40010
    1050:	fde44783          	lbu	a5,-34(s0)
    1054:	8389                	srli	a5,a5,0x2
    1056:	0ff7f793          	andi	a5,a5,255
    105a:	078a                	slli	a5,a5,0x2
    105c:	97ba                	add	a5,a5,a4
    105e:	4798                	lw	a4,8(a5)
    1060:	fdf44683          	lbu	a3,-33(s0)
    1064:	fde44783          	lbu	a5,-34(s0)
    1068:	8b8d                	andi	a5,a5,3
    106a:	078a                	slli	a5,a5,0x2
    106c:	00f697b3          	sll	a5,a3,a5
    1070:	400106b7          	lui	a3,0x40010
    1074:	fde44603          	lbu	a2,-34(s0)
    1078:	8209                	srli	a2,a2,0x2
    107a:	0ff67613          	andi	a2,a2,255
    107e:	8f5d                	or	a4,a4,a5
    1080:	00261793          	slli	a5,a2,0x2
    1084:	97b6                	add	a5,a5,a3
    1086:	c798                	sw	a4,8(a5)
C:\Users\16917\Desktop\Dual-core_Communication_Demo\Dual-core_Communication_Demo\MASTER\obj/../Libraries/wch_libraries/Peripheral/ch32v10x_gpio.c:465
    1088:	0001                	nop
    108a:	5432                	lw	s0,44(sp)
    108c:	6145                	addi	sp,sp,48
    108e:	8082                	ret

00001090 <NVIC_EnableIRQ>:
NVIC_EnableIRQ():
C:\Users\16917\Desktop\Dual-core_Communication_Demo\Dual-core_Communication_Demo\MASTER\obj/../Libraries/wch_libraries/Core/core_riscv.h:126
    1090:	1101                	addi	sp,sp,-32
    1092:	ce22                	sw	s0,28(sp)
    1094:	1000                	addi	s0,sp,32
    1096:	fea42623          	sw	a0,-20(s0)
C:\Users\16917\Desktop\Dual-core_Communication_Demo\Dual-core_Communication_Demo\MASTER\obj/../Libraries/wch_libraries/Core/core_riscv.h:127
    109a:	fec42783          	lw	a5,-20(s0)
    109e:	8bfd                	andi	a5,a5,31
    10a0:	4705                	li	a4,1
    10a2:	00f716b3          	sll	a3,a4,a5
    10a6:	e000e737          	lui	a4,0xe000e
    10aa:	fec42783          	lw	a5,-20(s0)
    10ae:	8395                	srli	a5,a5,0x5
    10b0:	04078793          	addi	a5,a5,64 # 40010040 <_eusrstack+0x2000b040>
    10b4:	078a                	slli	a5,a5,0x2
    10b6:	97ba                	add	a5,a5,a4
    10b8:	c394                	sw	a3,0(a5)
C:\Users\16917\Desktop\Dual-core_Communication_Demo\Dual-core_Communication_Demo\MASTER\obj/../Libraries/wch_libraries/Core/core_riscv.h:128
    10ba:	0001                	nop
    10bc:	4472                	lw	s0,28(sp)
    10be:	6105                	addi	sp,sp,32
    10c0:	8082                	ret

000010c2 <NVIC_DisableIRQ>:
NVIC_DisableIRQ():
C:\Users\16917\Desktop\Dual-core_Communication_Demo\Dual-core_Communication_Demo\MASTER\obj/../Libraries/wch_libraries/Core/core_riscv.h:137
    10c2:	1101                	addi	sp,sp,-32
    10c4:	ce22                	sw	s0,28(sp)
    10c6:	1000                	addi	s0,sp,32
    10c8:	fea42623          	sw	a0,-20(s0)
C:\Users\16917\Desktop\Dual-core_Communication_Demo\Dual-core_Communication_Demo\MASTER\obj/../Libraries/wch_libraries/Core/core_riscv.h:138
    10cc:	fec42783          	lw	a5,-20(s0)
    10d0:	8bfd                	andi	a5,a5,31
    10d2:	4705                	li	a4,1
    10d4:	00f716b3          	sll	a3,a4,a5
    10d8:	e000e737          	lui	a4,0xe000e
    10dc:	fec42783          	lw	a5,-20(s0)
    10e0:	8395                	srli	a5,a5,0x5
    10e2:	06078793          	addi	a5,a5,96
    10e6:	078a                	slli	a5,a5,0x2
    10e8:	97ba                	add	a5,a5,a4
    10ea:	c394                	sw	a3,0(a5)
C:\Users\16917\Desktop\Dual-core_Communication_Demo\Dual-core_Communication_Demo\MASTER\obj/../Libraries/wch_libraries/Core/core_riscv.h:139
    10ec:	0001                	nop
    10ee:	4472                	lw	s0,28(sp)
    10f0:	6105                	addi	sp,sp,32
    10f2:	8082                	ret

000010f4 <NVIC_SetPriority>:
NVIC_SetPriority():
C:\Users\16917\Desktop\Dual-core_Communication_Demo\Dual-core_Communication_Demo\MASTER\obj/../Libraries/wch_libraries/Core/core_riscv.h:208
    10f4:	1101                	addi	sp,sp,-32
    10f6:	ce22                	sw	s0,28(sp)
    10f8:	1000                	addi	s0,sp,32
    10fa:	fea42623          	sw	a0,-20(s0)
    10fe:	87ae                	mv	a5,a1
    1100:	fef405a3          	sb	a5,-21(s0)
C:\Users\16917\Desktop\Dual-core_Communication_Demo\Dual-core_Communication_Demo\MASTER\obj/../Libraries/wch_libraries/Core/core_riscv.h:209
    1104:	e000e737          	lui	a4,0xe000e
    1108:	fec42783          	lw	a5,-20(s0)
    110c:	97ba                	add	a5,a5,a4
    110e:	feb44703          	lbu	a4,-21(s0)
    1112:	40e78023          	sb	a4,1024(a5)
C:\Users\16917\Desktop\Dual-core_Communication_Demo\Dual-core_Communication_Demo\MASTER\obj/../Libraries/wch_libraries/Core/core_riscv.h:210
    1116:	0001                	nop
    1118:	4472                	lw	s0,28(sp)
    111a:	6105                	addi	sp,sp,32
    111c:	8082                	ret

0000111e <NVIC_Init>:
NVIC_Init():
C:\Users\16917\Desktop\Dual-core_Communication_Demo\Dual-core_Communication_Demo\MASTER\obj/../Libraries/wch_libraries/Peripheral/ch32v10x_misc.c:44
    111e:	1101                	addi	sp,sp,-32
    1120:	ce06                	sw	ra,28(sp)
    1122:	cc22                	sw	s0,24(sp)
    1124:	1000                	addi	s0,sp,32
    1126:	fea42623          	sw	a0,-20(s0)
C:\Users\16917\Desktop\Dual-core_Communication_Demo\Dual-core_Communication_Demo\MASTER\obj/../Libraries/wch_libraries/Peripheral/ch32v10x_misc.c:47
    112a:	e000e7b7          	lui	a5,0xe000e
    112e:	47bc                	lw	a5,72(a5)
    1130:	8b89                	andi	a5,a5,2
    1132:	c38d                	beqz	a5,1154 <NVIC_Init+0x36>
C:\Users\16917\Desktop\Dual-core_Communication_Demo\Dual-core_Communication_Demo\MASTER\obj/../Libraries/wch_libraries/Peripheral/ch32v10x_misc.c:49
    1134:	fec42783          	lw	a5,-20(s0)
    1138:	0007c783          	lbu	a5,0(a5) # e000e000 <_eusrstack+0xc0009000>
    113c:	873e                	mv	a4,a5
    113e:	fec42783          	lw	a5,-20(s0)
    1142:	0027c783          	lbu	a5,2(a5)
    1146:	0792                	slli	a5,a5,0x4
    1148:	0ff7f793          	andi	a5,a5,255
    114c:	85be                	mv	a1,a5
    114e:	853a                	mv	a0,a4
    1150:	3755                	jal	10f4 <NVIC_SetPriority>
    1152:	a095                	j	11b6 <NVIC_Init+0x98>
C:\Users\16917\Desktop\Dual-core_Communication_Demo\Dual-core_Communication_Demo\MASTER\obj/../Libraries/wch_libraries/Peripheral/ch32v10x_misc.c:51
    1154:	e000e7b7          	lui	a5,0xe000e
    1158:	47bc                	lw	a5,72(a5)
    115a:	8b89                	andi	a5,a5,2
    115c:	efa9                	bnez	a5,11b6 <NVIC_Init+0x98>
C:\Users\16917\Desktop\Dual-core_Communication_Demo\Dual-core_Communication_Demo\MASTER\obj/../Libraries/wch_libraries/Peripheral/ch32v10x_misc.c:53
    115e:	fec42783          	lw	a5,-20(s0)
    1162:	0017c703          	lbu	a4,1(a5) # e000e001 <_eusrstack+0xc0009001>
    1166:	4785                	li	a5,1
    1168:	02f71863          	bne	a4,a5,1198 <NVIC_Init+0x7a>
C:\Users\16917\Desktop\Dual-core_Communication_Demo\Dual-core_Communication_Demo\MASTER\obj/../Libraries/wch_libraries/Peripheral/ch32v10x_misc.c:55
    116c:	fec42783          	lw	a5,-20(s0)
    1170:	0007c783          	lbu	a5,0(a5)
    1174:	873e                	mv	a4,a5
    1176:	fec42783          	lw	a5,-20(s0)
    117a:	0027c783          	lbu	a5,2(a5)
    117e:	0792                	slli	a5,a5,0x4
    1180:	07e2                	slli	a5,a5,0x18
    1182:	87e1                	srai	a5,a5,0x18
    1184:	f807e793          	ori	a5,a5,-128
    1188:	07e2                	slli	a5,a5,0x18
    118a:	87e1                	srai	a5,a5,0x18
    118c:	0ff7f793          	andi	a5,a5,255
    1190:	85be                	mv	a1,a5
    1192:	853a                	mv	a0,a4
    1194:	3785                	jal	10f4 <NVIC_SetPriority>
    1196:	a005                	j	11b6 <NVIC_Init+0x98>
C:\Users\16917\Desktop\Dual-core_Communication_Demo\Dual-core_Communication_Demo\MASTER\obj/../Libraries/wch_libraries/Peripheral/ch32v10x_misc.c:59
    1198:	fec42783          	lw	a5,-20(s0)
    119c:	0007c783          	lbu	a5,0(a5)
    11a0:	873e                	mv	a4,a5
    11a2:	fec42783          	lw	a5,-20(s0)
    11a6:	0027c783          	lbu	a5,2(a5)
    11aa:	0792                	slli	a5,a5,0x4
    11ac:	0ff7f793          	andi	a5,a5,255
    11b0:	85be                	mv	a1,a5
    11b2:	853a                	mv	a0,a4
    11b4:	3781                	jal	10f4 <NVIC_SetPriority>
C:\Users\16917\Desktop\Dual-core_Communication_Demo\Dual-core_Communication_Demo\MASTER\obj/../Libraries/wch_libraries/Peripheral/ch32v10x_misc.c:93
    11b6:	fec42783          	lw	a5,-20(s0)
    11ba:	43dc                	lw	a5,4(a5)
    11bc:	cb81                	beqz	a5,11cc <NVIC_Init+0xae>
C:\Users\16917\Desktop\Dual-core_Communication_Demo\Dual-core_Communication_Demo\MASTER\obj/../Libraries/wch_libraries/Peripheral/ch32v10x_misc.c:95
    11be:	fec42783          	lw	a5,-20(s0)
    11c2:	0007c783          	lbu	a5,0(a5)
    11c6:	853e                	mv	a0,a5
    11c8:	35e1                	jal	1090 <NVIC_EnableIRQ>
C:\Users\16917\Desktop\Dual-core_Communication_Demo\Dual-core_Communication_Demo\MASTER\obj/../Libraries/wch_libraries/Peripheral/ch32v10x_misc.c:101
    11ca:	a039                	j	11d8 <NVIC_Init+0xba>
C:\Users\16917\Desktop\Dual-core_Communication_Demo\Dual-core_Communication_Demo\MASTER\obj/../Libraries/wch_libraries/Peripheral/ch32v10x_misc.c:99
    11cc:	fec42783          	lw	a5,-20(s0)
    11d0:	0007c783          	lbu	a5,0(a5)
    11d4:	853e                	mv	a0,a5
    11d6:	35f5                	jal	10c2 <NVIC_DisableIRQ>
C:\Users\16917\Desktop\Dual-core_Communication_Demo\Dual-core_Communication_Demo\MASTER\obj/../Libraries/wch_libraries/Peripheral/ch32v10x_misc.c:101
    11d8:	0001                	nop
    11da:	40f2                	lw	ra,28(sp)
    11dc:	4462                	lw	s0,24(sp)
    11de:	6105                	addi	sp,sp,32
    11e0:	8082                	ret

000011e2 <RCC_GetClocksFreq>:
RCC_GetClocksFreq():
C:\Users\16917\Desktop\Dual-core_Communication_Demo\Dual-core_Communication_Demo\MASTER\obj/../Libraries/wch_libraries/Peripheral/ch32v10x_rcc.c:469
    11e2:	7179                	addi	sp,sp,-48
    11e4:	d622                	sw	s0,44(sp)
    11e6:	1800                	addi	s0,sp,48
    11e8:	fca42e23          	sw	a0,-36(s0)
C:\Users\16917\Desktop\Dual-core_Communication_Demo\Dual-core_Communication_Demo\MASTER\obj/../Libraries/wch_libraries/Peripheral/ch32v10x_rcc.c:470
    11ec:	fe042623          	sw	zero,-20(s0)
    11f0:	fe042423          	sw	zero,-24(s0)
    11f4:	fe042223          	sw	zero,-28(s0)
    11f8:	fe042023          	sw	zero,-32(s0)
C:\Users\16917\Desktop\Dual-core_Communication_Demo\Dual-core_Communication_Demo\MASTER\obj/../Libraries/wch_libraries/Peripheral/ch32v10x_rcc.c:472
    11fc:	400217b7          	lui	a5,0x40021
    1200:	43dc                	lw	a5,4(a5)
    1202:	8bb1                	andi	a5,a5,12
    1204:	fef42623          	sw	a5,-20(s0)
    1208:	fec42703          	lw	a4,-20(s0)
    120c:	4791                	li	a5,4
    120e:	02f70263          	beq	a4,a5,1232 <RCC_GetClocksFreq+0x50>
    1212:	fec42703          	lw	a4,-20(s0)
    1216:	47a1                	li	a5,8
    1218:	02f70563          	beq	a4,a5,1242 <RCC_GetClocksFreq+0x60>
    121c:	fec42783          	lw	a5,-20(s0)
    1220:	e7c5                	bnez	a5,12c8 <RCC_GetClocksFreq+0xe6>
C:\Users\16917\Desktop\Dual-core_Communication_Demo\Dual-core_Communication_Demo\MASTER\obj/../Libraries/wch_libraries/Peripheral/ch32v10x_rcc.c:477
    1222:	fdc42783          	lw	a5,-36(s0)
    1226:	007a1737          	lui	a4,0x7a1
    122a:	20070713          	addi	a4,a4,512 # 7a1200 <_data_lma+0x79a468>
    122e:	c398                	sw	a4,0(a5)
C:\Users\16917\Desktop\Dual-core_Communication_Demo\Dual-core_Communication_Demo\MASTER\obj/../Libraries/wch_libraries/Peripheral/ch32v10x_rcc.c:478
    1230:	a065                	j	12d8 <RCC_GetClocksFreq+0xf6>
C:\Users\16917\Desktop\Dual-core_Communication_Demo\Dual-core_Communication_Demo\MASTER\obj/../Libraries/wch_libraries/Peripheral/ch32v10x_rcc.c:481
    1232:	fdc42783          	lw	a5,-36(s0)
    1236:	007a1737          	lui	a4,0x7a1
    123a:	20070713          	addi	a4,a4,512 # 7a1200 <_data_lma+0x79a468>
    123e:	c398                	sw	a4,0(a5)
C:\Users\16917\Desktop\Dual-core_Communication_Demo\Dual-core_Communication_Demo\MASTER\obj/../Libraries/wch_libraries/Peripheral/ch32v10x_rcc.c:482
    1240:	a861                	j	12d8 <RCC_GetClocksFreq+0xf6>
C:\Users\16917\Desktop\Dual-core_Communication_Demo\Dual-core_Communication_Demo\MASTER\obj/../Libraries/wch_libraries/Peripheral/ch32v10x_rcc.c:485
    1242:	400217b7          	lui	a5,0x40021
    1246:	43d8                	lw	a4,4(a5)
    1248:	003c07b7          	lui	a5,0x3c0
    124c:	8ff9                	and	a5,a5,a4
    124e:	fef42423          	sw	a5,-24(s0)
C:\Users\16917\Desktop\Dual-core_Communication_Demo\Dual-core_Communication_Demo\MASTER\obj/../Libraries/wch_libraries/Peripheral/ch32v10x_rcc.c:486
    1252:	400217b7          	lui	a5,0x40021
    1256:	43d8                	lw	a4,4(a5)
    1258:	67c1                	lui	a5,0x10
    125a:	8ff9                	and	a5,a5,a4
    125c:	fef42223          	sw	a5,-28(s0)
C:\Users\16917\Desktop\Dual-core_Communication_Demo\Dual-core_Communication_Demo\MASTER\obj/../Libraries/wch_libraries/Peripheral/ch32v10x_rcc.c:487
    1260:	fe842783          	lw	a5,-24(s0)
    1264:	83c9                	srli	a5,a5,0x12
    1266:	0789                	addi	a5,a5,2
    1268:	fef42423          	sw	a5,-24(s0)
C:\Users\16917\Desktop\Dual-core_Communication_Demo\Dual-core_Communication_Demo\MASTER\obj/../Libraries/wch_libraries/Peripheral/ch32v10x_rcc.c:489
    126c:	fe442783          	lw	a5,-28(s0)
    1270:	ef89                	bnez	a5,128a <RCC_GetClocksFreq+0xa8>
C:\Users\16917\Desktop\Dual-core_Communication_Demo\Dual-core_Communication_Demo\MASTER\obj/../Libraries/wch_libraries/Peripheral/ch32v10x_rcc.c:491
    1272:	fe842703          	lw	a4,-24(s0)
    1276:	003d17b7          	lui	a5,0x3d1
    127a:	90078793          	addi	a5,a5,-1792 # 3d0900 <_data_lma+0x3c9b68>
    127e:	02f70733          	mul	a4,a4,a5
    1282:	fdc42783          	lw	a5,-36(s0)
    1286:	c398                	sw	a4,0(a5)
C:\Users\16917\Desktop\Dual-core_Communication_Demo\Dual-core_Communication_Demo\MASTER\obj/../Libraries/wch_libraries/Peripheral/ch32v10x_rcc.c:504
    1288:	a881                	j	12d8 <RCC_GetClocksFreq+0xf6>
C:\Users\16917\Desktop\Dual-core_Communication_Demo\Dual-core_Communication_Demo\MASTER\obj/../Libraries/wch_libraries/Peripheral/ch32v10x_rcc.c:495
    128a:	400217b7          	lui	a5,0x40021
    128e:	43d8                	lw	a4,4(a5)
    1290:	000207b7          	lui	a5,0x20
    1294:	8ff9                	and	a5,a5,a4
    1296:	cf89                	beqz	a5,12b0 <RCC_GetClocksFreq+0xce>
C:\Users\16917\Desktop\Dual-core_Communication_Demo\Dual-core_Communication_Demo\MASTER\obj/../Libraries/wch_libraries/Peripheral/ch32v10x_rcc.c:497
    1298:	fe842703          	lw	a4,-24(s0)
    129c:	003d17b7          	lui	a5,0x3d1
    12a0:	90078793          	addi	a5,a5,-1792 # 3d0900 <_data_lma+0x3c9b68>
    12a4:	02f70733          	mul	a4,a4,a5
    12a8:	fdc42783          	lw	a5,-36(s0)
    12ac:	c398                	sw	a4,0(a5)
C:\Users\16917\Desktop\Dual-core_Communication_Demo\Dual-core_Communication_Demo\MASTER\obj/../Libraries/wch_libraries/Peripheral/ch32v10x_rcc.c:504
    12ae:	a02d                	j	12d8 <RCC_GetClocksFreq+0xf6>
C:\Users\16917\Desktop\Dual-core_Communication_Demo\Dual-core_Communication_Demo\MASTER\obj/../Libraries/wch_libraries/Peripheral/ch32v10x_rcc.c:501
    12b0:	fe842703          	lw	a4,-24(s0)
    12b4:	007a17b7          	lui	a5,0x7a1
    12b8:	20078793          	addi	a5,a5,512 # 7a1200 <_data_lma+0x79a468>
    12bc:	02f70733          	mul	a4,a4,a5
    12c0:	fdc42783          	lw	a5,-36(s0)
    12c4:	c398                	sw	a4,0(a5)
C:\Users\16917\Desktop\Dual-core_Communication_Demo\Dual-core_Communication_Demo\MASTER\obj/../Libraries/wch_libraries/Peripheral/ch32v10x_rcc.c:504
    12c6:	a809                	j	12d8 <RCC_GetClocksFreq+0xf6>
C:\Users\16917\Desktop\Dual-core_Communication_Demo\Dual-core_Communication_Demo\MASTER\obj/../Libraries/wch_libraries/Peripheral/ch32v10x_rcc.c:507
    12c8:	fdc42783          	lw	a5,-36(s0)
    12cc:	007a1737          	lui	a4,0x7a1
    12d0:	20070713          	addi	a4,a4,512 # 7a1200 <_data_lma+0x79a468>
    12d4:	c398                	sw	a4,0(a5)
C:\Users\16917\Desktop\Dual-core_Communication_Demo\Dual-core_Communication_Demo\MASTER\obj/../Libraries/wch_libraries/Peripheral/ch32v10x_rcc.c:508
    12d6:	0001                	nop
C:\Users\16917\Desktop\Dual-core_Communication_Demo\Dual-core_Communication_Demo\MASTER\obj/../Libraries/wch_libraries/Peripheral/ch32v10x_rcc.c:511
    12d8:	400217b7          	lui	a5,0x40021
    12dc:	43dc                	lw	a5,4(a5)
    12de:	0f07f793          	andi	a5,a5,240
    12e2:	fef42623          	sw	a5,-20(s0)
C:\Users\16917\Desktop\Dual-core_Communication_Demo\Dual-core_Communication_Demo\MASTER\obj/../Libraries/wch_libraries/Peripheral/ch32v10x_rcc.c:512
    12e6:	fec42783          	lw	a5,-20(s0)
    12ea:	8391                	srli	a5,a5,0x4
    12ec:	fef42623          	sw	a5,-20(s0)
C:\Users\16917\Desktop\Dual-core_Communication_Demo\Dual-core_Communication_Demo\MASTER\obj/../Libraries/wch_libraries/Peripheral/ch32v10x_rcc.c:513
    12f0:	200007b7          	lui	a5,0x20000
    12f4:	00078713          	mv	a4,a5
    12f8:	fec42783          	lw	a5,-20(s0)
    12fc:	97ba                	add	a5,a5,a4
    12fe:	0007c783          	lbu	a5,0(a5) # 20000000 <_data_vma>
    1302:	0ff7f793          	andi	a5,a5,255
    1306:	fef42023          	sw	a5,-32(s0)
C:\Users\16917\Desktop\Dual-core_Communication_Demo\Dual-core_Communication_Demo\MASTER\obj/../Libraries/wch_libraries/Peripheral/ch32v10x_rcc.c:514
    130a:	fdc42783          	lw	a5,-36(s0)
    130e:	4398                	lw	a4,0(a5)
    1310:	fe042783          	lw	a5,-32(s0)
    1314:	00f75733          	srl	a4,a4,a5
    1318:	fdc42783          	lw	a5,-36(s0)
    131c:	c3d8                	sw	a4,4(a5)
C:\Users\16917\Desktop\Dual-core_Communication_Demo\Dual-core_Communication_Demo\MASTER\obj/../Libraries/wch_libraries/Peripheral/ch32v10x_rcc.c:515
    131e:	400217b7          	lui	a5,0x40021
    1322:	43dc                	lw	a5,4(a5)
    1324:	7007f793          	andi	a5,a5,1792
    1328:	fef42623          	sw	a5,-20(s0)
C:\Users\16917\Desktop\Dual-core_Communication_Demo\Dual-core_Communication_Demo\MASTER\obj/../Libraries/wch_libraries/Peripheral/ch32v10x_rcc.c:516
    132c:	fec42783          	lw	a5,-20(s0)
    1330:	83a1                	srli	a5,a5,0x8
    1332:	fef42623          	sw	a5,-20(s0)
C:\Users\16917\Desktop\Dual-core_Communication_Demo\Dual-core_Communication_Demo\MASTER\obj/../Libraries/wch_libraries/Peripheral/ch32v10x_rcc.c:517
    1336:	200007b7          	lui	a5,0x20000
    133a:	00078713          	mv	a4,a5
    133e:	fec42783          	lw	a5,-20(s0)
    1342:	97ba                	add	a5,a5,a4
    1344:	0007c783          	lbu	a5,0(a5) # 20000000 <_data_vma>
    1348:	0ff7f793          	andi	a5,a5,255
    134c:	fef42023          	sw	a5,-32(s0)
C:\Users\16917\Desktop\Dual-core_Communication_Demo\Dual-core_Communication_Demo\MASTER\obj/../Libraries/wch_libraries/Peripheral/ch32v10x_rcc.c:518
    1350:	fdc42783          	lw	a5,-36(s0)
    1354:	43d8                	lw	a4,4(a5)
    1356:	fe042783          	lw	a5,-32(s0)
    135a:	00f75733          	srl	a4,a4,a5
    135e:	fdc42783          	lw	a5,-36(s0)
    1362:	c798                	sw	a4,8(a5)
C:\Users\16917\Desktop\Dual-core_Communication_Demo\Dual-core_Communication_Demo\MASTER\obj/../Libraries/wch_libraries/Peripheral/ch32v10x_rcc.c:519
    1364:	400217b7          	lui	a5,0x40021
    1368:	43d8                	lw	a4,4(a5)
    136a:	6791                	lui	a5,0x4
    136c:	80078793          	addi	a5,a5,-2048 # 3800 <pwm_init+0x1a6>
    1370:	8ff9                	and	a5,a5,a4
    1372:	fef42623          	sw	a5,-20(s0)
C:\Users\16917\Desktop\Dual-core_Communication_Demo\Dual-core_Communication_Demo\MASTER\obj/../Libraries/wch_libraries/Peripheral/ch32v10x_rcc.c:520
    1376:	fec42783          	lw	a5,-20(s0)
    137a:	83ad                	srli	a5,a5,0xb
    137c:	fef42623          	sw	a5,-20(s0)
C:\Users\16917\Desktop\Dual-core_Communication_Demo\Dual-core_Communication_Demo\MASTER\obj/../Libraries/wch_libraries/Peripheral/ch32v10x_rcc.c:521
    1380:	200007b7          	lui	a5,0x20000
    1384:	00078713          	mv	a4,a5
    1388:	fec42783          	lw	a5,-20(s0)
    138c:	97ba                	add	a5,a5,a4
    138e:	0007c783          	lbu	a5,0(a5) # 20000000 <_data_vma>
    1392:	0ff7f793          	andi	a5,a5,255
    1396:	fef42023          	sw	a5,-32(s0)
C:\Users\16917\Desktop\Dual-core_Communication_Demo\Dual-core_Communication_Demo\MASTER\obj/../Libraries/wch_libraries/Peripheral/ch32v10x_rcc.c:522
    139a:	fdc42783          	lw	a5,-36(s0)
    139e:	43d8                	lw	a4,4(a5)
    13a0:	fe042783          	lw	a5,-32(s0)
    13a4:	00f75733          	srl	a4,a4,a5
    13a8:	fdc42783          	lw	a5,-36(s0)
    13ac:	c7d8                	sw	a4,12(a5)
C:\Users\16917\Desktop\Dual-core_Communication_Demo\Dual-core_Communication_Demo\MASTER\obj/../Libraries/wch_libraries/Peripheral/ch32v10x_rcc.c:523
    13ae:	400217b7          	lui	a5,0x40021
    13b2:	43d8                	lw	a4,4(a5)
    13b4:	67b1                	lui	a5,0xc
    13b6:	8ff9                	and	a5,a5,a4
    13b8:	fef42623          	sw	a5,-20(s0)
C:\Users\16917\Desktop\Dual-core_Communication_Demo\Dual-core_Communication_Demo\MASTER\obj/../Libraries/wch_libraries/Peripheral/ch32v10x_rcc.c:524
    13bc:	fec42783          	lw	a5,-20(s0)
    13c0:	83b9                	srli	a5,a5,0xe
    13c2:	fef42623          	sw	a5,-20(s0)
C:\Users\16917\Desktop\Dual-core_Communication_Demo\Dual-core_Communication_Demo\MASTER\obj/../Libraries/wch_libraries/Peripheral/ch32v10x_rcc.c:525
    13c6:	200007b7          	lui	a5,0x20000
    13ca:	07078713          	addi	a4,a5,112 # 20000070 <ADCPrescTable>
    13ce:	fec42783          	lw	a5,-20(s0)
    13d2:	97ba                	add	a5,a5,a4
    13d4:	0007c783          	lbu	a5,0(a5)
    13d8:	0ff7f793          	andi	a5,a5,255
    13dc:	fef42023          	sw	a5,-32(s0)
C:\Users\16917\Desktop\Dual-core_Communication_Demo\Dual-core_Communication_Demo\MASTER\obj/../Libraries/wch_libraries/Peripheral/ch32v10x_rcc.c:526
    13e0:	fdc42783          	lw	a5,-36(s0)
    13e4:	47d8                	lw	a4,12(a5)
    13e6:	fe042783          	lw	a5,-32(s0)
    13ea:	02f75733          	divu	a4,a4,a5
    13ee:	fdc42783          	lw	a5,-36(s0)
    13f2:	cb98                	sw	a4,16(a5)
C:\Users\16917\Desktop\Dual-core_Communication_Demo\Dual-core_Communication_Demo\MASTER\obj/../Libraries/wch_libraries/Peripheral/ch32v10x_rcc.c:527
    13f4:	0001                	nop
    13f6:	5432                	lw	s0,44(sp)
    13f8:	6145                	addi	sp,sp,48
    13fa:	8082                	ret

000013fc <RCC_APB2PeriphClockCmd>:
RCC_APB2PeriphClockCmd():
C:\Users\16917\Desktop\Dual-core_Communication_Demo\Dual-core_Communication_Demo\MASTER\obj/../Libraries/wch_libraries/Peripheral/ch32v10x_rcc.c:570
    13fc:	1101                	addi	sp,sp,-32
    13fe:	ce22                	sw	s0,28(sp)
    1400:	1000                	addi	s0,sp,32
    1402:	fea42623          	sw	a0,-20(s0)
    1406:	feb42423          	sw	a1,-24(s0)
C:\Users\16917\Desktop\Dual-core_Communication_Demo\Dual-core_Communication_Demo\MASTER\obj/../Libraries/wch_libraries/Peripheral/ch32v10x_rcc.c:571
    140a:	fe842783          	lw	a5,-24(s0)
    140e:	cb99                	beqz	a5,1424 <RCC_APB2PeriphClockCmd+0x28>
C:\Users\16917\Desktop\Dual-core_Communication_Demo\Dual-core_Communication_Demo\MASTER\obj/../Libraries/wch_libraries/Peripheral/ch32v10x_rcc.c:573
    1410:	400217b7          	lui	a5,0x40021
    1414:	4f94                	lw	a3,24(a5)
    1416:	400217b7          	lui	a5,0x40021
    141a:	fec42703          	lw	a4,-20(s0)
    141e:	8f55                	or	a4,a4,a3
    1420:	cf98                	sw	a4,24(a5)
C:\Users\16917\Desktop\Dual-core_Communication_Demo\Dual-core_Communication_Demo\MASTER\obj/../Libraries/wch_libraries/Peripheral/ch32v10x_rcc.c:579
    1422:	a821                	j	143a <RCC_APB2PeriphClockCmd+0x3e>
C:\Users\16917\Desktop\Dual-core_Communication_Demo\Dual-core_Communication_Demo\MASTER\obj/../Libraries/wch_libraries/Peripheral/ch32v10x_rcc.c:577
    1424:	400217b7          	lui	a5,0x40021
    1428:	4f94                	lw	a3,24(a5)
    142a:	fec42783          	lw	a5,-20(s0)
    142e:	fff7c713          	not	a4,a5
    1432:	400217b7          	lui	a5,0x40021
    1436:	8f75                	and	a4,a4,a3
    1438:	cf98                	sw	a4,24(a5)
C:\Users\16917\Desktop\Dual-core_Communication_Demo\Dual-core_Communication_Demo\MASTER\obj/../Libraries/wch_libraries/Peripheral/ch32v10x_rcc.c:579
    143a:	0001                	nop
    143c:	4472                	lw	s0,28(sp)
    143e:	6105                	addi	sp,sp,32
    1440:	8082                	ret

00001442 <RCC_APB1PeriphClockCmd>:
RCC_APB1PeriphClockCmd():
C:\Users\16917\Desktop\Dual-core_Communication_Demo\Dual-core_Communication_Demo\MASTER\obj/../Libraries/wch_libraries/Peripheral/ch32v10x_rcc.c:603
    1442:	1101                	addi	sp,sp,-32
    1444:	ce22                	sw	s0,28(sp)
    1446:	1000                	addi	s0,sp,32
    1448:	fea42623          	sw	a0,-20(s0)
    144c:	feb42423          	sw	a1,-24(s0)
C:\Users\16917\Desktop\Dual-core_Communication_Demo\Dual-core_Communication_Demo\MASTER\obj/../Libraries/wch_libraries/Peripheral/ch32v10x_rcc.c:604
    1450:	fe842783          	lw	a5,-24(s0)
    1454:	cb99                	beqz	a5,146a <RCC_APB1PeriphClockCmd+0x28>
C:\Users\16917\Desktop\Dual-core_Communication_Demo\Dual-core_Communication_Demo\MASTER\obj/../Libraries/wch_libraries/Peripheral/ch32v10x_rcc.c:606
    1456:	400217b7          	lui	a5,0x40021
    145a:	4fd4                	lw	a3,28(a5)
    145c:	400217b7          	lui	a5,0x40021
    1460:	fec42703          	lw	a4,-20(s0)
    1464:	8f55                	or	a4,a4,a3
    1466:	cfd8                	sw	a4,28(a5)
C:\Users\16917\Desktop\Dual-core_Communication_Demo\Dual-core_Communication_Demo\MASTER\obj/../Libraries/wch_libraries/Peripheral/ch32v10x_rcc.c:612
    1468:	a821                	j	1480 <RCC_APB1PeriphClockCmd+0x3e>
C:\Users\16917\Desktop\Dual-core_Communication_Demo\Dual-core_Communication_Demo\MASTER\obj/../Libraries/wch_libraries/Peripheral/ch32v10x_rcc.c:610
    146a:	400217b7          	lui	a5,0x40021
    146e:	4fd4                	lw	a3,28(a5)
    1470:	fec42783          	lw	a5,-20(s0)
    1474:	fff7c713          	not	a4,a5
    1478:	400217b7          	lui	a5,0x40021
    147c:	8f75                	and	a4,a4,a3
    147e:	cfd8                	sw	a4,28(a5)
C:\Users\16917\Desktop\Dual-core_Communication_Demo\Dual-core_Communication_Demo\MASTER\obj/../Libraries/wch_libraries/Peripheral/ch32v10x_rcc.c:612
    1480:	0001                	nop
    1482:	4472                	lw	s0,28(sp)
    1484:	6105                	addi	sp,sp,32
    1486:	8082                	ret

00001488 <SPI_Init>:
SPI_Init():
C:\Users\16917\Desktop\Dual-core_Communication_Demo\Dual-core_Communication_Demo\MASTER\obj/../Libraries/wch_libraries/Peripheral/ch32v10x_spi.c:83
    1488:	7179                	addi	sp,sp,-48
    148a:	d622                	sw	s0,44(sp)
    148c:	1800                	addi	s0,sp,48
    148e:	fca42e23          	sw	a0,-36(s0)
    1492:	fcb42c23          	sw	a1,-40(s0)
C:\Users\16917\Desktop\Dual-core_Communication_Demo\Dual-core_Communication_Demo\MASTER\obj/../Libraries/wch_libraries/Peripheral/ch32v10x_spi.c:84
    1496:	fe041723          	sh	zero,-18(s0)
C:\Users\16917\Desktop\Dual-core_Communication_Demo\Dual-core_Communication_Demo\MASTER\obj/../Libraries/wch_libraries/Peripheral/ch32v10x_spi.c:86
    149a:	fdc42783          	lw	a5,-36(s0)
    149e:	0007d783          	lhu	a5,0(a5) # 40021000 <_eusrstack+0x2001c000>
    14a2:	fef41723          	sh	a5,-18(s0)
C:\Users\16917\Desktop\Dual-core_Communication_Demo\Dual-core_Communication_Demo\MASTER\obj/../Libraries/wch_libraries/Peripheral/ch32v10x_spi.c:87
    14a6:	fee45703          	lhu	a4,-18(s0)
    14aa:	678d                	lui	a5,0x3
    14ac:	04078793          	addi	a5,a5,64 # 3040 <gpio_init+0xb4>
    14b0:	8ff9                	and	a5,a5,a4
    14b2:	fef41723          	sh	a5,-18(s0)
C:\Users\16917\Desktop\Dual-core_Communication_Demo\Dual-core_Communication_Demo\MASTER\obj/../Libraries/wch_libraries/Peripheral/ch32v10x_spi.c:88
    14b6:	fd842783          	lw	a5,-40(s0)
    14ba:	0007d703          	lhu	a4,0(a5)
    14be:	fd842783          	lw	a5,-40(s0)
    14c2:	0027d783          	lhu	a5,2(a5)
    14c6:	8fd9                	or	a5,a5,a4
    14c8:	01079713          	slli	a4,a5,0x10
    14cc:	8341                	srli	a4,a4,0x10
C:\Users\16917\Desktop\Dual-core_Communication_Demo\Dual-core_Communication_Demo\MASTER\obj/../Libraries/wch_libraries/Peripheral/ch32v10x_spi.c:89
    14ce:	fd842783          	lw	a5,-40(s0)
    14d2:	0047d783          	lhu	a5,4(a5)
C:\Users\16917\Desktop\Dual-core_Communication_Demo\Dual-core_Communication_Demo\MASTER\obj/../Libraries/wch_libraries/Peripheral/ch32v10x_spi.c:88
    14d6:	8fd9                	or	a5,a5,a4
    14d8:	01079713          	slli	a4,a5,0x10
    14dc:	8341                	srli	a4,a4,0x10
C:\Users\16917\Desktop\Dual-core_Communication_Demo\Dual-core_Communication_Demo\MASTER\obj/../Libraries/wch_libraries/Peripheral/ch32v10x_spi.c:89
    14de:	fd842783          	lw	a5,-40(s0)
    14e2:	0067d783          	lhu	a5,6(a5)
C:\Users\16917\Desktop\Dual-core_Communication_Demo\Dual-core_Communication_Demo\MASTER\obj/../Libraries/wch_libraries/Peripheral/ch32v10x_spi.c:88
    14e6:	8fd9                	or	a5,a5,a4
    14e8:	01079713          	slli	a4,a5,0x10
    14ec:	8341                	srli	a4,a4,0x10
C:\Users\16917\Desktop\Dual-core_Communication_Demo\Dual-core_Communication_Demo\MASTER\obj/../Libraries/wch_libraries/Peripheral/ch32v10x_spi.c:90
    14ee:	fd842783          	lw	a5,-40(s0)
    14f2:	0087d783          	lhu	a5,8(a5)
C:\Users\16917\Desktop\Dual-core_Communication_Demo\Dual-core_Communication_Demo\MASTER\obj/../Libraries/wch_libraries/Peripheral/ch32v10x_spi.c:88
    14f6:	8fd9                	or	a5,a5,a4
    14f8:	01079713          	slli	a4,a5,0x10
    14fc:	8341                	srli	a4,a4,0x10
C:\Users\16917\Desktop\Dual-core_Communication_Demo\Dual-core_Communication_Demo\MASTER\obj/../Libraries/wch_libraries/Peripheral/ch32v10x_spi.c:90
    14fe:	fd842783          	lw	a5,-40(s0)
    1502:	00a7d783          	lhu	a5,10(a5)
C:\Users\16917\Desktop\Dual-core_Communication_Demo\Dual-core_Communication_Demo\MASTER\obj/../Libraries/wch_libraries/Peripheral/ch32v10x_spi.c:88
    1506:	8fd9                	or	a5,a5,a4
    1508:	01079713          	slli	a4,a5,0x10
    150c:	8341                	srli	a4,a4,0x10
C:\Users\16917\Desktop\Dual-core_Communication_Demo\Dual-core_Communication_Demo\MASTER\obj/../Libraries/wch_libraries/Peripheral/ch32v10x_spi.c:91
    150e:	fd842783          	lw	a5,-40(s0)
    1512:	00c7d783          	lhu	a5,12(a5)
C:\Users\16917\Desktop\Dual-core_Communication_Demo\Dual-core_Communication_Demo\MASTER\obj/../Libraries/wch_libraries/Peripheral/ch32v10x_spi.c:88
    1516:	8fd9                	or	a5,a5,a4
    1518:	01079713          	slli	a4,a5,0x10
    151c:	8341                	srli	a4,a4,0x10
C:\Users\16917\Desktop\Dual-core_Communication_Demo\Dual-core_Communication_Demo\MASTER\obj/../Libraries/wch_libraries/Peripheral/ch32v10x_spi.c:91
    151e:	fd842783          	lw	a5,-40(s0)
    1522:	00e7d783          	lhu	a5,14(a5)
C:\Users\16917\Desktop\Dual-core_Communication_Demo\Dual-core_Communication_Demo\MASTER\obj/../Libraries/wch_libraries/Peripheral/ch32v10x_spi.c:88
    1526:	8fd9                	or	a5,a5,a4
    1528:	01079713          	slli	a4,a5,0x10
    152c:	8341                	srli	a4,a4,0x10
    152e:	fee45783          	lhu	a5,-18(s0)
    1532:	8fd9                	or	a5,a5,a4
    1534:	fef41723          	sh	a5,-18(s0)
C:\Users\16917\Desktop\Dual-core_Communication_Demo\Dual-core_Communication_Demo\MASTER\obj/../Libraries/wch_libraries/Peripheral/ch32v10x_spi.c:93
    1538:	fdc42783          	lw	a5,-36(s0)
    153c:	fee45703          	lhu	a4,-18(s0)
    1540:	00e79023          	sh	a4,0(a5)
C:\Users\16917\Desktop\Dual-core_Communication_Demo\Dual-core_Communication_Demo\MASTER\obj/../Libraries/wch_libraries/Peripheral/ch32v10x_spi.c:94
    1544:	fdc42783          	lw	a5,-36(s0)
    1548:	01c7d783          	lhu	a5,28(a5)
    154c:	01079713          	slli	a4,a5,0x10
    1550:	8341                	srli	a4,a4,0x10
    1552:	77fd                	lui	a5,0xfffff
    1554:	7ff78793          	addi	a5,a5,2047 # fffff7ff <_eusrstack+0xdfffa7ff>
    1558:	8ff9                	and	a5,a5,a4
    155a:	01079713          	slli	a4,a5,0x10
    155e:	8341                	srli	a4,a4,0x10
    1560:	fdc42783          	lw	a5,-36(s0)
    1564:	00e79e23          	sh	a4,28(a5)
C:\Users\16917\Desktop\Dual-core_Communication_Demo\Dual-core_Communication_Demo\MASTER\obj/../Libraries/wch_libraries/Peripheral/ch32v10x_spi.c:95
    1568:	fd842783          	lw	a5,-40(s0)
    156c:	0107d703          	lhu	a4,16(a5)
    1570:	fdc42783          	lw	a5,-36(s0)
    1574:	00e79823          	sh	a4,16(a5)
C:\Users\16917\Desktop\Dual-core_Communication_Demo\Dual-core_Communication_Demo\MASTER\obj/../Libraries/wch_libraries/Peripheral/ch32v10x_spi.c:96
    1578:	0001                	nop
    157a:	5432                	lw	s0,44(sp)
    157c:	6145                	addi	sp,sp,48
    157e:	8082                	ret

00001580 <SPI_Cmd>:
SPI_Cmd():
C:\Users\16917\Desktop\Dual-core_Communication_Demo\Dual-core_Communication_Demo\MASTER\obj/../Libraries/wch_libraries/Peripheral/ch32v10x_spi.c:221
    1580:	1101                	addi	sp,sp,-32
    1582:	ce22                	sw	s0,28(sp)
    1584:	1000                	addi	s0,sp,32
    1586:	fea42623          	sw	a0,-20(s0)
    158a:	feb42423          	sw	a1,-24(s0)
C:\Users\16917\Desktop\Dual-core_Communication_Demo\Dual-core_Communication_Demo\MASTER\obj/../Libraries/wch_libraries/Peripheral/ch32v10x_spi.c:222
    158e:	fe842783          	lw	a5,-24(s0)
    1592:	c38d                	beqz	a5,15b4 <SPI_Cmd+0x34>
C:\Users\16917\Desktop\Dual-core_Communication_Demo\Dual-core_Communication_Demo\MASTER\obj/../Libraries/wch_libraries/Peripheral/ch32v10x_spi.c:224
    1594:	fec42783          	lw	a5,-20(s0)
    1598:	0007d783          	lhu	a5,0(a5)
    159c:	07c2                	slli	a5,a5,0x10
    159e:	83c1                	srli	a5,a5,0x10
    15a0:	0407e793          	ori	a5,a5,64
    15a4:	01079713          	slli	a4,a5,0x10
    15a8:	8341                	srli	a4,a4,0x10
    15aa:	fec42783          	lw	a5,-20(s0)
    15ae:	00e79023          	sh	a4,0(a5)
C:\Users\16917\Desktop\Dual-core_Communication_Demo\Dual-core_Communication_Demo\MASTER\obj/../Libraries/wch_libraries/Peripheral/ch32v10x_spi.c:230
    15b2:	a005                	j	15d2 <SPI_Cmd+0x52>
C:\Users\16917\Desktop\Dual-core_Communication_Demo\Dual-core_Communication_Demo\MASTER\obj/../Libraries/wch_libraries/Peripheral/ch32v10x_spi.c:228
    15b4:	fec42783          	lw	a5,-20(s0)
    15b8:	0007d783          	lhu	a5,0(a5)
    15bc:	07c2                	slli	a5,a5,0x10
    15be:	83c1                	srli	a5,a5,0x10
    15c0:	fbf7f793          	andi	a5,a5,-65
    15c4:	01079713          	slli	a4,a5,0x10
    15c8:	8341                	srli	a4,a4,0x10
    15ca:	fec42783          	lw	a5,-20(s0)
    15ce:	00e79023          	sh	a4,0(a5)
C:\Users\16917\Desktop\Dual-core_Communication_Demo\Dual-core_Communication_Demo\MASTER\obj/../Libraries/wch_libraries/Peripheral/ch32v10x_spi.c:230
    15d2:	0001                	nop
    15d4:	4472                	lw	s0,28(sp)
    15d6:	6105                	addi	sp,sp,32
    15d8:	8082                	ret

000015da <TIM_TimeBaseInit>:
TIM_TimeBaseInit():
C:\Users\16917\Desktop\Dual-core_Communication_Demo\Dual-core_Communication_Demo\MASTER\obj/../Libraries/wch_libraries/Peripheral/ch32v10x_tim.c:67
    15da:	7179                	addi	sp,sp,-48
    15dc:	d622                	sw	s0,44(sp)
    15de:	1800                	addi	s0,sp,48
    15e0:	fca42e23          	sw	a0,-36(s0)
    15e4:	fcb42c23          	sw	a1,-40(s0)
C:\Users\16917\Desktop\Dual-core_Communication_Demo\Dual-core_Communication_Demo\MASTER\obj/../Libraries/wch_libraries/Peripheral/ch32v10x_tim.c:68
    15e8:	fe041723          	sh	zero,-18(s0)
C:\Users\16917\Desktop\Dual-core_Communication_Demo\Dual-core_Communication_Demo\MASTER\obj/../Libraries/wch_libraries/Peripheral/ch32v10x_tim.c:70
    15ec:	fdc42783          	lw	a5,-36(s0)
    15f0:	0007d783          	lhu	a5,0(a5)
    15f4:	fef41723          	sh	a5,-18(s0)
C:\Users\16917\Desktop\Dual-core_Communication_Demo\Dual-core_Communication_Demo\MASTER\obj/../Libraries/wch_libraries/Peripheral/ch32v10x_tim.c:72
    15f8:	fdc42703          	lw	a4,-36(s0)
    15fc:	400137b7          	lui	a5,0x40013
    1600:	c0078793          	addi	a5,a5,-1024 # 40012c00 <_eusrstack+0x2000dc00>
    1604:	02f70863          	beq	a4,a5,1634 <TIM_TimeBaseInit+0x5a>
C:\Users\16917\Desktop\Dual-core_Communication_Demo\Dual-core_Communication_Demo\MASTER\obj/../Libraries/wch_libraries/Peripheral/ch32v10x_tim.c:72 (discriminator 1)
    1608:	fdc42703          	lw	a4,-36(s0)
    160c:	400007b7          	lui	a5,0x40000
    1610:	02f70263          	beq	a4,a5,1634 <TIM_TimeBaseInit+0x5a>
C:\Users\16917\Desktop\Dual-core_Communication_Demo\Dual-core_Communication_Demo\MASTER\obj/../Libraries/wch_libraries/Peripheral/ch32v10x_tim.c:72 (discriminator 2)
    1614:	fdc42703          	lw	a4,-36(s0)
    1618:	400007b7          	lui	a5,0x40000
    161c:	40078793          	addi	a5,a5,1024 # 40000400 <_eusrstack+0x1fffb400>
    1620:	00f70a63          	beq	a4,a5,1634 <TIM_TimeBaseInit+0x5a>
C:\Users\16917\Desktop\Dual-core_Communication_Demo\Dual-core_Communication_Demo\MASTER\obj/../Libraries/wch_libraries/Peripheral/ch32v10x_tim.c:72 (discriminator 3)
    1624:	fdc42703          	lw	a4,-36(s0)
    1628:	400017b7          	lui	a5,0x40001
    162c:	80078793          	addi	a5,a5,-2048 # 40000800 <_eusrstack+0x1fffb800>
    1630:	02f71163          	bne	a4,a5,1652 <TIM_TimeBaseInit+0x78>
C:\Users\16917\Desktop\Dual-core_Communication_Demo\Dual-core_Communication_Demo\MASTER\obj/../Libraries/wch_libraries/Peripheral/ch32v10x_tim.c:74
    1634:	fee45783          	lhu	a5,-18(s0)
    1638:	f8f7f793          	andi	a5,a5,-113
    163c:	fef41723          	sh	a5,-18(s0)
C:\Users\16917\Desktop\Dual-core_Communication_Demo\Dual-core_Communication_Demo\MASTER\obj/../Libraries/wch_libraries/Peripheral/ch32v10x_tim.c:75
    1640:	fd842783          	lw	a5,-40(s0)
    1644:	0027d703          	lhu	a4,2(a5)
    1648:	fee45783          	lhu	a5,-18(s0)
    164c:	8fd9                	or	a5,a5,a4
    164e:	fef41723          	sh	a5,-18(s0)
C:\Users\16917\Desktop\Dual-core_Communication_Demo\Dual-core_Communication_Demo\MASTER\obj/../Libraries/wch_libraries/Peripheral/ch32v10x_tim.c:78
    1652:	fee45783          	lhu	a5,-18(s0)
    1656:	cff7f793          	andi	a5,a5,-769
    165a:	fef41723          	sh	a5,-18(s0)
C:\Users\16917\Desktop\Dual-core_Communication_Demo\Dual-core_Communication_Demo\MASTER\obj/../Libraries/wch_libraries/Peripheral/ch32v10x_tim.c:79
    165e:	fd842783          	lw	a5,-40(s0)
    1662:	0067d703          	lhu	a4,6(a5)
    1666:	fee45783          	lhu	a5,-18(s0)
    166a:	8fd9                	or	a5,a5,a4
    166c:	fef41723          	sh	a5,-18(s0)
C:\Users\16917\Desktop\Dual-core_Communication_Demo\Dual-core_Communication_Demo\MASTER\obj/../Libraries/wch_libraries/Peripheral/ch32v10x_tim.c:81
    1670:	fdc42783          	lw	a5,-36(s0)
    1674:	fee45703          	lhu	a4,-18(s0)
    1678:	00e79023          	sh	a4,0(a5)
C:\Users\16917\Desktop\Dual-core_Communication_Demo\Dual-core_Communication_Demo\MASTER\obj/../Libraries/wch_libraries/Peripheral/ch32v10x_tim.c:82
    167c:	fd842783          	lw	a5,-40(s0)
    1680:	0047d703          	lhu	a4,4(a5)
    1684:	fdc42783          	lw	a5,-36(s0)
    1688:	02e79623          	sh	a4,44(a5)
C:\Users\16917\Desktop\Dual-core_Communication_Demo\Dual-core_Communication_Demo\MASTER\obj/../Libraries/wch_libraries/Peripheral/ch32v10x_tim.c:83
    168c:	fd842783          	lw	a5,-40(s0)
    1690:	0007d703          	lhu	a4,0(a5)
    1694:	fdc42783          	lw	a5,-36(s0)
    1698:	02e79423          	sh	a4,40(a5)
C:\Users\16917\Desktop\Dual-core_Communication_Demo\Dual-core_Communication_Demo\MASTER\obj/../Libraries/wch_libraries/Peripheral/ch32v10x_tim.c:85
    169c:	fdc42703          	lw	a4,-36(s0)
    16a0:	400137b7          	lui	a5,0x40013
    16a4:	c0078793          	addi	a5,a5,-1024 # 40012c00 <_eusrstack+0x2000dc00>
    16a8:	00f71d63          	bne	a4,a5,16c2 <TIM_TimeBaseInit+0xe8>
C:\Users\16917\Desktop\Dual-core_Communication_Demo\Dual-core_Communication_Demo\MASTER\obj/../Libraries/wch_libraries/Peripheral/ch32v10x_tim.c:87
    16ac:	fd842783          	lw	a5,-40(s0)
    16b0:	0087c783          	lbu	a5,8(a5)
    16b4:	01079713          	slli	a4,a5,0x10
    16b8:	8341                	srli	a4,a4,0x10
    16ba:	fdc42783          	lw	a5,-36(s0)
    16be:	02e79823          	sh	a4,48(a5)
C:\Users\16917\Desktop\Dual-core_Communication_Demo\Dual-core_Communication_Demo\MASTER\obj/../Libraries/wch_libraries/Peripheral/ch32v10x_tim.c:90
    16c2:	fdc42783          	lw	a5,-36(s0)
    16c6:	4705                	li	a4,1
    16c8:	00e79a23          	sh	a4,20(a5)
C:\Users\16917\Desktop\Dual-core_Communication_Demo\Dual-core_Communication_Demo\MASTER\obj/../Libraries/wch_libraries/Peripheral/ch32v10x_tim.c:91
    16cc:	0001                	nop
    16ce:	5432                	lw	s0,44(sp)
    16d0:	6145                	addi	sp,sp,48
    16d2:	8082                	ret

000016d4 <TIM_OC1Init>:
TIM_OC1Init():
C:\Users\16917\Desktop\Dual-core_Communication_Demo\Dual-core_Communication_Demo\MASTER\obj/../Libraries/wch_libraries/Peripheral/ch32v10x_tim.c:102
    16d4:	7179                	addi	sp,sp,-48
    16d6:	d622                	sw	s0,44(sp)
    16d8:	1800                	addi	s0,sp,48
    16da:	fca42e23          	sw	a0,-36(s0)
    16de:	fcb42c23          	sw	a1,-40(s0)
C:\Users\16917\Desktop\Dual-core_Communication_Demo\Dual-core_Communication_Demo\MASTER\obj/../Libraries/wch_libraries/Peripheral/ch32v10x_tim.c:103
    16e2:	fe041523          	sh	zero,-22(s0)
    16e6:	fe041723          	sh	zero,-18(s0)
    16ea:	fe041623          	sh	zero,-20(s0)
C:\Users\16917\Desktop\Dual-core_Communication_Demo\Dual-core_Communication_Demo\MASTER\obj/../Libraries/wch_libraries/Peripheral/ch32v10x_tim.c:105
    16ee:	fdc42783          	lw	a5,-36(s0)
    16f2:	0207d783          	lhu	a5,32(a5)
    16f6:	07c2                	slli	a5,a5,0x10
    16f8:	83c1                	srli	a5,a5,0x10
    16fa:	9bf9                	andi	a5,a5,-2
    16fc:	01079713          	slli	a4,a5,0x10
    1700:	8341                	srli	a4,a4,0x10
    1702:	fdc42783          	lw	a5,-36(s0)
    1706:	02e79023          	sh	a4,32(a5)
C:\Users\16917\Desktop\Dual-core_Communication_Demo\Dual-core_Communication_Demo\MASTER\obj/../Libraries/wch_libraries/Peripheral/ch32v10x_tim.c:106
    170a:	fdc42783          	lw	a5,-36(s0)
    170e:	0207d783          	lhu	a5,32(a5)
    1712:	fef41723          	sh	a5,-18(s0)
C:\Users\16917\Desktop\Dual-core_Communication_Demo\Dual-core_Communication_Demo\MASTER\obj/../Libraries/wch_libraries/Peripheral/ch32v10x_tim.c:107
    1716:	fdc42783          	lw	a5,-36(s0)
    171a:	0047d783          	lhu	a5,4(a5)
    171e:	fef41623          	sh	a5,-20(s0)
C:\Users\16917\Desktop\Dual-core_Communication_Demo\Dual-core_Communication_Demo\MASTER\obj/../Libraries/wch_libraries/Peripheral/ch32v10x_tim.c:108
    1722:	fdc42783          	lw	a5,-36(s0)
    1726:	0187d783          	lhu	a5,24(a5)
    172a:	fef41523          	sh	a5,-22(s0)
C:\Users\16917\Desktop\Dual-core_Communication_Demo\Dual-core_Communication_Demo\MASTER\obj/../Libraries/wch_libraries/Peripheral/ch32v10x_tim.c:109
    172e:	fea45783          	lhu	a5,-22(s0)
    1732:	f8f7f793          	andi	a5,a5,-113
    1736:	fef41523          	sh	a5,-22(s0)
C:\Users\16917\Desktop\Dual-core_Communication_Demo\Dual-core_Communication_Demo\MASTER\obj/../Libraries/wch_libraries/Peripheral/ch32v10x_tim.c:110
    173a:	fea45783          	lhu	a5,-22(s0)
    173e:	9bf1                	andi	a5,a5,-4
    1740:	fef41523          	sh	a5,-22(s0)
C:\Users\16917\Desktop\Dual-core_Communication_Demo\Dual-core_Communication_Demo\MASTER\obj/../Libraries/wch_libraries/Peripheral/ch32v10x_tim.c:111
    1744:	fd842783          	lw	a5,-40(s0)
    1748:	0007d703          	lhu	a4,0(a5)
    174c:	fea45783          	lhu	a5,-22(s0)
    1750:	8fd9                	or	a5,a5,a4
    1752:	fef41523          	sh	a5,-22(s0)
C:\Users\16917\Desktop\Dual-core_Communication_Demo\Dual-core_Communication_Demo\MASTER\obj/../Libraries/wch_libraries/Peripheral/ch32v10x_tim.c:112
    1756:	fee45783          	lhu	a5,-18(s0)
    175a:	9bf5                	andi	a5,a5,-3
    175c:	fef41723          	sh	a5,-18(s0)
C:\Users\16917\Desktop\Dual-core_Communication_Demo\Dual-core_Communication_Demo\MASTER\obj/../Libraries/wch_libraries/Peripheral/ch32v10x_tim.c:113
    1760:	fd842783          	lw	a5,-40(s0)
    1764:	0087d703          	lhu	a4,8(a5)
    1768:	fee45783          	lhu	a5,-18(s0)
    176c:	8fd9                	or	a5,a5,a4
    176e:	fef41723          	sh	a5,-18(s0)
C:\Users\16917\Desktop\Dual-core_Communication_Demo\Dual-core_Communication_Demo\MASTER\obj/../Libraries/wch_libraries/Peripheral/ch32v10x_tim.c:114
    1772:	fd842783          	lw	a5,-40(s0)
    1776:	0027d703          	lhu	a4,2(a5)
    177a:	fee45783          	lhu	a5,-18(s0)
    177e:	8fd9                	or	a5,a5,a4
    1780:	fef41723          	sh	a5,-18(s0)
C:\Users\16917\Desktop\Dual-core_Communication_Demo\Dual-core_Communication_Demo\MASTER\obj/../Libraries/wch_libraries/Peripheral/ch32v10x_tim.c:116
    1784:	fdc42703          	lw	a4,-36(s0)
    1788:	400137b7          	lui	a5,0x40013
    178c:	c0078793          	addi	a5,a5,-1024 # 40012c00 <_eusrstack+0x2000dc00>
    1790:	06f71c63          	bne	a4,a5,1808 <TIM_OC1Init+0x134>
C:\Users\16917\Desktop\Dual-core_Communication_Demo\Dual-core_Communication_Demo\MASTER\obj/../Libraries/wch_libraries/Peripheral/ch32v10x_tim.c:118
    1794:	fee45783          	lhu	a5,-18(s0)
    1798:	9bdd                	andi	a5,a5,-9
    179a:	fef41723          	sh	a5,-18(s0)
C:\Users\16917\Desktop\Dual-core_Communication_Demo\Dual-core_Communication_Demo\MASTER\obj/../Libraries/wch_libraries/Peripheral/ch32v10x_tim.c:119
    179e:	fd842783          	lw	a5,-40(s0)
    17a2:	00a7d703          	lhu	a4,10(a5)
    17a6:	fee45783          	lhu	a5,-18(s0)
    17aa:	8fd9                	or	a5,a5,a4
    17ac:	fef41723          	sh	a5,-18(s0)
C:\Users\16917\Desktop\Dual-core_Communication_Demo\Dual-core_Communication_Demo\MASTER\obj/../Libraries/wch_libraries/Peripheral/ch32v10x_tim.c:121
    17b0:	fee45783          	lhu	a5,-18(s0)
    17b4:	9bed                	andi	a5,a5,-5
    17b6:	fef41723          	sh	a5,-18(s0)
C:\Users\16917\Desktop\Dual-core_Communication_Demo\Dual-core_Communication_Demo\MASTER\obj/../Libraries/wch_libraries/Peripheral/ch32v10x_tim.c:122
    17ba:	fd842783          	lw	a5,-40(s0)
    17be:	0047d703          	lhu	a4,4(a5)
    17c2:	fee45783          	lhu	a5,-18(s0)
    17c6:	8fd9                	or	a5,a5,a4
    17c8:	fef41723          	sh	a5,-18(s0)
C:\Users\16917\Desktop\Dual-core_Communication_Demo\Dual-core_Communication_Demo\MASTER\obj/../Libraries/wch_libraries/Peripheral/ch32v10x_tim.c:124
    17cc:	fec45783          	lhu	a5,-20(s0)
    17d0:	eff7f793          	andi	a5,a5,-257
    17d4:	fef41623          	sh	a5,-20(s0)
C:\Users\16917\Desktop\Dual-core_Communication_Demo\Dual-core_Communication_Demo\MASTER\obj/../Libraries/wch_libraries/Peripheral/ch32v10x_tim.c:125
    17d8:	fec45783          	lhu	a5,-20(s0)
    17dc:	dff7f793          	andi	a5,a5,-513
    17e0:	fef41623          	sh	a5,-20(s0)
C:\Users\16917\Desktop\Dual-core_Communication_Demo\Dual-core_Communication_Demo\MASTER\obj/../Libraries/wch_libraries/Peripheral/ch32v10x_tim.c:127
    17e4:	fd842783          	lw	a5,-40(s0)
    17e8:	00c7d703          	lhu	a4,12(a5)
    17ec:	fec45783          	lhu	a5,-20(s0)
    17f0:	8fd9                	or	a5,a5,a4
    17f2:	fef41623          	sh	a5,-20(s0)
C:\Users\16917\Desktop\Dual-core_Communication_Demo\Dual-core_Communication_Demo\MASTER\obj/../Libraries/wch_libraries/Peripheral/ch32v10x_tim.c:128
    17f6:	fd842783          	lw	a5,-40(s0)
    17fa:	00e7d703          	lhu	a4,14(a5)
    17fe:	fec45783          	lhu	a5,-20(s0)
    1802:	8fd9                	or	a5,a5,a4
    1804:	fef41623          	sh	a5,-20(s0)
C:\Users\16917\Desktop\Dual-core_Communication_Demo\Dual-core_Communication_Demo\MASTER\obj/../Libraries/wch_libraries/Peripheral/ch32v10x_tim.c:131
    1808:	fdc42783          	lw	a5,-36(s0)
    180c:	fec45703          	lhu	a4,-20(s0)
    1810:	00e79223          	sh	a4,4(a5)
C:\Users\16917\Desktop\Dual-core_Communication_Demo\Dual-core_Communication_Demo\MASTER\obj/../Libraries/wch_libraries/Peripheral/ch32v10x_tim.c:132
    1814:	fdc42783          	lw	a5,-36(s0)
    1818:	fea45703          	lhu	a4,-22(s0)
    181c:	00e79c23          	sh	a4,24(a5)
C:\Users\16917\Desktop\Dual-core_Communication_Demo\Dual-core_Communication_Demo\MASTER\obj/../Libraries/wch_libraries/Peripheral/ch32v10x_tim.c:133
    1820:	fd842783          	lw	a5,-40(s0)
    1824:	0067d703          	lhu	a4,6(a5)
    1828:	fdc42783          	lw	a5,-36(s0)
    182c:	02e79a23          	sh	a4,52(a5)
C:\Users\16917\Desktop\Dual-core_Communication_Demo\Dual-core_Communication_Demo\MASTER\obj/../Libraries/wch_libraries/Peripheral/ch32v10x_tim.c:134
    1830:	fdc42783          	lw	a5,-36(s0)
    1834:	fee45703          	lhu	a4,-18(s0)
    1838:	02e79023          	sh	a4,32(a5)
C:\Users\16917\Desktop\Dual-core_Communication_Demo\Dual-core_Communication_Demo\MASTER\obj/../Libraries/wch_libraries/Peripheral/ch32v10x_tim.c:135
    183c:	0001                	nop
    183e:	5432                	lw	s0,44(sp)
    1840:	6145                	addi	sp,sp,48
    1842:	8082                	ret

00001844 <TIM_OC2Init>:
TIM_OC2Init():
C:\Users\16917\Desktop\Dual-core_Communication_Demo\Dual-core_Communication_Demo\MASTER\obj/../Libraries/wch_libraries/Peripheral/ch32v10x_tim.c:146
    1844:	7179                	addi	sp,sp,-48
    1846:	d622                	sw	s0,44(sp)
    1848:	1800                	addi	s0,sp,48
    184a:	fca42e23          	sw	a0,-36(s0)
    184e:	fcb42c23          	sw	a1,-40(s0)
C:\Users\16917\Desktop\Dual-core_Communication_Demo\Dual-core_Communication_Demo\MASTER\obj/../Libraries/wch_libraries/Peripheral/ch32v10x_tim.c:147
    1852:	fe041523          	sh	zero,-22(s0)
    1856:	fe041723          	sh	zero,-18(s0)
    185a:	fe041623          	sh	zero,-20(s0)
C:\Users\16917\Desktop\Dual-core_Communication_Demo\Dual-core_Communication_Demo\MASTER\obj/../Libraries/wch_libraries/Peripheral/ch32v10x_tim.c:149
    185e:	fdc42783          	lw	a5,-36(s0)
    1862:	0207d783          	lhu	a5,32(a5)
    1866:	07c2                	slli	a5,a5,0x10
    1868:	83c1                	srli	a5,a5,0x10
    186a:	9bbd                	andi	a5,a5,-17
    186c:	01079713          	slli	a4,a5,0x10
    1870:	8341                	srli	a4,a4,0x10
    1872:	fdc42783          	lw	a5,-36(s0)
    1876:	02e79023          	sh	a4,32(a5)
C:\Users\16917\Desktop\Dual-core_Communication_Demo\Dual-core_Communication_Demo\MASTER\obj/../Libraries/wch_libraries/Peripheral/ch32v10x_tim.c:150
    187a:	fdc42783          	lw	a5,-36(s0)
    187e:	0207d783          	lhu	a5,32(a5)
    1882:	fef41723          	sh	a5,-18(s0)
C:\Users\16917\Desktop\Dual-core_Communication_Demo\Dual-core_Communication_Demo\MASTER\obj/../Libraries/wch_libraries/Peripheral/ch32v10x_tim.c:151
    1886:	fdc42783          	lw	a5,-36(s0)
    188a:	0047d783          	lhu	a5,4(a5)
    188e:	fef41623          	sh	a5,-20(s0)
C:\Users\16917\Desktop\Dual-core_Communication_Demo\Dual-core_Communication_Demo\MASTER\obj/../Libraries/wch_libraries/Peripheral/ch32v10x_tim.c:152
    1892:	fdc42783          	lw	a5,-36(s0)
    1896:	0187d783          	lhu	a5,24(a5)
    189a:	fef41523          	sh	a5,-22(s0)
C:\Users\16917\Desktop\Dual-core_Communication_Demo\Dual-core_Communication_Demo\MASTER\obj/../Libraries/wch_libraries/Peripheral/ch32v10x_tim.c:153
    189e:	fea45703          	lhu	a4,-22(s0)
    18a2:	77e5                	lui	a5,0xffff9
    18a4:	17fd                	addi	a5,a5,-1
    18a6:	8ff9                	and	a5,a5,a4
    18a8:	fef41523          	sh	a5,-22(s0)
C:\Users\16917\Desktop\Dual-core_Communication_Demo\Dual-core_Communication_Demo\MASTER\obj/../Libraries/wch_libraries/Peripheral/ch32v10x_tim.c:154
    18ac:	fea45783          	lhu	a5,-22(s0)
    18b0:	cff7f793          	andi	a5,a5,-769
    18b4:	fef41523          	sh	a5,-22(s0)
C:\Users\16917\Desktop\Dual-core_Communication_Demo\Dual-core_Communication_Demo\MASTER\obj/../Libraries/wch_libraries/Peripheral/ch32v10x_tim.c:155
    18b8:	fd842783          	lw	a5,-40(s0)
    18bc:	0007d783          	lhu	a5,0(a5) # ffff9000 <_eusrstack+0xdfff4000>
    18c0:	07a2                	slli	a5,a5,0x8
    18c2:	01079713          	slli	a4,a5,0x10
    18c6:	8341                	srli	a4,a4,0x10
    18c8:	fea45783          	lhu	a5,-22(s0)
    18cc:	8fd9                	or	a5,a5,a4
    18ce:	fef41523          	sh	a5,-22(s0)
C:\Users\16917\Desktop\Dual-core_Communication_Demo\Dual-core_Communication_Demo\MASTER\obj/../Libraries/wch_libraries/Peripheral/ch32v10x_tim.c:156
    18d2:	fee45783          	lhu	a5,-18(s0)
    18d6:	fdf7f793          	andi	a5,a5,-33
    18da:	fef41723          	sh	a5,-18(s0)
C:\Users\16917\Desktop\Dual-core_Communication_Demo\Dual-core_Communication_Demo\MASTER\obj/../Libraries/wch_libraries/Peripheral/ch32v10x_tim.c:157
    18de:	fd842783          	lw	a5,-40(s0)
    18e2:	0087d783          	lhu	a5,8(a5)
    18e6:	0792                	slli	a5,a5,0x4
    18e8:	01079713          	slli	a4,a5,0x10
    18ec:	8341                	srli	a4,a4,0x10
    18ee:	fee45783          	lhu	a5,-18(s0)
    18f2:	8fd9                	or	a5,a5,a4
    18f4:	fef41723          	sh	a5,-18(s0)
C:\Users\16917\Desktop\Dual-core_Communication_Demo\Dual-core_Communication_Demo\MASTER\obj/../Libraries/wch_libraries/Peripheral/ch32v10x_tim.c:158
    18f8:	fd842783          	lw	a5,-40(s0)
    18fc:	0027d783          	lhu	a5,2(a5)
    1900:	0792                	slli	a5,a5,0x4
    1902:	01079713          	slli	a4,a5,0x10
    1906:	8341                	srli	a4,a4,0x10
    1908:	fee45783          	lhu	a5,-18(s0)
    190c:	8fd9                	or	a5,a5,a4
    190e:	fef41723          	sh	a5,-18(s0)
C:\Users\16917\Desktop\Dual-core_Communication_Demo\Dual-core_Communication_Demo\MASTER\obj/../Libraries/wch_libraries/Peripheral/ch32v10x_tim.c:160
    1912:	fdc42703          	lw	a4,-36(s0)
    1916:	400137b7          	lui	a5,0x40013
    191a:	c0078793          	addi	a5,a5,-1024 # 40012c00 <_eusrstack+0x2000dc00>
    191e:	0af71063          	bne	a4,a5,19be <TIM_OC2Init+0x17a>
C:\Users\16917\Desktop\Dual-core_Communication_Demo\Dual-core_Communication_Demo\MASTER\obj/../Libraries/wch_libraries/Peripheral/ch32v10x_tim.c:162
    1922:	fee45783          	lhu	a5,-18(s0)
    1926:	f7f7f793          	andi	a5,a5,-129
    192a:	fef41723          	sh	a5,-18(s0)
C:\Users\16917\Desktop\Dual-core_Communication_Demo\Dual-core_Communication_Demo\MASTER\obj/../Libraries/wch_libraries/Peripheral/ch32v10x_tim.c:163
    192e:	fd842783          	lw	a5,-40(s0)
    1932:	00a7d783          	lhu	a5,10(a5)
    1936:	0792                	slli	a5,a5,0x4
    1938:	01079713          	slli	a4,a5,0x10
    193c:	8341                	srli	a4,a4,0x10
    193e:	fee45783          	lhu	a5,-18(s0)
    1942:	8fd9                	or	a5,a5,a4
    1944:	fef41723          	sh	a5,-18(s0)
C:\Users\16917\Desktop\Dual-core_Communication_Demo\Dual-core_Communication_Demo\MASTER\obj/../Libraries/wch_libraries/Peripheral/ch32v10x_tim.c:164
    1948:	fee45783          	lhu	a5,-18(s0)
    194c:	fbf7f793          	andi	a5,a5,-65
    1950:	fef41723          	sh	a5,-18(s0)
C:\Users\16917\Desktop\Dual-core_Communication_Demo\Dual-core_Communication_Demo\MASTER\obj/../Libraries/wch_libraries/Peripheral/ch32v10x_tim.c:165
    1954:	fd842783          	lw	a5,-40(s0)
    1958:	0047d783          	lhu	a5,4(a5)
    195c:	0792                	slli	a5,a5,0x4
    195e:	01079713          	slli	a4,a5,0x10
    1962:	8341                	srli	a4,a4,0x10
    1964:	fee45783          	lhu	a5,-18(s0)
    1968:	8fd9                	or	a5,a5,a4
    196a:	fef41723          	sh	a5,-18(s0)
C:\Users\16917\Desktop\Dual-core_Communication_Demo\Dual-core_Communication_Demo\MASTER\obj/../Libraries/wch_libraries/Peripheral/ch32v10x_tim.c:167
    196e:	fec45783          	lhu	a5,-20(s0)
    1972:	bff7f793          	andi	a5,a5,-1025
    1976:	fef41623          	sh	a5,-20(s0)
C:\Users\16917\Desktop\Dual-core_Communication_Demo\Dual-core_Communication_Demo\MASTER\obj/../Libraries/wch_libraries/Peripheral/ch32v10x_tim.c:168
    197a:	fec45703          	lhu	a4,-20(s0)
    197e:	77fd                	lui	a5,0xfffff
    1980:	7ff78793          	addi	a5,a5,2047 # fffff7ff <_eusrstack+0xdfffa7ff>
    1984:	8ff9                	and	a5,a5,a4
    1986:	fef41623          	sh	a5,-20(s0)
C:\Users\16917\Desktop\Dual-core_Communication_Demo\Dual-core_Communication_Demo\MASTER\obj/../Libraries/wch_libraries/Peripheral/ch32v10x_tim.c:169
    198a:	fd842783          	lw	a5,-40(s0)
    198e:	00c7d783          	lhu	a5,12(a5)
    1992:	078a                	slli	a5,a5,0x2
    1994:	01079713          	slli	a4,a5,0x10
    1998:	8341                	srli	a4,a4,0x10
    199a:	fec45783          	lhu	a5,-20(s0)
    199e:	8fd9                	or	a5,a5,a4
    19a0:	fef41623          	sh	a5,-20(s0)
C:\Users\16917\Desktop\Dual-core_Communication_Demo\Dual-core_Communication_Demo\MASTER\obj/../Libraries/wch_libraries/Peripheral/ch32v10x_tim.c:170
    19a4:	fd842783          	lw	a5,-40(s0)
    19a8:	00e7d783          	lhu	a5,14(a5)
    19ac:	078a                	slli	a5,a5,0x2
    19ae:	01079713          	slli	a4,a5,0x10
    19b2:	8341                	srli	a4,a4,0x10
    19b4:	fec45783          	lhu	a5,-20(s0)
    19b8:	8fd9                	or	a5,a5,a4
    19ba:	fef41623          	sh	a5,-20(s0)
C:\Users\16917\Desktop\Dual-core_Communication_Demo\Dual-core_Communication_Demo\MASTER\obj/../Libraries/wch_libraries/Peripheral/ch32v10x_tim.c:173
    19be:	fdc42783          	lw	a5,-36(s0)
    19c2:	fec45703          	lhu	a4,-20(s0)
    19c6:	00e79223          	sh	a4,4(a5)
C:\Users\16917\Desktop\Dual-core_Communication_Demo\Dual-core_Communication_Demo\MASTER\obj/../Libraries/wch_libraries/Peripheral/ch32v10x_tim.c:174
    19ca:	fdc42783          	lw	a5,-36(s0)
    19ce:	fea45703          	lhu	a4,-22(s0)
    19d2:	00e79c23          	sh	a4,24(a5)
C:\Users\16917\Desktop\Dual-core_Communication_Demo\Dual-core_Communication_Demo\MASTER\obj/../Libraries/wch_libraries/Peripheral/ch32v10x_tim.c:175
    19d6:	fd842783          	lw	a5,-40(s0)
    19da:	0067d703          	lhu	a4,6(a5)
    19de:	fdc42783          	lw	a5,-36(s0)
    19e2:	02e79c23          	sh	a4,56(a5)
C:\Users\16917\Desktop\Dual-core_Communication_Demo\Dual-core_Communication_Demo\MASTER\obj/../Libraries/wch_libraries/Peripheral/ch32v10x_tim.c:176
    19e6:	fdc42783          	lw	a5,-36(s0)
    19ea:	fee45703          	lhu	a4,-18(s0)
    19ee:	02e79023          	sh	a4,32(a5)
C:\Users\16917\Desktop\Dual-core_Communication_Demo\Dual-core_Communication_Demo\MASTER\obj/../Libraries/wch_libraries/Peripheral/ch32v10x_tim.c:177
    19f2:	0001                	nop
    19f4:	5432                	lw	s0,44(sp)
    19f6:	6145                	addi	sp,sp,48
    19f8:	8082                	ret

000019fa <TIM_OC3Init>:
TIM_OC3Init():
C:\Users\16917\Desktop\Dual-core_Communication_Demo\Dual-core_Communication_Demo\MASTER\obj/../Libraries/wch_libraries/Peripheral/ch32v10x_tim.c:188
    19fa:	7179                	addi	sp,sp,-48
    19fc:	d622                	sw	s0,44(sp)
    19fe:	1800                	addi	s0,sp,48
    1a00:	fca42e23          	sw	a0,-36(s0)
    1a04:	fcb42c23          	sw	a1,-40(s0)
C:\Users\16917\Desktop\Dual-core_Communication_Demo\Dual-core_Communication_Demo\MASTER\obj/../Libraries/wch_libraries/Peripheral/ch32v10x_tim.c:189
    1a08:	fe041523          	sh	zero,-22(s0)
    1a0c:	fe041723          	sh	zero,-18(s0)
    1a10:	fe041623          	sh	zero,-20(s0)
C:\Users\16917\Desktop\Dual-core_Communication_Demo\Dual-core_Communication_Demo\MASTER\obj/../Libraries/wch_libraries/Peripheral/ch32v10x_tim.c:191
    1a14:	fdc42783          	lw	a5,-36(s0)
    1a18:	0207d783          	lhu	a5,32(a5)
    1a1c:	07c2                	slli	a5,a5,0x10
    1a1e:	83c1                	srli	a5,a5,0x10
    1a20:	eff7f793          	andi	a5,a5,-257
    1a24:	01079713          	slli	a4,a5,0x10
    1a28:	8341                	srli	a4,a4,0x10
    1a2a:	fdc42783          	lw	a5,-36(s0)
    1a2e:	02e79023          	sh	a4,32(a5)
C:\Users\16917\Desktop\Dual-core_Communication_Demo\Dual-core_Communication_Demo\MASTER\obj/../Libraries/wch_libraries/Peripheral/ch32v10x_tim.c:192
    1a32:	fdc42783          	lw	a5,-36(s0)
    1a36:	0207d783          	lhu	a5,32(a5)
    1a3a:	fef41723          	sh	a5,-18(s0)
C:\Users\16917\Desktop\Dual-core_Communication_Demo\Dual-core_Communication_Demo\MASTER\obj/../Libraries/wch_libraries/Peripheral/ch32v10x_tim.c:193
    1a3e:	fdc42783          	lw	a5,-36(s0)
    1a42:	0047d783          	lhu	a5,4(a5)
    1a46:	fef41623          	sh	a5,-20(s0)
C:\Users\16917\Desktop\Dual-core_Communication_Demo\Dual-core_Communication_Demo\MASTER\obj/../Libraries/wch_libraries/Peripheral/ch32v10x_tim.c:194
    1a4a:	fdc42783          	lw	a5,-36(s0)
    1a4e:	01c7d783          	lhu	a5,28(a5)
    1a52:	fef41523          	sh	a5,-22(s0)
C:\Users\16917\Desktop\Dual-core_Communication_Demo\Dual-core_Communication_Demo\MASTER\obj/../Libraries/wch_libraries/Peripheral/ch32v10x_tim.c:195
    1a56:	fea45783          	lhu	a5,-22(s0)
    1a5a:	f8f7f793          	andi	a5,a5,-113
    1a5e:	fef41523          	sh	a5,-22(s0)
C:\Users\16917\Desktop\Dual-core_Communication_Demo\Dual-core_Communication_Demo\MASTER\obj/../Libraries/wch_libraries/Peripheral/ch32v10x_tim.c:196
    1a62:	fea45783          	lhu	a5,-22(s0)
    1a66:	9bf1                	andi	a5,a5,-4
    1a68:	fef41523          	sh	a5,-22(s0)
C:\Users\16917\Desktop\Dual-core_Communication_Demo\Dual-core_Communication_Demo\MASTER\obj/../Libraries/wch_libraries/Peripheral/ch32v10x_tim.c:197
    1a6c:	fd842783          	lw	a5,-40(s0)
    1a70:	0007d703          	lhu	a4,0(a5)
    1a74:	fea45783          	lhu	a5,-22(s0)
    1a78:	8fd9                	or	a5,a5,a4
    1a7a:	fef41523          	sh	a5,-22(s0)
C:\Users\16917\Desktop\Dual-core_Communication_Demo\Dual-core_Communication_Demo\MASTER\obj/../Libraries/wch_libraries/Peripheral/ch32v10x_tim.c:198
    1a7e:	fee45783          	lhu	a5,-18(s0)
    1a82:	dff7f793          	andi	a5,a5,-513
    1a86:	fef41723          	sh	a5,-18(s0)
C:\Users\16917\Desktop\Dual-core_Communication_Demo\Dual-core_Communication_Demo\MASTER\obj/../Libraries/wch_libraries/Peripheral/ch32v10x_tim.c:199
    1a8a:	fd842783          	lw	a5,-40(s0)
    1a8e:	0087d783          	lhu	a5,8(a5)
    1a92:	07a2                	slli	a5,a5,0x8
    1a94:	01079713          	slli	a4,a5,0x10
    1a98:	8341                	srli	a4,a4,0x10
    1a9a:	fee45783          	lhu	a5,-18(s0)
    1a9e:	8fd9                	or	a5,a5,a4
    1aa0:	fef41723          	sh	a5,-18(s0)
C:\Users\16917\Desktop\Dual-core_Communication_Demo\Dual-core_Communication_Demo\MASTER\obj/../Libraries/wch_libraries/Peripheral/ch32v10x_tim.c:200
    1aa4:	fd842783          	lw	a5,-40(s0)
    1aa8:	0027d783          	lhu	a5,2(a5)
    1aac:	07a2                	slli	a5,a5,0x8
    1aae:	01079713          	slli	a4,a5,0x10
    1ab2:	8341                	srli	a4,a4,0x10
    1ab4:	fee45783          	lhu	a5,-18(s0)
    1ab8:	8fd9                	or	a5,a5,a4
    1aba:	fef41723          	sh	a5,-18(s0)
C:\Users\16917\Desktop\Dual-core_Communication_Demo\Dual-core_Communication_Demo\MASTER\obj/../Libraries/wch_libraries/Peripheral/ch32v10x_tim.c:202
    1abe:	fdc42703          	lw	a4,-36(s0)
    1ac2:	400137b7          	lui	a5,0x40013
    1ac6:	c0078793          	addi	a5,a5,-1024 # 40012c00 <_eusrstack+0x2000dc00>
    1aca:	0af71263          	bne	a4,a5,1b6e <TIM_OC3Init+0x174>
C:\Users\16917\Desktop\Dual-core_Communication_Demo\Dual-core_Communication_Demo\MASTER\obj/../Libraries/wch_libraries/Peripheral/ch32v10x_tim.c:204
    1ace:	fee45703          	lhu	a4,-18(s0)
    1ad2:	77fd                	lui	a5,0xfffff
    1ad4:	7ff78793          	addi	a5,a5,2047 # fffff7ff <_eusrstack+0xdfffa7ff>
    1ad8:	8ff9                	and	a5,a5,a4
    1ada:	fef41723          	sh	a5,-18(s0)
C:\Users\16917\Desktop\Dual-core_Communication_Demo\Dual-core_Communication_Demo\MASTER\obj/../Libraries/wch_libraries/Peripheral/ch32v10x_tim.c:205
    1ade:	fd842783          	lw	a5,-40(s0)
    1ae2:	00a7d783          	lhu	a5,10(a5)
    1ae6:	07a2                	slli	a5,a5,0x8
    1ae8:	01079713          	slli	a4,a5,0x10
    1aec:	8341                	srli	a4,a4,0x10
    1aee:	fee45783          	lhu	a5,-18(s0)
    1af2:	8fd9                	or	a5,a5,a4
    1af4:	fef41723          	sh	a5,-18(s0)
C:\Users\16917\Desktop\Dual-core_Communication_Demo\Dual-core_Communication_Demo\MASTER\obj/../Libraries/wch_libraries/Peripheral/ch32v10x_tim.c:206
    1af8:	fee45783          	lhu	a5,-18(s0)
    1afc:	bff7f793          	andi	a5,a5,-1025
    1b00:	fef41723          	sh	a5,-18(s0)
C:\Users\16917\Desktop\Dual-core_Communication_Demo\Dual-core_Communication_Demo\MASTER\obj/../Libraries/wch_libraries/Peripheral/ch32v10x_tim.c:207
    1b04:	fd842783          	lw	a5,-40(s0)
    1b08:	0047d783          	lhu	a5,4(a5)
    1b0c:	07a2                	slli	a5,a5,0x8
    1b0e:	01079713          	slli	a4,a5,0x10
    1b12:	8341                	srli	a4,a4,0x10
    1b14:	fee45783          	lhu	a5,-18(s0)
    1b18:	8fd9                	or	a5,a5,a4
    1b1a:	fef41723          	sh	a5,-18(s0)
C:\Users\16917\Desktop\Dual-core_Communication_Demo\Dual-core_Communication_Demo\MASTER\obj/../Libraries/wch_libraries/Peripheral/ch32v10x_tim.c:208
    1b1e:	fec45703          	lhu	a4,-20(s0)
    1b22:	77fd                	lui	a5,0xfffff
    1b24:	17fd                	addi	a5,a5,-1
    1b26:	8ff9                	and	a5,a5,a4
    1b28:	fef41623          	sh	a5,-20(s0)
C:\Users\16917\Desktop\Dual-core_Communication_Demo\Dual-core_Communication_Demo\MASTER\obj/../Libraries/wch_libraries/Peripheral/ch32v10x_tim.c:209
    1b2c:	fec45703          	lhu	a4,-20(s0)
    1b30:	77f9                	lui	a5,0xffffe
    1b32:	17fd                	addi	a5,a5,-1
    1b34:	8ff9                	and	a5,a5,a4
    1b36:	fef41623          	sh	a5,-20(s0)
C:\Users\16917\Desktop\Dual-core_Communication_Demo\Dual-core_Communication_Demo\MASTER\obj/../Libraries/wch_libraries/Peripheral/ch32v10x_tim.c:210
    1b3a:	fd842783          	lw	a5,-40(s0)
    1b3e:	00c7d783          	lhu	a5,12(a5) # ffffe00c <_eusrstack+0xdfff900c>
    1b42:	0792                	slli	a5,a5,0x4
    1b44:	01079713          	slli	a4,a5,0x10
    1b48:	8341                	srli	a4,a4,0x10
    1b4a:	fec45783          	lhu	a5,-20(s0)
    1b4e:	8fd9                	or	a5,a5,a4
    1b50:	fef41623          	sh	a5,-20(s0)
C:\Users\16917\Desktop\Dual-core_Communication_Demo\Dual-core_Communication_Demo\MASTER\obj/../Libraries/wch_libraries/Peripheral/ch32v10x_tim.c:211
    1b54:	fd842783          	lw	a5,-40(s0)
    1b58:	00e7d783          	lhu	a5,14(a5)
    1b5c:	0792                	slli	a5,a5,0x4
    1b5e:	01079713          	slli	a4,a5,0x10
    1b62:	8341                	srli	a4,a4,0x10
    1b64:	fec45783          	lhu	a5,-20(s0)
    1b68:	8fd9                	or	a5,a5,a4
    1b6a:	fef41623          	sh	a5,-20(s0)
C:\Users\16917\Desktop\Dual-core_Communication_Demo\Dual-core_Communication_Demo\MASTER\obj/../Libraries/wch_libraries/Peripheral/ch32v10x_tim.c:214
    1b6e:	fdc42783          	lw	a5,-36(s0)
    1b72:	fec45703          	lhu	a4,-20(s0)
    1b76:	00e79223          	sh	a4,4(a5)
C:\Users\16917\Desktop\Dual-core_Communication_Demo\Dual-core_Communication_Demo\MASTER\obj/../Libraries/wch_libraries/Peripheral/ch32v10x_tim.c:215
    1b7a:	fdc42783          	lw	a5,-36(s0)
    1b7e:	fea45703          	lhu	a4,-22(s0)
    1b82:	00e79e23          	sh	a4,28(a5)
C:\Users\16917\Desktop\Dual-core_Communication_Demo\Dual-core_Communication_Demo\MASTER\obj/../Libraries/wch_libraries/Peripheral/ch32v10x_tim.c:216
    1b86:	fd842783          	lw	a5,-40(s0)
    1b8a:	0067d703          	lhu	a4,6(a5)
    1b8e:	fdc42783          	lw	a5,-36(s0)
    1b92:	02e79e23          	sh	a4,60(a5)
C:\Users\16917\Desktop\Dual-core_Communication_Demo\Dual-core_Communication_Demo\MASTER\obj/../Libraries/wch_libraries/Peripheral/ch32v10x_tim.c:217
    1b96:	fdc42783          	lw	a5,-36(s0)
    1b9a:	fee45703          	lhu	a4,-18(s0)
    1b9e:	02e79023          	sh	a4,32(a5)
C:\Users\16917\Desktop\Dual-core_Communication_Demo\Dual-core_Communication_Demo\MASTER\obj/../Libraries/wch_libraries/Peripheral/ch32v10x_tim.c:218
    1ba2:	0001                	nop
    1ba4:	5432                	lw	s0,44(sp)
    1ba6:	6145                	addi	sp,sp,48
    1ba8:	8082                	ret

00001baa <TIM_OC4Init>:
TIM_OC4Init():
C:\Users\16917\Desktop\Dual-core_Communication_Demo\Dual-core_Communication_Demo\MASTER\obj/../Libraries/wch_libraries/Peripheral/ch32v10x_tim.c:229
    1baa:	7179                	addi	sp,sp,-48
    1bac:	d622                	sw	s0,44(sp)
    1bae:	1800                	addi	s0,sp,48
    1bb0:	fca42e23          	sw	a0,-36(s0)
    1bb4:	fcb42c23          	sw	a1,-40(s0)
C:\Users\16917\Desktop\Dual-core_Communication_Demo\Dual-core_Communication_Demo\MASTER\obj/../Libraries/wch_libraries/Peripheral/ch32v10x_tim.c:230
    1bb8:	fe041623          	sh	zero,-20(s0)
    1bbc:	fe041523          	sh	zero,-22(s0)
    1bc0:	fe041723          	sh	zero,-18(s0)
C:\Users\16917\Desktop\Dual-core_Communication_Demo\Dual-core_Communication_Demo\MASTER\obj/../Libraries/wch_libraries/Peripheral/ch32v10x_tim.c:232
    1bc4:	fdc42783          	lw	a5,-36(s0)
    1bc8:	0207d783          	lhu	a5,32(a5)
    1bcc:	01079713          	slli	a4,a5,0x10
    1bd0:	8341                	srli	a4,a4,0x10
    1bd2:	77fd                	lui	a5,0xfffff
    1bd4:	17fd                	addi	a5,a5,-1
    1bd6:	8ff9                	and	a5,a5,a4
    1bd8:	01079713          	slli	a4,a5,0x10
    1bdc:	8341                	srli	a4,a4,0x10
    1bde:	fdc42783          	lw	a5,-36(s0)
    1be2:	02e79023          	sh	a4,32(a5) # fffff020 <_eusrstack+0xdfffa020>
C:\Users\16917\Desktop\Dual-core_Communication_Demo\Dual-core_Communication_Demo\MASTER\obj/../Libraries/wch_libraries/Peripheral/ch32v10x_tim.c:233
    1be6:	fdc42783          	lw	a5,-36(s0)
    1bea:	0207d783          	lhu	a5,32(a5)
    1bee:	fef41523          	sh	a5,-22(s0)
C:\Users\16917\Desktop\Dual-core_Communication_Demo\Dual-core_Communication_Demo\MASTER\obj/../Libraries/wch_libraries/Peripheral/ch32v10x_tim.c:234
    1bf2:	fdc42783          	lw	a5,-36(s0)
    1bf6:	0047d783          	lhu	a5,4(a5)
    1bfa:	fef41723          	sh	a5,-18(s0)
C:\Users\16917\Desktop\Dual-core_Communication_Demo\Dual-core_Communication_Demo\MASTER\obj/../Libraries/wch_libraries/Peripheral/ch32v10x_tim.c:235
    1bfe:	fdc42783          	lw	a5,-36(s0)
    1c02:	01c7d783          	lhu	a5,28(a5)
    1c06:	fef41623          	sh	a5,-20(s0)
C:\Users\16917\Desktop\Dual-core_Communication_Demo\Dual-core_Communication_Demo\MASTER\obj/../Libraries/wch_libraries/Peripheral/ch32v10x_tim.c:236
    1c0a:	fec45703          	lhu	a4,-20(s0)
    1c0e:	77e5                	lui	a5,0xffff9
    1c10:	17fd                	addi	a5,a5,-1
    1c12:	8ff9                	and	a5,a5,a4
    1c14:	fef41623          	sh	a5,-20(s0)
C:\Users\16917\Desktop\Dual-core_Communication_Demo\Dual-core_Communication_Demo\MASTER\obj/../Libraries/wch_libraries/Peripheral/ch32v10x_tim.c:237
    1c18:	fec45783          	lhu	a5,-20(s0)
    1c1c:	cff7f793          	andi	a5,a5,-769
    1c20:	fef41623          	sh	a5,-20(s0)
C:\Users\16917\Desktop\Dual-core_Communication_Demo\Dual-core_Communication_Demo\MASTER\obj/../Libraries/wch_libraries/Peripheral/ch32v10x_tim.c:238
    1c24:	fd842783          	lw	a5,-40(s0)
    1c28:	0007d783          	lhu	a5,0(a5) # ffff9000 <_eusrstack+0xdfff4000>
    1c2c:	07a2                	slli	a5,a5,0x8
    1c2e:	01079713          	slli	a4,a5,0x10
    1c32:	8341                	srli	a4,a4,0x10
    1c34:	fec45783          	lhu	a5,-20(s0)
    1c38:	8fd9                	or	a5,a5,a4
    1c3a:	fef41623          	sh	a5,-20(s0)
C:\Users\16917\Desktop\Dual-core_Communication_Demo\Dual-core_Communication_Demo\MASTER\obj/../Libraries/wch_libraries/Peripheral/ch32v10x_tim.c:239
    1c3e:	fea45703          	lhu	a4,-22(s0)
    1c42:	77f9                	lui	a5,0xffffe
    1c44:	17fd                	addi	a5,a5,-1
    1c46:	8ff9                	and	a5,a5,a4
    1c48:	fef41523          	sh	a5,-22(s0)
C:\Users\16917\Desktop\Dual-core_Communication_Demo\Dual-core_Communication_Demo\MASTER\obj/../Libraries/wch_libraries/Peripheral/ch32v10x_tim.c:240
    1c4c:	fd842783          	lw	a5,-40(s0)
    1c50:	0087d783          	lhu	a5,8(a5) # ffffe008 <_eusrstack+0xdfff9008>
    1c54:	07b2                	slli	a5,a5,0xc
    1c56:	01079713          	slli	a4,a5,0x10
    1c5a:	8341                	srli	a4,a4,0x10
    1c5c:	fea45783          	lhu	a5,-22(s0)
    1c60:	8fd9                	or	a5,a5,a4
    1c62:	fef41523          	sh	a5,-22(s0)
C:\Users\16917\Desktop\Dual-core_Communication_Demo\Dual-core_Communication_Demo\MASTER\obj/../Libraries/wch_libraries/Peripheral/ch32v10x_tim.c:241
    1c66:	fd842783          	lw	a5,-40(s0)
    1c6a:	0027d783          	lhu	a5,2(a5)
    1c6e:	07b2                	slli	a5,a5,0xc
    1c70:	01079713          	slli	a4,a5,0x10
    1c74:	8341                	srli	a4,a4,0x10
    1c76:	fea45783          	lhu	a5,-22(s0)
    1c7a:	8fd9                	or	a5,a5,a4
    1c7c:	fef41523          	sh	a5,-22(s0)
C:\Users\16917\Desktop\Dual-core_Communication_Demo\Dual-core_Communication_Demo\MASTER\obj/../Libraries/wch_libraries/Peripheral/ch32v10x_tim.c:243
    1c80:	fdc42703          	lw	a4,-36(s0)
    1c84:	400137b7          	lui	a5,0x40013
    1c88:	c0078793          	addi	a5,a5,-1024 # 40012c00 <_eusrstack+0x2000dc00>
    1c8c:	02f71663          	bne	a4,a5,1cb8 <TIM_OC4Init+0x10e>
C:\Users\16917\Desktop\Dual-core_Communication_Demo\Dual-core_Communication_Demo\MASTER\obj/../Libraries/wch_libraries/Peripheral/ch32v10x_tim.c:245
    1c90:	fee45703          	lhu	a4,-18(s0)
    1c94:	77f1                	lui	a5,0xffffc
    1c96:	17fd                	addi	a5,a5,-1
    1c98:	8ff9                	and	a5,a5,a4
    1c9a:	fef41723          	sh	a5,-18(s0)
C:\Users\16917\Desktop\Dual-core_Communication_Demo\Dual-core_Communication_Demo\MASTER\obj/../Libraries/wch_libraries/Peripheral/ch32v10x_tim.c:246
    1c9e:	fd842783          	lw	a5,-40(s0)
    1ca2:	00c7d783          	lhu	a5,12(a5) # ffffc00c <_eusrstack+0xdfff700c>
    1ca6:	079a                	slli	a5,a5,0x6
    1ca8:	01079713          	slli	a4,a5,0x10
    1cac:	8341                	srli	a4,a4,0x10
    1cae:	fee45783          	lhu	a5,-18(s0)
    1cb2:	8fd9                	or	a5,a5,a4
    1cb4:	fef41723          	sh	a5,-18(s0)
C:\Users\16917\Desktop\Dual-core_Communication_Demo\Dual-core_Communication_Demo\MASTER\obj/../Libraries/wch_libraries/Peripheral/ch32v10x_tim.c:249
    1cb8:	fdc42783          	lw	a5,-36(s0)
    1cbc:	fee45703          	lhu	a4,-18(s0)
    1cc0:	00e79223          	sh	a4,4(a5)
C:\Users\16917\Desktop\Dual-core_Communication_Demo\Dual-core_Communication_Demo\MASTER\obj/../Libraries/wch_libraries/Peripheral/ch32v10x_tim.c:250
    1cc4:	fdc42783          	lw	a5,-36(s0)
    1cc8:	fec45703          	lhu	a4,-20(s0)
    1ccc:	00e79e23          	sh	a4,28(a5)
C:\Users\16917\Desktop\Dual-core_Communication_Demo\Dual-core_Communication_Demo\MASTER\obj/../Libraries/wch_libraries/Peripheral/ch32v10x_tim.c:251
    1cd0:	fd842783          	lw	a5,-40(s0)
    1cd4:	0067d703          	lhu	a4,6(a5)
    1cd8:	fdc42783          	lw	a5,-36(s0)
    1cdc:	04e79023          	sh	a4,64(a5)
C:\Users\16917\Desktop\Dual-core_Communication_Demo\Dual-core_Communication_Demo\MASTER\obj/../Libraries/wch_libraries/Peripheral/ch32v10x_tim.c:252
    1ce0:	fdc42783          	lw	a5,-36(s0)
    1ce4:	fea45703          	lhu	a4,-22(s0)
    1ce8:	02e79023          	sh	a4,32(a5)
C:\Users\16917\Desktop\Dual-core_Communication_Demo\Dual-core_Communication_Demo\MASTER\obj/../Libraries/wch_libraries/Peripheral/ch32v10x_tim.c:253
    1cec:	0001                	nop
    1cee:	5432                	lw	s0,44(sp)
    1cf0:	6145                	addi	sp,sp,48
    1cf2:	8082                	ret

00001cf4 <TIM_TimeBaseStructInit>:
TIM_TimeBaseStructInit():
C:\Users\16917\Desktop\Dual-core_Communication_Demo\Dual-core_Communication_Demo\MASTER\obj/../Libraries/wch_libraries/Peripheral/ch32v10x_tim.c:367
    1cf4:	1101                	addi	sp,sp,-32
    1cf6:	ce22                	sw	s0,28(sp)
    1cf8:	1000                	addi	s0,sp,32
    1cfa:	fea42623          	sw	a0,-20(s0)
C:\Users\16917\Desktop\Dual-core_Communication_Demo\Dual-core_Communication_Demo\MASTER\obj/../Libraries/wch_libraries/Peripheral/ch32v10x_tim.c:368
    1cfe:	fec42783          	lw	a5,-20(s0)
    1d02:	577d                	li	a4,-1
    1d04:	00e79223          	sh	a4,4(a5)
C:\Users\16917\Desktop\Dual-core_Communication_Demo\Dual-core_Communication_Demo\MASTER\obj/../Libraries/wch_libraries/Peripheral/ch32v10x_tim.c:369
    1d08:	fec42783          	lw	a5,-20(s0)
    1d0c:	00079023          	sh	zero,0(a5)
C:\Users\16917\Desktop\Dual-core_Communication_Demo\Dual-core_Communication_Demo\MASTER\obj/../Libraries/wch_libraries/Peripheral/ch32v10x_tim.c:370
    1d10:	fec42783          	lw	a5,-20(s0)
    1d14:	00079323          	sh	zero,6(a5)
C:\Users\16917\Desktop\Dual-core_Communication_Demo\Dual-core_Communication_Demo\MASTER\obj/../Libraries/wch_libraries/Peripheral/ch32v10x_tim.c:371
    1d18:	fec42783          	lw	a5,-20(s0)
    1d1c:	00079123          	sh	zero,2(a5)
C:\Users\16917\Desktop\Dual-core_Communication_Demo\Dual-core_Communication_Demo\MASTER\obj/../Libraries/wch_libraries/Peripheral/ch32v10x_tim.c:372
    1d20:	fec42783          	lw	a5,-20(s0)
    1d24:	00078423          	sb	zero,8(a5)
C:\Users\16917\Desktop\Dual-core_Communication_Demo\Dual-core_Communication_Demo\MASTER\obj/../Libraries/wch_libraries/Peripheral/ch32v10x_tim.c:373
    1d28:	0001                	nop
    1d2a:	4472                	lw	s0,28(sp)
    1d2c:	6105                	addi	sp,sp,32
    1d2e:	8082                	ret

00001d30 <TIM_Cmd>:
TIM_Cmd():
C:\Users\16917\Desktop\Dual-core_Communication_Demo\Dual-core_Communication_Demo\MASTER\obj/../Libraries/wch_libraries/Peripheral/ch32v10x_tim.c:433
    1d30:	1101                	addi	sp,sp,-32
    1d32:	ce22                	sw	s0,28(sp)
    1d34:	1000                	addi	s0,sp,32
    1d36:	fea42623          	sw	a0,-20(s0)
    1d3a:	feb42423          	sw	a1,-24(s0)
C:\Users\16917\Desktop\Dual-core_Communication_Demo\Dual-core_Communication_Demo\MASTER\obj/../Libraries/wch_libraries/Peripheral/ch32v10x_tim.c:434
    1d3e:	fe842783          	lw	a5,-24(s0)
    1d42:	c38d                	beqz	a5,1d64 <TIM_Cmd+0x34>
C:\Users\16917\Desktop\Dual-core_Communication_Demo\Dual-core_Communication_Demo\MASTER\obj/../Libraries/wch_libraries/Peripheral/ch32v10x_tim.c:436
    1d44:	fec42783          	lw	a5,-20(s0)
    1d48:	0007d783          	lhu	a5,0(a5)
    1d4c:	07c2                	slli	a5,a5,0x10
    1d4e:	83c1                	srli	a5,a5,0x10
    1d50:	0017e793          	ori	a5,a5,1
    1d54:	01079713          	slli	a4,a5,0x10
    1d58:	8341                	srli	a4,a4,0x10
    1d5a:	fec42783          	lw	a5,-20(s0)
    1d5e:	00e79023          	sh	a4,0(a5)
C:\Users\16917\Desktop\Dual-core_Communication_Demo\Dual-core_Communication_Demo\MASTER\obj/../Libraries/wch_libraries/Peripheral/ch32v10x_tim.c:442
    1d62:	a839                	j	1d80 <TIM_Cmd+0x50>
C:\Users\16917\Desktop\Dual-core_Communication_Demo\Dual-core_Communication_Demo\MASTER\obj/../Libraries/wch_libraries/Peripheral/ch32v10x_tim.c:440
    1d64:	fec42783          	lw	a5,-20(s0)
    1d68:	0007d783          	lhu	a5,0(a5)
    1d6c:	07c2                	slli	a5,a5,0x10
    1d6e:	83c1                	srli	a5,a5,0x10
    1d70:	9bf9                	andi	a5,a5,-2
    1d72:	01079713          	slli	a4,a5,0x10
    1d76:	8341                	srli	a4,a4,0x10
    1d78:	fec42783          	lw	a5,-20(s0)
    1d7c:	00e79023          	sh	a4,0(a5)
C:\Users\16917\Desktop\Dual-core_Communication_Demo\Dual-core_Communication_Demo\MASTER\obj/../Libraries/wch_libraries/Peripheral/ch32v10x_tim.c:442
    1d80:	0001                	nop
    1d82:	4472                	lw	s0,28(sp)
    1d84:	6105                	addi	sp,sp,32
    1d86:	8082                	ret

00001d88 <TIM_CtrlPWMOutputs>:
TIM_CtrlPWMOutputs():
C:\Users\16917\Desktop\Dual-core_Communication_Demo\Dual-core_Communication_Demo\MASTER\obj/../Libraries/wch_libraries/Peripheral/ch32v10x_tim.c:452
    1d88:	1101                	addi	sp,sp,-32
    1d8a:	ce22                	sw	s0,28(sp)
    1d8c:	1000                	addi	s0,sp,32
    1d8e:	fea42623          	sw	a0,-20(s0)
    1d92:	feb42423          	sw	a1,-24(s0)
C:\Users\16917\Desktop\Dual-core_Communication_Demo\Dual-core_Communication_Demo\MASTER\obj/../Libraries/wch_libraries/Peripheral/ch32v10x_tim.c:453
    1d96:	fe842783          	lw	a5,-24(s0)
    1d9a:	c395                	beqz	a5,1dbe <TIM_CtrlPWMOutputs+0x36>
C:\Users\16917\Desktop\Dual-core_Communication_Demo\Dual-core_Communication_Demo\MASTER\obj/../Libraries/wch_libraries/Peripheral/ch32v10x_tim.c:455
    1d9c:	fec42783          	lw	a5,-20(s0)
    1da0:	0447d783          	lhu	a5,68(a5)
    1da4:	01079713          	slli	a4,a5,0x10
    1da8:	8341                	srli	a4,a4,0x10
    1daa:	77e1                	lui	a5,0xffff8
    1dac:	8fd9                	or	a5,a5,a4
    1dae:	01079713          	slli	a4,a5,0x10
    1db2:	8341                	srli	a4,a4,0x10
    1db4:	fec42783          	lw	a5,-20(s0)
    1db8:	04e79223          	sh	a4,68(a5) # ffff8044 <_eusrstack+0xdfff3044>
C:\Users\16917\Desktop\Dual-core_Communication_Demo\Dual-core_Communication_Demo\MASTER\obj/../Libraries/wch_libraries/Peripheral/ch32v10x_tim.c:461
    1dbc:	a015                	j	1de0 <TIM_CtrlPWMOutputs+0x58>
C:\Users\16917\Desktop\Dual-core_Communication_Demo\Dual-core_Communication_Demo\MASTER\obj/../Libraries/wch_libraries/Peripheral/ch32v10x_tim.c:459
    1dbe:	fec42783          	lw	a5,-20(s0)
    1dc2:	0447d783          	lhu	a5,68(a5)
    1dc6:	01079713          	slli	a4,a5,0x10
    1dca:	8341                	srli	a4,a4,0x10
    1dcc:	67a1                	lui	a5,0x8
    1dce:	17fd                	addi	a5,a5,-1
    1dd0:	8ff9                	and	a5,a5,a4
    1dd2:	01079713          	slli	a4,a5,0x10
    1dd6:	8341                	srli	a4,a4,0x10
    1dd8:	fec42783          	lw	a5,-20(s0)
    1ddc:	04e79223          	sh	a4,68(a5) # 8044 <_data_lma+0x12ac>
C:\Users\16917\Desktop\Dual-core_Communication_Demo\Dual-core_Communication_Demo\MASTER\obj/../Libraries/wch_libraries/Peripheral/ch32v10x_tim.c:461
    1de0:	0001                	nop
    1de2:	4472                	lw	s0,28(sp)
    1de4:	6105                	addi	sp,sp,32
    1de6:	8082                	ret

00001de8 <TIM_EncoderInterfaceConfig>:
TIM_EncoderInterfaceConfig():
C:\Users\16917\Desktop\Dual-core_Communication_Demo\Dual-core_Communication_Demo\MASTER\obj/../Libraries/wch_libraries/Peripheral/ch32v10x_tim.c:796
    1de8:	7179                	addi	sp,sp,-48
    1dea:	d622                	sw	s0,44(sp)
    1dec:	1800                	addi	s0,sp,48
    1dee:	fca42e23          	sw	a0,-36(s0)
    1df2:	87ae                	mv	a5,a1
    1df4:	8736                	mv	a4,a3
    1df6:	fcf41d23          	sh	a5,-38(s0)
    1dfa:	87b2                	mv	a5,a2
    1dfc:	fcf41c23          	sh	a5,-40(s0)
    1e00:	87ba                	mv	a5,a4
    1e02:	fcf41b23          	sh	a5,-42(s0)
C:\Users\16917\Desktop\Dual-core_Communication_Demo\Dual-core_Communication_Demo\MASTER\obj/../Libraries/wch_libraries/Peripheral/ch32v10x_tim.c:797
    1e06:	fe041723          	sh	zero,-18(s0)
C:\Users\16917\Desktop\Dual-core_Communication_Demo\Dual-core_Communication_Demo\MASTER\obj/../Libraries/wch_libraries/Peripheral/ch32v10x_tim.c:798
    1e0a:	fe041623          	sh	zero,-20(s0)
C:\Users\16917\Desktop\Dual-core_Communication_Demo\Dual-core_Communication_Demo\MASTER\obj/../Libraries/wch_libraries/Peripheral/ch32v10x_tim.c:799
    1e0e:	fe041523          	sh	zero,-22(s0)
C:\Users\16917\Desktop\Dual-core_Communication_Demo\Dual-core_Communication_Demo\MASTER\obj/../Libraries/wch_libraries/Peripheral/ch32v10x_tim.c:801
    1e12:	fdc42783          	lw	a5,-36(s0)
    1e16:	0087d783          	lhu	a5,8(a5)
    1e1a:	fef41723          	sh	a5,-18(s0)
C:\Users\16917\Desktop\Dual-core_Communication_Demo\Dual-core_Communication_Demo\MASTER\obj/../Libraries/wch_libraries/Peripheral/ch32v10x_tim.c:802
    1e1e:	fdc42783          	lw	a5,-36(s0)
    1e22:	0187d783          	lhu	a5,24(a5)
    1e26:	fef41623          	sh	a5,-20(s0)
C:\Users\16917\Desktop\Dual-core_Communication_Demo\Dual-core_Communication_Demo\MASTER\obj/../Libraries/wch_libraries/Peripheral/ch32v10x_tim.c:803
    1e2a:	fdc42783          	lw	a5,-36(s0)
    1e2e:	0207d783          	lhu	a5,32(a5)
    1e32:	fef41523          	sh	a5,-22(s0)
C:\Users\16917\Desktop\Dual-core_Communication_Demo\Dual-core_Communication_Demo\MASTER\obj/../Libraries/wch_libraries/Peripheral/ch32v10x_tim.c:804
    1e36:	fee45783          	lhu	a5,-18(s0)
    1e3a:	9be1                	andi	a5,a5,-8
    1e3c:	fef41723          	sh	a5,-18(s0)
C:\Users\16917\Desktop\Dual-core_Communication_Demo\Dual-core_Communication_Demo\MASTER\obj/../Libraries/wch_libraries/Peripheral/ch32v10x_tim.c:805
    1e40:	fee45703          	lhu	a4,-18(s0)
    1e44:	fda45783          	lhu	a5,-38(s0)
    1e48:	8fd9                	or	a5,a5,a4
    1e4a:	fef41723          	sh	a5,-18(s0)
C:\Users\16917\Desktop\Dual-core_Communication_Demo\Dual-core_Communication_Demo\MASTER\obj/../Libraries/wch_libraries/Peripheral/ch32v10x_tim.c:806
    1e4e:	fec45783          	lhu	a5,-20(s0)
    1e52:	cfc7f793          	andi	a5,a5,-772
    1e56:	fef41623          	sh	a5,-20(s0)
C:\Users\16917\Desktop\Dual-core_Communication_Demo\Dual-core_Communication_Demo\MASTER\obj/../Libraries/wch_libraries/Peripheral/ch32v10x_tim.c:807
    1e5a:	fec45783          	lhu	a5,-20(s0)
    1e5e:	1017e793          	ori	a5,a5,257
    1e62:	fef41623          	sh	a5,-20(s0)
C:\Users\16917\Desktop\Dual-core_Communication_Demo\Dual-core_Communication_Demo\MASTER\obj/../Libraries/wch_libraries/Peripheral/ch32v10x_tim.c:808
    1e66:	fea45783          	lhu	a5,-22(s0)
    1e6a:	fdd7f793          	andi	a5,a5,-35
    1e6e:	fef41523          	sh	a5,-22(s0)
C:\Users\16917\Desktop\Dual-core_Communication_Demo\Dual-core_Communication_Demo\MASTER\obj/../Libraries/wch_libraries/Peripheral/ch32v10x_tim.c:809
    1e72:	fd645783          	lhu	a5,-42(s0)
    1e76:	0792                	slli	a5,a5,0x4
    1e78:	01079713          	slli	a4,a5,0x10
    1e7c:	8341                	srli	a4,a4,0x10
    1e7e:	fd845783          	lhu	a5,-40(s0)
    1e82:	8fd9                	or	a5,a5,a4
    1e84:	01079713          	slli	a4,a5,0x10
    1e88:	8341                	srli	a4,a4,0x10
    1e8a:	fea45783          	lhu	a5,-22(s0)
    1e8e:	8fd9                	or	a5,a5,a4
    1e90:	fef41523          	sh	a5,-22(s0)
C:\Users\16917\Desktop\Dual-core_Communication_Demo\Dual-core_Communication_Demo\MASTER\obj/../Libraries/wch_libraries/Peripheral/ch32v10x_tim.c:810
    1e94:	fdc42783          	lw	a5,-36(s0)
    1e98:	fee45703          	lhu	a4,-18(s0)
    1e9c:	00e79423          	sh	a4,8(a5)
C:\Users\16917\Desktop\Dual-core_Communication_Demo\Dual-core_Communication_Demo\MASTER\obj/../Libraries/wch_libraries/Peripheral/ch32v10x_tim.c:811
    1ea0:	fdc42783          	lw	a5,-36(s0)
    1ea4:	fec45703          	lhu	a4,-20(s0)
    1ea8:	00e79c23          	sh	a4,24(a5)
C:\Users\16917\Desktop\Dual-core_Communication_Demo\Dual-core_Communication_Demo\MASTER\obj/../Libraries/wch_libraries/Peripheral/ch32v10x_tim.c:812
    1eac:	fdc42783          	lw	a5,-36(s0)
    1eb0:	fea45703          	lhu	a4,-22(s0)
    1eb4:	02e79023          	sh	a4,32(a5)
C:\Users\16917\Desktop\Dual-core_Communication_Demo\Dual-core_Communication_Demo\MASTER\obj/../Libraries/wch_libraries/Peripheral/ch32v10x_tim.c:813
    1eb8:	0001                	nop
    1eba:	5432                	lw	s0,44(sp)
    1ebc:	6145                	addi	sp,sp,48
    1ebe:	8082                	ret

00001ec0 <TIM_OC1PreloadConfig>:
TIM_OC1PreloadConfig():
C:\Users\16917\Desktop\Dual-core_Communication_Demo\Dual-core_Communication_Demo\MASTER\obj/../Libraries/wch_libraries/Peripheral/ch32v10x_tim.c:981
    1ec0:	7179                	addi	sp,sp,-48
    1ec2:	d622                	sw	s0,44(sp)
    1ec4:	1800                	addi	s0,sp,48
    1ec6:	fca42e23          	sw	a0,-36(s0)
    1eca:	87ae                	mv	a5,a1
    1ecc:	fcf41d23          	sh	a5,-38(s0)
C:\Users\16917\Desktop\Dual-core_Communication_Demo\Dual-core_Communication_Demo\MASTER\obj/../Libraries/wch_libraries/Peripheral/ch32v10x_tim.c:982
    1ed0:	fe041723          	sh	zero,-18(s0)
C:\Users\16917\Desktop\Dual-core_Communication_Demo\Dual-core_Communication_Demo\MASTER\obj/../Libraries/wch_libraries/Peripheral/ch32v10x_tim.c:984
    1ed4:	fdc42783          	lw	a5,-36(s0)
    1ed8:	0187d783          	lhu	a5,24(a5)
    1edc:	fef41723          	sh	a5,-18(s0)
C:\Users\16917\Desktop\Dual-core_Communication_Demo\Dual-core_Communication_Demo\MASTER\obj/../Libraries/wch_libraries/Peripheral/ch32v10x_tim.c:985
    1ee0:	fee45783          	lhu	a5,-18(s0)
    1ee4:	9bdd                	andi	a5,a5,-9
    1ee6:	fef41723          	sh	a5,-18(s0)
C:\Users\16917\Desktop\Dual-core_Communication_Demo\Dual-core_Communication_Demo\MASTER\obj/../Libraries/wch_libraries/Peripheral/ch32v10x_tim.c:986
    1eea:	fee45703          	lhu	a4,-18(s0)
    1eee:	fda45783          	lhu	a5,-38(s0)
    1ef2:	8fd9                	or	a5,a5,a4
    1ef4:	fef41723          	sh	a5,-18(s0)
C:\Users\16917\Desktop\Dual-core_Communication_Demo\Dual-core_Communication_Demo\MASTER\obj/../Libraries/wch_libraries/Peripheral/ch32v10x_tim.c:987
    1ef8:	fdc42783          	lw	a5,-36(s0)
    1efc:	fee45703          	lhu	a4,-18(s0)
    1f00:	00e79c23          	sh	a4,24(a5)
C:\Users\16917\Desktop\Dual-core_Communication_Demo\Dual-core_Communication_Demo\MASTER\obj/../Libraries/wch_libraries/Peripheral/ch32v10x_tim.c:988
    1f04:	0001                	nop
    1f06:	5432                	lw	s0,44(sp)
    1f08:	6145                	addi	sp,sp,48
    1f0a:	8082                	ret

00001f0c <TIM_OC2PreloadConfig>:
TIM_OC2PreloadConfig():
C:\Users\16917\Desktop\Dual-core_Communication_Demo\Dual-core_Communication_Demo\MASTER\obj/../Libraries/wch_libraries/Peripheral/ch32v10x_tim.c:1000
    1f0c:	7179                	addi	sp,sp,-48
    1f0e:	d622                	sw	s0,44(sp)
    1f10:	1800                	addi	s0,sp,48
    1f12:	fca42e23          	sw	a0,-36(s0)
    1f16:	87ae                	mv	a5,a1
    1f18:	fcf41d23          	sh	a5,-38(s0)
C:\Users\16917\Desktop\Dual-core_Communication_Demo\Dual-core_Communication_Demo\MASTER\obj/../Libraries/wch_libraries/Peripheral/ch32v10x_tim.c:1001
    1f1c:	fe041723          	sh	zero,-18(s0)
C:\Users\16917\Desktop\Dual-core_Communication_Demo\Dual-core_Communication_Demo\MASTER\obj/../Libraries/wch_libraries/Peripheral/ch32v10x_tim.c:1003
    1f20:	fdc42783          	lw	a5,-36(s0)
    1f24:	0187d783          	lhu	a5,24(a5)
    1f28:	fef41723          	sh	a5,-18(s0)
C:\Users\16917\Desktop\Dual-core_Communication_Demo\Dual-core_Communication_Demo\MASTER\obj/../Libraries/wch_libraries/Peripheral/ch32v10x_tim.c:1004
    1f2c:	fee45703          	lhu	a4,-18(s0)
    1f30:	77fd                	lui	a5,0xfffff
    1f32:	7ff78793          	addi	a5,a5,2047 # fffff7ff <_eusrstack+0xdfffa7ff>
    1f36:	8ff9                	and	a5,a5,a4
    1f38:	fef41723          	sh	a5,-18(s0)
C:\Users\16917\Desktop\Dual-core_Communication_Demo\Dual-core_Communication_Demo\MASTER\obj/../Libraries/wch_libraries/Peripheral/ch32v10x_tim.c:1005
    1f3c:	fda45783          	lhu	a5,-38(s0)
    1f40:	07a2                	slli	a5,a5,0x8
    1f42:	01079713          	slli	a4,a5,0x10
    1f46:	8341                	srli	a4,a4,0x10
    1f48:	fee45783          	lhu	a5,-18(s0)
    1f4c:	8fd9                	or	a5,a5,a4
    1f4e:	fef41723          	sh	a5,-18(s0)
C:\Users\16917\Desktop\Dual-core_Communication_Demo\Dual-core_Communication_Demo\MASTER\obj/../Libraries/wch_libraries/Peripheral/ch32v10x_tim.c:1006
    1f52:	fdc42783          	lw	a5,-36(s0)
    1f56:	fee45703          	lhu	a4,-18(s0)
    1f5a:	00e79c23          	sh	a4,24(a5)
C:\Users\16917\Desktop\Dual-core_Communication_Demo\Dual-core_Communication_Demo\MASTER\obj/../Libraries/wch_libraries/Peripheral/ch32v10x_tim.c:1007
    1f5e:	0001                	nop
    1f60:	5432                	lw	s0,44(sp)
    1f62:	6145                	addi	sp,sp,48
    1f64:	8082                	ret

00001f66 <TIM_OC3PreloadConfig>:
TIM_OC3PreloadConfig():
C:\Users\16917\Desktop\Dual-core_Communication_Demo\Dual-core_Communication_Demo\MASTER\obj/../Libraries/wch_libraries/Peripheral/ch32v10x_tim.c:1019
    1f66:	7179                	addi	sp,sp,-48
    1f68:	d622                	sw	s0,44(sp)
    1f6a:	1800                	addi	s0,sp,48
    1f6c:	fca42e23          	sw	a0,-36(s0)
    1f70:	87ae                	mv	a5,a1
    1f72:	fcf41d23          	sh	a5,-38(s0)
C:\Users\16917\Desktop\Dual-core_Communication_Demo\Dual-core_Communication_Demo\MASTER\obj/../Libraries/wch_libraries/Peripheral/ch32v10x_tim.c:1020
    1f76:	fe041723          	sh	zero,-18(s0)
C:\Users\16917\Desktop\Dual-core_Communication_Demo\Dual-core_Communication_Demo\MASTER\obj/../Libraries/wch_libraries/Peripheral/ch32v10x_tim.c:1022
    1f7a:	fdc42783          	lw	a5,-36(s0)
    1f7e:	01c7d783          	lhu	a5,28(a5)
    1f82:	fef41723          	sh	a5,-18(s0)
C:\Users\16917\Desktop\Dual-core_Communication_Demo\Dual-core_Communication_Demo\MASTER\obj/../Libraries/wch_libraries/Peripheral/ch32v10x_tim.c:1023
    1f86:	fee45783          	lhu	a5,-18(s0)
    1f8a:	9bdd                	andi	a5,a5,-9
    1f8c:	fef41723          	sh	a5,-18(s0)
C:\Users\16917\Desktop\Dual-core_Communication_Demo\Dual-core_Communication_Demo\MASTER\obj/../Libraries/wch_libraries/Peripheral/ch32v10x_tim.c:1024
    1f90:	fee45703          	lhu	a4,-18(s0)
    1f94:	fda45783          	lhu	a5,-38(s0)
    1f98:	8fd9                	or	a5,a5,a4
    1f9a:	fef41723          	sh	a5,-18(s0)
C:\Users\16917\Desktop\Dual-core_Communication_Demo\Dual-core_Communication_Demo\MASTER\obj/../Libraries/wch_libraries/Peripheral/ch32v10x_tim.c:1025
    1f9e:	fdc42783          	lw	a5,-36(s0)
    1fa2:	fee45703          	lhu	a4,-18(s0)
    1fa6:	00e79e23          	sh	a4,28(a5)
C:\Users\16917\Desktop\Dual-core_Communication_Demo\Dual-core_Communication_Demo\MASTER\obj/../Libraries/wch_libraries/Peripheral/ch32v10x_tim.c:1026
    1faa:	0001                	nop
    1fac:	5432                	lw	s0,44(sp)
    1fae:	6145                	addi	sp,sp,48
    1fb0:	8082                	ret

00001fb2 <TIM_OC4PreloadConfig>:
TIM_OC4PreloadConfig():
C:\Users\16917\Desktop\Dual-core_Communication_Demo\Dual-core_Communication_Demo\MASTER\obj/../Libraries/wch_libraries/Peripheral/ch32v10x_tim.c:1038
    1fb2:	7179                	addi	sp,sp,-48
    1fb4:	d622                	sw	s0,44(sp)
    1fb6:	1800                	addi	s0,sp,48
    1fb8:	fca42e23          	sw	a0,-36(s0)
    1fbc:	87ae                	mv	a5,a1
    1fbe:	fcf41d23          	sh	a5,-38(s0)
C:\Users\16917\Desktop\Dual-core_Communication_Demo\Dual-core_Communication_Demo\MASTER\obj/../Libraries/wch_libraries/Peripheral/ch32v10x_tim.c:1039
    1fc2:	fe041723          	sh	zero,-18(s0)
C:\Users\16917\Desktop\Dual-core_Communication_Demo\Dual-core_Communication_Demo\MASTER\obj/../Libraries/wch_libraries/Peripheral/ch32v10x_tim.c:1041
    1fc6:	fdc42783          	lw	a5,-36(s0)
    1fca:	01c7d783          	lhu	a5,28(a5)
    1fce:	fef41723          	sh	a5,-18(s0)
C:\Users\16917\Desktop\Dual-core_Communication_Demo\Dual-core_Communication_Demo\MASTER\obj/../Libraries/wch_libraries/Peripheral/ch32v10x_tim.c:1042
    1fd2:	fee45703          	lhu	a4,-18(s0)
    1fd6:	77fd                	lui	a5,0xfffff
    1fd8:	7ff78793          	addi	a5,a5,2047 # fffff7ff <_eusrstack+0xdfffa7ff>
    1fdc:	8ff9                	and	a5,a5,a4
    1fde:	fef41723          	sh	a5,-18(s0)
C:\Users\16917\Desktop\Dual-core_Communication_Demo\Dual-core_Communication_Demo\MASTER\obj/../Libraries/wch_libraries/Peripheral/ch32v10x_tim.c:1043
    1fe2:	fda45783          	lhu	a5,-38(s0)
    1fe6:	07a2                	slli	a5,a5,0x8
    1fe8:	01079713          	slli	a4,a5,0x10
    1fec:	8341                	srli	a4,a4,0x10
    1fee:	fee45783          	lhu	a5,-18(s0)
    1ff2:	8fd9                	or	a5,a5,a4
    1ff4:	fef41723          	sh	a5,-18(s0)
C:\Users\16917\Desktop\Dual-core_Communication_Demo\Dual-core_Communication_Demo\MASTER\obj/../Libraries/wch_libraries/Peripheral/ch32v10x_tim.c:1044
    1ff8:	fdc42783          	lw	a5,-36(s0)
    1ffc:	fee45703          	lhu	a4,-18(s0)
    2000:	00e79e23          	sh	a4,28(a5)
C:\Users\16917\Desktop\Dual-core_Communication_Demo\Dual-core_Communication_Demo\MASTER\obj/../Libraries/wch_libraries/Peripheral/ch32v10x_tim.c:1045
    2004:	0001                	nop
    2006:	5432                	lw	s0,44(sp)
    2008:	6145                	addi	sp,sp,48
    200a:	8082                	ret

0000200c <TIM_OC1FastConfig>:
TIM_OC1FastConfig():
C:\Users\16917\Desktop\Dual-core_Communication_Demo\Dual-core_Communication_Demo\MASTER\obj/../Libraries/wch_libraries/Peripheral/ch32v10x_tim.c:1057
    200c:	7179                	addi	sp,sp,-48
    200e:	d622                	sw	s0,44(sp)
    2010:	1800                	addi	s0,sp,48
    2012:	fca42e23          	sw	a0,-36(s0)
    2016:	87ae                	mv	a5,a1
    2018:	fcf41d23          	sh	a5,-38(s0)
C:\Users\16917\Desktop\Dual-core_Communication_Demo\Dual-core_Communication_Demo\MASTER\obj/../Libraries/wch_libraries/Peripheral/ch32v10x_tim.c:1058
    201c:	fe041723          	sh	zero,-18(s0)
C:\Users\16917\Desktop\Dual-core_Communication_Demo\Dual-core_Communication_Demo\MASTER\obj/../Libraries/wch_libraries/Peripheral/ch32v10x_tim.c:1060
    2020:	fdc42783          	lw	a5,-36(s0)
    2024:	0187d783          	lhu	a5,24(a5)
    2028:	fef41723          	sh	a5,-18(s0)
C:\Users\16917\Desktop\Dual-core_Communication_Demo\Dual-core_Communication_Demo\MASTER\obj/../Libraries/wch_libraries/Peripheral/ch32v10x_tim.c:1061
    202c:	fee45783          	lhu	a5,-18(s0)
    2030:	9bed                	andi	a5,a5,-5
    2032:	fef41723          	sh	a5,-18(s0)
C:\Users\16917\Desktop\Dual-core_Communication_Demo\Dual-core_Communication_Demo\MASTER\obj/../Libraries/wch_libraries/Peripheral/ch32v10x_tim.c:1062
    2036:	fee45703          	lhu	a4,-18(s0)
    203a:	fda45783          	lhu	a5,-38(s0)
    203e:	8fd9                	or	a5,a5,a4
    2040:	fef41723          	sh	a5,-18(s0)
C:\Users\16917\Desktop\Dual-core_Communication_Demo\Dual-core_Communication_Demo\MASTER\obj/../Libraries/wch_libraries/Peripheral/ch32v10x_tim.c:1063
    2044:	fdc42783          	lw	a5,-36(s0)
    2048:	fee45703          	lhu	a4,-18(s0)
    204c:	00e79c23          	sh	a4,24(a5)
C:\Users\16917\Desktop\Dual-core_Communication_Demo\Dual-core_Communication_Demo\MASTER\obj/../Libraries/wch_libraries/Peripheral/ch32v10x_tim.c:1064
    2050:	0001                	nop
    2052:	5432                	lw	s0,44(sp)
    2054:	6145                	addi	sp,sp,48
    2056:	8082                	ret

00002058 <TIM_OC2FastConfig>:
TIM_OC2FastConfig():
C:\Users\16917\Desktop\Dual-core_Communication_Demo\Dual-core_Communication_Demo\MASTER\obj/../Libraries/wch_libraries/Peripheral/ch32v10x_tim.c:1076
    2058:	7179                	addi	sp,sp,-48
    205a:	d622                	sw	s0,44(sp)
    205c:	1800                	addi	s0,sp,48
    205e:	fca42e23          	sw	a0,-36(s0)
    2062:	87ae                	mv	a5,a1
    2064:	fcf41d23          	sh	a5,-38(s0)
C:\Users\16917\Desktop\Dual-core_Communication_Demo\Dual-core_Communication_Demo\MASTER\obj/../Libraries/wch_libraries/Peripheral/ch32v10x_tim.c:1077
    2068:	fe041723          	sh	zero,-18(s0)
C:\Users\16917\Desktop\Dual-core_Communication_Demo\Dual-core_Communication_Demo\MASTER\obj/../Libraries/wch_libraries/Peripheral/ch32v10x_tim.c:1079
    206c:	fdc42783          	lw	a5,-36(s0)
    2070:	0187d783          	lhu	a5,24(a5)
    2074:	fef41723          	sh	a5,-18(s0)
C:\Users\16917\Desktop\Dual-core_Communication_Demo\Dual-core_Communication_Demo\MASTER\obj/../Libraries/wch_libraries/Peripheral/ch32v10x_tim.c:1080
    2078:	fee45783          	lhu	a5,-18(s0)
    207c:	bff7f793          	andi	a5,a5,-1025
    2080:	fef41723          	sh	a5,-18(s0)
C:\Users\16917\Desktop\Dual-core_Communication_Demo\Dual-core_Communication_Demo\MASTER\obj/../Libraries/wch_libraries/Peripheral/ch32v10x_tim.c:1081
    2084:	fda45783          	lhu	a5,-38(s0)
    2088:	07a2                	slli	a5,a5,0x8
    208a:	01079713          	slli	a4,a5,0x10
    208e:	8341                	srli	a4,a4,0x10
    2090:	fee45783          	lhu	a5,-18(s0)
    2094:	8fd9                	or	a5,a5,a4
    2096:	fef41723          	sh	a5,-18(s0)
C:\Users\16917\Desktop\Dual-core_Communication_Demo\Dual-core_Communication_Demo\MASTER\obj/../Libraries/wch_libraries/Peripheral/ch32v10x_tim.c:1082
    209a:	fdc42783          	lw	a5,-36(s0)
    209e:	fee45703          	lhu	a4,-18(s0)
    20a2:	00e79c23          	sh	a4,24(a5)
C:\Users\16917\Desktop\Dual-core_Communication_Demo\Dual-core_Communication_Demo\MASTER\obj/../Libraries/wch_libraries/Peripheral/ch32v10x_tim.c:1083
    20a6:	0001                	nop
    20a8:	5432                	lw	s0,44(sp)
    20aa:	6145                	addi	sp,sp,48
    20ac:	8082                	ret

000020ae <TIM_OC3FastConfig>:
TIM_OC3FastConfig():
C:\Users\16917\Desktop\Dual-core_Communication_Demo\Dual-core_Communication_Demo\MASTER\obj/../Libraries/wch_libraries/Peripheral/ch32v10x_tim.c:1095
    20ae:	7179                	addi	sp,sp,-48
    20b0:	d622                	sw	s0,44(sp)
    20b2:	1800                	addi	s0,sp,48
    20b4:	fca42e23          	sw	a0,-36(s0)
    20b8:	87ae                	mv	a5,a1
    20ba:	fcf41d23          	sh	a5,-38(s0)
C:\Users\16917\Desktop\Dual-core_Communication_Demo\Dual-core_Communication_Demo\MASTER\obj/../Libraries/wch_libraries/Peripheral/ch32v10x_tim.c:1096
    20be:	fe041723          	sh	zero,-18(s0)
C:\Users\16917\Desktop\Dual-core_Communication_Demo\Dual-core_Communication_Demo\MASTER\obj/../Libraries/wch_libraries/Peripheral/ch32v10x_tim.c:1098
    20c2:	fdc42783          	lw	a5,-36(s0)
    20c6:	01c7d783          	lhu	a5,28(a5)
    20ca:	fef41723          	sh	a5,-18(s0)
C:\Users\16917\Desktop\Dual-core_Communication_Demo\Dual-core_Communication_Demo\MASTER\obj/../Libraries/wch_libraries/Peripheral/ch32v10x_tim.c:1099
    20ce:	fee45783          	lhu	a5,-18(s0)
    20d2:	9bed                	andi	a5,a5,-5
    20d4:	fef41723          	sh	a5,-18(s0)
C:\Users\16917\Desktop\Dual-core_Communication_Demo\Dual-core_Communication_Demo\MASTER\obj/../Libraries/wch_libraries/Peripheral/ch32v10x_tim.c:1100
    20d8:	fee45703          	lhu	a4,-18(s0)
    20dc:	fda45783          	lhu	a5,-38(s0)
    20e0:	8fd9                	or	a5,a5,a4
    20e2:	fef41723          	sh	a5,-18(s0)
C:\Users\16917\Desktop\Dual-core_Communication_Demo\Dual-core_Communication_Demo\MASTER\obj/../Libraries/wch_libraries/Peripheral/ch32v10x_tim.c:1101
    20e6:	fdc42783          	lw	a5,-36(s0)
    20ea:	fee45703          	lhu	a4,-18(s0)
    20ee:	00e79e23          	sh	a4,28(a5)
C:\Users\16917\Desktop\Dual-core_Communication_Demo\Dual-core_Communication_Demo\MASTER\obj/../Libraries/wch_libraries/Peripheral/ch32v10x_tim.c:1102
    20f2:	0001                	nop
    20f4:	5432                	lw	s0,44(sp)
    20f6:	6145                	addi	sp,sp,48
    20f8:	8082                	ret

000020fa <TIM_OC4FastConfig>:
TIM_OC4FastConfig():
C:\Users\16917\Desktop\Dual-core_Communication_Demo\Dual-core_Communication_Demo\MASTER\obj/../Libraries/wch_libraries/Peripheral/ch32v10x_tim.c:1114
    20fa:	7179                	addi	sp,sp,-48
    20fc:	d622                	sw	s0,44(sp)
    20fe:	1800                	addi	s0,sp,48
    2100:	fca42e23          	sw	a0,-36(s0)
    2104:	87ae                	mv	a5,a1
    2106:	fcf41d23          	sh	a5,-38(s0)
C:\Users\16917\Desktop\Dual-core_Communication_Demo\Dual-core_Communication_Demo\MASTER\obj/../Libraries/wch_libraries/Peripheral/ch32v10x_tim.c:1115
    210a:	fe041723          	sh	zero,-18(s0)
C:\Users\16917\Desktop\Dual-core_Communication_Demo\Dual-core_Communication_Demo\MASTER\obj/../Libraries/wch_libraries/Peripheral/ch32v10x_tim.c:1117
    210e:	fdc42783          	lw	a5,-36(s0)
    2112:	01c7d783          	lhu	a5,28(a5)
    2116:	fef41723          	sh	a5,-18(s0)
C:\Users\16917\Desktop\Dual-core_Communication_Demo\Dual-core_Communication_Demo\MASTER\obj/../Libraries/wch_libraries/Peripheral/ch32v10x_tim.c:1118
    211a:	fee45783          	lhu	a5,-18(s0)
    211e:	bff7f793          	andi	a5,a5,-1025
    2122:	fef41723          	sh	a5,-18(s0)
C:\Users\16917\Desktop\Dual-core_Communication_Demo\Dual-core_Communication_Demo\MASTER\obj/../Libraries/wch_libraries/Peripheral/ch32v10x_tim.c:1119
    2126:	fda45783          	lhu	a5,-38(s0)
    212a:	07a2                	slli	a5,a5,0x8
    212c:	01079713          	slli	a4,a5,0x10
    2130:	8341                	srli	a4,a4,0x10
    2132:	fee45783          	lhu	a5,-18(s0)
    2136:	8fd9                	or	a5,a5,a4
    2138:	fef41723          	sh	a5,-18(s0)
C:\Users\16917\Desktop\Dual-core_Communication_Demo\Dual-core_Communication_Demo\MASTER\obj/../Libraries/wch_libraries/Peripheral/ch32v10x_tim.c:1120
    213c:	fdc42783          	lw	a5,-36(s0)
    2140:	fee45703          	lhu	a4,-18(s0)
    2144:	00e79e23          	sh	a4,28(a5)
C:\Users\16917\Desktop\Dual-core_Communication_Demo\Dual-core_Communication_Demo\MASTER\obj/../Libraries/wch_libraries/Peripheral/ch32v10x_tim.c:1121
    2148:	0001                	nop
    214a:	5432                	lw	s0,44(sp)
    214c:	6145                	addi	sp,sp,48
    214e:	8082                	ret

00002150 <TIM_GetITStatus>:
TIM_GetITStatus():
C:\Users\16917\Desktop\Dual-core_Communication_Demo\Dual-core_Communication_Demo\MASTER\obj/../Libraries/wch_libraries/Peripheral/ch32v10x_tim.c:1853
    2150:	7179                	addi	sp,sp,-48
    2152:	d622                	sw	s0,44(sp)
    2154:	1800                	addi	s0,sp,48
    2156:	fca42e23          	sw	a0,-36(s0)
    215a:	87ae                	mv	a5,a1
    215c:	fcf41d23          	sh	a5,-38(s0)
C:\Users\16917\Desktop\Dual-core_Communication_Demo\Dual-core_Communication_Demo\MASTER\obj/../Libraries/wch_libraries/Peripheral/ch32v10x_tim.c:1854
    2160:	fe042623          	sw	zero,-20(s0)
C:\Users\16917\Desktop\Dual-core_Communication_Demo\Dual-core_Communication_Demo\MASTER\obj/../Libraries/wch_libraries/Peripheral/ch32v10x_tim.c:1855
    2164:	fe041523          	sh	zero,-22(s0)
    2168:	fe041423          	sh	zero,-24(s0)
C:\Users\16917\Desktop\Dual-core_Communication_Demo\Dual-core_Communication_Demo\MASTER\obj/../Libraries/wch_libraries/Peripheral/ch32v10x_tim.c:1857
    216c:	fdc42783          	lw	a5,-36(s0)
    2170:	0107d783          	lhu	a5,16(a5)
    2174:	01079713          	slli	a4,a5,0x10
    2178:	8341                	srli	a4,a4,0x10
    217a:	fda45783          	lhu	a5,-38(s0)
    217e:	8ff9                	and	a5,a5,a4
    2180:	fef41523          	sh	a5,-22(s0)
C:\Users\16917\Desktop\Dual-core_Communication_Demo\Dual-core_Communication_Demo\MASTER\obj/../Libraries/wch_libraries/Peripheral/ch32v10x_tim.c:1859
    2184:	fdc42783          	lw	a5,-36(s0)
    2188:	00c7d783          	lhu	a5,12(a5)
    218c:	01079713          	slli	a4,a5,0x10
    2190:	8341                	srli	a4,a4,0x10
    2192:	fda45783          	lhu	a5,-38(s0)
    2196:	8ff9                	and	a5,a5,a4
    2198:	fef41423          	sh	a5,-24(s0)
C:\Users\16917\Desktop\Dual-core_Communication_Demo\Dual-core_Communication_Demo\MASTER\obj/../Libraries/wch_libraries/Peripheral/ch32v10x_tim.c:1860
    219c:	fea45783          	lhu	a5,-22(s0)
    21a0:	cb81                	beqz	a5,21b0 <TIM_GetITStatus+0x60>
C:\Users\16917\Desktop\Dual-core_Communication_Demo\Dual-core_Communication_Demo\MASTER\obj/../Libraries/wch_libraries/Peripheral/ch32v10x_tim.c:1860 (discriminator 1)
    21a2:	fe845783          	lhu	a5,-24(s0)
    21a6:	c789                	beqz	a5,21b0 <TIM_GetITStatus+0x60>
C:\Users\16917\Desktop\Dual-core_Communication_Demo\Dual-core_Communication_Demo\MASTER\obj/../Libraries/wch_libraries/Peripheral/ch32v10x_tim.c:1862
    21a8:	4785                	li	a5,1
    21aa:	fef42623          	sw	a5,-20(s0)
    21ae:	a019                	j	21b4 <TIM_GetITStatus+0x64>
C:\Users\16917\Desktop\Dual-core_Communication_Demo\Dual-core_Communication_Demo\MASTER\obj/../Libraries/wch_libraries/Peripheral/ch32v10x_tim.c:1866
    21b0:	fe042623          	sw	zero,-20(s0)
C:\Users\16917\Desktop\Dual-core_Communication_Demo\Dual-core_Communication_Demo\MASTER\obj/../Libraries/wch_libraries/Peripheral/ch32v10x_tim.c:1869
    21b4:	fec42783          	lw	a5,-20(s0)
C:\Users\16917\Desktop\Dual-core_Communication_Demo\Dual-core_Communication_Demo\MASTER\obj/../Libraries/wch_libraries/Peripheral/ch32v10x_tim.c:1870
    21b8:	853e                	mv	a0,a5
    21ba:	5432                	lw	s0,44(sp)
    21bc:	6145                	addi	sp,sp,48
    21be:	8082                	ret

000021c0 <TIM_ClearITPendingBit>:
TIM_ClearITPendingBit():
C:\Users\16917\Desktop\Dual-core_Communication_Demo\Dual-core_Communication_Demo\MASTER\obj/../Libraries/wch_libraries/Peripheral/ch32v10x_tim.c:1888
    21c0:	1101                	addi	sp,sp,-32
    21c2:	ce22                	sw	s0,28(sp)
    21c4:	1000                	addi	s0,sp,32
    21c6:	fea42623          	sw	a0,-20(s0)
    21ca:	87ae                	mv	a5,a1
    21cc:	fef41523          	sh	a5,-22(s0)
C:\Users\16917\Desktop\Dual-core_Communication_Demo\Dual-core_Communication_Demo\MASTER\obj/../Libraries/wch_libraries/Peripheral/ch32v10x_tim.c:1889
    21d0:	fea45783          	lhu	a5,-22(s0)
    21d4:	fff7c793          	not	a5,a5
    21d8:	01079713          	slli	a4,a5,0x10
    21dc:	8341                	srli	a4,a4,0x10
    21de:	fec42783          	lw	a5,-20(s0)
    21e2:	00e79823          	sh	a4,16(a5)
C:\Users\16917\Desktop\Dual-core_Communication_Demo\Dual-core_Communication_Demo\MASTER\obj/../Libraries/wch_libraries/Peripheral/ch32v10x_tim.c:1890
    21e6:	0001                	nop
    21e8:	4472                	lw	s0,28(sp)
    21ea:	6105                	addi	sp,sp,32
    21ec:	8082                	ret

000021ee <USART_Init>:
USART_Init():
C:\Users\16917\Desktop\Dual-core_Communication_Demo\Dual-core_Communication_Demo\MASTER\obj/../Libraries/wch_libraries/Peripheral/ch32v10x_usart.c:105
    21ee:	715d                	addi	sp,sp,-80
    21f0:	c686                	sw	ra,76(sp)
    21f2:	c4a2                	sw	s0,72(sp)
    21f4:	0880                	addi	s0,sp,80
    21f6:	faa42e23          	sw	a0,-68(s0)
    21fa:	fab42c23          	sw	a1,-72(s0)
C:\Users\16917\Desktop\Dual-core_Communication_Demo\Dual-core_Communication_Demo\MASTER\obj/../Libraries/wch_libraries/Peripheral/ch32v10x_usart.c:106
    21fe:	fe042623          	sw	zero,-20(s0)
    2202:	fe042423          	sw	zero,-24(s0)
C:\Users\16917\Desktop\Dual-core_Communication_Demo\Dual-core_Communication_Demo\MASTER\obj/../Libraries/wch_libraries/Peripheral/ch32v10x_usart.c:107
    2206:	fe042223          	sw	zero,-28(s0)
C:\Users\16917\Desktop\Dual-core_Communication_Demo\Dual-core_Communication_Demo\MASTER\obj/../Libraries/wch_libraries/Peripheral/ch32v10x_usart.c:108
    220a:	fe042023          	sw	zero,-32(s0)
C:\Users\16917\Desktop\Dual-core_Communication_Demo\Dual-core_Communication_Demo\MASTER\obj/../Libraries/wch_libraries/Peripheral/ch32v10x_usart.c:109
    220e:	fc042e23          	sw	zero,-36(s0)
C:\Users\16917\Desktop\Dual-core_Communication_Demo\Dual-core_Communication_Demo\MASTER\obj/../Libraries/wch_libraries/Peripheral/ch32v10x_usart.c:116
    2212:	fbc42783          	lw	a5,-68(s0)
    2216:	fcf42e23          	sw	a5,-36(s0)
C:\Users\16917\Desktop\Dual-core_Communication_Demo\Dual-core_Communication_Demo\MASTER\obj/../Libraries/wch_libraries/Peripheral/ch32v10x_usart.c:117
    221a:	fbc42783          	lw	a5,-68(s0)
    221e:	0107d783          	lhu	a5,16(a5)
    2222:	07c2                	slli	a5,a5,0x10
    2224:	83c1                	srli	a5,a5,0x10
    2226:	fef42623          	sw	a5,-20(s0)
C:\Users\16917\Desktop\Dual-core_Communication_Demo\Dual-core_Communication_Demo\MASTER\obj/../Libraries/wch_libraries/Peripheral/ch32v10x_usart.c:118
    222a:	fec42703          	lw	a4,-20(s0)
    222e:	67b5                	lui	a5,0xd
    2230:	17fd                	addi	a5,a5,-1
    2232:	8ff9                	and	a5,a5,a4
    2234:	fef42623          	sw	a5,-20(s0)
C:\Users\16917\Desktop\Dual-core_Communication_Demo\Dual-core_Communication_Demo\MASTER\obj/../Libraries/wch_libraries/Peripheral/ch32v10x_usart.c:119
    2238:	fb842783          	lw	a5,-72(s0)
    223c:	0067d783          	lhu	a5,6(a5) # d006 <_data_lma+0x626e>
    2240:	873e                	mv	a4,a5
    2242:	fec42783          	lw	a5,-20(s0)
    2246:	8fd9                	or	a5,a5,a4
    2248:	fef42623          	sw	a5,-20(s0)
C:\Users\16917\Desktop\Dual-core_Communication_Demo\Dual-core_Communication_Demo\MASTER\obj/../Libraries/wch_libraries/Peripheral/ch32v10x_usart.c:121
    224c:	fec42783          	lw	a5,-20(s0)
    2250:	01079713          	slli	a4,a5,0x10
    2254:	8341                	srli	a4,a4,0x10
    2256:	fbc42783          	lw	a5,-68(s0)
    225a:	00e79823          	sh	a4,16(a5)
C:\Users\16917\Desktop\Dual-core_Communication_Demo\Dual-core_Communication_Demo\MASTER\obj/../Libraries/wch_libraries/Peripheral/ch32v10x_usart.c:122
    225e:	fbc42783          	lw	a5,-68(s0)
    2262:	00c7d783          	lhu	a5,12(a5)
    2266:	07c2                	slli	a5,a5,0x10
    2268:	83c1                	srli	a5,a5,0x10
    226a:	fef42623          	sw	a5,-20(s0)
C:\Users\16917\Desktop\Dual-core_Communication_Demo\Dual-core_Communication_Demo\MASTER\obj/../Libraries/wch_libraries/Peripheral/ch32v10x_usart.c:123
    226e:	fec42703          	lw	a4,-20(s0)
    2272:	67bd                	lui	a5,0xf
    2274:	9f378793          	addi	a5,a5,-1549 # e9f3 <_data_lma+0x7c5b>
    2278:	8ff9                	and	a5,a5,a4
    227a:	fef42623          	sw	a5,-20(s0)
C:\Users\16917\Desktop\Dual-core_Communication_Demo\Dual-core_Communication_Demo\MASTER\obj/../Libraries/wch_libraries/Peripheral/ch32v10x_usart.c:124
    227e:	fb842783          	lw	a5,-72(s0)
    2282:	0047d703          	lhu	a4,4(a5)
    2286:	fb842783          	lw	a5,-72(s0)
    228a:	0087d783          	lhu	a5,8(a5)
    228e:	8fd9                	or	a5,a5,a4
    2290:	01079713          	slli	a4,a5,0x10
    2294:	8341                	srli	a4,a4,0x10
C:\Users\16917\Desktop\Dual-core_Communication_Demo\Dual-core_Communication_Demo\MASTER\obj/../Libraries/wch_libraries/Peripheral/ch32v10x_usart.c:125
    2296:	fb842783          	lw	a5,-72(s0)
    229a:	00a7d783          	lhu	a5,10(a5)
C:\Users\16917\Desktop\Dual-core_Communication_Demo\Dual-core_Communication_Demo\MASTER\obj/../Libraries/wch_libraries/Peripheral/ch32v10x_usart.c:124
    229e:	8fd9                	or	a5,a5,a4
    22a0:	07c2                	slli	a5,a5,0x10
    22a2:	83c1                	srli	a5,a5,0x10
    22a4:	873e                	mv	a4,a5
    22a6:	fec42783          	lw	a5,-20(s0)
    22aa:	8fd9                	or	a5,a5,a4
    22ac:	fef42623          	sw	a5,-20(s0)
C:\Users\16917\Desktop\Dual-core_Communication_Demo\Dual-core_Communication_Demo\MASTER\obj/../Libraries/wch_libraries/Peripheral/ch32v10x_usart.c:126
    22b0:	fec42783          	lw	a5,-20(s0)
    22b4:	01079713          	slli	a4,a5,0x10
    22b8:	8341                	srli	a4,a4,0x10
    22ba:	fbc42783          	lw	a5,-68(s0)
    22be:	00e79623          	sh	a4,12(a5)
C:\Users\16917\Desktop\Dual-core_Communication_Demo\Dual-core_Communication_Demo\MASTER\obj/../Libraries/wch_libraries/Peripheral/ch32v10x_usart.c:128
    22c2:	fbc42783          	lw	a5,-68(s0)
    22c6:	0147d783          	lhu	a5,20(a5)
    22ca:	07c2                	slli	a5,a5,0x10
    22cc:	83c1                	srli	a5,a5,0x10
    22ce:	fef42623          	sw	a5,-20(s0)
C:\Users\16917\Desktop\Dual-core_Communication_Demo\Dual-core_Communication_Demo\MASTER\obj/../Libraries/wch_libraries/Peripheral/ch32v10x_usart.c:129
    22d2:	fec42703          	lw	a4,-20(s0)
    22d6:	67c1                	lui	a5,0x10
    22d8:	cff78793          	addi	a5,a5,-769 # fcff <_data_lma+0x8f67>
    22dc:	8ff9                	and	a5,a5,a4
    22de:	fef42623          	sw	a5,-20(s0)
C:\Users\16917\Desktop\Dual-core_Communication_Demo\Dual-core_Communication_Demo\MASTER\obj/../Libraries/wch_libraries/Peripheral/ch32v10x_usart.c:130
    22e2:	fb842783          	lw	a5,-72(s0)
    22e6:	00c7d783          	lhu	a5,12(a5)
    22ea:	873e                	mv	a4,a5
    22ec:	fec42783          	lw	a5,-20(s0)
    22f0:	8fd9                	or	a5,a5,a4
    22f2:	fef42623          	sw	a5,-20(s0)
C:\Users\16917\Desktop\Dual-core_Communication_Demo\Dual-core_Communication_Demo\MASTER\obj/../Libraries/wch_libraries/Peripheral/ch32v10x_usart.c:131
    22f6:	fec42783          	lw	a5,-20(s0)
    22fa:	01079713          	slli	a4,a5,0x10
    22fe:	8341                	srli	a4,a4,0x10
    2300:	fbc42783          	lw	a5,-68(s0)
    2304:	00e79a23          	sh	a4,20(a5)
C:\Users\16917\Desktop\Dual-core_Communication_Demo\Dual-core_Communication_Demo\MASTER\obj/../Libraries/wch_libraries/Peripheral/ch32v10x_usart.c:133
    2308:	fc840793          	addi	a5,s0,-56
    230c:	853e                	mv	a0,a5
    230e:	ed5fe0ef          	jal	ra,11e2 <RCC_GetClocksFreq>
C:\Users\16917\Desktop\Dual-core_Communication_Demo\Dual-core_Communication_Demo\MASTER\obj/../Libraries/wch_libraries/Peripheral/ch32v10x_usart.c:135
    2312:	fdc42703          	lw	a4,-36(s0)
    2316:	400147b7          	lui	a5,0x40014
    231a:	80078793          	addi	a5,a5,-2048 # 40013800 <_eusrstack+0x2000e800>
    231e:	00f71763          	bne	a4,a5,232c <USART_Init+0x13e>
C:\Users\16917\Desktop\Dual-core_Communication_Demo\Dual-core_Communication_Demo\MASTER\obj/../Libraries/wch_libraries/Peripheral/ch32v10x_usart.c:137
    2322:	fd442783          	lw	a5,-44(s0)
    2326:	fef42423          	sw	a5,-24(s0)
    232a:	a029                	j	2334 <USART_Init+0x146>
C:\Users\16917\Desktop\Dual-core_Communication_Demo\Dual-core_Communication_Demo\MASTER\obj/../Libraries/wch_libraries/Peripheral/ch32v10x_usart.c:141
    232c:	fd042783          	lw	a5,-48(s0)
    2330:	fef42423          	sw	a5,-24(s0)
C:\Users\16917\Desktop\Dual-core_Communication_Demo\Dual-core_Communication_Demo\MASTER\obj/../Libraries/wch_libraries/Peripheral/ch32v10x_usart.c:144
    2334:	fbc42783          	lw	a5,-68(s0)
    2338:	00c7d783          	lhu	a5,12(a5)
    233c:	07c2                	slli	a5,a5,0x10
    233e:	83c1                	srli	a5,a5,0x10
    2340:	07c2                	slli	a5,a5,0x10
    2342:	87c1                	srai	a5,a5,0x10
    2344:	0207d263          	bgez	a5,2368 <USART_Init+0x17a>
C:\Users\16917\Desktop\Dual-core_Communication_Demo\Dual-core_Communication_Demo\MASTER\obj/../Libraries/wch_libraries/Peripheral/ch32v10x_usart.c:146
    2348:	fe842703          	lw	a4,-24(s0)
    234c:	87ba                	mv	a5,a4
    234e:	0786                	slli	a5,a5,0x1
    2350:	97ba                	add	a5,a5,a4
    2352:	078e                	slli	a5,a5,0x3
    2354:	973e                	add	a4,a4,a5
    2356:	fb842783          	lw	a5,-72(s0)
    235a:	439c                	lw	a5,0(a5)
    235c:	0786                	slli	a5,a5,0x1
    235e:	02f757b3          	divu	a5,a4,a5
    2362:	fef42223          	sw	a5,-28(s0)
    2366:	a005                	j	2386 <USART_Init+0x198>
C:\Users\16917\Desktop\Dual-core_Communication_Demo\Dual-core_Communication_Demo\MASTER\obj/../Libraries/wch_libraries/Peripheral/ch32v10x_usart.c:150
    2368:	fe842703          	lw	a4,-24(s0)
    236c:	87ba                	mv	a5,a4
    236e:	0786                	slli	a5,a5,0x1
    2370:	97ba                	add	a5,a5,a4
    2372:	078e                	slli	a5,a5,0x3
    2374:	973e                	add	a4,a4,a5
    2376:	fb842783          	lw	a5,-72(s0)
    237a:	439c                	lw	a5,0(a5)
    237c:	078a                	slli	a5,a5,0x2
    237e:	02f757b3          	divu	a5,a4,a5
    2382:	fef42223          	sw	a5,-28(s0)
C:\Users\16917\Desktop\Dual-core_Communication_Demo\Dual-core_Communication_Demo\MASTER\obj/../Libraries/wch_libraries/Peripheral/ch32v10x_usart.c:152
    2386:	fe442703          	lw	a4,-28(s0)
    238a:	06400793          	li	a5,100
    238e:	02f757b3          	divu	a5,a4,a5
    2392:	0792                	slli	a5,a5,0x4
    2394:	fef42623          	sw	a5,-20(s0)
C:\Users\16917\Desktop\Dual-core_Communication_Demo\Dual-core_Communication_Demo\MASTER\obj/../Libraries/wch_libraries/Peripheral/ch32v10x_usart.c:154
    2398:	fec42783          	lw	a5,-20(s0)
    239c:	0047d713          	srli	a4,a5,0x4
    23a0:	06400793          	li	a5,100
    23a4:	02f707b3          	mul	a5,a4,a5
    23a8:	fe442703          	lw	a4,-28(s0)
    23ac:	40f707b3          	sub	a5,a4,a5
    23b0:	fef42023          	sw	a5,-32(s0)
C:\Users\16917\Desktop\Dual-core_Communication_Demo\Dual-core_Communication_Demo\MASTER\obj/../Libraries/wch_libraries/Peripheral/ch32v10x_usart.c:156
    23b4:	fbc42783          	lw	a5,-68(s0)
    23b8:	00c7d783          	lhu	a5,12(a5)
    23bc:	07c2                	slli	a5,a5,0x10
    23be:	83c1                	srli	a5,a5,0x10
    23c0:	07c2                	slli	a5,a5,0x10
    23c2:	87c1                	srai	a5,a5,0x10
    23c4:	0207d263          	bgez	a5,23e8 <USART_Init+0x1fa>
C:\Users\16917\Desktop\Dual-core_Communication_Demo\Dual-core_Communication_Demo\MASTER\obj/../Libraries/wch_libraries/Peripheral/ch32v10x_usart.c:158
    23c8:	fe042783          	lw	a5,-32(s0)
    23cc:	078e                	slli	a5,a5,0x3
    23ce:	03278713          	addi	a4,a5,50
    23d2:	06400793          	li	a5,100
    23d6:	02f757b3          	divu	a5,a4,a5
    23da:	8b9d                	andi	a5,a5,7
    23dc:	fec42703          	lw	a4,-20(s0)
    23e0:	8fd9                	or	a5,a5,a4
    23e2:	fef42623          	sw	a5,-20(s0)
    23e6:	a005                	j	2406 <USART_Init+0x218>
C:\Users\16917\Desktop\Dual-core_Communication_Demo\Dual-core_Communication_Demo\MASTER\obj/../Libraries/wch_libraries/Peripheral/ch32v10x_usart.c:162
    23e8:	fe042783          	lw	a5,-32(s0)
    23ec:	0792                	slli	a5,a5,0x4
    23ee:	03278713          	addi	a4,a5,50
    23f2:	06400793          	li	a5,100
    23f6:	02f757b3          	divu	a5,a4,a5
    23fa:	8bbd                	andi	a5,a5,15
    23fc:	fec42703          	lw	a4,-20(s0)
    2400:	8fd9                	or	a5,a5,a4
    2402:	fef42623          	sw	a5,-20(s0)
C:\Users\16917\Desktop\Dual-core_Communication_Demo\Dual-core_Communication_Demo\MASTER\obj/../Libraries/wch_libraries/Peripheral/ch32v10x_usart.c:165
    2406:	fec42783          	lw	a5,-20(s0)
    240a:	01079713          	slli	a4,a5,0x10
    240e:	8341                	srli	a4,a4,0x10
    2410:	fbc42783          	lw	a5,-68(s0)
    2414:	00e79423          	sh	a4,8(a5)
C:\Users\16917\Desktop\Dual-core_Communication_Demo\Dual-core_Communication_Demo\MASTER\obj/../Libraries/wch_libraries/Peripheral/ch32v10x_usart.c:166
    2418:	0001                	nop
    241a:	40b6                	lw	ra,76(sp)
    241c:	4426                	lw	s0,72(sp)
    241e:	6161                	addi	sp,sp,80
    2420:	8082                	ret

00002422 <USART_Cmd>:
USART_Cmd():
C:\Users\16917\Desktop\Dual-core_Communication_Demo\Dual-core_Communication_Demo\MASTER\obj/../Libraries/wch_libraries/Peripheral/ch32v10x_usart.c:229
    2422:	1101                	addi	sp,sp,-32
    2424:	ce22                	sw	s0,28(sp)
    2426:	1000                	addi	s0,sp,32
    2428:	fea42623          	sw	a0,-20(s0)
    242c:	feb42423          	sw	a1,-24(s0)
C:\Users\16917\Desktop\Dual-core_Communication_Demo\Dual-core_Communication_Demo\MASTER\obj/../Libraries/wch_libraries/Peripheral/ch32v10x_usart.c:230
    2430:	fe842783          	lw	a5,-24(s0)
    2434:	c395                	beqz	a5,2458 <USART_Cmd+0x36>
C:\Users\16917\Desktop\Dual-core_Communication_Demo\Dual-core_Communication_Demo\MASTER\obj/../Libraries/wch_libraries/Peripheral/ch32v10x_usart.c:232
    2436:	fec42783          	lw	a5,-20(s0)
    243a:	00c7d783          	lhu	a5,12(a5)
    243e:	01079713          	slli	a4,a5,0x10
    2442:	8341                	srli	a4,a4,0x10
    2444:	6789                	lui	a5,0x2
    2446:	8fd9                	or	a5,a5,a4
    2448:	01079713          	slli	a4,a5,0x10
    244c:	8341                	srli	a4,a4,0x10
    244e:	fec42783          	lw	a5,-20(s0)
    2452:	00e79623          	sh	a4,12(a5) # 200c <TIM_OC1FastConfig>
C:\Users\16917\Desktop\Dual-core_Communication_Demo\Dual-core_Communication_Demo\MASTER\obj/../Libraries/wch_libraries/Peripheral/ch32v10x_usart.c:238
    2456:	a015                	j	247a <USART_Cmd+0x58>
C:\Users\16917\Desktop\Dual-core_Communication_Demo\Dual-core_Communication_Demo\MASTER\obj/../Libraries/wch_libraries/Peripheral/ch32v10x_usart.c:236
    2458:	fec42783          	lw	a5,-20(s0)
    245c:	00c7d783          	lhu	a5,12(a5)
    2460:	01079713          	slli	a4,a5,0x10
    2464:	8341                	srli	a4,a4,0x10
    2466:	77f9                	lui	a5,0xffffe
    2468:	17fd                	addi	a5,a5,-1
    246a:	8ff9                	and	a5,a5,a4
    246c:	01079713          	slli	a4,a5,0x10
    2470:	8341                	srli	a4,a4,0x10
    2472:	fec42783          	lw	a5,-20(s0)
    2476:	00e79623          	sh	a4,12(a5) # ffffe00c <_eusrstack+0xdfff900c>
C:\Users\16917\Desktop\Dual-core_Communication_Demo\Dual-core_Communication_Demo\MASTER\obj/../Libraries/wch_libraries/Peripheral/ch32v10x_usart.c:238
    247a:	0001                	nop
    247c:	4472                	lw	s0,28(sp)
    247e:	6105                	addi	sp,sp,32
    2480:	8082                	ret

00002482 <USART_ITConfig>:
USART_ITConfig():
C:\Users\16917\Desktop\Dual-core_Communication_Demo\Dual-core_Communication_Demo\MASTER\obj/../Libraries/wch_libraries/Peripheral/ch32v10x_usart.c:257
    2482:	7179                	addi	sp,sp,-48
    2484:	d622                	sw	s0,44(sp)
    2486:	1800                	addi	s0,sp,48
    2488:	fca42e23          	sw	a0,-36(s0)
    248c:	87ae                	mv	a5,a1
    248e:	fcc42a23          	sw	a2,-44(s0)
    2492:	fcf41d23          	sh	a5,-38(s0)
C:\Users\16917\Desktop\Dual-core_Communication_Demo\Dual-core_Communication_Demo\MASTER\obj/../Libraries/wch_libraries/Peripheral/ch32v10x_usart.c:258
    2496:	fe042423          	sw	zero,-24(s0)
    249a:	fe042223          	sw	zero,-28(s0)
    249e:	fe042023          	sw	zero,-32(s0)
C:\Users\16917\Desktop\Dual-core_Communication_Demo\Dual-core_Communication_Demo\MASTER\obj/../Libraries/wch_libraries/Peripheral/ch32v10x_usart.c:259
    24a2:	fe042623          	sw	zero,-20(s0)
C:\Users\16917\Desktop\Dual-core_Communication_Demo\Dual-core_Communication_Demo\MASTER\obj/../Libraries/wch_libraries/Peripheral/ch32v10x_usart.c:265
    24a6:	fdc42783          	lw	a5,-36(s0)
    24aa:	fef42623          	sw	a5,-20(s0)
C:\Users\16917\Desktop\Dual-core_Communication_Demo\Dual-core_Communication_Demo\MASTER\obj/../Libraries/wch_libraries/Peripheral/ch32v10x_usart.c:266
    24ae:	fda45783          	lhu	a5,-38(s0)
    24b2:	0ff7f793          	andi	a5,a5,255
    24b6:	8395                	srli	a5,a5,0x5
    24b8:	0ff7f793          	andi	a5,a5,255
    24bc:	fef42423          	sw	a5,-24(s0)
C:\Users\16917\Desktop\Dual-core_Communication_Demo\Dual-core_Communication_Demo\MASTER\obj/../Libraries/wch_libraries/Peripheral/ch32v10x_usart.c:267
    24c0:	fda45783          	lhu	a5,-38(s0)
    24c4:	8bfd                	andi	a5,a5,31
    24c6:	fef42223          	sw	a5,-28(s0)
C:\Users\16917\Desktop\Dual-core_Communication_Demo\Dual-core_Communication_Demo\MASTER\obj/../Libraries/wch_libraries/Peripheral/ch32v10x_usart.c:268
    24ca:	fe442783          	lw	a5,-28(s0)
    24ce:	4705                	li	a4,1
    24d0:	00f717b3          	sll	a5,a4,a5
    24d4:	fef42023          	sw	a5,-32(s0)
C:\Users\16917\Desktop\Dual-core_Communication_Demo\Dual-core_Communication_Demo\MASTER\obj/../Libraries/wch_libraries/Peripheral/ch32v10x_usart.c:270
    24d8:	fe842703          	lw	a4,-24(s0)
    24dc:	4785                	li	a5,1
    24de:	00f71863          	bne	a4,a5,24ee <USART_ITConfig+0x6c>
C:\Users\16917\Desktop\Dual-core_Communication_Demo\Dual-core_Communication_Demo\MASTER\obj/../Libraries/wch_libraries/Peripheral/ch32v10x_usart.c:272
    24e2:	fec42783          	lw	a5,-20(s0)
    24e6:	07b1                	addi	a5,a5,12
    24e8:	fef42623          	sw	a5,-20(s0)
    24ec:	a00d                	j	250e <USART_ITConfig+0x8c>
C:\Users\16917\Desktop\Dual-core_Communication_Demo\Dual-core_Communication_Demo\MASTER\obj/../Libraries/wch_libraries/Peripheral/ch32v10x_usart.c:274
    24ee:	fe842703          	lw	a4,-24(s0)
    24f2:	4789                	li	a5,2
    24f4:	00f71863          	bne	a4,a5,2504 <USART_ITConfig+0x82>
C:\Users\16917\Desktop\Dual-core_Communication_Demo\Dual-core_Communication_Demo\MASTER\obj/../Libraries/wch_libraries/Peripheral/ch32v10x_usart.c:276
    24f8:	fec42783          	lw	a5,-20(s0)
    24fc:	07c1                	addi	a5,a5,16
    24fe:	fef42623          	sw	a5,-20(s0)
    2502:	a031                	j	250e <USART_ITConfig+0x8c>
C:\Users\16917\Desktop\Dual-core_Communication_Demo\Dual-core_Communication_Demo\MASTER\obj/../Libraries/wch_libraries/Peripheral/ch32v10x_usart.c:280
    2504:	fec42783          	lw	a5,-20(s0)
    2508:	07d1                	addi	a5,a5,20
    250a:	fef42623          	sw	a5,-20(s0)
C:\Users\16917\Desktop\Dual-core_Communication_Demo\Dual-core_Communication_Demo\MASTER\obj/../Libraries/wch_libraries/Peripheral/ch32v10x_usart.c:283
    250e:	fd442783          	lw	a5,-44(s0)
    2512:	cb99                	beqz	a5,2528 <USART_ITConfig+0xa6>
C:\Users\16917\Desktop\Dual-core_Communication_Demo\Dual-core_Communication_Demo\MASTER\obj/../Libraries/wch_libraries/Peripheral/ch32v10x_usart.c:285
    2514:	fec42783          	lw	a5,-20(s0)
    2518:	4394                	lw	a3,0(a5)
    251a:	fec42783          	lw	a5,-20(s0)
    251e:	fe042703          	lw	a4,-32(s0)
    2522:	8f55                	or	a4,a4,a3
    2524:	c398                	sw	a4,0(a5)
C:\Users\16917\Desktop\Dual-core_Communication_Demo\Dual-core_Communication_Demo\MASTER\obj/../Libraries/wch_libraries/Peripheral/ch32v10x_usart.c:291
    2526:	a821                	j	253e <USART_ITConfig+0xbc>
C:\Users\16917\Desktop\Dual-core_Communication_Demo\Dual-core_Communication_Demo\MASTER\obj/../Libraries/wch_libraries/Peripheral/ch32v10x_usart.c:289
    2528:	fec42783          	lw	a5,-20(s0)
    252c:	4394                	lw	a3,0(a5)
    252e:	fe042783          	lw	a5,-32(s0)
    2532:	fff7c713          	not	a4,a5
    2536:	fec42783          	lw	a5,-20(s0)
    253a:	8f75                	and	a4,a4,a3
    253c:	c398                	sw	a4,0(a5)
C:\Users\16917\Desktop\Dual-core_Communication_Demo\Dual-core_Communication_Demo\MASTER\obj/../Libraries/wch_libraries/Peripheral/ch32v10x_usart.c:291
    253e:	0001                	nop
    2540:	5432                	lw	s0,44(sp)
    2542:	6145                	addi	sp,sp,48
    2544:	8082                	ret

00002546 <USART_SendData>:
USART_SendData():
C:\Users\16917\Desktop\Dual-core_Communication_Demo\Dual-core_Communication_Demo\MASTER\obj/../Libraries/wch_libraries/Peripheral/ch32v10x_usart.c:404
    2546:	1101                	addi	sp,sp,-32
    2548:	ce22                	sw	s0,28(sp)
    254a:	1000                	addi	s0,sp,32
    254c:	fea42623          	sw	a0,-20(s0)
    2550:	87ae                	mv	a5,a1
    2552:	fef41523          	sh	a5,-22(s0)
C:\Users\16917\Desktop\Dual-core_Communication_Demo\Dual-core_Communication_Demo\MASTER\obj/../Libraries/wch_libraries/Peripheral/ch32v10x_usart.c:405
    2556:	fea45783          	lhu	a5,-22(s0)
    255a:	1ff7f793          	andi	a5,a5,511
    255e:	01079713          	slli	a4,a5,0x10
    2562:	8341                	srli	a4,a4,0x10
    2564:	fec42783          	lw	a5,-20(s0)
    2568:	00e79223          	sh	a4,4(a5)
C:\Users\16917\Desktop\Dual-core_Communication_Demo\Dual-core_Communication_Demo\MASTER\obj/../Libraries/wch_libraries/Peripheral/ch32v10x_usart.c:406
    256c:	0001                	nop
    256e:	4472                	lw	s0,28(sp)
    2570:	6105                	addi	sp,sp,32
    2572:	8082                	ret

00002574 <USART_ReceiveData>:
USART_ReceiveData():
C:\Users\16917\Desktop\Dual-core_Communication_Demo\Dual-core_Communication_Demo\MASTER\obj/../Libraries/wch_libraries/Peripheral/ch32v10x_usart.c:415
    2574:	1101                	addi	sp,sp,-32
    2576:	ce22                	sw	s0,28(sp)
    2578:	1000                	addi	s0,sp,32
    257a:	fea42623          	sw	a0,-20(s0)
C:\Users\16917\Desktop\Dual-core_Communication_Demo\Dual-core_Communication_Demo\MASTER\obj/../Libraries/wch_libraries/Peripheral/ch32v10x_usart.c:416
    257e:	fec42783          	lw	a5,-20(s0)
    2582:	0047d783          	lhu	a5,4(a5)
    2586:	07c2                	slli	a5,a5,0x10
    2588:	83c1                	srli	a5,a5,0x10
    258a:	1ff7f793          	andi	a5,a5,511
    258e:	07c2                	slli	a5,a5,0x10
    2590:	83c1                	srli	a5,a5,0x10
C:\Users\16917\Desktop\Dual-core_Communication_Demo\Dual-core_Communication_Demo\MASTER\obj/../Libraries/wch_libraries/Peripheral/ch32v10x_usart.c:417
    2592:	853e                	mv	a0,a5
    2594:	4472                	lw	s0,28(sp)
    2596:	6105                	addi	sp,sp,32
    2598:	8082                	ret

0000259a <USART_GetFlagStatus>:
USART_GetFlagStatus():
C:\Users\16917\Desktop\Dual-core_Communication_Demo\Dual-core_Communication_Demo\MASTER\obj/../Libraries/wch_libraries/Peripheral/ch32v10x_usart.c:603
    259a:	7179                	addi	sp,sp,-48
    259c:	d622                	sw	s0,44(sp)
    259e:	1800                	addi	s0,sp,48
    25a0:	fca42e23          	sw	a0,-36(s0)
    25a4:	87ae                	mv	a5,a1
    25a6:	fcf41d23          	sh	a5,-38(s0)
C:\Users\16917\Desktop\Dual-core_Communication_Demo\Dual-core_Communication_Demo\MASTER\obj/../Libraries/wch_libraries/Peripheral/ch32v10x_usart.c:604
    25aa:	fe042623          	sw	zero,-20(s0)
C:\Users\16917\Desktop\Dual-core_Communication_Demo\Dual-core_Communication_Demo\MASTER\obj/../Libraries/wch_libraries/Peripheral/ch32v10x_usart.c:610
    25ae:	fdc42783          	lw	a5,-36(s0)
    25b2:	0007d783          	lhu	a5,0(a5)
    25b6:	01079713          	slli	a4,a5,0x10
    25ba:	8341                	srli	a4,a4,0x10
    25bc:	fda45783          	lhu	a5,-38(s0)
    25c0:	8ff9                	and	a5,a5,a4
    25c2:	07c2                	slli	a5,a5,0x10
    25c4:	83c1                	srli	a5,a5,0x10
    25c6:	c789                	beqz	a5,25d0 <USART_GetFlagStatus+0x36>
C:\Users\16917\Desktop\Dual-core_Communication_Demo\Dual-core_Communication_Demo\MASTER\obj/../Libraries/wch_libraries/Peripheral/ch32v10x_usart.c:612
    25c8:	4785                	li	a5,1
    25ca:	fef42623          	sw	a5,-20(s0)
    25ce:	a019                	j	25d4 <USART_GetFlagStatus+0x3a>
C:\Users\16917\Desktop\Dual-core_Communication_Demo\Dual-core_Communication_Demo\MASTER\obj/../Libraries/wch_libraries/Peripheral/ch32v10x_usart.c:616
    25d0:	fe042623          	sw	zero,-20(s0)
C:\Users\16917\Desktop\Dual-core_Communication_Demo\Dual-core_Communication_Demo\MASTER\obj/../Libraries/wch_libraries/Peripheral/ch32v10x_usart.c:618
    25d4:	fec42783          	lw	a5,-20(s0)
C:\Users\16917\Desktop\Dual-core_Communication_Demo\Dual-core_Communication_Demo\MASTER\obj/../Libraries/wch_libraries/Peripheral/ch32v10x_usart.c:619
    25d8:	853e                	mv	a0,a5
    25da:	5432                	lw	s0,44(sp)
    25dc:	6145                	addi	sp,sp,48
    25de:	8082                	ret

000025e0 <USART_GetITStatus>:
USART_GetITStatus():
C:\Users\16917\Desktop\Dual-core_Communication_Demo\Dual-core_Communication_Demo\MASTER\obj/../Libraries/wch_libraries/Peripheral/ch32v10x_usart.c:660
    25e0:	7179                	addi	sp,sp,-48
    25e2:	d622                	sw	s0,44(sp)
    25e4:	1800                	addi	s0,sp,48
    25e6:	fca42e23          	sw	a0,-36(s0)
    25ea:	87ae                	mv	a5,a1
    25ec:	fcf41d23          	sh	a5,-38(s0)
C:\Users\16917\Desktop\Dual-core_Communication_Demo\Dual-core_Communication_Demo\MASTER\obj/../Libraries/wch_libraries/Peripheral/ch32v10x_usart.c:661
    25f0:	fe042223          	sw	zero,-28(s0)
    25f4:	fe042623          	sw	zero,-20(s0)
    25f8:	fe042023          	sw	zero,-32(s0)
C:\Users\16917\Desktop\Dual-core_Communication_Demo\Dual-core_Communication_Demo\MASTER\obj/../Libraries/wch_libraries/Peripheral/ch32v10x_usart.c:662
    25fc:	fe042423          	sw	zero,-24(s0)
C:\Users\16917\Desktop\Dual-core_Communication_Demo\Dual-core_Communication_Demo\MASTER\obj/../Libraries/wch_libraries/Peripheral/ch32v10x_usart.c:668
    2600:	fda45783          	lhu	a5,-38(s0)
    2604:	0ff7f793          	andi	a5,a5,255
    2608:	8395                	srli	a5,a5,0x5
    260a:	0ff7f793          	andi	a5,a5,255
    260e:	fef42023          	sw	a5,-32(s0)
C:\Users\16917\Desktop\Dual-core_Communication_Demo\Dual-core_Communication_Demo\MASTER\obj/../Libraries/wch_libraries/Peripheral/ch32v10x_usart.c:669
    2612:	fda45783          	lhu	a5,-38(s0)
    2616:	8bfd                	andi	a5,a5,31
    2618:	fef42623          	sw	a5,-20(s0)
C:\Users\16917\Desktop\Dual-core_Communication_Demo\Dual-core_Communication_Demo\MASTER\obj/../Libraries/wch_libraries/Peripheral/ch32v10x_usart.c:670
    261c:	fec42783          	lw	a5,-20(s0)
    2620:	4705                	li	a4,1
    2622:	00f717b3          	sll	a5,a4,a5
    2626:	fef42623          	sw	a5,-20(s0)
C:\Users\16917\Desktop\Dual-core_Communication_Demo\Dual-core_Communication_Demo\MASTER\obj/../Libraries/wch_libraries/Peripheral/ch32v10x_usart.c:672
    262a:	fe042703          	lw	a4,-32(s0)
    262e:	4785                	li	a5,1
    2630:	00f71f63          	bne	a4,a5,264e <USART_GetITStatus+0x6e>
C:\Users\16917\Desktop\Dual-core_Communication_Demo\Dual-core_Communication_Demo\MASTER\obj/../Libraries/wch_libraries/Peripheral/ch32v10x_usart.c:674
    2634:	fdc42783          	lw	a5,-36(s0)
    2638:	00c7d783          	lhu	a5,12(a5)
    263c:	07c2                	slli	a5,a5,0x10
    263e:	83c1                	srli	a5,a5,0x10
    2640:	873e                	mv	a4,a5
    2642:	fec42783          	lw	a5,-20(s0)
    2646:	8ff9                	and	a5,a5,a4
    2648:	fef42623          	sw	a5,-20(s0)
    264c:	a83d                	j	268a <USART_GetITStatus+0xaa>
C:\Users\16917\Desktop\Dual-core_Communication_Demo\Dual-core_Communication_Demo\MASTER\obj/../Libraries/wch_libraries/Peripheral/ch32v10x_usart.c:676
    264e:	fe042703          	lw	a4,-32(s0)
    2652:	4789                	li	a5,2
    2654:	00f71f63          	bne	a4,a5,2672 <USART_GetITStatus+0x92>
C:\Users\16917\Desktop\Dual-core_Communication_Demo\Dual-core_Communication_Demo\MASTER\obj/../Libraries/wch_libraries/Peripheral/ch32v10x_usart.c:678
    2658:	fdc42783          	lw	a5,-36(s0)
    265c:	0107d783          	lhu	a5,16(a5)
    2660:	07c2                	slli	a5,a5,0x10
    2662:	83c1                	srli	a5,a5,0x10
    2664:	873e                	mv	a4,a5
    2666:	fec42783          	lw	a5,-20(s0)
    266a:	8ff9                	and	a5,a5,a4
    266c:	fef42623          	sw	a5,-20(s0)
    2670:	a829                	j	268a <USART_GetITStatus+0xaa>
C:\Users\16917\Desktop\Dual-core_Communication_Demo\Dual-core_Communication_Demo\MASTER\obj/../Libraries/wch_libraries/Peripheral/ch32v10x_usart.c:682
    2672:	fdc42783          	lw	a5,-36(s0)
    2676:	0147d783          	lhu	a5,20(a5)
    267a:	07c2                	slli	a5,a5,0x10
    267c:	83c1                	srli	a5,a5,0x10
    267e:	873e                	mv	a4,a5
    2680:	fec42783          	lw	a5,-20(s0)
    2684:	8ff9                	and	a5,a5,a4
    2686:	fef42623          	sw	a5,-20(s0)
C:\Users\16917\Desktop\Dual-core_Communication_Demo\Dual-core_Communication_Demo\MASTER\obj/../Libraries/wch_libraries/Peripheral/ch32v10x_usart.c:685
    268a:	fda45783          	lhu	a5,-38(s0)
    268e:	83a1                	srli	a5,a5,0x8
    2690:	07c2                	slli	a5,a5,0x10
    2692:	83c1                	srli	a5,a5,0x10
    2694:	fef42223          	sw	a5,-28(s0)
C:\Users\16917\Desktop\Dual-core_Communication_Demo\Dual-core_Communication_Demo\MASTER\obj/../Libraries/wch_libraries/Peripheral/ch32v10x_usart.c:686
    2698:	fe442783          	lw	a5,-28(s0)
    269c:	4705                	li	a4,1
    269e:	00f717b3          	sll	a5,a4,a5
    26a2:	fef42223          	sw	a5,-28(s0)
C:\Users\16917\Desktop\Dual-core_Communication_Demo\Dual-core_Communication_Demo\MASTER\obj/../Libraries/wch_libraries/Peripheral/ch32v10x_usart.c:687
    26a6:	fdc42783          	lw	a5,-36(s0)
    26aa:	0007d783          	lhu	a5,0(a5)
    26ae:	07c2                	slli	a5,a5,0x10
    26b0:	83c1                	srli	a5,a5,0x10
    26b2:	873e                	mv	a4,a5
    26b4:	fe442783          	lw	a5,-28(s0)
    26b8:	8ff9                	and	a5,a5,a4
    26ba:	fef42223          	sw	a5,-28(s0)
C:\Users\16917\Desktop\Dual-core_Communication_Demo\Dual-core_Communication_Demo\MASTER\obj/../Libraries/wch_libraries/Peripheral/ch32v10x_usart.c:689
    26be:	fec42783          	lw	a5,-20(s0)
    26c2:	cb81                	beqz	a5,26d2 <USART_GetITStatus+0xf2>
C:\Users\16917\Desktop\Dual-core_Communication_Demo\Dual-core_Communication_Demo\MASTER\obj/../Libraries/wch_libraries/Peripheral/ch32v10x_usart.c:689 (discriminator 1)
    26c4:	fe442783          	lw	a5,-28(s0)
    26c8:	c789                	beqz	a5,26d2 <USART_GetITStatus+0xf2>
C:\Users\16917\Desktop\Dual-core_Communication_Demo\Dual-core_Communication_Demo\MASTER\obj/../Libraries/wch_libraries/Peripheral/ch32v10x_usart.c:691
    26ca:	4785                	li	a5,1
    26cc:	fef42423          	sw	a5,-24(s0)
    26d0:	a019                	j	26d6 <USART_GetITStatus+0xf6>
C:\Users\16917\Desktop\Dual-core_Communication_Demo\Dual-core_Communication_Demo\MASTER\obj/../Libraries/wch_libraries/Peripheral/ch32v10x_usart.c:695
    26d2:	fe042423          	sw	zero,-24(s0)
C:\Users\16917\Desktop\Dual-core_Communication_Demo\Dual-core_Communication_Demo\MASTER\obj/../Libraries/wch_libraries/Peripheral/ch32v10x_usart.c:698
    26d6:	fe842783          	lw	a5,-24(s0)
C:\Users\16917\Desktop\Dual-core_Communication_Demo\Dual-core_Communication_Demo\MASTER\obj/../Libraries/wch_libraries/Peripheral/ch32v10x_usart.c:699
    26da:	853e                	mv	a0,a5
    26dc:	5432                	lw	s0,44(sp)
    26de:	6145                	addi	sp,sp,48
    26e0:	8082                	ret

000026e2 <USART_ClearITPendingBit>:
USART_ClearITPendingBit():
C:\Users\16917\Desktop\Dual-core_Communication_Demo\Dual-core_Communication_Demo\MASTER\obj/../Libraries/wch_libraries/Peripheral/ch32v10x_usart.c:713
    26e2:	7179                	addi	sp,sp,-48
    26e4:	d622                	sw	s0,44(sp)
    26e6:	1800                	addi	s0,sp,48
    26e8:	fca42e23          	sw	a0,-36(s0)
    26ec:	87ae                	mv	a5,a1
    26ee:	fcf41d23          	sh	a5,-38(s0)
C:\Users\16917\Desktop\Dual-core_Communication_Demo\Dual-core_Communication_Demo\MASTER\obj/../Libraries/wch_libraries/Peripheral/ch32v10x_usart.c:714
    26f2:	fe041723          	sh	zero,-18(s0)
    26f6:	fe041623          	sh	zero,-20(s0)
C:\Users\16917\Desktop\Dual-core_Communication_Demo\Dual-core_Communication_Demo\MASTER\obj/../Libraries/wch_libraries/Peripheral/ch32v10x_usart.c:720
    26fa:	fda45783          	lhu	a5,-38(s0)
    26fe:	83a1                	srli	a5,a5,0x8
    2700:	fef41723          	sh	a5,-18(s0)
C:\Users\16917\Desktop\Dual-core_Communication_Demo\Dual-core_Communication_Demo\MASTER\obj/../Libraries/wch_libraries/Peripheral/ch32v10x_usart.c:721
    2704:	fee45783          	lhu	a5,-18(s0)
    2708:	4705                	li	a4,1
    270a:	00f717b3          	sll	a5,a4,a5
    270e:	fef41623          	sh	a5,-20(s0)
C:\Users\16917\Desktop\Dual-core_Communication_Demo\Dual-core_Communication_Demo\MASTER\obj/../Libraries/wch_libraries/Peripheral/ch32v10x_usart.c:722
    2712:	fec45783          	lhu	a5,-20(s0)
    2716:	fff7c793          	not	a5,a5
    271a:	01079713          	slli	a4,a5,0x10
    271e:	8341                	srli	a4,a4,0x10
    2720:	fdc42783          	lw	a5,-36(s0)
    2724:	00e79023          	sh	a4,0(a5)
C:\Users\16917\Desktop\Dual-core_Communication_Demo\Dual-core_Communication_Demo\MASTER\obj/../Libraries/wch_libraries/Peripheral/ch32v10x_usart.c:723
    2728:	0001                	nop
    272a:	5432                	lw	s0,44(sp)
    272c:	6145                	addi	sp,sp,48
    272e:	8082                	ret

00002730 <ips114_writeIndex>:
ips114_writeIndex():
C:\Users\16917\Desktop\Dual-core_Communication_Demo\Dual-core_Communication_Demo\MASTER\obj/../Libraries/seekfree_peripheral/SEEKFREE_IPS114_SPI.c:50
    2730:	1101                	addi	sp,sp,-32
    2732:	ce06                	sw	ra,28(sp)
    2734:	cc22                	sw	s0,24(sp)
    2736:	1000                	addi	s0,sp,32
    2738:	87aa                	mv	a5,a0
    273a:	fef407a3          	sb	a5,-17(s0)
C:\Users\16917\Desktop\Dual-core_Communication_Demo\Dual-core_Communication_Demo\MASTER\obj/../Libraries/seekfree_peripheral/SEEKFREE_IPS114_SPI.c:51
    273e:	679d                	lui	a5,0x7
    2740:	b3c78793          	addi	a5,a5,-1220 # 6b3c <GPION>
    2744:	479c                	lw	a5,8(a5)
    2746:	873e                	mv	a4,a5
    2748:	67a1                	lui	a5,0x8
    274a:	cb5c                	sw	a5,20(a4)
C:\Users\16917\Desktop\Dual-core_Communication_Demo\Dual-core_Communication_Demo\MASTER\obj/../Libraries/seekfree_peripheral/SEEKFREE_IPS114_SPI.c:52
    274c:	679d                	lui	a5,0x7
    274e:	b3c78793          	addi	a5,a5,-1220 # 6b3c <GPION>
    2752:	479c                	lw	a5,8(a5)
    2754:	873e                	mv	a4,a5
    2756:	6791                	lui	a5,0x4
    2758:	cb5c                	sw	a5,20(a4)
C:\Users\16917\Desktop\Dual-core_Communication_Demo\Dual-core_Communication_Demo\MASTER\obj/../Libraries/seekfree_peripheral/SEEKFREE_IPS114_SPI.c:53
    275a:	fef40793          	addi	a5,s0,-17
    275e:	4685                	li	a3,1
    2760:	4601                	li	a2,0
    2762:	85be                	mv	a1,a5
    2764:	4501                	li	a0,0
    2766:	0a3010ef          	jal	ra,4008 <spi_mosi>
C:\Users\16917\Desktop\Dual-core_Communication_Demo\Dual-core_Communication_Demo\MASTER\obj/../Libraries/seekfree_peripheral/SEEKFREE_IPS114_SPI.c:54
    276a:	679d                	lui	a5,0x7
    276c:	b3c78793          	addi	a5,a5,-1220 # 6b3c <GPION>
    2770:	479c                	lw	a5,8(a5)
    2772:	873e                	mv	a4,a5
    2774:	67a1                	lui	a5,0x8
    2776:	cb1c                	sw	a5,16(a4)
C:\Users\16917\Desktop\Dual-core_Communication_Demo\Dual-core_Communication_Demo\MASTER\obj/../Libraries/seekfree_peripheral/SEEKFREE_IPS114_SPI.c:55
    2778:	0001                	nop
    277a:	40f2                	lw	ra,28(sp)
    277c:	4462                	lw	s0,24(sp)
    277e:	6105                	addi	sp,sp,32
    2780:	8082                	ret

00002782 <ips114_writeData>:
ips114_writeData():
C:\Users\16917\Desktop\Dual-core_Communication_Demo\Dual-core_Communication_Demo\MASTER\obj/../Libraries/seekfree_peripheral/SEEKFREE_IPS114_SPI.c:65
    2782:	1101                	addi	sp,sp,-32
    2784:	ce06                	sw	ra,28(sp)
    2786:	cc22                	sw	s0,24(sp)
    2788:	1000                	addi	s0,sp,32
    278a:	87aa                	mv	a5,a0
    278c:	fef407a3          	sb	a5,-17(s0)
C:\Users\16917\Desktop\Dual-core_Communication_Demo\Dual-core_Communication_Demo\MASTER\obj/../Libraries/seekfree_peripheral/SEEKFREE_IPS114_SPI.c:66
    2790:	679d                	lui	a5,0x7
    2792:	b3c78793          	addi	a5,a5,-1220 # 6b3c <GPION>
    2796:	479c                	lw	a5,8(a5)
    2798:	873e                	mv	a4,a5
    279a:	67a1                	lui	a5,0x8
    279c:	cb5c                	sw	a5,20(a4)
C:\Users\16917\Desktop\Dual-core_Communication_Demo\Dual-core_Communication_Demo\MASTER\obj/../Libraries/seekfree_peripheral/SEEKFREE_IPS114_SPI.c:67
    279e:	679d                	lui	a5,0x7
    27a0:	b3c78793          	addi	a5,a5,-1220 # 6b3c <GPION>
    27a4:	479c                	lw	a5,8(a5)
    27a6:	873e                	mv	a4,a5
    27a8:	6791                	lui	a5,0x4
    27aa:	cb1c                	sw	a5,16(a4)
C:\Users\16917\Desktop\Dual-core_Communication_Demo\Dual-core_Communication_Demo\MASTER\obj/../Libraries/seekfree_peripheral/SEEKFREE_IPS114_SPI.c:68
    27ac:	fef40793          	addi	a5,s0,-17
    27b0:	4685                	li	a3,1
    27b2:	4601                	li	a2,0
    27b4:	85be                	mv	a1,a5
    27b6:	4501                	li	a0,0
    27b8:	051010ef          	jal	ra,4008 <spi_mosi>
C:\Users\16917\Desktop\Dual-core_Communication_Demo\Dual-core_Communication_Demo\MASTER\obj/../Libraries/seekfree_peripheral/SEEKFREE_IPS114_SPI.c:69
    27bc:	679d                	lui	a5,0x7
    27be:	b3c78793          	addi	a5,a5,-1220 # 6b3c <GPION>
    27c2:	479c                	lw	a5,8(a5)
    27c4:	873e                	mv	a4,a5
    27c6:	67a1                	lui	a5,0x8
    27c8:	cb1c                	sw	a5,16(a4)
C:\Users\16917\Desktop\Dual-core_Communication_Demo\Dual-core_Communication_Demo\MASTER\obj/../Libraries/seekfree_peripheral/SEEKFREE_IPS114_SPI.c:70
    27ca:	0001                	nop
    27cc:	40f2                	lw	ra,28(sp)
    27ce:	4462                	lw	s0,24(sp)
    27d0:	6105                	addi	sp,sp,32
    27d2:	8082                	ret

000027d4 <ips114_writedata_16bit>:
ips114_writedata_16bit():
C:\Users\16917\Desktop\Dual-core_Communication_Demo\Dual-core_Communication_Demo\MASTER\obj/../Libraries/seekfree_peripheral/SEEKFREE_IPS114_SPI.c:80
    27d4:	7179                	addi	sp,sp,-48
    27d6:	d606                	sw	ra,44(sp)
    27d8:	d422                	sw	s0,40(sp)
    27da:	1800                	addi	s0,sp,48
    27dc:	87aa                	mv	a5,a0
    27de:	fcf41f23          	sh	a5,-34(s0)
C:\Users\16917\Desktop\Dual-core_Communication_Demo\Dual-core_Communication_Demo\MASTER\obj/../Libraries/seekfree_peripheral/SEEKFREE_IPS114_SPI.c:82
    27e2:	679d                	lui	a5,0x7
    27e4:	b3c78793          	addi	a5,a5,-1220 # 6b3c <GPION>
    27e8:	479c                	lw	a5,8(a5)
    27ea:	873e                	mv	a4,a5
    27ec:	67a1                	lui	a5,0x8
    27ee:	cb5c                	sw	a5,20(a4)
C:\Users\16917\Desktop\Dual-core_Communication_Demo\Dual-core_Communication_Demo\MASTER\obj/../Libraries/seekfree_peripheral/SEEKFREE_IPS114_SPI.c:83
    27f0:	fde45783          	lhu	a5,-34(s0)
    27f4:	83a1                	srli	a5,a5,0x8
    27f6:	07c2                	slli	a5,a5,0x10
    27f8:	83c1                	srli	a5,a5,0x10
    27fa:	0ff7f793          	andi	a5,a5,255
    27fe:	fef40623          	sb	a5,-20(s0)
C:\Users\16917\Desktop\Dual-core_Communication_Demo\Dual-core_Communication_Demo\MASTER\obj/../Libraries/seekfree_peripheral/SEEKFREE_IPS114_SPI.c:84
    2802:	fde45783          	lhu	a5,-34(s0)
    2806:	0ff7f793          	andi	a5,a5,255
    280a:	fef406a3          	sb	a5,-19(s0)
C:\Users\16917\Desktop\Dual-core_Communication_Demo\Dual-core_Communication_Demo\MASTER\obj/../Libraries/seekfree_peripheral/SEEKFREE_IPS114_SPI.c:86
    280e:	679d                	lui	a5,0x7
    2810:	b3c78793          	addi	a5,a5,-1220 # 6b3c <GPION>
    2814:	479c                	lw	a5,8(a5)
    2816:	873e                	mv	a4,a5
    2818:	6791                	lui	a5,0x4
    281a:	cb1c                	sw	a5,16(a4)
C:\Users\16917\Desktop\Dual-core_Communication_Demo\Dual-core_Communication_Demo\MASTER\obj/../Libraries/seekfree_peripheral/SEEKFREE_IPS114_SPI.c:87
    281c:	fec40793          	addi	a5,s0,-20
    2820:	4689                	li	a3,2
    2822:	4601                	li	a2,0
    2824:	85be                	mv	a1,a5
    2826:	4501                	li	a0,0
    2828:	7e0010ef          	jal	ra,4008 <spi_mosi>
C:\Users\16917\Desktop\Dual-core_Communication_Demo\Dual-core_Communication_Demo\MASTER\obj/../Libraries/seekfree_peripheral/SEEKFREE_IPS114_SPI.c:88
    282c:	679d                	lui	a5,0x7
    282e:	b3c78793          	addi	a5,a5,-1220 # 6b3c <GPION>
    2832:	479c                	lw	a5,8(a5)
    2834:	873e                	mv	a4,a5
    2836:	67a1                	lui	a5,0x8
    2838:	cb1c                	sw	a5,16(a4)
C:\Users\16917\Desktop\Dual-core_Communication_Demo\Dual-core_Communication_Demo\MASTER\obj/../Libraries/seekfree_peripheral/SEEKFREE_IPS114_SPI.c:89
    283a:	0001                	nop
    283c:	50b2                	lw	ra,44(sp)
    283e:	5422                	lw	s0,40(sp)
    2840:	6145                	addi	sp,sp,48
    2842:	8082                	ret

00002844 <ips114_init>:
ips114_init():
C:\Users\16917\Desktop\Dual-core_Communication_Demo\Dual-core_Communication_Demo\MASTER\obj/../Libraries/seekfree_peripheral/SEEKFREE_IPS114_SPI.c:98
    2844:	7179                	addi	sp,sp,-48
    2846:	d606                	sw	ra,44(sp)
    2848:	d422                	sw	s0,40(sp)
    284a:	d24a                	sw	s2,36(sp)
    284c:	d04e                	sw	s3,32(sp)
    284e:	ce52                	sw	s4,28(sp)
    2850:	cc56                	sw	s5,24(sp)
    2852:	ca5a                	sw	s6,20(sp)
    2854:	c85e                	sw	s7,16(sp)
    2856:	c662                	sw	s8,12(sp)
    2858:	c466                	sw	s9,8(sp)
    285a:	1800                	addi	s0,sp,48
C:\Users\16917\Desktop\Dual-core_Communication_Demo\Dual-core_Communication_Demo\MASTER\obj/../Libraries/seekfree_peripheral/SEEKFREE_IPS114_SPI.c:99
    285c:	4801                	li	a6,0
    285e:	4781                	li	a5,0
    2860:	04f00713          	li	a4,79
    2864:	02300693          	li	a3,35
    2868:	4605                	li	a2,1
    286a:	4581                	li	a1,0
    286c:	4501                	li	a0,0
    286e:	664010ef          	jal	ra,3ed2 <spi_init>
C:\Users\16917\Desktop\Dual-core_Communication_Demo\Dual-core_Communication_Demo\MASTER\obj/../Libraries/seekfree_peripheral/SEEKFREE_IPS114_SPI.c:101
    2872:	31000693          	li	a3,784
    2876:	4605                	li	a2,1
    2878:	4585                	li	a1,1
    287a:	08000513          	li	a0,128
    287e:	70e000ef          	jal	ra,2f8c <gpio_init>
C:\Users\16917\Desktop\Dual-core_Communication_Demo\Dual-core_Communication_Demo\MASTER\obj/../Libraries/seekfree_peripheral/SEEKFREE_IPS114_SPI.c:102
    2882:	31000693          	li	a3,784
    2886:	4601                	li	a2,0
    2888:	4585                	li	a1,1
    288a:	04e00513          	li	a0,78
    288e:	6fe000ef          	jal	ra,2f8c <gpio_init>
C:\Users\16917\Desktop\Dual-core_Communication_Demo\Dual-core_Communication_Demo\MASTER\obj/../Libraries/seekfree_peripheral/SEEKFREE_IPS114_SPI.c:103
    2892:	31000693          	li	a3,784
    2896:	4601                	li	a2,0
    2898:	4585                	li	a1,1
    289a:	04d00513          	li	a0,77
    289e:	6ee000ef          	jal	ra,2f8c <gpio_init>
C:\Users\16917\Desktop\Dual-core_Communication_Demo\Dual-core_Communication_Demo\MASTER\obj/../Libraries/seekfree_peripheral/SEEKFREE_IPS114_SPI.c:105
    28a2:	679d                	lui	a5,0x7
    28a4:	b3c78793          	addi	a5,a5,-1220 # 6b3c <GPION>
    28a8:	479c                	lw	a5,8(a5)
    28aa:	873e                	mv	a4,a5
    28ac:	6789                	lui	a5,0x2
    28ae:	cb5c                	sw	a5,20(a4)
C:\Users\16917\Desktop\Dual-core_Communication_Demo\Dual-core_Communication_Demo\MASTER\obj/../Libraries/seekfree_peripheral/SEEKFREE_IPS114_SPI.c:106
    28b0:	8381a703          	lw	a4,-1992(gp) # 200000a8 <sys_clk>
    28b4:	6789                	lui	a5,0x2
    28b6:	f4078793          	addi	a5,a5,-192 # 1f40 <TIM_OC2PreloadConfig+0x34>
    28ba:	02f75733          	divu	a4,a4,a5
    28be:	0c800793          	li	a5,200
    28c2:	02f707b3          	mul	a5,a4,a5
    28c6:	8c3e                	mv	s8,a5
    28c8:	4c81                	li	s9,0
    28ca:	8562                	mv	a0,s8
    28cc:	85e6                	mv	a1,s9
    28ce:	7fc010ef          	jal	ra,40ca <systick_delay>
C:\Users\16917\Desktop\Dual-core_Communication_Demo\Dual-core_Communication_Demo\MASTER\obj/../Libraries/seekfree_peripheral/SEEKFREE_IPS114_SPI.c:108
    28d2:	679d                	lui	a5,0x7
    28d4:	b3c78793          	addi	a5,a5,-1220 # 6b3c <GPION>
    28d8:	479c                	lw	a5,8(a5)
    28da:	873e                	mv	a4,a5
    28dc:	6789                	lui	a5,0x2
    28de:	cb1c                	sw	a5,16(a4)
C:\Users\16917\Desktop\Dual-core_Communication_Demo\Dual-core_Communication_Demo\MASTER\obj/../Libraries/seekfree_peripheral/SEEKFREE_IPS114_SPI.c:109
    28e0:	8381a703          	lw	a4,-1992(gp) # 200000a8 <sys_clk>
    28e4:	6789                	lui	a5,0x2
    28e6:	f4078793          	addi	a5,a5,-192 # 1f40 <TIM_OC2PreloadConfig+0x34>
    28ea:	02f75733          	divu	a4,a4,a5
    28ee:	06400793          	li	a5,100
    28f2:	02f707b3          	mul	a5,a4,a5
    28f6:	8b3e                	mv	s6,a5
    28f8:	4b81                	li	s7,0
    28fa:	855a                	mv	a0,s6
    28fc:	85de                	mv	a1,s7
    28fe:	7cc010ef          	jal	ra,40ca <systick_delay>
C:\Users\16917\Desktop\Dual-core_Communication_Demo\Dual-core_Communication_Demo\MASTER\obj/../Libraries/seekfree_peripheral/SEEKFREE_IPS114_SPI.c:111
    2902:	03600513          	li	a0,54
    2906:	352d                	jal	2730 <ips114_writeIndex>
C:\Users\16917\Desktop\Dual-core_Communication_Demo\Dual-core_Communication_Demo\MASTER\obj/../Libraries/seekfree_peripheral/SEEKFREE_IPS114_SPI.c:112
    2908:	8381a703          	lw	a4,-1992(gp) # 200000a8 <sys_clk>
    290c:	6789                	lui	a5,0x2
    290e:	f4078793          	addi	a5,a5,-192 # 1f40 <TIM_OC2PreloadConfig+0x34>
    2912:	02f75733          	divu	a4,a4,a5
    2916:	06400793          	li	a5,100
    291a:	02f707b3          	mul	a5,a4,a5
    291e:	8a3e                	mv	s4,a5
    2920:	4a81                	li	s5,0
    2922:	8552                	mv	a0,s4
    2924:	85d6                	mv	a1,s5
    2926:	7a4010ef          	jal	ra,40ca <systick_delay>
C:\Users\16917\Desktop\Dual-core_Communication_Demo\Dual-core_Communication_Demo\MASTER\obj/../Libraries/seekfree_peripheral/SEEKFREE_IPS114_SPI.c:115
    292a:	07000513          	li	a0,112
    292e:	3d91                	jal	2782 <ips114_writeData>
C:\Users\16917\Desktop\Dual-core_Communication_Demo\Dual-core_Communication_Demo\MASTER\obj/../Libraries/seekfree_peripheral/SEEKFREE_IPS114_SPI.c:118
    2930:	03a00513          	li	a0,58
    2934:	3bf5                	jal	2730 <ips114_writeIndex>
C:\Users\16917\Desktop\Dual-core_Communication_Demo\Dual-core_Communication_Demo\MASTER\obj/../Libraries/seekfree_peripheral/SEEKFREE_IPS114_SPI.c:119
    2936:	4515                	li	a0,5
    2938:	35a9                	jal	2782 <ips114_writeData>
C:\Users\16917\Desktop\Dual-core_Communication_Demo\Dual-core_Communication_Demo\MASTER\obj/../Libraries/seekfree_peripheral/SEEKFREE_IPS114_SPI.c:121
    293a:	0b200513          	li	a0,178
    293e:	3bcd                	jal	2730 <ips114_writeIndex>
C:\Users\16917\Desktop\Dual-core_Communication_Demo\Dual-core_Communication_Demo\MASTER\obj/../Libraries/seekfree_peripheral/SEEKFREE_IPS114_SPI.c:122
    2940:	4531                	li	a0,12
    2942:	3581                	jal	2782 <ips114_writeData>
C:\Users\16917\Desktop\Dual-core_Communication_Demo\Dual-core_Communication_Demo\MASTER\obj/../Libraries/seekfree_peripheral/SEEKFREE_IPS114_SPI.c:123
    2944:	4531                	li	a0,12
    2946:	3d35                	jal	2782 <ips114_writeData>
C:\Users\16917\Desktop\Dual-core_Communication_Demo\Dual-core_Communication_Demo\MASTER\obj/../Libraries/seekfree_peripheral/SEEKFREE_IPS114_SPI.c:124
    2948:	4501                	li	a0,0
    294a:	3d25                	jal	2782 <ips114_writeData>
C:\Users\16917\Desktop\Dual-core_Communication_Demo\Dual-core_Communication_Demo\MASTER\obj/../Libraries/seekfree_peripheral/SEEKFREE_IPS114_SPI.c:125
    294c:	03300513          	li	a0,51
    2950:	3d0d                	jal	2782 <ips114_writeData>
C:\Users\16917\Desktop\Dual-core_Communication_Demo\Dual-core_Communication_Demo\MASTER\obj/../Libraries/seekfree_peripheral/SEEKFREE_IPS114_SPI.c:126
    2952:	03300513          	li	a0,51
    2956:	3535                	jal	2782 <ips114_writeData>
C:\Users\16917\Desktop\Dual-core_Communication_Demo\Dual-core_Communication_Demo\MASTER\obj/../Libraries/seekfree_peripheral/SEEKFREE_IPS114_SPI.c:128
    2958:	0b700513          	li	a0,183
    295c:	3bd1                	jal	2730 <ips114_writeIndex>
C:\Users\16917\Desktop\Dual-core_Communication_Demo\Dual-core_Communication_Demo\MASTER\obj/../Libraries/seekfree_peripheral/SEEKFREE_IPS114_SPI.c:129
    295e:	03500513          	li	a0,53
    2962:	3505                	jal	2782 <ips114_writeData>
C:\Users\16917\Desktop\Dual-core_Communication_Demo\Dual-core_Communication_Demo\MASTER\obj/../Libraries/seekfree_peripheral/SEEKFREE_IPS114_SPI.c:131
    2964:	0bb00513          	li	a0,187
    2968:	33e1                	jal	2730 <ips114_writeIndex>
C:\Users\16917\Desktop\Dual-core_Communication_Demo\Dual-core_Communication_Demo\MASTER\obj/../Libraries/seekfree_peripheral/SEEKFREE_IPS114_SPI.c:132
    296a:	03700513          	li	a0,55
    296e:	3d11                	jal	2782 <ips114_writeData>
C:\Users\16917\Desktop\Dual-core_Communication_Demo\Dual-core_Communication_Demo\MASTER\obj/../Libraries/seekfree_peripheral/SEEKFREE_IPS114_SPI.c:134
    2970:	0c000513          	li	a0,192
    2974:	3b75                	jal	2730 <ips114_writeIndex>
C:\Users\16917\Desktop\Dual-core_Communication_Demo\Dual-core_Communication_Demo\MASTER\obj/../Libraries/seekfree_peripheral/SEEKFREE_IPS114_SPI.c:135
    2976:	02c00513          	li	a0,44
    297a:	3521                	jal	2782 <ips114_writeData>
C:\Users\16917\Desktop\Dual-core_Communication_Demo\Dual-core_Communication_Demo\MASTER\obj/../Libraries/seekfree_peripheral/SEEKFREE_IPS114_SPI.c:137
    297c:	0c200513          	li	a0,194
    2980:	3b45                	jal	2730 <ips114_writeIndex>
C:\Users\16917\Desktop\Dual-core_Communication_Demo\Dual-core_Communication_Demo\MASTER\obj/../Libraries/seekfree_peripheral/SEEKFREE_IPS114_SPI.c:138
    2982:	4505                	li	a0,1
    2984:	3bfd                	jal	2782 <ips114_writeData>
C:\Users\16917\Desktop\Dual-core_Communication_Demo\Dual-core_Communication_Demo\MASTER\obj/../Libraries/seekfree_peripheral/SEEKFREE_IPS114_SPI.c:140
    2986:	0c300513          	li	a0,195
    298a:	335d                	jal	2730 <ips114_writeIndex>
C:\Users\16917\Desktop\Dual-core_Communication_Demo\Dual-core_Communication_Demo\MASTER\obj/../Libraries/seekfree_peripheral/SEEKFREE_IPS114_SPI.c:141
    298c:	4549                	li	a0,18
    298e:	3bd5                	jal	2782 <ips114_writeData>
C:\Users\16917\Desktop\Dual-core_Communication_Demo\Dual-core_Communication_Demo\MASTER\obj/../Libraries/seekfree_peripheral/SEEKFREE_IPS114_SPI.c:143
    2990:	0c400513          	li	a0,196
    2994:	3b71                	jal	2730 <ips114_writeIndex>
C:\Users\16917\Desktop\Dual-core_Communication_Demo\Dual-core_Communication_Demo\MASTER\obj/../Libraries/seekfree_peripheral/SEEKFREE_IPS114_SPI.c:144
    2996:	02000513          	li	a0,32
    299a:	33e5                	jal	2782 <ips114_writeData>
C:\Users\16917\Desktop\Dual-core_Communication_Demo\Dual-core_Communication_Demo\MASTER\obj/../Libraries/seekfree_peripheral/SEEKFREE_IPS114_SPI.c:146
    299c:	0c600513          	li	a0,198
    29a0:	3b41                	jal	2730 <ips114_writeIndex>
C:\Users\16917\Desktop\Dual-core_Communication_Demo\Dual-core_Communication_Demo\MASTER\obj/../Libraries/seekfree_peripheral/SEEKFREE_IPS114_SPI.c:147
    29a2:	453d                	li	a0,15
    29a4:	3bf9                	jal	2782 <ips114_writeData>
C:\Users\16917\Desktop\Dual-core_Communication_Demo\Dual-core_Communication_Demo\MASTER\obj/../Libraries/seekfree_peripheral/SEEKFREE_IPS114_SPI.c:149
    29a6:	0d000513          	li	a0,208
    29aa:	3359                	jal	2730 <ips114_writeIndex>
C:\Users\16917\Desktop\Dual-core_Communication_Demo\Dual-core_Communication_Demo\MASTER\obj/../Libraries/seekfree_peripheral/SEEKFREE_IPS114_SPI.c:150
    29ac:	0a400513          	li	a0,164
    29b0:	3bc9                	jal	2782 <ips114_writeData>
C:\Users\16917\Desktop\Dual-core_Communication_Demo\Dual-core_Communication_Demo\MASTER\obj/../Libraries/seekfree_peripheral/SEEKFREE_IPS114_SPI.c:151
    29b2:	0a100513          	li	a0,161
    29b6:	33f1                	jal	2782 <ips114_writeData>
C:\Users\16917\Desktop\Dual-core_Communication_Demo\Dual-core_Communication_Demo\MASTER\obj/../Libraries/seekfree_peripheral/SEEKFREE_IPS114_SPI.c:153
    29b8:	0e000513          	li	a0,224
    29bc:	3b95                	jal	2730 <ips114_writeIndex>
C:\Users\16917\Desktop\Dual-core_Communication_Demo\Dual-core_Communication_Demo\MASTER\obj/../Libraries/seekfree_peripheral/SEEKFREE_IPS114_SPI.c:154
    29be:	0d000513          	li	a0,208
    29c2:	33c1                	jal	2782 <ips114_writeData>
C:\Users\16917\Desktop\Dual-core_Communication_Demo\Dual-core_Communication_Demo\MASTER\obj/../Libraries/seekfree_peripheral/SEEKFREE_IPS114_SPI.c:155
    29c4:	4511                	li	a0,4
    29c6:	3b75                	jal	2782 <ips114_writeData>
C:\Users\16917\Desktop\Dual-core_Communication_Demo\Dual-core_Communication_Demo\MASTER\obj/../Libraries/seekfree_peripheral/SEEKFREE_IPS114_SPI.c:156
    29c8:	4535                	li	a0,13
    29ca:	3b65                	jal	2782 <ips114_writeData>
C:\Users\16917\Desktop\Dual-core_Communication_Demo\Dual-core_Communication_Demo\MASTER\obj/../Libraries/seekfree_peripheral/SEEKFREE_IPS114_SPI.c:157
    29cc:	4545                	li	a0,17
    29ce:	3b55                	jal	2782 <ips114_writeData>
C:\Users\16917\Desktop\Dual-core_Communication_Demo\Dual-core_Communication_Demo\MASTER\obj/../Libraries/seekfree_peripheral/SEEKFREE_IPS114_SPI.c:158
    29d0:	454d                	li	a0,19
    29d2:	3b45                	jal	2782 <ips114_writeData>
C:\Users\16917\Desktop\Dual-core_Communication_Demo\Dual-core_Communication_Demo\MASTER\obj/../Libraries/seekfree_peripheral/SEEKFREE_IPS114_SPI.c:159
    29d4:	02b00513          	li	a0,43
    29d8:	336d                	jal	2782 <ips114_writeData>
C:\Users\16917\Desktop\Dual-core_Communication_Demo\Dual-core_Communication_Demo\MASTER\obj/../Libraries/seekfree_peripheral/SEEKFREE_IPS114_SPI.c:160
    29da:	03f00513          	li	a0,63
    29de:	3355                	jal	2782 <ips114_writeData>
C:\Users\16917\Desktop\Dual-core_Communication_Demo\Dual-core_Communication_Demo\MASTER\obj/../Libraries/seekfree_peripheral/SEEKFREE_IPS114_SPI.c:161
    29e0:	05400513          	li	a0,84
    29e4:	3b79                	jal	2782 <ips114_writeData>
C:\Users\16917\Desktop\Dual-core_Communication_Demo\Dual-core_Communication_Demo\MASTER\obj/../Libraries/seekfree_peripheral/SEEKFREE_IPS114_SPI.c:162
    29e6:	04c00513          	li	a0,76
    29ea:	3b61                	jal	2782 <ips114_writeData>
C:\Users\16917\Desktop\Dual-core_Communication_Demo\Dual-core_Communication_Demo\MASTER\obj/../Libraries/seekfree_peripheral/SEEKFREE_IPS114_SPI.c:163
    29ec:	4561                	li	a0,24
    29ee:	3b51                	jal	2782 <ips114_writeData>
C:\Users\16917\Desktop\Dual-core_Communication_Demo\Dual-core_Communication_Demo\MASTER\obj/../Libraries/seekfree_peripheral/SEEKFREE_IPS114_SPI.c:164
    29f0:	4535                	li	a0,13
    29f2:	3b41                	jal	2782 <ips114_writeData>
C:\Users\16917\Desktop\Dual-core_Communication_Demo\Dual-core_Communication_Demo\MASTER\obj/../Libraries/seekfree_peripheral/SEEKFREE_IPS114_SPI.c:165
    29f4:	452d                	li	a0,11
    29f6:	3371                	jal	2782 <ips114_writeData>
C:\Users\16917\Desktop\Dual-core_Communication_Demo\Dual-core_Communication_Demo\MASTER\obj/../Libraries/seekfree_peripheral/SEEKFREE_IPS114_SPI.c:166
    29f8:	457d                	li	a0,31
    29fa:	3361                	jal	2782 <ips114_writeData>
C:\Users\16917\Desktop\Dual-core_Communication_Demo\Dual-core_Communication_Demo\MASTER\obj/../Libraries/seekfree_peripheral/SEEKFREE_IPS114_SPI.c:167
    29fc:	02300513          	li	a0,35
    2a00:	3349                	jal	2782 <ips114_writeData>
C:\Users\16917\Desktop\Dual-core_Communication_Demo\Dual-core_Communication_Demo\MASTER\obj/../Libraries/seekfree_peripheral/SEEKFREE_IPS114_SPI.c:169
    2a02:	0e100513          	li	a0,225
    2a06:	332d                	jal	2730 <ips114_writeIndex>
C:\Users\16917\Desktop\Dual-core_Communication_Demo\Dual-core_Communication_Demo\MASTER\obj/../Libraries/seekfree_peripheral/SEEKFREE_IPS114_SPI.c:170
    2a08:	0d000513          	li	a0,208
    2a0c:	3b9d                	jal	2782 <ips114_writeData>
C:\Users\16917\Desktop\Dual-core_Communication_Demo\Dual-core_Communication_Demo\MASTER\obj/../Libraries/seekfree_peripheral/SEEKFREE_IPS114_SPI.c:171
    2a0e:	4511                	li	a0,4
    2a10:	3b8d                	jal	2782 <ips114_writeData>
C:\Users\16917\Desktop\Dual-core_Communication_Demo\Dual-core_Communication_Demo\MASTER\obj/../Libraries/seekfree_peripheral/SEEKFREE_IPS114_SPI.c:172
    2a12:	4531                	li	a0,12
    2a14:	33bd                	jal	2782 <ips114_writeData>
C:\Users\16917\Desktop\Dual-core_Communication_Demo\Dual-core_Communication_Demo\MASTER\obj/../Libraries/seekfree_peripheral/SEEKFREE_IPS114_SPI.c:173
    2a16:	4545                	li	a0,17
    2a18:	33ad                	jal	2782 <ips114_writeData>
C:\Users\16917\Desktop\Dual-core_Communication_Demo\Dual-core_Communication_Demo\MASTER\obj/../Libraries/seekfree_peripheral/SEEKFREE_IPS114_SPI.c:174
    2a1a:	454d                	li	a0,19
    2a1c:	339d                	jal	2782 <ips114_writeData>
C:\Users\16917\Desktop\Dual-core_Communication_Demo\Dual-core_Communication_Demo\MASTER\obj/../Libraries/seekfree_peripheral/SEEKFREE_IPS114_SPI.c:175
    2a1e:	02c00513          	li	a0,44
    2a22:	3385                	jal	2782 <ips114_writeData>
C:\Users\16917\Desktop\Dual-core_Communication_Demo\Dual-core_Communication_Demo\MASTER\obj/../Libraries/seekfree_peripheral/SEEKFREE_IPS114_SPI.c:176
    2a24:	03f00513          	li	a0,63
    2a28:	3ba9                	jal	2782 <ips114_writeData>
C:\Users\16917\Desktop\Dual-core_Communication_Demo\Dual-core_Communication_Demo\MASTER\obj/../Libraries/seekfree_peripheral/SEEKFREE_IPS114_SPI.c:177
    2a2a:	04400513          	li	a0,68
    2a2e:	3b91                	jal	2782 <ips114_writeData>
C:\Users\16917\Desktop\Dual-core_Communication_Demo\Dual-core_Communication_Demo\MASTER\obj/../Libraries/seekfree_peripheral/SEEKFREE_IPS114_SPI.c:178
    2a30:	05100513          	li	a0,81
    2a34:	33b9                	jal	2782 <ips114_writeData>
C:\Users\16917\Desktop\Dual-core_Communication_Demo\Dual-core_Communication_Demo\MASTER\obj/../Libraries/seekfree_peripheral/SEEKFREE_IPS114_SPI.c:179
    2a36:	02f00513          	li	a0,47
    2a3a:	33a1                	jal	2782 <ips114_writeData>
C:\Users\16917\Desktop\Dual-core_Communication_Demo\Dual-core_Communication_Demo\MASTER\obj/../Libraries/seekfree_peripheral/SEEKFREE_IPS114_SPI.c:180
    2a3c:	457d                	li	a0,31
    2a3e:	3391                	jal	2782 <ips114_writeData>
C:\Users\16917\Desktop\Dual-core_Communication_Demo\Dual-core_Communication_Demo\MASTER\obj/../Libraries/seekfree_peripheral/SEEKFREE_IPS114_SPI.c:181
    2a40:	457d                	li	a0,31
    2a42:	3381                	jal	2782 <ips114_writeData>
C:\Users\16917\Desktop\Dual-core_Communication_Demo\Dual-core_Communication_Demo\MASTER\obj/../Libraries/seekfree_peripheral/SEEKFREE_IPS114_SPI.c:182
    2a44:	02000513          	li	a0,32
    2a48:	3b2d                	jal	2782 <ips114_writeData>
C:\Users\16917\Desktop\Dual-core_Communication_Demo\Dual-core_Communication_Demo\MASTER\obj/../Libraries/seekfree_peripheral/SEEKFREE_IPS114_SPI.c:183
    2a4a:	02300513          	li	a0,35
    2a4e:	3b15                	jal	2782 <ips114_writeData>
C:\Users\16917\Desktop\Dual-core_Communication_Demo\Dual-core_Communication_Demo\MASTER\obj/../Libraries/seekfree_peripheral/SEEKFREE_IPS114_SPI.c:185
    2a50:	02100513          	li	a0,33
    2a54:	39f1                	jal	2730 <ips114_writeIndex>
C:\Users\16917\Desktop\Dual-core_Communication_Demo\Dual-core_Communication_Demo\MASTER\obj/../Libraries/seekfree_peripheral/SEEKFREE_IPS114_SPI.c:187
    2a56:	4545                	li	a0,17
    2a58:	39e1                	jal	2730 <ips114_writeIndex>
C:\Users\16917\Desktop\Dual-core_Communication_Demo\Dual-core_Communication_Demo\MASTER\obj/../Libraries/seekfree_peripheral/SEEKFREE_IPS114_SPI.c:188
    2a5a:	8381a703          	lw	a4,-1992(gp) # 200000a8 <sys_clk>
    2a5e:	6789                	lui	a5,0x2
    2a60:	f4078793          	addi	a5,a5,-192 # 1f40 <TIM_OC2PreloadConfig+0x34>
    2a64:	02f75733          	divu	a4,a4,a5
    2a68:	87ba                	mv	a5,a4
    2a6a:	0792                	slli	a5,a5,0x4
    2a6c:	8f99                	sub	a5,a5,a4
    2a6e:	078e                	slli	a5,a5,0x3
    2a70:	893e                	mv	s2,a5
    2a72:	4981                	li	s3,0
    2a74:	854a                	mv	a0,s2
    2a76:	85ce                	mv	a1,s3
    2a78:	652010ef          	jal	ra,40ca <systick_delay>
C:\Users\16917\Desktop\Dual-core_Communication_Demo\Dual-core_Communication_Demo\MASTER\obj/../Libraries/seekfree_peripheral/SEEKFREE_IPS114_SPI.c:190
    2a7c:	02900513          	li	a0,41
    2a80:	3945                	jal	2730 <ips114_writeIndex>
C:\Users\16917\Desktop\Dual-core_Communication_Demo\Dual-core_Communication_Demo\MASTER\obj/../Libraries/seekfree_peripheral/SEEKFREE_IPS114_SPI.c:191
    2a82:	67c1                	lui	a5,0x10
    2a84:	fff78513          	addi	a0,a5,-1 # ffff <_data_lma+0x9267>
    2a88:	2869                	jal	2b22 <ips114_clear>
C:\Users\16917\Desktop\Dual-core_Communication_Demo\Dual-core_Communication_Demo\MASTER\obj/../Libraries/seekfree_peripheral/SEEKFREE_IPS114_SPI.c:192
    2a8a:	0001                	nop
    2a8c:	50b2                	lw	ra,44(sp)
    2a8e:	5422                	lw	s0,40(sp)
    2a90:	5912                	lw	s2,36(sp)
    2a92:	5982                	lw	s3,32(sp)
    2a94:	4a72                	lw	s4,28(sp)
    2a96:	4ae2                	lw	s5,24(sp)
    2a98:	4b52                	lw	s6,20(sp)
    2a9a:	4bc2                	lw	s7,16(sp)
    2a9c:	4c32                	lw	s8,12(sp)
    2a9e:	4ca2                	lw	s9,8(sp)
    2aa0:	6145                	addi	sp,sp,48
    2aa2:	8082                	ret

00002aa4 <ips114_set_region>:
ips114_set_region():
C:\Users\16917\Desktop\Dual-core_Communication_Demo\Dual-core_Communication_Demo\MASTER\obj/../Libraries/seekfree_peripheral/SEEKFREE_IPS114_SPI.c:197
    2aa4:	1101                	addi	sp,sp,-32
    2aa6:	ce06                	sw	ra,28(sp)
    2aa8:	cc22                	sw	s0,24(sp)
    2aaa:	1000                	addi	s0,sp,32
    2aac:	87aa                	mv	a5,a0
    2aae:	8736                	mv	a4,a3
    2ab0:	fef41723          	sh	a5,-18(s0)
    2ab4:	87ae                	mv	a5,a1
    2ab6:	fef41623          	sh	a5,-20(s0)
    2aba:	87b2                	mv	a5,a2
    2abc:	fef41523          	sh	a5,-22(s0)
    2ac0:	87ba                	mv	a5,a4
    2ac2:	fef41423          	sh	a5,-24(s0)
C:\Users\16917\Desktop\Dual-core_Communication_Demo\Dual-core_Communication_Demo\MASTER\obj/../Libraries/seekfree_peripheral/SEEKFREE_IPS114_SPI.c:220
    2ac6:	02a00513          	li	a0,42
    2aca:	319d                	jal	2730 <ips114_writeIndex>
C:\Users\16917\Desktop\Dual-core_Communication_Demo\Dual-core_Communication_Demo\MASTER\obj/../Libraries/seekfree_peripheral/SEEKFREE_IPS114_SPI.c:221
    2acc:	fee45783          	lhu	a5,-18(s0)
    2ad0:	02878793          	addi	a5,a5,40
    2ad4:	07c2                	slli	a5,a5,0x10
    2ad6:	83c1                	srli	a5,a5,0x10
    2ad8:	853e                	mv	a0,a5
    2ada:	39ed                	jal	27d4 <ips114_writedata_16bit>
C:\Users\16917\Desktop\Dual-core_Communication_Demo\Dual-core_Communication_Demo\MASTER\obj/../Libraries/seekfree_peripheral/SEEKFREE_IPS114_SPI.c:222
    2adc:	fea45783          	lhu	a5,-22(s0)
    2ae0:	02878793          	addi	a5,a5,40
    2ae4:	07c2                	slli	a5,a5,0x10
    2ae6:	83c1                	srli	a5,a5,0x10
    2ae8:	853e                	mv	a0,a5
    2aea:	31ed                	jal	27d4 <ips114_writedata_16bit>
C:\Users\16917\Desktop\Dual-core_Communication_Demo\Dual-core_Communication_Demo\MASTER\obj/../Libraries/seekfree_peripheral/SEEKFREE_IPS114_SPI.c:223
    2aec:	02b00513          	li	a0,43
    2af0:	3181                	jal	2730 <ips114_writeIndex>
C:\Users\16917\Desktop\Dual-core_Communication_Demo\Dual-core_Communication_Demo\MASTER\obj/../Libraries/seekfree_peripheral/SEEKFREE_IPS114_SPI.c:224
    2af2:	fec45783          	lhu	a5,-20(s0)
    2af6:	03578793          	addi	a5,a5,53
    2afa:	07c2                	slli	a5,a5,0x10
    2afc:	83c1                	srli	a5,a5,0x10
    2afe:	853e                	mv	a0,a5
    2b00:	39d1                	jal	27d4 <ips114_writedata_16bit>
C:\Users\16917\Desktop\Dual-core_Communication_Demo\Dual-core_Communication_Demo\MASTER\obj/../Libraries/seekfree_peripheral/SEEKFREE_IPS114_SPI.c:225
    2b02:	fe845783          	lhu	a5,-24(s0)
    2b06:	03578793          	addi	a5,a5,53
    2b0a:	07c2                	slli	a5,a5,0x10
    2b0c:	83c1                	srli	a5,a5,0x10
    2b0e:	853e                	mv	a0,a5
    2b10:	31d1                	jal	27d4 <ips114_writedata_16bit>
C:\Users\16917\Desktop\Dual-core_Communication_Demo\Dual-core_Communication_Demo\MASTER\obj/../Libraries/seekfree_peripheral/SEEKFREE_IPS114_SPI.c:226
    2b12:	02c00513          	li	a0,44
    2b16:	3929                	jal	2730 <ips114_writeIndex>
C:\Users\16917\Desktop\Dual-core_Communication_Demo\Dual-core_Communication_Demo\MASTER\obj/../Libraries/seekfree_peripheral/SEEKFREE_IPS114_SPI.c:238
    2b18:	0001                	nop
    2b1a:	40f2                	lw	ra,28(sp)
    2b1c:	4462                	lw	s0,24(sp)
    2b1e:	6105                	addi	sp,sp,32
    2b20:	8082                	ret

00002b22 <ips114_clear>:
ips114_clear():
C:\Users\16917\Desktop\Dual-core_Communication_Demo\Dual-core_Communication_Demo\MASTER\obj/../Libraries/seekfree_peripheral/SEEKFREE_IPS114_SPI.c:248
    2b22:	7179                	addi	sp,sp,-48
    2b24:	d606                	sw	ra,44(sp)
    2b26:	d422                	sw	s0,40(sp)
    2b28:	1800                	addi	s0,sp,48
    2b2a:	87aa                	mv	a5,a0
    2b2c:	fcf41f23          	sh	a5,-34(s0)
C:\Users\16917\Desktop\Dual-core_Communication_Demo\Dual-core_Communication_Demo\MASTER\obj/../Libraries/seekfree_peripheral/SEEKFREE_IPS114_SPI.c:250
    2b30:	08600693          	li	a3,134
    2b34:	0ef00613          	li	a2,239
    2b38:	4581                	li	a1,0
    2b3a:	4501                	li	a0,0
    2b3c:	37a5                	jal	2aa4 <ips114_set_region>
C:\Users\16917\Desktop\Dual-core_Communication_Demo\Dual-core_Communication_Demo\MASTER\obj/../Libraries/seekfree_peripheral/SEEKFREE_IPS114_SPI.c:251
    2b3e:	fe041723          	sh	zero,-18(s0)
    2b42:	a805                	j	2b72 <ips114_clear+0x50>
C:\Users\16917\Desktop\Dual-core_Communication_Demo\Dual-core_Communication_Demo\MASTER\obj/../Libraries/seekfree_peripheral/SEEKFREE_IPS114_SPI.c:253
    2b44:	fe041623          	sh	zero,-20(s0)
    2b48:	a811                	j	2b5c <ips114_clear+0x3a>
C:\Users\16917\Desktop\Dual-core_Communication_Demo\Dual-core_Communication_Demo\MASTER\obj/../Libraries/seekfree_peripheral/SEEKFREE_IPS114_SPI.c:255 (discriminator 3)
    2b4a:	fde45783          	lhu	a5,-34(s0)
    2b4e:	853e                	mv	a0,a5
    2b50:	3151                	jal	27d4 <ips114_writedata_16bit>
C:\Users\16917\Desktop\Dual-core_Communication_Demo\Dual-core_Communication_Demo\MASTER\obj/../Libraries/seekfree_peripheral/SEEKFREE_IPS114_SPI.c:253 (discriminator 3)
    2b52:	fec45783          	lhu	a5,-20(s0)
    2b56:	0785                	addi	a5,a5,1
    2b58:	fef41623          	sh	a5,-20(s0)
C:\Users\16917\Desktop\Dual-core_Communication_Demo\Dual-core_Communication_Demo\MASTER\obj/../Libraries/seekfree_peripheral/SEEKFREE_IPS114_SPI.c:253 (discriminator 1)
    2b5c:	fec45703          	lhu	a4,-20(s0)
    2b60:	08600793          	li	a5,134
    2b64:	fee7f3e3          	bgeu	a5,a4,2b4a <ips114_clear+0x28>
C:\Users\16917\Desktop\Dual-core_Communication_Demo\Dual-core_Communication_Demo\MASTER\obj/../Libraries/seekfree_peripheral/SEEKFREE_IPS114_SPI.c:251 (discriminator 2)
    2b68:	fee45783          	lhu	a5,-18(s0)
    2b6c:	0785                	addi	a5,a5,1
    2b6e:	fef41723          	sh	a5,-18(s0)
C:\Users\16917\Desktop\Dual-core_Communication_Demo\Dual-core_Communication_Demo\MASTER\obj/../Libraries/seekfree_peripheral/SEEKFREE_IPS114_SPI.c:251 (discriminator 1)
    2b72:	fee45703          	lhu	a4,-18(s0)
    2b76:	0ef00793          	li	a5,239
    2b7a:	fce7f5e3          	bgeu	a5,a4,2b44 <ips114_clear+0x22>
C:\Users\16917\Desktop\Dual-core_Communication_Demo\Dual-core_Communication_Demo\MASTER\obj/../Libraries/seekfree_peripheral/SEEKFREE_IPS114_SPI.c:258
    2b7e:	0001                	nop
    2b80:	50b2                	lw	ra,44(sp)
    2b82:	5422                	lw	s0,40(sp)
    2b84:	6145                	addi	sp,sp,48
    2b86:	8082                	ret

00002b88 <ips114_showchar>:
ips114_showchar():
C:\Users\16917\Desktop\Dual-core_Communication_Demo\Dual-core_Communication_Demo\MASTER\obj/../Libraries/seekfree_peripheral/SEEKFREE_IPS114_SPI.c:287
    2b88:	7179                	addi	sp,sp,-48
    2b8a:	d606                	sw	ra,44(sp)
    2b8c:	d422                	sw	s0,40(sp)
    2b8e:	1800                	addi	s0,sp,48
    2b90:	87aa                	mv	a5,a0
    2b92:	86ae                	mv	a3,a1
    2b94:	8732                	mv	a4,a2
    2b96:	fcf41f23          	sh	a5,-34(s0)
    2b9a:	87b6                	mv	a5,a3
    2b9c:	fcf41e23          	sh	a5,-36(s0)
    2ba0:	87ba                	mv	a5,a4
    2ba2:	fcf40da3          	sb	a5,-37(s0)
C:\Users\16917\Desktop\Dual-core_Communication_Demo\Dual-core_Communication_Demo\MASTER\obj/../Libraries/seekfree_peripheral/SEEKFREE_IPS114_SPI.c:291
    2ba6:	fe0407a3          	sb	zero,-17(s0)
    2baa:	a845                	j	2c5a <ips114_showchar+0xd2>
C:\Users\16917\Desktop\Dual-core_Communication_Demo\Dual-core_Communication_Demo\MASTER\obj/../Libraries/seekfree_peripheral/SEEKFREE_IPS114_SPI.c:293
    2bac:	fef44783          	lbu	a5,-17(s0)
    2bb0:	01079713          	slli	a4,a5,0x10
    2bb4:	8341                	srli	a4,a4,0x10
    2bb6:	fdc45783          	lhu	a5,-36(s0)
    2bba:	97ba                	add	a5,a5,a4
    2bbc:	01079593          	slli	a1,a5,0x10
    2bc0:	81c1                	srli	a1,a1,0x10
    2bc2:	fde45783          	lhu	a5,-34(s0)
    2bc6:	079d                	addi	a5,a5,7
    2bc8:	01079613          	slli	a2,a5,0x10
    2bcc:	8241                	srli	a2,a2,0x10
    2bce:	fef44783          	lbu	a5,-17(s0)
    2bd2:	01079713          	slli	a4,a5,0x10
    2bd6:	8341                	srli	a4,a4,0x10
    2bd8:	fdc45783          	lhu	a5,-36(s0)
    2bdc:	97ba                	add	a5,a5,a4
    2bde:	01079713          	slli	a4,a5,0x10
    2be2:	8341                	srli	a4,a4,0x10
    2be4:	fde45783          	lhu	a5,-34(s0)
    2be8:	86ba                	mv	a3,a4
    2bea:	853e                	mv	a0,a5
    2bec:	3d65                	jal	2aa4 <ips114_set_region>
C:\Users\16917\Desktop\Dual-core_Communication_Demo\Dual-core_Communication_Demo\MASTER\obj/../Libraries/seekfree_peripheral/SEEKFREE_IPS114_SPI.c:294
    2bee:	fdb40783          	lb	a5,-37(s0)
    2bf2:	fe078693          	addi	a3,a5,-32
    2bf6:	fef44783          	lbu	a5,-17(s0)
    2bfa:	6719                	lui	a4,0x6
    2bfc:	0692                	slli	a3,a3,0x4
    2bfe:	54c70713          	addi	a4,a4,1356 # 654c <tft_ascii>
    2c02:	9736                	add	a4,a4,a3
    2c04:	97ba                	add	a5,a5,a4
    2c06:	0007c783          	lbu	a5,0(a5)
    2c0a:	fef406a3          	sb	a5,-19(s0)
C:\Users\16917\Desktop\Dual-core_Communication_Demo\Dual-core_Communication_Demo\MASTER\obj/../Libraries/seekfree_peripheral/SEEKFREE_IPS114_SPI.c:295
    2c0e:	fe040723          	sb	zero,-18(s0)
    2c12:	a815                	j	2c46 <ips114_showchar+0xbe>
C:\Users\16917\Desktop\Dual-core_Communication_Demo\Dual-core_Communication_Demo\MASTER\obj/../Libraries/seekfree_peripheral/SEEKFREE_IPS114_SPI.c:297
    2c14:	fed44783          	lbu	a5,-19(s0)
    2c18:	8b85                	andi	a5,a5,1
    2c1a:	c799                	beqz	a5,2c28 <ips114_showchar+0xa0>
C:\Users\16917\Desktop\Dual-core_Communication_Demo\Dual-core_Communication_Demo\MASTER\obj/../Libraries/seekfree_peripheral/SEEKFREE_IPS114_SPI.c:299
    2c1c:	67c1                	lui	a5,0x10
    2c1e:	80078513          	addi	a0,a5,-2048 # f800 <_data_lma+0x8a68>
    2c22:	bb3ff0ef          	jal	ra,27d4 <ips114_writedata_16bit>
    2c26:	a031                	j	2c32 <ips114_showchar+0xaa>
C:\Users\16917\Desktop\Dual-core_Communication_Demo\Dual-core_Communication_Demo\MASTER\obj/../Libraries/seekfree_peripheral/SEEKFREE_IPS114_SPI.c:301
    2c28:	67c1                	lui	a5,0x10
    2c2a:	fff78513          	addi	a0,a5,-1 # ffff <_data_lma+0x9267>
    2c2e:	ba7ff0ef          	jal	ra,27d4 <ips114_writedata_16bit>
C:\Users\16917\Desktop\Dual-core_Communication_Demo\Dual-core_Communication_Demo\MASTER\obj/../Libraries/seekfree_peripheral/SEEKFREE_IPS114_SPI.c:302 (discriminator 2)
    2c32:	fed44783          	lbu	a5,-19(s0)
    2c36:	8385                	srli	a5,a5,0x1
    2c38:	fef406a3          	sb	a5,-19(s0)
C:\Users\16917\Desktop\Dual-core_Communication_Demo\Dual-core_Communication_Demo\MASTER\obj/../Libraries/seekfree_peripheral/SEEKFREE_IPS114_SPI.c:295 (discriminator 2)
    2c3c:	fee44783          	lbu	a5,-18(s0)
    2c40:	0785                	addi	a5,a5,1
    2c42:	fef40723          	sb	a5,-18(s0)
C:\Users\16917\Desktop\Dual-core_Communication_Demo\Dual-core_Communication_Demo\MASTER\obj/../Libraries/seekfree_peripheral/SEEKFREE_IPS114_SPI.c:295 (discriminator 1)
    2c46:	fee44703          	lbu	a4,-18(s0)
    2c4a:	479d                	li	a5,7
    2c4c:	fce7f4e3          	bgeu	a5,a4,2c14 <ips114_showchar+0x8c>
C:\Users\16917\Desktop\Dual-core_Communication_Demo\Dual-core_Communication_Demo\MASTER\obj/../Libraries/seekfree_peripheral/SEEKFREE_IPS114_SPI.c:291 (discriminator 2)
    2c50:	fef44783          	lbu	a5,-17(s0)
    2c54:	0785                	addi	a5,a5,1
    2c56:	fef407a3          	sb	a5,-17(s0)
C:\Users\16917\Desktop\Dual-core_Communication_Demo\Dual-core_Communication_Demo\MASTER\obj/../Libraries/seekfree_peripheral/SEEKFREE_IPS114_SPI.c:291 (discriminator 1)
    2c5a:	fef44703          	lbu	a4,-17(s0)
    2c5e:	47bd                	li	a5,15
    2c60:	f4e7f6e3          	bgeu	a5,a4,2bac <ips114_showchar+0x24>
C:\Users\16917\Desktop\Dual-core_Communication_Demo\Dual-core_Communication_Demo\MASTER\obj/../Libraries/seekfree_peripheral/SEEKFREE_IPS114_SPI.c:305
    2c64:	0001                	nop
    2c66:	50b2                	lw	ra,44(sp)
    2c68:	5422                	lw	s0,40(sp)
    2c6a:	6145                	addi	sp,sp,48
    2c6c:	8082                	ret

00002c6e <ips114_showint16>:
ips114_showint16():
C:\Users\16917\Desktop\Dual-core_Communication_Demo\Dual-core_Communication_Demo\MASTER\obj/../Libraries/seekfree_peripheral/SEEKFREE_IPS114_SPI.c:395
    2c6e:	7179                	addi	sp,sp,-48
    2c70:	d606                	sw	ra,44(sp)
    2c72:	d422                	sw	s0,40(sp)
    2c74:	1800                	addi	s0,sp,48
    2c76:	87aa                	mv	a5,a0
    2c78:	86ae                	mv	a3,a1
    2c7a:	8732                	mv	a4,a2
    2c7c:	fcf41f23          	sh	a5,-34(s0)
    2c80:	87b6                	mv	a5,a3
    2c82:	fcf41e23          	sh	a5,-36(s0)
    2c86:	87ba                	mv	a5,a4
    2c88:	fcf41d23          	sh	a5,-38(s0)
C:\Users\16917\Desktop\Dual-core_Communication_Demo\Dual-core_Communication_Demo\MASTER\obj/../Libraries/seekfree_peripheral/SEEKFREE_IPS114_SPI.c:398
    2c8c:	fda41783          	lh	a5,-38(s0)
    2c90:	0207d863          	bgez	a5,2cc0 <ips114_showint16+0x52>
C:\Users\16917\Desktop\Dual-core_Communication_Demo\Dual-core_Communication_Demo\MASTER\obj/../Libraries/seekfree_peripheral/SEEKFREE_IPS114_SPI.c:400
    2c94:	fdc45783          	lhu	a5,-36(s0)
    2c98:	0792                	slli	a5,a5,0x4
    2c9a:	01079713          	slli	a4,a5,0x10
    2c9e:	8341                	srli	a4,a4,0x10
    2ca0:	fde45783          	lhu	a5,-34(s0)
    2ca4:	02d00613          	li	a2,45
    2ca8:	85ba                	mv	a1,a4
    2caa:	853e                	mv	a0,a5
    2cac:	3df1                	jal	2b88 <ips114_showchar>
C:\Users\16917\Desktop\Dual-core_Communication_Demo\Dual-core_Communication_Demo\MASTER\obj/../Libraries/seekfree_peripheral/SEEKFREE_IPS114_SPI.c:401
    2cae:	fda45783          	lhu	a5,-38(s0)
    2cb2:	40f007b3          	neg	a5,a5
    2cb6:	07c2                	slli	a5,a5,0x10
    2cb8:	83c1                	srli	a5,a5,0x10
    2cba:	fcf41d23          	sh	a5,-38(s0)
    2cbe:	a831                	j	2cda <ips114_showint16+0x6c>
C:\Users\16917\Desktop\Dual-core_Communication_Demo\Dual-core_Communication_Demo\MASTER\obj/../Libraries/seekfree_peripheral/SEEKFREE_IPS114_SPI.c:403
    2cc0:	fdc45783          	lhu	a5,-36(s0)
    2cc4:	0792                	slli	a5,a5,0x4
    2cc6:	01079713          	slli	a4,a5,0x10
    2cca:	8341                	srli	a4,a4,0x10
    2ccc:	fde45783          	lhu	a5,-34(s0)
    2cd0:	02000613          	li	a2,32
    2cd4:	85ba                	mv	a1,a4
    2cd6:	853e                	mv	a0,a5
    2cd8:	3d45                	jal	2b88 <ips114_showchar>
C:\Users\16917\Desktop\Dual-core_Communication_Demo\Dual-core_Communication_Demo\MASTER\obj/../Libraries/seekfree_peripheral/SEEKFREE_IPS114_SPI.c:405
    2cda:	fda41703          	lh	a4,-38(s0)
    2cde:	6789                	lui	a5,0x2
    2ce0:	71078793          	addi	a5,a5,1808 # 2710 <USART_ClearITPendingBit+0x2e>
    2ce4:	02f747b3          	div	a5,a4,a5
    2ce8:	07c2                	slli	a5,a5,0x10
    2cea:	87c1                	srai	a5,a5,0x10
    2cec:	0ff7f793          	andi	a5,a5,255
    2cf0:	fef40423          	sb	a5,-24(s0)
C:\Users\16917\Desktop\Dual-core_Communication_Demo\Dual-core_Communication_Demo\MASTER\obj/../Libraries/seekfree_peripheral/SEEKFREE_IPS114_SPI.c:406
    2cf4:	fda41703          	lh	a4,-38(s0)
    2cf8:	3e800793          	li	a5,1000
    2cfc:	02f747b3          	div	a5,a4,a5
    2d00:	01079713          	slli	a4,a5,0x10
    2d04:	8741                	srai	a4,a4,0x10
    2d06:	47a9                	li	a5,10
    2d08:	02f767b3          	rem	a5,a4,a5
    2d0c:	07c2                	slli	a5,a5,0x10
    2d0e:	87c1                	srai	a5,a5,0x10
    2d10:	0ff7f793          	andi	a5,a5,255
    2d14:	fef404a3          	sb	a5,-23(s0)
C:\Users\16917\Desktop\Dual-core_Communication_Demo\Dual-core_Communication_Demo\MASTER\obj/../Libraries/seekfree_peripheral/SEEKFREE_IPS114_SPI.c:407
    2d18:	fda41703          	lh	a4,-38(s0)
    2d1c:	06400793          	li	a5,100
    2d20:	02f747b3          	div	a5,a4,a5
    2d24:	01079713          	slli	a4,a5,0x10
    2d28:	8741                	srai	a4,a4,0x10
    2d2a:	47a9                	li	a5,10
    2d2c:	02f767b3          	rem	a5,a4,a5
    2d30:	07c2                	slli	a5,a5,0x10
    2d32:	87c1                	srai	a5,a5,0x10
    2d34:	0ff7f793          	andi	a5,a5,255
    2d38:	fef40523          	sb	a5,-22(s0)
C:\Users\16917\Desktop\Dual-core_Communication_Demo\Dual-core_Communication_Demo\MASTER\obj/../Libraries/seekfree_peripheral/SEEKFREE_IPS114_SPI.c:408
    2d3c:	fda41703          	lh	a4,-38(s0)
    2d40:	47a9                	li	a5,10
    2d42:	02f747b3          	div	a5,a4,a5
    2d46:	01079713          	slli	a4,a5,0x10
    2d4a:	8741                	srai	a4,a4,0x10
    2d4c:	47a9                	li	a5,10
    2d4e:	02f767b3          	rem	a5,a4,a5
    2d52:	07c2                	slli	a5,a5,0x10
    2d54:	87c1                	srai	a5,a5,0x10
    2d56:	0ff7f793          	andi	a5,a5,255
    2d5a:	fef405a3          	sb	a5,-21(s0)
C:\Users\16917\Desktop\Dual-core_Communication_Demo\Dual-core_Communication_Demo\MASTER\obj/../Libraries/seekfree_peripheral/SEEKFREE_IPS114_SPI.c:409
    2d5e:	fda41703          	lh	a4,-38(s0)
    2d62:	47a9                	li	a5,10
    2d64:	02f767b3          	rem	a5,a4,a5
    2d68:	07c2                	slli	a5,a5,0x10
    2d6a:	87c1                	srai	a5,a5,0x10
    2d6c:	0ff7f793          	andi	a5,a5,255
    2d70:	fef40623          	sb	a5,-20(s0)
C:\Users\16917\Desktop\Dual-core_Communication_Demo\Dual-core_Communication_Demo\MASTER\obj/../Libraries/seekfree_peripheral/SEEKFREE_IPS114_SPI.c:411
    2d74:	fe0407a3          	sb	zero,-17(s0)
C:\Users\16917\Desktop\Dual-core_Communication_Demo\Dual-core_Communication_Demo\MASTER\obj/../Libraries/seekfree_peripheral/SEEKFREE_IPS114_SPI.c:412
    2d78:	a8a1                	j	2dd0 <ips114_showint16+0x162>
C:\Users\16917\Desktop\Dual-core_Communication_Demo\Dual-core_Communication_Demo\MASTER\obj/../Libraries/seekfree_peripheral/SEEKFREE_IPS114_SPI.c:414
    2d7a:	fef44783          	lbu	a5,-17(s0)
    2d7e:	0785                	addi	a5,a5,1
    2d80:	07c2                	slli	a5,a5,0x10
    2d82:	83c1                	srli	a5,a5,0x10
    2d84:	078e                	slli	a5,a5,0x3
    2d86:	01079713          	slli	a4,a5,0x10
    2d8a:	8341                	srli	a4,a4,0x10
    2d8c:	fde45783          	lhu	a5,-34(s0)
    2d90:	97ba                	add	a5,a5,a4
    2d92:	01079713          	slli	a4,a5,0x10
    2d96:	8341                	srli	a4,a4,0x10
    2d98:	fdc45783          	lhu	a5,-36(s0)
    2d9c:	0792                	slli	a5,a5,0x4
    2d9e:	01079693          	slli	a3,a5,0x10
    2da2:	82c1                	srli	a3,a3,0x10
    2da4:	fef44783          	lbu	a5,-17(s0)
    2da8:	ff040613          	addi	a2,s0,-16
    2dac:	97b2                	add	a5,a5,a2
    2dae:	ff87c783          	lbu	a5,-8(a5)
    2db2:	03078793          	addi	a5,a5,48
    2db6:	0ff7f793          	andi	a5,a5,255
    2dba:	07e2                	slli	a5,a5,0x18
    2dbc:	87e1                	srai	a5,a5,0x18
    2dbe:	863e                	mv	a2,a5
    2dc0:	85b6                	mv	a1,a3
    2dc2:	853a                	mv	a0,a4
    2dc4:	33d1                	jal	2b88 <ips114_showchar>
C:\Users\16917\Desktop\Dual-core_Communication_Demo\Dual-core_Communication_Demo\MASTER\obj/../Libraries/seekfree_peripheral/SEEKFREE_IPS114_SPI.c:415
    2dc6:	fef44783          	lbu	a5,-17(s0)
    2dca:	0785                	addi	a5,a5,1
    2dcc:	fef407a3          	sb	a5,-17(s0)
C:\Users\16917\Desktop\Dual-core_Communication_Demo\Dual-core_Communication_Demo\MASTER\obj/../Libraries/seekfree_peripheral/SEEKFREE_IPS114_SPI.c:412
    2dd0:	fef44703          	lbu	a4,-17(s0)
    2dd4:	4791                	li	a5,4
    2dd6:	fae7f2e3          	bgeu	a5,a4,2d7a <ips114_showint16+0x10c>
C:\Users\16917\Desktop\Dual-core_Communication_Demo\Dual-core_Communication_Demo\MASTER\obj/../Libraries/seekfree_peripheral/SEEKFREE_IPS114_SPI.c:417
    2dda:	0001                	nop
    2ddc:	50b2                	lw	ra,44(sp)
    2dde:	5422                	lw	s0,40(sp)
    2de0:	6145                	addi	sp,sp,48
    2de2:	8082                	ret

00002de4 <mt9v03x_uart_callback>:
mt9v03x_uart_callback():
C:\Users\16917\Desktop\Dual-core_Communication_Demo\Dual-core_Communication_Demo\MASTER\obj/../Libraries/seekfree_peripheral/SEEKFREE_MT9V03X.c:90
    2de4:	1141                	addi	sp,sp,-16
    2de6:	c622                	sw	s0,12(sp)
    2de8:	0800                	addi	s0,sp,16
C:\Users\16917\Desktop\Dual-core_Communication_Demo\Dual-core_Communication_Demo\MASTER\obj/../Libraries/seekfree_peripheral/SEEKFREE_MT9V03X.c:91
    2dea:	679d                	lui	a5,0x7
    2dec:	b6c78793          	addi	a5,a5,-1172 # 6b6c <UARTN>
    2df0:	43dc                	lw	a5,4(a5)
    2df2:	0047d783          	lhu	a5,4(a5)
    2df6:	01079713          	slli	a4,a5,0x10
    2dfa:	8341                	srli	a4,a4,0x10
    2dfc:	82b1c783          	lbu	a5,-2005(gp) # 2000009b <receive_num>
    2e00:	86be                	mv	a3,a5
    2e02:	0ff77713          	andi	a4,a4,255
    2e06:	82818793          	addi	a5,gp,-2008 # 20000098 <receive>
    2e0a:	97b6                	add	a5,a5,a3
    2e0c:	00e78023          	sb	a4,0(a5)
C:\Users\16917\Desktop\Dual-core_Communication_Demo\Dual-core_Communication_Demo\MASTER\obj/../Libraries/seekfree_peripheral/SEEKFREE_MT9V03X.c:92
    2e10:	82b1c783          	lbu	a5,-2005(gp) # 2000009b <receive_num>
    2e14:	0785                	addi	a5,a5,1
    2e16:	0ff7f713          	andi	a4,a5,255
    2e1a:	82e185a3          	sb	a4,-2005(gp) # 2000009b <receive_num>
C:\Users\16917\Desktop\Dual-core_Communication_Demo\Dual-core_Communication_Demo\MASTER\obj/../Libraries/seekfree_peripheral/SEEKFREE_MT9V03X.c:94
    2e1e:	82b1c703          	lbu	a4,-2005(gp) # 2000009b <receive_num>
    2e22:	4785                	li	a5,1
    2e24:	00f71a63          	bne	a4,a5,2e38 <mt9v03x_uart_callback+0x54>
C:\Users\16917\Desktop\Dual-core_Communication_Demo\Dual-core_Communication_Demo\MASTER\obj/../Libraries/seekfree_peripheral/SEEKFREE_MT9V03X.c:94 (discriminator 1)
    2e28:	8281c703          	lbu	a4,-2008(gp) # 20000098 <receive>
    2e2c:	0a500793          	li	a5,165
    2e30:	00f70463          	beq	a4,a5,2e38 <mt9v03x_uart_callback+0x54>
C:\Users\16917\Desktop\Dual-core_Communication_Demo\Dual-core_Communication_Demo\MASTER\obj/../Libraries/seekfree_peripheral/SEEKFREE_MT9V03X.c:94 (discriminator 2)
    2e34:	820185a3          	sb	zero,-2005(gp) # 2000009b <receive_num>
C:\Users\16917\Desktop\Dual-core_Communication_Demo\Dual-core_Communication_Demo\MASTER\obj/../Libraries/seekfree_peripheral/SEEKFREE_MT9V03X.c:95
    2e38:	82b1c703          	lbu	a4,-2005(gp) # 2000009b <receive_num>
    2e3c:	478d                	li	a5,3
    2e3e:	00f71763          	bne	a4,a5,2e4c <mt9v03x_uart_callback+0x68>
C:\Users\16917\Desktop\Dual-core_Communication_Demo\Dual-core_Communication_Demo\MASTER\obj/../Libraries/seekfree_peripheral/SEEKFREE_MT9V03X.c:97
    2e42:	820185a3          	sb	zero,-2005(gp) # 2000009b <receive_num>
C:\Users\16917\Desktop\Dual-core_Communication_Demo\Dual-core_Communication_Demo\MASTER\obj/../Libraries/seekfree_peripheral/SEEKFREE_MT9V03X.c:98
    2e46:	4705                	li	a4,1
    2e48:	82e18623          	sb	a4,-2004(gp) # 2000009c <uart_receive_flag>
C:\Users\16917\Desktop\Dual-core_Communication_Demo\Dual-core_Communication_Demo\MASTER\obj/../Libraries/seekfree_peripheral/SEEKFREE_MT9V03X.c:101
    2e4c:	0001                	nop
    2e4e:	4432                	lw	s0,12(sp)
    2e50:	0141                	addi	sp,sp,16
    2e52:	8082                	ret

00002e54 <mt9v03x_vsync>:
mt9v03x_vsync():
C:\Users\16917\Desktop\Dual-core_Communication_Demo\Dual-core_Communication_Demo\MASTER\obj/../Libraries/seekfree_peripheral/SEEKFREE_MT9V03X.c:376
    2e54:	1141                	addi	sp,sp,-16
    2e56:	c622                	sw	s0,12(sp)
    2e58:	0800                	addi	s0,sp,16
C:\Users\16917\Desktop\Dual-core_Communication_Demo\Dual-core_Communication_Demo\MASTER\obj/../Libraries/seekfree_peripheral/SEEKFREE_MT9V03X.c:377
    2e5a:	400207b7          	lui	a5,0x40020
    2e5e:	04478793          	addi	a5,a5,68 # 40020044 <_eusrstack+0x2001b044>
    2e62:	6709                	lui	a4,0x2
    2e64:	4b870713          	addi	a4,a4,1208 # 24b8 <USART_ITConfig+0x36>
    2e68:	c3d8                	sw	a4,4(a5)
C:\Users\16917\Desktop\Dual-core_Communication_Demo\Dual-core_Communication_Demo\MASTER\obj/../Libraries/seekfree_peripheral/SEEKFREE_MT9V03X.c:378
    2e6a:	400207b7          	lui	a5,0x40020
    2e6e:	04478793          	addi	a5,a5,68 # 40020044 <_eusrstack+0x2001b044>
    2e72:	4398                	lw	a4,0(a5)
    2e74:	400207b7          	lui	a5,0x40020
    2e78:	04478793          	addi	a5,a5,68 # 40020044 <_eusrstack+0x2001b044>
    2e7c:	00176713          	ori	a4,a4,1
    2e80:	c398                	sw	a4,0(a5)
C:\Users\16917\Desktop\Dual-core_Communication_Demo\Dual-core_Communication_Demo\MASTER\obj/../Libraries/seekfree_peripheral/SEEKFREE_MT9V03X.c:379
    2e82:	0001                	nop
    2e84:	4432                	lw	s0,12(sp)
    2e86:	0141                	addi	sp,sp,16
    2e88:	8082                	ret

00002e8a <mt9v03x_dma>:
mt9v03x_dma():
C:\Users\16917\Desktop\Dual-core_Communication_Demo\Dual-core_Communication_Demo\MASTER\obj/../Libraries/seekfree_peripheral/SEEKFREE_MT9V03X.c:389
    2e8a:	1141                	addi	sp,sp,-16
    2e8c:	c622                	sw	s0,12(sp)
    2e8e:	0800                	addi	s0,sp,16
C:\Users\16917\Desktop\Dual-core_Communication_Demo\Dual-core_Communication_Demo\MASTER\obj/../Libraries/seekfree_peripheral/SEEKFREE_MT9V03X.c:390
    2e90:	4705                	li	a4,1
    2e92:	82e186a3          	sb	a4,-2003(gp) # 2000009d <mt9v03x_finish_flag>
C:\Users\16917\Desktop\Dual-core_Communication_Demo\Dual-core_Communication_Demo\MASTER\obj/../Libraries/seekfree_peripheral/SEEKFREE_MT9V03X.c:391
    2e96:	400207b7          	lui	a5,0x40020
    2e9a:	04478793          	addi	a5,a5,68 # 40020044 <_eusrstack+0x2001b044>
    2e9e:	4394                	lw	a3,0(a5)
    2ea0:	400207b7          	lui	a5,0x40020
    2ea4:	04478793          	addi	a5,a5,68 # 40020044 <_eusrstack+0x2001b044>
    2ea8:	6741                	lui	a4,0x10
    2eaa:	1779                	addi	a4,a4,-2
    2eac:	8f75                	and	a4,a4,a3
    2eae:	c398                	sw	a4,0(a5)
C:\Users\16917\Desktop\Dual-core_Communication_Demo\Dual-core_Communication_Demo\MASTER\obj/../Libraries/seekfree_peripheral/SEEKFREE_MT9V03X.c:392
    2eb0:	0001                	nop
    2eb2:	4432                	lw	s0,12(sp)
    2eb4:	0141                	addi	sp,sp,16
    2eb6:	8082                	ret

00002eb8 <ov7725_cof_uart_interrupt>:
ov7725_cof_uart_interrupt():
C:\Users\16917\Desktop\Dual-core_Communication_Demo\Dual-core_Communication_Demo\MASTER\obj/../Libraries/seekfree_peripheral/SEEKFREE_UART_7725.c:81
    2eb8:	1141                	addi	sp,sp,-16
    2eba:	c622                	sw	s0,12(sp)
    2ebc:	0800                	addi	s0,sp,16
C:\Users\16917\Desktop\Dual-core_Communication_Demo\Dual-core_Communication_Demo\MASTER\obj/../Libraries/seekfree_peripheral/SEEKFREE_UART_7725.c:83
    2ebe:	679d                	lui	a5,0x7
    2ec0:	b6c78793          	addi	a5,a5,-1172 # 6b6c <UARTN>
    2ec4:	43dc                	lw	a5,4(a5)
    2ec6:	0047d783          	lhu	a5,4(a5)
    2eca:	01079713          	slli	a4,a5,0x10
    2ece:	8341                	srli	a4,a4,0x10
    2ed0:	8331c783          	lbu	a5,-1997(gp) # 200000a3 <ov7725_uart_receive_num>
    2ed4:	86be                	mv	a3,a5
    2ed6:	0ff77713          	andi	a4,a4,255
    2eda:	83018793          	addi	a5,gp,-2000 # 200000a0 <ov7725_uart_receive>
    2ede:	97b6                	add	a5,a5,a3
    2ee0:	00e78023          	sb	a4,0(a5)
C:\Users\16917\Desktop\Dual-core_Communication_Demo\Dual-core_Communication_Demo\MASTER\obj/../Libraries/seekfree_peripheral/SEEKFREE_UART_7725.c:84
    2ee4:	8331c783          	lbu	a5,-1997(gp) # 200000a3 <ov7725_uart_receive_num>
    2ee8:	0785                	addi	a5,a5,1
    2eea:	0ff7f713          	andi	a4,a5,255
    2eee:	82e189a3          	sb	a4,-1997(gp) # 200000a3 <ov7725_uart_receive_num>
C:\Users\16917\Desktop\Dual-core_Communication_Demo\Dual-core_Communication_Demo\MASTER\obj/../Libraries/seekfree_peripheral/SEEKFREE_UART_7725.c:86
    2ef2:	8331c703          	lbu	a4,-1997(gp) # 200000a3 <ov7725_uart_receive_num>
    2ef6:	4785                	li	a5,1
    2ef8:	00f71a63          	bne	a4,a5,2f0c <ov7725_cof_uart_interrupt+0x54>
C:\Users\16917\Desktop\Dual-core_Communication_Demo\Dual-core_Communication_Demo\MASTER\obj/../Libraries/seekfree_peripheral/SEEKFREE_UART_7725.c:86 (discriminator 1)
    2efc:	8301c703          	lbu	a4,-2000(gp) # 200000a0 <ov7725_uart_receive>
    2f00:	0a500793          	li	a5,165
    2f04:	00f70463          	beq	a4,a5,2f0c <ov7725_cof_uart_interrupt+0x54>
C:\Users\16917\Desktop\Dual-core_Communication_Demo\Dual-core_Communication_Demo\MASTER\obj/../Libraries/seekfree_peripheral/SEEKFREE_UART_7725.c:86 (discriminator 2)
    2f08:	820189a3          	sb	zero,-1997(gp) # 200000a3 <ov7725_uart_receive_num>
C:\Users\16917\Desktop\Dual-core_Communication_Demo\Dual-core_Communication_Demo\MASTER\obj/../Libraries/seekfree_peripheral/SEEKFREE_UART_7725.c:87
    2f0c:	8331c703          	lbu	a4,-1997(gp) # 200000a3 <ov7725_uart_receive_num>
    2f10:	478d                	li	a5,3
    2f12:	00f71763          	bne	a4,a5,2f20 <ov7725_cof_uart_interrupt+0x68>
C:\Users\16917\Desktop\Dual-core_Communication_Demo\Dual-core_Communication_Demo\MASTER\obj/../Libraries/seekfree_peripheral/SEEKFREE_UART_7725.c:89
    2f16:	820189a3          	sb	zero,-1997(gp) # 200000a3 <ov7725_uart_receive_num>
C:\Users\16917\Desktop\Dual-core_Communication_Demo\Dual-core_Communication_Demo\MASTER\obj/../Libraries/seekfree_peripheral/SEEKFREE_UART_7725.c:90
    2f1a:	4705                	li	a4,1
    2f1c:	82e18a23          	sb	a4,-1996(gp) # 200000a4 <ov7725_uart_receive_flag>
C:\Users\16917\Desktop\Dual-core_Communication_Demo\Dual-core_Communication_Demo\MASTER\obj/../Libraries/seekfree_peripheral/SEEKFREE_UART_7725.c:92
    2f20:	0001                	nop
    2f22:	4432                	lw	s0,12(sp)
    2f24:	0141                	addi	sp,sp,16
    2f26:	8082                	ret

00002f28 <ov7725_uart_vsync>:
ov7725_uart_vsync():
C:\Users\16917\Desktop\Dual-core_Communication_Demo\Dual-core_Communication_Demo\MASTER\obj/../Libraries/seekfree_peripheral/SEEKFREE_UART_7725.c:103
    2f28:	1141                	addi	sp,sp,-16
    2f2a:	c622                	sw	s0,12(sp)
    2f2c:	0800                	addi	s0,sp,16
C:\Users\16917\Desktop\Dual-core_Communication_Demo\Dual-core_Communication_Demo\MASTER\obj/../Libraries/seekfree_peripheral/SEEKFREE_UART_7725.c:104
    2f2e:	400207b7          	lui	a5,0x40020
    2f32:	04478793          	addi	a5,a5,68 # 40020044 <_eusrstack+0x2001b044>
    2f36:	6705                	lui	a4,0x1
    2f38:	96070713          	addi	a4,a4,-1696 # 960 <handle_reset+0x4>
    2f3c:	c3d8                	sw	a4,4(a5)
C:\Users\16917\Desktop\Dual-core_Communication_Demo\Dual-core_Communication_Demo\MASTER\obj/../Libraries/seekfree_peripheral/SEEKFREE_UART_7725.c:105
    2f3e:	400207b7          	lui	a5,0x40020
    2f42:	04478793          	addi	a5,a5,68 # 40020044 <_eusrstack+0x2001b044>
    2f46:	4398                	lw	a4,0(a5)
    2f48:	400207b7          	lui	a5,0x40020
    2f4c:	04478793          	addi	a5,a5,68 # 40020044 <_eusrstack+0x2001b044>
    2f50:	00176713          	ori	a4,a4,1
    2f54:	c398                	sw	a4,0(a5)
C:\Users\16917\Desktop\Dual-core_Communication_Demo\Dual-core_Communication_Demo\MASTER\obj/../Libraries/seekfree_peripheral/SEEKFREE_UART_7725.c:106
    2f56:	0001                	nop
    2f58:	4432                	lw	s0,12(sp)
    2f5a:	0141                	addi	sp,sp,16
    2f5c:	8082                	ret

00002f5e <ov7725_uart_dma>:
ov7725_uart_dma():
C:\Users\16917\Desktop\Dual-core_Communication_Demo\Dual-core_Communication_Demo\MASTER\obj/../Libraries/seekfree_peripheral/SEEKFREE_UART_7725.c:117
    2f5e:	1141                	addi	sp,sp,-16
    2f60:	c622                	sw	s0,12(sp)
    2f62:	0800                	addi	s0,sp,16
C:\Users\16917\Desktop\Dual-core_Communication_Demo\Dual-core_Communication_Demo\MASTER\obj/../Libraries/seekfree_peripheral/SEEKFREE_UART_7725.c:118
    2f64:	4705                	li	a4,1
    2f66:	82e18aa3          	sb	a4,-1995(gp) # 200000a5 <ov7725_uart_finish_flag>
C:\Users\16917\Desktop\Dual-core_Communication_Demo\Dual-core_Communication_Demo\MASTER\obj/../Libraries/seekfree_peripheral/SEEKFREE_UART_7725.c:119
    2f6a:	400207b7          	lui	a5,0x40020
    2f6e:	04478793          	addi	a5,a5,68 # 40020044 <_eusrstack+0x2001b044>
    2f72:	4394                	lw	a3,0(a5)
    2f74:	400207b7          	lui	a5,0x40020
    2f78:	04478793          	addi	a5,a5,68 # 40020044 <_eusrstack+0x2001b044>
    2f7c:	6741                	lui	a4,0x10
    2f7e:	1779                	addi	a4,a4,-2
    2f80:	8f75                	and	a4,a4,a3
    2f82:	c398                	sw	a4,0(a5)
C:\Users\16917\Desktop\Dual-core_Communication_Demo\Dual-core_Communication_Demo\MASTER\obj/../Libraries/seekfree_peripheral/SEEKFREE_UART_7725.c:120
    2f84:	0001                	nop
    2f86:	4432                	lw	s0,12(sp)
    2f88:	0141                	addi	sp,sp,16
    2f8a:	8082                	ret

00002f8c <gpio_init>:
gpio_init():
C:\Users\16917\Desktop\Dual-core_Communication_Demo\Dual-core_Communication_Demo\MASTER\obj/../Libraries/seekfree_libraries/zf_gpio.c:40
    2f8c:	7179                	addi	sp,sp,-48
    2f8e:	d606                	sw	ra,44(sp)
    2f90:	d422                	sw	s0,40(sp)
    2f92:	1800                	addi	s0,sp,48
    2f94:	fca42e23          	sw	a0,-36(s0)
    2f98:	fcb42c23          	sw	a1,-40(s0)
    2f9c:	87b2                	mv	a5,a2
    2f9e:	fcd42823          	sw	a3,-48(s0)
    2fa2:	fcf40ba3          	sb	a5,-41(s0)
C:\Users\16917\Desktop\Dual-core_Communication_Demo\Dual-core_Communication_Demo\MASTER\obj/../Libraries/seekfree_libraries/zf_gpio.c:42
    2fa6:	fdc42783          	lw	a5,-36(s0)
    2faa:	8395                	srli	a5,a5,0x5
    2fac:	0ff7f793          	andi	a5,a5,255
    2fb0:	8b9d                	andi	a5,a5,7
    2fb2:	fef407a3          	sb	a5,-17(s0)
C:\Users\16917\Desktop\Dual-core_Communication_Demo\Dual-core_Communication_Demo\MASTER\obj/../Libraries/seekfree_libraries/zf_gpio.c:43
    2fb6:	fdc42783          	lw	a5,-36(s0)
    2fba:	0ff7f793          	andi	a5,a5,255
    2fbe:	8bfd                	andi	a5,a5,31
    2fc0:	fef40723          	sb	a5,-18(s0)
C:\Users\16917\Desktop\Dual-core_Communication_Demo\Dual-core_Communication_Demo\MASTER\obj/../Libraries/seekfree_libraries/zf_gpio.c:46
    2fc4:	fdc42703          	lw	a4,-36(s0)
    2fc8:	08000793          	li	a5,128
    2fcc:	14f70d63          	beq	a4,a5,3126 <gpio_init+0x19a>
C:\Users\16917\Desktop\Dual-core_Communication_Demo\Dual-core_Communication_Demo\MASTER\obj/../Libraries/seekfree_libraries/zf_gpio.c:48
    2fd0:	fdc42783          	lw	a5,-36(s0)
    2fd4:	8395                	srli	a5,a5,0x5
    2fd6:	e791                	bnez	a5,2fe2 <gpio_init+0x56>
C:\Users\16917\Desktop\Dual-core_Communication_Demo\Dual-core_Communication_Demo\MASTER\obj/../Libraries/seekfree_libraries/zf_gpio.c:48 (discriminator 1)
    2fd8:	4585                	li	a1,1
    2fda:	4511                	li	a0,4
    2fdc:	c20fe0ef          	jal	ra,13fc <RCC_APB2PeriphClockCmd>
    2fe0:	a861                	j	3078 <gpio_init+0xec>
C:\Users\16917\Desktop\Dual-core_Communication_Demo\Dual-core_Communication_Demo\MASTER\obj/../Libraries/seekfree_libraries/zf_gpio.c:49
    2fe2:	fdc42783          	lw	a5,-36(s0)
    2fe6:	0057d713          	srli	a4,a5,0x5
    2fea:	4785                	li	a5,1
    2fec:	00f71763          	bne	a4,a5,2ffa <gpio_init+0x6e>
C:\Users\16917\Desktop\Dual-core_Communication_Demo\Dual-core_Communication_Demo\MASTER\obj/../Libraries/seekfree_libraries/zf_gpio.c:49 (discriminator 1)
    2ff0:	4585                	li	a1,1
    2ff2:	4521                	li	a0,8
    2ff4:	c08fe0ef          	jal	ra,13fc <RCC_APB2PeriphClockCmd>
    2ff8:	a041                	j	3078 <gpio_init+0xec>
C:\Users\16917\Desktop\Dual-core_Communication_Demo\Dual-core_Communication_Demo\MASTER\obj/../Libraries/seekfree_libraries/zf_gpio.c:50
    2ffa:	fdc42783          	lw	a5,-36(s0)
    2ffe:	0057d713          	srli	a4,a5,0x5
    3002:	4789                	li	a5,2
    3004:	00f71763          	bne	a4,a5,3012 <gpio_init+0x86>
C:\Users\16917\Desktop\Dual-core_Communication_Demo\Dual-core_Communication_Demo\MASTER\obj/../Libraries/seekfree_libraries/zf_gpio.c:50 (discriminator 1)
    3008:	4585                	li	a1,1
    300a:	4541                	li	a0,16
    300c:	bf0fe0ef          	jal	ra,13fc <RCC_APB2PeriphClockCmd>
    3010:	a0a5                	j	3078 <gpio_init+0xec>
C:\Users\16917\Desktop\Dual-core_Communication_Demo\Dual-core_Communication_Demo\MASTER\obj/../Libraries/seekfree_libraries/zf_gpio.c:51
    3012:	fdc42783          	lw	a5,-36(s0)
    3016:	0057d713          	srli	a4,a5,0x5
    301a:	478d                	li	a5,3
    301c:	00f71863          	bne	a4,a5,302c <gpio_init+0xa0>
C:\Users\16917\Desktop\Dual-core_Communication_Demo\Dual-core_Communication_Demo\MASTER\obj/../Libraries/seekfree_libraries/zf_gpio.c:51 (discriminator 1)
    3020:	4585                	li	a1,1
    3022:	02000513          	li	a0,32
    3026:	bd6fe0ef          	jal	ra,13fc <RCC_APB2PeriphClockCmd>
    302a:	a0b9                	j	3078 <gpio_init+0xec>
C:\Users\16917\Desktop\Dual-core_Communication_Demo\Dual-core_Communication_Demo\MASTER\obj/../Libraries/seekfree_libraries/zf_gpio.c:52
    302c:	fdc42783          	lw	a5,-36(s0)
    3030:	0057d713          	srli	a4,a5,0x5
    3034:	4791                	li	a5,4
    3036:	00f71863          	bne	a4,a5,3046 <gpio_init+0xba>
C:\Users\16917\Desktop\Dual-core_Communication_Demo\Dual-core_Communication_Demo\MASTER\obj/../Libraries/seekfree_libraries/zf_gpio.c:52 (discriminator 1)
    303a:	4585                	li	a1,1
    303c:	04000513          	li	a0,64
    3040:	bbcfe0ef          	jal	ra,13fc <RCC_APB2PeriphClockCmd>
    3044:	a815                	j	3078 <gpio_init+0xec>
C:\Users\16917\Desktop\Dual-core_Communication_Demo\Dual-core_Communication_Demo\MASTER\obj/../Libraries/seekfree_libraries/zf_gpio.c:53
    3046:	fdc42783          	lw	a5,-36(s0)
    304a:	0057d713          	srli	a4,a5,0x5
    304e:	4795                	li	a5,5
    3050:	00f71863          	bne	a4,a5,3060 <gpio_init+0xd4>
C:\Users\16917\Desktop\Dual-core_Communication_Demo\Dual-core_Communication_Demo\MASTER\obj/../Libraries/seekfree_libraries/zf_gpio.c:53 (discriminator 1)
    3054:	4585                	li	a1,1
    3056:	08000513          	li	a0,128
    305a:	ba2fe0ef          	jal	ra,13fc <RCC_APB2PeriphClockCmd>
    305e:	a829                	j	3078 <gpio_init+0xec>
C:\Users\16917\Desktop\Dual-core_Communication_Demo\Dual-core_Communication_Demo\MASTER\obj/../Libraries/seekfree_libraries/zf_gpio.c:54
    3060:	fdc42783          	lw	a5,-36(s0)
    3064:	0057d713          	srli	a4,a5,0x5
    3068:	4799                	li	a5,6
    306a:	00f71763          	bne	a4,a5,3078 <gpio_init+0xec>
C:\Users\16917\Desktop\Dual-core_Communication_Demo\Dual-core_Communication_Demo\MASTER\obj/../Libraries/seekfree_libraries/zf_gpio.c:54 (discriminator 1)
    306e:	4585                	li	a1,1
    3070:	10000513          	li	a0,256
    3074:	b88fe0ef          	jal	ra,13fc <RCC_APB2PeriphClockCmd>
C:\Users\16917\Desktop\Dual-core_Communication_Demo\Dual-core_Communication_Demo\MASTER\obj/../Libraries/seekfree_libraries/zf_gpio.c:58
    3078:	fee44783          	lbu	a5,-18(s0)
    307c:	4705                	li	a4,1
    307e:	00f717b3          	sll	a5,a4,a5
    3082:	07c2                	slli	a5,a5,0x10
    3084:	83c1                	srli	a5,a5,0x10
    3086:	fef41023          	sh	a5,-32(s0)
C:\Users\16917\Desktop\Dual-core_Communication_Demo\Dual-core_Communication_Demo\MASTER\obj/../Libraries/seekfree_libraries/zf_gpio.c:60
    308a:	fd842703          	lw	a4,-40(s0)
    308e:	4785                	li	a5,1
    3090:	02f71763          	bne	a4,a5,30be <gpio_init+0x132>
C:\Users\16917\Desktop\Dual-core_Communication_Demo\Dual-core_Communication_Demo\MASTER\obj/../Libraries/seekfree_libraries/zf_gpio.c:63
    3094:	fd042783          	lw	a5,-48(s0)
    3098:	07c2                	slli	a5,a5,0x10
    309a:	83c1                	srli	a5,a5,0x10
    309c:	83a1                	srli	a5,a5,0x8
    309e:	07c2                	slli	a5,a5,0x10
    30a0:	83c1                	srli	a5,a5,0x10
    30a2:	e789                	bnez	a5,30ac <gpio_init+0x120>
C:\Users\16917\Desktop\Dual-core_Communication_Demo\Dual-core_Communication_Demo\MASTER\obj/../Libraries/seekfree_libraries/zf_gpio.c:63 (discriminator 1)
    30a4:	478d                	li	a5,3
    30a6:	fef42223          	sw	a5,-28(s0)
    30aa:	a811                	j	30be <gpio_init+0x132>
C:\Users\16917\Desktop\Dual-core_Communication_Demo\Dual-core_Communication_Demo\MASTER\obj/../Libraries/seekfree_libraries/zf_gpio.c:64
    30ac:	fd042783          	lw	a5,-48(s0)
    30b0:	07c2                	slli	a5,a5,0x10
    30b2:	83c1                	srli	a5,a5,0x10
    30b4:	83a1                	srli	a5,a5,0x8
    30b6:	07c2                	slli	a5,a5,0x10
    30b8:	83c1                	srli	a5,a5,0x10
    30ba:	fef42223          	sw	a5,-28(s0)
C:\Users\16917\Desktop\Dual-core_Communication_Demo\Dual-core_Communication_Demo\MASTER\obj/../Libraries/seekfree_libraries/zf_gpio.c:68
    30be:	fd042783          	lw	a5,-48(s0)
    30c2:	07c2                	slli	a5,a5,0x10
    30c4:	83c1                	srli	a5,a5,0x10
    30c6:	0ff7f793          	andi	a5,a5,255
    30ca:	fef42423          	sw	a5,-24(s0)
C:\Users\16917\Desktop\Dual-core_Communication_Demo\Dual-core_Communication_Demo\MASTER\obj/../Libraries/seekfree_libraries/zf_gpio.c:69
    30ce:	fef44703          	lbu	a4,-17(s0)
    30d2:	679d                	lui	a5,0x7
    30d4:	070a                	slli	a4,a4,0x2
    30d6:	b3c78793          	addi	a5,a5,-1220 # 6b3c <GPION>
    30da:	97ba                	add	a5,a5,a4
    30dc:	439c                	lw	a5,0(a5)
    30de:	873e                	mv	a4,a5
    30e0:	fe040793          	addi	a5,s0,-32
    30e4:	85be                	mv	a1,a5
    30e6:	853a                	mv	a0,a4
    30e8:	b69fd0ef          	jal	ra,c50 <GPIO_Init>
C:\Users\16917\Desktop\Dual-core_Communication_Demo\Dual-core_Communication_Demo\MASTER\obj/../Libraries/seekfree_libraries/zf_gpio.c:71
    30ec:	fd842703          	lw	a4,-40(s0)
    30f0:	4785                	li	a5,1
    30f2:	02f71b63          	bne	a4,a5,3128 <gpio_init+0x19c>
C:\Users\16917\Desktop\Dual-core_Communication_Demo\Dual-core_Communication_Demo\MASTER\obj/../Libraries/seekfree_libraries/zf_gpio.c:74
    30f6:	fef44703          	lbu	a4,-17(s0)
    30fa:	679d                	lui	a5,0x7
    30fc:	070a                	slli	a4,a4,0x2
    30fe:	b3c78793          	addi	a5,a5,-1220 # 6b3c <GPION>
    3102:	97ba                	add	a5,a5,a4
    3104:	439c                	lw	a5,0(a5)
    3106:	86be                	mv	a3,a5
    3108:	fee44783          	lbu	a5,-18(s0)
    310c:	4705                	li	a4,1
    310e:	00f717b3          	sll	a5,a4,a5
    3112:	07c2                	slli	a5,a5,0x10
    3114:	83c1                	srli	a5,a5,0x10
    3116:	fd744703          	lbu	a4,-41(s0)
    311a:	863a                	mv	a2,a4
    311c:	85be                	mv	a1,a5
    311e:	8536                	mv	a0,a3
    3120:	d5bfd0ef          	jal	ra,e7a <GPIO_WriteBit>
    3124:	a011                	j	3128 <gpio_init+0x19c>
C:\Users\16917\Desktop\Dual-core_Communication_Demo\Dual-core_Communication_Demo\MASTER\obj/../Libraries/seekfree_libraries/zf_gpio.c:46
    3126:	0001                	nop
C:\Users\16917\Desktop\Dual-core_Communication_Demo\Dual-core_Communication_Demo\MASTER\obj/../Libraries/seekfree_libraries/zf_gpio.c:76
    3128:	50b2                	lw	ra,44(sp)
    312a:	5422                	lw	s0,40(sp)
    312c:	6145                	addi	sp,sp,48
    312e:	8082                	ret

00003130 <gpio_interrupt_init>:
gpio_interrupt_init():
C:\Users\16917\Desktop\Dual-core_Communication_Demo\Dual-core_Communication_Demo\MASTER\obj/../Libraries/seekfree_libraries/zf_gpio.c:141
    3130:	7179                	addi	sp,sp,-48
    3132:	d606                	sw	ra,44(sp)
    3134:	d422                	sw	s0,40(sp)
    3136:	1800                	addi	s0,sp,48
    3138:	fca42e23          	sw	a0,-36(s0)
    313c:	fcb42c23          	sw	a1,-40(s0)
    3140:	fcc42a23          	sw	a2,-44(s0)
C:\Users\16917\Desktop\Dual-core_Communication_Demo\Dual-core_Communication_Demo\MASTER\obj/../Libraries/seekfree_libraries/zf_gpio.c:143
    3144:	4585                	li	a1,1
    3146:	4505                	li	a0,1
    3148:	ab4fe0ef          	jal	ra,13fc <RCC_APB2PeriphClockCmd>
C:\Users\16917\Desktop\Dual-core_Communication_Demo\Dual-core_Communication_Demo\MASTER\obj/../Libraries/seekfree_libraries/zf_gpio.c:144
    314c:	fd442683          	lw	a3,-44(s0)
    3150:	4601                	li	a2,0
    3152:	4581                	li	a1,0
    3154:	fdc42503          	lw	a0,-36(s0)
    3158:	3d15                	jal	2f8c <gpio_init>
C:\Users\16917\Desktop\Dual-core_Communication_Demo\Dual-core_Communication_Demo\MASTER\obj/../Libraries/seekfree_libraries/zf_gpio.c:145
    315a:	fdc42783          	lw	a5,-36(s0)
    315e:	8395                	srli	a5,a5,0x5
    3160:	0ff7f713          	andi	a4,a5,255
    3164:	fdc42783          	lw	a5,-36(s0)
    3168:	0ff7f793          	andi	a5,a5,255
    316c:	8bfd                	andi	a5,a5,31
    316e:	0ff7f793          	andi	a5,a5,255
    3172:	85be                	mv	a1,a5
    3174:	853a                	mv	a0,a4
    3176:	e79fd0ef          	jal	ra,fee <GPIO_EXTILineConfig>
C:\Users\16917\Desktop\Dual-core_Communication_Demo\Dual-core_Communication_Demo\MASTER\obj/../Libraries/seekfree_libraries/zf_gpio.c:146
    317a:	fdc42783          	lw	a5,-36(s0)
    317e:	8bfd                	andi	a5,a5,31
    3180:	4705                	li	a4,1
    3182:	00f717b3          	sll	a5,a4,a5
    3186:	fef42023          	sw	a5,-32(s0)
C:\Users\16917\Desktop\Dual-core_Communication_Demo\Dual-core_Communication_Demo\MASTER\obj/../Libraries/seekfree_libraries/zf_gpio.c:147
    318a:	fe042223          	sw	zero,-28(s0)
C:\Users\16917\Desktop\Dual-core_Communication_Demo\Dual-core_Communication_Demo\MASTER\obj/../Libraries/seekfree_libraries/zf_gpio.c:148
    318e:	fd842783          	lw	a5,-40(s0)
    3192:	fef42423          	sw	a5,-24(s0)
C:\Users\16917\Desktop\Dual-core_Communication_Demo\Dual-core_Communication_Demo\MASTER\obj/../Libraries/seekfree_libraries/zf_gpio.c:149
    3196:	4785                	li	a5,1
    3198:	fef42623          	sw	a5,-20(s0)
C:\Users\16917\Desktop\Dual-core_Communication_Demo\Dual-core_Communication_Demo\MASTER\obj/../Libraries/seekfree_libraries/zf_gpio.c:150
    319c:	fe040793          	addi	a5,s0,-32
    31a0:	853e                	mv	a0,a5
    31a2:	8c9fd0ef          	jal	ra,a6a <EXTI_Init>
C:\Users\16917\Desktop\Dual-core_Communication_Demo\Dual-core_Communication_Demo\MASTER\obj/../Libraries/seekfree_libraries/zf_gpio.c:151
    31a6:	0001                	nop
    31a8:	50b2                	lw	ra,44(sp)
    31aa:	5422                	lw	s0,40(sp)
    31ac:	6145                	addi	sp,sp,48
    31ae:	8082                	ret

000031b0 <nvic_init>:
nvic_init():
C:\Users\16917\Desktop\Dual-core_Communication_Demo\Dual-core_Communication_Demo\MASTER\obj/../Libraries/seekfree_libraries/zf_nvic.c:38
    31b0:	7179                	addi	sp,sp,-48
    31b2:	d606                	sw	ra,44(sp)
    31b4:	d422                	sw	s0,40(sp)
    31b6:	1800                	addi	s0,sp,48
    31b8:	fca42e23          	sw	a0,-36(s0)
    31bc:	87ae                	mv	a5,a1
    31be:	8736                	mv	a4,a3
    31c0:	fcf40da3          	sb	a5,-37(s0)
    31c4:	87b2                	mv	a5,a2
    31c6:	fcf40d23          	sb	a5,-38(s0)
    31ca:	87ba                	mv	a5,a4
    31cc:	fcf40ca3          	sb	a5,-39(s0)
C:\Users\16917\Desktop\Dual-core_Communication_Demo\Dual-core_Communication_Demo\MASTER\obj/../Libraries/seekfree_libraries/zf_nvic.c:41
    31d0:	fdc42783          	lw	a5,-36(s0)
    31d4:	0ff7f793          	andi	a5,a5,255
    31d8:	fef40423          	sb	a5,-24(s0)
C:\Users\16917\Desktop\Dual-core_Communication_Demo\Dual-core_Communication_Demo\MASTER\obj/../Libraries/seekfree_libraries/zf_nvic.c:42
    31dc:	fdb44783          	lbu	a5,-37(s0)
    31e0:	fef404a3          	sb	a5,-23(s0)
C:\Users\16917\Desktop\Dual-core_Communication_Demo\Dual-core_Communication_Demo\MASTER\obj/../Libraries/seekfree_libraries/zf_nvic.c:43
    31e4:	fda44783          	lbu	a5,-38(s0)
    31e8:	fef40523          	sb	a5,-22(s0)
C:\Users\16917\Desktop\Dual-core_Communication_Demo\Dual-core_Communication_Demo\MASTER\obj/../Libraries/seekfree_libraries/zf_nvic.c:44
    31ec:	fd944783          	lbu	a5,-39(s0)
    31f0:	fef42623          	sw	a5,-20(s0)
C:\Users\16917\Desktop\Dual-core_Communication_Demo\Dual-core_Communication_Demo\MASTER\obj/../Libraries/seekfree_libraries/zf_nvic.c:45
    31f4:	fe840793          	addi	a5,s0,-24
    31f8:	853e                	mv	a0,a5
    31fa:	f25fd0ef          	jal	ra,111e <NVIC_Init>
C:\Users\16917\Desktop\Dual-core_Communication_Demo\Dual-core_Communication_Demo\MASTER\obj/../Libraries/seekfree_libraries/zf_nvic.c:48
    31fe:	e000e7b7          	lui	a5,0xe000e
    3202:	4398                	lw	a4,0(a5)
    3204:	77fd                	lui	a5,0xfffff
    3206:	8f7d                	and	a4,a4,a5
    3208:	9141a783          	lw	a5,-1772(gp) # 20000184 <irq_status>
    320c:	8f5d                	or	a4,a4,a5
    320e:	90e1aa23          	sw	a4,-1772(gp) # 20000184 <irq_status>
C:\Users\16917\Desktop\Dual-core_Communication_Demo\Dual-core_Communication_Demo\MASTER\obj/../Libraries/seekfree_libraries/zf_nvic.c:49
    3212:	e000e7b7          	lui	a5,0xe000e
    3216:	43d8                	lw	a4,4(a5)
    3218:	100007b7          	lui	a5,0x10000
    321c:	17fd                	addi	a5,a5,-1
    321e:	8f7d                	and	a4,a4,a5
    3220:	91418793          	addi	a5,gp,-1772 # 20000184 <irq_status>
    3224:	43dc                	lw	a5,4(a5)
    3226:	8f5d                	or	a4,a4,a5
    3228:	91418793          	addi	a5,gp,-1772 # 20000184 <irq_status>
    322c:	c3d8                	sw	a4,4(a5)
C:\Users\16917\Desktop\Dual-core_Communication_Demo\Dual-core_Communication_Demo\MASTER\obj/../Libraries/seekfree_libraries/zf_nvic.c:50
    322e:	91418793          	addi	a5,gp,-1772 # 20000184 <irq_status>
    3232:	0087c703          	lbu	a4,8(a5) # 10000008 <_data_lma+0xfff9270>
    3236:	4785                	li	a5,1
    3238:	00f71363          	bne	a4,a5,323e <nvic_init+0x8e>
C:\Users\16917\Desktop\Dual-core_Communication_Demo\Dual-core_Communication_Demo\MASTER\obj/../Libraries/seekfree_libraries/zf_nvic.c:52
    323c:	2031                	jal	3248 <close_all_irq>
C:\Users\16917\Desktop\Dual-core_Communication_Demo\Dual-core_Communication_Demo\MASTER\obj/../Libraries/seekfree_libraries/zf_nvic.c:54
    323e:	0001                	nop
    3240:	50b2                	lw	ra,44(sp)
    3242:	5422                	lw	s0,40(sp)
    3244:	6145                	addi	sp,sp,48
    3246:	8082                	ret

00003248 <close_all_irq>:
close_all_irq():
C:\Users\16917\Desktop\Dual-core_Communication_Demo\Dual-core_Communication_Demo\MASTER\obj/../Libraries/seekfree_libraries/zf_nvic.c:63
    3248:	1141                	addi	sp,sp,-16
    324a:	c622                	sw	s0,12(sp)
    324c:	0800                	addi	s0,sp,16
C:\Users\16917\Desktop\Dual-core_Communication_Demo\Dual-core_Communication_Demo\MASTER\obj/../Libraries/seekfree_libraries/zf_nvic.c:65
    324e:	e000e7b7          	lui	a5,0xe000e
    3252:	577d                	li	a4,-1
    3254:	18e7a023          	sw	a4,384(a5) # e000e180 <_eusrstack+0xc0009180>
C:\Users\16917\Desktop\Dual-core_Communication_Demo\Dual-core_Communication_Demo\MASTER\obj/../Libraries/seekfree_libraries/zf_nvic.c:66
    3258:	e000e7b7          	lui	a5,0xe000e
    325c:	577d                	li	a4,-1
    325e:	18e7a223          	sw	a4,388(a5) # e000e184 <_eusrstack+0xc0009184>
C:\Users\16917\Desktop\Dual-core_Communication_Demo\Dual-core_Communication_Demo\MASTER\obj/../Libraries/seekfree_libraries/zf_nvic.c:67
    3262:	0001                	nop
    3264:	4432                	lw	s0,12(sp)
    3266:	0141                	addi	sp,sp,16
    3268:	8082                	ret

0000326a <sys_recover_irq>:
sys_recover_irq():
C:\Users\16917\Desktop\Dual-core_Communication_Demo\Dual-core_Communication_Demo\MASTER\obj/../Libraries/seekfree_libraries/zf_nvic.c:77
    326a:	1141                	addi	sp,sp,-16
    326c:	c622                	sw	s0,12(sp)
    326e:	0800                	addi	s0,sp,16
C:\Users\16917\Desktop\Dual-core_Communication_Demo\Dual-core_Communication_Demo\MASTER\obj/../Libraries/seekfree_libraries/zf_nvic.c:78
    3270:	e000e7b7          	lui	a5,0xe000e
    3274:	9141a703          	lw	a4,-1772(gp) # 20000184 <irq_status>
    3278:	10e7a023          	sw	a4,256(a5) # e000e100 <_eusrstack+0xc0009100>
C:\Users\16917\Desktop\Dual-core_Communication_Demo\Dual-core_Communication_Demo\MASTER\obj/../Libraries/seekfree_libraries/zf_nvic.c:79
    327c:	e000e7b7          	lui	a5,0xe000e
    3280:	91418713          	addi	a4,gp,-1772 # 20000184 <irq_status>
    3284:	4358                	lw	a4,4(a4)
    3286:	10e7a223          	sw	a4,260(a5) # e000e104 <_eusrstack+0xc0009104>
C:\Users\16917\Desktop\Dual-core_Communication_Demo\Dual-core_Communication_Demo\MASTER\obj/../Libraries/seekfree_libraries/zf_nvic.c:80
    328a:	0001                	nop
    328c:	4432                	lw	s0,12(sp)
    328e:	0141                	addi	sp,sp,16
    3290:	8082                	ret

00003292 <DisableGlobalIRQ>:
DisableGlobalIRQ():
C:\Users\16917\Desktop\Dual-core_Communication_Demo\Dual-core_Communication_Demo\MASTER\obj/../Libraries/seekfree_libraries/zf_nvic.c:90
    3292:	1101                	addi	sp,sp,-32
    3294:	ce06                	sw	ra,28(sp)
    3296:	cc22                	sw	s0,24(sp)
    3298:	1000                	addi	s0,sp,32
C:\Users\16917\Desktop\Dual-core_Communication_Demo\Dual-core_Communication_Demo\MASTER\obj/../Libraries/seekfree_libraries/zf_nvic.c:92
    329a:	91418793          	addi	a5,gp,-1772 # 20000184 <irq_status>
    329e:	4705                	li	a4,1
    32a0:	00e78423          	sb	a4,8(a5)
C:\Users\16917\Desktop\Dual-core_Communication_Demo\Dual-core_Communication_Demo\MASTER\obj/../Libraries/seekfree_libraries/zf_nvic.c:93
    32a4:	9141a783          	lw	a5,-1772(gp) # 20000184 <irq_status>
    32a8:	eb81                	bnez	a5,32b8 <DisableGlobalIRQ+0x26>
C:\Users\16917\Desktop\Dual-core_Communication_Demo\Dual-core_Communication_Demo\MASTER\obj/../Libraries/seekfree_libraries/zf_nvic.c:93 (discriminator 1)
    32aa:	91418793          	addi	a5,gp,-1772 # 20000184 <irq_status>
    32ae:	43dc                	lw	a5,4(a5)
    32b0:	e781                	bnez	a5,32b8 <DisableGlobalIRQ+0x26>
C:\Users\16917\Desktop\Dual-core_Communication_Demo\Dual-core_Communication_Demo\MASTER\obj/../Libraries/seekfree_libraries/zf_nvic.c:93 (discriminator 2)
    32b2:	fe0407a3          	sb	zero,-17(s0)
    32b6:	a021                	j	32be <DisableGlobalIRQ+0x2c>
C:\Users\16917\Desktop\Dual-core_Communication_Demo\Dual-core_Communication_Demo\MASTER\obj/../Libraries/seekfree_libraries/zf_nvic.c:94
    32b8:	4785                	li	a5,1
    32ba:	fef407a3          	sb	a5,-17(s0)
C:\Users\16917\Desktop\Dual-core_Communication_Demo\Dual-core_Communication_Demo\MASTER\obj/../Libraries/seekfree_libraries/zf_nvic.c:95
    32be:	3769                	jal	3248 <close_all_irq>
C:\Users\16917\Desktop\Dual-core_Communication_Demo\Dual-core_Communication_Demo\MASTER\obj/../Libraries/seekfree_libraries/zf_nvic.c:96
    32c0:	fef44783          	lbu	a5,-17(s0)
C:\Users\16917\Desktop\Dual-core_Communication_Demo\Dual-core_Communication_Demo\MASTER\obj/../Libraries/seekfree_libraries/zf_nvic.c:97
    32c4:	853e                	mv	a0,a5
    32c6:	40f2                	lw	ra,28(sp)
    32c8:	4462                	lw	s0,24(sp)
    32ca:	6105                	addi	sp,sp,32
    32cc:	8082                	ret

000032ce <EnableGlobalIRQ>:
EnableGlobalIRQ():
C:\Users\16917\Desktop\Dual-core_Communication_Demo\Dual-core_Communication_Demo\MASTER\obj/../Libraries/seekfree_libraries/zf_nvic.c:107
    32ce:	1101                	addi	sp,sp,-32
    32d0:	ce06                	sw	ra,28(sp)
    32d2:	cc22                	sw	s0,24(sp)
    32d4:	1000                	addi	s0,sp,32
    32d6:	87aa                	mv	a5,a0
    32d8:	fef407a3          	sb	a5,-17(s0)
C:\Users\16917\Desktop\Dual-core_Communication_Demo\Dual-core_Communication_Demo\MASTER\obj/../Libraries/seekfree_libraries/zf_nvic.c:108
    32dc:	fef44783          	lbu	a5,-17(s0)
    32e0:	e791                	bnez	a5,32ec <EnableGlobalIRQ+0x1e>
C:\Users\16917\Desktop\Dual-core_Communication_Demo\Dual-core_Communication_Demo\MASTER\obj/../Libraries/seekfree_libraries/zf_nvic.c:110
    32e2:	91418793          	addi	a5,gp,-1772 # 20000184 <irq_status>
    32e6:	00078423          	sb	zero,8(a5)
C:\Users\16917\Desktop\Dual-core_Communication_Demo\Dual-core_Communication_Demo\MASTER\obj/../Libraries/seekfree_libraries/zf_nvic.c:111
    32ea:	3741                	jal	326a <sys_recover_irq>
C:\Users\16917\Desktop\Dual-core_Communication_Demo\Dual-core_Communication_Demo\MASTER\obj/../Libraries/seekfree_libraries/zf_nvic.c:113
    32ec:	0001                	nop
    32ee:	40f2                	lw	ra,28(sp)
    32f0:	4462                	lw	s0,24(sp)
    32f2:	6105                	addi	sp,sp,32
    32f4:	8082                	ret

000032f6 <pwm_gpio_init>:
pwm_gpio_init():
C:\Users\16917\Desktop\Dual-core_Communication_Demo\Dual-core_Communication_Demo\MASTER\obj/../Libraries/seekfree_libraries/zf_pwm.c:35
    32f6:	1101                	addi	sp,sp,-32
    32f8:	ce06                	sw	ra,28(sp)
    32fa:	cc22                	sw	s0,24(sp)
    32fc:	1000                	addi	s0,sp,32
    32fe:	fea42623          	sw	a0,-20(s0)
    3302:	fec42703          	lw	a4,-20(s0)
    3306:	20000793          	li	a5,512
    330a:	24f70763          	beq	a4,a5,3558 <pwm_gpio_init+0x262>
    330e:	fec42703          	lw	a4,-20(s0)
    3312:	20000793          	li	a5,512
    3316:	0ae7ea63          	bltu	a5,a4,33ca <pwm_gpio_init+0xd4>
    331a:	fec42703          	lw	a4,-20(s0)
    331e:	10100793          	li	a5,257
    3322:	1cf70063          	beq	a4,a5,34e2 <pwm_gpio_init+0x1ec>
    3326:	fec42703          	lw	a4,-20(s0)
    332a:	10100793          	li	a5,257
    332e:	04e7e263          	bltu	a5,a4,3372 <pwm_gpio_init+0x7c>
    3332:	fec42703          	lw	a4,-20(s0)
    3336:	4789                	li	a5,2
    3338:	16f70d63          	beq	a4,a5,34b2 <pwm_gpio_init+0x1bc>
    333c:	fec42703          	lw	a4,-20(s0)
    3340:	4789                	li	a5,2
    3342:	00e7ec63          	bltu	a5,a4,335a <pwm_gpio_init+0x64>
    3346:	fec42783          	lw	a5,-20(s0)
    334a:	14078463          	beqz	a5,3492 <pwm_gpio_init+0x19c>
    334e:	fec42703          	lw	a4,-20(s0)
    3352:	4785                	li	a5,1
    3354:	14f70763          	beq	a4,a5,34a2 <pwm_gpio_init+0x1ac>
C:\Users\16917\Desktop\Dual-core_Communication_Demo\Dual-core_Communication_Demo\MASTER\obj/../Libraries/seekfree_libraries/zf_pwm.c:145
    3358:	ace5                	j	3650 <pwm_gpio_init+0x35a>
    335a:	fec42703          	lw	a4,-20(s0)
    335e:	478d                	li	a5,3
    3360:	16f70163          	beq	a4,a5,34c2 <pwm_gpio_init+0x1cc>
    3364:	fec42703          	lw	a4,-20(s0)
    3368:	10000793          	li	a5,256
    336c:	16f70363          	beq	a4,a5,34d2 <pwm_gpio_init+0x1dc>
    3370:	a4c5                	j	3650 <pwm_gpio_init+0x35a>
    3372:	fec42703          	lw	a4,-20(s0)
    3376:	11000793          	li	a5,272
    337a:	18f70c63          	beq	a4,a5,3512 <pwm_gpio_init+0x21c>
    337e:	fec42703          	lw	a4,-20(s0)
    3382:	11000793          	li	a5,272
    3386:	00e7ef63          	bltu	a5,a4,33a4 <pwm_gpio_init+0xae>
    338a:	fec42703          	lw	a4,-20(s0)
    338e:	10200793          	li	a5,258
    3392:	16f70063          	beq	a4,a5,34f2 <pwm_gpio_init+0x1fc>
    3396:	fec42703          	lw	a4,-20(s0)
    339a:	10300793          	li	a5,259
    339e:	16f70263          	beq	a4,a5,3502 <pwm_gpio_init+0x20c>
    33a2:	a47d                	j	3650 <pwm_gpio_init+0x35a>
    33a4:	fec42703          	lw	a4,-20(s0)
    33a8:	11200793          	li	a5,274
    33ac:	18f70463          	beq	a4,a5,3534 <pwm_gpio_init+0x23e>
    33b0:	fec42703          	lw	a4,-20(s0)
    33b4:	11200793          	li	a5,274
    33b8:	16f76563          	bltu	a4,a5,3522 <pwm_gpio_init+0x22c>
    33bc:	fec42703          	lw	a4,-20(s0)
    33c0:	11300793          	li	a5,275
    33c4:	18f70163          	beq	a4,a5,3546 <pwm_gpio_init+0x250>
    33c8:	a461                	j	3650 <pwm_gpio_init+0x35a>
    33ca:	fec42703          	lw	a4,-20(s0)
    33ce:	21300793          	li	a5,531
    33d2:	20f70063          	beq	a4,a5,35d2 <pwm_gpio_init+0x2dc>
    33d6:	fec42703          	lw	a4,-20(s0)
    33da:	21300793          	li	a5,531
    33de:	04e7ee63          	bltu	a5,a4,343a <pwm_gpio_init+0x144>
    33e2:	fec42703          	lw	a4,-20(s0)
    33e6:	20300793          	li	a5,515
    33ea:	1af70063          	beq	a4,a5,358a <pwm_gpio_init+0x294>
    33ee:	fec42703          	lw	a4,-20(s0)
    33f2:	20300793          	li	a5,515
    33f6:	00e7ef63          	bltu	a5,a4,3414 <pwm_gpio_init+0x11e>
    33fa:	fec42703          	lw	a4,-20(s0)
    33fe:	20100793          	li	a5,513
    3402:	16f70363          	beq	a4,a5,3568 <pwm_gpio_init+0x272>
    3406:	fec42703          	lw	a4,-20(s0)
    340a:	20200793          	li	a5,514
    340e:	16f70563          	beq	a4,a5,3578 <pwm_gpio_init+0x282>
    3412:	ac3d                	j	3650 <pwm_gpio_init+0x35a>
    3414:	fec42703          	lw	a4,-20(s0)
    3418:	21100793          	li	a5,529
    341c:	18f70963          	beq	a4,a5,35ae <pwm_gpio_init+0x2b8>
    3420:	fec42703          	lw	a4,-20(s0)
    3424:	21100793          	li	a5,529
    3428:	18e7ec63          	bltu	a5,a4,35c0 <pwm_gpio_init+0x2ca>
    342c:	fec42703          	lw	a4,-20(s0)
    3430:	21000793          	li	a5,528
    3434:	16f70463          	beq	a4,a5,359c <pwm_gpio_init+0x2a6>
    3438:	ac21                	j	3650 <pwm_gpio_init+0x35a>
    343a:	fec42703          	lw	a4,-20(s0)
    343e:	30000793          	li	a5,768
    3442:	1cf70363          	beq	a4,a5,3608 <pwm_gpio_init+0x312>
    3446:	fec42703          	lw	a4,-20(s0)
    344a:	30000793          	li	a5,768
    344e:	00e7ef63          	bltu	a5,a4,346c <pwm_gpio_init+0x176>
    3452:	fec42703          	lw	a4,-20(s0)
    3456:	22000793          	li	a5,544
    345a:	18f70563          	beq	a4,a5,35e4 <pwm_gpio_init+0x2ee>
    345e:	fec42703          	lw	a4,-20(s0)
    3462:	22100793          	li	a5,545
    3466:	18f70863          	beq	a4,a5,35f6 <pwm_gpio_init+0x300>
    346a:	a2dd                	j	3650 <pwm_gpio_init+0x35a>
    346c:	fec42703          	lw	a4,-20(s0)
    3470:	30200793          	li	a5,770
    3474:	1af70c63          	beq	a4,a5,362c <pwm_gpio_init+0x336>
    3478:	fec42703          	lw	a4,-20(s0)
    347c:	30200793          	li	a5,770
    3480:	18f76d63          	bltu	a4,a5,361a <pwm_gpio_init+0x324>
    3484:	fec42703          	lw	a4,-20(s0)
    3488:	30300793          	li	a5,771
    348c:	1af70963          	beq	a4,a5,363e <pwm_gpio_init+0x348>
    3490:	a2c1                	j	3650 <pwm_gpio_init+0x35a>
C:\Users\16917\Desktop\Dual-core_Communication_Demo\Dual-core_Communication_Demo\MASTER\obj/../Libraries/seekfree_libraries/zf_pwm.c:40
    3492:	31800693          	li	a3,792
    3496:	4601                	li	a2,0
    3498:	4585                	li	a1,1
    349a:	4521                	li	a0,8
    349c:	af1ff0ef          	jal	ra,2f8c <gpio_init>
C:\Users\16917\Desktop\Dual-core_Communication_Demo\Dual-core_Communication_Demo\MASTER\obj/../Libraries/seekfree_libraries/zf_pwm.c:41
    34a0:	aa45                	j	3650 <pwm_gpio_init+0x35a>
C:\Users\16917\Desktop\Dual-core_Communication_Demo\Dual-core_Communication_Demo\MASTER\obj/../Libraries/seekfree_libraries/zf_pwm.c:43
    34a2:	31800693          	li	a3,792
    34a6:	4601                	li	a2,0
    34a8:	4585                	li	a1,1
    34aa:	4525                	li	a0,9
    34ac:	ae1ff0ef          	jal	ra,2f8c <gpio_init>
C:\Users\16917\Desktop\Dual-core_Communication_Demo\Dual-core_Communication_Demo\MASTER\obj/../Libraries/seekfree_libraries/zf_pwm.c:44
    34b0:	a245                	j	3650 <pwm_gpio_init+0x35a>
C:\Users\16917\Desktop\Dual-core_Communication_Demo\Dual-core_Communication_Demo\MASTER\obj/../Libraries/seekfree_libraries/zf_pwm.c:46
    34b2:	31800693          	li	a3,792
    34b6:	4601                	li	a2,0
    34b8:	4585                	li	a1,1
    34ba:	4529                	li	a0,10
    34bc:	ad1ff0ef          	jal	ra,2f8c <gpio_init>
C:\Users\16917\Desktop\Dual-core_Communication_Demo\Dual-core_Communication_Demo\MASTER\obj/../Libraries/seekfree_libraries/zf_pwm.c:47
    34c0:	aa41                	j	3650 <pwm_gpio_init+0x35a>
C:\Users\16917\Desktop\Dual-core_Communication_Demo\Dual-core_Communication_Demo\MASTER\obj/../Libraries/seekfree_libraries/zf_pwm.c:49
    34c2:	31800693          	li	a3,792
    34c6:	4601                	li	a2,0
    34c8:	4585                	li	a1,1
    34ca:	452d                	li	a0,11
    34cc:	ac1ff0ef          	jal	ra,2f8c <gpio_init>
C:\Users\16917\Desktop\Dual-core_Communication_Demo\Dual-core_Communication_Demo\MASTER\obj/../Libraries/seekfree_libraries/zf_pwm.c:50
    34d0:	a241                	j	3650 <pwm_gpio_init+0x35a>
C:\Users\16917\Desktop\Dual-core_Communication_Demo\Dual-core_Communication_Demo\MASTER\obj/../Libraries/seekfree_libraries/zf_pwm.c:73
    34d2:	31800693          	li	a3,792
    34d6:	4601                	li	a2,0
    34d8:	4585                	li	a1,1
    34da:	4501                	li	a0,0
    34dc:	ab1ff0ef          	jal	ra,2f8c <gpio_init>
C:\Users\16917\Desktop\Dual-core_Communication_Demo\Dual-core_Communication_Demo\MASTER\obj/../Libraries/seekfree_libraries/zf_pwm.c:74
    34e0:	aa85                	j	3650 <pwm_gpio_init+0x35a>
C:\Users\16917\Desktop\Dual-core_Communication_Demo\Dual-core_Communication_Demo\MASTER\obj/../Libraries/seekfree_libraries/zf_pwm.c:76
    34e2:	31800693          	li	a3,792
    34e6:	4601                	li	a2,0
    34e8:	4585                	li	a1,1
    34ea:	4505                	li	a0,1
    34ec:	aa1ff0ef          	jal	ra,2f8c <gpio_init>
C:\Users\16917\Desktop\Dual-core_Communication_Demo\Dual-core_Communication_Demo\MASTER\obj/../Libraries/seekfree_libraries/zf_pwm.c:77
    34f0:	a285                	j	3650 <pwm_gpio_init+0x35a>
C:\Users\16917\Desktop\Dual-core_Communication_Demo\Dual-core_Communication_Demo\MASTER\obj/../Libraries/seekfree_libraries/zf_pwm.c:79
    34f2:	31800693          	li	a3,792
    34f6:	4601                	li	a2,0
    34f8:	4585                	li	a1,1
    34fa:	4509                	li	a0,2
    34fc:	a91ff0ef          	jal	ra,2f8c <gpio_init>
C:\Users\16917\Desktop\Dual-core_Communication_Demo\Dual-core_Communication_Demo\MASTER\obj/../Libraries/seekfree_libraries/zf_pwm.c:80
    3500:	aa81                	j	3650 <pwm_gpio_init+0x35a>
C:\Users\16917\Desktop\Dual-core_Communication_Demo\Dual-core_Communication_Demo\MASTER\obj/../Libraries/seekfree_libraries/zf_pwm.c:82
    3502:	31800693          	li	a3,792
    3506:	4601                	li	a2,0
    3508:	4585                	li	a1,1
    350a:	450d                	li	a0,3
    350c:	a81ff0ef          	jal	ra,2f8c <gpio_init>
C:\Users\16917\Desktop\Dual-core_Communication_Demo\Dual-core_Communication_Demo\MASTER\obj/../Libraries/seekfree_libraries/zf_pwm.c:83
    3510:	a281                	j	3650 <pwm_gpio_init+0x35a>
C:\Users\16917\Desktop\Dual-core_Communication_Demo\Dual-core_Communication_Demo\MASTER\obj/../Libraries/seekfree_libraries/zf_pwm.c:86
    3512:	31800693          	li	a3,792
    3516:	4601                	li	a2,0
    3518:	4585                	li	a1,1
    351a:	453d                	li	a0,15
    351c:	a71ff0ef          	jal	ra,2f8c <gpio_init>
C:\Users\16917\Desktop\Dual-core_Communication_Demo\Dual-core_Communication_Demo\MASTER\obj/../Libraries/seekfree_libraries/zf_pwm.c:87
    3520:	aa05                	j	3650 <pwm_gpio_init+0x35a>
C:\Users\16917\Desktop\Dual-core_Communication_Demo\Dual-core_Communication_Demo\MASTER\obj/../Libraries/seekfree_libraries/zf_pwm.c:89
    3522:	31800693          	li	a3,792
    3526:	4601                	li	a2,0
    3528:	4585                	li	a1,1
    352a:	02300513          	li	a0,35
    352e:	a5fff0ef          	jal	ra,2f8c <gpio_init>
C:\Users\16917\Desktop\Dual-core_Communication_Demo\Dual-core_Communication_Demo\MASTER\obj/../Libraries/seekfree_libraries/zf_pwm.c:90
    3532:	aa39                	j	3650 <pwm_gpio_init+0x35a>
C:\Users\16917\Desktop\Dual-core_Communication_Demo\Dual-core_Communication_Demo\MASTER\obj/../Libraries/seekfree_libraries/zf_pwm.c:92
    3534:	31800693          	li	a3,792
    3538:	4601                	li	a2,0
    353a:	4585                	li	a1,1
    353c:	02a00513          	li	a0,42
    3540:	a4dff0ef          	jal	ra,2f8c <gpio_init>
C:\Users\16917\Desktop\Dual-core_Communication_Demo\Dual-core_Communication_Demo\MASTER\obj/../Libraries/seekfree_libraries/zf_pwm.c:93
    3544:	a231                	j	3650 <pwm_gpio_init+0x35a>
C:\Users\16917\Desktop\Dual-core_Communication_Demo\Dual-core_Communication_Demo\MASTER\obj/../Libraries/seekfree_libraries/zf_pwm.c:95
    3546:	31800693          	li	a3,792
    354a:	4601                	li	a2,0
    354c:	4585                	li	a1,1
    354e:	02b00513          	li	a0,43
    3552:	a3bff0ef          	jal	ra,2f8c <gpio_init>
C:\Users\16917\Desktop\Dual-core_Communication_Demo\Dual-core_Communication_Demo\MASTER\obj/../Libraries/seekfree_libraries/zf_pwm.c:96
    3556:	a8ed                	j	3650 <pwm_gpio_init+0x35a>
C:\Users\16917\Desktop\Dual-core_Communication_Demo\Dual-core_Communication_Demo\MASTER\obj/../Libraries/seekfree_libraries/zf_pwm.c:99
    3558:	31800693          	li	a3,792
    355c:	4601                	li	a2,0
    355e:	4585                	li	a1,1
    3560:	4519                	li	a0,6
    3562:	a2bff0ef          	jal	ra,2f8c <gpio_init>
C:\Users\16917\Desktop\Dual-core_Communication_Demo\Dual-core_Communication_Demo\MASTER\obj/../Libraries/seekfree_libraries/zf_pwm.c:100
    3566:	a0ed                	j	3650 <pwm_gpio_init+0x35a>
C:\Users\16917\Desktop\Dual-core_Communication_Demo\Dual-core_Communication_Demo\MASTER\obj/../Libraries/seekfree_libraries/zf_pwm.c:102
    3568:	31800693          	li	a3,792
    356c:	4601                	li	a2,0
    356e:	4585                	li	a1,1
    3570:	451d                	li	a0,7
    3572:	a1bff0ef          	jal	ra,2f8c <gpio_init>
C:\Users\16917\Desktop\Dual-core_Communication_Demo\Dual-core_Communication_Demo\MASTER\obj/../Libraries/seekfree_libraries/zf_pwm.c:103
    3576:	a8e9                	j	3650 <pwm_gpio_init+0x35a>
C:\Users\16917\Desktop\Dual-core_Communication_Demo\Dual-core_Communication_Demo\MASTER\obj/../Libraries/seekfree_libraries/zf_pwm.c:105
    3578:	31800693          	li	a3,792
    357c:	4601                	li	a2,0
    357e:	4585                	li	a1,1
    3580:	02000513          	li	a0,32
    3584:	a09ff0ef          	jal	ra,2f8c <gpio_init>
C:\Users\16917\Desktop\Dual-core_Communication_Demo\Dual-core_Communication_Demo\MASTER\obj/../Libraries/seekfree_libraries/zf_pwm.c:106
    3588:	a0e1                	j	3650 <pwm_gpio_init+0x35a>
C:\Users\16917\Desktop\Dual-core_Communication_Demo\Dual-core_Communication_Demo\MASTER\obj/../Libraries/seekfree_libraries/zf_pwm.c:108
    358a:	31800693          	li	a3,792
    358e:	4601                	li	a2,0
    3590:	4585                	li	a1,1
    3592:	02100513          	li	a0,33
    3596:	9f7ff0ef          	jal	ra,2f8c <gpio_init>
C:\Users\16917\Desktop\Dual-core_Communication_Demo\Dual-core_Communication_Demo\MASTER\obj/../Libraries/seekfree_libraries/zf_pwm.c:109
    359a:	a85d                	j	3650 <pwm_gpio_init+0x35a>
C:\Users\16917\Desktop\Dual-core_Communication_Demo\Dual-core_Communication_Demo\MASTER\obj/../Libraries/seekfree_libraries/zf_pwm.c:112
    359c:	31800693          	li	a3,792
    35a0:	4601                	li	a2,0
    35a2:	4585                	li	a1,1
    35a4:	04600513          	li	a0,70
    35a8:	9e5ff0ef          	jal	ra,2f8c <gpio_init>
C:\Users\16917\Desktop\Dual-core_Communication_Demo\Dual-core_Communication_Demo\MASTER\obj/../Libraries/seekfree_libraries/zf_pwm.c:113
    35ac:	a055                	j	3650 <pwm_gpio_init+0x35a>
C:\Users\16917\Desktop\Dual-core_Communication_Demo\Dual-core_Communication_Demo\MASTER\obj/../Libraries/seekfree_libraries/zf_pwm.c:115
    35ae:	31800693          	li	a3,792
    35b2:	4601                	li	a2,0
    35b4:	4585                	li	a1,1
    35b6:	04700513          	li	a0,71
    35ba:	9d3ff0ef          	jal	ra,2f8c <gpio_init>
C:\Users\16917\Desktop\Dual-core_Communication_Demo\Dual-core_Communication_Demo\MASTER\obj/../Libraries/seekfree_libraries/zf_pwm.c:116
    35be:	a849                	j	3650 <pwm_gpio_init+0x35a>
C:\Users\16917\Desktop\Dual-core_Communication_Demo\Dual-core_Communication_Demo\MASTER\obj/../Libraries/seekfree_libraries/zf_pwm.c:118
    35c0:	31800693          	li	a3,792
    35c4:	4601                	li	a2,0
    35c6:	4585                	li	a1,1
    35c8:	04800513          	li	a0,72
    35cc:	9c1ff0ef          	jal	ra,2f8c <gpio_init>
C:\Users\16917\Desktop\Dual-core_Communication_Demo\Dual-core_Communication_Demo\MASTER\obj/../Libraries/seekfree_libraries/zf_pwm.c:119
    35d0:	a041                	j	3650 <pwm_gpio_init+0x35a>
C:\Users\16917\Desktop\Dual-core_Communication_Demo\Dual-core_Communication_Demo\MASTER\obj/../Libraries/seekfree_libraries/zf_pwm.c:121
    35d2:	31800693          	li	a3,792
    35d6:	4601                	li	a2,0
    35d8:	4585                	li	a1,1
    35da:	04900513          	li	a0,73
    35de:	9afff0ef          	jal	ra,2f8c <gpio_init>
C:\Users\16917\Desktop\Dual-core_Communication_Demo\Dual-core_Communication_Demo\MASTER\obj/../Libraries/seekfree_libraries/zf_pwm.c:122
    35e2:	a0bd                	j	3650 <pwm_gpio_init+0x35a>
C:\Users\16917\Desktop\Dual-core_Communication_Demo\Dual-core_Communication_Demo\MASTER\obj/../Libraries/seekfree_libraries/zf_pwm.c:125
    35e4:	31800693          	li	a3,792
    35e8:	4601                	li	a2,0
    35ea:	4585                	li	a1,1
    35ec:	02400513          	li	a0,36
    35f0:	99dff0ef          	jal	ra,2f8c <gpio_init>
C:\Users\16917\Desktop\Dual-core_Communication_Demo\Dual-core_Communication_Demo\MASTER\obj/../Libraries/seekfree_libraries/zf_pwm.c:126
    35f4:	a8b1                	j	3650 <pwm_gpio_init+0x35a>
C:\Users\16917\Desktop\Dual-core_Communication_Demo\Dual-core_Communication_Demo\MASTER\obj/../Libraries/seekfree_libraries/zf_pwm.c:128
    35f6:	31800693          	li	a3,792
    35fa:	4601                	li	a2,0
    35fc:	4585                	li	a1,1
    35fe:	02500513          	li	a0,37
    3602:	98bff0ef          	jal	ra,2f8c <gpio_init>
C:\Users\16917\Desktop\Dual-core_Communication_Demo\Dual-core_Communication_Demo\MASTER\obj/../Libraries/seekfree_libraries/zf_pwm.c:129
    3606:	a0a9                	j	3650 <pwm_gpio_init+0x35a>
C:\Users\16917\Desktop\Dual-core_Communication_Demo\Dual-core_Communication_Demo\MASTER\obj/../Libraries/seekfree_libraries/zf_pwm.c:132
    3608:	31800693          	li	a3,792
    360c:	4601                	li	a2,0
    360e:	4585                	li	a1,1
    3610:	02600513          	li	a0,38
    3614:	979ff0ef          	jal	ra,2f8c <gpio_init>
C:\Users\16917\Desktop\Dual-core_Communication_Demo\Dual-core_Communication_Demo\MASTER\obj/../Libraries/seekfree_libraries/zf_pwm.c:133
    3618:	a825                	j	3650 <pwm_gpio_init+0x35a>
C:\Users\16917\Desktop\Dual-core_Communication_Demo\Dual-core_Communication_Demo\MASTER\obj/../Libraries/seekfree_libraries/zf_pwm.c:135
    361a:	31800693          	li	a3,792
    361e:	4601                	li	a2,0
    3620:	4585                	li	a1,1
    3622:	02700513          	li	a0,39
    3626:	967ff0ef          	jal	ra,2f8c <gpio_init>
C:\Users\16917\Desktop\Dual-core_Communication_Demo\Dual-core_Communication_Demo\MASTER\obj/../Libraries/seekfree_libraries/zf_pwm.c:136
    362a:	a01d                	j	3650 <pwm_gpio_init+0x35a>
C:\Users\16917\Desktop\Dual-core_Communication_Demo\Dual-core_Communication_Demo\MASTER\obj/../Libraries/seekfree_libraries/zf_pwm.c:138
    362c:	31800693          	li	a3,792
    3630:	4601                	li	a2,0
    3632:	4585                	li	a1,1
    3634:	02800513          	li	a0,40
    3638:	955ff0ef          	jal	ra,2f8c <gpio_init>
C:\Users\16917\Desktop\Dual-core_Communication_Demo\Dual-core_Communication_Demo\MASTER\obj/../Libraries/seekfree_libraries/zf_pwm.c:139
    363c:	a811                	j	3650 <pwm_gpio_init+0x35a>
C:\Users\16917\Desktop\Dual-core_Communication_Demo\Dual-core_Communication_Demo\MASTER\obj/../Libraries/seekfree_libraries/zf_pwm.c:141
    363e:	31800693          	li	a3,792
    3642:	4601                	li	a2,0
    3644:	4585                	li	a1,1
    3646:	02900513          	li	a0,41
    364a:	943ff0ef          	jal	ra,2f8c <gpio_init>
C:\Users\16917\Desktop\Dual-core_Communication_Demo\Dual-core_Communication_Demo\MASTER\obj/../Libraries/seekfree_libraries/zf_pwm.c:142
    364e:	0001                	nop
C:\Users\16917\Desktop\Dual-core_Communication_Demo\Dual-core_Communication_Demo\MASTER\obj/../Libraries/seekfree_libraries/zf_pwm.c:147
    3650:	0001                	nop
    3652:	40f2                	lw	ra,28(sp)
    3654:	4462                	lw	s0,24(sp)
    3656:	6105                	addi	sp,sp,32
    3658:	8082                	ret

0000365a <pwm_init>:
pwm_init():
C:\Users\16917\Desktop\Dual-core_Communication_Demo\Dual-core_Communication_Demo\MASTER\obj/../Libraries/seekfree_libraries/zf_pwm.c:165
    365a:	7139                	addi	sp,sp,-64
    365c:	de06                	sw	ra,60(sp)
    365e:	dc22                	sw	s0,56(sp)
    3660:	0080                	addi	s0,sp,64
    3662:	fca42623          	sw	a0,-52(s0)
    3666:	fcb42423          	sw	a1,-56(s0)
    366a:	fcc42223          	sw	a2,-60(s0)
C:\Users\16917\Desktop\Dual-core_Communication_Demo\Dual-core_Communication_Demo\MASTER\obj/../Libraries/seekfree_libraries/zf_pwm.c:170
    366e:	fe041723          	sh	zero,-18(s0)
C:\Users\16917\Desktop\Dual-core_Communication_Demo\Dual-core_Communication_Demo\MASTER\obj/../Libraries/seekfree_libraries/zf_pwm.c:172
    3672:	fcc42503          	lw	a0,-52(s0)
    3676:	c81ff0ef          	jal	ra,32f6 <pwm_gpio_init>
C:\Users\16917\Desktop\Dual-core_Communication_Demo\Dual-core_Communication_Demo\MASTER\obj/../Libraries/seekfree_libraries/zf_pwm.c:174
    367a:	fcc42783          	lw	a5,-52(s0)
    367e:	83a1                	srli	a5,a5,0x8
    3680:	eb81                	bnez	a5,3690 <pwm_init+0x36>
C:\Users\16917\Desktop\Dual-core_Communication_Demo\Dual-core_Communication_Demo\MASTER\obj/../Libraries/seekfree_libraries/zf_pwm.c:175
    3682:	4585                	li	a1,1
    3684:	6785                	lui	a5,0x1
    3686:	80078513          	addi	a0,a5,-2048 # 800 <__stack_size>
    368a:	d73fd0ef          	jal	ra,13fc <RCC_APB2PeriphClockCmd>
    368e:	a0a1                	j	36d6 <pwm_init+0x7c>
C:\Users\16917\Desktop\Dual-core_Communication_Demo\Dual-core_Communication_Demo\MASTER\obj/../Libraries/seekfree_libraries/zf_pwm.c:176
    3690:	fcc42783          	lw	a5,-52(s0)
    3694:	0087d713          	srli	a4,a5,0x8
    3698:	4785                	li	a5,1
    369a:	00f71763          	bne	a4,a5,36a8 <pwm_init+0x4e>
C:\Users\16917\Desktop\Dual-core_Communication_Demo\Dual-core_Communication_Demo\MASTER\obj/../Libraries/seekfree_libraries/zf_pwm.c:177
    369e:	4585                	li	a1,1
    36a0:	4505                	li	a0,1
    36a2:	da1fd0ef          	jal	ra,1442 <RCC_APB1PeriphClockCmd>
    36a6:	a805                	j	36d6 <pwm_init+0x7c>
C:\Users\16917\Desktop\Dual-core_Communication_Demo\Dual-core_Communication_Demo\MASTER\obj/../Libraries/seekfree_libraries/zf_pwm.c:178
    36a8:	fcc42783          	lw	a5,-52(s0)
    36ac:	0087d713          	srli	a4,a5,0x8
    36b0:	4789                	li	a5,2
    36b2:	00f71763          	bne	a4,a5,36c0 <pwm_init+0x66>
C:\Users\16917\Desktop\Dual-core_Communication_Demo\Dual-core_Communication_Demo\MASTER\obj/../Libraries/seekfree_libraries/zf_pwm.c:179
    36b6:	4585                	li	a1,1
    36b8:	4509                	li	a0,2
    36ba:	d89fd0ef          	jal	ra,1442 <RCC_APB1PeriphClockCmd>
    36be:	a821                	j	36d6 <pwm_init+0x7c>
C:\Users\16917\Desktop\Dual-core_Communication_Demo\Dual-core_Communication_Demo\MASTER\obj/../Libraries/seekfree_libraries/zf_pwm.c:180
    36c0:	fcc42783          	lw	a5,-52(s0)
    36c4:	0087d713          	srli	a4,a5,0x8
    36c8:	478d                	li	a5,3
    36ca:	00f71663          	bne	a4,a5,36d6 <pwm_init+0x7c>
C:\Users\16917\Desktop\Dual-core_Communication_Demo\Dual-core_Communication_Demo\MASTER\obj/../Libraries/seekfree_libraries/zf_pwm.c:181
    36ce:	4585                	li	a1,1
    36d0:	4511                	li	a0,4
    36d2:	d71fd0ef          	jal	ra,1442 <RCC_APB1PeriphClockCmd>
C:\Users\16917\Desktop\Dual-core_Communication_Demo\Dual-core_Communication_Demo\MASTER\obj/../Libraries/seekfree_libraries/zf_pwm.c:183
    36d6:	4585                	li	a1,1
    36d8:	4505                	li	a0,1
    36da:	d23fd0ef          	jal	ra,13fc <RCC_APB2PeriphClockCmd>
C:\Users\16917\Desktop\Dual-core_Communication_Demo\Dual-core_Communication_Demo\MASTER\obj/../Libraries/seekfree_libraries/zf_pwm.c:186
    36de:	fcc42783          	lw	a5,-52(s0)
    36e2:	0047d713          	srli	a4,a5,0x4
    36e6:	47c1                	li	a5,16
    36e8:	00f71a63          	bne	a4,a5,36fc <pwm_init+0xa2>
C:\Users\16917\Desktop\Dual-core_Communication_Demo\Dual-core_Communication_Demo\MASTER\obj/../Libraries/seekfree_libraries/zf_pwm.c:187
    36ec:	4585                	li	a1,1
    36ee:	001607b7          	lui	a5,0x160
    36f2:	04078513          	addi	a0,a5,64 # 160040 <_data_lma+0x1592a8>
    36f6:	fbcfd0ef          	jal	ra,eb2 <GPIO_PinRemapConfig>
    36fa:	a8b9                	j	3758 <pwm_init+0xfe>
C:\Users\16917\Desktop\Dual-core_Communication_Demo\Dual-core_Communication_Demo\MASTER\obj/../Libraries/seekfree_libraries/zf_pwm.c:188
    36fc:	fcc42783          	lw	a5,-52(s0)
    3700:	0047d713          	srli	a4,a5,0x4
    3704:	47c5                	li	a5,17
    3706:	00f71a63          	bne	a4,a5,371a <pwm_init+0xc0>
C:\Users\16917\Desktop\Dual-core_Communication_Demo\Dual-core_Communication_Demo\MASTER\obj/../Libraries/seekfree_libraries/zf_pwm.c:189
    370a:	4585                	li	a1,1
    370c:	001807b7          	lui	a5,0x180
    3710:	30078513          	addi	a0,a5,768 # 180300 <_data_lma+0x179568>
    3714:	f9efd0ef          	jal	ra,eb2 <GPIO_PinRemapConfig>
    3718:	a081                	j	3758 <pwm_init+0xfe>
C:\Users\16917\Desktop\Dual-core_Communication_Demo\Dual-core_Communication_Demo\MASTER\obj/../Libraries/seekfree_libraries/zf_pwm.c:190
    371a:	fcc42783          	lw	a5,-52(s0)
    371e:	0047d713          	srli	a4,a5,0x4
    3722:	02100793          	li	a5,33
    3726:	00f71a63          	bne	a4,a5,373a <pwm_init+0xe0>
C:\Users\16917\Desktop\Dual-core_Communication_Demo\Dual-core_Communication_Demo\MASTER\obj/../Libraries/seekfree_libraries/zf_pwm.c:191
    372a:	4585                	li	a1,1
    372c:	001a17b7          	lui	a5,0x1a1
    3730:	c0078513          	addi	a0,a5,-1024 # 1a0c00 <_data_lma+0x199e68>
    3734:	f7efd0ef          	jal	ra,eb2 <GPIO_PinRemapConfig>
    3738:	a005                	j	3758 <pwm_init+0xfe>
C:\Users\16917\Desktop\Dual-core_Communication_Demo\Dual-core_Communication_Demo\MASTER\obj/../Libraries/seekfree_libraries/zf_pwm.c:192
    373a:	fcc42783          	lw	a5,-52(s0)
    373e:	0047d713          	srli	a4,a5,0x4
    3742:	02200793          	li	a5,34
    3746:	00f71963          	bne	a4,a5,3758 <pwm_init+0xfe>
C:\Users\16917\Desktop\Dual-core_Communication_Demo\Dual-core_Communication_Demo\MASTER\obj/../Libraries/seekfree_libraries/zf_pwm.c:193
    374a:	4585                	li	a1,1
    374c:	001a17b7          	lui	a5,0x1a1
    3750:	80078513          	addi	a0,a5,-2048 # 1a0800 <_data_lma+0x199a68>
    3754:	f5efd0ef          	jal	ra,eb2 <GPIO_PinRemapConfig>
C:\Users\16917\Desktop\Dual-core_Communication_Demo\Dual-core_Communication_Demo\MASTER\obj/../Libraries/seekfree_libraries/zf_pwm.c:196
    3758:	400217b7          	lui	a5,0x40021
    375c:	43dc                	lw	a5,4(a5)
    375e:	83c9                	srli	a5,a5,0x12
    3760:	00f7f713          	andi	a4,a5,15
    3764:	007a17b7          	lui	a5,0x7a1
    3768:	20078793          	addi	a5,a5,512 # 7a1200 <_data_lma+0x79a468>
    376c:	02f70733          	mul	a4,a4,a5
    3770:	00f427b7          	lui	a5,0xf42
    3774:	40078793          	addi	a5,a5,1024 # f42400 <_data_lma+0xf3b668>
    3778:	973e                	add	a4,a4,a5
    377a:	82e1ac23          	sw	a4,-1992(gp) # 200000a8 <sys_clk>
C:\Users\16917\Desktop\Dual-core_Communication_Demo\Dual-core_Communication_Demo\MASTER\obj/../Libraries/seekfree_libraries/zf_pwm.c:198
    377e:	8381a703          	lw	a4,-1992(gp) # 200000a8 <sys_clk>
    3782:	fc842783          	lw	a5,-56(s0)
    3786:	02f757b3          	divu	a5,a4,a5
    378a:	83c1                	srli	a5,a5,0x10
    378c:	fef41723          	sh	a5,-18(s0)
C:\Users\16917\Desktop\Dual-core_Communication_Demo\Dual-core_Communication_Demo\MASTER\obj/../Libraries/seekfree_libraries/zf_pwm.c:199
    3790:	8381a703          	lw	a4,-1992(gp) # 200000a8 <sys_clk>
    3794:	fee45783          	lhu	a5,-18(s0)
    3798:	0785                	addi	a5,a5,1
    379a:	86be                	mv	a3,a5
    379c:	fc842783          	lw	a5,-56(s0)
    37a0:	02f687b3          	mul	a5,a3,a5
    37a4:	02f757b3          	divu	a5,a4,a5
    37a8:	fef41623          	sh	a5,-20(s0)
C:\Users\16917\Desktop\Dual-core_Communication_Demo\Dual-core_Communication_Demo\MASTER\obj/../Libraries/seekfree_libraries/zf_pwm.c:200
    37ac:	fec45703          	lhu	a4,-20(s0)
    37b0:	fc442783          	lw	a5,-60(s0)
    37b4:	02f70733          	mul	a4,a4,a5
    37b8:	6789                	lui	a5,0x2
    37ba:	71078793          	addi	a5,a5,1808 # 2710 <USART_ClearITPendingBit+0x2e>
    37be:	02f757b3          	divu	a5,a4,a5
    37c2:	fef41523          	sh	a5,-22(s0)
C:\Users\16917\Desktop\Dual-core_Communication_Demo\Dual-core_Communication_Demo\MASTER\obj/../Libraries/seekfree_libraries/zf_pwm.c:203
    37c6:	fec45783          	lhu	a5,-20(s0)
    37ca:	17fd                	addi	a5,a5,-1
    37cc:	07c2                	slli	a5,a5,0x10
    37ce:	83c1                	srli	a5,a5,0x10
    37d0:	fef41223          	sh	a5,-28(s0)
C:\Users\16917\Desktop\Dual-core_Communication_Demo\Dual-core_Communication_Demo\MASTER\obj/../Libraries/seekfree_libraries/zf_pwm.c:204
    37d4:	fee45783          	lhu	a5,-18(s0)
    37d8:	fef41023          	sh	a5,-32(s0)
C:\Users\16917\Desktop\Dual-core_Communication_Demo\Dual-core_Communication_Demo\MASTER\obj/../Libraries/seekfree_libraries/zf_pwm.c:205
    37dc:	fe041323          	sh	zero,-26(s0)
C:\Users\16917\Desktop\Dual-core_Communication_Demo\Dual-core_Communication_Demo\MASTER\obj/../Libraries/seekfree_libraries/zf_pwm.c:206
    37e0:	fe041123          	sh	zero,-30(s0)
C:\Users\16917\Desktop\Dual-core_Communication_Demo\Dual-core_Communication_Demo\MASTER\obj/../Libraries/seekfree_libraries/zf_pwm.c:207
    37e4:	fe040423          	sb	zero,-24(s0)
C:\Users\16917\Desktop\Dual-core_Communication_Demo\Dual-core_Communication_Demo\MASTER\obj/../Libraries/seekfree_libraries/zf_pwm.c:210
    37e8:	07000793          	li	a5,112
    37ec:	fcf41823          	sh	a5,-48(s0)
C:\Users\16917\Desktop\Dual-core_Communication_Demo\Dual-core_Communication_Demo\MASTER\obj/../Libraries/seekfree_libraries/zf_pwm.c:211
    37f0:	4785                	li	a5,1
    37f2:	fcf41923          	sh	a5,-46(s0)
C:\Users\16917\Desktop\Dual-core_Communication_Demo\Dual-core_Communication_Demo\MASTER\obj/../Libraries/seekfree_libraries/zf_pwm.c:212
    37f6:	fc041a23          	sh	zero,-44(s0)
C:\Users\16917\Desktop\Dual-core_Communication_Demo\Dual-core_Communication_Demo\MASTER\obj/../Libraries/seekfree_libraries/zf_pwm.c:213
    37fa:	fea45783          	lhu	a5,-22(s0)
    37fe:	fcf41b23          	sh	a5,-42(s0)
C:\Users\16917\Desktop\Dual-core_Communication_Demo\Dual-core_Communication_Demo\MASTER\obj/../Libraries/seekfree_libraries/zf_pwm.c:214
    3802:	4789                	li	a5,2
    3804:	fcf41c23          	sh	a5,-40(s0)
C:\Users\16917\Desktop\Dual-core_Communication_Demo\Dual-core_Communication_Demo\MASTER\obj/../Libraries/seekfree_libraries/zf_pwm.c:215
    3808:	4789                	li	a5,2
    380a:	fcf41d23          	sh	a5,-38(s0)
C:\Users\16917\Desktop\Dual-core_Communication_Demo\Dual-core_Communication_Demo\MASTER\obj/../Libraries/seekfree_libraries/zf_pwm.c:216
    380e:	fc041e23          	sh	zero,-36(s0)
C:\Users\16917\Desktop\Dual-core_Communication_Demo\Dual-core_Communication_Demo\MASTER\obj/../Libraries/seekfree_libraries/zf_pwm.c:217
    3812:	fc041f23          	sh	zero,-34(s0)
C:\Users\16917\Desktop\Dual-core_Communication_Demo\Dual-core_Communication_Demo\MASTER\obj/../Libraries/seekfree_libraries/zf_pwm.c:221
    3816:	fcc42783          	lw	a5,-52(s0)
    381a:	0087d713          	srli	a4,a5,0x8
    381e:	679d                	lui	a5,0x7
    3820:	070a                	slli	a4,a4,0x2
    3822:	b4c78793          	addi	a5,a5,-1204 # 6b4c <TIMERN>
    3826:	97ba                	add	a5,a5,a4
    3828:	439c                	lw	a5,0(a5)
    382a:	873e                	mv	a4,a5
    382c:	fe040793          	addi	a5,s0,-32
    3830:	85be                	mv	a1,a5
    3832:	853a                	mv	a0,a4
    3834:	da7fd0ef          	jal	ra,15da <TIM_TimeBaseInit>
C:\Users\16917\Desktop\Dual-core_Communication_Demo\Dual-core_Communication_Demo\MASTER\obj/../Libraries/seekfree_libraries/zf_pwm.c:231
    3838:	fcc42783          	lw	a5,-52(s0)
    383c:	8b8d                	andi	a5,a5,3
    383e:	efb9                	bnez	a5,389c <pwm_init+0x242>
C:\Users\16917\Desktop\Dual-core_Communication_Demo\Dual-core_Communication_Demo\MASTER\obj/../Libraries/seekfree_libraries/zf_pwm.c:233
    3840:	fcc42783          	lw	a5,-52(s0)
    3844:	0087d713          	srli	a4,a5,0x8
    3848:	679d                	lui	a5,0x7
    384a:	070a                	slli	a4,a4,0x2
    384c:	b4c78793          	addi	a5,a5,-1204 # 6b4c <TIMERN>
    3850:	97ba                	add	a5,a5,a4
    3852:	439c                	lw	a5,0(a5)
    3854:	873e                	mv	a4,a5
    3856:	fd040793          	addi	a5,s0,-48
    385a:	85be                	mv	a1,a5
    385c:	853a                	mv	a0,a4
    385e:	e77fd0ef          	jal	ra,16d4 <TIM_OC1Init>
C:\Users\16917\Desktop\Dual-core_Communication_Demo\Dual-core_Communication_Demo\MASTER\obj/../Libraries/seekfree_libraries/zf_pwm.c:234
    3862:	fcc42783          	lw	a5,-52(s0)
    3866:	0087d713          	srli	a4,a5,0x8
    386a:	679d                	lui	a5,0x7
    386c:	070a                	slli	a4,a4,0x2
    386e:	b4c78793          	addi	a5,a5,-1204 # 6b4c <TIMERN>
    3872:	97ba                	add	a5,a5,a4
    3874:	439c                	lw	a5,0(a5)
    3876:	45a1                	li	a1,8
    3878:	853e                	mv	a0,a5
    387a:	e46fe0ef          	jal	ra,1ec0 <TIM_OC1PreloadConfig>
C:\Users\16917\Desktop\Dual-core_Communication_Demo\Dual-core_Communication_Demo\MASTER\obj/../Libraries/seekfree_libraries/zf_pwm.c:235
    387e:	fcc42783          	lw	a5,-52(s0)
    3882:	0087d713          	srli	a4,a5,0x8
    3886:	679d                	lui	a5,0x7
    3888:	070a                	slli	a4,a4,0x2
    388a:	b4c78793          	addi	a5,a5,-1204 # 6b4c <TIMERN>
    388e:	97ba                	add	a5,a5,a4
    3890:	439c                	lw	a5,0(a5)
    3892:	4591                	li	a1,4
    3894:	853e                	mv	a0,a5
    3896:	f76fe0ef          	jal	ra,200c <TIM_OC1FastConfig>
    389a:	a289                	j	39dc <pwm_init+0x382>
C:\Users\16917\Desktop\Dual-core_Communication_Demo\Dual-core_Communication_Demo\MASTER\obj/../Libraries/seekfree_libraries/zf_pwm.c:237
    389c:	fcc42783          	lw	a5,-52(s0)
    38a0:	0037f713          	andi	a4,a5,3
    38a4:	4785                	li	a5,1
    38a6:	06f71163          	bne	a4,a5,3908 <pwm_init+0x2ae>
C:\Users\16917\Desktop\Dual-core_Communication_Demo\Dual-core_Communication_Demo\MASTER\obj/../Libraries/seekfree_libraries/zf_pwm.c:239
    38aa:	fcc42783          	lw	a5,-52(s0)
    38ae:	0087d713          	srli	a4,a5,0x8
    38b2:	679d                	lui	a5,0x7
    38b4:	070a                	slli	a4,a4,0x2
    38b6:	b4c78793          	addi	a5,a5,-1204 # 6b4c <TIMERN>
    38ba:	97ba                	add	a5,a5,a4
    38bc:	439c                	lw	a5,0(a5)
    38be:	873e                	mv	a4,a5
    38c0:	fd040793          	addi	a5,s0,-48
    38c4:	85be                	mv	a1,a5
    38c6:	853a                	mv	a0,a4
    38c8:	f7dfd0ef          	jal	ra,1844 <TIM_OC2Init>
C:\Users\16917\Desktop\Dual-core_Communication_Demo\Dual-core_Communication_Demo\MASTER\obj/../Libraries/seekfree_libraries/zf_pwm.c:240
    38cc:	fcc42783          	lw	a5,-52(s0)
    38d0:	0087d713          	srli	a4,a5,0x8
    38d4:	679d                	lui	a5,0x7
    38d6:	070a                	slli	a4,a4,0x2
    38d8:	b4c78793          	addi	a5,a5,-1204 # 6b4c <TIMERN>
    38dc:	97ba                	add	a5,a5,a4
    38de:	439c                	lw	a5,0(a5)
    38e0:	45a1                	li	a1,8
    38e2:	853e                	mv	a0,a5
    38e4:	e28fe0ef          	jal	ra,1f0c <TIM_OC2PreloadConfig>
C:\Users\16917\Desktop\Dual-core_Communication_Demo\Dual-core_Communication_Demo\MASTER\obj/../Libraries/seekfree_libraries/zf_pwm.c:241
    38e8:	fcc42783          	lw	a5,-52(s0)
    38ec:	0087d713          	srli	a4,a5,0x8
    38f0:	679d                	lui	a5,0x7
    38f2:	070a                	slli	a4,a4,0x2
    38f4:	b4c78793          	addi	a5,a5,-1204 # 6b4c <TIMERN>
    38f8:	97ba                	add	a5,a5,a4
    38fa:	439c                	lw	a5,0(a5)
    38fc:	40000593          	li	a1,1024
    3900:	853e                	mv	a0,a5
    3902:	f56fe0ef          	jal	ra,2058 <TIM_OC2FastConfig>
    3906:	a8d9                	j	39dc <pwm_init+0x382>
C:\Users\16917\Desktop\Dual-core_Communication_Demo\Dual-core_Communication_Demo\MASTER\obj/../Libraries/seekfree_libraries/zf_pwm.c:243
    3908:	fcc42783          	lw	a5,-52(s0)
    390c:	0037f713          	andi	a4,a5,3
    3910:	4789                	li	a5,2
    3912:	06f71063          	bne	a4,a5,3972 <pwm_init+0x318>
C:\Users\16917\Desktop\Dual-core_Communication_Demo\Dual-core_Communication_Demo\MASTER\obj/../Libraries/seekfree_libraries/zf_pwm.c:245
    3916:	fcc42783          	lw	a5,-52(s0)
    391a:	0087d713          	srli	a4,a5,0x8
    391e:	679d                	lui	a5,0x7
    3920:	070a                	slli	a4,a4,0x2
    3922:	b4c78793          	addi	a5,a5,-1204 # 6b4c <TIMERN>
    3926:	97ba                	add	a5,a5,a4
    3928:	439c                	lw	a5,0(a5)
    392a:	873e                	mv	a4,a5
    392c:	fd040793          	addi	a5,s0,-48
    3930:	85be                	mv	a1,a5
    3932:	853a                	mv	a0,a4
    3934:	8c6fe0ef          	jal	ra,19fa <TIM_OC3Init>
C:\Users\16917\Desktop\Dual-core_Communication_Demo\Dual-core_Communication_Demo\MASTER\obj/../Libraries/seekfree_libraries/zf_pwm.c:246
    3938:	fcc42783          	lw	a5,-52(s0)
    393c:	0087d713          	srli	a4,a5,0x8
    3940:	679d                	lui	a5,0x7
    3942:	070a                	slli	a4,a4,0x2
    3944:	b4c78793          	addi	a5,a5,-1204 # 6b4c <TIMERN>
    3948:	97ba                	add	a5,a5,a4
    394a:	439c                	lw	a5,0(a5)
    394c:	45a1                	li	a1,8
    394e:	853e                	mv	a0,a5
    3950:	e16fe0ef          	jal	ra,1f66 <TIM_OC3PreloadConfig>
C:\Users\16917\Desktop\Dual-core_Communication_Demo\Dual-core_Communication_Demo\MASTER\obj/../Libraries/seekfree_libraries/zf_pwm.c:247
    3954:	fcc42783          	lw	a5,-52(s0)
    3958:	0087d713          	srli	a4,a5,0x8
    395c:	679d                	lui	a5,0x7
    395e:	070a                	slli	a4,a4,0x2
    3960:	b4c78793          	addi	a5,a5,-1204 # 6b4c <TIMERN>
    3964:	97ba                	add	a5,a5,a4
    3966:	439c                	lw	a5,0(a5)
    3968:	4591                	li	a1,4
    396a:	853e                	mv	a0,a5
    396c:	f42fe0ef          	jal	ra,20ae <TIM_OC3FastConfig>
    3970:	a0b5                	j	39dc <pwm_init+0x382>
C:\Users\16917\Desktop\Dual-core_Communication_Demo\Dual-core_Communication_Demo\MASTER\obj/../Libraries/seekfree_libraries/zf_pwm.c:249
    3972:	fcc42783          	lw	a5,-52(s0)
    3976:	0037f713          	andi	a4,a5,3
    397a:	478d                	li	a5,3
    397c:	06f71063          	bne	a4,a5,39dc <pwm_init+0x382>
C:\Users\16917\Desktop\Dual-core_Communication_Demo\Dual-core_Communication_Demo\MASTER\obj/../Libraries/seekfree_libraries/zf_pwm.c:251
    3980:	fcc42783          	lw	a5,-52(s0)
    3984:	0087d713          	srli	a4,a5,0x8
    3988:	679d                	lui	a5,0x7
    398a:	070a                	slli	a4,a4,0x2
    398c:	b4c78793          	addi	a5,a5,-1204 # 6b4c <TIMERN>
    3990:	97ba                	add	a5,a5,a4
    3992:	439c                	lw	a5,0(a5)
    3994:	873e                	mv	a4,a5
    3996:	fd040793          	addi	a5,s0,-48
    399a:	85be                	mv	a1,a5
    399c:	853a                	mv	a0,a4
    399e:	a0cfe0ef          	jal	ra,1baa <TIM_OC4Init>
C:\Users\16917\Desktop\Dual-core_Communication_Demo\Dual-core_Communication_Demo\MASTER\obj/../Libraries/seekfree_libraries/zf_pwm.c:252
    39a2:	fcc42783          	lw	a5,-52(s0)
    39a6:	0087d713          	srli	a4,a5,0x8
    39aa:	679d                	lui	a5,0x7
    39ac:	070a                	slli	a4,a4,0x2
    39ae:	b4c78793          	addi	a5,a5,-1204 # 6b4c <TIMERN>
    39b2:	97ba                	add	a5,a5,a4
    39b4:	439c                	lw	a5,0(a5)
    39b6:	45a1                	li	a1,8
    39b8:	853e                	mv	a0,a5
    39ba:	df8fe0ef          	jal	ra,1fb2 <TIM_OC4PreloadConfig>
C:\Users\16917\Desktop\Dual-core_Communication_Demo\Dual-core_Communication_Demo\MASTER\obj/../Libraries/seekfree_libraries/zf_pwm.c:253
    39be:	fcc42783          	lw	a5,-52(s0)
    39c2:	0087d713          	srli	a4,a5,0x8
    39c6:	679d                	lui	a5,0x7
    39c8:	070a                	slli	a4,a4,0x2
    39ca:	b4c78793          	addi	a5,a5,-1204 # 6b4c <TIMERN>
    39ce:	97ba                	add	a5,a5,a4
    39d0:	439c                	lw	a5,0(a5)
    39d2:	40000593          	li	a1,1024
    39d6:	853e                	mv	a0,a5
    39d8:	f22fe0ef          	jal	ra,20fa <TIM_OC4FastConfig>
C:\Users\16917\Desktop\Dual-core_Communication_Demo\Dual-core_Communication_Demo\MASTER\obj/../Libraries/seekfree_libraries/zf_pwm.c:256
    39dc:	fcc42783          	lw	a5,-52(s0)
    39e0:	0087d713          	srli	a4,a5,0x8
    39e4:	679d                	lui	a5,0x7
    39e6:	070a                	slli	a4,a4,0x2
    39e8:	b4c78793          	addi	a5,a5,-1204 # 6b4c <TIMERN>
    39ec:	97ba                	add	a5,a5,a4
    39ee:	439c                	lw	a5,0(a5)
    39f0:	4585                	li	a1,1
    39f2:	853e                	mv	a0,a5
    39f4:	b3cfe0ef          	jal	ra,1d30 <TIM_Cmd>
C:\Users\16917\Desktop\Dual-core_Communication_Demo\Dual-core_Communication_Demo\MASTER\obj/../Libraries/seekfree_libraries/zf_pwm.c:257
    39f8:	fcc42783          	lw	a5,-52(s0)
    39fc:	0087d713          	srli	a4,a5,0x8
    3a00:	679d                	lui	a5,0x7
    3a02:	070a                	slli	a4,a4,0x2
    3a04:	b4c78793          	addi	a5,a5,-1204 # 6b4c <TIMERN>
    3a08:	97ba                	add	a5,a5,a4
    3a0a:	439c                	lw	a5,0(a5)
    3a0c:	4585                	li	a1,1
    3a0e:	853e                	mv	a0,a5
    3a10:	b78fe0ef          	jal	ra,1d88 <TIM_CtrlPWMOutputs>
C:\Users\16917\Desktop\Dual-core_Communication_Demo\Dual-core_Communication_Demo\MASTER\obj/../Libraries/seekfree_libraries/zf_pwm.c:259
    3a14:	0001                	nop
    3a16:	50f2                	lw	ra,60(sp)
    3a18:	5462                	lw	s0,56(sp)
    3a1a:	6121                	addi	sp,sp,64
    3a1c:	8082                	ret

00003a1e <timer_gpio_quad_init>:
timer_gpio_quad_init():
C:\Users\16917\Desktop\Dual-core_Communication_Demo\Dual-core_Communication_Demo\MASTER\obj/../Libraries/seekfree_libraries/zf_qtimer.c:40
    3a1e:	1101                	addi	sp,sp,-32
    3a20:	ce06                	sw	ra,28(sp)
    3a22:	cc22                	sw	s0,24(sp)
    3a24:	1000                	addi	s0,sp,32
    3a26:	fea42623          	sw	a0,-20(s0)
    3a2a:	feb42423          	sw	a1,-24(s0)
C:\Users\16917\Desktop\Dual-core_Communication_Demo\Dual-core_Communication_Demo\MASTER\obj/../Libraries/seekfree_libraries/zf_qtimer.c:41
    3a2e:	fec42783          	lw	a5,-20(s0)
    3a32:	eb81                	bnez	a5,3a42 <timer_gpio_quad_init+0x24>
C:\Users\16917\Desktop\Dual-core_Communication_Demo\Dual-core_Communication_Demo\MASTER\obj/../Libraries/seekfree_libraries/zf_qtimer.c:41 (discriminator 1)
    3a34:	4691                	li	a3,4
    3a36:	4601                	li	a2,0
    3a38:	4581                	li	a1,0
    3a3a:	4521                	li	a0,8
    3a3c:	d50ff0ef          	jal	ra,2f8c <gpio_init>
    3a40:	a859                	j	3ad6 <timer_gpio_quad_init+0xb8>
C:\Users\16917\Desktop\Dual-core_Communication_Demo\Dual-core_Communication_Demo\MASTER\obj/../Libraries/seekfree_libraries/zf_qtimer.c:42
    3a42:	fec42703          	lw	a4,-20(s0)
    3a46:	4789                	li	a5,2
    3a48:	00f71963          	bne	a4,a5,3a5a <timer_gpio_quad_init+0x3c>
C:\Users\16917\Desktop\Dual-core_Communication_Demo\Dual-core_Communication_Demo\MASTER\obj/../Libraries/seekfree_libraries/zf_qtimer.c:42 (discriminator 1)
    3a4c:	4691                	li	a3,4
    3a4e:	4601                	li	a2,0
    3a50:	4581                	li	a1,0
    3a52:	4501                	li	a0,0
    3a54:	d38ff0ef          	jal	ra,2f8c <gpio_init>
    3a58:	a8bd                	j	3ad6 <timer_gpio_quad_init+0xb8>
C:\Users\16917\Desktop\Dual-core_Communication_Demo\Dual-core_Communication_Demo\MASTER\obj/../Libraries/seekfree_libraries/zf_qtimer.c:43
    3a5a:	fec42703          	lw	a4,-20(s0)
    3a5e:	4791                	li	a5,4
    3a60:	00f71963          	bne	a4,a5,3a72 <timer_gpio_quad_init+0x54>
C:\Users\16917\Desktop\Dual-core_Communication_Demo\Dual-core_Communication_Demo\MASTER\obj/../Libraries/seekfree_libraries/zf_qtimer.c:43 (discriminator 1)
    3a64:	4691                	li	a3,4
    3a66:	4601                	li	a2,0
    3a68:	4581                	li	a1,0
    3a6a:	453d                	li	a0,15
    3a6c:	d20ff0ef          	jal	ra,2f8c <gpio_init>
    3a70:	a09d                	j	3ad6 <timer_gpio_quad_init+0xb8>
C:\Users\16917\Desktop\Dual-core_Communication_Demo\Dual-core_Communication_Demo\MASTER\obj/../Libraries/seekfree_libraries/zf_qtimer.c:44
    3a72:	fec42703          	lw	a4,-20(s0)
    3a76:	4799                	li	a5,6
    3a78:	00f71963          	bne	a4,a5,3a8a <timer_gpio_quad_init+0x6c>
C:\Users\16917\Desktop\Dual-core_Communication_Demo\Dual-core_Communication_Demo\MASTER\obj/../Libraries/seekfree_libraries/zf_qtimer.c:44 (discriminator 1)
    3a7c:	4691                	li	a3,4
    3a7e:	4601                	li	a2,0
    3a80:	4581                	li	a1,0
    3a82:	4519                	li	a0,6
    3a84:	d08ff0ef          	jal	ra,2f8c <gpio_init>
    3a88:	a0b9                	j	3ad6 <timer_gpio_quad_init+0xb8>
C:\Users\16917\Desktop\Dual-core_Communication_Demo\Dual-core_Communication_Demo\MASTER\obj/../Libraries/seekfree_libraries/zf_qtimer.c:45
    3a8a:	fec42703          	lw	a4,-20(s0)
    3a8e:	47a1                	li	a5,8
    3a90:	00f71a63          	bne	a4,a5,3aa4 <timer_gpio_quad_init+0x86>
C:\Users\16917\Desktop\Dual-core_Communication_Demo\Dual-core_Communication_Demo\MASTER\obj/../Libraries/seekfree_libraries/zf_qtimer.c:45 (discriminator 1)
    3a94:	4691                	li	a3,4
    3a96:	4601                	li	a2,0
    3a98:	4581                	li	a1,0
    3a9a:	04600513          	li	a0,70
    3a9e:	ceeff0ef          	jal	ra,2f8c <gpio_init>
    3aa2:	a815                	j	3ad6 <timer_gpio_quad_init+0xb8>
C:\Users\16917\Desktop\Dual-core_Communication_Demo\Dual-core_Communication_Demo\MASTER\obj/../Libraries/seekfree_libraries/zf_qtimer.c:46
    3aa4:	fec42703          	lw	a4,-20(s0)
    3aa8:	47a9                	li	a5,10
    3aaa:	00f71a63          	bne	a4,a5,3abe <timer_gpio_quad_init+0xa0>
C:\Users\16917\Desktop\Dual-core_Communication_Demo\Dual-core_Communication_Demo\MASTER\obj/../Libraries/seekfree_libraries/zf_qtimer.c:46 (discriminator 1)
    3aae:	4691                	li	a3,4
    3ab0:	4601                	li	a2,0
    3ab2:	4581                	li	a1,0
    3ab4:	02400513          	li	a0,36
    3ab8:	cd4ff0ef          	jal	ra,2f8c <gpio_init>
    3abc:	a829                	j	3ad6 <timer_gpio_quad_init+0xb8>
C:\Users\16917\Desktop\Dual-core_Communication_Demo\Dual-core_Communication_Demo\MASTER\obj/../Libraries/seekfree_libraries/zf_qtimer.c:47
    3abe:	fec42703          	lw	a4,-20(s0)
    3ac2:	47b1                	li	a5,12
    3ac4:	00f71963          	bne	a4,a5,3ad6 <timer_gpio_quad_init+0xb8>
C:\Users\16917\Desktop\Dual-core_Communication_Demo\Dual-core_Communication_Demo\MASTER\obj/../Libraries/seekfree_libraries/zf_qtimer.c:47 (discriminator 1)
    3ac8:	4691                	li	a3,4
    3aca:	4601                	li	a2,0
    3acc:	4581                	li	a1,0
    3ace:	02600513          	li	a0,38
    3ad2:	cbaff0ef          	jal	ra,2f8c <gpio_init>
C:\Users\16917\Desktop\Dual-core_Communication_Demo\Dual-core_Communication_Demo\MASTER\obj/../Libraries/seekfree_libraries/zf_qtimer.c:49
    3ad6:	fe842703          	lw	a4,-24(s0)
    3ada:	4785                	li	a5,1
    3adc:	00f71963          	bne	a4,a5,3aee <timer_gpio_quad_init+0xd0>
C:\Users\16917\Desktop\Dual-core_Communication_Demo\Dual-core_Communication_Demo\MASTER\obj/../Libraries/seekfree_libraries/zf_qtimer.c:49 (discriminator 1)
    3ae0:	4691                	li	a3,4
    3ae2:	4601                	li	a2,0
    3ae4:	4581                	li	a1,0
    3ae6:	4525                	li	a0,9
    3ae8:	ca4ff0ef          	jal	ra,2f8c <gpio_init>
C:\Users\16917\Desktop\Dual-core_Communication_Demo\Dual-core_Communication_Demo\MASTER\obj/../Libraries/seekfree_libraries/zf_qtimer.c:57 (discriminator 1)
    3aec:	a861                	j	3b84 <timer_gpio_quad_init+0x166>
C:\Users\16917\Desktop\Dual-core_Communication_Demo\Dual-core_Communication_Demo\MASTER\obj/../Libraries/seekfree_libraries/zf_qtimer.c:50
    3aee:	fe842703          	lw	a4,-24(s0)
    3af2:	478d                	li	a5,3
    3af4:	00f71963          	bne	a4,a5,3b06 <timer_gpio_quad_init+0xe8>
C:\Users\16917\Desktop\Dual-core_Communication_Demo\Dual-core_Communication_Demo\MASTER\obj/../Libraries/seekfree_libraries/zf_qtimer.c:50 (discriminator 1)
    3af8:	4691                	li	a3,4
    3afa:	4601                	li	a2,0
    3afc:	4581                	li	a1,0
    3afe:	4505                	li	a0,1
    3b00:	c8cff0ef          	jal	ra,2f8c <gpio_init>
C:\Users\16917\Desktop\Dual-core_Communication_Demo\Dual-core_Communication_Demo\MASTER\obj/../Libraries/seekfree_libraries/zf_qtimer.c:57 (discriminator 1)
    3b04:	a041                	j	3b84 <timer_gpio_quad_init+0x166>
C:\Users\16917\Desktop\Dual-core_Communication_Demo\Dual-core_Communication_Demo\MASTER\obj/../Libraries/seekfree_libraries/zf_qtimer.c:51
    3b06:	fe842703          	lw	a4,-24(s0)
    3b0a:	4795                	li	a5,5
    3b0c:	00f71a63          	bne	a4,a5,3b20 <timer_gpio_quad_init+0x102>
C:\Users\16917\Desktop\Dual-core_Communication_Demo\Dual-core_Communication_Demo\MASTER\obj/../Libraries/seekfree_libraries/zf_qtimer.c:51 (discriminator 1)
    3b10:	4691                	li	a3,4
    3b12:	4601                	li	a2,0
    3b14:	4581                	li	a1,0
    3b16:	02300513          	li	a0,35
    3b1a:	c72ff0ef          	jal	ra,2f8c <gpio_init>
C:\Users\16917\Desktop\Dual-core_Communication_Demo\Dual-core_Communication_Demo\MASTER\obj/../Libraries/seekfree_libraries/zf_qtimer.c:57 (discriminator 1)
    3b1e:	a09d                	j	3b84 <timer_gpio_quad_init+0x166>
C:\Users\16917\Desktop\Dual-core_Communication_Demo\Dual-core_Communication_Demo\MASTER\obj/../Libraries/seekfree_libraries/zf_qtimer.c:52
    3b20:	fe842703          	lw	a4,-24(s0)
    3b24:	479d                	li	a5,7
    3b26:	00f71963          	bne	a4,a5,3b38 <timer_gpio_quad_init+0x11a>
C:\Users\16917\Desktop\Dual-core_Communication_Demo\Dual-core_Communication_Demo\MASTER\obj/../Libraries/seekfree_libraries/zf_qtimer.c:52 (discriminator 1)
    3b2a:	4691                	li	a3,4
    3b2c:	4601                	li	a2,0
    3b2e:	4581                	li	a1,0
    3b30:	451d                	li	a0,7
    3b32:	c5aff0ef          	jal	ra,2f8c <gpio_init>
C:\Users\16917\Desktop\Dual-core_Communication_Demo\Dual-core_Communication_Demo\MASTER\obj/../Libraries/seekfree_libraries/zf_qtimer.c:57 (discriminator 1)
    3b36:	a0b9                	j	3b84 <timer_gpio_quad_init+0x166>
C:\Users\16917\Desktop\Dual-core_Communication_Demo\Dual-core_Communication_Demo\MASTER\obj/../Libraries/seekfree_libraries/zf_qtimer.c:53
    3b38:	fe842703          	lw	a4,-24(s0)
    3b3c:	47a5                	li	a5,9
    3b3e:	00f71a63          	bne	a4,a5,3b52 <timer_gpio_quad_init+0x134>
C:\Users\16917\Desktop\Dual-core_Communication_Demo\Dual-core_Communication_Demo\MASTER\obj/../Libraries/seekfree_libraries/zf_qtimer.c:53 (discriminator 1)
    3b42:	4691                	li	a3,4
    3b44:	4601                	li	a2,0
    3b46:	4581                	li	a1,0
    3b48:	04700513          	li	a0,71
    3b4c:	c40ff0ef          	jal	ra,2f8c <gpio_init>
C:\Users\16917\Desktop\Dual-core_Communication_Demo\Dual-core_Communication_Demo\MASTER\obj/../Libraries/seekfree_libraries/zf_qtimer.c:57 (discriminator 1)
    3b50:	a815                	j	3b84 <timer_gpio_quad_init+0x166>
C:\Users\16917\Desktop\Dual-core_Communication_Demo\Dual-core_Communication_Demo\MASTER\obj/../Libraries/seekfree_libraries/zf_qtimer.c:54
    3b52:	fe842703          	lw	a4,-24(s0)
    3b56:	47ad                	li	a5,11
    3b58:	00f71a63          	bne	a4,a5,3b6c <timer_gpio_quad_init+0x14e>
C:\Users\16917\Desktop\Dual-core_Communication_Demo\Dual-core_Communication_Demo\MASTER\obj/../Libraries/seekfree_libraries/zf_qtimer.c:54 (discriminator 1)
    3b5c:	4691                	li	a3,4
    3b5e:	4601                	li	a2,0
    3b60:	4581                	li	a1,0
    3b62:	02500513          	li	a0,37
    3b66:	c26ff0ef          	jal	ra,2f8c <gpio_init>
C:\Users\16917\Desktop\Dual-core_Communication_Demo\Dual-core_Communication_Demo\MASTER\obj/../Libraries/seekfree_libraries/zf_qtimer.c:57 (discriminator 1)
    3b6a:	a829                	j	3b84 <timer_gpio_quad_init+0x166>
C:\Users\16917\Desktop\Dual-core_Communication_Demo\Dual-core_Communication_Demo\MASTER\obj/../Libraries/seekfree_libraries/zf_qtimer.c:55
    3b6c:	fe842703          	lw	a4,-24(s0)
    3b70:	47b5                	li	a5,13
    3b72:	00f71963          	bne	a4,a5,3b84 <timer_gpio_quad_init+0x166>
C:\Users\16917\Desktop\Dual-core_Communication_Demo\Dual-core_Communication_Demo\MASTER\obj/../Libraries/seekfree_libraries/zf_qtimer.c:55 (discriminator 1)
    3b76:	4691                	li	a3,4
    3b78:	4601                	li	a2,0
    3b7a:	4581                	li	a1,0
    3b7c:	02700513          	li	a0,39
    3b80:	c0cff0ef          	jal	ra,2f8c <gpio_init>
C:\Users\16917\Desktop\Dual-core_Communication_Demo\Dual-core_Communication_Demo\MASTER\obj/../Libraries/seekfree_libraries/zf_qtimer.c:57
    3b84:	0001                	nop
    3b86:	40f2                	lw	ra,28(sp)
    3b88:	4462                	lw	s0,24(sp)
    3b8a:	6105                	addi	sp,sp,32
    3b8c:	8082                	ret

00003b8e <timer_quad_init>:
timer_quad_init():
C:\Users\16917\Desktop\Dual-core_Communication_Demo\Dual-core_Communication_Demo\MASTER\obj/../Libraries/seekfree_libraries/zf_qtimer.c:69
    3b8e:	7179                	addi	sp,sp,-48
    3b90:	d606                	sw	ra,44(sp)
    3b92:	d422                	sw	s0,40(sp)
    3b94:	1800                	addi	s0,sp,48
    3b96:	fca42e23          	sw	a0,-36(s0)
    3b9a:	fcb42c23          	sw	a1,-40(s0)
    3b9e:	fcc42a23          	sw	a2,-44(s0)
C:\Users\16917\Desktop\Dual-core_Communication_Demo\Dual-core_Communication_Demo\MASTER\obj/../Libraries/seekfree_libraries/zf_qtimer.c:72
    3ba2:	fdc42783          	lw	a5,-36(s0)
    3ba6:	eb81                	bnez	a5,3bb6 <timer_quad_init+0x28>
C:\Users\16917\Desktop\Dual-core_Communication_Demo\Dual-core_Communication_Demo\MASTER\obj/../Libraries/seekfree_libraries/zf_qtimer.c:72 (discriminator 1)
    3ba8:	4585                	li	a1,1
    3baa:	6785                	lui	a5,0x1
    3bac:	80078513          	addi	a0,a5,-2048 # 800 <__stack_size>
    3bb0:	84dfd0ef          	jal	ra,13fc <RCC_APB2PeriphClockCmd>
    3bb4:	a835                	j	3bf0 <timer_quad_init+0x62>
C:\Users\16917\Desktop\Dual-core_Communication_Demo\Dual-core_Communication_Demo\MASTER\obj/../Libraries/seekfree_libraries/zf_qtimer.c:73
    3bb6:	fdc42703          	lw	a4,-36(s0)
    3bba:	4785                	li	a5,1
    3bbc:	00f71763          	bne	a4,a5,3bca <timer_quad_init+0x3c>
C:\Users\16917\Desktop\Dual-core_Communication_Demo\Dual-core_Communication_Demo\MASTER\obj/../Libraries/seekfree_libraries/zf_qtimer.c:73 (discriminator 1)
    3bc0:	4585                	li	a1,1
    3bc2:	4505                	li	a0,1
    3bc4:	87ffd0ef          	jal	ra,1442 <RCC_APB1PeriphClockCmd>
    3bc8:	a025                	j	3bf0 <timer_quad_init+0x62>
C:\Users\16917\Desktop\Dual-core_Communication_Demo\Dual-core_Communication_Demo\MASTER\obj/../Libraries/seekfree_libraries/zf_qtimer.c:74
    3bca:	fdc42703          	lw	a4,-36(s0)
    3bce:	4789                	li	a5,2
    3bd0:	00f71763          	bne	a4,a5,3bde <timer_quad_init+0x50>
C:\Users\16917\Desktop\Dual-core_Communication_Demo\Dual-core_Communication_Demo\MASTER\obj/../Libraries/seekfree_libraries/zf_qtimer.c:74 (discriminator 1)
    3bd4:	4585                	li	a1,1
    3bd6:	4509                	li	a0,2
    3bd8:	86bfd0ef          	jal	ra,1442 <RCC_APB1PeriphClockCmd>
    3bdc:	a811                	j	3bf0 <timer_quad_init+0x62>
C:\Users\16917\Desktop\Dual-core_Communication_Demo\Dual-core_Communication_Demo\MASTER\obj/../Libraries/seekfree_libraries/zf_qtimer.c:75
    3bde:	fdc42703          	lw	a4,-36(s0)
    3be2:	478d                	li	a5,3
    3be4:	00f71663          	bne	a4,a5,3bf0 <timer_quad_init+0x62>
C:\Users\16917\Desktop\Dual-core_Communication_Demo\Dual-core_Communication_Demo\MASTER\obj/../Libraries/seekfree_libraries/zf_qtimer.c:75 (discriminator 1)
    3be8:	4585                	li	a1,1
    3bea:	4511                	li	a0,4
    3bec:	857fd0ef          	jal	ra,1442 <RCC_APB1PeriphClockCmd>
C:\Users\16917\Desktop\Dual-core_Communication_Demo\Dual-core_Communication_Demo\MASTER\obj/../Libraries/seekfree_libraries/zf_qtimer.c:77
    3bf0:	fd442583          	lw	a1,-44(s0)
    3bf4:	fd842503          	lw	a0,-40(s0)
    3bf8:	e27ff0ef          	jal	ra,3a1e <timer_gpio_quad_init>
C:\Users\16917\Desktop\Dual-core_Communication_Demo\Dual-core_Communication_Demo\MASTER\obj/../Libraries/seekfree_libraries/zf_qtimer.c:79
    3bfc:	4585                	li	a1,1
    3bfe:	4505                	li	a0,1
    3c00:	ffcfd0ef          	jal	ra,13fc <RCC_APB2PeriphClockCmd>
C:\Users\16917\Desktop\Dual-core_Communication_Demo\Dual-core_Communication_Demo\MASTER\obj/../Libraries/seekfree_libraries/zf_qtimer.c:81
    3c04:	fd842703          	lw	a4,-40(s0)
    3c08:	4791                	li	a5,4
    3c0a:	00f71f63          	bne	a4,a5,3c28 <timer_quad_init+0x9a>
C:\Users\16917\Desktop\Dual-core_Communication_Demo\Dual-core_Communication_Demo\MASTER\obj/../Libraries/seekfree_libraries/zf_qtimer.c:81 (discriminator 1)
    3c0e:	fd442703          	lw	a4,-44(s0)
    3c12:	4795                	li	a5,5
    3c14:	00f71a63          	bne	a4,a5,3c28 <timer_quad_init+0x9a>
C:\Users\16917\Desktop\Dual-core_Communication_Demo\Dual-core_Communication_Demo\MASTER\obj/../Libraries/seekfree_libraries/zf_qtimer.c:82
    3c18:	4585                	li	a1,1
    3c1a:	001807b7          	lui	a5,0x180
    3c1e:	30078513          	addi	a0,a5,768 # 180300 <_data_lma+0x179568>
    3c22:	a90fd0ef          	jal	ra,eb2 <GPIO_PinRemapConfig>
    3c26:	a0a1                	j	3c6e <timer_quad_init+0xe0>
C:\Users\16917\Desktop\Dual-core_Communication_Demo\Dual-core_Communication_Demo\MASTER\obj/../Libraries/seekfree_libraries/zf_qtimer.c:83
    3c28:	fd842703          	lw	a4,-40(s0)
    3c2c:	47a1                	li	a5,8
    3c2e:	00f71f63          	bne	a4,a5,3c4c <timer_quad_init+0xbe>
C:\Users\16917\Desktop\Dual-core_Communication_Demo\Dual-core_Communication_Demo\MASTER\obj/../Libraries/seekfree_libraries/zf_qtimer.c:83 (discriminator 1)
    3c32:	fd442703          	lw	a4,-44(s0)
    3c36:	47a5                	li	a5,9
    3c38:	00f71a63          	bne	a4,a5,3c4c <timer_quad_init+0xbe>
C:\Users\16917\Desktop\Dual-core_Communication_Demo\Dual-core_Communication_Demo\MASTER\obj/../Libraries/seekfree_libraries/zf_qtimer.c:84
    3c3c:	4585                	li	a1,1
    3c3e:	001a17b7          	lui	a5,0x1a1
    3c42:	c0078513          	addi	a0,a5,-1024 # 1a0c00 <_data_lma+0x199e68>
    3c46:	a6cfd0ef          	jal	ra,eb2 <GPIO_PinRemapConfig>
    3c4a:	a015                	j	3c6e <timer_quad_init+0xe0>
C:\Users\16917\Desktop\Dual-core_Communication_Demo\Dual-core_Communication_Demo\MASTER\obj/../Libraries/seekfree_libraries/zf_qtimer.c:85
    3c4c:	fd842703          	lw	a4,-40(s0)
    3c50:	47a9                	li	a5,10
    3c52:	00f71e63          	bne	a4,a5,3c6e <timer_quad_init+0xe0>
C:\Users\16917\Desktop\Dual-core_Communication_Demo\Dual-core_Communication_Demo\MASTER\obj/../Libraries/seekfree_libraries/zf_qtimer.c:85 (discriminator 1)
    3c56:	fd442703          	lw	a4,-44(s0)
    3c5a:	47ad                	li	a5,11
    3c5c:	00f71963          	bne	a4,a5,3c6e <timer_quad_init+0xe0>
C:\Users\16917\Desktop\Dual-core_Communication_Demo\Dual-core_Communication_Demo\MASTER\obj/../Libraries/seekfree_libraries/zf_qtimer.c:86
    3c60:	4585                	li	a1,1
    3c62:	001a17b7          	lui	a5,0x1a1
    3c66:	80078513          	addi	a0,a5,-2048 # 1a0800 <_data_lma+0x199a68>
    3c6a:	a48fd0ef          	jal	ra,eb2 <GPIO_PinRemapConfig>
C:\Users\16917\Desktop\Dual-core_Communication_Demo\Dual-core_Communication_Demo\MASTER\obj/../Libraries/seekfree_libraries/zf_qtimer.c:88
    3c6e:	fe440793          	addi	a5,s0,-28
    3c72:	853e                	mv	a0,a5
    3c74:	880fe0ef          	jal	ra,1cf4 <TIM_TimeBaseStructInit>
C:\Users\16917\Desktop\Dual-core_Communication_Demo\Dual-core_Communication_Demo\MASTER\obj/../Libraries/seekfree_libraries/zf_qtimer.c:89
    3c78:	4785                	li	a5,1
    3c7a:	fef41223          	sh	a5,-28(s0)
C:\Users\16917\Desktop\Dual-core_Communication_Demo\Dual-core_Communication_Demo\MASTER\obj/../Libraries/seekfree_libraries/zf_qtimer.c:90
    3c7e:	57fd                	li	a5,-1
    3c80:	fef41423          	sh	a5,-24(s0)
C:\Users\16917\Desktop\Dual-core_Communication_Demo\Dual-core_Communication_Demo\MASTER\obj/../Libraries/seekfree_libraries/zf_qtimer.c:91
    3c84:	fe041523          	sh	zero,-22(s0)
C:\Users\16917\Desktop\Dual-core_Communication_Demo\Dual-core_Communication_Demo\MASTER\obj/../Libraries/seekfree_libraries/zf_qtimer.c:92
    3c88:	fe041323          	sh	zero,-26(s0)
C:\Users\16917\Desktop\Dual-core_Communication_Demo\Dual-core_Communication_Demo\MASTER\obj/../Libraries/seekfree_libraries/zf_qtimer.c:93
    3c8c:	fe040623          	sb	zero,-20(s0)
C:\Users\16917\Desktop\Dual-core_Communication_Demo\Dual-core_Communication_Demo\MASTER\obj/../Libraries/seekfree_libraries/zf_qtimer.c:94
    3c90:	679d                	lui	a5,0x7
    3c92:	fdc42703          	lw	a4,-36(s0)
    3c96:	070a                	slli	a4,a4,0x2
    3c98:	b4c78793          	addi	a5,a5,-1204 # 6b4c <TIMERN>
    3c9c:	97ba                	add	a5,a5,a4
    3c9e:	439c                	lw	a5,0(a5)
    3ca0:	873e                	mv	a4,a5
    3ca2:	fe440793          	addi	a5,s0,-28
    3ca6:	85be                	mv	a1,a5
    3ca8:	853a                	mv	a0,a4
    3caa:	931fd0ef          	jal	ra,15da <TIM_TimeBaseInit>
C:\Users\16917\Desktop\Dual-core_Communication_Demo\Dual-core_Communication_Demo\MASTER\obj/../Libraries/seekfree_libraries/zf_qtimer.c:95
    3cae:	679d                	lui	a5,0x7
    3cb0:	fdc42703          	lw	a4,-36(s0)
    3cb4:	070a                	slli	a4,a4,0x2
    3cb6:	b4c78793          	addi	a5,a5,-1204 # 6b4c <TIMERN>
    3cba:	97ba                	add	a5,a5,a4
    3cbc:	439c                	lw	a5,0(a5)
    3cbe:	4681                	li	a3,0
    3cc0:	4601                	li	a2,0
    3cc2:	4589                	li	a1,2
    3cc4:	853e                	mv	a0,a5
    3cc6:	922fe0ef          	jal	ra,1de8 <TIM_EncoderInterfaceConfig>
C:\Users\16917\Desktop\Dual-core_Communication_Demo\Dual-core_Communication_Demo\MASTER\obj/../Libraries/seekfree_libraries/zf_qtimer.c:97
    3cca:	679d                	lui	a5,0x7
    3ccc:	fdc42703          	lw	a4,-36(s0)
    3cd0:	070a                	slli	a4,a4,0x2
    3cd2:	b4c78793          	addi	a5,a5,-1204 # 6b4c <TIMERN>
    3cd6:	97ba                	add	a5,a5,a4
    3cd8:	439c                	lw	a5,0(a5)
    3cda:	4585                	li	a1,1
    3cdc:	853e                	mv	a0,a5
    3cde:	852fe0ef          	jal	ra,1d30 <TIM_Cmd>
C:\Users\16917\Desktop\Dual-core_Communication_Demo\Dual-core_Communication_Demo\MASTER\obj/../Libraries/seekfree_libraries/zf_qtimer.c:98
    3ce2:	0001                	nop
    3ce4:	50b2                	lw	ra,44(sp)
    3ce6:	5422                	lw	s0,40(sp)
    3ce8:	6145                	addi	sp,sp,48
    3cea:	8082                	ret

00003cec <timer_quad_get>:
timer_quad_get():
C:\Users\16917\Desktop\Dual-core_Communication_Demo\Dual-core_Communication_Demo\MASTER\obj/../Libraries/seekfree_libraries/zf_qtimer.c:107
    3cec:	7179                	addi	sp,sp,-48
    3cee:	d622                	sw	s0,44(sp)
    3cf0:	1800                	addi	s0,sp,48
    3cf2:	fca42e23          	sw	a0,-36(s0)
C:\Users\16917\Desktop\Dual-core_Communication_Demo\Dual-core_Communication_Demo\MASTER\obj/../Libraries/seekfree_libraries/zf_qtimer.c:108
    3cf6:	679d                	lui	a5,0x7
    3cf8:	fdc42703          	lw	a4,-36(s0)
    3cfc:	070a                	slli	a4,a4,0x2
    3cfe:	b4c78793          	addi	a5,a5,-1204 # 6b4c <TIMERN>
    3d02:	97ba                	add	a5,a5,a4
    3d04:	439c                	lw	a5,0(a5)
    3d06:	0247d783          	lhu	a5,36(a5)
    3d0a:	07c2                	slli	a5,a5,0x10
    3d0c:	83c1                	srli	a5,a5,0x10
    3d0e:	fef41723          	sh	a5,-18(s0)
C:\Users\16917\Desktop\Dual-core_Communication_Demo\Dual-core_Communication_Demo\MASTER\obj/../Libraries/seekfree_libraries/zf_qtimer.c:109
    3d12:	fee41783          	lh	a5,-18(s0)
C:\Users\16917\Desktop\Dual-core_Communication_Demo\Dual-core_Communication_Demo\MASTER\obj/../Libraries/seekfree_libraries/zf_qtimer.c:110
    3d16:	853e                	mv	a0,a5
    3d18:	5432                	lw	s0,44(sp)
    3d1a:	6145                	addi	sp,sp,48
    3d1c:	8082                	ret

00003d1e <timer_quad_clear>:
timer_quad_clear():
C:\Users\16917\Desktop\Dual-core_Communication_Demo\Dual-core_Communication_Demo\MASTER\obj/../Libraries/seekfree_libraries/zf_qtimer.c:119
    3d1e:	1101                	addi	sp,sp,-32
    3d20:	ce22                	sw	s0,28(sp)
    3d22:	1000                	addi	s0,sp,32
    3d24:	fea42623          	sw	a0,-20(s0)
C:\Users\16917\Desktop\Dual-core_Communication_Demo\Dual-core_Communication_Demo\MASTER\obj/../Libraries/seekfree_libraries/zf_qtimer.c:120
    3d28:	679d                	lui	a5,0x7
    3d2a:	fec42703          	lw	a4,-20(s0)
    3d2e:	070a                	slli	a4,a4,0x2
    3d30:	b4c78793          	addi	a5,a5,-1204 # 6b4c <TIMERN>
    3d34:	97ba                	add	a5,a5,a4
    3d36:	439c                	lw	a5,0(a5)
    3d38:	02079223          	sh	zero,36(a5)
C:\Users\16917\Desktop\Dual-core_Communication_Demo\Dual-core_Communication_Demo\MASTER\obj/../Libraries/seekfree_libraries/zf_qtimer.c:121
    3d3c:	0001                	nop
    3d3e:	4472                	lw	s0,28(sp)
    3d40:	6105                	addi	sp,sp,32
    3d42:	8082                	ret

00003d44 <spi_gpio_init>:
spi_gpio_init():
C:\Users\16917\Desktop\Dual-core_Communication_Demo\Dual-core_Communication_Demo\MASTER\obj/../Libraries/seekfree_libraries/zf_spi.c:41
    3d44:	1101                	addi	sp,sp,-32
    3d46:	ce06                	sw	ra,28(sp)
    3d48:	cc22                	sw	s0,24(sp)
    3d4a:	1000                	addi	s0,sp,32
    3d4c:	fea42623          	sw	a0,-20(s0)
    3d50:	feb42423          	sw	a1,-24(s0)
    3d54:	fec42223          	sw	a2,-28(s0)
    3d58:	fed42023          	sw	a3,-32(s0)
C:\Users\16917\Desktop\Dual-core_Communication_Demo\Dual-core_Communication_Demo\MASTER\obj/../Libraries/seekfree_libraries/zf_spi.c:42
    3d5c:	fec42783          	lw	a5,-20(s0)
    3d60:	eb89                	bnez	a5,3d72 <spi_gpio_init+0x2e>
C:\Users\16917\Desktop\Dual-core_Communication_Demo\Dual-core_Communication_Demo\MASTER\obj/../Libraries/seekfree_libraries/zf_spi.c:42 (discriminator 1)
    3d62:	31800693          	li	a3,792
    3d66:	4605                	li	a2,1
    3d68:	4585                	li	a1,1
    3d6a:	4515                	li	a0,5
    3d6c:	a20ff0ef          	jal	ra,2f8c <gpio_init>
    3d70:	a899                	j	3dc6 <spi_gpio_init+0x82>
C:\Users\16917\Desktop\Dual-core_Communication_Demo\Dual-core_Communication_Demo\MASTER\obj/../Libraries/seekfree_libraries/zf_spi.c:43
    3d72:	fec42703          	lw	a4,-20(s0)
    3d76:	47c1                	li	a5,16
    3d78:	00f71b63          	bne	a4,a5,3d8e <spi_gpio_init+0x4a>
C:\Users\16917\Desktop\Dual-core_Communication_Demo\Dual-core_Communication_Demo\MASTER\obj/../Libraries/seekfree_libraries/zf_spi.c:43 (discriminator 1)
    3d7c:	31800693          	li	a3,792
    3d80:	4605                	li	a2,1
    3d82:	4585                	li	a1,1
    3d84:	02300513          	li	a0,35
    3d88:	a04ff0ef          	jal	ra,2f8c <gpio_init>
    3d8c:	a82d                	j	3dc6 <spi_gpio_init+0x82>
C:\Users\16917\Desktop\Dual-core_Communication_Demo\Dual-core_Communication_Demo\MASTER\obj/../Libraries/seekfree_libraries/zf_spi.c:44
    3d8e:	fec42703          	lw	a4,-20(s0)
    3d92:	02000793          	li	a5,32
    3d96:	00f71b63          	bne	a4,a5,3dac <spi_gpio_init+0x68>
C:\Users\16917\Desktop\Dual-core_Communication_Demo\Dual-core_Communication_Demo\MASTER\obj/../Libraries/seekfree_libraries/zf_spi.c:44 (discriminator 1)
    3d9a:	31800693          	li	a3,792
    3d9e:	4605                	li	a2,1
    3da0:	4585                	li	a1,1
    3da2:	02d00513          	li	a0,45
    3da6:	9e6ff0ef          	jal	ra,2f8c <gpio_init>
    3daa:	a831                	j	3dc6 <spi_gpio_init+0x82>
C:\Users\16917\Desktop\Dual-core_Communication_Demo\Dual-core_Communication_Demo\MASTER\obj/../Libraries/seekfree_libraries/zf_spi.c:45
    3dac:	6799                	lui	a5,0x6
    3dae:	51078693          	addi	a3,a5,1296 # 6510 <_exit+0x4>
    3db2:	679d                	lui	a5,0x7
    3db4:	b5c78613          	addi	a2,a5,-1188 # 6b5c <__func__.3348>
    3db8:	02d00593          	li	a1,45
    3dbc:	6799                	lui	a5,0x6
    3dbe:	51478513          	addi	a0,a5,1300 # 6514 <_exit+0x8>
    3dc2:	50a010ef          	jal	ra,52cc <__assert_func>
C:\Users\16917\Desktop\Dual-core_Communication_Demo\Dual-core_Communication_Demo\MASTER\obj/../Libraries/seekfree_libraries/zf_spi.c:47
    3dc6:	fe842703          	lw	a4,-24(s0)
    3dca:	4785                	li	a5,1
    3dcc:	00f71a63          	bne	a4,a5,3de0 <spi_gpio_init+0x9c>
C:\Users\16917\Desktop\Dual-core_Communication_Demo\Dual-core_Communication_Demo\MASTER\obj/../Libraries/seekfree_libraries/zf_spi.c:47 (discriminator 1)
    3dd0:	31800693          	li	a3,792
    3dd4:	4605                	li	a2,1
    3dd6:	4585                	li	a1,1
    3dd8:	451d                	li	a0,7
    3dda:	9b2ff0ef          	jal	ra,2f8c <gpio_init>
    3dde:	a899                	j	3e34 <spi_gpio_init+0xf0>
C:\Users\16917\Desktop\Dual-core_Communication_Demo\Dual-core_Communication_Demo\MASTER\obj/../Libraries/seekfree_libraries/zf_spi.c:48
    3de0:	fe842703          	lw	a4,-24(s0)
    3de4:	47c5                	li	a5,17
    3de6:	00f71b63          	bne	a4,a5,3dfc <spi_gpio_init+0xb8>
C:\Users\16917\Desktop\Dual-core_Communication_Demo\Dual-core_Communication_Demo\MASTER\obj/../Libraries/seekfree_libraries/zf_spi.c:48 (discriminator 1)
    3dea:	31800693          	li	a3,792
    3dee:	4605                	li	a2,1
    3df0:	4585                	li	a1,1
    3df2:	02500513          	li	a0,37
    3df6:	996ff0ef          	jal	ra,2f8c <gpio_init>
    3dfa:	a82d                	j	3e34 <spi_gpio_init+0xf0>
C:\Users\16917\Desktop\Dual-core_Communication_Demo\Dual-core_Communication_Demo\MASTER\obj/../Libraries/seekfree_libraries/zf_spi.c:49
    3dfc:	fe842703          	lw	a4,-24(s0)
    3e00:	02100793          	li	a5,33
    3e04:	00f71b63          	bne	a4,a5,3e1a <spi_gpio_init+0xd6>
C:\Users\16917\Desktop\Dual-core_Communication_Demo\Dual-core_Communication_Demo\MASTER\obj/../Libraries/seekfree_libraries/zf_spi.c:49 (discriminator 1)
    3e08:	31800693          	li	a3,792
    3e0c:	4605                	li	a2,1
    3e0e:	4585                	li	a1,1
    3e10:	02f00513          	li	a0,47
    3e14:	978ff0ef          	jal	ra,2f8c <gpio_init>
    3e18:	a831                	j	3e34 <spi_gpio_init+0xf0>
C:\Users\16917\Desktop\Dual-core_Communication_Demo\Dual-core_Communication_Demo\MASTER\obj/../Libraries/seekfree_libraries/zf_spi.c:50
    3e1a:	6799                	lui	a5,0x6
    3e1c:	51078693          	addi	a3,a5,1296 # 6510 <_exit+0x4>
    3e20:	679d                	lui	a5,0x7
    3e22:	b5c78613          	addi	a2,a5,-1188 # 6b5c <__func__.3348>
    3e26:	03200593          	li	a1,50
    3e2a:	6799                	lui	a5,0x6
    3e2c:	51478513          	addi	a0,a5,1300 # 6514 <_exit+0x8>
    3e30:	49c010ef          	jal	ra,52cc <__assert_func>
C:\Users\16917\Desktop\Dual-core_Communication_Demo\Dual-core_Communication_Demo\MASTER\obj/../Libraries/seekfree_libraries/zf_spi.c:52
    3e34:	fe442703          	lw	a4,-28(s0)
    3e38:	4789                	li	a5,2
    3e3a:	00f71a63          	bne	a4,a5,3e4e <spi_gpio_init+0x10a>
C:\Users\16917\Desktop\Dual-core_Communication_Demo\Dual-core_Communication_Demo\MASTER\obj/../Libraries/seekfree_libraries/zf_spi.c:52 (discriminator 1)
    3e3e:	31800693          	li	a3,792
    3e42:	4605                	li	a2,1
    3e44:	4585                	li	a1,1
    3e46:	4519                	li	a0,6
    3e48:	944ff0ef          	jal	ra,2f8c <gpio_init>
    3e4c:	a0b5                	j	3eb8 <spi_gpio_init+0x174>
C:\Users\16917\Desktop\Dual-core_Communication_Demo\Dual-core_Communication_Demo\MASTER\obj/../Libraries/seekfree_libraries/zf_spi.c:53
    3e4e:	fe442703          	lw	a4,-28(s0)
    3e52:	47c9                	li	a5,18
    3e54:	00f71b63          	bne	a4,a5,3e6a <spi_gpio_init+0x126>
C:\Users\16917\Desktop\Dual-core_Communication_Demo\Dual-core_Communication_Demo\MASTER\obj/../Libraries/seekfree_libraries/zf_spi.c:53 (discriminator 1)
    3e58:	31800693          	li	a3,792
    3e5c:	4605                	li	a2,1
    3e5e:	4585                	li	a1,1
    3e60:	02400513          	li	a0,36
    3e64:	928ff0ef          	jal	ra,2f8c <gpio_init>
    3e68:	a881                	j	3eb8 <spi_gpio_init+0x174>
C:\Users\16917\Desktop\Dual-core_Communication_Demo\Dual-core_Communication_Demo\MASTER\obj/../Libraries/seekfree_libraries/zf_spi.c:54
    3e6a:	fe442703          	lw	a4,-28(s0)
    3e6e:	02200793          	li	a5,34
    3e72:	00f71b63          	bne	a4,a5,3e88 <spi_gpio_init+0x144>
C:\Users\16917\Desktop\Dual-core_Communication_Demo\Dual-core_Communication_Demo\MASTER\obj/../Libraries/seekfree_libraries/zf_spi.c:54 (discriminator 1)
    3e76:	31800693          	li	a3,792
    3e7a:	4605                	li	a2,1
    3e7c:	4585                	li	a1,1
    3e7e:	02e00513          	li	a0,46
    3e82:	90aff0ef          	jal	ra,2f8c <gpio_init>
    3e86:	a80d                	j	3eb8 <spi_gpio_init+0x174>
C:\Users\16917\Desktop\Dual-core_Communication_Demo\Dual-core_Communication_Demo\MASTER\obj/../Libraries/seekfree_libraries/zf_spi.c:55
    3e88:	fe442703          	lw	a4,-28(s0)
    3e8c:	02300793          	li	a5,35
    3e90:	00f71763          	bne	a4,a5,3e9e <spi_gpio_init+0x15a>
C:\Users\16917\Desktop\Dual-core_Communication_Demo\Dual-core_Communication_Demo\MASTER\obj/../Libraries/seekfree_libraries/zf_spi.c:55 (discriminator 1)
    3e94:	02300793          	li	a5,35
    3e98:	fef42223          	sw	a5,-28(s0)
    3e9c:	a831                	j	3eb8 <spi_gpio_init+0x174>
C:\Users\16917\Desktop\Dual-core_Communication_Demo\Dual-core_Communication_Demo\MASTER\obj/../Libraries/seekfree_libraries/zf_spi.c:56
    3e9e:	6799                	lui	a5,0x6
    3ea0:	51078693          	addi	a3,a5,1296 # 6510 <_exit+0x4>
    3ea4:	679d                	lui	a5,0x7
    3ea6:	b5c78613          	addi	a2,a5,-1188 # 6b5c <__func__.3348>
    3eaa:	03800593          	li	a1,56
    3eae:	6799                	lui	a5,0x6
    3eb0:	51478513          	addi	a0,a5,1300 # 6514 <_exit+0x8>
    3eb4:	418010ef          	jal	ra,52cc <__assert_func>
C:\Users\16917\Desktop\Dual-core_Communication_Demo\Dual-core_Communication_Demo\MASTER\obj/../Libraries/seekfree_libraries/zf_spi.c:59
    3eb8:	31000693          	li	a3,784
    3ebc:	4605                	li	a2,1
    3ebe:	4585                	li	a1,1
    3ec0:	fe042503          	lw	a0,-32(s0)
    3ec4:	8c8ff0ef          	jal	ra,2f8c <gpio_init>
C:\Users\16917\Desktop\Dual-core_Communication_Demo\Dual-core_Communication_Demo\MASTER\obj/../Libraries/seekfree_libraries/zf_spi.c:61
    3ec8:	0001                	nop
    3eca:	40f2                	lw	ra,28(sp)
    3ecc:	4462                	lw	s0,24(sp)
    3ece:	6105                	addi	sp,sp,32
    3ed0:	8082                	ret

00003ed2 <spi_init>:
spi_init():
C:\Users\16917\Desktop\Dual-core_Communication_Demo\Dual-core_Communication_Demo\MASTER\obj/../Libraries/seekfree_libraries/zf_spi.c:85
    3ed2:	715d                	addi	sp,sp,-80
    3ed4:	c686                	sw	ra,76(sp)
    3ed6:	c4a2                	sw	s0,72(sp)
    3ed8:	0880                	addi	s0,sp,80
    3eda:	fca42623          	sw	a0,-52(s0)
    3ede:	fcb42423          	sw	a1,-56(s0)
    3ee2:	fcc42223          	sw	a2,-60(s0)
    3ee6:	fcd42023          	sw	a3,-64(s0)
    3eea:	fae42e23          	sw	a4,-68(s0)
    3eee:	fb042a23          	sw	a6,-76(s0)
    3ef2:	faf40da3          	sb	a5,-69(s0)
C:\Users\16917\Desktop\Dual-core_Communication_Demo\Dual-core_Communication_Demo\MASTER\obj/../Libraries/seekfree_libraries/zf_spi.c:89
    3ef6:	fcc42783          	lw	a5,-52(s0)
    3efa:	eb81                	bnez	a5,3f0a <spi_init+0x38>
C:\Users\16917\Desktop\Dual-core_Communication_Demo\Dual-core_Communication_Demo\MASTER\obj/../Libraries/seekfree_libraries/zf_spi.c:91
    3efc:	4585                	li	a1,1
    3efe:	6785                	lui	a5,0x1
    3f00:	00178513          	addi	a0,a5,1 # 1001 <GPIO_EXTILineConfig+0x13>
    3f04:	cf8fd0ef          	jal	ra,13fc <RCC_APB2PeriphClockCmd>
    3f08:	a821                	j	3f20 <spi_init+0x4e>
C:\Users\16917\Desktop\Dual-core_Communication_Demo\Dual-core_Communication_Demo\MASTER\obj/../Libraries/seekfree_libraries/zf_spi.c:93
    3f0a:	fcc42703          	lw	a4,-52(s0)
    3f0e:	4785                	li	a5,1
    3f10:	00f71863          	bne	a4,a5,3f20 <spi_init+0x4e>
C:\Users\16917\Desktop\Dual-core_Communication_Demo\Dual-core_Communication_Demo\MASTER\obj/../Libraries/seekfree_libraries/zf_spi.c:95
    3f14:	4585                	li	a1,1
    3f16:	6791                	lui	a5,0x4
    3f18:	00178513          	addi	a0,a5,1 # 4001 <spi_init+0x12f>
    3f1c:	d26fd0ef          	jal	ra,1442 <RCC_APB1PeriphClockCmd>
C:\Users\16917\Desktop\Dual-core_Communication_Demo\Dual-core_Communication_Demo\MASTER\obj/../Libraries/seekfree_libraries/zf_spi.c:98
    3f20:	fbc42683          	lw	a3,-68(s0)
    3f24:	fc042603          	lw	a2,-64(s0)
    3f28:	fc442583          	lw	a1,-60(s0)
    3f2c:	fc842503          	lw	a0,-56(s0)
    3f30:	e15ff0ef          	jal	ra,3d44 <spi_gpio_init>
C:\Users\16917\Desktop\Dual-core_Communication_Demo\Dual-core_Communication_Demo\MASTER\obj/../Libraries/seekfree_libraries/zf_spi.c:100
    3f34:	fc041e23          	sh	zero,-36(s0)
C:\Users\16917\Desktop\Dual-core_Communication_Demo\Dual-core_Communication_Demo\MASTER\obj/../Libraries/seekfree_libraries/zf_spi.c:101
    3f38:	10400793          	li	a5,260
    3f3c:	fcf41f23          	sh	a5,-34(s0)
C:\Users\16917\Desktop\Dual-core_Communication_Demo\Dual-core_Communication_Demo\MASTER\obj/../Libraries/seekfree_libraries/zf_spi.c:102
    3f40:	fe041023          	sh	zero,-32(s0)
C:\Users\16917\Desktop\Dual-core_Communication_Demo\Dual-core_Communication_Demo\MASTER\obj/../Libraries/seekfree_libraries/zf_spi.c:104
    3f44:	fbb44783          	lbu	a5,-69(s0)
    3f48:	4705                	li	a4,1
    3f4a:	02e78363          	beq	a5,a4,3f70 <spi_init+0x9e>
    3f4e:	4705                	li	a4,1
    3f50:	00f74463          	blt	a4,a5,3f58 <spi_init+0x86>
    3f54:	cb89                	beqz	a5,3f66 <spi_init+0x94>
    3f56:	a081                	j	3f96 <spi_init+0xc4>
    3f58:	4709                	li	a4,2
    3f5a:	02e78163          	beq	a5,a4,3f7c <spi_init+0xaa>
    3f5e:	470d                	li	a4,3
    3f60:	02e78463          	beq	a5,a4,3f88 <spi_init+0xb6>
    3f64:	a80d                	j	3f96 <spi_init+0xc4>
C:\Users\16917\Desktop\Dual-core_Communication_Demo\Dual-core_Communication_Demo\MASTER\obj/../Libraries/seekfree_libraries/zf_spi.c:108
    3f66:	fe041123          	sh	zero,-30(s0)
C:\Users\16917\Desktop\Dual-core_Communication_Demo\Dual-core_Communication_Demo\MASTER\obj/../Libraries/seekfree_libraries/zf_spi.c:109
    3f6a:	fe041223          	sh	zero,-28(s0)
C:\Users\16917\Desktop\Dual-core_Communication_Demo\Dual-core_Communication_Demo\MASTER\obj/../Libraries/seekfree_libraries/zf_spi.c:110
    3f6e:	a025                	j	3f96 <spi_init+0xc4>
C:\Users\16917\Desktop\Dual-core_Communication_Demo\Dual-core_Communication_Demo\MASTER\obj/../Libraries/seekfree_libraries/zf_spi.c:113
    3f70:	fe041123          	sh	zero,-30(s0)
C:\Users\16917\Desktop\Dual-core_Communication_Demo\Dual-core_Communication_Demo\MASTER\obj/../Libraries/seekfree_libraries/zf_spi.c:114
    3f74:	4785                	li	a5,1
    3f76:	fef41223          	sh	a5,-28(s0)
C:\Users\16917\Desktop\Dual-core_Communication_Demo\Dual-core_Communication_Demo\MASTER\obj/../Libraries/seekfree_libraries/zf_spi.c:115
    3f7a:	a831                	j	3f96 <spi_init+0xc4>
C:\Users\16917\Desktop\Dual-core_Communication_Demo\Dual-core_Communication_Demo\MASTER\obj/../Libraries/seekfree_libraries/zf_spi.c:118
    3f7c:	4789                	li	a5,2
    3f7e:	fef41123          	sh	a5,-30(s0)
C:\Users\16917\Desktop\Dual-core_Communication_Demo\Dual-core_Communication_Demo\MASTER\obj/../Libraries/seekfree_libraries/zf_spi.c:119
    3f82:	fe041223          	sh	zero,-28(s0)
C:\Users\16917\Desktop\Dual-core_Communication_Demo\Dual-core_Communication_Demo\MASTER\obj/../Libraries/seekfree_libraries/zf_spi.c:120
    3f86:	a801                	j	3f96 <spi_init+0xc4>
C:\Users\16917\Desktop\Dual-core_Communication_Demo\Dual-core_Communication_Demo\MASTER\obj/../Libraries/seekfree_libraries/zf_spi.c:123
    3f88:	4789                	li	a5,2
    3f8a:	fef41123          	sh	a5,-30(s0)
C:\Users\16917\Desktop\Dual-core_Communication_Demo\Dual-core_Communication_Demo\MASTER\obj/../Libraries/seekfree_libraries/zf_spi.c:124
    3f8e:	4785                	li	a5,1
    3f90:	fef41223          	sh	a5,-28(s0)
C:\Users\16917\Desktop\Dual-core_Communication_Demo\Dual-core_Communication_Demo\MASTER\obj/../Libraries/seekfree_libraries/zf_spi.c:125
    3f94:	0001                	nop
C:\Users\16917\Desktop\Dual-core_Communication_Demo\Dual-core_Communication_Demo\MASTER\obj/../Libraries/seekfree_libraries/zf_spi.c:128
    3f96:	20000793          	li	a5,512
    3f9a:	fef41323          	sh	a5,-26(s0)
C:\Users\16917\Desktop\Dual-core_Communication_Demo\Dual-core_Communication_Demo\MASTER\obj/../Libraries/seekfree_libraries/zf_spi.c:129
    3f9e:	fb442783          	lw	a5,-76(s0)
    3fa2:	07c2                	slli	a5,a5,0x10
    3fa4:	83c1                	srli	a5,a5,0x10
    3fa6:	078e                	slli	a5,a5,0x3
    3fa8:	07c2                	slli	a5,a5,0x10
    3faa:	83c1                	srli	a5,a5,0x10
    3fac:	fef41423          	sh	a5,-24(s0)
C:\Users\16917\Desktop\Dual-core_Communication_Demo\Dual-core_Communication_Demo\MASTER\obj/../Libraries/seekfree_libraries/zf_spi.c:130
    3fb0:	fe041523          	sh	zero,-22(s0)
C:\Users\16917\Desktop\Dual-core_Communication_Demo\Dual-core_Communication_Demo\MASTER\obj/../Libraries/seekfree_libraries/zf_spi.c:131
    3fb4:	479d                	li	a5,7
    3fb6:	fef41623          	sh	a5,-20(s0)
C:\Users\16917\Desktop\Dual-core_Communication_Demo\Dual-core_Communication_Demo\MASTER\obj/../Libraries/seekfree_libraries/zf_spi.c:132
    3fba:	fcc42703          	lw	a4,-52(s0)
    3fbe:	070a                	slli	a4,a4,0x2
    3fc0:	80c18793          	addi	a5,gp,-2036 # 2000007c <SPIN>
    3fc4:	97ba                	add	a5,a5,a4
    3fc6:	439c                	lw	a5,0(a5)
    3fc8:	873e                	mv	a4,a5
    3fca:	fdc40793          	addi	a5,s0,-36
    3fce:	85be                	mv	a1,a5
    3fd0:	853a                	mv	a0,a4
    3fd2:	cb6fd0ef          	jal	ra,1488 <SPI_Init>
C:\Users\16917\Desktop\Dual-core_Communication_Demo\Dual-core_Communication_Demo\MASTER\obj/../Libraries/seekfree_libraries/zf_spi.c:134
    3fd6:	fc842703          	lw	a4,-56(s0)
    3fda:	47c1                	li	a5,16
    3fdc:	00f71663          	bne	a4,a5,3fe8 <spi_init+0x116>
C:\Users\16917\Desktop\Dual-core_Communication_Demo\Dual-core_Communication_Demo\MASTER\obj/../Libraries/seekfree_libraries/zf_spi.c:134 (discriminator 1)
    3fe0:	4585                	li	a1,1
    3fe2:	4505                	li	a0,1
    3fe4:	ecffc0ef          	jal	ra,eb2 <GPIO_PinRemapConfig>
C:\Users\16917\Desktop\Dual-core_Communication_Demo\Dual-core_Communication_Demo\MASTER\obj/../Libraries/seekfree_libraries/zf_spi.c:136
    3fe8:	fcc42703          	lw	a4,-52(s0)
    3fec:	070a                	slli	a4,a4,0x2
    3fee:	80c18793          	addi	a5,gp,-2036 # 2000007c <SPIN>
    3ff2:	97ba                	add	a5,a5,a4
    3ff4:	439c                	lw	a5,0(a5)
    3ff6:	4585                	li	a1,1
    3ff8:	853e                	mv	a0,a5
    3ffa:	d86fd0ef          	jal	ra,1580 <SPI_Cmd>
C:\Users\16917\Desktop\Dual-core_Communication_Demo\Dual-core_Communication_Demo\MASTER\obj/../Libraries/seekfree_libraries/zf_spi.c:138
    3ffe:	0001                	nop
    4000:	40b6                	lw	ra,76(sp)
    4002:	4426                	lw	s0,72(sp)
    4004:	6161                	addi	sp,sp,80
    4006:	8082                	ret

00004008 <spi_mosi>:
spi_mosi():
C:\Users\16917\Desktop\Dual-core_Communication_Demo\Dual-core_Communication_Demo\MASTER\obj/../Libraries/seekfree_libraries/zf_spi.c:151
    4008:	1101                	addi	sp,sp,-32
    400a:	ce22                	sw	s0,28(sp)
    400c:	1000                	addi	s0,sp,32
    400e:	fea42623          	sw	a0,-20(s0)
    4012:	feb42423          	sw	a1,-24(s0)
    4016:	fec42223          	sw	a2,-28(s0)
    401a:	fed42023          	sw	a3,-32(s0)
C:\Users\16917\Desktop\Dual-core_Communication_Demo\Dual-core_Communication_Demo\MASTER\obj/../Libraries/seekfree_libraries/zf_spi.c:152
    401e:	a859                	j	40b4 <spi_mosi+0xac>
C:\Users\16917\Desktop\Dual-core_Communication_Demo\Dual-core_Communication_Demo\MASTER\obj/../Libraries/seekfree_libraries/zf_spi.c:154
    4020:	0001                	nop
C:\Users\16917\Desktop\Dual-core_Communication_Demo\Dual-core_Communication_Demo\MASTER\obj/../Libraries/seekfree_libraries/zf_spi.c:154 (discriminator 1)
    4022:	fec42703          	lw	a4,-20(s0)
    4026:	070a                	slli	a4,a4,0x2
    4028:	80c18793          	addi	a5,gp,-2036 # 2000007c <SPIN>
    402c:	97ba                	add	a5,a5,a4
    402e:	439c                	lw	a5,0(a5)
    4030:	0087d783          	lhu	a5,8(a5)
    4034:	07c2                	slli	a5,a5,0x10
    4036:	83c1                	srli	a5,a5,0x10
    4038:	8b89                	andi	a5,a5,2
    403a:	d7e5                	beqz	a5,4022 <spi_mosi+0x1a>
C:\Users\16917\Desktop\Dual-core_Communication_Demo\Dual-core_Communication_Demo\MASTER\obj/../Libraries/seekfree_libraries/zf_spi.c:155
    403c:	fe842783          	lw	a5,-24(s0)
    4040:	00178713          	addi	a4,a5,1
    4044:	fee42423          	sw	a4,-24(s0)
    4048:	0007c683          	lbu	a3,0(a5)
    404c:	fec42703          	lw	a4,-20(s0)
    4050:	070a                	slli	a4,a4,0x2
    4052:	80c18793          	addi	a5,gp,-2036 # 2000007c <SPIN>
    4056:	97ba                	add	a5,a5,a4
    4058:	439c                	lw	a5,0(a5)
    405a:	873e                	mv	a4,a5
    405c:	01069793          	slli	a5,a3,0x10
    4060:	83c1                	srli	a5,a5,0x10
    4062:	00f71623          	sh	a5,12(a4) # 1000c <_data_lma+0x9274>
C:\Users\16917\Desktop\Dual-core_Communication_Demo\Dual-core_Communication_Demo\MASTER\obj/../Libraries/seekfree_libraries/zf_spi.c:156
    4066:	fe442783          	lw	a5,-28(s0)
    406a:	c7a9                	beqz	a5,40b4 <spi_mosi+0xac>
C:\Users\16917\Desktop\Dual-core_Communication_Demo\Dual-core_Communication_Demo\MASTER\obj/../Libraries/seekfree_libraries/zf_spi.c:158
    406c:	0001                	nop
C:\Users\16917\Desktop\Dual-core_Communication_Demo\Dual-core_Communication_Demo\MASTER\obj/../Libraries/seekfree_libraries/zf_spi.c:158 (discriminator 1)
    406e:	fec42703          	lw	a4,-20(s0)
    4072:	070a                	slli	a4,a4,0x2
    4074:	80c18793          	addi	a5,gp,-2036 # 2000007c <SPIN>
    4078:	97ba                	add	a5,a5,a4
    407a:	439c                	lw	a5,0(a5)
    407c:	0087d783          	lhu	a5,8(a5)
    4080:	07c2                	slli	a5,a5,0x10
    4082:	83c1                	srli	a5,a5,0x10
    4084:	8b85                	andi	a5,a5,1
    4086:	d7e5                	beqz	a5,406e <spi_mosi+0x66>
C:\Users\16917\Desktop\Dual-core_Communication_Demo\Dual-core_Communication_Demo\MASTER\obj/../Libraries/seekfree_libraries/zf_spi.c:159
    4088:	fec42703          	lw	a4,-20(s0)
    408c:	070a                	slli	a4,a4,0x2
    408e:	80c18793          	addi	a5,gp,-2036 # 2000007c <SPIN>
    4092:	97ba                	add	a5,a5,a4
    4094:	439c                	lw	a5,0(a5)
    4096:	00c7d783          	lhu	a5,12(a5)
    409a:	01079693          	slli	a3,a5,0x10
    409e:	82c1                	srli	a3,a3,0x10
    40a0:	fe442783          	lw	a5,-28(s0)
    40a4:	00178713          	addi	a4,a5,1
    40a8:	fee42223          	sw	a4,-28(s0)
    40ac:	0ff6f713          	andi	a4,a3,255
    40b0:	00e78023          	sb	a4,0(a5)
C:\Users\16917\Desktop\Dual-core_Communication_Demo\Dual-core_Communication_Demo\MASTER\obj/../Libraries/seekfree_libraries/zf_spi.c:152
    40b4:	fe042783          	lw	a5,-32(s0)
    40b8:	fff78713          	addi	a4,a5,-1
    40bc:	fee42023          	sw	a4,-32(s0)
    40c0:	f3a5                	bnez	a5,4020 <spi_mosi+0x18>
C:\Users\16917\Desktop\Dual-core_Communication_Demo\Dual-core_Communication_Demo\MASTER\obj/../Libraries/seekfree_libraries/zf_spi.c:162
    40c2:	0001                	nop
    40c4:	4472                	lw	s0,28(sp)
    40c6:	6105                	addi	sp,sp,32
    40c8:	8082                	ret

000040ca <systick_delay>:
systick_delay():
C:\Users\16917\Desktop\Dual-core_Communication_Demo\Dual-core_Communication_Demo\MASTER\obj/../Libraries/seekfree_libraries/zf_systick.c:29
    40ca:	1101                	addi	sp,sp,-32
    40cc:	ce22                	sw	s0,28(sp)
    40ce:	1000                	addi	s0,sp,32
    40d0:	fea42423          	sw	a0,-24(s0)
    40d4:	feb42623          	sw	a1,-20(s0)
C:\Users\16917\Desktop\Dual-core_Communication_Demo\Dual-core_Communication_Demo\MASTER\obj/../Libraries/seekfree_libraries/zf_systick.c:30
    40d8:	e000f737          	lui	a4,0xe000f
    40dc:	00072023          	sw	zero,0(a4) # e000f000 <_eusrstack+0xc000a000>
C:\Users\16917\Desktop\Dual-core_Communication_Demo\Dual-core_Communication_Demo\MASTER\obj/../Libraries/seekfree_libraries/zf_systick.c:31
    40e0:	e000f737          	lui	a4,0xe000f
    40e4:	00070223          	sb	zero,4(a4) # e000f004 <_eusrstack+0xc000a004>
C:\Users\16917\Desktop\Dual-core_Communication_Demo\Dual-core_Communication_Demo\MASTER\obj/../Libraries/seekfree_libraries/zf_systick.c:32
    40e8:	e000f737          	lui	a4,0xe000f
    40ec:	000702a3          	sb	zero,5(a4) # e000f005 <_eusrstack+0xc000a005>
C:\Users\16917\Desktop\Dual-core_Communication_Demo\Dual-core_Communication_Demo\MASTER\obj/../Libraries/seekfree_libraries/zf_systick.c:33
    40f0:	e000f737          	lui	a4,0xe000f
    40f4:	00070323          	sb	zero,6(a4) # e000f006 <_eusrstack+0xc000a006>
C:\Users\16917\Desktop\Dual-core_Communication_Demo\Dual-core_Communication_Demo\MASTER\obj/../Libraries/seekfree_libraries/zf_systick.c:34
    40f8:	e000f737          	lui	a4,0xe000f
    40fc:	000703a3          	sb	zero,7(a4) # e000f007 <_eusrstack+0xc000a007>
C:\Users\16917\Desktop\Dual-core_Communication_Demo\Dual-core_Communication_Demo\MASTER\obj/../Libraries/seekfree_libraries/zf_systick.c:35
    4100:	e000f737          	lui	a4,0xe000f
    4104:	00070423          	sb	zero,8(a4) # e000f008 <_eusrstack+0xc000a008>
C:\Users\16917\Desktop\Dual-core_Communication_Demo\Dual-core_Communication_Demo\MASTER\obj/../Libraries/seekfree_libraries/zf_systick.c:36
    4108:	e000f737          	lui	a4,0xe000f
    410c:	000704a3          	sb	zero,9(a4) # e000f009 <_eusrstack+0xc000a009>
C:\Users\16917\Desktop\Dual-core_Communication_Demo\Dual-core_Communication_Demo\MASTER\obj/../Libraries/seekfree_libraries/zf_systick.c:37
    4110:	e000f737          	lui	a4,0xe000f
    4114:	00070523          	sb	zero,10(a4) # e000f00a <_eusrstack+0xc000a00a>
C:\Users\16917\Desktop\Dual-core_Communication_Demo\Dual-core_Communication_Demo\MASTER\obj/../Libraries/seekfree_libraries/zf_systick.c:38
    4118:	e000f737          	lui	a4,0xe000f
    411c:	000705a3          	sb	zero,11(a4) # e000f00b <_eusrstack+0xc000a00b>
C:\Users\16917\Desktop\Dual-core_Communication_Demo\Dual-core_Communication_Demo\MASTER\obj/../Libraries/seekfree_libraries/zf_systick.c:39
    4120:	e000f737          	lui	a4,0xe000f
    4124:	4685                	li	a3,1
    4126:	c314                	sw	a3,0(a4)
C:\Users\16917\Desktop\Dual-core_Communication_Demo\Dual-core_Communication_Demo\MASTER\obj/../Libraries/seekfree_libraries/zf_systick.c:41
    4128:	0001                	nop
C:\Users\16917\Desktop\Dual-core_Communication_Demo\Dual-core_Communication_Demo\MASTER\obj/../Libraries/seekfree_libraries/zf_systick.c:41 (discriminator 1)
    412a:	e000f737          	lui	a4,0xe000f
    412e:	0711                	addi	a4,a4,4
    4130:	4318                	lw	a4,0(a4)
    4132:	87ba                	mv	a5,a4
    4134:	4801                	li	a6,0
    4136:	fec42703          	lw	a4,-20(s0)
    413a:	86c2                	mv	a3,a6
    413c:	00d76d63          	bltu	a4,a3,4156 <systick_delay+0x8c>
    4140:	fec42703          	lw	a4,-20(s0)
    4144:	86c2                	mv	a3,a6
    4146:	fed712e3          	bne	a4,a3,412a <systick_delay+0x60>
    414a:	fe842703          	lw	a4,-24(s0)
    414e:	86be                	mv	a3,a5
    4150:	00d76363          	bltu	a4,a3,4156 <systick_delay+0x8c>
    4154:	bfd9                	j	412a <systick_delay+0x60>
C:\Users\16917\Desktop\Dual-core_Communication_Demo\Dual-core_Communication_Demo\MASTER\obj/../Libraries/seekfree_libraries/zf_systick.c:42
    4156:	0001                	nop
    4158:	4472                	lw	s0,28(sp)
    415a:	6105                	addi	sp,sp,32
    415c:	8082                	ret

0000415e <uart_gpio_init>:
uart_gpio_init():
C:\Users\16917\Desktop\Dual-core_Communication_Demo\Dual-core_Communication_Demo\MASTER\obj/../Libraries/seekfree_libraries/zf_uart.c:38
    415e:	1101                	addi	sp,sp,-32
    4160:	ce06                	sw	ra,28(sp)
    4162:	cc22                	sw	s0,24(sp)
    4164:	1000                	addi	s0,sp,32
    4166:	fea42623          	sw	a0,-20(s0)
    416a:	feb42423          	sw	a1,-24(s0)
C:\Users\16917\Desktop\Dual-core_Communication_Demo\Dual-core_Communication_Demo\MASTER\obj/../Libraries/seekfree_libraries/zf_uart.c:39
    416e:	fec42783          	lw	a5,-20(s0)
    4172:	e785                	bnez	a5,419a <uart_gpio_init+0x3c>
C:\Users\16917\Desktop\Dual-core_Communication_Demo\Dual-core_Communication_Demo\MASTER\obj/../Libraries/seekfree_libraries/zf_uart.c:39 (discriminator 1)
    4174:	fe842703          	lw	a4,-24(s0)
    4178:	4785                	li	a5,1
    417a:	02f71063          	bne	a4,a5,419a <uart_gpio_init+0x3c>
C:\Users\16917\Desktop\Dual-core_Communication_Demo\Dual-core_Communication_Demo\MASTER\obj/../Libraries/seekfree_libraries/zf_uart.c:41
    417e:	31800693          	li	a3,792
    4182:	4601                	li	a2,0
    4184:	4585                	li	a1,1
    4186:	4525                	li	a0,9
    4188:	e05fe0ef          	jal	ra,2f8c <gpio_init>
C:\Users\16917\Desktop\Dual-core_Communication_Demo\Dual-core_Communication_Demo\MASTER\obj/../Libraries/seekfree_libraries/zf_uart.c:42
    418c:	4691                	li	a3,4
    418e:	4601                	li	a2,0
    4190:	4581                	li	a1,0
    4192:	4529                	li	a0,10
    4194:	df9fe0ef          	jal	ra,2f8c <gpio_init>
C:\Users\16917\Desktop\Dual-core_Communication_Demo\Dual-core_Communication_Demo\MASTER\obj/../Libraries/seekfree_libraries/zf_uart.c:67
    4198:	a065                	j	4240 <uart_gpio_init+0xe2>
C:\Users\16917\Desktop\Dual-core_Communication_Demo\Dual-core_Communication_Demo\MASTER\obj/../Libraries/seekfree_libraries/zf_uart.c:44
    419a:	fec42703          	lw	a4,-20(s0)
    419e:	4789                	li	a5,2
    41a0:	02f71263          	bne	a4,a5,41c4 <uart_gpio_init+0x66>
C:\Users\16917\Desktop\Dual-core_Communication_Demo\Dual-core_Communication_Demo\MASTER\obj/../Libraries/seekfree_libraries/zf_uart.c:46
    41a4:	31800693          	li	a3,792
    41a8:	4601                	li	a2,0
    41aa:	4585                	li	a1,1
    41ac:	02600513          	li	a0,38
    41b0:	dddfe0ef          	jal	ra,2f8c <gpio_init>
C:\Users\16917\Desktop\Dual-core_Communication_Demo\Dual-core_Communication_Demo\MASTER\obj/../Libraries/seekfree_libraries/zf_uart.c:47
    41b4:	4691                	li	a3,4
    41b6:	4601                	li	a2,0
    41b8:	4581                	li	a1,0
    41ba:	02700513          	li	a0,39
    41be:	dcffe0ef          	jal	ra,2f8c <gpio_init>
C:\Users\16917\Desktop\Dual-core_Communication_Demo\Dual-core_Communication_Demo\MASTER\obj/../Libraries/seekfree_libraries/zf_uart.c:67
    41c2:	a8bd                	j	4240 <uart_gpio_init+0xe2>
C:\Users\16917\Desktop\Dual-core_Communication_Demo\Dual-core_Communication_Demo\MASTER\obj/../Libraries/seekfree_libraries/zf_uart.c:50
    41c4:	fec42703          	lw	a4,-20(s0)
    41c8:	47c1                	li	a5,16
    41ca:	02f71063          	bne	a4,a5,41ea <uart_gpio_init+0x8c>
C:\Users\16917\Desktop\Dual-core_Communication_Demo\Dual-core_Communication_Demo\MASTER\obj/../Libraries/seekfree_libraries/zf_uart.c:52
    41ce:	31800693          	li	a3,792
    41d2:	4601                	li	a2,0
    41d4:	4585                	li	a1,1
    41d6:	4509                	li	a0,2
    41d8:	db5fe0ef          	jal	ra,2f8c <gpio_init>
C:\Users\16917\Desktop\Dual-core_Communication_Demo\Dual-core_Communication_Demo\MASTER\obj/../Libraries/seekfree_libraries/zf_uart.c:53
    41dc:	4691                	li	a3,4
    41de:	4601                	li	a2,0
    41e0:	4581                	li	a1,0
    41e2:	450d                	li	a0,3
    41e4:	da9fe0ef          	jal	ra,2f8c <gpio_init>
C:\Users\16917\Desktop\Dual-core_Communication_Demo\Dual-core_Communication_Demo\MASTER\obj/../Libraries/seekfree_libraries/zf_uart.c:67
    41e8:	a8a1                	j	4240 <uart_gpio_init+0xe2>
C:\Users\16917\Desktop\Dual-core_Communication_Demo\Dual-core_Communication_Demo\MASTER\obj/../Libraries/seekfree_libraries/zf_uart.c:56
    41ea:	fec42703          	lw	a4,-20(s0)
    41ee:	02000793          	li	a5,32
    41f2:	02f71263          	bne	a4,a5,4216 <uart_gpio_init+0xb8>
C:\Users\16917\Desktop\Dual-core_Communication_Demo\Dual-core_Communication_Demo\MASTER\obj/../Libraries/seekfree_libraries/zf_uart.c:58
    41f6:	31800693          	li	a3,792
    41fa:	4601                	li	a2,0
    41fc:	4585                	li	a1,1
    41fe:	02a00513          	li	a0,42
    4202:	d8bfe0ef          	jal	ra,2f8c <gpio_init>
C:\Users\16917\Desktop\Dual-core_Communication_Demo\Dual-core_Communication_Demo\MASTER\obj/../Libraries/seekfree_libraries/zf_uart.c:59
    4206:	4691                	li	a3,4
    4208:	4601                	li	a2,0
    420a:	4581                	li	a1,0
    420c:	02b00513          	li	a0,43
    4210:	d7dfe0ef          	jal	ra,2f8c <gpio_init>
C:\Users\16917\Desktop\Dual-core_Communication_Demo\Dual-core_Communication_Demo\MASTER\obj/../Libraries/seekfree_libraries/zf_uart.c:67
    4214:	a035                	j	4240 <uart_gpio_init+0xe2>
C:\Users\16917\Desktop\Dual-core_Communication_Demo\Dual-core_Communication_Demo\MASTER\obj/../Libraries/seekfree_libraries/zf_uart.c:62
    4216:	fec42703          	lw	a4,-20(s0)
    421a:	02200793          	li	a5,34
    421e:	02f71163          	bne	a4,a5,4240 <uart_gpio_init+0xe2>
C:\Users\16917\Desktop\Dual-core_Communication_Demo\Dual-core_Communication_Demo\MASTER\obj/../Libraries/seekfree_libraries/zf_uart.c:64
    4222:	31800693          	li	a3,792
    4226:	4601                	li	a2,0
    4228:	4585                	li	a1,1
    422a:	04a00513          	li	a0,74
    422e:	d5ffe0ef          	jal	ra,2f8c <gpio_init>
C:\Users\16917\Desktop\Dual-core_Communication_Demo\Dual-core_Communication_Demo\MASTER\obj/../Libraries/seekfree_libraries/zf_uart.c:65
    4232:	4691                	li	a3,4
    4234:	4601                	li	a2,0
    4236:	4581                	li	a1,0
    4238:	04b00513          	li	a0,75
    423c:	d51fe0ef          	jal	ra,2f8c <gpio_init>
C:\Users\16917\Desktop\Dual-core_Communication_Demo\Dual-core_Communication_Demo\MASTER\obj/../Libraries/seekfree_libraries/zf_uart.c:67
    4240:	0001                	nop
    4242:	40f2                	lw	ra,28(sp)
    4244:	4462                	lw	s0,24(sp)
    4246:	6105                	addi	sp,sp,32
    4248:	8082                	ret

0000424a <uart_init>:
uart_init():
C:\Users\16917\Desktop\Dual-core_Communication_Demo\Dual-core_Communication_Demo\MASTER\obj/../Libraries/seekfree_libraries/zf_uart.c:79
    424a:	7179                	addi	sp,sp,-48
    424c:	d606                	sw	ra,44(sp)
    424e:	d422                	sw	s0,40(sp)
    4250:	1800                	addi	s0,sp,48
    4252:	fca42e23          	sw	a0,-36(s0)
    4256:	fcb42c23          	sw	a1,-40(s0)
    425a:	fcc42a23          	sw	a2,-44(s0)
    425e:	fcd42823          	sw	a3,-48(s0)
C:\Users\16917\Desktop\Dual-core_Communication_Demo\Dual-core_Communication_Demo\MASTER\obj/../Libraries/seekfree_libraries/zf_uart.c:83
    4262:	4585                	li	a1,1
    4264:	4505                	li	a0,1
    4266:	996fd0ef          	jal	ra,13fc <RCC_APB2PeriphClockCmd>
C:\Users\16917\Desktop\Dual-core_Communication_Demo\Dual-core_Communication_Demo\MASTER\obj/../Libraries/seekfree_libraries/zf_uart.c:86
    426a:	fd042583          	lw	a1,-48(s0)
    426e:	fd442503          	lw	a0,-44(s0)
    4272:	eedff0ef          	jal	ra,415e <uart_gpio_init>
C:\Users\16917\Desktop\Dual-core_Communication_Demo\Dual-core_Communication_Demo\MASTER\obj/../Libraries/seekfree_libraries/zf_uart.c:88
    4276:	fd442703          	lw	a4,-44(s0)
    427a:	4789                	li	a5,2
    427c:	00f71b63          	bne	a4,a5,4292 <uart_init+0x48>
C:\Users\16917\Desktop\Dual-core_Communication_Demo\Dual-core_Communication_Demo\MASTER\obj/../Libraries/seekfree_libraries/zf_uart.c:88 (discriminator 1)
    4280:	fd042703          	lw	a4,-48(s0)
    4284:	478d                	li	a5,3
    4286:	00f71663          	bne	a4,a5,4292 <uart_init+0x48>
C:\Users\16917\Desktop\Dual-core_Communication_Demo\Dual-core_Communication_Demo\MASTER\obj/../Libraries/seekfree_libraries/zf_uart.c:89
    428a:	4585                	li	a1,1
    428c:	4511                	li	a0,4
    428e:	c25fc0ef          	jal	ra,eb2 <GPIO_PinRemapConfig>
C:\Users\16917\Desktop\Dual-core_Communication_Demo\Dual-core_Communication_Demo\MASTER\obj/../Libraries/seekfree_libraries/zf_uart.c:90
    4292:	fd442703          	lw	a4,-44(s0)
    4296:	02200793          	li	a5,34
    429a:	00f71f63          	bne	a4,a5,42b8 <uart_init+0x6e>
C:\Users\16917\Desktop\Dual-core_Communication_Demo\Dual-core_Communication_Demo\MASTER\obj/../Libraries/seekfree_libraries/zf_uart.c:90 (discriminator 1)
    429e:	fd042703          	lw	a4,-48(s0)
    42a2:	02300793          	li	a5,35
    42a6:	00f71963          	bne	a4,a5,42b8 <uart_init+0x6e>
C:\Users\16917\Desktop\Dual-core_Communication_Demo\Dual-core_Communication_Demo\MASTER\obj/../Libraries/seekfree_libraries/zf_uart.c:91
    42aa:	4585                	li	a1,1
    42ac:	001407b7          	lui	a5,0x140
    42b0:	01078513          	addi	a0,a5,16 # 140010 <_data_lma+0x139278>
    42b4:	bfffc0ef          	jal	ra,eb2 <GPIO_PinRemapConfig>
C:\Users\16917\Desktop\Dual-core_Communication_Demo\Dual-core_Communication_Demo\MASTER\obj/../Libraries/seekfree_libraries/zf_uart.c:94
    42b8:	fdc42783          	lw	a5,-36(s0)
    42bc:	e791                	bnez	a5,42c8 <uart_init+0x7e>
C:\Users\16917\Desktop\Dual-core_Communication_Demo\Dual-core_Communication_Demo\MASTER\obj/../Libraries/seekfree_libraries/zf_uart.c:94 (discriminator 1)
    42be:	4585                	li	a1,1
    42c0:	6511                	lui	a0,0x4
    42c2:	93afd0ef          	jal	ra,13fc <RCC_APB2PeriphClockCmd>
    42c6:	a035                	j	42f2 <uart_init+0xa8>
C:\Users\16917\Desktop\Dual-core_Communication_Demo\Dual-core_Communication_Demo\MASTER\obj/../Libraries/seekfree_libraries/zf_uart.c:95
    42c8:	fdc42703          	lw	a4,-36(s0)
    42cc:	4785                	li	a5,1
    42ce:	00f71863          	bne	a4,a5,42de <uart_init+0x94>
C:\Users\16917\Desktop\Dual-core_Communication_Demo\Dual-core_Communication_Demo\MASTER\obj/../Libraries/seekfree_libraries/zf_uart.c:95 (discriminator 1)
    42d2:	4585                	li	a1,1
    42d4:	00020537          	lui	a0,0x20
    42d8:	96afd0ef          	jal	ra,1442 <RCC_APB1PeriphClockCmd>
    42dc:	a819                	j	42f2 <uart_init+0xa8>
C:\Users\16917\Desktop\Dual-core_Communication_Demo\Dual-core_Communication_Demo\MASTER\obj/../Libraries/seekfree_libraries/zf_uart.c:96
    42de:	fdc42703          	lw	a4,-36(s0)
    42e2:	4789                	li	a5,2
    42e4:	00f71763          	bne	a4,a5,42f2 <uart_init+0xa8>
C:\Users\16917\Desktop\Dual-core_Communication_Demo\Dual-core_Communication_Demo\MASTER\obj/../Libraries/seekfree_libraries/zf_uart.c:96 (discriminator 1)
    42e8:	4585                	li	a1,1
    42ea:	00040537          	lui	a0,0x40
    42ee:	954fd0ef          	jal	ra,1442 <RCC_APB1PeriphClockCmd>
C:\Users\16917\Desktop\Dual-core_Communication_Demo\Dual-core_Communication_Demo\MASTER\obj/../Libraries/seekfree_libraries/zf_uart.c:99
    42f2:	fd842783          	lw	a5,-40(s0)
    42f6:	fef42023          	sw	a5,-32(s0)
C:\Users\16917\Desktop\Dual-core_Communication_Demo\Dual-core_Communication_Demo\MASTER\obj/../Libraries/seekfree_libraries/zf_uart.c:100
    42fa:	fe041223          	sh	zero,-28(s0)
C:\Users\16917\Desktop\Dual-core_Communication_Demo\Dual-core_Communication_Demo\MASTER\obj/../Libraries/seekfree_libraries/zf_uart.c:101
    42fe:	fe041323          	sh	zero,-26(s0)
C:\Users\16917\Desktop\Dual-core_Communication_Demo\Dual-core_Communication_Demo\MASTER\obj/../Libraries/seekfree_libraries/zf_uart.c:102
    4302:	fe041423          	sh	zero,-24(s0)
C:\Users\16917\Desktop\Dual-core_Communication_Demo\Dual-core_Communication_Demo\MASTER\obj/../Libraries/seekfree_libraries/zf_uart.c:103
    4306:	fe041623          	sh	zero,-20(s0)
C:\Users\16917\Desktop\Dual-core_Communication_Demo\Dual-core_Communication_Demo\MASTER\obj/../Libraries/seekfree_libraries/zf_uart.c:104
    430a:	47b1                	li	a5,12
    430c:	fef41523          	sh	a5,-22(s0)
C:\Users\16917\Desktop\Dual-core_Communication_Demo\Dual-core_Communication_Demo\MASTER\obj/../Libraries/seekfree_libraries/zf_uart.c:107
    4310:	679d                	lui	a5,0x7
    4312:	fdc42703          	lw	a4,-36(s0)
    4316:	070a                	slli	a4,a4,0x2
    4318:	b6c78793          	addi	a5,a5,-1172 # 6b6c <UARTN>
    431c:	97ba                	add	a5,a5,a4
    431e:	439c                	lw	a5,0(a5)
    4320:	873e                	mv	a4,a5
    4322:	fe040793          	addi	a5,s0,-32
    4326:	85be                	mv	a1,a5
    4328:	853a                	mv	a0,a4
    432a:	ec5fd0ef          	jal	ra,21ee <USART_Init>
C:\Users\16917\Desktop\Dual-core_Communication_Demo\Dual-core_Communication_Demo\MASTER\obj/../Libraries/seekfree_libraries/zf_uart.c:108
    432e:	679d                	lui	a5,0x7
    4330:	fdc42703          	lw	a4,-36(s0)
    4334:	070a                	slli	a4,a4,0x2
    4336:	b6c78793          	addi	a5,a5,-1172 # 6b6c <UARTN>
    433a:	97ba                	add	a5,a5,a4
    433c:	439c                	lw	a5,0(a5)
    433e:	4585                	li	a1,1
    4340:	853e                	mv	a0,a5
    4342:	8e0fe0ef          	jal	ra,2422 <USART_Cmd>
C:\Users\16917\Desktop\Dual-core_Communication_Demo\Dual-core_Communication_Demo\MASTER\obj/../Libraries/seekfree_libraries/zf_uart.c:111
    4346:	0001                	nop
    4348:	50b2                	lw	ra,44(sp)
    434a:	5422                	lw	s0,40(sp)
    434c:	6145                	addi	sp,sp,48
    434e:	8082                	ret

00004350 <uart_rx_irq>:
uart_rx_irq():
C:\Users\16917\Desktop\Dual-core_Communication_Demo\Dual-core_Communication_Demo\MASTER\obj/../Libraries/seekfree_libraries/zf_uart.c:165
    4350:	1101                	addi	sp,sp,-32
    4352:	ce06                	sw	ra,28(sp)
    4354:	cc22                	sw	s0,24(sp)
    4356:	1000                	addi	s0,sp,32
    4358:	fea42623          	sw	a0,-20(s0)
    435c:	87ae                	mv	a5,a1
    435e:	fef405a3          	sb	a5,-21(s0)
C:\Users\16917\Desktop\Dual-core_Communication_Demo\Dual-core_Communication_Demo\MASTER\obj/../Libraries/seekfree_libraries/zf_uart.c:166
    4362:	679d                	lui	a5,0x7
    4364:	fec42703          	lw	a4,-20(s0)
    4368:	070a                	slli	a4,a4,0x2
    436a:	b6c78793          	addi	a5,a5,-1172 # 6b6c <UARTN>
    436e:	97ba                	add	a5,a5,a4
    4370:	439c                	lw	a5,0(a5)
    4372:	4605                	li	a2,1
    4374:	52500593          	li	a1,1317
    4378:	853e                	mv	a0,a5
    437a:	908fe0ef          	jal	ra,2482 <USART_ITConfig>
C:\Users\16917\Desktop\Dual-core_Communication_Demo\Dual-core_Communication_Demo\MASTER\obj/../Libraries/seekfree_libraries/zf_uart.c:167
    437e:	fec42783          	lw	a5,-20(s0)
    4382:	03578793          	addi	a5,a5,53
    4386:	feb44703          	lbu	a4,-21(s0)
    438a:	86ba                	mv	a3,a4
    438c:	4601                	li	a2,0
    438e:	4581                	li	a1,0
    4390:	853e                	mv	a0,a5
    4392:	e1ffe0ef          	jal	ra,31b0 <nvic_init>
C:\Users\16917\Desktop\Dual-core_Communication_Demo\Dual-core_Communication_Demo\MASTER\obj/../Libraries/seekfree_libraries/zf_uart.c:168
    4396:	0001                	nop
    4398:	40f2                	lw	ra,28(sp)
    439a:	4462                	lw	s0,24(sp)
    439c:	6105                	addi	sp,sp,32
    439e:	8082                	ret

000043a0 <board_init>:
board_init():
C:\Users\16917\Desktop\Dual-core_Communication_Demo\Dual-core_Communication_Demo\MASTER\obj/../Libraries/board/board.c:9
    43a0:	1141                	addi	sp,sp,-16
    43a2:	c606                	sw	ra,12(sp)
    43a4:	c422                	sw	s0,8(sp)
    43a6:	0800                	addi	s0,sp,16
C:\Users\16917\Desktop\Dual-core_Communication_Demo\Dual-core_Communication_Demo\MASTER\obj/../Libraries/board/board.c:11
    43a8:	400217b7          	lui	a5,0x40021
    43ac:	43dc                	lw	a5,4(a5)
    43ae:	83c9                	srli	a5,a5,0x12
    43b0:	00f7f713          	andi	a4,a5,15
    43b4:	007a17b7          	lui	a5,0x7a1
    43b8:	20078793          	addi	a5,a5,512 # 7a1200 <_data_lma+0x79a468>
    43bc:	02f70733          	mul	a4,a4,a5
    43c0:	00f427b7          	lui	a5,0xf42
    43c4:	40078793          	addi	a5,a5,1024 # f42400 <_data_lma+0xf3b668>
    43c8:	973e                	add	a4,a4,a5
    43ca:	82e1ac23          	sw	a4,-1992(gp) # 200000a8 <sys_clk>
C:\Users\16917\Desktop\Dual-core_Communication_Demo\Dual-core_Communication_Demo\MASTER\obj/../Libraries/board/board.c:13
    43ce:	4685                	li	a3,1
    43d0:	4601                	li	a2,0
    43d2:	67f1                	lui	a5,0x1c
    43d4:	20078593          	addi	a1,a5,512 # 1c200 <_data_lma+0x15468>
    43d8:	4501                	li	a0,0
    43da:	e71ff0ef          	jal	ra,424a <uart_init>
C:\Users\16917\Desktop\Dual-core_Communication_Demo\Dual-core_Communication_Demo\MASTER\obj/../Libraries/board/board.c:14
    43de:	0001                	nop
    43e0:	40b2                	lw	ra,12(sp)
    43e2:	4422                	lw	s0,8(sp)
    43e4:	0141                	addi	sp,sp,16
    43e6:	8082                	ret

000043e8 <_write>:
_write():
C:\Users\16917\Desktop\Dual-core_Communication_Demo\Dual-core_Communication_Demo\MASTER\obj/../Libraries/board/board.c:25
    43e8:	7179                	addi	sp,sp,-48
    43ea:	d606                	sw	ra,44(sp)
    43ec:	d422                	sw	s0,40(sp)
    43ee:	1800                	addi	s0,sp,48
    43f0:	fca42e23          	sw	a0,-36(s0)
    43f4:	fcb42c23          	sw	a1,-40(s0)
    43f8:	fcc42a23          	sw	a2,-44(s0)
C:\Users\16917\Desktop\Dual-core_Communication_Demo\Dual-core_Communication_Demo\MASTER\obj/../Libraries/board/board.c:27
    43fc:	fe042623          	sw	zero,-20(s0)
    4400:	a099                	j	4446 <_write+0x5e>
C:\Users\16917\Desktop\Dual-core_Communication_Demo\Dual-core_Communication_Demo\MASTER\obj/../Libraries/board/board.c:29
    4402:	0001                	nop
C:\Users\16917\Desktop\Dual-core_Communication_Demo\Dual-core_Communication_Demo\MASTER\obj/../Libraries/board/board.c:29 (discriminator 1)
    4404:	679d                	lui	a5,0x7
    4406:	b6c7a783          	lw	a5,-1172(a5) # 6b6c <UARTN>
    440a:	04000593          	li	a1,64
    440e:	853e                	mv	a0,a5
    4410:	98afe0ef          	jal	ra,259a <USART_GetFlagStatus>
    4414:	87aa                	mv	a5,a0
    4416:	d7fd                	beqz	a5,4404 <_write+0x1c>
C:\Users\16917\Desktop\Dual-core_Communication_Demo\Dual-core_Communication_Demo\MASTER\obj/../Libraries/board/board.c:30 (discriminator 2)
    4418:	679d                	lui	a5,0x7
    441a:	b6c7a783          	lw	a5,-1172(a5) # 6b6c <UARTN>
    441e:	86be                	mv	a3,a5
    4420:	fd842783          	lw	a5,-40(s0)
    4424:	00178713          	addi	a4,a5,1
    4428:	fce42c23          	sw	a4,-40(s0)
    442c:	00078783          	lb	a5,0(a5)
    4430:	07c2                	slli	a5,a5,0x10
    4432:	83c1                	srli	a5,a5,0x10
    4434:	85be                	mv	a1,a5
    4436:	8536                	mv	a0,a3
    4438:	90efe0ef          	jal	ra,2546 <USART_SendData>
C:\Users\16917\Desktop\Dual-core_Communication_Demo\Dual-core_Communication_Demo\MASTER\obj/../Libraries/board/board.c:27 (discriminator 2)
    443c:	fec42783          	lw	a5,-20(s0)
    4440:	0785                	addi	a5,a5,1
    4442:	fef42623          	sw	a5,-20(s0)
C:\Users\16917\Desktop\Dual-core_Communication_Demo\Dual-core_Communication_Demo\MASTER\obj/../Libraries/board/board.c:27 (discriminator 1)
    4446:	fec42703          	lw	a4,-20(s0)
    444a:	fd442783          	lw	a5,-44(s0)
    444e:	faf74ae3          	blt	a4,a5,4402 <_write+0x1a>
C:\Users\16917\Desktop\Dual-core_Communication_Demo\Dual-core_Communication_Demo\MASTER\obj/../Libraries/board/board.c:32
    4452:	fd442783          	lw	a5,-44(s0)
C:\Users\16917\Desktop\Dual-core_Communication_Demo\Dual-core_Communication_Demo\MASTER\obj/../Libraries/board/board.c:33
    4456:	853e                	mv	a0,a5
    4458:	50b2                	lw	ra,44(sp)
    445a:	5422                	lw	s0,40(sp)
    445c:	6145                	addi	sp,sp,48
    445e:	8082                	ret

00004460 <SetSysClock>:
SetSysClock():
C:\Users\16917\Desktop\Dual-core_Communication_Demo\Dual-core_Communication_Demo\MASTER\obj/../Libraries/board/clock_config.c:11
    4460:	1101                	addi	sp,sp,-32
    4462:	ce22                	sw	s0,28(sp)
    4464:	1000                	addi	s0,sp,32
C:\Users\16917\Desktop\Dual-core_Communication_Demo\Dual-core_Communication_Demo\MASTER\obj/../Libraries/board/clock_config.c:12
    4466:	fe042623          	sw	zero,-20(s0)
    446a:	fe042423          	sw	zero,-24(s0)
C:\Users\16917\Desktop\Dual-core_Communication_Demo\Dual-core_Communication_Demo\MASTER\obj/../Libraries/board/clock_config.c:14
    446e:	400217b7          	lui	a5,0x40021
    4472:	4394                	lw	a3,0(a5)
    4474:	400217b7          	lui	a5,0x40021
    4478:	6741                	lui	a4,0x10
    447a:	8f55                	or	a4,a4,a3
    447c:	c398                	sw	a4,0(a5)
C:\Users\16917\Desktop\Dual-core_Communication_Demo\Dual-core_Communication_Demo\MASTER\obj/../Libraries/board/clock_config.c:19 (discriminator 2)
    447e:	400217b7          	lui	a5,0x40021
    4482:	4398                	lw	a4,0(a5)
    4484:	000207b7          	lui	a5,0x20
    4488:	8ff9                	and	a5,a5,a4
    448a:	fef42423          	sw	a5,-24(s0)
C:\Users\16917\Desktop\Dual-core_Communication_Demo\Dual-core_Communication_Demo\MASTER\obj/../Libraries/board/clock_config.c:20 (discriminator 2)
    448e:	fec42783          	lw	a5,-20(s0)
    4492:	0785                	addi	a5,a5,1
    4494:	fef42623          	sw	a5,-20(s0)
C:\Users\16917\Desktop\Dual-core_Communication_Demo\Dual-core_Communication_Demo\MASTER\obj/../Libraries/board/clock_config.c:21 (discriminator 2)
    4498:	fe842783          	lw	a5,-24(s0)
    449c:	e799                	bnez	a5,44aa <SetSysClock+0x4a>
C:\Users\16917\Desktop\Dual-core_Communication_Demo\Dual-core_Communication_Demo\MASTER\obj/../Libraries/board/clock_config.c:21 (discriminator 1)
    449e:	fec42703          	lw	a4,-20(s0)
    44a2:	50000793          	li	a5,1280
    44a6:	fcf71ce3          	bne	a4,a5,447e <SetSysClock+0x1e>
C:\Users\16917\Desktop\Dual-core_Communication_Demo\Dual-core_Communication_Demo\MASTER\obj/../Libraries/board/clock_config.c:23
    44aa:	400217b7          	lui	a5,0x40021
    44ae:	4398                	lw	a4,0(a5)
    44b0:	000207b7          	lui	a5,0x20
    44b4:	8ff9                	and	a5,a5,a4
    44b6:	c789                	beqz	a5,44c0 <SetSysClock+0x60>
C:\Users\16917\Desktop\Dual-core_Communication_Demo\Dual-core_Communication_Demo\MASTER\obj/../Libraries/board/clock_config.c:25
    44b8:	4785                	li	a5,1
    44ba:	fef42423          	sw	a5,-24(s0)
    44be:	a019                	j	44c4 <SetSysClock+0x64>
C:\Users\16917\Desktop\Dual-core_Communication_Demo\Dual-core_Communication_Demo\MASTER\obj/../Libraries/board/clock_config.c:29
    44c0:	fe042423          	sw	zero,-24(s0)
C:\Users\16917\Desktop\Dual-core_Communication_Demo\Dual-core_Communication_Demo\MASTER\obj/../Libraries/board/clock_config.c:32
    44c4:	fe842703          	lw	a4,-24(s0)
    44c8:	4785                	li	a5,1
    44ca:	0cf71763          	bne	a4,a5,4598 <SetSysClock+0x138>
C:\Users\16917\Desktop\Dual-core_Communication_Demo\Dual-core_Communication_Demo\MASTER\obj/../Libraries/board/clock_config.c:35
    44ce:	400227b7          	lui	a5,0x40022
    44d2:	4398                	lw	a4,0(a5)
    44d4:	400227b7          	lui	a5,0x40022
    44d8:	01076713          	ori	a4,a4,16
    44dc:	c398                	sw	a4,0(a5)
C:\Users\16917\Desktop\Dual-core_Communication_Demo\Dual-core_Communication_Demo\MASTER\obj/../Libraries/board/clock_config.c:38
    44de:	400227b7          	lui	a5,0x40022
    44e2:	4398                	lw	a4,0(a5)
    44e4:	400227b7          	lui	a5,0x40022
    44e8:	9b71                	andi	a4,a4,-4
    44ea:	c398                	sw	a4,0(a5)
C:\Users\16917\Desktop\Dual-core_Communication_Demo\Dual-core_Communication_Demo\MASTER\obj/../Libraries/board/clock_config.c:39
    44ec:	400227b7          	lui	a5,0x40022
    44f0:	4398                	lw	a4,0(a5)
    44f2:	400227b7          	lui	a5,0x40022
    44f6:	00276713          	ori	a4,a4,2
    44fa:	c398                	sw	a4,0(a5)
C:\Users\16917\Desktop\Dual-core_Communication_Demo\Dual-core_Communication_Demo\MASTER\obj/../Libraries/board/clock_config.c:42
    44fc:	40021737          	lui	a4,0x40021
    4500:	400217b7          	lui	a5,0x40021
    4504:	4358                	lw	a4,4(a4)
    4506:	c3d8                	sw	a4,4(a5)
C:\Users\16917\Desktop\Dual-core_Communication_Demo\Dual-core_Communication_Demo\MASTER\obj/../Libraries/board/clock_config.c:44
    4508:	40021737          	lui	a4,0x40021
    450c:	400217b7          	lui	a5,0x40021
    4510:	4358                	lw	a4,4(a4)
    4512:	c3d8                	sw	a4,4(a5)
C:\Users\16917\Desktop\Dual-core_Communication_Demo\Dual-core_Communication_Demo\MASTER\obj/../Libraries/board/clock_config.c:46
    4514:	40021737          	lui	a4,0x40021
    4518:	400217b7          	lui	a5,0x40021
    451c:	4358                	lw	a4,4(a4)
    451e:	c3d8                	sw	a4,4(a5)
C:\Users\16917\Desktop\Dual-core_Communication_Demo\Dual-core_Communication_Demo\MASTER\obj/../Libraries/board/clock_config.c:49
    4520:	400217b7          	lui	a5,0x40021
    4524:	43d4                	lw	a3,4(a5)
    4526:	400217b7          	lui	a5,0x40021
    452a:	ffc10737          	lui	a4,0xffc10
    452e:	177d                	addi	a4,a4,-1
    4530:	8f75                	and	a4,a4,a3
    4532:	c3d8                	sw	a4,4(a5)
C:\Users\16917\Desktop\Dual-core_Communication_Demo\Dual-core_Communication_Demo\MASTER\obj/../Libraries/board/clock_config.c:52
    4534:	400217b7          	lui	a5,0x40021
    4538:	43d4                	lw	a3,4(a5)
    453a:	400217b7          	lui	a5,0x40021
    453e:	00250737          	lui	a4,0x250
    4542:	8f55                	or	a4,a4,a3
    4544:	c3d8                	sw	a4,4(a5)
C:\Users\16917\Desktop\Dual-core_Communication_Demo\Dual-core_Communication_Demo\MASTER\obj/../Libraries/board/clock_config.c:54
    4546:	400217b7          	lui	a5,0x40021
    454a:	4394                	lw	a3,0(a5)
    454c:	400217b7          	lui	a5,0x40021
    4550:	01000737          	lui	a4,0x1000
    4554:	8f55                	or	a4,a4,a3
    4556:	c398                	sw	a4,0(a5)
C:\Users\16917\Desktop\Dual-core_Communication_Demo\Dual-core_Communication_Demo\MASTER\obj/../Libraries/board/clock_config.c:56
    4558:	0001                	nop
C:\Users\16917\Desktop\Dual-core_Communication_Demo\Dual-core_Communication_Demo\MASTER\obj/../Libraries/board/clock_config.c:56 (discriminator 1)
    455a:	400217b7          	lui	a5,0x40021
    455e:	4398                	lw	a4,0(a5)
    4560:	020007b7          	lui	a5,0x2000
    4564:	8ff9                	and	a5,a5,a4
    4566:	dbf5                	beqz	a5,455a <SetSysClock+0xfa>
C:\Users\16917\Desktop\Dual-core_Communication_Demo\Dual-core_Communication_Demo\MASTER\obj/../Libraries/board/clock_config.c:60
    4568:	400217b7          	lui	a5,0x40021
    456c:	43d8                	lw	a4,4(a5)
    456e:	400217b7          	lui	a5,0x40021
    4572:	9b71                	andi	a4,a4,-4
    4574:	c3d8                	sw	a4,4(a5)
C:\Users\16917\Desktop\Dual-core_Communication_Demo\Dual-core_Communication_Demo\MASTER\obj/../Libraries/board/clock_config.c:61
    4576:	400217b7          	lui	a5,0x40021
    457a:	43d8                	lw	a4,4(a5)
    457c:	400217b7          	lui	a5,0x40021
    4580:	00276713          	ori	a4,a4,2
    4584:	c3d8                	sw	a4,4(a5)
C:\Users\16917\Desktop\Dual-core_Communication_Demo\Dual-core_Communication_Demo\MASTER\obj/../Libraries/board/clock_config.c:63
    4586:	0001                	nop
C:\Users\16917\Desktop\Dual-core_Communication_Demo\Dual-core_Communication_Demo\MASTER\obj/../Libraries/board/clock_config.c:63 (discriminator 1)
    4588:	400217b7          	lui	a5,0x40021
    458c:	43dc                	lw	a5,4(a5)
    458e:	00c7f713          	andi	a4,a5,12
    4592:	47a1                	li	a5,8
    4594:	fef71ae3          	bne	a4,a5,4588 <SetSysClock+0x128>
C:\Users\16917\Desktop\Dual-core_Communication_Demo\Dual-core_Communication_Demo\MASTER\obj/../Libraries/board/clock_config.c:74
    4598:	0001                	nop
    459a:	4472                	lw	s0,28(sp)
    459c:	6105                	addi	sp,sp,32
    459e:	8082                	ret

000045a0 <SystemInit>:
SystemInit():
C:\Users\16917\Desktop\Dual-core_Communication_Demo\Dual-core_Communication_Demo\MASTER\obj/../Libraries/board/clock_config.c:84
    45a0:	1141                	addi	sp,sp,-16
    45a2:	c606                	sw	ra,12(sp)
    45a4:	c422                	sw	s0,8(sp)
    45a6:	0800                	addi	s0,sp,16
C:\Users\16917\Desktop\Dual-core_Communication_Demo\Dual-core_Communication_Demo\MASTER\obj/../Libraries/board/clock_config.c:85
    45a8:	400217b7          	lui	a5,0x40021
    45ac:	4398                	lw	a4,0(a5)
    45ae:	400217b7          	lui	a5,0x40021
    45b2:	00176713          	ori	a4,a4,1
    45b6:	c398                	sw	a4,0(a5)
C:\Users\16917\Desktop\Dual-core_Communication_Demo\Dual-core_Communication_Demo\MASTER\obj/../Libraries/board/clock_config.c:86
    45b8:	400217b7          	lui	a5,0x40021
    45bc:	43d4                	lw	a3,4(a5)
    45be:	400217b7          	lui	a5,0x40021
    45c2:	f8ff0737          	lui	a4,0xf8ff0
    45c6:	8f75                	and	a4,a4,a3
    45c8:	c3d8                	sw	a4,4(a5)
C:\Users\16917\Desktop\Dual-core_Communication_Demo\Dual-core_Communication_Demo\MASTER\obj/../Libraries/board/clock_config.c:87
    45ca:	400217b7          	lui	a5,0x40021
    45ce:	4394                	lw	a3,0(a5)
    45d0:	400217b7          	lui	a5,0x40021
    45d4:	fef70737          	lui	a4,0xfef70
    45d8:	177d                	addi	a4,a4,-1
    45da:	8f75                	and	a4,a4,a3
    45dc:	c398                	sw	a4,0(a5)
C:\Users\16917\Desktop\Dual-core_Communication_Demo\Dual-core_Communication_Demo\MASTER\obj/../Libraries/board/clock_config.c:88
    45de:	400217b7          	lui	a5,0x40021
    45e2:	4394                	lw	a3,0(a5)
    45e4:	400217b7          	lui	a5,0x40021
    45e8:	fffc0737          	lui	a4,0xfffc0
    45ec:	177d                	addi	a4,a4,-1
    45ee:	8f75                	and	a4,a4,a3
    45f0:	c398                	sw	a4,0(a5)
C:\Users\16917\Desktop\Dual-core_Communication_Demo\Dual-core_Communication_Demo\MASTER\obj/../Libraries/board/clock_config.c:89
    45f2:	400217b7          	lui	a5,0x40021
    45f6:	43d4                	lw	a3,4(a5)
    45f8:	400217b7          	lui	a5,0x40021
    45fc:	ff810737          	lui	a4,0xff810
    4600:	177d                	addi	a4,a4,-1
    4602:	8f75                	and	a4,a4,a3
    4604:	c3d8                	sw	a4,4(a5)
C:\Users\16917\Desktop\Dual-core_Communication_Demo\Dual-core_Communication_Demo\MASTER\obj/../Libraries/board/clock_config.c:90
    4606:	400217b7          	lui	a5,0x40021
    460a:	009f0737          	lui	a4,0x9f0
    460e:	c798                	sw	a4,8(a5)
C:\Users\16917\Desktop\Dual-core_Communication_Demo\Dual-core_Communication_Demo\MASTER\obj/../Libraries/board/clock_config.c:91
    4610:	e51ff0ef          	jal	ra,4460 <SetSysClock>
C:\Users\16917\Desktop\Dual-core_Communication_Demo\Dual-core_Communication_Demo\MASTER\obj/../Libraries/board/clock_config.c:92
    4614:	0001                	nop
    4616:	40b2                	lw	ra,12(sp)
    4618:	4422                	lw	s0,8(sp)
    461a:	0141                	addi	sp,sp,16
    461c:	8082                	ret

0000461e <Duty_Init>:
Duty_Init():
D:\A_Dual\Dual-core_Communication_Demo\Dual-core_Communication_Demo\MASTER\obj/../CODE/Motor.c:14
#define PWM_FREQ 17000
#define MAX_DUTY 10000


void Duty_Init()
{
    461e:	1141                	addi	sp,sp,-16
    4620:	c606                	sw	ra,12(sp)
    4622:	c422                	sw	s0,8(sp)
    4624:	0800                	addi	s0,sp,16
D:\A_Dual\Dual-core_Communication_Demo\Dual-core_Communication_Demo\MASTER\obj/../CODE/Motor.c:15
    pwm_init(PWM4_CH1_B6,PWM_FREQ,0);//PWM
    4626:	4601                	li	a2,0
    4628:	6791                	lui	a5,0x4
    462a:	26878593          	addi	a1,a5,616 # 4268 <uart_init+0x1e>
    462e:	30000513          	li	a0,768
    4632:	828ff0ef          	jal	ra,365a <pwm_init>
D:\A_Dual\Dual-core_Communication_Demo\Dual-core_Communication_Demo\MASTER\obj/../CODE/Motor.c:16
    pwm_init(PWM4_CH2_B7,PWM_FREQ,0);
    4636:	4601                	li	a2,0
    4638:	6791                	lui	a5,0x4
    463a:	26878593          	addi	a1,a5,616 # 4268 <uart_init+0x1e>
    463e:	30100513          	li	a0,769
    4642:	818ff0ef          	jal	ra,365a <pwm_init>
D:\A_Dual\Dual-core_Communication_Demo\Dual-core_Communication_Demo\MASTER\obj/../CODE/Motor.c:17
    pwm_init(PWM4_CH3_B8,PWM_FREQ,0);
    4646:	4601                	li	a2,0
    4648:	6791                	lui	a5,0x4
    464a:	26878593          	addi	a1,a5,616 # 4268 <uart_init+0x1e>
    464e:	30200513          	li	a0,770
    4652:	808ff0ef          	jal	ra,365a <pwm_init>
D:\A_Dual\Dual-core_Communication_Demo\Dual-core_Communication_Demo\MASTER\obj/../CODE/Motor.c:18
    pwm_init(PWM4_CH4_B9,PWM_FREQ,0);
    4656:	4601                	li	a2,0
    4658:	6791                	lui	a5,0x4
    465a:	26878593          	addi	a1,a5,616 # 4268 <uart_init+0x1e>
    465e:	30300513          	li	a0,771
    4662:	ff9fe0ef          	jal	ra,365a <pwm_init>
D:\A_Dual\Dual-core_Communication_Demo\Dual-core_Communication_Demo\MASTER\obj/../CODE/Motor.c:20

    gpio_init(C10,GPO,0,GPIO_PIN_CONFIG);//
    4666:	31000693          	li	a3,784
    466a:	4601                	li	a2,0
    466c:	4585                	li	a1,1
    466e:	04a00513          	li	a0,74
    4672:	91bfe0ef          	jal	ra,2f8c <gpio_init>
D:\A_Dual\Dual-core_Communication_Demo\Dual-core_Communication_Demo\MASTER\obj/../CODE/Motor.c:21
    gpio_init(C11,GPO,0,GPIO_PIN_CONFIG);
    4676:	31000693          	li	a3,784
    467a:	4601                	li	a2,0
    467c:	4585                	li	a1,1
    467e:	04b00513          	li	a0,75
    4682:	90bfe0ef          	jal	ra,2f8c <gpio_init>
D:\A_Dual\Dual-core_Communication_Demo\Dual-core_Communication_Demo\MASTER\obj/../CODE/Motor.c:22
    gpio_init(B12,GPO,1,GPIO_PIN_CONFIG);
    4686:	31000693          	li	a3,784
    468a:	4605                	li	a2,1
    468c:	4585                	li	a1,1
    468e:	02c00513          	li	a0,44
    4692:	8fbfe0ef          	jal	ra,2f8c <gpio_init>
D:\A_Dual\Dual-core_Communication_Demo\Dual-core_Communication_Demo\MASTER\obj/../CODE/Motor.c:23
    gpio_init(A8,GPO,1,GPIO_PIN_CONFIG);
    4696:	31000693          	li	a3,784
    469a:	4605                	li	a2,1
    469c:	4585                	li	a1,1
    469e:	4521                	li	a0,8
    46a0:	8edfe0ef          	jal	ra,2f8c <gpio_init>
D:\A_Dual\Dual-core_Communication_Demo\Dual-core_Communication_Demo\MASTER\obj/../CODE/Motor.c:24
    return;
    46a4:	0001                	nop
D:\A_Dual\Dual-core_Communication_Demo\Dual-core_Communication_Demo\MASTER\obj/../CODE/Motor.c:25
}
    46a6:	40b2                	lw	ra,12(sp)
    46a8:	4422                	lw	s0,8(sp)
    46aa:	0141                	addi	sp,sp,16
    46ac:	8082                	ret

000046ae <PID_Init>:
PID_Init():
D:\A_Dual\Dual-core_Communication_Demo\Dual-core_Communication_Demo\MASTER\obj/../CODE/PID.c:16
//extern Pid_Param Pid_fl,Pid_fr,Pid_rl,Pid_rr;
//extern int16 master_encoder_left,master_encoder_right;
//extern int16 slave_encoder_left,slave_encoder_right;

void PID_Init(Pid_Param *tmp)//PID
{
    46ae:	1101                	addi	sp,sp,-32
    46b0:	ce22                	sw	s0,28(sp)
    46b2:	1000                	addi	s0,sp,32
    46b4:	fea42623          	sw	a0,-20(s0)
D:\A_Dual\Dual-core_Communication_Demo\Dual-core_Communication_Demo\MASTER\obj/../CODE/PID.c:17
    tmp->kp=20;//
    46b8:	fec42783          	lw	a5,-20(s0)
    46bc:	6719                	lui	a4,0x6
    46be:	54072703          	lw	a4,1344(a4) # 6540 <_exit+0x34>
    46c2:	c398                	sw	a4,0(a5)
D:\A_Dual\Dual-core_Communication_Demo\Dual-core_Communication_Demo\MASTER\obj/../CODE/PID.c:18
    tmp->ki=5;//
    46c4:	fec42783          	lw	a5,-20(s0)
    46c8:	6719                	lui	a4,0x6
    46ca:	54472703          	lw	a4,1348(a4) # 6544 <_exit+0x38>
    46ce:	c3d8                	sw	a4,4(a5)
D:\A_Dual\Dual-core_Communication_Demo\Dual-core_Communication_Demo\MASTER\obj/../CODE/PID.c:19
    tmp->kd=0;//
    46d0:	fec42783          	lw	a5,-20(s0)
    46d4:	00000693          	li	a3,0
    46d8:	c794                	sw	a3,8(a5)
D:\A_Dual\Dual-core_Communication_Demo\Dual-core_Communication_Demo\MASTER\obj/../CODE/PID.c:20
    tmp->imax=5000;//
    46da:	fec42783          	lw	a5,-20(s0)
    46de:	6719                	lui	a4,0x6
    46e0:	54872703          	lw	a4,1352(a4) # 6548 <_exit+0x3c>
    46e4:	c7d8                	sw	a4,12(a5)
D:\A_Dual\Dual-core_Communication_Demo\Dual-core_Communication_Demo\MASTER\obj/../CODE/PID.c:22

    tmp->out=0;
    46e6:	fec42783          	lw	a5,-20(s0)
    46ea:	8736                	mv	a4,a3
    46ec:	cfd8                	sw	a4,28(a5)
D:\A_Dual\Dual-core_Communication_Demo\Dual-core_Communication_Demo\MASTER\obj/../CODE/PID.c:23
    tmp->out_p=0;
    46ee:	fec42783          	lw	a5,-20(s0)
    46f2:	cb98                	sw	a4,16(a5)
D:\A_Dual\Dual-core_Communication_Demo\Dual-core_Communication_Demo\MASTER\obj/../CODE/PID.c:24
    tmp->out_i=0;
    46f4:	fec42783          	lw	a5,-20(s0)
    46f8:	cbd8                	sw	a4,20(a5)
D:\A_Dual\Dual-core_Communication_Demo\Dual-core_Communication_Demo\MASTER\obj/../CODE/PID.c:25
    tmp->out_d=0;
    46fa:	fec42783          	lw	a5,-20(s0)
    46fe:	cf98                	sw	a4,24(a5)
D:\A_Dual\Dual-core_Communication_Demo\Dual-core_Communication_Demo\MASTER\obj/../CODE/PID.c:27

    tmp->integrator=0;
    4700:	fec42783          	lw	a5,-20(s0)
    4704:	d398                	sw	a4,32(a5)
D:\A_Dual\Dual-core_Communication_Demo\Dual-core_Communication_Demo\MASTER\obj/../CODE/PID.c:28
    tmp->last_last_error=0;
    4706:	fec42783          	lw	a5,-20(s0)
    470a:	d798                	sw	a4,40(a5)
D:\A_Dual\Dual-core_Communication_Demo\Dual-core_Communication_Demo\MASTER\obj/../CODE/PID.c:29
    tmp->last_error=0;
    470c:	fec42783          	lw	a5,-20(s0)
    4710:	d3d8                	sw	a4,36(a5)
D:\A_Dual\Dual-core_Communication_Demo\Dual-core_Communication_Demo\MASTER\obj/../CODE/PID.c:30
    tmp->last_t=0;
    4712:	fec42783          	lw	a5,-20(s0)
    4716:	0207a623          	sw	zero,44(a5)
D:\A_Dual\Dual-core_Communication_Demo\Dual-core_Communication_Demo\MASTER\obj/../CODE/PID.c:31
}
    471a:	0001                	nop
    471c:	4472                	lw	s0,28(sp)
    471e:	6105                	addi	sp,sp,32
    4720:	8082                	ret

00004722 <PID_incCtrl>:
PID_incCtrl():
D:\A_Dual\Dual-core_Communication_Demo\Dual-core_Communication_Demo\MASTER\obj/../CODE/PID.c:34

void PID_incCtrl(Pid_Param *tmp, float error)
{
    4722:	1101                	addi	sp,sp,-32
    4724:	ce06                	sw	ra,28(sp)
    4726:	cc22                	sw	s0,24(sp)
    4728:	ca26                	sw	s1,20(sp)
    472a:	1000                	addi	s0,sp,32
    472c:	fea42623          	sw	a0,-20(s0)
    4730:	feb42423          	sw	a1,-24(s0)
D:\A_Dual\Dual-core_Communication_Demo\Dual-core_Communication_Demo\MASTER\obj/../CODE/PID.c:35
    tmp->out_p = tmp->kp * (error-tmp->last_error);
    4734:	fec42783          	lw	a5,-20(s0)
    4738:	4384                	lw	s1,0(a5)
    473a:	fec42783          	lw	a5,-20(s0)
    473e:	53dc                	lw	a5,36(a5)
    4740:	85be                	mv	a1,a5
    4742:	fe842503          	lw	a0,-24(s0)
    4746:	25c9                	jal	4e08 <__subsf3>
    4748:	87aa                	mv	a5,a0
    474a:	85be                	mv	a1,a5
    474c:	8526                	mv	a0,s1
    474e:	212d                	jal	4b78 <__mulsf3>
    4750:	87aa                	mv	a5,a0
    4752:	873e                	mv	a4,a5
    4754:	fec42783          	lw	a5,-20(s0)
    4758:	cb98                	sw	a4,16(a5)
D:\A_Dual\Dual-core_Communication_Demo\Dual-core_Communication_Demo\MASTER\obj/../CODE/PID.c:36
    tmp->out_i = tmp->ki * error;
    475a:	fec42783          	lw	a5,-20(s0)
    475e:	43dc                	lw	a5,4(a5)
    4760:	fe842583          	lw	a1,-24(s0)
    4764:	853e                	mv	a0,a5
    4766:	2909                	jal	4b78 <__mulsf3>
    4768:	87aa                	mv	a5,a0
    476a:	873e                	mv	a4,a5
    476c:	fec42783          	lw	a5,-20(s0)
    4770:	cbd8                	sw	a4,20(a5)
D:\A_Dual\Dual-core_Communication_Demo\Dual-core_Communication_Demo\MASTER\obj/../CODE/PID.c:37
    tmp->out_d = tmp->kd * (error - 2*tmp->last_error + tmp->last_last_error);
    4772:	fec42783          	lw	a5,-20(s0)
    4776:	4784                	lw	s1,8(a5)
    4778:	fec42783          	lw	a5,-20(s0)
    477c:	53dc                	lw	a5,36(a5)
    477e:	85be                	mv	a1,a5
    4780:	853e                	mv	a0,a5
    4782:	2071                	jal	480e <__addsf3>
    4784:	87aa                	mv	a5,a0
    4786:	85be                	mv	a1,a5
    4788:	fe842503          	lw	a0,-24(s0)
    478c:	2db5                	jal	4e08 <__subsf3>
    478e:	87aa                	mv	a5,a0
    4790:	873e                	mv	a4,a5
    4792:	fec42783          	lw	a5,-20(s0)
    4796:	579c                	lw	a5,40(a5)
    4798:	85be                	mv	a1,a5
    479a:	853a                	mv	a0,a4
    479c:	288d                	jal	480e <__addsf3>
    479e:	87aa                	mv	a5,a0
    47a0:	85be                	mv	a1,a5
    47a2:	8526                	mv	a0,s1
    47a4:	2ed1                	jal	4b78 <__mulsf3>
    47a6:	87aa                	mv	a5,a0
    47a8:	873e                	mv	a4,a5
    47aa:	fec42783          	lw	a5,-20(s0)
    47ae:	cf98                	sw	a4,24(a5)
D:\A_Dual\Dual-core_Communication_Demo\Dual-core_Communication_Demo\MASTER\obj/../CODE/PID.c:39

    tmp->last_last_error = tmp->last_error;
    47b0:	fec42783          	lw	a5,-20(s0)
    47b4:	53d8                	lw	a4,36(a5)
    47b6:	fec42783          	lw	a5,-20(s0)
    47ba:	d798                	sw	a4,40(a5)
D:\A_Dual\Dual-core_Communication_Demo\Dual-core_Communication_Demo\MASTER\obj/../CODE/PID.c:40
    tmp->last_error = error;
    47bc:	fec42783          	lw	a5,-20(s0)
    47c0:	fe842703          	lw	a4,-24(s0)
    47c4:	d3d8                	sw	a4,36(a5)
D:\A_Dual\Dual-core_Communication_Demo\Dual-core_Communication_Demo\MASTER\obj/../CODE/PID.c:43

    //if(error > 1 || error < -1)
    tmp->out=tmp->out+tmp->out_p + tmp->out_i + tmp->out_d;
    47c6:	fec42783          	lw	a5,-20(s0)
    47ca:	4fd8                	lw	a4,28(a5)
    47cc:	fec42783          	lw	a5,-20(s0)
    47d0:	4b9c                	lw	a5,16(a5)
    47d2:	85be                	mv	a1,a5
    47d4:	853a                	mv	a0,a4
    47d6:	2825                	jal	480e <__addsf3>
    47d8:	87aa                	mv	a5,a0
    47da:	873e                	mv	a4,a5
    47dc:	fec42783          	lw	a5,-20(s0)
    47e0:	4bdc                	lw	a5,20(a5)
    47e2:	85be                	mv	a1,a5
    47e4:	853a                	mv	a0,a4
    47e6:	2025                	jal	480e <__addsf3>
    47e8:	87aa                	mv	a5,a0
    47ea:	873e                	mv	a4,a5
    47ec:	fec42783          	lw	a5,-20(s0)
    47f0:	4f9c                	lw	a5,24(a5)
    47f2:	85be                	mv	a1,a5
    47f4:	853a                	mv	a0,a4
    47f6:	2821                	jal	480e <__addsf3>
    47f8:	87aa                	mv	a5,a0
    47fa:	873e                	mv	a4,a5
    47fc:	fec42783          	lw	a5,-20(s0)
    4800:	cfd8                	sw	a4,28(a5)
D:\A_Dual\Dual-core_Communication_Demo\Dual-core_Communication_Demo\MASTER\obj/../CODE/PID.c:49

    /*if(tmp->out>tmp->imax)
        tmp->out=tmp->imax;
    if(tmp->out<-tmp->imax)
        tmp->out=-tmp->imax;*/
}
    4802:	0001                	nop
    4804:	40f2                	lw	ra,28(sp)
    4806:	4462                	lw	s0,24(sp)
    4808:	44d2                	lw	s1,20(sp)
    480a:	6105                	addi	sp,sp,32
    480c:	8082                	ret

0000480e <__addsf3>:
__addsf3():
    480e:	1141                	addi	sp,sp,-16
    4810:	00800737          	lui	a4,0x800
    4814:	177d                	addi	a4,a4,-1
    4816:	0175d813          	srli	a6,a1,0x17
    481a:	c226                	sw	s1,4(sp)
    481c:	01755493          	srli	s1,a0,0x17
    4820:	00a77333          	and	t1,a4,a0
    4824:	0ff4f493          	andi	s1,s1,255
    4828:	00b776b3          	and	a3,a4,a1
    482c:	c04a                	sw	s2,0(sp)
    482e:	0ff87813          	andi	a6,a6,255
    4832:	01f55913          	srli	s2,a0,0x1f
    4836:	c606                	sw	ra,12(sp)
    4838:	c422                	sw	s0,8(sp)
    483a:	81fd                	srli	a1,a1,0x1f
    483c:	879a                	mv	a5,t1
    483e:	8526                	mv	a0,s1
    4840:	864a                	mv	a2,s2
    4842:	00331e13          	slli	t3,t1,0x3
    4846:	00369e93          	slli	t4,a3,0x3
    484a:	410488b3          	sub	a7,s1,a6
    484e:	0eb90a63          	beq	s2,a1,4942 <__addsf3+0x134>
    4852:	0d105063          	blez	a7,4912 <__addsf3+0x104>
    4856:	14080463          	beqz	a6,499e <__addsf3+0x190>
    485a:	0ff00793          	li	a5,255
    485e:	14f48b63          	beq	s1,a5,49b4 <__addsf3+0x1a6>
    4862:	040007b7          	lui	a5,0x4000
    4866:	00feeeb3          	or	t4,t4,a5
    486a:	47ed                	li	a5,27
    486c:	2917c163          	blt	a5,a7,4aee <__addsf3+0x2e0>
    4870:	02000793          	li	a5,32
    4874:	411787b3          	sub	a5,a5,a7
    4878:	00fe97b3          	sll	a5,t4,a5
    487c:	011ed8b3          	srl	a7,t4,a7
    4880:	00f037b3          	snez	a5,a5
    4884:	00f8e7b3          	or	a5,a7,a5
    4888:	40fe07b3          	sub	a5,t3,a5
    488c:	00579713          	slli	a4,a5,0x5
    4890:	18075e63          	bgez	a4,4a2c <__addsf3+0x21e>
    4894:	04000437          	lui	s0,0x4000
    4898:	147d                	addi	s0,s0,-1
    489a:	8c7d                	and	s0,s0,a5
    489c:	8522                	mv	a0,s0
    489e:	1b9000ef          	jal	ra,5256 <__clzsi2>
    48a2:	156d                	addi	a0,a0,-5
    48a4:	00a417b3          	sll	a5,s0,a0
    48a8:	1a954863          	blt	a0,s1,4a58 <__addsf3+0x24a>
    48ac:	8d05                	sub	a0,a0,s1
    48ae:	00150413          	addi	s0,a0,1 # 40001 <_data_lma+0x39269>
    48b2:	02000713          	li	a4,32
    48b6:	8f01                	sub	a4,a4,s0
    48b8:	00e79733          	sll	a4,a5,a4
    48bc:	00e03733          	snez	a4,a4
    48c0:	0087d7b3          	srl	a5,a5,s0
    48c4:	8fd9                	or	a5,a5,a4
    48c6:	4481                	li	s1,0
    48c8:	0077f713          	andi	a4,a5,7
    48cc:	c719                	beqz	a4,48da <__addsf3+0xcc>
    48ce:	00f7f713          	andi	a4,a5,15
    48d2:	4691                	li	a3,4
    48d4:	00d70363          	beq	a4,a3,48da <__addsf3+0xcc>
    48d8:	0791                	addi	a5,a5,4
    48da:	00579713          	slli	a4,a5,0x5
    48de:	14075b63          	bgez	a4,4a34 <__addsf3+0x226>
    48e2:	0485                	addi	s1,s1,1
    48e4:	0ff00713          	li	a4,255
    48e8:	864a                	mv	a2,s2
    48ea:	16e48363          	beq	s1,a4,4a50 <__addsf3+0x242>
    48ee:	079a                	slli	a5,a5,0x6
    48f0:	83a5                	srli	a5,a5,0x9
    48f2:	0ff4f513          	andi	a0,s1,255
    48f6:	40b2                	lw	ra,12(sp)
    48f8:	4422                	lw	s0,8(sp)
    48fa:	07a6                	slli	a5,a5,0x9
    48fc:	01751493          	slli	s1,a0,0x17
    4900:	0097d513          	srli	a0,a5,0x9
    4904:	8d45                	or	a0,a0,s1
    4906:	067e                	slli	a2,a2,0x1f
    4908:	4492                	lw	s1,4(sp)
    490a:	4902                	lw	s2,0(sp)
    490c:	8d51                	or	a0,a0,a2
    490e:	0141                	addi	sp,sp,16
    4910:	8082                	ret
    4912:	0a089963          	bnez	a7,49c4 <__addsf3+0x1b6>
    4916:	00148713          	addi	a4,s1,1
    491a:	0fe77713          	andi	a4,a4,254
    491e:	14071763          	bnez	a4,4a6c <__addsf3+0x25e>
    4922:	22049063          	bnez	s1,4b42 <__addsf3+0x334>
    4926:	1e0e0d63          	beqz	t3,4b20 <__addsf3+0x312>
    492a:	fc0e86e3          	beqz	t4,48f6 <__addsf3+0xe8>
    492e:	41de07b3          	sub	a5,t3,t4
    4932:	00579713          	slli	a4,a5,0x5
    4936:	22075063          	bgez	a4,4b56 <__addsf3+0x348>
    493a:	41ce87b3          	sub	a5,t4,t3
    493e:	892e                	mv	s2,a1
    4940:	b761                	j	48c8 <__addsf3+0xba>
    4942:	0b105c63          	blez	a7,49fa <__addsf3+0x1ec>
    4946:	08080e63          	beqz	a6,49e2 <__addsf3+0x1d4>
    494a:	0ff00793          	li	a5,255
    494e:	06f48363          	beq	s1,a5,49b4 <__addsf3+0x1a6>
    4952:	040007b7          	lui	a5,0x4000
    4956:	00feeeb3          	or	t4,t4,a5
    495a:	47ed                	li	a5,27
    495c:	1f17c963          	blt	a5,a7,4b4e <__addsf3+0x340>
    4960:	02000793          	li	a5,32
    4964:	411787b3          	sub	a5,a5,a7
    4968:	00fe97b3          	sll	a5,t4,a5
    496c:	011ed8b3          	srl	a7,t4,a7
    4970:	00f037b3          	snez	a5,a5
    4974:	00f8e7b3          	or	a5,a7,a5
    4978:	97f2                	add	a5,a5,t3
    497a:	00579713          	slli	a4,a5,0x5
    497e:	0a075763          	bgez	a4,4a2c <__addsf3+0x21e>
    4982:	0485                	addi	s1,s1,1
    4984:	0ff00713          	li	a4,255
    4988:	0ce48463          	beq	s1,a4,4a50 <__addsf3+0x242>
    498c:	7e0006b7          	lui	a3,0x7e000
    4990:	0017d713          	srli	a4,a5,0x1
    4994:	16fd                	addi	a3,a3,-1
    4996:	8b85                	andi	a5,a5,1
    4998:	8f75                	and	a4,a4,a3
    499a:	8fd9                	or	a5,a5,a4
    499c:	b735                	j	48c8 <__addsf3+0xba>
    499e:	080e8d63          	beqz	t4,4a38 <__addsf3+0x22a>
    49a2:	18fd                	addi	a7,a7,-1
    49a4:	41de07b3          	sub	a5,t3,t4
    49a8:	ee0882e3          	beqz	a7,488c <__addsf3+0x7e>
    49ac:	0ff00793          	li	a5,255
    49b0:	eaf49de3          	bne	s1,a5,486a <__addsf3+0x5c>
    49b4:	08030d63          	beqz	t1,4a4e <__addsf3+0x240>
    49b8:	4601                	li	a2,0
    49ba:	0ff00513          	li	a0,255
    49be:	004007b7          	lui	a5,0x400
    49c2:	bf15                	j	48f6 <__addsf3+0xe8>
    49c4:	40980733          	sub	a4,a6,s1
    49c8:	e8ed                	bnez	s1,4aba <__addsf3+0x2ac>
    49ca:	140e0263          	beqz	t3,4b0e <__addsf3+0x300>
    49ce:	177d                	addi	a4,a4,-1
    49d0:	18070863          	beqz	a4,4b60 <__addsf3+0x352>
    49d4:	0ff00793          	li	a5,255
    49d8:	0ef81963          	bne	a6,a5,4aca <__addsf3+0x2bc>
    49dc:	892e                	mv	s2,a1
    49de:	8336                	mv	t1,a3
    49e0:	bfd1                	j	49b4 <__addsf3+0x1a6>
    49e2:	040e8b63          	beqz	t4,4a38 <__addsf3+0x22a>
    49e6:	18fd                	addi	a7,a7,-1
    49e8:	01de07b3          	add	a5,t3,t4
    49ec:	f80887e3          	beqz	a7,497a <__addsf3+0x16c>
    49f0:	0ff00793          	li	a5,255
    49f4:	f6f493e3          	bne	s1,a5,495a <__addsf3+0x14c>
    49f8:	bf75                	j	49b4 <__addsf3+0x1a6>
    49fa:	08089563          	bnez	a7,4a84 <__addsf3+0x276>
    49fe:	0485                	addi	s1,s1,1
    4a00:	0fe4f713          	andi	a4,s1,254
    4a04:	12071363          	bnez	a4,4b2a <__addsf3+0x31c>
    4a08:	10051763          	bnez	a0,4b16 <__addsf3+0x308>
    4a0c:	140e0f63          	beqz	t3,4b6a <__addsf3+0x35c>
    4a10:	ee0e83e3          	beqz	t4,48f6 <__addsf3+0xe8>
    4a14:	01de07b3          	add	a5,t3,t4
    4a18:	00579713          	slli	a4,a5,0x5
    4a1c:	4481                	li	s1,0
    4a1e:	00075763          	bgez	a4,4a2c <__addsf3+0x21e>
    4a22:	fc000737          	lui	a4,0xfc000
    4a26:	177d                	addi	a4,a4,-1
    4a28:	8ff9                	and	a5,a5,a4
    4a2a:	4485                	li	s1,1
    4a2c:	0077f713          	andi	a4,a5,7
    4a30:	e8071fe3          	bnez	a4,48ce <__addsf3+0xc0>
    4a34:	0037d313          	srli	t1,a5,0x3
    4a38:	0ff00793          	li	a5,255
    4a3c:	f6f48ce3          	beq	s1,a5,49b4 <__addsf3+0x1a6>
    4a40:	00931793          	slli	a5,t1,0x9
    4a44:	83a5                	srli	a5,a5,0x9
    4a46:	0ff4f513          	andi	a0,s1,255
    4a4a:	864a                	mv	a2,s2
    4a4c:	b56d                	j	48f6 <__addsf3+0xe8>
    4a4e:	864a                	mv	a2,s2
    4a50:	0ff00513          	li	a0,255
    4a54:	4781                	li	a5,0
    4a56:	b545                	j	48f6 <__addsf3+0xe8>
    4a58:	fc000737          	lui	a4,0xfc000
    4a5c:	177d                	addi	a4,a4,-1
    4a5e:	8ff9                	and	a5,a5,a4
    4a60:	0077f713          	andi	a4,a5,7
    4a64:	8c89                	sub	s1,s1,a0
    4a66:	e60714e3          	bnez	a4,48ce <__addsf3+0xc0>
    4a6a:	b7e9                	j	4a34 <__addsf3+0x226>
    4a6c:	41de0433          	sub	s0,t3,t4
    4a70:	00541793          	slli	a5,s0,0x5
    4a74:	0c07c363          	bltz	a5,4b3a <__addsf3+0x32c>
    4a78:	e20412e3          	bnez	s0,489c <__addsf3+0x8e>
    4a7c:	4601                	li	a2,0
    4a7e:	4501                	li	a0,0
    4a80:	4781                	li	a5,0
    4a82:	bd95                	j	48f6 <__addsf3+0xe8>
    4a84:	40980733          	sub	a4,a6,s1
    4a88:	c4ad                	beqz	s1,4af2 <__addsf3+0x2e4>
    4a8a:	0ff00793          	li	a5,255
    4a8e:	f4f808e3          	beq	a6,a5,49de <__addsf3+0x1d0>
    4a92:	040007b7          	lui	a5,0x4000
    4a96:	00fe6e33          	or	t3,t3,a5
    4a9a:	47ed                	li	a5,27
    4a9c:	0ce7cc63          	blt	a5,a4,4b74 <__addsf3+0x366>
    4aa0:	02000793          	li	a5,32
    4aa4:	8f99                	sub	a5,a5,a4
    4aa6:	00fe17b3          	sll	a5,t3,a5
    4aaa:	00ee5733          	srl	a4,t3,a4
    4aae:	00f037b3          	snez	a5,a5
    4ab2:	8fd9                	or	a5,a5,a4
    4ab4:	97f6                	add	a5,a5,t4
    4ab6:	84c2                	mv	s1,a6
    4ab8:	b5c9                	j	497a <__addsf3+0x16c>
    4aba:	0ff00793          	li	a5,255
    4abe:	f0f80fe3          	beq	a6,a5,49dc <__addsf3+0x1ce>
    4ac2:	040007b7          	lui	a5,0x4000
    4ac6:	00fe6e33          	or	t3,t3,a5
    4aca:	47ed                	li	a5,27
    4acc:	08e7c363          	blt	a5,a4,4b52 <__addsf3+0x344>
    4ad0:	02000693          	li	a3,32
    4ad4:	8e99                	sub	a3,a3,a4
    4ad6:	00de16b3          	sll	a3,t3,a3
    4ada:	00ee57b3          	srl	a5,t3,a4
    4ade:	00d03733          	snez	a4,a3
    4ae2:	8fd9                	or	a5,a5,a4
    4ae4:	40fe87b3          	sub	a5,t4,a5
    4ae8:	84c2                	mv	s1,a6
    4aea:	892e                	mv	s2,a1
    4aec:	b345                	j	488c <__addsf3+0x7e>
    4aee:	4785                	li	a5,1
    4af0:	bb61                	j	4888 <__addsf3+0x7a>
    4af2:	060e0e63          	beqz	t3,4b6e <__addsf3+0x360>
    4af6:	177d                	addi	a4,a4,-1
    4af8:	01de07b3          	add	a5,t3,t4
    4afc:	84c2                	mv	s1,a6
    4afe:	e6070ee3          	beqz	a4,497a <__addsf3+0x16c>
    4b02:	0ff00793          	li	a5,255
    4b06:	f8f81ae3          	bne	a6,a5,4a9a <__addsf3+0x28c>
    4b0a:	8336                	mv	t1,a3
    4b0c:	b565                	j	49b4 <__addsf3+0x1a6>
    4b0e:	8336                	mv	t1,a3
    4b10:	84c2                	mv	s1,a6
    4b12:	892e                	mv	s2,a1
    4b14:	b715                	j	4a38 <__addsf3+0x22a>
    4b16:	ec0e04e3          	beqz	t3,49de <__addsf3+0x1d0>
    4b1a:	e80e8de3          	beqz	t4,49b4 <__addsf3+0x1a6>
    4b1e:	bd69                	j	49b8 <__addsf3+0x1aa>
    4b20:	020e8d63          	beqz	t4,4b5a <__addsf3+0x34c>
    4b24:	862e                	mv	a2,a1
    4b26:	87b6                	mv	a5,a3
    4b28:	b3f9                	j	48f6 <__addsf3+0xe8>
    4b2a:	0ff00793          	li	a5,255
    4b2e:	f2f481e3          	beq	s1,a5,4a50 <__addsf3+0x242>
    4b32:	01de07b3          	add	a5,t3,t4
    4b36:	8385                	srli	a5,a5,0x1
    4b38:	bdd5                	j	4a2c <__addsf3+0x21e>
    4b3a:	41ce8433          	sub	s0,t4,t3
    4b3e:	892e                	mv	s2,a1
    4b40:	bbb1                	j	489c <__addsf3+0x8e>
    4b42:	fc0e1ce3          	bnez	t3,4b1a <__addsf3+0x30c>
    4b46:	e60e89e3          	beqz	t4,49b8 <__addsf3+0x1aa>
    4b4a:	892e                	mv	s2,a1
    4b4c:	bd49                	j	49de <__addsf3+0x1d0>
    4b4e:	4785                	li	a5,1
    4b50:	b525                	j	4978 <__addsf3+0x16a>
    4b52:	4785                	li	a5,1
    4b54:	bf41                	j	4ae4 <__addsf3+0x2d6>
    4b56:	ec079be3          	bnez	a5,4a2c <__addsf3+0x21e>
    4b5a:	4601                	li	a2,0
    4b5c:	4781                	li	a5,0
    4b5e:	bb61                	j	48f6 <__addsf3+0xe8>
    4b60:	41ce87b3          	sub	a5,t4,t3
    4b64:	84c2                	mv	s1,a6
    4b66:	892e                	mv	s2,a1
    4b68:	b315                	j	488c <__addsf3+0x7e>
    4b6a:	87b6                	mv	a5,a3
    4b6c:	b369                	j	48f6 <__addsf3+0xe8>
    4b6e:	8336                	mv	t1,a3
    4b70:	84c2                	mv	s1,a6
    4b72:	b5d9                	j	4a38 <__addsf3+0x22a>
    4b74:	4785                	li	a5,1
    4b76:	bf3d                	j	4ab4 <__addsf3+0x2a6>

00004b78 <__mulsf3>:
__mulsf3():
    4b78:	7179                	addi	sp,sp,-48
    4b7a:	d422                	sw	s0,40(sp)
    4b7c:	01755413          	srli	s0,a0,0x17
    4b80:	ce4e                	sw	s3,28(sp)
    4b82:	cc52                	sw	s4,24(sp)
    4b84:	00951993          	slli	s3,a0,0x9
    4b88:	d606                	sw	ra,44(sp)
    4b8a:	d226                	sw	s1,36(sp)
    4b8c:	d04a                	sw	s2,32(sp)
    4b8e:	ca56                	sw	s5,20(sp)
    4b90:	c85a                	sw	s6,16(sp)
    4b92:	0ff47413          	andi	s0,s0,255
    4b96:	0099d993          	srli	s3,s3,0x9
    4b9a:	01f55a13          	srli	s4,a0,0x1f
    4b9e:	c469                	beqz	s0,4c68 <__mulsf3+0xf0>
    4ba0:	0ff00793          	li	a5,255
    4ba4:	0ef40863          	beq	s0,a5,4c94 <__mulsf3+0x11c>
    4ba8:	00399793          	slli	a5,s3,0x3
    4bac:	04000737          	lui	a4,0x4000
    4bb0:	00e7e9b3          	or	s3,a5,a4
    4bb4:	f8140413          	addi	s0,s0,-127 # 3ffff81 <_data_lma+0x3ff91e9>
    4bb8:	4481                	li	s1,0
    4bba:	4b01                	li	s6,0
    4bbc:	0175d713          	srli	a4,a1,0x17
    4bc0:	00959a93          	slli	s5,a1,0x9
    4bc4:	0ff77713          	andi	a4,a4,255
    4bc8:	009ada93          	srli	s5,s5,0x9
    4bcc:	01f5d913          	srli	s2,a1,0x1f
    4bd0:	cf45                	beqz	a4,4c88 <__mulsf3+0x110>
    4bd2:	0ff00793          	li	a5,255
    4bd6:	02f70c63          	beq	a4,a5,4c0e <__mulsf3+0x96>
    4bda:	0a8e                	slli	s5,s5,0x3
    4bdc:	f8170713          	addi	a4,a4,-127 # 3ffff81 <_data_lma+0x3ff91e9>
    4be0:	040007b7          	lui	a5,0x4000
    4be4:	00faeab3          	or	s5,s5,a5
    4be8:	943a                	add	s0,s0,a4
    4bea:	4601                	li	a2,0
    4bec:	012a4533          	xor	a0,s4,s2
    4bf0:	47bd                	li	a5,15
    4bf2:	86aa                	mv	a3,a0
    4bf4:	00140593          	addi	a1,s0,1
    4bf8:	1097e063          	bltu	a5,s1,4cf8 <__mulsf3+0x180>
    4bfc:	00002717          	auipc	a4,0x2
    4c00:	f8070713          	addi	a4,a4,-128 # 6b7c <UARTN+0x10>
    4c04:	048a                	slli	s1,s1,0x2
    4c06:	94ba                	add	s1,s1,a4
    4c08:	409c                	lw	a5,0(s1)
    4c0a:	97ba                	add	a5,a5,a4
    4c0c:	8782                	jr	a5
    4c0e:	0ff40413          	addi	s0,s0,255
    4c12:	0c0a9663          	bnez	s5,4cde <__mulsf3+0x166>
    4c16:	0024e493          	ori	s1,s1,2
    4c1a:	4609                	li	a2,2
    4c1c:	bfc1                	j	4bec <__mulsf3+0x74>
    4c1e:	4501                	li	a0,0
    4c20:	0ff00713          	li	a4,255
    4c24:	004007b7          	lui	a5,0x400
    4c28:	50b2                	lw	ra,44(sp)
    4c2a:	5422                	lw	s0,40(sp)
    4c2c:	07a6                	slli	a5,a5,0x9
    4c2e:	075e                	slli	a4,a4,0x17
    4c30:	83a5                	srli	a5,a5,0x9
    4c32:	057e                	slli	a0,a0,0x1f
    4c34:	8fd9                	or	a5,a5,a4
    4c36:	5492                	lw	s1,36(sp)
    4c38:	5902                	lw	s2,32(sp)
    4c3a:	49f2                	lw	s3,28(sp)
    4c3c:	4a62                	lw	s4,24(sp)
    4c3e:	4ad2                	lw	s5,20(sp)
    4c40:	4b42                	lw	s6,16(sp)
    4c42:	8d5d                	or	a0,a0,a5
    4c44:	6145                	addi	sp,sp,48
    4c46:	8082                	ret
    4c48:	86ca                	mv	a3,s2
    4c4a:	89d6                	mv	s3,s5
    4c4c:	8b32                	mv	s6,a2
    4c4e:	4789                	li	a5,2
    4c50:	08fb0f63          	beq	s6,a5,4cee <__mulsf3+0x176>
    4c54:	478d                	li	a5,3
    4c56:	fcfb04e3          	beq	s6,a5,4c1e <__mulsf3+0xa6>
    4c5a:	4785                	li	a5,1
    4c5c:	8536                	mv	a0,a3
    4c5e:	1afb1063          	bne	s6,a5,4dfe <__mulsf3+0x286>
    4c62:	4701                	li	a4,0
    4c64:	4781                	li	a5,0
    4c66:	b7c9                	j	4c28 <__mulsf3+0xb0>
    4c68:	04099d63          	bnez	s3,4cc2 <__mulsf3+0x14a>
    4c6c:	0175d713          	srli	a4,a1,0x17
    4c70:	00959a93          	slli	s5,a1,0x9
    4c74:	0ff77713          	andi	a4,a4,255
    4c78:	4491                	li	s1,4
    4c7a:	4401                	li	s0,0
    4c7c:	4b05                	li	s6,1
    4c7e:	009ada93          	srli	s5,s5,0x9
    4c82:	01f5d913          	srli	s2,a1,0x1f
    4c86:	f731                	bnez	a4,4bd2 <__mulsf3+0x5a>
    4c88:	000a9d63          	bnez	s5,4ca2 <__mulsf3+0x12a>
    4c8c:	0014e493          	ori	s1,s1,1
    4c90:	4605                	li	a2,1
    4c92:	bfa9                	j	4bec <__mulsf3+0x74>
    4c94:	02099263          	bnez	s3,4cb8 <__mulsf3+0x140>
    4c98:	44a1                	li	s1,8
    4c9a:	0ff00413          	li	s0,255
    4c9e:	4b09                	li	s6,2
    4ca0:	bf31                	j	4bbc <__mulsf3+0x44>
    4ca2:	8556                	mv	a0,s5
    4ca4:	2b4d                	jal	5256 <__clzsi2>
    4ca6:	ffb50793          	addi	a5,a0,-5
    4caa:	8c09                	sub	s0,s0,a0
    4cac:	00fa9ab3          	sll	s5,s5,a5
    4cb0:	f8a40413          	addi	s0,s0,-118
    4cb4:	4601                	li	a2,0
    4cb6:	bf1d                	j	4bec <__mulsf3+0x74>
    4cb8:	44b1                	li	s1,12
    4cba:	0ff00413          	li	s0,255
    4cbe:	4b0d                	li	s6,3
    4cc0:	bdf5                	j	4bbc <__mulsf3+0x44>
    4cc2:	854e                	mv	a0,s3
    4cc4:	c62e                	sw	a1,12(sp)
    4cc6:	2b41                	jal	5256 <__clzsi2>
    4cc8:	ffb50793          	addi	a5,a0,-5
    4ccc:	f8a00413          	li	s0,-118
    4cd0:	00f999b3          	sll	s3,s3,a5
    4cd4:	8c09                	sub	s0,s0,a0
    4cd6:	4481                	li	s1,0
    4cd8:	4b01                	li	s6,0
    4cda:	45b2                	lw	a1,12(sp)
    4cdc:	b5c5                	j	4bbc <__mulsf3+0x44>
    4cde:	0034e493          	ori	s1,s1,3
    4ce2:	460d                	li	a2,3
    4ce4:	b721                	j	4bec <__mulsf3+0x74>
    4ce6:	4789                	li	a5,2
    4ce8:	86d2                	mv	a3,s4
    4cea:	f6fb15e3          	bne	s6,a5,4c54 <__mulsf3+0xdc>
    4cee:	8536                	mv	a0,a3
    4cf0:	0ff00713          	li	a4,255
    4cf4:	4781                	li	a5,0
    4cf6:	bf0d                	j	4c28 <__mulsf3+0xb0>
    4cf8:	6341                	lui	t1,0x10
    4cfa:	fff30693          	addi	a3,t1,-1 # ffff <_data_lma+0x9267>
    4cfe:	0109d613          	srli	a2,s3,0x10
    4d02:	010ad893          	srli	a7,s5,0x10
    4d06:	00d9f7b3          	and	a5,s3,a3
    4d0a:	00dafab3          	and	s5,s5,a3
    4d0e:	03578833          	mul	a6,a5,s5
    4d12:	02f889b3          	mul	s3,a7,a5
    4d16:	01085713          	srli	a4,a6,0x10
    4d1a:	03560ab3          	mul	s5,a2,s5
    4d1e:	99d6                	add	s3,s3,s5
    4d20:	974e                	add	a4,a4,s3
    4d22:	03160633          	mul	a2,a2,a7
    4d26:	01577363          	bgeu	a4,s5,4d2c <__mulsf3+0x1b4>
    4d2a:	961a                	add	a2,a2,t1
    4d2c:	67c1                	lui	a5,0x10
    4d2e:	17fd                	addi	a5,a5,-1
    4d30:	00f776b3          	and	a3,a4,a5
    4d34:	00f87833          	and	a6,a6,a5
    4d38:	06c2                	slli	a3,a3,0x10
    4d3a:	96c2                	add	a3,a3,a6
    4d3c:	00669993          	slli	s3,a3,0x6
    4d40:	01075793          	srli	a5,a4,0x10
    4d44:	013039b3          	snez	s3,s3
    4d48:	82e9                	srli	a3,a3,0x1a
    4d4a:	97b2                	add	a5,a5,a2
    4d4c:	079a                	slli	a5,a5,0x6
    4d4e:	00d9e6b3          	or	a3,s3,a3
    4d52:	00d7e9b3          	or	s3,a5,a3
    4d56:	00499793          	slli	a5,s3,0x4
    4d5a:	0007d963          	bgez	a5,4d6c <__mulsf3+0x1f4>
    4d5e:	0019d713          	srli	a4,s3,0x1
    4d62:	0019f793          	andi	a5,s3,1
    4d66:	00f769b3          	or	s3,a4,a5
    4d6a:	842e                	mv	s0,a1
    4d6c:	07f40713          	addi	a4,s0,127
    4d70:	04e05063          	blez	a4,4db0 <__mulsf3+0x238>
    4d74:	0079f793          	andi	a5,s3,7
    4d78:	c799                	beqz	a5,4d86 <__mulsf3+0x20e>
    4d7a:	00f9f793          	andi	a5,s3,15
    4d7e:	4691                	li	a3,4
    4d80:	00d78363          	beq	a5,a3,4d86 <__mulsf3+0x20e>
    4d84:	0991                	addi	s3,s3,4
    4d86:	00499793          	slli	a5,s3,0x4
    4d8a:	0007d963          	bgez	a5,4d9c <__mulsf3+0x224>
    4d8e:	f80007b7          	lui	a5,0xf8000
    4d92:	17fd                	addi	a5,a5,-1
    4d94:	00f9f9b3          	and	s3,s3,a5
    4d98:	08040713          	addi	a4,s0,128
    4d9c:	0fe00793          	li	a5,254
    4da0:	04e7cb63          	blt	a5,a4,4df6 <__mulsf3+0x27e>
    4da4:	00699793          	slli	a5,s3,0x6
    4da8:	83a5                	srli	a5,a5,0x9
    4daa:	0ff77713          	andi	a4,a4,255
    4dae:	bdad                	j	4c28 <__mulsf3+0xb0>
    4db0:	4785                	li	a5,1
    4db2:	40e786b3          	sub	a3,a5,a4
    4db6:	c711                	beqz	a4,4dc2 <__mulsf3+0x24a>
    4db8:	466d                	li	a2,27
    4dba:	4701                	li	a4,0
    4dbc:	4781                	li	a5,0
    4dbe:	e6d645e3          	blt	a2,a3,4c28 <__mulsf3+0xb0>
    4dc2:	09e40713          	addi	a4,s0,158
    4dc6:	00e99733          	sll	a4,s3,a4
    4dca:	00e03733          	snez	a4,a4
    4dce:	00d9d7b3          	srl	a5,s3,a3
    4dd2:	8fd9                	or	a5,a5,a4
    4dd4:	0077f713          	andi	a4,a5,7
    4dd8:	c719                	beqz	a4,4de6 <__mulsf3+0x26e>
    4dda:	00f7f713          	andi	a4,a5,15
    4dde:	4691                	li	a3,4
    4de0:	00d70363          	beq	a4,a3,4de6 <__mulsf3+0x26e>
    4de4:	0791                	addi	a5,a5,4
    4de6:	00579713          	slli	a4,a5,0x5
    4dea:	00074c63          	bltz	a4,4e02 <__mulsf3+0x28a>
    4dee:	079a                	slli	a5,a5,0x6
    4df0:	83a5                	srli	a5,a5,0x9
    4df2:	4701                	li	a4,0
    4df4:	bd15                	j	4c28 <__mulsf3+0xb0>
    4df6:	0ff00713          	li	a4,255
    4dfa:	4781                	li	a5,0
    4dfc:	b535                	j	4c28 <__mulsf3+0xb0>
    4dfe:	842e                	mv	s0,a1
    4e00:	b7b5                	j	4d6c <__mulsf3+0x1f4>
    4e02:	4705                	li	a4,1
    4e04:	4781                	li	a5,0
    4e06:	b50d                	j	4c28 <__mulsf3+0xb0>

00004e08 <__subsf3>:
__subsf3():
    4e08:	00800737          	lui	a4,0x800
    4e0c:	1141                	addi	sp,sp,-16
    4e0e:	177d                	addi	a4,a4,-1
    4e10:	01755693          	srli	a3,a0,0x17
    4e14:	0175d813          	srli	a6,a1,0x17
    4e18:	00a777b3          	and	a5,a4,a0
    4e1c:	0ff6f693          	andi	a3,a3,255
    4e20:	01f55e93          	srli	t4,a0,0x1f
    4e24:	00b77633          	and	a2,a4,a1
    4e28:	c226                	sw	s1,4(sp)
    4e2a:	c04a                	sw	s2,0(sp)
    4e2c:	0ff87813          	andi	a6,a6,255
    4e30:	c606                	sw	ra,12(sp)
    4e32:	c422                	sw	s0,8(sp)
    4e34:	0ff00313          	li	t1,255
    4e38:	8e3e                	mv	t3,a5
    4e3a:	8936                	mv	s2,a3
    4e3c:	84f6                	mv	s1,t4
    4e3e:	00379f13          	slli	t5,a5,0x3
    4e42:	81fd                	srli	a1,a1,0x1f
    4e44:	00361513          	slli	a0,a2,0x3
    4e48:	410688b3          	sub	a7,a3,a6
    4e4c:	10680263          	beq	a6,t1,4f50 <__subsf3+0x148>
    4e50:	0015c593          	xori	a1,a1,1
    4e54:	10be8c63          	beq	t4,a1,4f6c <__subsf3+0x164>
    4e58:	0d105463          	blez	a7,4f20 <__subsf3+0x118>
    4e5c:	10081063          	bnez	a6,4f5c <__subsf3+0x154>
    4e60:	1e050463          	beqz	a0,5048 <__subsf3+0x240>
    4e64:	18fd                	addi	a7,a7,-1
    4e66:	40af07b3          	sub	a5,t5,a0
    4e6a:	02088663          	beqz	a7,4e96 <__subsf3+0x8e>
    4e6e:	0ff00793          	li	a5,255
    4e72:	16f68863          	beq	a3,a5,4fe2 <__subsf3+0x1da>
    4e76:	47ed                	li	a5,27
    4e78:	2917c763          	blt	a5,a7,5106 <__subsf3+0x2fe>
    4e7c:	02000713          	li	a4,32
    4e80:	41170733          	sub	a4,a4,a7
    4e84:	00e51733          	sll	a4,a0,a4
    4e88:	011557b3          	srl	a5,a0,a7
    4e8c:	00e03733          	snez	a4,a4
    4e90:	8fd9                	or	a5,a5,a4
    4e92:	40ff07b3          	sub	a5,t5,a5
    4e96:	00579713          	slli	a4,a5,0x5
    4e9a:	1a075163          	bgez	a4,503c <__subsf3+0x234>
    4e9e:	04000437          	lui	s0,0x4000
    4ea2:	147d                	addi	s0,s0,-1
    4ea4:	8c7d                	and	s0,s0,a5
    4ea6:	8522                	mv	a0,s0
    4ea8:	267d                	jal	5256 <__clzsi2>
    4eaa:	156d                	addi	a0,a0,-5
    4eac:	00a417b3          	sll	a5,s0,a0
    4eb0:	1b254e63          	blt	a0,s2,506c <__subsf3+0x264>
    4eb4:	41250533          	sub	a0,a0,s2
    4eb8:	00150413          	addi	s0,a0,1
    4ebc:	02000713          	li	a4,32
    4ec0:	8f01                	sub	a4,a4,s0
    4ec2:	00e79733          	sll	a4,a5,a4
    4ec6:	00e03733          	snez	a4,a4
    4eca:	0087d7b3          	srl	a5,a5,s0
    4ece:	8fd9                	or	a5,a5,a4
    4ed0:	4901                	li	s2,0
    4ed2:	0077f713          	andi	a4,a5,7
    4ed6:	c719                	beqz	a4,4ee4 <__subsf3+0xdc>
    4ed8:	00f7f713          	andi	a4,a5,15
    4edc:	4691                	li	a3,4
    4ede:	00d70363          	beq	a4,a3,4ee4 <__subsf3+0xdc>
    4ee2:	0791                	addi	a5,a5,4
    4ee4:	00579713          	slli	a4,a5,0x5
    4ee8:	14075e63          	bgez	a4,5044 <__subsf3+0x23c>
    4eec:	00190693          	addi	a3,s2,1
    4ef0:	0ff00713          	li	a4,255
    4ef4:	0014fe93          	andi	t4,s1,1
    4ef8:	16e68663          	beq	a3,a4,5064 <__subsf3+0x25c>
    4efc:	079a                	slli	a5,a5,0x6
    4efe:	83a5                	srli	a5,a5,0x9
    4f00:	0ff6f693          	andi	a3,a3,255
    4f04:	07a6                	slli	a5,a5,0x9
    4f06:	40b2                	lw	ra,12(sp)
    4f08:	4422                	lw	s0,8(sp)
    4f0a:	0097d513          	srli	a0,a5,0x9
    4f0e:	06de                	slli	a3,a3,0x17
    4f10:	01fe9793          	slli	a5,t4,0x1f
    4f14:	8d55                	or	a0,a0,a3
    4f16:	4492                	lw	s1,4(sp)
    4f18:	4902                	lw	s2,0(sp)
    4f1a:	8d5d                	or	a0,a0,a5
    4f1c:	0141                	addi	sp,sp,16
    4f1e:	8082                	ret
    4f20:	0a089263          	bnez	a7,4fc4 <__subsf3+0x1bc>
    4f24:	00168713          	addi	a4,a3,1 # 7e000001 <_eusrstack+0x5dffb001>
    4f28:	0fe77713          	andi	a4,a4,254
    4f2c:	14071b63          	bnez	a4,5082 <__subsf3+0x27a>
    4f30:	22069463          	bnez	a3,5158 <__subsf3+0x350>
    4f34:	200f0263          	beqz	t5,5138 <__subsf3+0x330>
    4f38:	d571                	beqz	a0,4f04 <__subsf3+0xfc>
    4f3a:	40af07b3          	sub	a5,t5,a0
    4f3e:	00579713          	slli	a4,a5,0x5
    4f42:	22075563          	bgez	a4,516c <__subsf3+0x364>
    4f46:	41e507b3          	sub	a5,a0,t5
    4f4a:	4901                	li	s2,0
    4f4c:	84ae                	mv	s1,a1
    4f4e:	b751                	j	4ed2 <__subsf3+0xca>
    4f50:	f00500e3          	beqz	a0,4e50 <__subsf3+0x48>
    4f54:	0abe8a63          	beq	t4,a1,5008 <__subsf3+0x200>
    4f58:	fd1054e3          	blez	a7,4f20 <__subsf3+0x118>
    4f5c:	0ff00793          	li	a5,255
    4f60:	08f68163          	beq	a3,a5,4fe2 <__subsf3+0x1da>
    4f64:	040007b7          	lui	a5,0x4000
    4f68:	8d5d                	or	a0,a0,a5
    4f6a:	b731                	j	4e76 <__subsf3+0x6e>
    4f6c:	09105e63          	blez	a7,5008 <__subsf3+0x200>
    4f70:	08080163          	beqz	a6,4ff2 <__subsf3+0x1ea>
    4f74:	0ff00793          	li	a5,255
    4f78:	06f68563          	beq	a3,a5,4fe2 <__subsf3+0x1da>
    4f7c:	040007b7          	lui	a5,0x4000
    4f80:	8d5d                	or	a0,a0,a5
    4f82:	47ed                	li	a5,27
    4f84:	1f17c063          	blt	a5,a7,5164 <__subsf3+0x35c>
    4f88:	02000713          	li	a4,32
    4f8c:	41170733          	sub	a4,a4,a7
    4f90:	00e51733          	sll	a4,a0,a4
    4f94:	011557b3          	srl	a5,a0,a7
    4f98:	00e03733          	snez	a4,a4
    4f9c:	8fd9                	or	a5,a5,a4
    4f9e:	97fa                	add	a5,a5,t5
    4fa0:	00579713          	slli	a4,a5,0x5
    4fa4:	08075c63          	bgez	a4,503c <__subsf3+0x234>
    4fa8:	0905                	addi	s2,s2,1
    4faa:	0ff00713          	li	a4,255
    4fae:	0ae90b63          	beq	s2,a4,5064 <__subsf3+0x25c>
    4fb2:	7e0006b7          	lui	a3,0x7e000
    4fb6:	0017d713          	srli	a4,a5,0x1
    4fba:	16fd                	addi	a3,a3,-1
    4fbc:	8b85                	andi	a5,a5,1
    4fbe:	8f75                	and	a4,a4,a3
    4fc0:	8fd9                	or	a5,a5,a4
    4fc2:	bf01                	j	4ed2 <__subsf3+0xca>
    4fc4:	40d80733          	sub	a4,a6,a3
    4fc8:	10069563          	bnez	a3,50d2 <__subsf3+0x2ca>
    4fcc:	140f0d63          	beqz	t5,5126 <__subsf3+0x31e>
    4fd0:	177d                	addi	a4,a4,-1
    4fd2:	1a070363          	beqz	a4,5178 <__subsf3+0x370>
    4fd6:	0ff00793          	li	a5,255
    4fda:	10f81463          	bne	a6,a5,50e2 <__subsf3+0x2da>
    4fde:	84ae                	mv	s1,a1
    4fe0:	8e32                	mv	t3,a2
    4fe2:	060e0f63          	beqz	t3,5060 <__subsf3+0x258>
    4fe6:	4e81                	li	t4,0
    4fe8:	0ff00693          	li	a3,255
    4fec:	004007b7          	lui	a5,0x400
    4ff0:	bf11                	j	4f04 <__subsf3+0xfc>
    4ff2:	c939                	beqz	a0,5048 <__subsf3+0x240>
    4ff4:	18fd                	addi	a7,a7,-1
    4ff6:	00af07b3          	add	a5,t5,a0
    4ffa:	fa0883e3          	beqz	a7,4fa0 <__subsf3+0x198>
    4ffe:	0ff00793          	li	a5,255
    5002:	f8f690e3          	bne	a3,a5,4f82 <__subsf3+0x17a>
    5006:	bff1                	j	4fe2 <__subsf3+0x1da>
    5008:	08089963          	bnez	a7,509a <__subsf3+0x292>
    500c:	00168913          	addi	s2,a3,1 # 7e000001 <_eusrstack+0x5dffb001>
    5010:	0fe97713          	andi	a4,s2,254
    5014:	12071663          	bnez	a4,5140 <__subsf3+0x338>
    5018:	10069b63          	bnez	a3,512e <__subsf3+0x326>
    501c:	160f0363          	beqz	t5,5182 <__subsf3+0x37a>
    5020:	ee0502e3          	beqz	a0,4f04 <__subsf3+0xfc>
    5024:	00af07b3          	add	a5,t5,a0
    5028:	00579713          	slli	a4,a5,0x5
    502c:	4901                	li	s2,0
    502e:	00075763          	bgez	a4,503c <__subsf3+0x234>
    5032:	fc000737          	lui	a4,0xfc000
    5036:	177d                	addi	a4,a4,-1
    5038:	8ff9                	and	a5,a5,a4
    503a:	4905                	li	s2,1
    503c:	0077f713          	andi	a4,a5,7
    5040:	e8071ce3          	bnez	a4,4ed8 <__subsf3+0xd0>
    5044:	0037de13          	srli	t3,a5,0x3
    5048:	0ff00793          	li	a5,255
    504c:	f8f90be3          	beq	s2,a5,4fe2 <__subsf3+0x1da>
    5050:	009e1793          	slli	a5,t3,0x9
    5054:	83a5                	srli	a5,a5,0x9
    5056:	0ff97693          	andi	a3,s2,255
    505a:	0014fe93          	andi	t4,s1,1
    505e:	b55d                	j	4f04 <__subsf3+0xfc>
    5060:	0014fe93          	andi	t4,s1,1
    5064:	0ff00693          	li	a3,255
    5068:	4781                	li	a5,0
    506a:	bd69                	j	4f04 <__subsf3+0xfc>
    506c:	fc000737          	lui	a4,0xfc000
    5070:	177d                	addi	a4,a4,-1
    5072:	8ff9                	and	a5,a5,a4
    5074:	0077f713          	andi	a4,a5,7
    5078:	40a90933          	sub	s2,s2,a0
    507c:	e4071ee3          	bnez	a4,4ed8 <__subsf3+0xd0>
    5080:	b7d1                	j	5044 <__subsf3+0x23c>
    5082:	40af0433          	sub	s0,t5,a0
    5086:	00541793          	slli	a5,s0,0x5
    508a:	0c07c363          	bltz	a5,5150 <__subsf3+0x348>
    508e:	e0041ce3          	bnez	s0,4ea6 <__subsf3+0x9e>
    5092:	4e81                	li	t4,0
    5094:	4681                	li	a3,0
    5096:	4781                	li	a5,0
    5098:	b5b5                	j	4f04 <__subsf3+0xfc>
    509a:	40d80733          	sub	a4,a6,a3
    509e:	c6b5                	beqz	a3,510a <__subsf3+0x302>
    50a0:	0ff00793          	li	a5,255
    50a4:	f2f80ee3          	beq	a6,a5,4fe0 <__subsf3+0x1d8>
    50a8:	040007b7          	lui	a5,0x4000
    50ac:	00ff6f33          	or	t5,t5,a5
    50b0:	47ed                	li	a5,27
    50b2:	0ce7cd63          	blt	a5,a4,518c <__subsf3+0x384>
    50b6:	02000793          	li	a5,32
    50ba:	8f99                	sub	a5,a5,a4
    50bc:	00ff17b3          	sll	a5,t5,a5
    50c0:	00ef5733          	srl	a4,t5,a4
    50c4:	00f037b3          	snez	a5,a5
    50c8:	8f5d                	or	a4,a4,a5
    50ca:	00a707b3          	add	a5,a4,a0
    50ce:	8942                	mv	s2,a6
    50d0:	bdc1                	j	4fa0 <__subsf3+0x198>
    50d2:	0ff00793          	li	a5,255
    50d6:	f0f804e3          	beq	a6,a5,4fde <__subsf3+0x1d6>
    50da:	040007b7          	lui	a5,0x4000
    50de:	00ff6f33          	or	t5,t5,a5
    50e2:	47ed                	li	a5,27
    50e4:	08e7c263          	blt	a5,a4,5168 <__subsf3+0x360>
    50e8:	02000793          	li	a5,32
    50ec:	8f99                	sub	a5,a5,a4
    50ee:	00ff17b3          	sll	a5,t5,a5
    50f2:	00ef5733          	srl	a4,t5,a4
    50f6:	00f037b3          	snez	a5,a5
    50fa:	8fd9                	or	a5,a5,a4
    50fc:	40f507b3          	sub	a5,a0,a5
    5100:	8942                	mv	s2,a6
    5102:	84ae                	mv	s1,a1
    5104:	bb49                	j	4e96 <__subsf3+0x8e>
    5106:	4785                	li	a5,1
    5108:	b369                	j	4e92 <__subsf3+0x8a>
    510a:	060f0e63          	beqz	t5,5186 <__subsf3+0x37e>
    510e:	177d                	addi	a4,a4,-1
    5110:	00af07b3          	add	a5,t5,a0
    5114:	8942                	mv	s2,a6
    5116:	e80705e3          	beqz	a4,4fa0 <__subsf3+0x198>
    511a:	0ff00793          	li	a5,255
    511e:	f8f819e3          	bne	a6,a5,50b0 <__subsf3+0x2a8>
    5122:	8e32                	mv	t3,a2
    5124:	bd7d                	j	4fe2 <__subsf3+0x1da>
    5126:	8e32                	mv	t3,a2
    5128:	8942                	mv	s2,a6
    512a:	84ae                	mv	s1,a1
    512c:	bf31                	j	5048 <__subsf3+0x240>
    512e:	ea0f09e3          	beqz	t5,4fe0 <__subsf3+0x1d8>
    5132:	ea0508e3          	beqz	a0,4fe2 <__subsf3+0x1da>
    5136:	bd45                	j	4fe6 <__subsf3+0x1de>
    5138:	cd0d                	beqz	a0,5172 <__subsf3+0x36a>
    513a:	8eae                	mv	t4,a1
    513c:	87b2                	mv	a5,a2
    513e:	b3d9                	j	4f04 <__subsf3+0xfc>
    5140:	0ff00793          	li	a5,255
    5144:	f2f900e3          	beq	s2,a5,5064 <__subsf3+0x25c>
    5148:	00af07b3          	add	a5,t5,a0
    514c:	8385                	srli	a5,a5,0x1
    514e:	b5fd                	j	503c <__subsf3+0x234>
    5150:	41e50433          	sub	s0,a0,t5
    5154:	84ae                	mv	s1,a1
    5156:	bb81                	j	4ea6 <__subsf3+0x9e>
    5158:	fc0f1de3          	bnez	t5,5132 <__subsf3+0x32a>
    515c:	e80505e3          	beqz	a0,4fe6 <__subsf3+0x1de>
    5160:	84ae                	mv	s1,a1
    5162:	bdbd                	j	4fe0 <__subsf3+0x1d8>
    5164:	4785                	li	a5,1
    5166:	bd25                	j	4f9e <__subsf3+0x196>
    5168:	4785                	li	a5,1
    516a:	bf49                	j	50fc <__subsf3+0x2f4>
    516c:	4901                	li	s2,0
    516e:	ec0797e3          	bnez	a5,503c <__subsf3+0x234>
    5172:	4e81                	li	t4,0
    5174:	4781                	li	a5,0
    5176:	b379                	j	4f04 <__subsf3+0xfc>
    5178:	41e507b3          	sub	a5,a0,t5
    517c:	8942                	mv	s2,a6
    517e:	84ae                	mv	s1,a1
    5180:	bb19                	j	4e96 <__subsf3+0x8e>
    5182:	87b2                	mv	a5,a2
    5184:	b341                	j	4f04 <__subsf3+0xfc>
    5186:	8e32                	mv	t3,a2
    5188:	8942                	mv	s2,a6
    518a:	bd7d                	j	5048 <__subsf3+0x240>
    518c:	4705                	li	a4,1
    518e:	bf35                	j	50ca <__subsf3+0x2c2>

00005190 <__floatsisf>:
__floatsisf():
    5190:	1141                	addi	sp,sp,-16
    5192:	c606                	sw	ra,12(sp)
    5194:	c422                	sw	s0,8(sp)
    5196:	c226                	sw	s1,4(sp)
    5198:	cd0d                	beqz	a0,51d2 <__floatsisf+0x42>
    519a:	41f55793          	srai	a5,a0,0x1f
    519e:	00a7c433          	xor	s0,a5,a0
    51a2:	8c1d                	sub	s0,s0,a5
    51a4:	84aa                	mv	s1,a0
    51a6:	8522                	mv	a0,s0
    51a8:	207d                	jal	5256 <__clzsi2>
    51aa:	09e00793          	li	a5,158
    51ae:	40a78733          	sub	a4,a5,a0
    51b2:	09600793          	li	a5,150
    51b6:	80fd                	srli	s1,s1,0x1f
    51b8:	02e7cc63          	blt	a5,a4,51f0 <__floatsisf+0x60>
    51bc:	46a1                	li	a3,8
    51be:	0ff77793          	andi	a5,a4,255
    51c2:	00a6d563          	bge	a3,a0,51cc <__floatsisf+0x3c>
    51c6:	1561                	addi	a0,a0,-8
    51c8:	00a41433          	sll	s0,s0,a0
    51cc:	0426                	slli	s0,s0,0x9
    51ce:	8025                	srli	s0,s0,0x9
    51d0:	a021                	j	51d8 <__floatsisf+0x48>
    51d2:	4481                	li	s1,0
    51d4:	4781                	li	a5,0
    51d6:	4401                	li	s0,0
    51d8:	0426                	slli	s0,s0,0x9
    51da:	00945513          	srli	a0,s0,0x9
    51de:	40b2                	lw	ra,12(sp)
    51e0:	4422                	lw	s0,8(sp)
    51e2:	07de                	slli	a5,a5,0x17
    51e4:	04fe                	slli	s1,s1,0x1f
    51e6:	8d5d                	or	a0,a0,a5
    51e8:	8d45                	or	a0,a0,s1
    51ea:	4492                	lw	s1,4(sp)
    51ec:	0141                	addi	sp,sp,16
    51ee:	8082                	ret
    51f0:	09900793          	li	a5,153
    51f4:	00e7dd63          	bge	a5,a4,520e <__floatsisf+0x7e>
    51f8:	01b50793          	addi	a5,a0,27
    51fc:	4695                	li	a3,5
    51fe:	00f417b3          	sll	a5,s0,a5
    5202:	8e89                	sub	a3,a3,a0
    5204:	00d45433          	srl	s0,s0,a3
    5208:	00f037b3          	snez	a5,a5
    520c:	8c5d                	or	s0,s0,a5
    520e:	4795                	li	a5,5
    5210:	00a7d663          	bge	a5,a0,521c <__floatsisf+0x8c>
    5214:	ffb50793          	addi	a5,a0,-5
    5218:	00f41433          	sll	s0,s0,a5
    521c:	fc0006b7          	lui	a3,0xfc000
    5220:	16fd                	addi	a3,a3,-1
    5222:	00747793          	andi	a5,s0,7
    5226:	00d47633          	and	a2,s0,a3
    522a:	c385                	beqz	a5,524a <__floatsisf+0xba>
    522c:	00f47793          	andi	a5,s0,15
    5230:	4591                	li	a1,4
    5232:	00b78c63          	beq	a5,a1,524a <__floatsisf+0xba>
    5236:	0611                	addi	a2,a2,4
    5238:	00561793          	slli	a5,a2,0x5
    523c:	0007d763          	bgez	a5,524a <__floatsisf+0xba>
    5240:	09f00793          	li	a5,159
    5244:	8e75                	and	a2,a2,a3
    5246:	40a78733          	sub	a4,a5,a0
    524a:	00661413          	slli	s0,a2,0x6
    524e:	8025                	srli	s0,s0,0x9
    5250:	0ff77793          	andi	a5,a4,255
    5254:	b751                	j	51d8 <__floatsisf+0x48>

00005256 <__clzsi2>:
__clzsi2():
    5256:	67c1                	lui	a5,0x10
    5258:	02f57e63          	bgeu	a0,a5,5294 <__clzsi2+0x3e>
    525c:	0ff00793          	li	a5,255
    5260:	02000713          	li	a4,32
    5264:	00a7ec63          	bltu	a5,a0,527c <__clzsi2+0x26>
    5268:	00002797          	auipc	a5,0x2
    526c:	95478793          	addi	a5,a5,-1708 # 6bbc <__clz_tab>
    5270:	97aa                	add	a5,a5,a0
    5272:	0007c503          	lbu	a0,0(a5)
    5276:	40a70533          	sub	a0,a4,a0
    527a:	8082                	ret
    527c:	8121                	srli	a0,a0,0x8
    527e:	00002797          	auipc	a5,0x2
    5282:	93e78793          	addi	a5,a5,-1730 # 6bbc <__clz_tab>
    5286:	97aa                	add	a5,a5,a0
    5288:	0007c503          	lbu	a0,0(a5)
    528c:	4761                	li	a4,24
    528e:	40a70533          	sub	a0,a4,a0
    5292:	8082                	ret
    5294:	010007b7          	lui	a5,0x1000
    5298:	00f56e63          	bltu	a0,a5,52b4 <__clzsi2+0x5e>
    529c:	8161                	srli	a0,a0,0x18
    529e:	00002797          	auipc	a5,0x2
    52a2:	91e78793          	addi	a5,a5,-1762 # 6bbc <__clz_tab>
    52a6:	97aa                	add	a5,a5,a0
    52a8:	0007c503          	lbu	a0,0(a5)
    52ac:	4721                	li	a4,8
    52ae:	40a70533          	sub	a0,a4,a0
    52b2:	8082                	ret
    52b4:	8141                	srli	a0,a0,0x10
    52b6:	00002797          	auipc	a5,0x2
    52ba:	90678793          	addi	a5,a5,-1786 # 6bbc <__clz_tab>
    52be:	97aa                	add	a5,a5,a0
    52c0:	0007c503          	lbu	a0,0(a5)
    52c4:	4741                	li	a4,16
    52c6:	40a70533          	sub	a0,a4,a0
    52ca:	8082                	ret

000052cc <__assert_func>:
__assert_func():
    52cc:	80818793          	addi	a5,gp,-2040 # 20000078 <_impure_ptr>
    52d0:	439c                	lw	a5,0(a5)
    52d2:	1141                	addi	sp,sp,-16
    52d4:	8832                	mv	a6,a2
    52d6:	c606                	sw	ra,12(sp)
    52d8:	88aa                	mv	a7,a0
    52da:	872e                	mv	a4,a1
    52dc:	47c8                	lw	a0,12(a5)
    52de:	8636                	mv	a2,a3
    52e0:	00002797          	auipc	a5,0x2
    52e4:	9dc78793          	addi	a5,a5,-1572 # 6cbc <__clz_tab+0x100>
    52e8:	00081763          	bnez	a6,52f6 <__assert_func+0x2a>
    52ec:	00002797          	auipc	a5,0x2
    52f0:	9dc78793          	addi	a5,a5,-1572 # 6cc8 <__clz_tab+0x10c>
    52f4:	883e                	mv	a6,a5
    52f6:	86c6                	mv	a3,a7
    52f8:	00002597          	auipc	a1,0x2
    52fc:	9d458593          	addi	a1,a1,-1580 # 6ccc <__clz_tab+0x110>
    5300:	2019                	jal	5306 <fiprintf>
    5302:	0b3000ef          	jal	ra,5bb4 <abort>

00005306 <fiprintf>:
fprintf():
    5306:	7139                	addi	sp,sp,-64
    5308:	d432                	sw	a2,40(sp)
    530a:	d636                	sw	a3,44(sp)
    530c:	da3e                	sw	a5,52(sp)
    530e:	d83a                	sw	a4,48(sp)
    5310:	dc42                	sw	a6,56(sp)
    5312:	de46                	sw	a7,60(sp)
    5314:	80818793          	addi	a5,gp,-2040 # 20000078 <_impure_ptr>
    5318:	862e                	mv	a2,a1
    531a:	85aa                	mv	a1,a0
    531c:	4388                	lw	a0,0(a5)
    531e:	1034                	addi	a3,sp,40
    5320:	ce06                	sw	ra,28(sp)
    5322:	c636                	sw	a3,12(sp)
    5324:	2895                	jal	5398 <_vfiprintf_r>
    5326:	40f2                	lw	ra,28(sp)
    5328:	6121                	addi	sp,sp,64
    532a:	8082                	ret

0000532c <__sfputc_r>:
__sfputc_r():
    532c:	461c                	lw	a5,8(a2)
    532e:	17fd                	addi	a5,a5,-1
    5330:	c61c                	sw	a5,8(a2)
    5332:	0007d963          	bgez	a5,5344 <__sfputc_r+0x18>
    5336:	4e18                	lw	a4,24(a2)
    5338:	00e7c563          	blt	a5,a4,5342 <__sfputc_r+0x16>
    533c:	47a9                	li	a5,10
    533e:	00f59363          	bne	a1,a5,5344 <__sfputc_r+0x18>
    5342:	a55d                	j	59e8 <__swbuf_r>
    5344:	421c                	lw	a5,0(a2)
    5346:	852e                	mv	a0,a1
    5348:	00178713          	addi	a4,a5,1
    534c:	c218                	sw	a4,0(a2)
    534e:	00b78023          	sb	a1,0(a5)
    5352:	8082                	ret

00005354 <__sfputs_r>:
__sfputs_r():
    5354:	1101                	addi	sp,sp,-32
    5356:	cc22                	sw	s0,24(sp)
    5358:	ca26                	sw	s1,20(sp)
    535a:	c84a                	sw	s2,16(sp)
    535c:	c64e                	sw	s3,12(sp)
    535e:	c452                	sw	s4,8(sp)
    5360:	ce06                	sw	ra,28(sp)
    5362:	892a                	mv	s2,a0
    5364:	89ae                	mv	s3,a1
    5366:	8432                	mv	s0,a2
    5368:	00d604b3          	add	s1,a2,a3
    536c:	5a7d                	li	s4,-1
    536e:	00941463          	bne	s0,s1,5376 <__sfputs_r+0x22>
    5372:	4501                	li	a0,0
    5374:	a811                	j	5388 <__sfputs_r+0x34>
    5376:	00044583          	lbu	a1,0(s0) # 4000000 <_data_lma+0x3ff9268>
    537a:	864e                	mv	a2,s3
    537c:	854a                	mv	a0,s2
    537e:	fafff0ef          	jal	ra,532c <__sfputc_r>
    5382:	0405                	addi	s0,s0,1
    5384:	ff4515e3          	bne	a0,s4,536e <__sfputs_r+0x1a>
    5388:	40f2                	lw	ra,28(sp)
    538a:	4462                	lw	s0,24(sp)
    538c:	44d2                	lw	s1,20(sp)
    538e:	4942                	lw	s2,16(sp)
    5390:	49b2                	lw	s3,12(sp)
    5392:	4a22                	lw	s4,8(sp)
    5394:	6105                	addi	sp,sp,32
    5396:	8082                	ret

00005398 <_vfiprintf_r>:
_vfiprintf_r():
    5398:	7135                	addi	sp,sp,-160
    539a:	cd22                	sw	s0,152(sp)
    539c:	cb26                	sw	s1,148(sp)
    539e:	c94a                	sw	s2,144(sp)
    53a0:	c74e                	sw	s3,140(sp)
    53a2:	cf06                	sw	ra,156(sp)
    53a4:	c552                	sw	s4,136(sp)
    53a6:	c356                	sw	s5,132(sp)
    53a8:	c15a                	sw	s6,128(sp)
    53aa:	dede                	sw	s7,124(sp)
    53ac:	dce2                	sw	s8,120(sp)
    53ae:	dae6                	sw	s9,116(sp)
    53b0:	89aa                	mv	s3,a0
    53b2:	84ae                	mv	s1,a1
    53b4:	8932                	mv	s2,a2
    53b6:	8436                	mv	s0,a3
    53b8:	c509                	beqz	a0,53c2 <_vfiprintf_r+0x2a>
    53ba:	4d1c                	lw	a5,24(a0)
    53bc:	e399                	bnez	a5,53c2 <_vfiprintf_r+0x2a>
    53be:	261000ef          	jal	ra,5e1e <__sinit>
    53c2:	00002797          	auipc	a5,0x2
    53c6:	99678793          	addi	a5,a5,-1642 # 6d58 <__sf_fake_stdin>
    53ca:	0cf49d63          	bne	s1,a5,54a4 <_vfiprintf_r+0x10c>
    53ce:	0049a483          	lw	s1,4(s3)
    53d2:	00c4d783          	lhu	a5,12(s1)
    53d6:	8ba1                	andi	a5,a5,8
    53d8:	cbe5                	beqz	a5,54c8 <_vfiprintf_r+0x130>
    53da:	489c                	lw	a5,16(s1)
    53dc:	c7f5                	beqz	a5,54c8 <_vfiprintf_r+0x130>
    53de:	02000793          	li	a5,32
    53e2:	02f104a3          	sb	a5,41(sp)
    53e6:	03000793          	li	a5,48
    53ea:	d202                	sw	zero,36(sp)
    53ec:	02f10523          	sb	a5,42(sp)
    53f0:	c622                	sw	s0,12(sp)
    53f2:	02500b93          	li	s7,37
    53f6:	00002a97          	auipc	s5,0x2
    53fa:	906a8a93          	addi	s5,s5,-1786 # 6cfc <__clz_tab+0x140>
    53fe:	4c05                	li	s8,1
    5400:	4b29                	li	s6,10
    5402:	844a                	mv	s0,s2
    5404:	00044783          	lbu	a5,0(s0)
    5408:	c399                	beqz	a5,540e <_vfiprintf_r+0x76>
    540a:	0f779163          	bne	a5,s7,54ec <_vfiprintf_r+0x154>
    540e:	41240cb3          	sub	s9,s0,s2
    5412:	000c8e63          	beqz	s9,542e <_vfiprintf_r+0x96>
    5416:	86e6                	mv	a3,s9
    5418:	864a                	mv	a2,s2
    541a:	85a6                	mv	a1,s1
    541c:	854e                	mv	a0,s3
    541e:	f37ff0ef          	jal	ra,5354 <__sfputs_r>
    5422:	57fd                	li	a5,-1
    5424:	1ef50863          	beq	a0,a5,5614 <_vfiprintf_r+0x27c>
    5428:	5692                	lw	a3,36(sp)
    542a:	96e6                	add	a3,a3,s9
    542c:	d236                	sw	a3,36(sp)
    542e:	00044783          	lbu	a5,0(s0)
    5432:	1e078163          	beqz	a5,5614 <_vfiprintf_r+0x27c>
    5436:	57fd                	li	a5,-1
    5438:	00140913          	addi	s2,s0,1
    543c:	c802                	sw	zero,16(sp)
    543e:	ce02                	sw	zero,28(sp)
    5440:	ca3e                	sw	a5,20(sp)
    5442:	cc02                	sw	zero,24(sp)
    5444:	040109a3          	sb	zero,83(sp)
    5448:	d482                	sw	zero,104(sp)
    544a:	00094583          	lbu	a1,0(s2)
    544e:	4615                	li	a2,5
    5450:	8556                	mv	a0,s5
    5452:	43b000ef          	jal	ra,608c <memchr>
    5456:	00190413          	addi	s0,s2,1
    545a:	47c2                	lw	a5,16(sp)
    545c:	e951                	bnez	a0,54f0 <_vfiprintf_r+0x158>
    545e:	0107f713          	andi	a4,a5,16
    5462:	c709                	beqz	a4,546c <_vfiprintf_r+0xd4>
    5464:	02000713          	li	a4,32
    5468:	04e109a3          	sb	a4,83(sp)
    546c:	0087f713          	andi	a4,a5,8
    5470:	c709                	beqz	a4,547a <_vfiprintf_r+0xe2>
    5472:	02b00713          	li	a4,43
    5476:	04e109a3          	sb	a4,83(sp)
    547a:	00094683          	lbu	a3,0(s2)
    547e:	02a00713          	li	a4,42
    5482:	06e68f63          	beq	a3,a4,5500 <_vfiprintf_r+0x168>
    5486:	47f2                	lw	a5,28(sp)
    5488:	844a                	mv	s0,s2
    548a:	4681                	li	a3,0
    548c:	4625                	li	a2,9
    548e:	00044703          	lbu	a4,0(s0)
    5492:	00140593          	addi	a1,s0,1
    5496:	fd070713          	addi	a4,a4,-48 # fbffffd0 <_eusrstack+0xdbffafd0>
    549a:	0ae67863          	bgeu	a2,a4,554a <_vfiprintf_r+0x1b2>
    549e:	caad                	beqz	a3,5510 <_vfiprintf_r+0x178>
    54a0:	ce3e                	sw	a5,28(sp)
    54a2:	a0bd                	j	5510 <_vfiprintf_r+0x178>
    54a4:	00002797          	auipc	a5,0x2
    54a8:	8d478793          	addi	a5,a5,-1836 # 6d78 <__sf_fake_stdout>
    54ac:	00f49563          	bne	s1,a5,54b6 <_vfiprintf_r+0x11e>
    54b0:	0089a483          	lw	s1,8(s3)
    54b4:	bf39                	j	53d2 <_vfiprintf_r+0x3a>
    54b6:	00002797          	auipc	a5,0x2
    54ba:	88278793          	addi	a5,a5,-1918 # 6d38 <__sf_fake_stderr>
    54be:	f0f49ae3          	bne	s1,a5,53d2 <_vfiprintf_r+0x3a>
    54c2:	00c9a483          	lw	s1,12(s3)
    54c6:	b731                	j	53d2 <_vfiprintf_r+0x3a>
    54c8:	85a6                	mv	a1,s1
    54ca:	854e                	mv	a0,s3
    54cc:	2bf1                	jal	5aa8 <__swsetup_r>
    54ce:	d901                	beqz	a0,53de <_vfiprintf_r+0x46>
    54d0:	557d                	li	a0,-1
    54d2:	40fa                	lw	ra,156(sp)
    54d4:	446a                	lw	s0,152(sp)
    54d6:	44da                	lw	s1,148(sp)
    54d8:	494a                	lw	s2,144(sp)
    54da:	49ba                	lw	s3,140(sp)
    54dc:	4a2a                	lw	s4,136(sp)
    54de:	4a9a                	lw	s5,132(sp)
    54e0:	4b0a                	lw	s6,128(sp)
    54e2:	5bf6                	lw	s7,124(sp)
    54e4:	5c66                	lw	s8,120(sp)
    54e6:	5cd6                	lw	s9,116(sp)
    54e8:	610d                	addi	sp,sp,160
    54ea:	8082                	ret
    54ec:	0405                	addi	s0,s0,1
    54ee:	bf19                	j	5404 <_vfiprintf_r+0x6c>
    54f0:	41550533          	sub	a0,a0,s5
    54f4:	00ac1533          	sll	a0,s8,a0
    54f8:	8fc9                	or	a5,a5,a0
    54fa:	c83e                	sw	a5,16(sp)
    54fc:	8922                	mv	s2,s0
    54fe:	b7b1                	j	544a <_vfiprintf_r+0xb2>
    5500:	4732                	lw	a4,12(sp)
    5502:	00470693          	addi	a3,a4,4
    5506:	4318                	lw	a4,0(a4)
    5508:	c636                	sw	a3,12(sp)
    550a:	02074963          	bltz	a4,553c <_vfiprintf_r+0x1a4>
    550e:	ce3a                	sw	a4,28(sp)
    5510:	00044703          	lbu	a4,0(s0)
    5514:	02e00793          	li	a5,46
    5518:	04f71f63          	bne	a4,a5,5576 <_vfiprintf_r+0x1de>
    551c:	00144703          	lbu	a4,1(s0)
    5520:	02a00793          	li	a5,42
    5524:	02f71b63          	bne	a4,a5,555a <_vfiprintf_r+0x1c2>
    5528:	47b2                	lw	a5,12(sp)
    552a:	0409                	addi	s0,s0,2
    552c:	00478713          	addi	a4,a5,4
    5530:	439c                	lw	a5,0(a5)
    5532:	c63a                	sw	a4,12(sp)
    5534:	0207c163          	bltz	a5,5556 <_vfiprintf_r+0x1be>
    5538:	ca3e                	sw	a5,20(sp)
    553a:	a835                	j	5576 <_vfiprintf_r+0x1de>
    553c:	40e00733          	neg	a4,a4
    5540:	0027e793          	ori	a5,a5,2
    5544:	ce3a                	sw	a4,28(sp)
    5546:	c83e                	sw	a5,16(sp)
    5548:	b7e1                	j	5510 <_vfiprintf_r+0x178>
    554a:	036787b3          	mul	a5,a5,s6
    554e:	4685                	li	a3,1
    5550:	842e                	mv	s0,a1
    5552:	97ba                	add	a5,a5,a4
    5554:	bf2d                	j	548e <_vfiprintf_r+0xf6>
    5556:	57fd                	li	a5,-1
    5558:	b7c5                	j	5538 <_vfiprintf_r+0x1a0>
    555a:	0405                	addi	s0,s0,1
    555c:	ca02                	sw	zero,20(sp)
    555e:	4681                	li	a3,0
    5560:	4781                	li	a5,0
    5562:	4625                	li	a2,9
    5564:	00044703          	lbu	a4,0(s0)
    5568:	00140593          	addi	a1,s0,1
    556c:	fd070713          	addi	a4,a4,-48
    5570:	06e67863          	bgeu	a2,a4,55e0 <_vfiprintf_r+0x248>
    5574:	f2f1                	bnez	a3,5538 <_vfiprintf_r+0x1a0>
    5576:	00044583          	lbu	a1,0(s0)
    557a:	460d                	li	a2,3
    557c:	00001517          	auipc	a0,0x1
    5580:	78850513          	addi	a0,a0,1928 # 6d04 <__clz_tab+0x148>
    5584:	309000ef          	jal	ra,608c <memchr>
    5588:	cd11                	beqz	a0,55a4 <_vfiprintf_r+0x20c>
    558a:	00001797          	auipc	a5,0x1
    558e:	77a78793          	addi	a5,a5,1914 # 6d04 <__clz_tab+0x148>
    5592:	8d1d                	sub	a0,a0,a5
    5594:	04000793          	li	a5,64
    5598:	00a797b3          	sll	a5,a5,a0
    559c:	4542                	lw	a0,16(sp)
    559e:	0405                	addi	s0,s0,1
    55a0:	8d5d                	or	a0,a0,a5
    55a2:	c82a                	sw	a0,16(sp)
    55a4:	00044583          	lbu	a1,0(s0)
    55a8:	4619                	li	a2,6
    55aa:	00001517          	auipc	a0,0x1
    55ae:	75e50513          	addi	a0,a0,1886 # 6d08 <__clz_tab+0x14c>
    55b2:	00140913          	addi	s2,s0,1
    55b6:	02b10423          	sb	a1,40(sp)
    55ba:	2d3000ef          	jal	ra,608c <memchr>
    55be:	c13d                	beqz	a0,5624 <_vfiprintf_r+0x28c>
    55c0:	ffffb797          	auipc	a5,0xffffb
    55c4:	a4078793          	addi	a5,a5,-1472 # 0 <_sinit>
    55c8:	e795                	bnez	a5,55f4 <_vfiprintf_r+0x25c>
    55ca:	4742                	lw	a4,16(sp)
    55cc:	47b2                	lw	a5,12(sp)
    55ce:	10077713          	andi	a4,a4,256
    55d2:	cf09                	beqz	a4,55ec <_vfiprintf_r+0x254>
    55d4:	0791                	addi	a5,a5,4
    55d6:	c63e                	sw	a5,12(sp)
    55d8:	5792                	lw	a5,36(sp)
    55da:	97d2                	add	a5,a5,s4
    55dc:	d23e                	sw	a5,36(sp)
    55de:	b515                	j	5402 <_vfiprintf_r+0x6a>
    55e0:	036787b3          	mul	a5,a5,s6
    55e4:	4685                	li	a3,1
    55e6:	842e                	mv	s0,a1
    55e8:	97ba                	add	a5,a5,a4
    55ea:	bfad                	j	5564 <_vfiprintf_r+0x1cc>
    55ec:	079d                	addi	a5,a5,7
    55ee:	9be1                	andi	a5,a5,-8
    55f0:	07a1                	addi	a5,a5,8
    55f2:	b7d5                	j	55d6 <_vfiprintf_r+0x23e>
    55f4:	0078                	addi	a4,sp,12
    55f6:	00000697          	auipc	a3,0x0
    55fa:	d5e68693          	addi	a3,a3,-674 # 5354 <__sfputs_r>
    55fe:	8626                	mv	a2,s1
    5600:	080c                	addi	a1,sp,16
    5602:	854e                	mv	a0,s3
    5604:	00000097          	auipc	ra,0x0
    5608:	000000e7          	jalr	zero # 0 <_sinit>
    560c:	57fd                	li	a5,-1
    560e:	8a2a                	mv	s4,a0
    5610:	fcf514e3          	bne	a0,a5,55d8 <_vfiprintf_r+0x240>
    5614:	00c4d783          	lhu	a5,12(s1)
    5618:	0407f793          	andi	a5,a5,64
    561c:	ea079ae3          	bnez	a5,54d0 <_vfiprintf_r+0x138>
    5620:	5512                	lw	a0,36(sp)
    5622:	bd45                	j	54d2 <_vfiprintf_r+0x13a>
    5624:	0078                	addi	a4,sp,12
    5626:	00000697          	auipc	a3,0x0
    562a:	d2e68693          	addi	a3,a3,-722 # 5354 <__sfputs_r>
    562e:	8626                	mv	a2,s1
    5630:	080c                	addi	a1,sp,16
    5632:	854e                	mv	a0,s3
    5634:	2a01                	jal	5744 <_printf_i>
    5636:	bfd9                	j	560c <_vfiprintf_r+0x274>

00005638 <_printf_common>:
_printf_common():
    5638:	7179                	addi	sp,sp,-48
    563a:	ca56                	sw	s5,20(sp)
    563c:	499c                	lw	a5,16(a1)
    563e:	8aba                	mv	s5,a4
    5640:	4598                	lw	a4,8(a1)
    5642:	d422                	sw	s0,40(sp)
    5644:	d226                	sw	s1,36(sp)
    5646:	ce4e                	sw	s3,28(sp)
    5648:	cc52                	sw	s4,24(sp)
    564a:	d606                	sw	ra,44(sp)
    564c:	d04a                	sw	s2,32(sp)
    564e:	c85a                	sw	s6,16(sp)
    5650:	c65e                	sw	s7,12(sp)
    5652:	89aa                	mv	s3,a0
    5654:	842e                	mv	s0,a1
    5656:	84b2                	mv	s1,a2
    5658:	8a36                	mv	s4,a3
    565a:	00e7d363          	bge	a5,a4,5660 <_printf_common+0x28>
    565e:	87ba                	mv	a5,a4
    5660:	c09c                	sw	a5,0(s1)
    5662:	04344703          	lbu	a4,67(s0)
    5666:	c319                	beqz	a4,566c <_printf_common+0x34>
    5668:	0785                	addi	a5,a5,1
    566a:	c09c                	sw	a5,0(s1)
    566c:	401c                	lw	a5,0(s0)
    566e:	0207f793          	andi	a5,a5,32
    5672:	c781                	beqz	a5,567a <_printf_common+0x42>
    5674:	409c                	lw	a5,0(s1)
    5676:	0789                	addi	a5,a5,2
    5678:	c09c                	sw	a5,0(s1)
    567a:	00042903          	lw	s2,0(s0)
    567e:	00697913          	andi	s2,s2,6
    5682:	00091a63          	bnez	s2,5696 <_printf_common+0x5e>
    5686:	01940b13          	addi	s6,s0,25
    568a:	5bfd                	li	s7,-1
    568c:	445c                	lw	a5,12(s0)
    568e:	4098                	lw	a4,0(s1)
    5690:	8f99                	sub	a5,a5,a4
    5692:	04f94c63          	blt	s2,a5,56ea <_printf_common+0xb2>
    5696:	401c                	lw	a5,0(s0)
    5698:	04344683          	lbu	a3,67(s0)
    569c:	0207f793          	andi	a5,a5,32
    56a0:	00d036b3          	snez	a3,a3
    56a4:	eba5                	bnez	a5,5714 <_printf_common+0xdc>
    56a6:	04340613          	addi	a2,s0,67
    56aa:	85d2                	mv	a1,s4
    56ac:	854e                	mv	a0,s3
    56ae:	9a82                	jalr	s5
    56b0:	57fd                	li	a5,-1
    56b2:	04f50363          	beq	a0,a5,56f8 <_printf_common+0xc0>
    56b6:	401c                	lw	a5,0(s0)
    56b8:	4611                	li	a2,4
    56ba:	4098                	lw	a4,0(s1)
    56bc:	8b99                	andi	a5,a5,6
    56be:	4454                	lw	a3,12(s0)
    56c0:	4481                	li	s1,0
    56c2:	00c79763          	bne	a5,a2,56d0 <_printf_common+0x98>
    56c6:	40e684b3          	sub	s1,a3,a4
    56ca:	0004d363          	bgez	s1,56d0 <_printf_common+0x98>
    56ce:	4481                	li	s1,0
    56d0:	441c                	lw	a5,8(s0)
    56d2:	4818                	lw	a4,16(s0)
    56d4:	00f75463          	bge	a4,a5,56dc <_printf_common+0xa4>
    56d8:	8f99                	sub	a5,a5,a4
    56da:	94be                	add	s1,s1,a5
    56dc:	4901                	li	s2,0
    56de:	0469                	addi	s0,s0,26
    56e0:	5b7d                	li	s6,-1
    56e2:	05249863          	bne	s1,s2,5732 <_printf_common+0xfa>
    56e6:	4501                	li	a0,0
    56e8:	a809                	j	56fa <_printf_common+0xc2>
    56ea:	4685                	li	a3,1
    56ec:	865a                	mv	a2,s6
    56ee:	85d2                	mv	a1,s4
    56f0:	854e                	mv	a0,s3
    56f2:	9a82                	jalr	s5
    56f4:	01751e63          	bne	a0,s7,5710 <_printf_common+0xd8>
    56f8:	557d                	li	a0,-1
    56fa:	50b2                	lw	ra,44(sp)
    56fc:	5422                	lw	s0,40(sp)
    56fe:	5492                	lw	s1,36(sp)
    5700:	5902                	lw	s2,32(sp)
    5702:	49f2                	lw	s3,28(sp)
    5704:	4a62                	lw	s4,24(sp)
    5706:	4ad2                	lw	s5,20(sp)
    5708:	4b42                	lw	s6,16(sp)
    570a:	4bb2                	lw	s7,12(sp)
    570c:	6145                	addi	sp,sp,48
    570e:	8082                	ret
    5710:	0905                	addi	s2,s2,1
    5712:	bfad                	j	568c <_printf_common+0x54>
    5714:	00d40733          	add	a4,s0,a3
    5718:	03000613          	li	a2,48
    571c:	04c701a3          	sb	a2,67(a4)
    5720:	04544703          	lbu	a4,69(s0)
    5724:	00168793          	addi	a5,a3,1
    5728:	97a2                	add	a5,a5,s0
    572a:	0689                	addi	a3,a3,2
    572c:	04e781a3          	sb	a4,67(a5)
    5730:	bf9d                	j	56a6 <_printf_common+0x6e>
    5732:	4685                	li	a3,1
    5734:	8622                	mv	a2,s0
    5736:	85d2                	mv	a1,s4
    5738:	854e                	mv	a0,s3
    573a:	9a82                	jalr	s5
    573c:	fb650ee3          	beq	a0,s6,56f8 <_printf_common+0xc0>
    5740:	0905                	addi	s2,s2,1
    5742:	b745                	j	56e2 <_printf_common+0xaa>

00005744 <_printf_i>:
_printf_i():
    5744:	7179                	addi	sp,sp,-48
    5746:	d422                	sw	s0,40(sp)
    5748:	d226                	sw	s1,36(sp)
    574a:	d04a                	sw	s2,32(sp)
    574c:	ce4e                	sw	s3,28(sp)
    574e:	d606                	sw	ra,44(sp)
    5750:	cc52                	sw	s4,24(sp)
    5752:	ca56                	sw	s5,20(sp)
    5754:	c85a                	sw	s6,16(sp)
    5756:	89b6                	mv	s3,a3
    5758:	0185c683          	lbu	a3,24(a1)
    575c:	06e00793          	li	a5,110
    5760:	8932                	mv	s2,a2
    5762:	84aa                	mv	s1,a0
    5764:	842e                	mv	s0,a1
    5766:	04358613          	addi	a2,a1,67
    576a:	1ef68163          	beq	a3,a5,594c <_printf_i+0x208>
    576e:	06d7e263          	bltu	a5,a3,57d2 <_printf_i+0x8e>
    5772:	06300793          	li	a5,99
    5776:	0af68263          	beq	a3,a5,581a <_printf_i+0xd6>
    577a:	00d7ed63          	bltu	a5,a3,5794 <_printf_i+0x50>
    577e:	1e068b63          	beqz	a3,5974 <_printf_i+0x230>
    5782:	05800793          	li	a5,88
    5786:	16f68763          	beq	a3,a5,58f4 <_printf_i+0x1b0>
    578a:	04240a93          	addi	s5,s0,66
    578e:	04d40123          	sb	a3,66(s0)
    5792:	a869                	j	582c <_printf_i+0xe8>
    5794:	06400793          	li	a5,100
    5798:	00f68663          	beq	a3,a5,57a4 <_printf_i+0x60>
    579c:	06900793          	li	a5,105
    57a0:	fef695e3          	bne	a3,a5,578a <_printf_i+0x46>
    57a4:	401c                	lw	a5,0(s0)
    57a6:	4308                	lw	a0,0(a4)
    57a8:	0807f693          	andi	a3,a5,128
    57ac:	00450593          	addi	a1,a0,4
    57b0:	c2c1                	beqz	a3,5830 <_printf_i+0xec>
    57b2:	411c                	lw	a5,0(a0)
    57b4:	c30c                	sw	a1,0(a4)
    57b6:	0007d863          	bgez	a5,57c6 <_printf_i+0x82>
    57ba:	02d00713          	li	a4,45
    57be:	40f007b3          	neg	a5,a5
    57c2:	04e401a3          	sb	a4,67(s0)
    57c6:	00001697          	auipc	a3,0x1
    57ca:	54a68693          	addi	a3,a3,1354 # 6d10 <__clz_tab+0x154>
    57ce:	4729                	li	a4,10
    57d0:	a065                	j	5878 <_printf_i+0x134>
    57d2:	07300793          	li	a5,115
    57d6:	1af68363          	beq	a3,a5,597c <_printf_i+0x238>
    57da:	00d7ef63          	bltu	a5,a3,57f8 <_printf_i+0xb4>
    57de:	06f00793          	li	a5,111
    57e2:	04f68f63          	beq	a3,a5,5840 <_printf_i+0xfc>
    57e6:	07000793          	li	a5,112
    57ea:	faf690e3          	bne	a3,a5,578a <_printf_i+0x46>
    57ee:	419c                	lw	a5,0(a1)
    57f0:	0207e793          	ori	a5,a5,32
    57f4:	c19c                	sw	a5,0(a1)
    57f6:	a809                	j	5808 <_printf_i+0xc4>
    57f8:	07500793          	li	a5,117
    57fc:	04f68263          	beq	a3,a5,5840 <_printf_i+0xfc>
    5800:	07800793          	li	a5,120
    5804:	f8f693e3          	bne	a3,a5,578a <_printf_i+0x46>
    5808:	07800793          	li	a5,120
    580c:	04f402a3          	sb	a5,69(s0)
    5810:	00001697          	auipc	a3,0x1
    5814:	51468693          	addi	a3,a3,1300 # 6d24 <__clz_tab+0x168>
    5818:	a0e5                	j	5900 <_printf_i+0x1bc>
    581a:	431c                	lw	a5,0(a4)
    581c:	04258a93          	addi	s5,a1,66
    5820:	00478693          	addi	a3,a5,4
    5824:	439c                	lw	a5,0(a5)
    5826:	c314                	sw	a3,0(a4)
    5828:	04f58123          	sb	a5,66(a1)
    582c:	4785                	li	a5,1
    582e:	a2b5                	j	599a <_printf_i+0x256>
    5830:	0407f693          	andi	a3,a5,64
    5834:	411c                	lw	a5,0(a0)
    5836:	c30c                	sw	a1,0(a4)
    5838:	debd                	beqz	a3,57b6 <_printf_i+0x72>
    583a:	07c2                	slli	a5,a5,0x10
    583c:	87c1                	srai	a5,a5,0x10
    583e:	bfa5                	j	57b6 <_printf_i+0x72>
    5840:	400c                	lw	a1,0(s0)
    5842:	431c                	lw	a5,0(a4)
    5844:	0805f813          	andi	a6,a1,128
    5848:	00478513          	addi	a0,a5,4
    584c:	00080563          	beqz	a6,5856 <_printf_i+0x112>
    5850:	c308                	sw	a0,0(a4)
    5852:	439c                	lw	a5,0(a5)
    5854:	a039                	j	5862 <_printf_i+0x11e>
    5856:	0405f593          	andi	a1,a1,64
    585a:	c308                	sw	a0,0(a4)
    585c:	d9fd                	beqz	a1,5852 <_printf_i+0x10e>
    585e:	0007d783          	lhu	a5,0(a5)
    5862:	06f00713          	li	a4,111
    5866:	0ce68b63          	beq	a3,a4,593c <_printf_i+0x1f8>
    586a:	00001697          	auipc	a3,0x1
    586e:	4a668693          	addi	a3,a3,1190 # 6d10 <__clz_tab+0x154>
    5872:	4729                	li	a4,10
    5874:	040401a3          	sb	zero,67(s0)
    5878:	404c                	lw	a1,4(s0)
    587a:	c40c                	sw	a1,8(s0)
    587c:	0005c563          	bltz	a1,5886 <_printf_i+0x142>
    5880:	4008                	lw	a0,0(s0)
    5882:	996d                	andi	a0,a0,-5
    5884:	c008                	sw	a0,0(s0)
    5886:	e399                	bnez	a5,588c <_printf_i+0x148>
    5888:	8ab2                	mv	s5,a2
    588a:	cd91                	beqz	a1,58a6 <_printf_i+0x162>
    588c:	8ab2                	mv	s5,a2
    588e:	02e7f5b3          	remu	a1,a5,a4
    5892:	1afd                	addi	s5,s5,-1
    5894:	95b6                	add	a1,a1,a3
    5896:	0005c583          	lbu	a1,0(a1)
    589a:	00ba8023          	sb	a1,0(s5)
    589e:	02e7d5b3          	divu	a1,a5,a4
    58a2:	0ae7f363          	bgeu	a5,a4,5948 <_printf_i+0x204>
    58a6:	47a1                	li	a5,8
    58a8:	00f71e63          	bne	a4,a5,58c4 <_printf_i+0x180>
    58ac:	401c                	lw	a5,0(s0)
    58ae:	8b85                	andi	a5,a5,1
    58b0:	cb91                	beqz	a5,58c4 <_printf_i+0x180>
    58b2:	4058                	lw	a4,4(s0)
    58b4:	481c                	lw	a5,16(s0)
    58b6:	00e7c763          	blt	a5,a4,58c4 <_printf_i+0x180>
    58ba:	03000793          	li	a5,48
    58be:	fefa8fa3          	sb	a5,-1(s5)
    58c2:	1afd                	addi	s5,s5,-1
    58c4:	41560633          	sub	a2,a2,s5
    58c8:	c810                	sw	a2,16(s0)
    58ca:	874e                	mv	a4,s3
    58cc:	86ca                	mv	a3,s2
    58ce:	0070                	addi	a2,sp,12
    58d0:	85a2                	mv	a1,s0
    58d2:	8526                	mv	a0,s1
    58d4:	d65ff0ef          	jal	ra,5638 <_printf_common>
    58d8:	5a7d                	li	s4,-1
    58da:	0d451463          	bne	a0,s4,59a2 <_printf_i+0x25e>
    58de:	557d                	li	a0,-1
    58e0:	50b2                	lw	ra,44(sp)
    58e2:	5422                	lw	s0,40(sp)
    58e4:	5492                	lw	s1,36(sp)
    58e6:	5902                	lw	s2,32(sp)
    58e8:	49f2                	lw	s3,28(sp)
    58ea:	4a62                	lw	s4,24(sp)
    58ec:	4ad2                	lw	s5,20(sp)
    58ee:	4b42                	lw	s6,16(sp)
    58f0:	6145                	addi	sp,sp,48
    58f2:	8082                	ret
    58f4:	04d582a3          	sb	a3,69(a1)
    58f8:	00001697          	auipc	a3,0x1
    58fc:	41868693          	addi	a3,a3,1048 # 6d10 <__clz_tab+0x154>
    5900:	400c                	lw	a1,0(s0)
    5902:	4308                	lw	a0,0(a4)
    5904:	0805f813          	andi	a6,a1,128
    5908:	411c                	lw	a5,0(a0)
    590a:	0511                	addi	a0,a0,4
    590c:	02080063          	beqz	a6,592c <_printf_i+0x1e8>
    5910:	c308                	sw	a0,0(a4)
    5912:	0015f713          	andi	a4,a1,1
    5916:	c701                	beqz	a4,591e <_printf_i+0x1da>
    5918:	0205e593          	ori	a1,a1,32
    591c:	c00c                	sw	a1,0(s0)
    591e:	4741                	li	a4,16
    5920:	fbb1                	bnez	a5,5874 <_printf_i+0x130>
    5922:	400c                	lw	a1,0(s0)
    5924:	fdf5f593          	andi	a1,a1,-33
    5928:	c00c                	sw	a1,0(s0)
    592a:	b7a9                	j	5874 <_printf_i+0x130>
    592c:	0405f813          	andi	a6,a1,64
    5930:	c308                	sw	a0,0(a4)
    5932:	fe0800e3          	beqz	a6,5912 <_printf_i+0x1ce>
    5936:	07c2                	slli	a5,a5,0x10
    5938:	83c1                	srli	a5,a5,0x10
    593a:	bfe1                	j	5912 <_printf_i+0x1ce>
    593c:	00001697          	auipc	a3,0x1
    5940:	3d468693          	addi	a3,a3,980 # 6d10 <__clz_tab+0x154>
    5944:	4721                	li	a4,8
    5946:	b73d                	j	5874 <_printf_i+0x130>
    5948:	87ae                	mv	a5,a1
    594a:	b791                	j	588e <_printf_i+0x14a>
    594c:	4194                	lw	a3,0(a1)
    594e:	431c                	lw	a5,0(a4)
    5950:	49cc                	lw	a1,20(a1)
    5952:	0806f813          	andi	a6,a3,128
    5956:	00478513          	addi	a0,a5,4
    595a:	00080663          	beqz	a6,5966 <_printf_i+0x222>
    595e:	c308                	sw	a0,0(a4)
    5960:	439c                	lw	a5,0(a5)
    5962:	c38c                	sw	a1,0(a5)
    5964:	a801                	j	5974 <_printf_i+0x230>
    5966:	c308                	sw	a0,0(a4)
    5968:	0406f693          	andi	a3,a3,64
    596c:	439c                	lw	a5,0(a5)
    596e:	daf5                	beqz	a3,5962 <_printf_i+0x21e>
    5970:	00b79023          	sh	a1,0(a5)
    5974:	00042823          	sw	zero,16(s0)
    5978:	8ab2                	mv	s5,a2
    597a:	bf81                	j	58ca <_printf_i+0x186>
    597c:	431c                	lw	a5,0(a4)
    597e:	41d0                	lw	a2,4(a1)
    5980:	4581                	li	a1,0
    5982:	00478693          	addi	a3,a5,4
    5986:	c314                	sw	a3,0(a4)
    5988:	0007aa83          	lw	s5,0(a5)
    598c:	8556                	mv	a0,s5
    598e:	2dfd                	jal	608c <memchr>
    5990:	c501                	beqz	a0,5998 <_printf_i+0x254>
    5992:	41550533          	sub	a0,a0,s5
    5996:	c048                	sw	a0,4(s0)
    5998:	405c                	lw	a5,4(s0)
    599a:	c81c                	sw	a5,16(s0)
    599c:	040401a3          	sb	zero,67(s0)
    59a0:	b72d                	j	58ca <_printf_i+0x186>
    59a2:	4814                	lw	a3,16(s0)
    59a4:	8656                	mv	a2,s5
    59a6:	85ca                	mv	a1,s2
    59a8:	8526                	mv	a0,s1
    59aa:	9982                	jalr	s3
    59ac:	f34509e3          	beq	a0,s4,58de <_printf_i+0x19a>
    59b0:	401c                	lw	a5,0(s0)
    59b2:	8b89                	andi	a5,a5,2
    59b4:	e78d                	bnez	a5,59de <_printf_i+0x29a>
    59b6:	47b2                	lw	a5,12(sp)
    59b8:	4448                	lw	a0,12(s0)
    59ba:	f2f553e3          	bge	a0,a5,58e0 <_printf_i+0x19c>
    59be:	853e                	mv	a0,a5
    59c0:	b705                	j	58e0 <_printf_i+0x19c>
    59c2:	4685                	li	a3,1
    59c4:	8656                	mv	a2,s5
    59c6:	85ca                	mv	a1,s2
    59c8:	8526                	mv	a0,s1
    59ca:	9982                	jalr	s3
    59cc:	f16509e3          	beq	a0,s6,58de <_printf_i+0x19a>
    59d0:	0a05                	addi	s4,s4,1
    59d2:	445c                	lw	a5,12(s0)
    59d4:	4732                	lw	a4,12(sp)
    59d6:	8f99                	sub	a5,a5,a4
    59d8:	fefa45e3          	blt	s4,a5,59c2 <_printf_i+0x27e>
    59dc:	bfe9                	j	59b6 <_printf_i+0x272>
    59de:	4a01                	li	s4,0
    59e0:	01940a93          	addi	s5,s0,25
    59e4:	5b7d                	li	s6,-1
    59e6:	b7f5                	j	59d2 <_printf_i+0x28e>

000059e8 <__swbuf_r>:
__swbuf_r():
    59e8:	1101                	addi	sp,sp,-32
    59ea:	cc22                	sw	s0,24(sp)
    59ec:	ca26                	sw	s1,20(sp)
    59ee:	c84a                	sw	s2,16(sp)
    59f0:	ce06                	sw	ra,28(sp)
    59f2:	c64e                	sw	s3,12(sp)
    59f4:	84aa                	mv	s1,a0
    59f6:	892e                	mv	s2,a1
    59f8:	8432                	mv	s0,a2
    59fa:	c501                	beqz	a0,5a02 <__swbuf_r+0x1a>
    59fc:	4d1c                	lw	a5,24(a0)
    59fe:	e391                	bnez	a5,5a02 <__swbuf_r+0x1a>
    5a00:	2939                	jal	5e1e <__sinit>
    5a02:	00001797          	auipc	a5,0x1
    5a06:	35678793          	addi	a5,a5,854 # 6d58 <__sf_fake_stdin>
    5a0a:	06f41963          	bne	s0,a5,5a7c <__swbuf_r+0x94>
    5a0e:	40c0                	lw	s0,4(s1)
    5a10:	4c1c                	lw	a5,24(s0)
    5a12:	c41c                	sw	a5,8(s0)
    5a14:	00c45783          	lhu	a5,12(s0)
    5a18:	8ba1                	andi	a5,a5,8
    5a1a:	c3c9                	beqz	a5,5a9c <__swbuf_r+0xb4>
    5a1c:	481c                	lw	a5,16(s0)
    5a1e:	cfbd                	beqz	a5,5a9c <__swbuf_r+0xb4>
    5a20:	481c                	lw	a5,16(s0)
    5a22:	4008                	lw	a0,0(s0)
    5a24:	0ff97993          	andi	s3,s2,255
    5a28:	0ff97913          	andi	s2,s2,255
    5a2c:	8d1d                	sub	a0,a0,a5
    5a2e:	485c                	lw	a5,20(s0)
    5a30:	00f54663          	blt	a0,a5,5a3c <__swbuf_r+0x54>
    5a34:	85a2                	mv	a1,s0
    5a36:	8526                	mv	a0,s1
    5a38:	24d9                	jal	5cfe <_fflush_r>
    5a3a:	e52d                	bnez	a0,5aa4 <__swbuf_r+0xbc>
    5a3c:	441c                	lw	a5,8(s0)
    5a3e:	0505                	addi	a0,a0,1
    5a40:	17fd                	addi	a5,a5,-1
    5a42:	c41c                	sw	a5,8(s0)
    5a44:	401c                	lw	a5,0(s0)
    5a46:	00178713          	addi	a4,a5,1
    5a4a:	c018                	sw	a4,0(s0)
    5a4c:	01378023          	sb	s3,0(a5)
    5a50:	485c                	lw	a5,20(s0)
    5a52:	00a78963          	beq	a5,a0,5a64 <__swbuf_r+0x7c>
    5a56:	00c45783          	lhu	a5,12(s0)
    5a5a:	8b85                	andi	a5,a5,1
    5a5c:	cb81                	beqz	a5,5a6c <__swbuf_r+0x84>
    5a5e:	47a9                	li	a5,10
    5a60:	00f91663          	bne	s2,a5,5a6c <__swbuf_r+0x84>
    5a64:	85a2                	mv	a1,s0
    5a66:	8526                	mv	a0,s1
    5a68:	2c59                	jal	5cfe <_fflush_r>
    5a6a:	ed0d                	bnez	a0,5aa4 <__swbuf_r+0xbc>
    5a6c:	40f2                	lw	ra,28(sp)
    5a6e:	4462                	lw	s0,24(sp)
    5a70:	854a                	mv	a0,s2
    5a72:	44d2                	lw	s1,20(sp)
    5a74:	4942                	lw	s2,16(sp)
    5a76:	49b2                	lw	s3,12(sp)
    5a78:	6105                	addi	sp,sp,32
    5a7a:	8082                	ret
    5a7c:	00001797          	auipc	a5,0x1
    5a80:	2fc78793          	addi	a5,a5,764 # 6d78 <__sf_fake_stdout>
    5a84:	00f41463          	bne	s0,a5,5a8c <__swbuf_r+0xa4>
    5a88:	4480                	lw	s0,8(s1)
    5a8a:	b759                	j	5a10 <__swbuf_r+0x28>
    5a8c:	00001797          	auipc	a5,0x1
    5a90:	2ac78793          	addi	a5,a5,684 # 6d38 <__sf_fake_stderr>
    5a94:	f6f41ee3          	bne	s0,a5,5a10 <__swbuf_r+0x28>
    5a98:	44c0                	lw	s0,12(s1)
    5a9a:	bf9d                	j	5a10 <__swbuf_r+0x28>
    5a9c:	85a2                	mv	a1,s0
    5a9e:	8526                	mv	a0,s1
    5aa0:	2021                	jal	5aa8 <__swsetup_r>
    5aa2:	dd3d                	beqz	a0,5a20 <__swbuf_r+0x38>
    5aa4:	597d                	li	s2,-1
    5aa6:	b7d9                	j	5a6c <__swbuf_r+0x84>

00005aa8 <__swsetup_r>:
__swsetup_r():
    5aa8:	1141                	addi	sp,sp,-16
    5aaa:	80818793          	addi	a5,gp,-2040 # 20000078 <_impure_ptr>
    5aae:	c226                	sw	s1,4(sp)
    5ab0:	4384                	lw	s1,0(a5)
    5ab2:	c422                	sw	s0,8(sp)
    5ab4:	c04a                	sw	s2,0(sp)
    5ab6:	c606                	sw	ra,12(sp)
    5ab8:	892a                	mv	s2,a0
    5aba:	842e                	mv	s0,a1
    5abc:	c489                	beqz	s1,5ac6 <__swsetup_r+0x1e>
    5abe:	4c9c                	lw	a5,24(s1)
    5ac0:	e399                	bnez	a5,5ac6 <__swsetup_r+0x1e>
    5ac2:	8526                	mv	a0,s1
    5ac4:	2ea9                	jal	5e1e <__sinit>
    5ac6:	00001797          	auipc	a5,0x1
    5aca:	29278793          	addi	a5,a5,658 # 6d58 <__sf_fake_stdin>
    5ace:	02f41c63          	bne	s0,a5,5b06 <__swsetup_r+0x5e>
    5ad2:	40c0                	lw	s0,4(s1)
    5ad4:	00c41703          	lh	a4,12(s0)
    5ad8:	01071793          	slli	a5,a4,0x10
    5adc:	83c1                	srli	a5,a5,0x10
    5ade:	0087f693          	andi	a3,a5,8
    5ae2:	eeb5                	bnez	a3,5b5e <__swsetup_r+0xb6>
    5ae4:	0107f693          	andi	a3,a5,16
    5ae8:	ee9d                	bnez	a3,5b26 <__swsetup_r+0x7e>
    5aea:	47a5                	li	a5,9
    5aec:	00f92023          	sw	a5,0(s2)
    5af0:	04076713          	ori	a4,a4,64
    5af4:	00e41623          	sh	a4,12(s0)
    5af8:	557d                	li	a0,-1
    5afa:	40b2                	lw	ra,12(sp)
    5afc:	4422                	lw	s0,8(sp)
    5afe:	4492                	lw	s1,4(sp)
    5b00:	4902                	lw	s2,0(sp)
    5b02:	0141                	addi	sp,sp,16
    5b04:	8082                	ret
    5b06:	00001797          	auipc	a5,0x1
    5b0a:	27278793          	addi	a5,a5,626 # 6d78 <__sf_fake_stdout>
    5b0e:	00f41463          	bne	s0,a5,5b16 <__swsetup_r+0x6e>
    5b12:	4480                	lw	s0,8(s1)
    5b14:	b7c1                	j	5ad4 <__swsetup_r+0x2c>
    5b16:	00001797          	auipc	a5,0x1
    5b1a:	22278793          	addi	a5,a5,546 # 6d38 <__sf_fake_stderr>
    5b1e:	faf41be3          	bne	s0,a5,5ad4 <__swsetup_r+0x2c>
    5b22:	44c0                	lw	s0,12(s1)
    5b24:	bf45                	j	5ad4 <__swsetup_r+0x2c>
    5b26:	8b91                	andi	a5,a5,4
    5b28:	c78d                	beqz	a5,5b52 <__swsetup_r+0xaa>
    5b2a:	584c                	lw	a1,52(s0)
    5b2c:	c989                	beqz	a1,5b3e <__swsetup_r+0x96>
    5b2e:	04440793          	addi	a5,s0,68
    5b32:	00f58463          	beq	a1,a5,5b3a <__swsetup_r+0x92>
    5b36:	854a                	mv	a0,s2
    5b38:	23bd                	jal	60a6 <_free_r>
    5b3a:	02042a23          	sw	zero,52(s0)
    5b3e:	00c45783          	lhu	a5,12(s0)
    5b42:	00042223          	sw	zero,4(s0)
    5b46:	fdb7f793          	andi	a5,a5,-37
    5b4a:	00f41623          	sh	a5,12(s0)
    5b4e:	481c                	lw	a5,16(s0)
    5b50:	c01c                	sw	a5,0(s0)
    5b52:	00c45783          	lhu	a5,12(s0)
    5b56:	0087e793          	ori	a5,a5,8
    5b5a:	00f41623          	sh	a5,12(s0)
    5b5e:	481c                	lw	a5,16(s0)
    5b60:	ef81                	bnez	a5,5b78 <__swsetup_r+0xd0>
    5b62:	00c45783          	lhu	a5,12(s0)
    5b66:	20000713          	li	a4,512
    5b6a:	2807f793          	andi	a5,a5,640
    5b6e:	00e78563          	beq	a5,a4,5b78 <__swsetup_r+0xd0>
    5b72:	85a2                	mv	a1,s0
    5b74:	854a                	mv	a0,s2
    5b76:	29a5                	jal	5fee <__smakebuf_r>
    5b78:	00c45783          	lhu	a5,12(s0)
    5b7c:	0017f713          	andi	a4,a5,1
    5b80:	c705                	beqz	a4,5ba8 <__swsetup_r+0x100>
    5b82:	485c                	lw	a5,20(s0)
    5b84:	00042423          	sw	zero,8(s0)
    5b88:	40f007b3          	neg	a5,a5
    5b8c:	cc1c                	sw	a5,24(s0)
    5b8e:	481c                	lw	a5,16(s0)
    5b90:	4501                	li	a0,0
    5b92:	f7a5                	bnez	a5,5afa <__swsetup_r+0x52>
    5b94:	00c41783          	lh	a5,12(s0)
    5b98:	0807f713          	andi	a4,a5,128
    5b9c:	df39                	beqz	a4,5afa <__swsetup_r+0x52>
    5b9e:	0407e793          	ori	a5,a5,64
    5ba2:	00f41623          	sh	a5,12(s0)
    5ba6:	bf89                	j	5af8 <__swsetup_r+0x50>
    5ba8:	8b89                	andi	a5,a5,2
    5baa:	4701                	li	a4,0
    5bac:	e391                	bnez	a5,5bb0 <__swsetup_r+0x108>
    5bae:	4858                	lw	a4,20(s0)
    5bb0:	c418                	sw	a4,8(s0)
    5bb2:	bff1                	j	5b8e <__swsetup_r+0xe6>

00005bb4 <abort>:
abort():
    5bb4:	1141                	addi	sp,sp,-16
    5bb6:	4519                	li	a0,6
    5bb8:	c606                	sw	ra,12(sp)
    5bba:	25e5                	jal	62a2 <raise>
    5bbc:	4505                	li	a0,1
    5bbe:	14f000ef          	jal	ra,650c <_exit>

00005bc2 <__sflush_r>:
__sflush_r():
    5bc2:	00c5d783          	lhu	a5,12(a1)
    5bc6:	1101                	addi	sp,sp,-32
    5bc8:	cc22                	sw	s0,24(sp)
    5bca:	ca26                	sw	s1,20(sp)
    5bcc:	ce06                	sw	ra,28(sp)
    5bce:	c84a                	sw	s2,16(sp)
    5bd0:	c64e                	sw	s3,12(sp)
    5bd2:	0087f713          	andi	a4,a5,8
    5bd6:	84aa                	mv	s1,a0
    5bd8:	842e                	mv	s0,a1
    5bda:	ef71                	bnez	a4,5cb6 <__sflush_r+0xf4>
    5bdc:	41d8                	lw	a4,4(a1)
    5bde:	00e04d63          	bgtz	a4,5bf8 <__sflush_r+0x36>
    5be2:	41b8                	lw	a4,64(a1)
    5be4:	00e04a63          	bgtz	a4,5bf8 <__sflush_r+0x36>
    5be8:	4501                	li	a0,0
    5bea:	40f2                	lw	ra,28(sp)
    5bec:	4462                	lw	s0,24(sp)
    5bee:	44d2                	lw	s1,20(sp)
    5bf0:	4942                	lw	s2,16(sp)
    5bf2:	49b2                	lw	s3,12(sp)
    5bf4:	6105                	addi	sp,sp,32
    5bf6:	8082                	ret
    5bf8:	5458                	lw	a4,44(s0)
    5bfa:	d77d                	beqz	a4,5be8 <__sflush_r+0x26>
    5bfc:	0004a903          	lw	s2,0(s1)
    5c00:	01379693          	slli	a3,a5,0x13
    5c04:	0004a023          	sw	zero,0(s1)
    5c08:	0606dd63          	bgez	a3,5c82 <__sflush_r+0xc0>
    5c0c:	4870                	lw	a2,84(s0)
    5c0e:	00c45783          	lhu	a5,12(s0)
    5c12:	8b91                	andi	a5,a5,4
    5c14:	c799                	beqz	a5,5c22 <__sflush_r+0x60>
    5c16:	405c                	lw	a5,4(s0)
    5c18:	8e1d                	sub	a2,a2,a5
    5c1a:	585c                	lw	a5,52(s0)
    5c1c:	c399                	beqz	a5,5c22 <__sflush_r+0x60>
    5c1e:	403c                	lw	a5,64(s0)
    5c20:	8e1d                	sub	a2,a2,a5
    5c22:	545c                	lw	a5,44(s0)
    5c24:	500c                	lw	a1,32(s0)
    5c26:	4681                	li	a3,0
    5c28:	8526                	mv	a0,s1
    5c2a:	9782                	jalr	a5
    5c2c:	57fd                	li	a5,-1
    5c2e:	00c45703          	lhu	a4,12(s0)
    5c32:	00f51d63          	bne	a0,a5,5c4c <__sflush_r+0x8a>
    5c36:	4094                	lw	a3,0(s1)
    5c38:	47f5                	li	a5,29
    5c3a:	06d7e863          	bltu	a5,a3,5caa <__sflush_r+0xe8>
    5c3e:	204007b7          	lui	a5,0x20400
    5c42:	0785                	addi	a5,a5,1
    5c44:	00d7d7b3          	srl	a5,a5,a3
    5c48:	8b85                	andi	a5,a5,1
    5c4a:	c3a5                	beqz	a5,5caa <__sflush_r+0xe8>
    5c4c:	481c                	lw	a5,16(s0)
    5c4e:	00042223          	sw	zero,4(s0)
    5c52:	c01c                	sw	a5,0(s0)
    5c54:	01371793          	slli	a5,a4,0x13
    5c58:	0007d863          	bgez	a5,5c68 <__sflush_r+0xa6>
    5c5c:	57fd                	li	a5,-1
    5c5e:	00f51463          	bne	a0,a5,5c66 <__sflush_r+0xa4>
    5c62:	409c                	lw	a5,0(s1)
    5c64:	e391                	bnez	a5,5c68 <__sflush_r+0xa6>
    5c66:	c868                	sw	a0,84(s0)
    5c68:	584c                	lw	a1,52(s0)
    5c6a:	0124a023          	sw	s2,0(s1)
    5c6e:	ddad                	beqz	a1,5be8 <__sflush_r+0x26>
    5c70:	04440793          	addi	a5,s0,68
    5c74:	00f58463          	beq	a1,a5,5c7c <__sflush_r+0xba>
    5c78:	8526                	mv	a0,s1
    5c7a:	2135                	jal	60a6 <_free_r>
    5c7c:	02042a23          	sw	zero,52(s0)
    5c80:	b7a5                	j	5be8 <__sflush_r+0x26>
    5c82:	500c                	lw	a1,32(s0)
    5c84:	4601                	li	a2,0
    5c86:	4685                	li	a3,1
    5c88:	8526                	mv	a0,s1
    5c8a:	9702                	jalr	a4
    5c8c:	57fd                	li	a5,-1
    5c8e:	862a                	mv	a2,a0
    5c90:	f6f51fe3          	bne	a0,a5,5c0e <__sflush_r+0x4c>
    5c94:	409c                	lw	a5,0(s1)
    5c96:	dfa5                	beqz	a5,5c0e <__sflush_r+0x4c>
    5c98:	4775                	li	a4,29
    5c9a:	00e78563          	beq	a5,a4,5ca4 <__sflush_r+0xe2>
    5c9e:	4759                	li	a4,22
    5ca0:	04e79463          	bne	a5,a4,5ce8 <__sflush_r+0x126>
    5ca4:	0124a023          	sw	s2,0(s1)
    5ca8:	b781                	j	5be8 <__sflush_r+0x26>
    5caa:	04076713          	ori	a4,a4,64
    5cae:	00e41623          	sh	a4,12(s0)
    5cb2:	557d                	li	a0,-1
    5cb4:	bf1d                	j	5bea <__sflush_r+0x28>
    5cb6:	0105a983          	lw	s3,16(a1)
    5cba:	f20987e3          	beqz	s3,5be8 <__sflush_r+0x26>
    5cbe:	0005a903          	lw	s2,0(a1)
    5cc2:	8b8d                	andi	a5,a5,3
    5cc4:	0135a023          	sw	s3,0(a1)
    5cc8:	41390933          	sub	s2,s2,s3
    5ccc:	4701                	li	a4,0
    5cce:	e391                	bnez	a5,5cd2 <__sflush_r+0x110>
    5cd0:	49d8                	lw	a4,20(a1)
    5cd2:	c418                	sw	a4,8(s0)
    5cd4:	f1205ae3          	blez	s2,5be8 <__sflush_r+0x26>
    5cd8:	541c                	lw	a5,40(s0)
    5cda:	500c                	lw	a1,32(s0)
    5cdc:	86ca                	mv	a3,s2
    5cde:	864e                	mv	a2,s3
    5ce0:	8526                	mv	a0,s1
    5ce2:	9782                	jalr	a5
    5ce4:	00a04963          	bgtz	a0,5cf6 <__sflush_r+0x134>
    5ce8:	00c45783          	lhu	a5,12(s0)
    5cec:	0407e793          	ori	a5,a5,64
    5cf0:	00f41623          	sh	a5,12(s0)
    5cf4:	bf7d                	j	5cb2 <__sflush_r+0xf0>
    5cf6:	99aa                	add	s3,s3,a0
    5cf8:	40a90933          	sub	s2,s2,a0
    5cfc:	bfe1                	j	5cd4 <__sflush_r+0x112>

00005cfe <_fflush_r>:
_fflush_r():
    5cfe:	499c                	lw	a5,16(a1)
    5d00:	c3a5                	beqz	a5,5d60 <_fflush_r+0x62>
    5d02:	1101                	addi	sp,sp,-32
    5d04:	cc22                	sw	s0,24(sp)
    5d06:	ce06                	sw	ra,28(sp)
    5d08:	842a                	mv	s0,a0
    5d0a:	c511                	beqz	a0,5d16 <_fflush_r+0x18>
    5d0c:	4d1c                	lw	a5,24(a0)
    5d0e:	e781                	bnez	a5,5d16 <_fflush_r+0x18>
    5d10:	c62e                	sw	a1,12(sp)
    5d12:	2231                	jal	5e1e <__sinit>
    5d14:	45b2                	lw	a1,12(sp)
    5d16:	00001797          	auipc	a5,0x1
    5d1a:	04278793          	addi	a5,a5,66 # 6d58 <__sf_fake_stdin>
    5d1e:	00f59c63          	bne	a1,a5,5d36 <_fflush_r+0x38>
    5d22:	404c                	lw	a1,4(s0)
    5d24:	00c59783          	lh	a5,12(a1)
    5d28:	c79d                	beqz	a5,5d56 <_fflush_r+0x58>
    5d2a:	8522                	mv	a0,s0
    5d2c:	4462                	lw	s0,24(sp)
    5d2e:	40f2                	lw	ra,28(sp)
    5d30:	6105                	addi	sp,sp,32
    5d32:	e91ff06f          	j	5bc2 <__sflush_r>
    5d36:	00001797          	auipc	a5,0x1
    5d3a:	04278793          	addi	a5,a5,66 # 6d78 <__sf_fake_stdout>
    5d3e:	00f59463          	bne	a1,a5,5d46 <_fflush_r+0x48>
    5d42:	440c                	lw	a1,8(s0)
    5d44:	b7c5                	j	5d24 <_fflush_r+0x26>
    5d46:	00001797          	auipc	a5,0x1
    5d4a:	ff278793          	addi	a5,a5,-14 # 6d38 <__sf_fake_stderr>
    5d4e:	fcf59be3          	bne	a1,a5,5d24 <_fflush_r+0x26>
    5d52:	444c                	lw	a1,12(s0)
    5d54:	bfc1                	j	5d24 <_fflush_r+0x26>
    5d56:	40f2                	lw	ra,28(sp)
    5d58:	4462                	lw	s0,24(sp)
    5d5a:	4501                	li	a0,0
    5d5c:	6105                	addi	sp,sp,32
    5d5e:	8082                	ret
    5d60:	4501                	li	a0,0
    5d62:	8082                	ret

00005d64 <std>:
std():
    5d64:	1141                	addi	sp,sp,-16
    5d66:	c422                	sw	s0,8(sp)
    5d68:	c606                	sw	ra,12(sp)
    5d6a:	842a                	mv	s0,a0
    5d6c:	00b51623          	sh	a1,12(a0)
    5d70:	00c51723          	sh	a2,14(a0)
    5d74:	00052023          	sw	zero,0(a0)
    5d78:	00052223          	sw	zero,4(a0)
    5d7c:	00052423          	sw	zero,8(a0)
    5d80:	06052223          	sw	zero,100(a0)
    5d84:	00052823          	sw	zero,16(a0)
    5d88:	00052a23          	sw	zero,20(a0)
    5d8c:	00052c23          	sw	zero,24(a0)
    5d90:	4621                	li	a2,8
    5d92:	4581                	li	a1,0
    5d94:	05c50513          	addi	a0,a0,92
    5d98:	ba8fa0ef          	jal	ra,140 <memset>
    5d9c:	00000797          	auipc	a5,0x0
    5da0:	53e78793          	addi	a5,a5,1342 # 62da <__sread>
    5da4:	d05c                	sw	a5,36(s0)
    5da6:	00000797          	auipc	a5,0x0
    5daa:	56478793          	addi	a5,a5,1380 # 630a <__swrite>
    5dae:	d41c                	sw	a5,40(s0)
    5db0:	00000797          	auipc	a5,0x0
    5db4:	5a878793          	addi	a5,a5,1448 # 6358 <__sseek>
    5db8:	d45c                	sw	a5,44(s0)
    5dba:	00000797          	auipc	a5,0x0
    5dbe:	5d478793          	addi	a5,a5,1492 # 638e <__sclose>
    5dc2:	d000                	sw	s0,32(s0)
    5dc4:	d81c                	sw	a5,48(s0)
    5dc6:	40b2                	lw	ra,12(sp)
    5dc8:	4422                	lw	s0,8(sp)
    5dca:	0141                	addi	sp,sp,16
    5dcc:	8082                	ret

00005dce <_cleanup_r>:
_cleanup_r():
    5dce:	00000597          	auipc	a1,0x0
    5dd2:	f3058593          	addi	a1,a1,-208 # 5cfe <_fflush_r>
    5dd6:	aa91                	j	5f2a <_fwalk_reent>

00005dd8 <__sfmoreglue>:
__sfmoreglue():
    5dd8:	1141                	addi	sp,sp,-16
    5dda:	c226                	sw	s1,4(sp)
    5ddc:	06800613          	li	a2,104
    5de0:	fff58493          	addi	s1,a1,-1
    5de4:	02c484b3          	mul	s1,s1,a2
    5de8:	c04a                	sw	s2,0(sp)
    5dea:	892e                	mv	s2,a1
    5dec:	c422                	sw	s0,8(sp)
    5dee:	c606                	sw	ra,12(sp)
    5df0:	07448593          	addi	a1,s1,116
    5df4:	2e99                	jal	614a <_malloc_r>
    5df6:	842a                	mv	s0,a0
    5df8:	cd01                	beqz	a0,5e10 <__sfmoreglue+0x38>
    5dfa:	00052023          	sw	zero,0(a0)
    5dfe:	01252223          	sw	s2,4(a0)
    5e02:	0531                	addi	a0,a0,12
    5e04:	c408                	sw	a0,8(s0)
    5e06:	06848613          	addi	a2,s1,104
    5e0a:	4581                	li	a1,0
    5e0c:	b34fa0ef          	jal	ra,140 <memset>
    5e10:	8522                	mv	a0,s0
    5e12:	40b2                	lw	ra,12(sp)
    5e14:	4422                	lw	s0,8(sp)
    5e16:	4492                	lw	s1,4(sp)
    5e18:	4902                	lw	s2,0(sp)
    5e1a:	0141                	addi	sp,sp,16
    5e1c:	8082                	ret

00005e1e <__sinit>:
__sinit():
    5e1e:	4d1c                	lw	a5,24(a0)
    5e20:	e7a5                	bnez	a5,5e88 <__sinit+0x6a>
    5e22:	1141                	addi	sp,sp,-16
    5e24:	c606                	sw	ra,12(sp)
    5e26:	c422                	sw	s0,8(sp)
    5e28:	00000797          	auipc	a5,0x0
    5e2c:	fa678793          	addi	a5,a5,-90 # 5dce <_cleanup_r>
    5e30:	d51c                	sw	a5,40(a0)
    5e32:	81418793          	addi	a5,gp,-2028 # 20000084 <_global_impure_ptr>
    5e36:	439c                	lw	a5,0(a5)
    5e38:	04052423          	sw	zero,72(a0)
    5e3c:	04052623          	sw	zero,76(a0)
    5e40:	04052823          	sw	zero,80(a0)
    5e44:	00f51463          	bne	a0,a5,5e4c <__sinit+0x2e>
    5e48:	4785                	li	a5,1
    5e4a:	cd1c                	sw	a5,24(a0)
    5e4c:	842a                	mv	s0,a0
    5e4e:	2835                	jal	5e8a <__sfp>
    5e50:	c048                	sw	a0,4(s0)
    5e52:	8522                	mv	a0,s0
    5e54:	281d                	jal	5e8a <__sfp>
    5e56:	c408                	sw	a0,8(s0)
    5e58:	8522                	mv	a0,s0
    5e5a:	2805                	jal	5e8a <__sfp>
    5e5c:	c448                	sw	a0,12(s0)
    5e5e:	4048                	lw	a0,4(s0)
    5e60:	4601                	li	a2,0
    5e62:	4591                	li	a1,4
    5e64:	f01ff0ef          	jal	ra,5d64 <std>
    5e68:	4408                	lw	a0,8(s0)
    5e6a:	4605                	li	a2,1
    5e6c:	45a5                	li	a1,9
    5e6e:	ef7ff0ef          	jal	ra,5d64 <std>
    5e72:	4448                	lw	a0,12(s0)
    5e74:	4609                	li	a2,2
    5e76:	45c9                	li	a1,18
    5e78:	eedff0ef          	jal	ra,5d64 <std>
    5e7c:	4785                	li	a5,1
    5e7e:	cc1c                	sw	a5,24(s0)
    5e80:	40b2                	lw	ra,12(sp)
    5e82:	4422                	lw	s0,8(sp)
    5e84:	0141                	addi	sp,sp,16
    5e86:	8082                	ret
    5e88:	8082                	ret

00005e8a <__sfp>:
__sfp():
    5e8a:	1141                	addi	sp,sp,-16
    5e8c:	81418793          	addi	a5,gp,-2028 # 20000084 <_global_impure_ptr>
    5e90:	c226                	sw	s1,4(sp)
    5e92:	4384                	lw	s1,0(a5)
    5e94:	c04a                	sw	s2,0(sp)
    5e96:	c606                	sw	ra,12(sp)
    5e98:	4c9c                	lw	a5,24(s1)
    5e9a:	c422                	sw	s0,8(sp)
    5e9c:	892a                	mv	s2,a0
    5e9e:	e781                	bnez	a5,5ea6 <__sfp+0x1c>
    5ea0:	8526                	mv	a0,s1
    5ea2:	f7dff0ef          	jal	ra,5e1e <__sinit>
    5ea6:	04848493          	addi	s1,s1,72
    5eaa:	4480                	lw	s0,8(s1)
    5eac:	40dc                	lw	a5,4(s1)
    5eae:	17fd                	addi	a5,a5,-1
    5eb0:	0007d663          	bgez	a5,5ebc <__sfp+0x32>
    5eb4:	409c                	lw	a5,0(s1)
    5eb6:	cfb9                	beqz	a5,5f14 <__sfp+0x8a>
    5eb8:	4084                	lw	s1,0(s1)
    5eba:	bfc5                	j	5eaa <__sfp+0x20>
    5ebc:	00c41703          	lh	a4,12(s0)
    5ec0:	e739                	bnez	a4,5f0e <__sfp+0x84>
    5ec2:	77c1                	lui	a5,0xffff0
    5ec4:	0785                	addi	a5,a5,1
    5ec6:	06042223          	sw	zero,100(s0)
    5eca:	00042023          	sw	zero,0(s0)
    5ece:	00042223          	sw	zero,4(s0)
    5ed2:	00042423          	sw	zero,8(s0)
    5ed6:	c45c                	sw	a5,12(s0)
    5ed8:	00042823          	sw	zero,16(s0)
    5edc:	00042a23          	sw	zero,20(s0)
    5ee0:	00042c23          	sw	zero,24(s0)
    5ee4:	4621                	li	a2,8
    5ee6:	4581                	li	a1,0
    5ee8:	05c40513          	addi	a0,s0,92
    5eec:	a54fa0ef          	jal	ra,140 <memset>
    5ef0:	02042a23          	sw	zero,52(s0)
    5ef4:	02042c23          	sw	zero,56(s0)
    5ef8:	04042423          	sw	zero,72(s0)
    5efc:	04042623          	sw	zero,76(s0)
    5f00:	8522                	mv	a0,s0
    5f02:	40b2                	lw	ra,12(sp)
    5f04:	4422                	lw	s0,8(sp)
    5f06:	4492                	lw	s1,4(sp)
    5f08:	4902                	lw	s2,0(sp)
    5f0a:	0141                	addi	sp,sp,16
    5f0c:	8082                	ret
    5f0e:	06840413          	addi	s0,s0,104
    5f12:	bf71                	j	5eae <__sfp+0x24>
    5f14:	4591                	li	a1,4
    5f16:	854a                	mv	a0,s2
    5f18:	ec1ff0ef          	jal	ra,5dd8 <__sfmoreglue>
    5f1c:	c088                	sw	a0,0(s1)
    5f1e:	fd49                	bnez	a0,5eb8 <__sfp+0x2e>
    5f20:	47b1                	li	a5,12
    5f22:	00f92023          	sw	a5,0(s2)
    5f26:	4401                	li	s0,0
    5f28:	bfe1                	j	5f00 <__sfp+0x76>

00005f2a <_fwalk_reent>:
_fwalk_reent():
    5f2a:	7179                	addi	sp,sp,-48
    5f2c:	d422                	sw	s0,40(sp)
    5f2e:	d04a                	sw	s2,32(sp)
    5f30:	cc52                	sw	s4,24(sp)
    5f32:	ca56                	sw	s5,20(sp)
    5f34:	c85a                	sw	s6,16(sp)
    5f36:	c65e                	sw	s7,12(sp)
    5f38:	d606                	sw	ra,44(sp)
    5f3a:	d226                	sw	s1,36(sp)
    5f3c:	ce4e                	sw	s3,28(sp)
    5f3e:	8a2a                	mv	s4,a0
    5f40:	8aae                	mv	s5,a1
    5f42:	04850413          	addi	s0,a0,72
    5f46:	4901                	li	s2,0
    5f48:	4b05                	li	s6,1
    5f4a:	5bfd                	li	s7,-1
    5f4c:	ec09                	bnez	s0,5f66 <_fwalk_reent+0x3c>
    5f4e:	50b2                	lw	ra,44(sp)
    5f50:	5422                	lw	s0,40(sp)
    5f52:	854a                	mv	a0,s2
    5f54:	5492                	lw	s1,36(sp)
    5f56:	5902                	lw	s2,32(sp)
    5f58:	49f2                	lw	s3,28(sp)
    5f5a:	4a62                	lw	s4,24(sp)
    5f5c:	4ad2                	lw	s5,20(sp)
    5f5e:	4b42                	lw	s6,16(sp)
    5f60:	4bb2                	lw	s7,12(sp)
    5f62:	6145                	addi	sp,sp,48
    5f64:	8082                	ret
    5f66:	4404                	lw	s1,8(s0)
    5f68:	00442983          	lw	s3,4(s0)
    5f6c:	19fd                	addi	s3,s3,-1
    5f6e:	0009d463          	bgez	s3,5f76 <_fwalk_reent+0x4c>
    5f72:	4000                	lw	s0,0(s0)
    5f74:	bfe1                	j	5f4c <_fwalk_reent+0x22>
    5f76:	00c4d783          	lhu	a5,12(s1)
    5f7a:	00fb7b63          	bgeu	s6,a5,5f90 <_fwalk_reent+0x66>
    5f7e:	00e49783          	lh	a5,14(s1)
    5f82:	01778763          	beq	a5,s7,5f90 <_fwalk_reent+0x66>
    5f86:	85a6                	mv	a1,s1
    5f88:	8552                	mv	a0,s4
    5f8a:	9a82                	jalr	s5
    5f8c:	00a96933          	or	s2,s2,a0
    5f90:	06848493          	addi	s1,s1,104
    5f94:	bfe1                	j	5f6c <_fwalk_reent+0x42>

00005f96 <__swhatbuf_r>:
__swhatbuf_r():
    5f96:	7119                	addi	sp,sp,-128
    5f98:	daa6                	sw	s1,116(sp)
    5f9a:	84ae                	mv	s1,a1
    5f9c:	00e59583          	lh	a1,14(a1)
    5fa0:	dca2                	sw	s0,120(sp)
    5fa2:	de86                	sw	ra,124(sp)
    5fa4:	8432                	mv	s0,a2
    5fa6:	0005dc63          	bgez	a1,5fbe <__swhatbuf_r+0x28>
    5faa:	00c4d783          	lhu	a5,12(s1)
    5fae:	0006a023          	sw	zero,0(a3)
    5fb2:	0807f793          	andi	a5,a5,128
    5fb6:	e39d                	bnez	a5,5fdc <__swhatbuf_r+0x46>
    5fb8:	40000793          	li	a5,1024
    5fbc:	a015                	j	5fe0 <__swhatbuf_r+0x4a>
    5fbe:	0830                	addi	a2,sp,24
    5fc0:	c636                	sw	a3,12(sp)
    5fc2:	2125                	jal	63ea <_fstat_r>
    5fc4:	46b2                	lw	a3,12(sp)
    5fc6:	fe0542e3          	bltz	a0,5faa <__swhatbuf_r+0x14>
    5fca:	4772                	lw	a4,28(sp)
    5fcc:	67bd                	lui	a5,0xf
    5fce:	8ff9                	and	a5,a5,a4
    5fd0:	7779                	lui	a4,0xffffe
    5fd2:	97ba                	add	a5,a5,a4
    5fd4:	0017b793          	seqz	a5,a5
    5fd8:	c29c                	sw	a5,0(a3)
    5fda:	bff9                	j	5fb8 <__swhatbuf_r+0x22>
    5fdc:	04000793          	li	a5,64
    5fe0:	c01c                	sw	a5,0(s0)
    5fe2:	50f6                	lw	ra,124(sp)
    5fe4:	5466                	lw	s0,120(sp)
    5fe6:	54d6                	lw	s1,116(sp)
    5fe8:	4501                	li	a0,0
    5fea:	6109                	addi	sp,sp,128
    5fec:	8082                	ret

00005fee <__smakebuf_r>:
__smakebuf_r():
    5fee:	00c5d783          	lhu	a5,12(a1)
    5ff2:	1101                	addi	sp,sp,-32
    5ff4:	cc22                	sw	s0,24(sp)
    5ff6:	ce06                	sw	ra,28(sp)
    5ff8:	ca26                	sw	s1,20(sp)
    5ffa:	c84a                	sw	s2,16(sp)
    5ffc:	8b89                	andi	a5,a5,2
    5ffe:	842e                	mv	s0,a1
    6000:	cf89                	beqz	a5,601a <__smakebuf_r+0x2c>
    6002:	04740793          	addi	a5,s0,71
    6006:	c01c                	sw	a5,0(s0)
    6008:	c81c                	sw	a5,16(s0)
    600a:	4785                	li	a5,1
    600c:	c85c                	sw	a5,20(s0)
    600e:	40f2                	lw	ra,28(sp)
    6010:	4462                	lw	s0,24(sp)
    6012:	44d2                	lw	s1,20(sp)
    6014:	4942                	lw	s2,16(sp)
    6016:	6105                	addi	sp,sp,32
    6018:	8082                	ret
    601a:	0074                	addi	a3,sp,12
    601c:	0030                	addi	a2,sp,8
    601e:	84aa                	mv	s1,a0
    6020:	f77ff0ef          	jal	ra,5f96 <__swhatbuf_r>
    6024:	45a2                	lw	a1,8(sp)
    6026:	892a                	mv	s2,a0
    6028:	8526                	mv	a0,s1
    602a:	2205                	jal	614a <_malloc_r>
    602c:	ed01                	bnez	a0,6044 <__smakebuf_r+0x56>
    602e:	00c41783          	lh	a5,12(s0)
    6032:	2007f713          	andi	a4,a5,512
    6036:	ff61                	bnez	a4,600e <__smakebuf_r+0x20>
    6038:	9bf1                	andi	a5,a5,-4
    603a:	0027e793          	ori	a5,a5,2
    603e:	00f41623          	sh	a5,12(s0)
    6042:	b7c1                	j	6002 <__smakebuf_r+0x14>
    6044:	00000797          	auipc	a5,0x0
    6048:	d8a78793          	addi	a5,a5,-630 # 5dce <_cleanup_r>
    604c:	d49c                	sw	a5,40(s1)
    604e:	00c45783          	lhu	a5,12(s0)
    6052:	c008                	sw	a0,0(s0)
    6054:	c808                	sw	a0,16(s0)
    6056:	0807e793          	ori	a5,a5,128
    605a:	00f41623          	sh	a5,12(s0)
    605e:	47a2                	lw	a5,8(sp)
    6060:	c85c                	sw	a5,20(s0)
    6062:	47b2                	lw	a5,12(sp)
    6064:	cf89                	beqz	a5,607e <__smakebuf_r+0x90>
    6066:	00e41583          	lh	a1,14(s0)
    606a:	8526                	mv	a0,s1
    606c:	2665                	jal	6414 <_isatty_r>
    606e:	c901                	beqz	a0,607e <__smakebuf_r+0x90>
    6070:	00c45783          	lhu	a5,12(s0)
    6074:	9bf1                	andi	a5,a5,-4
    6076:	0017e793          	ori	a5,a5,1
    607a:	00f41623          	sh	a5,12(s0)
    607e:	00c45783          	lhu	a5,12(s0)
    6082:	00f96933          	or	s2,s2,a5
    6086:	01241623          	sh	s2,12(s0)
    608a:	b751                	j	600e <__smakebuf_r+0x20>

0000608c <memchr>:
memchr():
    608c:	0ff5f593          	andi	a1,a1,255
    6090:	962a                	add	a2,a2,a0
    6092:	00c51463          	bne	a0,a2,609a <memchr+0xe>
    6096:	4501                	li	a0,0
    6098:	8082                	ret
    609a:	00054783          	lbu	a5,0(a0)
    609e:	feb78de3          	beq	a5,a1,6098 <memchr+0xc>
    60a2:	0505                	addi	a0,a0,1
    60a4:	b7fd                	j	6092 <memchr+0x6>

000060a6 <_free_r>:
_free_r():
    60a6:	c1cd                	beqz	a1,6148 <_free_r+0xa2>
    60a8:	ffc5a783          	lw	a5,-4(a1)
    60ac:	1141                	addi	sp,sp,-16
    60ae:	c422                	sw	s0,8(sp)
    60b0:	c606                	sw	ra,12(sp)
    60b2:	c226                	sw	s1,4(sp)
    60b4:	ffc58413          	addi	s0,a1,-4
    60b8:	0007d363          	bgez	a5,60be <_free_r+0x18>
    60bc:	943e                	add	s0,s0,a5
    60be:	84aa                	mv	s1,a0
    60c0:	2665                	jal	6468 <__malloc_lock>
    60c2:	83c18793          	addi	a5,gp,-1988 # 200000ac <__malloc_free_list>
    60c6:	439c                	lw	a5,0(a5)
    60c8:	eb99                	bnez	a5,60de <_free_r+0x38>
    60ca:	00042223          	sw	zero,4(s0)
    60ce:	8281ae23          	sw	s0,-1988(gp) # 200000ac <__malloc_free_list>
    60d2:	4422                	lw	s0,8(sp)
    60d4:	40b2                	lw	ra,12(sp)
    60d6:	8526                	mv	a0,s1
    60d8:	4492                	lw	s1,4(sp)
    60da:	0141                	addi	sp,sp,16
    60dc:	a679                	j	646a <__malloc_unlock>
    60de:	00f47e63          	bgeu	s0,a5,60fa <_free_r+0x54>
    60e2:	4014                	lw	a3,0(s0)
    60e4:	00d40733          	add	a4,s0,a3
    60e8:	00e79663          	bne	a5,a4,60f4 <_free_r+0x4e>
    60ec:	4398                	lw	a4,0(a5)
    60ee:	43dc                	lw	a5,4(a5)
    60f0:	9736                	add	a4,a4,a3
    60f2:	c018                	sw	a4,0(s0)
    60f4:	c05c                	sw	a5,4(s0)
    60f6:	bfe1                	j	60ce <_free_r+0x28>
    60f8:	87ba                	mv	a5,a4
    60fa:	43d8                	lw	a4,4(a5)
    60fc:	c319                	beqz	a4,6102 <_free_r+0x5c>
    60fe:	fee47de3          	bgeu	s0,a4,60f8 <_free_r+0x52>
    6102:	4394                	lw	a3,0(a5)
    6104:	00d78633          	add	a2,a5,a3
    6108:	00861f63          	bne	a2,s0,6126 <_free_r+0x80>
    610c:	4010                	lw	a2,0(s0)
    610e:	96b2                	add	a3,a3,a2
    6110:	c394                	sw	a3,0(a5)
    6112:	00d78633          	add	a2,a5,a3
    6116:	fac71ee3          	bne	a4,a2,60d2 <_free_r+0x2c>
    611a:	4310                	lw	a2,0(a4)
    611c:	4358                	lw	a4,4(a4)
    611e:	96b2                	add	a3,a3,a2
    6120:	c394                	sw	a3,0(a5)
    6122:	c3d8                	sw	a4,4(a5)
    6124:	b77d                	j	60d2 <_free_r+0x2c>
    6126:	00c47563          	bgeu	s0,a2,6130 <_free_r+0x8a>
    612a:	47b1                	li	a5,12
    612c:	c09c                	sw	a5,0(s1)
    612e:	b755                	j	60d2 <_free_r+0x2c>
    6130:	4010                	lw	a2,0(s0)
    6132:	00c406b3          	add	a3,s0,a2
    6136:	00d71663          	bne	a4,a3,6142 <_free_r+0x9c>
    613a:	4314                	lw	a3,0(a4)
    613c:	4358                	lw	a4,4(a4)
    613e:	96b2                	add	a3,a3,a2
    6140:	c014                	sw	a3,0(s0)
    6142:	c058                	sw	a4,4(s0)
    6144:	c3c0                	sw	s0,4(a5)
    6146:	b771                	j	60d2 <_free_r+0x2c>
    6148:	8082                	ret

0000614a <_malloc_r>:
_malloc_r():
    614a:	1101                	addi	sp,sp,-32
    614c:	ca26                	sw	s1,20(sp)
    614e:	00358493          	addi	s1,a1,3
    6152:	98f1                	andi	s1,s1,-4
    6154:	ce06                	sw	ra,28(sp)
    6156:	cc22                	sw	s0,24(sp)
    6158:	c84a                	sw	s2,16(sp)
    615a:	c64e                	sw	s3,12(sp)
    615c:	04a1                	addi	s1,s1,8
    615e:	47b1                	li	a5,12
    6160:	04f4f163          	bgeu	s1,a5,61a2 <_malloc_r+0x58>
    6164:	44b1                	li	s1,12
    6166:	04b4e063          	bltu	s1,a1,61a6 <_malloc_r+0x5c>
    616a:	892a                	mv	s2,a0
    616c:	2cf5                	jal	6468 <__malloc_lock>
    616e:	83c18793          	addi	a5,gp,-1988 # 200000ac <__malloc_free_list>
    6172:	4398                	lw	a4,0(a5)
    6174:	843a                	mv	s0,a4
    6176:	e031                	bnez	s0,61ba <_malloc_r+0x70>
    6178:	84018793          	addi	a5,gp,-1984 # 200000b0 <__malloc_sbrk_start>
    617c:	439c                	lw	a5,0(a5)
    617e:	e791                	bnez	a5,618a <_malloc_r+0x40>
    6180:	4581                	li	a1,0
    6182:	854a                	mv	a0,s2
    6184:	2851                	jal	6218 <_sbrk_r>
    6186:	84a1a023          	sw	a0,-1984(gp) # 200000b0 <__malloc_sbrk_start>
    618a:	85a6                	mv	a1,s1
    618c:	854a                	mv	a0,s2
    618e:	2069                	jal	6218 <_sbrk_r>
    6190:	59fd                	li	s3,-1
    6192:	07351763          	bne	a0,s3,6200 <_malloc_r+0xb6>
    6196:	47b1                	li	a5,12
    6198:	00f92023          	sw	a5,0(s2)
    619c:	854a                	mv	a0,s2
    619e:	24f1                	jal	646a <__malloc_unlock>
    61a0:	a029                	j	61aa <_malloc_r+0x60>
    61a2:	fc04d2e3          	bgez	s1,6166 <_malloc_r+0x1c>
    61a6:	47b1                	li	a5,12
    61a8:	c11c                	sw	a5,0(a0)
    61aa:	4501                	li	a0,0
    61ac:	40f2                	lw	ra,28(sp)
    61ae:	4462                	lw	s0,24(sp)
    61b0:	44d2                	lw	s1,20(sp)
    61b2:	4942                	lw	s2,16(sp)
    61b4:	49b2                	lw	s3,12(sp)
    61b6:	6105                	addi	sp,sp,32
    61b8:	8082                	ret
    61ba:	401c                	lw	a5,0(s0)
    61bc:	8f85                	sub	a5,a5,s1
    61be:	0207ce63          	bltz	a5,61fa <_malloc_r+0xb0>
    61c2:	46ad                	li	a3,11
    61c4:	00f6f663          	bgeu	a3,a5,61d0 <_malloc_r+0x86>
    61c8:	c01c                	sw	a5,0(s0)
    61ca:	943e                	add	s0,s0,a5
    61cc:	c004                	sw	s1,0(s0)
    61ce:	a031                	j	61da <_malloc_r+0x90>
    61d0:	405c                	lw	a5,4(s0)
    61d2:	02871263          	bne	a4,s0,61f6 <_malloc_r+0xac>
    61d6:	82f1ae23          	sw	a5,-1988(gp) # 200000ac <__malloc_free_list>
    61da:	854a                	mv	a0,s2
    61dc:	2479                	jal	646a <__malloc_unlock>
    61de:	00b40513          	addi	a0,s0,11
    61e2:	00440793          	addi	a5,s0,4
    61e6:	9961                	andi	a0,a0,-8
    61e8:	40f50733          	sub	a4,a0,a5
    61ec:	d361                	beqz	a4,61ac <_malloc_r+0x62>
    61ee:	943a                	add	s0,s0,a4
    61f0:	8f89                	sub	a5,a5,a0
    61f2:	c01c                	sw	a5,0(s0)
    61f4:	bf65                	j	61ac <_malloc_r+0x62>
    61f6:	c35c                	sw	a5,4(a4)
    61f8:	b7cd                	j	61da <_malloc_r+0x90>
    61fa:	8722                	mv	a4,s0
    61fc:	4040                	lw	s0,4(s0)
    61fe:	bfa5                	j	6176 <_malloc_r+0x2c>
    6200:	00350413          	addi	s0,a0,3
    6204:	9871                	andi	s0,s0,-4
    6206:	fc8503e3          	beq	a0,s0,61cc <_malloc_r+0x82>
    620a:	40a405b3          	sub	a1,s0,a0
    620e:	854a                	mv	a0,s2
    6210:	2021                	jal	6218 <_sbrk_r>
    6212:	fb351de3          	bne	a0,s3,61cc <_malloc_r+0x82>
    6216:	b741                	j	6196 <_malloc_r+0x4c>

00006218 <_sbrk_r>:
_sbrk_r():
    6218:	1141                	addi	sp,sp,-16
    621a:	c422                	sw	s0,8(sp)
    621c:	842a                	mv	s0,a0
    621e:	852e                	mv	a0,a1
    6220:	9201a023          	sw	zero,-1760(gp) # 20000190 <errno>
    6224:	c606                	sw	ra,12(sp)
    6226:	24d9                	jal	64ec <_sbrk>
    6228:	57fd                	li	a5,-1
    622a:	00f51763          	bne	a0,a5,6238 <_sbrk_r+0x20>
    622e:	92018793          	addi	a5,gp,-1760 # 20000190 <errno>
    6232:	439c                	lw	a5,0(a5)
    6234:	c391                	beqz	a5,6238 <_sbrk_r+0x20>
    6236:	c01c                	sw	a5,0(s0)
    6238:	40b2                	lw	ra,12(sp)
    623a:	4422                	lw	s0,8(sp)
    623c:	0141                	addi	sp,sp,16
    623e:	8082                	ret

00006240 <_raise_r>:
_raise_r():
    6240:	47fd                	li	a5,31
    6242:	00b7f663          	bgeu	a5,a1,624e <_raise_r+0xe>
    6246:	47d9                	li	a5,22
    6248:	c11c                	sw	a5,0(a0)
    624a:	557d                	li	a0,-1
    624c:	8082                	ret
    624e:	417c                	lw	a5,68(a0)
    6250:	1101                	addi	sp,sp,-32
    6252:	cc22                	sw	s0,24(sp)
    6254:	ce06                	sw	ra,28(sp)
    6256:	862e                	mv	a2,a1
    6258:	842a                	mv	s0,a0
    625a:	c791                	beqz	a5,6266 <_raise_r+0x26>
    625c:	00259713          	slli	a4,a1,0x2
    6260:	97ba                	add	a5,a5,a4
    6262:	4398                	lw	a4,0(a5)
    6264:	eb19                	bnez	a4,627a <_raise_r+0x3a>
    6266:	8522                	mv	a0,s0
    6268:	c632                	sw	a2,12(sp)
    626a:	20bd                	jal	62d8 <_getpid_r>
    626c:	85aa                	mv	a1,a0
    626e:	8522                	mv	a0,s0
    6270:	4462                	lw	s0,24(sp)
    6272:	4632                	lw	a2,12(sp)
    6274:	40f2                	lw	ra,28(sp)
    6276:	6105                	addi	sp,sp,32
    6278:	a81d                	j	62ae <_kill_r>
    627a:	4685                	li	a3,1
    627c:	4501                	li	a0,0
    627e:	00d70863          	beq	a4,a3,628e <_raise_r+0x4e>
    6282:	56fd                	li	a3,-1
    6284:	00d71963          	bne	a4,a3,6296 <_raise_r+0x56>
    6288:	47d9                	li	a5,22
    628a:	c01c                	sw	a5,0(s0)
    628c:	4505                	li	a0,1
    628e:	40f2                	lw	ra,28(sp)
    6290:	4462                	lw	s0,24(sp)
    6292:	6105                	addi	sp,sp,32
    6294:	8082                	ret
    6296:	852e                	mv	a0,a1
    6298:	0007a023          	sw	zero,0(a5)
    629c:	9702                	jalr	a4
    629e:	4501                	li	a0,0
    62a0:	b7fd                	j	628e <_raise_r+0x4e>

000062a2 <raise>:
raise():
    62a2:	80818793          	addi	a5,gp,-2040 # 20000078 <_impure_ptr>
    62a6:	85aa                	mv	a1,a0
    62a8:	4388                	lw	a0,0(a5)
    62aa:	f97ff06f          	j	6240 <_raise_r>

000062ae <_kill_r>:
_kill_r():
    62ae:	1141                	addi	sp,sp,-16
    62b0:	c422                	sw	s0,8(sp)
    62b2:	842a                	mv	s0,a0
    62b4:	852e                	mv	a0,a1
    62b6:	85b2                	mv	a1,a2
    62b8:	9201a023          	sw	zero,-1760(gp) # 20000190 <errno>
    62bc:	c606                	sw	ra,12(sp)
    62be:	2429                	jal	64c8 <_kill>
    62c0:	57fd                	li	a5,-1
    62c2:	00f51763          	bne	a0,a5,62d0 <_kill_r+0x22>
    62c6:	92018793          	addi	a5,gp,-1760 # 20000190 <errno>
    62ca:	439c                	lw	a5,0(a5)
    62cc:	c391                	beqz	a5,62d0 <_kill_r+0x22>
    62ce:	c01c                	sw	a5,0(s0)
    62d0:	40b2                	lw	ra,12(sp)
    62d2:	4422                	lw	s0,8(sp)
    62d4:	0141                	addi	sp,sp,16
    62d6:	8082                	ret

000062d8 <_getpid_r>:
_getpid_r():
    62d8:	aae1                	j	64b0 <_getpid>

000062da <__sread>:
__sread():
    62da:	1141                	addi	sp,sp,-16
    62dc:	c422                	sw	s0,8(sp)
    62de:	842e                	mv	s0,a1
    62e0:	00e59583          	lh	a1,14(a1)
    62e4:	c606                	sw	ra,12(sp)
    62e6:	2259                	jal	646c <_read_r>
    62e8:	00054963          	bltz	a0,62fa <__sread+0x20>
    62ec:	487c                	lw	a5,84(s0)
    62ee:	97aa                	add	a5,a5,a0
    62f0:	c87c                	sw	a5,84(s0)
    62f2:	40b2                	lw	ra,12(sp)
    62f4:	4422                	lw	s0,8(sp)
    62f6:	0141                	addi	sp,sp,16
    62f8:	8082                	ret
    62fa:	00c45783          	lhu	a5,12(s0)
    62fe:	777d                	lui	a4,0xfffff
    6300:	177d                	addi	a4,a4,-1
    6302:	8ff9                	and	a5,a5,a4
    6304:	00f41623          	sh	a5,12(s0)
    6308:	b7ed                	j	62f2 <__sread+0x18>

0000630a <__swrite>:
__swrite():
    630a:	00c5d783          	lhu	a5,12(a1)
    630e:	1101                	addi	sp,sp,-32
    6310:	cc22                	sw	s0,24(sp)
    6312:	ca26                	sw	s1,20(sp)
    6314:	c84a                	sw	s2,16(sp)
    6316:	c64e                	sw	s3,12(sp)
    6318:	ce06                	sw	ra,28(sp)
    631a:	1007f793          	andi	a5,a5,256
    631e:	84aa                	mv	s1,a0
    6320:	842e                	mv	s0,a1
    6322:	8932                	mv	s2,a2
    6324:	89b6                	mv	s3,a3
    6326:	c791                	beqz	a5,6332 <__swrite+0x28>
    6328:	00e59583          	lh	a1,14(a1)
    632c:	4689                	li	a3,2
    632e:	4601                	li	a2,0
    6330:	2231                	jal	643c <_lseek_r>
    6332:	00c45783          	lhu	a5,12(s0)
    6336:	777d                	lui	a4,0xfffff
    6338:	177d                	addi	a4,a4,-1
    633a:	8ff9                	and	a5,a5,a4
    633c:	00f41623          	sh	a5,12(s0)
    6340:	00e41583          	lh	a1,14(s0)
    6344:	4462                	lw	s0,24(sp)
    6346:	40f2                	lw	ra,28(sp)
    6348:	86ce                	mv	a3,s3
    634a:	864a                	mv	a2,s2
    634c:	49b2                	lw	s3,12(sp)
    634e:	4942                	lw	s2,16(sp)
    6350:	8526                	mv	a0,s1
    6352:	44d2                	lw	s1,20(sp)
    6354:	6105                	addi	sp,sp,32
    6356:	a83d                	j	6394 <_write_r>

00006358 <__sseek>:
__sseek():
    6358:	1141                	addi	sp,sp,-16
    635a:	c422                	sw	s0,8(sp)
    635c:	842e                	mv	s0,a1
    635e:	00e59583          	lh	a1,14(a1)
    6362:	c606                	sw	ra,12(sp)
    6364:	28e1                	jal	643c <_lseek_r>
    6366:	57fd                	li	a5,-1
    6368:	00c45703          	lhu	a4,12(s0)
    636c:	00f51b63          	bne	a0,a5,6382 <__sseek+0x2a>
    6370:	77fd                	lui	a5,0xfffff
    6372:	17fd                	addi	a5,a5,-1
    6374:	8ff9                	and	a5,a5,a4
    6376:	00f41623          	sh	a5,12(s0)
    637a:	40b2                	lw	ra,12(sp)
    637c:	4422                	lw	s0,8(sp)
    637e:	0141                	addi	sp,sp,16
    6380:	8082                	ret
    6382:	6785                	lui	a5,0x1
    6384:	8fd9                	or	a5,a5,a4
    6386:	00f41623          	sh	a5,12(s0)
    638a:	c868                	sw	a0,84(s0)
    638c:	b7fd                	j	637a <__sseek+0x22>

0000638e <__sclose>:
__sclose():
    638e:	00e59583          	lh	a1,14(a1)
    6392:	a805                	j	63c2 <_close_r>

00006394 <_write_r>:
_write_r():
    6394:	1141                	addi	sp,sp,-16
    6396:	c422                	sw	s0,8(sp)
    6398:	842a                	mv	s0,a0
    639a:	852e                	mv	a0,a1
    639c:	85b2                	mv	a1,a2
    639e:	8636                	mv	a2,a3
    63a0:	9201a023          	sw	zero,-1760(gp) # 20000190 <errno>
    63a4:	c606                	sw	ra,12(sp)
    63a6:	842fe0ef          	jal	ra,43e8 <_write>
    63aa:	57fd                	li	a5,-1
    63ac:	00f51763          	bne	a0,a5,63ba <_write_r+0x26>
    63b0:	92018793          	addi	a5,gp,-1760 # 20000190 <errno>
    63b4:	439c                	lw	a5,0(a5)
    63b6:	c391                	beqz	a5,63ba <_write_r+0x26>
    63b8:	c01c                	sw	a5,0(s0)
    63ba:	40b2                	lw	ra,12(sp)
    63bc:	4422                	lw	s0,8(sp)
    63be:	0141                	addi	sp,sp,16
    63c0:	8082                	ret

000063c2 <_close_r>:
_close_r():
    63c2:	1141                	addi	sp,sp,-16
    63c4:	c422                	sw	s0,8(sp)
    63c6:	842a                	mv	s0,a0
    63c8:	852e                	mv	a0,a1
    63ca:	9201a023          	sw	zero,-1760(gp) # 20000190 <errno>
    63ce:	c606                	sw	ra,12(sp)
    63d0:	20e1                	jal	6498 <_close>
    63d2:	57fd                	li	a5,-1
    63d4:	00f51763          	bne	a0,a5,63e2 <_close_r+0x20>
    63d8:	92018793          	addi	a5,gp,-1760 # 20000190 <errno>
    63dc:	439c                	lw	a5,0(a5)
    63de:	c391                	beqz	a5,63e2 <_close_r+0x20>
    63e0:	c01c                	sw	a5,0(s0)
    63e2:	40b2                	lw	ra,12(sp)
    63e4:	4422                	lw	s0,8(sp)
    63e6:	0141                	addi	sp,sp,16
    63e8:	8082                	ret

000063ea <_fstat_r>:
_fstat_r():
    63ea:	1141                	addi	sp,sp,-16
    63ec:	c422                	sw	s0,8(sp)
    63ee:	842a                	mv	s0,a0
    63f0:	852e                	mv	a0,a1
    63f2:	85b2                	mv	a1,a2
    63f4:	9201a023          	sw	zero,-1760(gp) # 20000190 <errno>
    63f8:	c606                	sw	ra,12(sp)
    63fa:	206d                	jal	64a4 <_fstat>
    63fc:	57fd                	li	a5,-1
    63fe:	00f51763          	bne	a0,a5,640c <_fstat_r+0x22>
    6402:	92018793          	addi	a5,gp,-1760 # 20000190 <errno>
    6406:	439c                	lw	a5,0(a5)
    6408:	c391                	beqz	a5,640c <_fstat_r+0x22>
    640a:	c01c                	sw	a5,0(s0)
    640c:	40b2                	lw	ra,12(sp)
    640e:	4422                	lw	s0,8(sp)
    6410:	0141                	addi	sp,sp,16
    6412:	8082                	ret

00006414 <_isatty_r>:
_isatty_r():
    6414:	1141                	addi	sp,sp,-16
    6416:	c422                	sw	s0,8(sp)
    6418:	842a                	mv	s0,a0
    641a:	852e                	mv	a0,a1
    641c:	9201a023          	sw	zero,-1760(gp) # 20000190 <errno>
    6420:	c606                	sw	ra,12(sp)
    6422:	2869                	jal	64bc <_isatty>
    6424:	57fd                	li	a5,-1
    6426:	00f51763          	bne	a0,a5,6434 <_isatty_r+0x20>
    642a:	92018793          	addi	a5,gp,-1760 # 20000190 <errno>
    642e:	439c                	lw	a5,0(a5)
    6430:	c391                	beqz	a5,6434 <_isatty_r+0x20>
    6432:	c01c                	sw	a5,0(s0)
    6434:	40b2                	lw	ra,12(sp)
    6436:	4422                	lw	s0,8(sp)
    6438:	0141                	addi	sp,sp,16
    643a:	8082                	ret

0000643c <_lseek_r>:
_lseek_r():
    643c:	1141                	addi	sp,sp,-16
    643e:	c422                	sw	s0,8(sp)
    6440:	842a                	mv	s0,a0
    6442:	852e                	mv	a0,a1
    6444:	85b2                	mv	a1,a2
    6446:	8636                	mv	a2,a3
    6448:	9201a023          	sw	zero,-1760(gp) # 20000190 <errno>
    644c:	c606                	sw	ra,12(sp)
    644e:	2059                	jal	64d4 <_lseek>
    6450:	57fd                	li	a5,-1
    6452:	00f51763          	bne	a0,a5,6460 <_lseek_r+0x24>
    6456:	92018793          	addi	a5,gp,-1760 # 20000190 <errno>
    645a:	439c                	lw	a5,0(a5)
    645c:	c391                	beqz	a5,6460 <_lseek_r+0x24>
    645e:	c01c                	sw	a5,0(s0)
    6460:	40b2                	lw	ra,12(sp)
    6462:	4422                	lw	s0,8(sp)
    6464:	0141                	addi	sp,sp,16
    6466:	8082                	ret

00006468 <__malloc_lock>:
__malloc_lock():
    6468:	8082                	ret

0000646a <__malloc_unlock>:
__malloc_unlock():
    646a:	8082                	ret

0000646c <_read_r>:
_read_r():
    646c:	1141                	addi	sp,sp,-16
    646e:	c422                	sw	s0,8(sp)
    6470:	842a                	mv	s0,a0
    6472:	852e                	mv	a0,a1
    6474:	85b2                	mv	a1,a2
    6476:	8636                	mv	a2,a3
    6478:	9201a023          	sw	zero,-1760(gp) # 20000190 <errno>
    647c:	c606                	sw	ra,12(sp)
    647e:	208d                	jal	64e0 <_read>
    6480:	57fd                	li	a5,-1
    6482:	00f51763          	bne	a0,a5,6490 <_read_r+0x24>
    6486:	92018793          	addi	a5,gp,-1760 # 20000190 <errno>
    648a:	439c                	lw	a5,0(a5)
    648c:	c391                	beqz	a5,6490 <_read_r+0x24>
    648e:	c01c                	sw	a5,0(s0)
    6490:	40b2                	lw	ra,12(sp)
    6492:	4422                	lw	s0,8(sp)
    6494:	0141                	addi	sp,sp,16
    6496:	8082                	ret

00006498 <_close>:
_close():
    6498:	05800793          	li	a5,88
    649c:	92f1a023          	sw	a5,-1760(gp) # 20000190 <errno>
    64a0:	557d                	li	a0,-1
    64a2:	8082                	ret

000064a4 <_fstat>:
_fstat():
    64a4:	05800793          	li	a5,88
    64a8:	92f1a023          	sw	a5,-1760(gp) # 20000190 <errno>
    64ac:	557d                	li	a0,-1
    64ae:	8082                	ret

000064b0 <_getpid>:
_getpid():
    64b0:	05800793          	li	a5,88
    64b4:	92f1a023          	sw	a5,-1760(gp) # 20000190 <errno>
    64b8:	557d                	li	a0,-1
    64ba:	8082                	ret

000064bc <_isatty>:
_isatty():
    64bc:	05800793          	li	a5,88
    64c0:	92f1a023          	sw	a5,-1760(gp) # 20000190 <errno>
    64c4:	4501                	li	a0,0
    64c6:	8082                	ret

000064c8 <_kill>:
_kill():
    64c8:	05800793          	li	a5,88
    64cc:	92f1a023          	sw	a5,-1760(gp) # 20000190 <errno>
    64d0:	557d                	li	a0,-1
    64d2:	8082                	ret

000064d4 <_lseek>:
_lseek():
    64d4:	05800793          	li	a5,88
    64d8:	92f1a023          	sw	a5,-1760(gp) # 20000190 <errno>
    64dc:	557d                	li	a0,-1
    64de:	8082                	ret

000064e0 <_read>:
_read():
    64e0:	05800793          	li	a5,88
    64e4:	92f1a023          	sw	a5,-1760(gp) # 20000190 <errno>
    64e8:	557d                	li	a0,-1
    64ea:	8082                	ret

000064ec <_sbrk>:
_sbrk():
    64ec:	84418793          	addi	a5,gp,-1980 # 200000b4 <heap_end.1518>
    64f0:	439c                	lw	a5,0(a5)
    64f2:	c791                	beqz	a5,64fe <_sbrk+0x12>
    64f4:	953e                	add	a0,a0,a5
    64f6:	84a1a223          	sw	a0,-1980(gp) # 200000b4 <heap_end.1518>
    64fa:	853e                	mv	a0,a5
    64fc:	8082                	ret
    64fe:	92418793          	addi	a5,gp,-1756 # 20000194 <_ebss>
    6502:	953e                	add	a0,a0,a5
    6504:	84a1a223          	sw	a0,-1980(gp) # 200000b4 <heap_end.1518>
    6508:	853e                	mv	a0,a5
    650a:	8082                	ret

0000650c <_exit>:
_exit():
    650c:	a001                	j	650c <_exit>
    650e:	0000                	unimp
    6510:	0030                	addi	a2,sp,8
    6512:	0000                	unimp
    6514:	2e2e                	fld	ft8,200(sp)
    6516:	62694c2f          	0x62694c2f
    651a:	6172                	flw	ft2,28(sp)
    651c:	6972                	flw	fs2,28(sp)
    651e:	7365                	lui	t1,0xffff9
    6520:	6565732f          	0x6565732f
    6524:	6572666b          	0x6572666b
    6528:	5f65                	li	t5,-7
    652a:	696c                	flw	fa1,84(a0)
    652c:	7262                	flw	ft4,56(sp)
    652e:	7261                	lui	tp,0xffff8
    6530:	6569                	lui	a0,0x1a
    6532:	667a2f73          	csrrs	t5,0x667,s4
    6536:	735f 6970 632e      	0x632e6970735f
    653c:	0000                	unimp
    653e:	0000                	unimp
    6540:	0000                	unimp
    6542:	41a0                	lw	s0,64(a1)
    6544:	0000                	unimp
    6546:	40a0                	lw	s0,64(s1)
    6548:	4000                	lw	s0,0(s0)
    654a:	459c                	lw	a5,8(a1)

0000654c <tft_ascii>:
	...
    655c:	0000 0800 0808 0808 0808 0000 0808 0000     ................
    656c:	4800 2424 0012 0000 0000 0000 0000 0000     .H$$............
    657c:	0000 4800 4848 247e 2424 247e 2424 0000     ...HHH~$$$~$$$..
    658c:	0000 3c10 5252 1c12 5030 5250 3c52 1010     ...<RR..0PPRR<..
    659c:	0000 2200 1525 0d15 582a 5454 2252 0000     ..."%...*XTTR"..
    65ac:	0000 0c00 1212 0a12 2576 1929 6e91 0000     ........v%)..n..
    65bc:	0600 0404 0002 0000 0000 0000 0000 0000     ................
    65cc:	4000 1020 0810 0808 0808 1008 2010 0040     .@ .......... @.
    65dc:	0200 0804 1008 1010 1010 0810 0408 0002     ................
    65ec:	0000 0000 0808 1c6b 6b1c 0808 0000 0000     ......k..k......
    65fc:	0000 0000 1000 1010 10fe 1010 0000 0000     ................
	...
    6618:	0406 0204 0000 0000 0000 0000 007e 0000     ............~...
	...
    6638:	0606 0000 0000 2040 2020 1010 0808 0408     ......@   ......
    6648:	0204 0002 0000 1800 4224 4242 4242 4242     ........$BBBBBBB
    6658:	1824 0000 0000 1000 101c 1010 1010 1010     $...............
    6668:	7c10 0000 0000 3c00 4242 4042 1020 0408     .|.....<BBB@ ...
    6678:	7e42 0000 0000 3c00 4242 2040 2018 4240     B~.....<BB@ . @B
    6688:	3c42 0000 0000 2000 3030 2428 2224 20fe     B<..... 00($$". 
    6698:	f820 0000 0000 7e00 0202 1e02 4022 4240      ......~...."@@B
    66a8:	1c22 0000 0000 1800 0224 3a02 4246 4242     ".......$..:FBBB
    66b8:	3844 0000 0000 7e00 2042 1020 0810 0808     D8.....~B  .....
    66c8:	0808 0000 0000 3c00 4242 2442 2418 4242     .......<BBB$.$BB
    66d8:	3c42 0000 0000 1c00 4222 4242 5c62 4040     B<......"BBBb\@@
    66e8:	1824 0000 0000 0000 0000 1818 0000 0000     $...............
    66f8:	1818 0000 0000 0000 0000 0800 0000 0000     ................
    6708:	0800 0808 0000 4000 1020 0408 0402 1008     .......@ .......
    6718:	4020 0000 0000 0000 0000 007e 7e00 0000      @........~..~..
    6728:	0000 0000 0000 0200 0804 2010 2040 0810     ........... @ ..
    6738:	0204 0000 0000 3c00 4242 2046 1010 0010     .......<BBF ....
    6748:	1818 0000 0000 1c00 5a22 5555 5555 3a55     ........"ZUUUUU:
    6758:	3c42 0000 0000 0800 1808 1414 3c24 4222     B<..........$<"B
    6768:	e742 0000 0000 1f00 2222 1e22 4222 4242     B......."""."BBB
    6778:	1f22 0000 0000 7c00 4242 0101 0101 4201     "......|BB.....B
    6788:	1c22 0000 0000 1f00 4222 4242 4242 4242     "......."BBBBBBB
    6798:	1f22 0000 0000 3f00 1242 1e12 1212 4202     "......?B......B
    67a8:	3f42 0000 0000 3f00 1242 1e12 1212 0202     B?.....?B.......
    67b8:	0702 0000 0000 3c00 2222 0101 7101 2221     .......<""...q!"
    67c8:	1c22 0000 0000 e700 4242 4242 427e 4242     ".......BBBB~BBB
    67d8:	e742 0000 0000 3e00 0808 0808 0808 0808     B......>........
    67e8:	3e08 0000 0000 7c00 1010 1010 1010 1010     .>.....|........
    67f8:	1010 0f11 0000 7700 1222 0e0a 120a 2212     .......w"......"
    6808:	7722 0000 0000 0700 0202 0202 0202 0202     "w..............
    6818:	7f42 0000 0000 7700 3636 3636 2a36 2a2a     B......w66666***
    6828:	6b2a 0000 0000 e300 4646 4a4a 5252 6252     *k......FFJJRRRb
    6838:	4762 0000 0000 1c00 4122 4141 4141 4141     bG......"AAAAAAA
    6848:	1c22 0000 0000 3f00 4242 4242 023e 0202     "......?BBBB>...
    6858:	0702 0000 0000 1c00 4122 4141 4141 4d41     ........"AAAAAAM
    6868:	1c32 0060 0000 3f00 4242 3e42 1212 2222     2.`....?BBB>..""
    6878:	c742 0000 0000 7c00 4242 0402 2018 4240     B......|BB... @B
    6888:	3e42 0000 0000 7f00 0849 0808 0808 0808     B>......I.......
    6898:	1c08 0000 0000 e700 4242 4242 4242 4242     ........BBBBBBBB
    68a8:	3c42 0000 0000 e700 4242 2422 1424 1814     B<......BB"$$...
    68b8:	0808 0000 0000 6b00 2a2a 2a2a 362a 1414     .......k*****6..
    68c8:	1414 0000 0000 e700 2442 1824 1818 2424     ........B$$...$$
    68d8:	e742 0000 0000 7700 2222 1414 0808 0808     B......w""......
    68e8:	1c08 0000 0000 7e00 2021 1010 0408 4204     .......~! .....B
    68f8:	3f42 0000 7800 0808 0808 0808 0808 0808     B?...x..........
    6908:	0808 0078 0000 0402 0404 0808 1008 2010     ..x............ 
    6918:	2020 4040 1e00 1010 1010 1010 1010 1010       @@............
    6928:	1010 001e 1800 0024 0000 0000 0000 0000     ......$.........
	...
    6948:	0000 ff00 0600 0008 0000 0000 0000 0000     ................
	...
    6960:	0000 1c00 3022 222c 6c32 0000 0000 0000     ...."0,"2l......
    6970:	0203 1a02 4226 4242 1a26 0000 0000 0000     ....&BBB&.......
    6980:	0000 3800 0244 0202 3844 0000 0000 0000     ...8D...D8......
    6990:	4060 7c40 4242 4242 dc62 0000 0000 0000     `@@|BBBBb.......
    69a0:	0000 3c00 4242 027e 3c42 0000 0000 0000     ...<BB~.B<......
    69b0:	4830 3e08 0808 0808 3e08 0000 0000 0000     0H.>.....>......
    69c0:	0000 7c00 2222 021c 423c 3c42 0000 0000     ...|""..<BB<....
    69d0:	0203 3a02 4246 4242 e742 0000 0000 0c00     ...:FBBBB.......
    69e0:	000c 0e00 0808 0808 3e08 0000 0000 3000     .........>.....0
    69f0:	0030 3800 2020 2020 2020 1e22 0000 0000     0..8      ".....
    6a00:	0203 7202 0a12 120e 7722 0000 0000 0800     ...r...."w......
    6a10:	080e 0808 0808 0808 3e08 0000 0000 0000     .........>......
    6a20:	0000 7f00 9292 9292 b792 0000 0000 0000     ................
    6a30:	0000 3b00 4246 4242 e742 0000 0000 0000     ...;FBBBB.......
    6a40:	0000 3c00 4242 4242 3c42 0000 0000 0000     ...<BBBBB<......
    6a50:	0000 1b00 4226 4242 1a26 0702 0000 0000     ....&BBB&.......
    6a60:	0000 5800 4264 4242 5864 e040 0000 0000     ...XdBBBdX@.....
    6a70:	0000 7700 044c 0404 1f04 0000 0000 0000     ...wL...........
    6a80:	0000 7c00 0242 403c 3e42 0000 0000 0000     ...|B.<@B>......
    6a90:	0800 3e08 0808 0808 3048 0000 0000 0000     ...>....H0......
    6aa0:	0000 6300 4242 4242 dc62 0000 0000 0000     ...cBBBBb.......
    6ab0:	0000 7700 2222 1414 0808 0000 0000 0000     ...w""..........
    6ac0:	0000 db00 5291 2a5a 2424 0000 0000 0000     .....RZ*$$......
    6ad0:	0000 6e00 1824 1818 7624 0000 0000 0000     ...n$...$v......
    6ae0:	0000 e700 2442 1824 0818 0608 0000 0000     ....B$$.........
    6af0:	0000 7e00 1022 0808 7e44 0000 c000 2020     ...~"...D~....  
    6b00:	2020 2020 2010 2020 2020 00c0 1010 1010         .     ......
    6b10:	1010 1010 1010 1010 1010 1010 0300 0404     ................
    6b20:	0404 0404 0408 0404 0404 0003 5a04 0020     .............Z .
	...

00006b3c <GPION>:
    6b3c:	0800 4001 0c00 4001 1000 4001 1400 4001     ...@...@...@...@

00006b4c <TIMERN>:
    6b4c:	2c00 4001 0000 4000 0400 4000 0800 4000     .,.@...@...@...@

00006b5c <__func__.3348>:
    6b5c:	7073 5f69 7067 6f69 695f 696e 0074 0000     spi_gpio_init...

00006b6c <UARTN>:
    6b6c:	3800 4001 4400 4000 4800 4000 4c00 4000     .8.@.D.@.H.@.L.@
    6b7c:	e17c ffff e0ce ffff e0ce ffff e0cc ffff     |...............
    6b8c:	e0d2 ffff e0d2 ffff e0a2 ffff e0cc ffff     ................
    6b9c:	e0d2 ffff e0a2 ffff e0d2 ffff e0cc ffff     ................
    6bac:	e16a ffff e16a ffff e16a ffff e0a2 ffff     j...j...j.......

00006bbc <__clz_tab>:
    6bbc:	0100 0202 0303 0303 0404 0404 0404 0404     ................
    6bcc:	0505 0505 0505 0505 0505 0505 0505 0505     ................
    6bdc:	0606 0606 0606 0606 0606 0606 0606 0606     ................
    6bec:	0606 0606 0606 0606 0606 0606 0606 0606     ................
    6bfc:	0707 0707 0707 0707 0707 0707 0707 0707     ................
    6c0c:	0707 0707 0707 0707 0707 0707 0707 0707     ................
    6c1c:	0707 0707 0707 0707 0707 0707 0707 0707     ................
    6c2c:	0707 0707 0707 0707 0707 0707 0707 0707     ................
    6c3c:	0808 0808 0808 0808 0808 0808 0808 0808     ................
    6c4c:	0808 0808 0808 0808 0808 0808 0808 0808     ................
    6c5c:	0808 0808 0808 0808 0808 0808 0808 0808     ................
    6c6c:	0808 0808 0808 0808 0808 0808 0808 0808     ................
    6c7c:	0808 0808 0808 0808 0808 0808 0808 0808     ................
    6c8c:	0808 0808 0808 0808 0808 0808 0808 0808     ................
    6c9c:	0808 0808 0808 0808 0808 0808 0808 0808     ................
    6cac:	0808 0808 0808 0808 0808 0808 0808 0808     ................
    6cbc:	202c 7566 636e 6974 6e6f 203a 0000 0000     , function: ....
    6ccc:	7361 6573 7472 6f69 206e 2522 2273 6620     assertion "%s" f
    6cdc:	6961 656c 3a64 6620 6c69 2065 2522 2273     ailed: file "%s"
    6cec:	202c 696c 656e 2520 2564 2573 0a73 0000     , line %d%s%s...
    6cfc:	2d23 2b30 0020 0000 6c68 004c 6665 4567     #-0+ ...hlL.efgE
    6d0c:	4746 0000 3130 3332 3534 3736 3938 4241     FG..0123456789AB
    6d1c:	4443 4645 0000 0000 3130 3332 3534 3736     CDEF....01234567
    6d2c:	3938 6261 6463 6665 0000 0000               89abcdef....

00006d38 <__sf_fake_stderr>:
	...

00006d58 <__sf_fake_stdin>:
	...

00006d78 <__sf_fake_stdout>:
	...
