
MASTER.elf:     file format elf32-littleriscv
MASTER.elf
architecture: riscv:rv32, flags 0x00000112:
EXEC_P, HAS_SYMS, D_PAGED
start address 0x00000000

Program Header:
    LOAD off    0x00001000 vaddr 0x00000000 paddr 0x00000000 align 2**12
         filesz 0x00006d68 memsz 0x00006d68 flags r-x
    LOAD off    0x00008000 vaddr 0x20000000 paddr 0x00006d68 align 2**12
         filesz 0x00000088 memsz 0x000001a4 flags rw-
    LOAD off    0x00008800 vaddr 0x20004800 paddr 0x20004800 align 2**12
         filesz 0x00000000 memsz 0x00000800 flags rw-

Sections:
Idx Name           Size      VMA       LMA       File off  Algn  Flags
  0 .init          00000038  00000000  00000000  00001000  2**1  CONTENTS, ALLOC, LOAD, READONLY, CODE
  1 .vector        00000108  00000038  00000038  00001038  2**1  CONTENTS, ALLOC, LOAD, READONLY, CODE
  2 .text          00006c28  00000140  00000140  00001140  2**2  CONTENTS, ALLOC, LOAD, READONLY, CODE
  3 .fini          00000000  00006d68  00006d68  00008088  2**0  CONTENTS, ALLOC, LOAD, CODE
  4 .dalign        00000000  20000000  20000000  00008088  2**0  CONTENTS
  5 .dlalign       00000000  00006d68  00006d68  00008088  2**0  CONTENTS
  6 .data          00000088  20000000  00006d68  00008000  2**2  CONTENTS, ALLOC, LOAD, DATA
  7 .bss           0000011c  20000088  00006df0  00008088  2**2  ALLOC
  8 .stack         00000800  20004800  20004800  00008800  2**0  ALLOC
  9 .debug_info    000184b8  00000000  00000000  00008088  2**0  CONTENTS, READONLY, DEBUGGING
 10 .debug_abbrev  00003c1a  00000000  00000000  00020540  2**0  CONTENTS, READONLY, DEBUGGING
 11 .debug_aranges 00000d18  00000000  00000000  00024160  2**3  CONTENTS, READONLY, DEBUGGING
 12 .debug_ranges  00000b68  00000000  00000000  00024e78  2**3  CONTENTS, READONLY, DEBUGGING
 13 .debug_line    0000d619  00000000  00000000  000259e0  2**0  CONTENTS, READONLY, DEBUGGING
 14 .debug_str     00004086  00000000  00000000  00032ff9  2**0  CONTENTS, READONLY, DEBUGGING
 15 .comment       00000033  00000000  00000000  0003707f  2**0  CONTENTS, READONLY
 16 .debug_frame   00003a34  00000000  00000000  000370b4  2**2  CONTENTS, READONLY, DEBUGGING
 17 .stab          000000b4  00000000  00000000  0003aae8  2**2  CONTENTS, READONLY, DEBUGGING
 18 .stabstr       00000183  00000000  00000000  0003ab9c  2**0  CONTENTS, READONLY, DEBUGGING
SYMBOL TABLE:
00000000 l    d  .init	00000000 .init
00000038 l    d  .vector	00000000 .vector
00000140 l    d  .text	00000000 .text
00006d68 l    d  .fini	00000000 .fini
20000000 l    d  .dalign	00000000 .dalign
00006d68 l    d  .dlalign	00000000 .dlalign
20000000 l    d  .data	00000000 .data
20000088 l    d  .bss	00000000 .bss
20004800 l    d  .stack	00000000 .stack
00000000 l    d  .debug_info	00000000 .debug_info
00000000 l    d  .debug_abbrev	00000000 .debug_abbrev
00000000 l    d  .debug_aranges	00000000 .debug_aranges
00000000 l    d  .debug_ranges	00000000 .debug_ranges
00000000 l    d  .debug_line	00000000 .debug_line
00000000 l    d  .debug_str	00000000 .debug_str
00000000 l    d  .comment	00000000 .comment
00000000 l    d  .debug_frame	00000000 .debug_frame
00000000 l    d  .stab	00000000 .stab
00000000 l    d  .stabstr	00000000 .stabstr
00000000 l    df *ABS*	00000000 ./Libraries/wch_libraries/Startup/startup_ch32v10x.o
00000038 l       .vector	00000000 _vector_base
00000000 l    df *ABS*	00000000 isr.c
00000000 l    df *ABS*	00000000 main.c
200000a2 l     O .bss	00000001 uart_num.5977
00000000 l    df *ABS*	00000000 ch32v10x_dma.c
00000000 l    df *ABS*	00000000 ch32v10x_exti.c
00000000 l    df *ABS*	00000000 ch32v10x_gpio.c
00000000 l    df *ABS*	00000000 ch32v10x_misc.c
000011ce l     F .text	00000032 NVIC_EnableIRQ
00001200 l     F .text	00000032 NVIC_DisableIRQ
00001232 l     F .text	0000002a NVIC_SetPriority
00000000 l    df *ABS*	00000000 ch32v10x_rcc.c
20000000 l     O .data	00000010 APBAHBPrescTable
20000070 l     O .data	00000004 ADCPrescTable
00000000 l    df *ABS*	00000000 ch32v10x_spi.c
00000000 l    df *ABS*	00000000 ch32v10x_tim.c
00000000 l    df *ABS*	00000000 ch32v10x_usart.c
00000000 l    df *ABS*	00000000 SEEKFREE_IPS114_SPI.c
00000000 l    df *ABS*	00000000 SEEKFREE_MT9V03X.c
00000000 l    df *ABS*	00000000 SEEKFREE_UART_7725.c
00000000 l    df *ABS*	00000000 zf_gpio.c
00000000 l    df *ABS*	00000000 zf_nvic.c
00000000 l    df *ABS*	00000000 zf_pwm.c
00000000 l    df *ABS*	00000000 zf_qtimer.c
00000000 l    df *ABS*	00000000 zf_spi.c
00006b2c l     O .text	0000000e __func__.3348
00000000 l    df *ABS*	00000000 zf_systick.c
00000000 l    df *ABS*	00000000 zf_uart.c
00000000 l    df *ABS*	00000000 board.c
00000000 l    df *ABS*	00000000 clock_config.c
00004552 l     F .text	00000140 SetSysClock
00000000 l    df *ABS*	00000000 Motor.c
00000000 l    df *ABS*	00000000 PID.c
00000000 l    df *ABS*	00000000 shangweiji.c
00000000 l    df *ABS*	00000000 addsf3.c
00000000 l    df *ABS*	00000000 gesf2.c
00000000 l    df *ABS*	00000000 lesf2.c
00000000 l    df *ABS*	00000000 mulsf3.c
00000000 l    df *ABS*	00000000 subsf3.c
00000000 l    df *ABS*	00000000 fixsfsi.c
00000000 l    df *ABS*	00000000 floatsisf.c
00000000 l    df *ABS*	00000000 libgcc2.c
00000000 l    df *ABS*	00000000 assert.c
00000000 l    df *ABS*	00000000 fprintf.c
00000000 l    df *ABS*	00000000 nano-vfprintf.c
000058e2 l     F .text	00000028 __sfputc_r
00000000 l    df *ABS*	00000000 nano-vfprintf_i.c
00000000 l    df *ABS*	00000000 wbuf.c
00000000 l    df *ABS*	00000000 wsetup.c
00000000 l    df *ABS*	00000000 abort.c
00000000 l    df *ABS*	00000000 fflush.c
00000000 l    df *ABS*	00000000 findfp.c
0000631a l     F .text	0000006a std
00000000 l    df *ABS*	00000000 fwalk.c
00000000 l    df *ABS*	00000000 makebuf.c
00000000 l    df *ABS*	00000000 memchr.c
00000000 l    df *ABS*	00000000 nano-mallocr.c
00000000 l    df *ABS*	00000000 nano-mallocr.c
00000000 l    df *ABS*	00000000 sbrkr.c
00000000 l    df *ABS*	00000000 signal.c
00000000 l    df *ABS*	00000000 signalr.c
00000000 l    df *ABS*	00000000 stdio.c
00000000 l    df *ABS*	00000000 writer.c
00000000 l    df *ABS*	00000000 closer.c
00000000 l    df *ABS*	00000000 fstatr.c
00000000 l    df *ABS*	00000000 isattyr.c
00000000 l    df *ABS*	00000000 lseekr.c
00000000 l    df *ABS*	00000000 mlock.c
00000000 l    df *ABS*	00000000 readr.c
00000000 l    df *ABS*	00000000 close.c
00000000 l    df *ABS*	00000000 fstat.c
00000000 l    df *ABS*	00000000 getpid.c
00000000 l    df *ABS*	00000000 isatty.c
00000000 l    df *ABS*	00000000 kill.c
00000000 l    df *ABS*	00000000 lseek.c
00000000 l    df *ABS*	00000000 read.c
00000000 l    df *ABS*	00000000 sbrk.c
200000c0 l     O .bss	00000004 heap_end.1518
00000000 l    df *ABS*	00000000 _exit.c
00000000 l    df *ABS*	00000000 libgcc2.c
00000000 l    df *ABS*	00000000 impure.c
20000010 l     O .data	00000060 impure_data
00000000 l    df *ABS*	00000000 common.c
00000000 l    df *ABS*	00000000 reent.c
00001e32 g     F .text	0000003c TIM_TimeBaseStructInit
00000232 g     F .text	00000016 EXTI2_IRQHandler
000069ca g     F .text	00000028 _isatty_r
00002bdc g     F .text	00000084 ips114_set_region
00006a66 g     F .text	0000000c _getpid
000069f2 g     F .text	0000002c _lseek_r
2000008a g     O .bss	00000002 slave_encoder_left
00003092 g     F .text	00000080 gpio_interrupt_init
00006864 g     F .text	0000002a _kill_r
20000870 g       .data	00000000 __global_pointer$
00000354 g     F .text	00000090 TIM1_CC_IRQHandler
0000690e g     F .text	00000036 __sseek
000063d4 g     F .text	0000006c __sinit
00005f9e g     F .text	000000c0 __swbuf_r
00000530 g     F .text	00000008 HardFault_Handler
0000638e g     F .text	00000046 __sfmoreglue
00006a20 g     F .text	00000002 __malloc_unlock
000047a0 g     F .text	0000014a Duty_Single
00001ffe g     F .text	0000004c TIM_OC1PreloadConfig
0000125c g     F .text	000000c4 NVIC_Init
200000b4 g     O .bss	00000004 sys_clk
000048ea g     F .text	0000004a Duty_All
00000520 g     F .text	00000010 NMI_Handler
000056e4 g     F .text	00000062 .hidden __fixsfsi
20000134 g     O .bss	00000030 Pid_rl
00000248 g     F .text	00000010 EXTI3_IRQHandler
20000074 g     O .data	00000004 camera_type
000026d8 g     F .text	00000046 USART_GetFlagStatus
000069a0 g     F .text	0000002a _fstat_r
00006b1c g     O .text	00000010 TIMERN
20000104 g     O .bss	00000030 Pid_fr
200001a0 g     O .bss	00000004 errno
20000088 g       .bss	00000000 _sbss
00000800 g       *ABS*	00000000 __stack_size
200000c4 g     O .bss	0000000e temp_buff
0000535c g     F .text	00000388 .hidden __subsf3
20000088 g     O .bss	00000001 uart_flag
200000b1 g     O .bss	00000001 ov7725_uart_finish_flag
000009e0 g     F .text	00000026 Encoder_Init_Master
00001ec6 g     F .text	00000060 TIM_CtrlPWMOutputs
00006384 g     F .text	0000000a _cleanup_r
00000ff0 g     F .text	0000013c GPIO_PinRemapConfig
00000716 g     F .text	000002ca EXTI0_IRQHandler
00000538 g     F .text	00000086 get_slave_data
00001e6e g     F .text	00000058 TIM_Cmd
000020f0 g     F .text	0000005a TIM_OC4PreloadConfig
000026b2 g     F .text	00000026 USART_ReceiveData
2000008c g     O .bss	00000002 slave_encoder_right
000043fa g     F .text	00000048 uart_putbuff
000067f6 g     F .text	00000062 _raise_r
00006a5a g     F .text	0000000c _fstat
00003f26 g     F .text	00000136 spi_init
00005882 g     F .text	0000003a __assert_func
00000038 g       .init	00000000 _einit
000031cc g     F .text	00000028 sys_recover_irq
000022fe g     F .text	0000002e TIM_ClearITPendingBit
00005040 g     F .text	0000008c .hidden __lesf2
0000153a g     F .text	00000046 RCC_APB2PeriphClockCmd
00002d38 g     F .text	00000036 mt9v03x_vsync
00000288 g     F .text	00000010 ADC1_2_IRQHandler
0000688e g     F .text	00000002 _getpid_r
00000d8e g     F .text	0000022a GPIO_Init
00003112 g     F .text	00000098 nvic_init
00002560 g     F .text	00000060 USART_Cmd
000067ce g     F .text	00000028 _sbrk_r
00001b38 g     F .text	000001b0 TIM_OC3Init
00006a22 g     F .text	0000002c _read_r
00002820 g     F .text	0000004e USART_ClearITPendingBit
200000a0 g     O .bss	00000002 target_rr
2000007c g     O .data	00000008 SPIN
00001580 g     F .text	00000046 RCC_APB1PeriphClockCmd
2000009a g     O .bss	00000002 target_fl
00006a72 g     F .text	0000000c _isatty
00003a72 g     F .text	00000170 timer_gpio_quad_init
20000084 g     O .data	00000004 _global_impure_ptr
000005be g     F .text	0000010a data_analysis
000004d6 g     F .text	0000004a DMA1_Channel4_IRQHandler
2000008e g     O .bss	00000002 slave_position
000021ec g     F .text	0000004c TIM_OC3FastConfig
0000616a g     F .text	0000000e abort
00006aa2 g     F .text	00000020 _sbrk
20000096 g     O .bss	00000001 show_flag
00000b14 g     F .text	0000005c DMA_GetFlagStatus
000006c8 g     F .text	0000004e USART3_IRQHandler
00000d6e g     F .text	00000020 EXTI_ClearITPendingBit
200001a4 g       .bss	00000000 _ebss
0000271e g     F .text	00000102 USART_GetITStatus
00001812 g     F .text	00000170 TIM_OC1Init
000020a4 g     F .text	0000004c TIM_OC3PreloadConfig
00004934 g     F .text	00000078 PID_Init
00002982 g     F .text	0000025a ips114_init
00002c60 g     F .text	00000068 ips114_clear
00002912 g     F .text	00000070 ips114_writedata_16bit
0000411e g     F .text	00000094 systick_delay
00004fba g     F .text	00000086 .hidden __gtsf2
00002d9c g     F .text	00000070 ov7725_cof_uart_interrupt
00006b3c g     O .text	00000010 UARTN
000035bc g     F .text	000003c4 pwm_init
000058bc g     F .text	00000026 fprintf
0000043c g     F .text	00000030 TIM4_IRQHandler
00000fb8 g     F .text	00000038 GPIO_WriteBit
200000af g     O .bss	00000001 ov7725_uart_receive_num
00004710 g     F .text	00000090 Duty_Init
00006d08 g     O .text	00000020 __sf_fake_stderr
200001a4 g       .bss	00000000 end
00003be2 g     F .text	0000015e timer_quad_init
0000228e g     F .text	00000070 TIM_GetITStatus
00001320 g     F .text	0000021a RCC_GetClocksFreq
0000580c g     F .text	00000076 .hidden __clzsi2
0000590a g     F .text	00000044 __sfputs_r
0000429e g     F .text	00000106 uart_init
00006642 g     F .text	0000001a memchr
0000232c g     F .text	00000234 USART_Init
0000665c g     F .text	000000a4 _free_r
0000040c g     F .text	00000030 TIM3_IRQHandler
00003230 g     F .text	00000028 EnableGlobalIRQ
000041b2 g     F .text	000000ec uart_gpio_init
000002fc g     F .text	00000058 TIM1_TRG_COM_IRQHandler
0000214a g     F .text	0000004c TIM_OC1FastConfig
00002e42 g     F .text	0000002e ov7725_uart_dma
00000000 g       .init	00000000 _start
20000092 g     O .bss	00000002 master_encoder_right
00006a8a g     F .text	0000000c _lseek
200000b0 g     O .bss	00000001 ov7725_uart_receive_flag
0000204a g     F .text	0000005a TIM_OC2PreloadConfig
000031aa g     F .text	00000022 close_all_irq
00005746 g     F .text	000000c6 .hidden __floatsisf
00000278 g     F .text	00000010 EXTI15_10_IRQHandler
00006b0c g     O .text	00000010 GPION
00001982 g     F .text	000001b6 TIM_OC2Init
000025c0 g     F .text	000000c4 USART_ITConfig
00000ba8 g     F .text	00000170 EXTI_Init
2000009e g     O .bss	00000002 target_rl
00006978 g     F .text	00000028 _close_r
20000000 g       .dalign	00000000 _data_vma
00001ce8 g     F .text	0000014a TIM_OC4Init
0000286e g     F .text	00000052 ips114_writeIndex
0000605e g     F .text	0000010c __swsetup_r
00000268 g     F .text	00000010 EXTI9_5_IRQHandler
00006440 g     F .text	000000a0 __sfp
0000112c g     F .text	000000a2 GPIO_EXTILineConfig
00004492 g     F .text	00000048 board_init
00006890 g     F .text	00000030 __sread
00006a1e g     F .text	00000002 __malloc_lock
000062b4 g     F .text	00000066 _fflush_r
00000d18 g     F .text	00000056 EXTI_GetITStatus
00006d28 g     O .text	00000020 __sf_fake_stdin
00002d6e g     F .text	0000002e mt9v03x_dma
00000140 g     F .text	000000a8 memset
00000a06 g     F .text	00000094 main
00005040 g     F .text	0000008c .hidden __ltsf2
00006944 g     F .text	00000006 __sclose
00006700 g     F .text	000000ce _malloc_r
00002196 g     F .text	00000056 TIM_OC2FastConfig
00000258 g     F .text	00000010 EXTI4_IRQHandler
000050cc g     F .text	00000290 .hidden __mulsf3
000016be g     F .text	0000005a SPI_Cmd
000031f4 g     F .text	0000003c DisableGlobalIRQ
00004692 g     F .text	0000007e SystemInit
00006b8c g     O .text	00000100 .hidden __clz_tab
00000000 g       .init	00000000 _sinit
00004fba g     F .text	00000086 .hidden __gesf2
0000694a g     F .text	0000002e _write_r
200000a7 g     O .bss	00000001 receive_num
20000194 g     O .bss	0000000c irq_status
00005bee g     F .text	0000010c _printf_common
20000078 g     O .data	00000004 _impure_ptr
000002cc g     F .text	00000030 TIM1_UP_IRQHandler
200000a4 g     O .bss	00000003 receive
00006178 g     F .text	0000013c __sflush_r
00002e0c g     F .text	00000036 ov7725_uart_vsync
20000090 g     O .bss	00000002 master_encoder_left
000049ac g     F .text	00000136 PID_incCtrl
000003e4 g     F .text	00000028 TIM2_IRQHandler
20005000 g       .stack	00000000 _eusrstack
200000d4 g     O .bss	00000030 Pid_fl
200000a8 g     O .bss	00000001 uart_receive_flag
00003980 g     F .text	000000f2 pwm_duty
00002cc8 g     F .text	00000070 mt9v03x_uart_callback
200000a9 g     O .bss	00000001 mt9v03x_finish_flag
00000298 g     F .text	00000034 TIM1_BRK_IRQHandler
0000654c g     F .text	00000058 __swhatbuf_r
00002684 g     F .text	0000002e USART_SendData
000001e8 g     F .text	0000004a EXTI1_IRQHandler
000044da g     F .text	00000078 _write
20000088 g       .data	00000000 _edata
000028c0 g     F .text	00000052 ips114_writeData
00001718 g     F .text	000000fa TIM_TimeBaseInit
00006d68 g       .dlalign	00000000 _data_lma
0000047c g     F .text	0000005a USART2_IRQHandler
000068c0 g     F .text	0000004e __swrite
20000094 g     O .bss	00000002 track
000058bc g     F .text	00000026 fiprintf
0000594e g     F .text	000002a0 _vfiprintf_r
0000405c g     F .text	000000c2 spi_mosi
000064e0 g     F .text	0000006c _fwalk_reent
00006a7e g     F .text	0000000c _kill
00006d48 g     O .text	00000020 __sf_fake_stdout
00000b70 g     F .text	00000038 DMA_ClearFlag
00006a96 g     F .text	0000000c _read
00000a9a  w      .text	00000000 handle_reset
00004ae2 g     F .text	000000de CRC16
00003258 g     F .text	00000364 pwm_gpio_init
00006ac2 g     F .text	00000002 _exit
00003d40 g     F .text	00000032 timer_quad_get
00004bc0 g     F .text	00000090 OutPut_Data
20000164 g     O .bss	00000030 Pid_rr
0000046c g     F .text	00000010 USART1_IRQHandler
000065a4 g     F .text	0000009e __smakebuf_r
00005cfa g     F .text	000002a4 _printf_i
2000009c g     O .bss	00000002 target_fr
200000bc g     O .bss	00000004 __malloc_sbrk_start
00004442 g     F .text	00000050 uart_rx_irq
00003014 g     F .text	0000007e gpio_set
000015c6 g     F .text	000000f8 SPI_Init
00003d98 g     F .text	0000018e spi_gpio_init
00003d72 g     F .text	00000026 timer_quad_clear
00002e70 g     F .text	000001a4 gpio_init
200000b8 g     O .bss	00000004 __malloc_free_list
00001f26 g     F .text	000000d8 TIM_EncoderInterfaceConfig
0000594e g     F .text	000002a0 _vfprintf_r
00002238 g     F .text	00000056 TIM_OC4FastConfig
000043a4 g     F .text	00000056 uart_putchar
00004c50 g     F .text	0000036a .hidden __addsf3
200000ac g     O .bss	00000003 ov7725_uart_receive
20000098 g     O .bss	00000002 target
00006a4e g     F .text	0000000c _close
00006858 g     F .text	0000000c raise



Disassembly of section .init:

00000000 <_sinit>:
_start():
C:\Users\windows\Desktop\smart_car\MASTER\obj/../Libraries/wch_libraries/Startup/startup_ch32v10x.S:13

	.section	.init,"ax",@progbits
	.global	_start
	.align	1
_start:
	j	handle_reset
   0:	29b0006f          	j	a9a <handle_reset>
   4:	00000013          	nop
   8:	00000013          	nop
   c:	00000013          	nop
  10:	00000013          	nop
  14:	00000013          	nop
  18:	00000013          	nop
  1c:	00000013          	nop
  20:	00000013          	nop
  24:	00000013          	nop
  28:	00000013          	nop
  2c:	00000013          	nop
  30:	00000013          	nop
  34:	00100073          	ebreak

Disassembly of section .vector:

00000038 <_vector_base>:
_vector_base():
C:\Users\windows\Desktop\smart_car\MASTER\obj/../Libraries/wch_libraries/Startup/startup_ch32v10x.S:31
	.word 0x00100073
    .section    .vector,"ax",@progbits
    .align  1
_vector_base:
    .option norvc;
        j   _start
  38:	fc9ff06f          	j	0 <_sinit>
  3c:	0000                	unimp
  3e:	0000                	unimp
C:\Users\windows\Desktop\smart_car\MASTER\obj/../Libraries/wch_libraries/Startup/startup_ch32v10x.S:33
    .word   0
        j   NMI_Handler                 /* NMI Handler */
  40:	4e00006f          	j	520 <NMI_Handler>
C:\Users\windows\Desktop\smart_car\MASTER\obj/../Libraries/wch_libraries/Startup/startup_ch32v10x.S:34
        j   HardFault_Handler           /* Hard Fault Handler */
  44:	4ec0006f          	j	530 <HardFault_Handler>
	...
C:\Users\windows\Desktop\smart_car\MASTER\obj/../Libraries/wch_libraries/Startup/startup_ch32v10x.S:43
    .word   0
    .word   0
    .word   0
    .word   0
    .word   0
        j   SysTick_Handler            /* SysTick Handler */
  68:	f99ff06f          	j	0 <_sinit>
  6c:	0000                	unimp
  6e:	0000                	unimp
C:\Users\windows\Desktop\smart_car\MASTER\obj/../Libraries/wch_libraries/Startup/startup_ch32v10x.S:45
    .word   0
        j   SW_handler                 /* SW Handler */
  70:	f91ff06f          	j	0 <_sinit>
  74:	0000                	unimp
  76:	0000                	unimp
C:\Users\windows\Desktop\smart_car\MASTER\obj/../Libraries/wch_libraries/Startup/startup_ch32v10x.S:48
    .word   0
    /* External Interrupts */
        j   WWDG_IRQHandler            /* Window Watchdog */
  78:	f89ff06f          	j	0 <_sinit>
C:\Users\windows\Desktop\smart_car\MASTER\obj/../Libraries/wch_libraries/Startup/startup_ch32v10x.S:49
        j   PVD_IRQHandler             /* PVD through EXTI Line detect */
  7c:	f85ff06f          	j	0 <_sinit>
C:\Users\windows\Desktop\smart_car\MASTER\obj/../Libraries/wch_libraries/Startup/startup_ch32v10x.S:50
        j   TAMPER_IRQHandler          /* TAMPER */
  80:	f81ff06f          	j	0 <_sinit>
C:\Users\windows\Desktop\smart_car\MASTER\obj/../Libraries/wch_libraries/Startup/startup_ch32v10x.S:51
        j   RTC_IRQHandler             /* RTC */
  84:	f7dff06f          	j	0 <_sinit>
C:\Users\windows\Desktop\smart_car\MASTER\obj/../Libraries/wch_libraries/Startup/startup_ch32v10x.S:52
        j   FLASH_IRQHandler           /* Flash */
  88:	f79ff06f          	j	0 <_sinit>
C:\Users\windows\Desktop\smart_car\MASTER\obj/../Libraries/wch_libraries/Startup/startup_ch32v10x.S:53
        j   RCC_IRQHandler             /* RCC */
  8c:	f75ff06f          	j	0 <_sinit>
C:\Users\windows\Desktop\smart_car\MASTER\obj/../Libraries/wch_libraries/Startup/startup_ch32v10x.S:54
        j   EXTI0_IRQHandler           /* EXTI Line 0 */
  90:	6860006f          	j	716 <EXTI0_IRQHandler>
C:\Users\windows\Desktop\smart_car\MASTER\obj/../Libraries/wch_libraries/Startup/startup_ch32v10x.S:55
        j   EXTI1_IRQHandler           /* EXTI Line 1 */
  94:	1540006f          	j	1e8 <EXTI1_IRQHandler>
C:\Users\windows\Desktop\smart_car\MASTER\obj/../Libraries/wch_libraries/Startup/startup_ch32v10x.S:56
        j   EXTI2_IRQHandler           /* EXTI Line 2 */
  98:	19a0006f          	j	232 <EXTI2_IRQHandler>
C:\Users\windows\Desktop\smart_car\MASTER\obj/../Libraries/wch_libraries/Startup/startup_ch32v10x.S:57
        j   EXTI3_IRQHandler           /* EXTI Line 3 */
  9c:	1ac0006f          	j	248 <EXTI3_IRQHandler>
C:\Users\windows\Desktop\smart_car\MASTER\obj/../Libraries/wch_libraries/Startup/startup_ch32v10x.S:58
        j   EXTI4_IRQHandler           /* EXTI Line 4 */
  a0:	1b80006f          	j	258 <EXTI4_IRQHandler>
C:\Users\windows\Desktop\smart_car\MASTER\obj/../Libraries/wch_libraries/Startup/startup_ch32v10x.S:59
        j   DMA1_Channel1_IRQHandler   /* DMA1 Channel 1 */
  a4:	f5dff06f          	j	0 <_sinit>
C:\Users\windows\Desktop\smart_car\MASTER\obj/../Libraries/wch_libraries/Startup/startup_ch32v10x.S:60
        j   DMA1_Channel2_IRQHandler   /* DMA1 Channel 2 */
  a8:	f59ff06f          	j	0 <_sinit>
C:\Users\windows\Desktop\smart_car\MASTER\obj/../Libraries/wch_libraries/Startup/startup_ch32v10x.S:61
        j   DMA1_Channel3_IRQHandler   /* DMA1 Channel 3 */
  ac:	f55ff06f          	j	0 <_sinit>
C:\Users\windows\Desktop\smart_car\MASTER\obj/../Libraries/wch_libraries/Startup/startup_ch32v10x.S:62
        j   DMA1_Channel4_IRQHandler   /* DMA1 Channel 4 */
  b0:	4260006f          	j	4d6 <DMA1_Channel4_IRQHandler>
C:\Users\windows\Desktop\smart_car\MASTER\obj/../Libraries/wch_libraries/Startup/startup_ch32v10x.S:63
        j   DMA1_Channel5_IRQHandler   /* DMA1 Channel 5 */
  b4:	f4dff06f          	j	0 <_sinit>
C:\Users\windows\Desktop\smart_car\MASTER\obj/../Libraries/wch_libraries/Startup/startup_ch32v10x.S:64
        j   DMA1_Channel6_IRQHandler   /* DMA1 Channel 6 */
  b8:	f49ff06f          	j	0 <_sinit>
C:\Users\windows\Desktop\smart_car\MASTER\obj/../Libraries/wch_libraries/Startup/startup_ch32v10x.S:65
        j   DMA1_Channel7_IRQHandler   /* DMA1 Channel 7 */
  bc:	f45ff06f          	j	0 <_sinit>
C:\Users\windows\Desktop\smart_car\MASTER\obj/../Libraries/wch_libraries/Startup/startup_ch32v10x.S:66
        j   ADC1_2_IRQHandler          /* ADC1_2 */
  c0:	1c80006f          	j	288 <ADC1_2_IRQHandler>
	...
C:\Users\windows\Desktop\smart_car\MASTER\obj/../Libraries/wch_libraries/Startup/startup_ch32v10x.S:71
        .word   0
        .word   0
        .word   0
        .word   0
        j   EXTI9_5_IRQHandler         /* EXTI Line 9..5 */
  d4:	1940006f          	j	268 <EXTI9_5_IRQHandler>
C:\Users\windows\Desktop\smart_car\MASTER\obj/../Libraries/wch_libraries/Startup/startup_ch32v10x.S:72
        j   TIM1_BRK_IRQHandler        /* TIM1 Break */
  d8:	1c00006f          	j	298 <TIM1_BRK_IRQHandler>
C:\Users\windows\Desktop\smart_car\MASTER\obj/../Libraries/wch_libraries/Startup/startup_ch32v10x.S:73
        j   TIM1_UP_IRQHandler         /* TIM1 Update */
  dc:	1f00006f          	j	2cc <TIM1_UP_IRQHandler>
C:\Users\windows\Desktop\smart_car\MASTER\obj/../Libraries/wch_libraries/Startup/startup_ch32v10x.S:74
        j   TIM1_TRG_COM_IRQHandler    /* TIM1 Trigger and Commutation */
  e0:	21c0006f          	j	2fc <TIM1_TRG_COM_IRQHandler>
C:\Users\windows\Desktop\smart_car\MASTER\obj/../Libraries/wch_libraries/Startup/startup_ch32v10x.S:75
        j   TIM1_CC_IRQHandler         /* TIM1 Capture Compare */
  e4:	2700006f          	j	354 <TIM1_CC_IRQHandler>
C:\Users\windows\Desktop\smart_car\MASTER\obj/../Libraries/wch_libraries/Startup/startup_ch32v10x.S:76
        j   TIM2_IRQHandler            /* TIM2 */
  e8:	2fc0006f          	j	3e4 <TIM2_IRQHandler>
C:\Users\windows\Desktop\smart_car\MASTER\obj/../Libraries/wch_libraries/Startup/startup_ch32v10x.S:77
        j   TIM3_IRQHandler            /* TIM3 */
  ec:	3200006f          	j	40c <TIM3_IRQHandler>
C:\Users\windows\Desktop\smart_car\MASTER\obj/../Libraries/wch_libraries/Startup/startup_ch32v10x.S:78
        j   TIM4_IRQHandler            /* TIM4 */
  f0:	34c0006f          	j	43c <TIM4_IRQHandler>
C:\Users\windows\Desktop\smart_car\MASTER\obj/../Libraries/wch_libraries/Startup/startup_ch32v10x.S:79
        j   I2C1_EV_IRQHandler         /* I2C1 Event */
  f4:	f0dff06f          	j	0 <_sinit>
C:\Users\windows\Desktop\smart_car\MASTER\obj/../Libraries/wch_libraries/Startup/startup_ch32v10x.S:80
        j   I2C1_ER_IRQHandler         /* I2C1 Error */
  f8:	f09ff06f          	j	0 <_sinit>
C:\Users\windows\Desktop\smart_car\MASTER\obj/../Libraries/wch_libraries/Startup/startup_ch32v10x.S:81
        j   I2C2_EV_IRQHandler         /* I2C2 Event */
  fc:	f05ff06f          	j	0 <_sinit>
C:\Users\windows\Desktop\smart_car\MASTER\obj/../Libraries/wch_libraries/Startup/startup_ch32v10x.S:82
        j   I2C2_ER_IRQHandler         /* I2C2 Error */
 100:	f01ff06f          	j	0 <_sinit>
C:\Users\windows\Desktop\smart_car\MASTER\obj/../Libraries/wch_libraries/Startup/startup_ch32v10x.S:83
        j   SPI1_IRQHandler            /* SPI1 */
 104:	efdff06f          	j	0 <_sinit>
C:\Users\windows\Desktop\smart_car\MASTER\obj/../Libraries/wch_libraries/Startup/startup_ch32v10x.S:84
        j   SPI2_IRQHandler            /* SPI2 */
 108:	ef9ff06f          	j	0 <_sinit>
C:\Users\windows\Desktop\smart_car\MASTER\obj/../Libraries/wch_libraries/Startup/startup_ch32v10x.S:85
        j   USART1_IRQHandler          /* USART1 */
 10c:	3600006f          	j	46c <USART1_IRQHandler>
C:\Users\windows\Desktop\smart_car\MASTER\obj/../Libraries/wch_libraries/Startup/startup_ch32v10x.S:86
        j   USART2_IRQHandler          /* USART2 */
 110:	36c0006f          	j	47c <USART2_IRQHandler>
C:\Users\windows\Desktop\smart_car\MASTER\obj/../Libraries/wch_libraries/Startup/startup_ch32v10x.S:87
        j   USART3_IRQHandler          /* USART3 */
 114:	5b40006f          	j	6c8 <USART3_IRQHandler>
C:\Users\windows\Desktop\smart_car\MASTER\obj/../Libraries/wch_libraries/Startup/startup_ch32v10x.S:88
        j   EXTI15_10_IRQHandler       /* EXTI Line 15..10 */
 118:	1600006f          	j	278 <EXTI15_10_IRQHandler>
C:\Users\windows\Desktop\smart_car\MASTER\obj/../Libraries/wch_libraries/Startup/startup_ch32v10x.S:89
        j   RTCAlarm_IRQHandler        /* RTC Alarm through EXTI Line */
 11c:	ee5ff06f          	j	0 <_sinit>
C:\Users\windows\Desktop\smart_car\MASTER\obj/../Libraries/wch_libraries/Startup/startup_ch32v10x.S:90
        j   USBWakeUp_IRQHandler       /* USB Wakeup from suspend */
 120:	ee1ff06f          	j	0 <_sinit>
C:\Users\windows\Desktop\smart_car\MASTER\obj/../Libraries/wch_libraries/Startup/startup_ch32v10x.S:91
        j   USBHD_IRQHandler           /* USBHD */
 124:	eddff06f          	j	0 <_sinit>
	...

Disassembly of section .text:

00000140 <memset>:
memset():
     140:	433d                	li	t1,15
     142:	872a                	mv	a4,a0
     144:	02c37363          	bgeu	t1,a2,16a <memset+0x2a>
     148:	00f77793          	andi	a5,a4,15
     14c:	efbd                	bnez	a5,1ca <memset+0x8a>
     14e:	e5ad                	bnez	a1,1b8 <memset+0x78>
     150:	ff067693          	andi	a3,a2,-16
     154:	8a3d                	andi	a2,a2,15
     156:	96ba                	add	a3,a3,a4
     158:	c30c                	sw	a1,0(a4)
     15a:	c34c                	sw	a1,4(a4)
     15c:	c70c                	sw	a1,8(a4)
     15e:	c74c                	sw	a1,12(a4)
     160:	0741                	addi	a4,a4,16
     162:	fed76be3          	bltu	a4,a3,158 <memset+0x18>
     166:	e211                	bnez	a2,16a <memset+0x2a>
     168:	8082                	ret
     16a:	40c306b3          	sub	a3,t1,a2
     16e:	068a                	slli	a3,a3,0x2
     170:	00000297          	auipc	t0,0x0
     174:	9696                	add	a3,a3,t0
     176:	00a68067          	jr	10(a3)
     17a:	00b70723          	sb	a1,14(a4)
     17e:	00b706a3          	sb	a1,13(a4)
     182:	00b70623          	sb	a1,12(a4)
     186:	00b705a3          	sb	a1,11(a4)
     18a:	00b70523          	sb	a1,10(a4)
     18e:	00b704a3          	sb	a1,9(a4)
     192:	00b70423          	sb	a1,8(a4)
     196:	00b703a3          	sb	a1,7(a4)
     19a:	00b70323          	sb	a1,6(a4)
     19e:	00b702a3          	sb	a1,5(a4)
     1a2:	00b70223          	sb	a1,4(a4)
     1a6:	00b701a3          	sb	a1,3(a4)
     1aa:	00b70123          	sb	a1,2(a4)
     1ae:	00b700a3          	sb	a1,1(a4)
     1b2:	00b70023          	sb	a1,0(a4)
     1b6:	8082                	ret
     1b8:	0ff5f593          	andi	a1,a1,255
     1bc:	00859693          	slli	a3,a1,0x8
     1c0:	8dd5                	or	a1,a1,a3
     1c2:	01059693          	slli	a3,a1,0x10
     1c6:	8dd5                	or	a1,a1,a3
     1c8:	b761                	j	150 <memset+0x10>
     1ca:	00279693          	slli	a3,a5,0x2
     1ce:	00000297          	auipc	t0,0x0
     1d2:	9696                	add	a3,a3,t0
     1d4:	8286                	mv	t0,ra
     1d6:	fa8680e7          	jalr	-88(a3)
     1da:	8096                	mv	ra,t0
     1dc:	17c1                	addi	a5,a5,-16
     1de:	8f1d                	sub	a4,a4,a5
     1e0:	963e                	add	a2,a2,a5
     1e2:	f8c374e3          	bgeu	t1,a2,16a <memset+0x2a>
     1e6:	b7a5                	j	14e <memset+0xe>

000001e8 <EXTI1_IRQHandler>:
EXTI1_IRQHandler():
C:\Users\windows\Desktop\smart_car\MASTER\obj/../USER/isr.c:69
//
//
//}

void EXTI1_IRQHandler(void)
{
     1e8:	1141                	addi	sp,sp,-16
     1ea:	c622                	sw	s0,12(sp)
     1ec:	0800                	addi	s0,sp,16
C:\Users\windows\Desktop\smart_car\MASTER\obj/../USER/isr.c:70
    if(SET == EXTI_GetITStatus(EXTI_Line1))
     1ee:	4509                	li	a0,2
     1f0:	329000ef          	jal	ra,d18 <EXTI_GetITStatus>
     1f4:	872a                	mv	a4,a0
     1f6:	4785                	li	a5,1
     1f8:	02f71863          	bne	a4,a5,228 <EXTI1_IRQHandler+0x40>
C:\Users\windows\Desktop\smart_car\MASTER\obj/../USER/isr.c:72
    {
        if(camera_type == CAMERA_BIN_UART)
     1fc:	200007b7          	lui	a5,0x20000
     200:	0747a703          	lw	a4,116(a5) # 20000074 <camera_type>
     204:	4789                	li	a5,2
     206:	00f71563          	bne	a4,a5,210 <EXTI1_IRQHandler+0x28>
C:\Users\windows\Desktop\smart_car\MASTER\obj/../USER/isr.c:73
            ov7725_uart_vsync();
     20a:	403020ef          	jal	ra,2e0c <ov7725_uart_vsync>
     20e:	a811                	j	222 <EXTI1_IRQHandler+0x3a>
C:\Users\windows\Desktop\smart_car\MASTER\obj/../USER/isr.c:74
        else if(camera_type == CAMERA_GRAYSCALE)
     210:	200007b7          	lui	a5,0x20000
     214:	0747a703          	lw	a4,116(a5) # 20000074 <camera_type>
     218:	4785                	li	a5,1
     21a:	00f71463          	bne	a4,a5,222 <EXTI1_IRQHandler+0x3a>
C:\Users\windows\Desktop\smart_car\MASTER\obj/../USER/isr.c:75
            mt9v03x_vsync();
     21e:	31b020ef          	jal	ra,2d38 <mt9v03x_vsync>
C:\Users\windows\Desktop\smart_car\MASTER\obj/../USER/isr.c:76
        EXTI_ClearITPendingBit(EXTI_Line1);
     222:	4509                	li	a0,2
     224:	34b000ef          	jal	ra,d6e <EXTI_ClearITPendingBit>
C:\Users\windows\Desktop\smart_car\MASTER\obj/../USER/isr.c:79
    }

}
     228:	0001                	nop
     22a:	4432                	lw	s0,12(sp)
     22c:	0141                	addi	sp,sp,16
     22e:	30200073          	mret

00000232 <EXTI2_IRQHandler>:
EXTI2_IRQHandler():
C:\Users\windows\Desktop\smart_car\MASTER\obj/../USER/isr.c:82

void EXTI2_IRQHandler(void)
{
     232:	1141                	addi	sp,sp,-16
     234:	c622                	sw	s0,12(sp)
     236:	0800                	addi	s0,sp,16
C:\Users\windows\Desktop\smart_car\MASTER\obj/../USER/isr.c:83
    EXTI_ClearITPendingBit(EXTI_Line2);
     238:	4511                	li	a0,4
     23a:	335000ef          	jal	ra,d6e <EXTI_ClearITPendingBit>
C:\Users\windows\Desktop\smart_car\MASTER\obj/../USER/isr.c:84
}
     23e:	0001                	nop
     240:	4432                	lw	s0,12(sp)
     242:	0141                	addi	sp,sp,16
     244:	30200073          	mret

00000248 <EXTI3_IRQHandler>:
EXTI3_IRQHandler():
C:\Users\windows\Desktop\smart_car\MASTER\obj/../USER/isr.c:87

void EXTI3_IRQHandler(void)
{
     248:	1141                	addi	sp,sp,-16
     24a:	c622                	sw	s0,12(sp)
     24c:	0800                	addi	s0,sp,16
C:\Users\windows\Desktop\smart_car\MASTER\obj/../USER/isr.c:90


}
     24e:	0001                	nop
     250:	4432                	lw	s0,12(sp)
     252:	0141                	addi	sp,sp,16
     254:	30200073          	mret

00000258 <EXTI4_IRQHandler>:
EXTI4_IRQHandler():
C:\Users\windows\Desktop\smart_car\MASTER\obj/../USER/isr.c:93

void EXTI4_IRQHandler(void)
{
     258:	1141                	addi	sp,sp,-16
     25a:	c622                	sw	s0,12(sp)
     25c:	0800                	addi	s0,sp,16
C:\Users\windows\Desktop\smart_car\MASTER\obj/../USER/isr.c:96


}
     25e:	0001                	nop
     260:	4432                	lw	s0,12(sp)
     262:	0141                	addi	sp,sp,16
     264:	30200073          	mret

00000268 <EXTI9_5_IRQHandler>:
EXTI9_5_IRQHandler():
C:\Users\windows\Desktop\smart_car\MASTER\obj/../USER/isr.c:99

void EXTI9_5_IRQHandler(void)
{
     268:	1141                	addi	sp,sp,-16
     26a:	c622                	sw	s0,12(sp)
     26c:	0800                	addi	s0,sp,16
C:\Users\windows\Desktop\smart_car\MASTER\obj/../USER/isr.c:102


}
     26e:	0001                	nop
     270:	4432                	lw	s0,12(sp)
     272:	0141                	addi	sp,sp,16
     274:	30200073          	mret

00000278 <EXTI15_10_IRQHandler>:
EXTI15_10_IRQHandler():
C:\Users\windows\Desktop\smart_car\MASTER\obj/../USER/isr.c:105

void EXTI15_10_IRQHandler(void)
{
     278:	1141                	addi	sp,sp,-16
     27a:	c622                	sw	s0,12(sp)
     27c:	0800                	addi	s0,sp,16
C:\Users\windows\Desktop\smart_car\MASTER\obj/../USER/isr.c:107

}
     27e:	0001                	nop
     280:	4432                	lw	s0,12(sp)
     282:	0141                	addi	sp,sp,16
     284:	30200073          	mret

00000288 <ADC1_2_IRQHandler>:
ADC1_2_IRQHandler():
C:\Users\windows\Desktop\smart_car\MASTER\obj/../USER/isr.c:110

void ADC1_2_IRQHandler(void)
{
     288:	1141                	addi	sp,sp,-16
     28a:	c622                	sw	s0,12(sp)
     28c:	0800                	addi	s0,sp,16
C:\Users\windows\Desktop\smart_car\MASTER\obj/../USER/isr.c:113


}
     28e:	0001                	nop
     290:	4432                	lw	s0,12(sp)
     292:	0141                	addi	sp,sp,16
     294:	30200073          	mret

00000298 <TIM1_BRK_IRQHandler>:
TIM1_BRK_IRQHandler():
C:\Users\windows\Desktop\smart_car\MASTER\obj/../USER/isr.c:116

void TIM1_BRK_IRQHandler(void)
{
     298:	1141                	addi	sp,sp,-16
     29a:	c622                	sw	s0,12(sp)
     29c:	0800                	addi	s0,sp,16
C:\Users\windows\Desktop\smart_car\MASTER\obj/../USER/isr.c:117
    if(TIM_GetITStatus(TIM1, TIM_IT_Break) != RESET)
     29e:	08000593          	li	a1,128
     2a2:	400137b7          	lui	a5,0x40013
     2a6:	c0078513          	addi	a0,a5,-1024 # 40012c00 <_eusrstack+0x2000dc00>
     2aa:	7e5010ef          	jal	ra,228e <TIM_GetITStatus>
     2ae:	87aa                	mv	a5,a0
     2b0:	cb89                	beqz	a5,2c2 <TIM1_BRK_IRQHandler+0x2a>
C:\Users\windows\Desktop\smart_car\MASTER\obj/../USER/isr.c:119
    {
        TIM_ClearITPendingBit(TIM1, TIM_IT_Break);
     2b2:	08000593          	li	a1,128
     2b6:	400137b7          	lui	a5,0x40013
     2ba:	c0078513          	addi	a0,a5,-1024 # 40012c00 <_eusrstack+0x2000dc00>
     2be:	040020ef          	jal	ra,22fe <TIM_ClearITPendingBit>
C:\Users\windows\Desktop\smart_car\MASTER\obj/../USER/isr.c:122

    }
}
     2c2:	0001                	nop
     2c4:	4432                	lw	s0,12(sp)
     2c6:	0141                	addi	sp,sp,16
     2c8:	30200073          	mret

000002cc <TIM1_UP_IRQHandler>:
TIM1_UP_IRQHandler():
C:\Users\windows\Desktop\smart_car\MASTER\obj/../USER/isr.c:125

void TIM1_UP_IRQHandler(void)
{
     2cc:	1141                	addi	sp,sp,-16
     2ce:	c622                	sw	s0,12(sp)
     2d0:	0800                	addi	s0,sp,16
C:\Users\windows\Desktop\smart_car\MASTER\obj/../USER/isr.c:126
    if(TIM_GetITStatus(TIM1, TIM_IT_Update) != RESET)
     2d2:	4585                	li	a1,1
     2d4:	400137b7          	lui	a5,0x40013
     2d8:	c0078513          	addi	a0,a5,-1024 # 40012c00 <_eusrstack+0x2000dc00>
     2dc:	7b3010ef          	jal	ra,228e <TIM_GetITStatus>
     2e0:	87aa                	mv	a5,a0
     2e2:	cb81                	beqz	a5,2f2 <TIM1_UP_IRQHandler+0x26>
C:\Users\windows\Desktop\smart_car\MASTER\obj/../USER/isr.c:128
    {
        TIM_ClearITPendingBit(TIM1, TIM_IT_Update);
     2e4:	4585                	li	a1,1
     2e6:	400137b7          	lui	a5,0x40013
     2ea:	c0078513          	addi	a0,a5,-1024 # 40012c00 <_eusrstack+0x2000dc00>
     2ee:	010020ef          	jal	ra,22fe <TIM_ClearITPendingBit>
C:\Users\windows\Desktop\smart_car\MASTER\obj/../USER/isr.c:131

    }
}
     2f2:	0001                	nop
     2f4:	4432                	lw	s0,12(sp)
     2f6:	0141                	addi	sp,sp,16
     2f8:	30200073          	mret

000002fc <TIM1_TRG_COM_IRQHandler>:
TIM1_TRG_COM_IRQHandler():
C:\Users\windows\Desktop\smart_car\MASTER\obj/../USER/isr.c:134

void TIM1_TRG_COM_IRQHandler(void)
{
     2fc:	1141                	addi	sp,sp,-16
     2fe:	c622                	sw	s0,12(sp)
     300:	0800                	addi	s0,sp,16
C:\Users\windows\Desktop\smart_car\MASTER\obj/../USER/isr.c:135
    if(TIM_GetITStatus(TIM1, TIM_IT_Trigger) != RESET)
     302:	04000593          	li	a1,64
     306:	400137b7          	lui	a5,0x40013
     30a:	c0078513          	addi	a0,a5,-1024 # 40012c00 <_eusrstack+0x2000dc00>
     30e:	781010ef          	jal	ra,228e <TIM_GetITStatus>
     312:	87aa                	mv	a5,a0
     314:	cb89                	beqz	a5,326 <TIM1_TRG_COM_IRQHandler+0x2a>
C:\Users\windows\Desktop\smart_car\MASTER\obj/../USER/isr.c:137
    {
        TIM_ClearITPendingBit(TIM1, TIM_IT_Trigger);
     316:	04000593          	li	a1,64
     31a:	400137b7          	lui	a5,0x40013
     31e:	c0078513          	addi	a0,a5,-1024 # 40012c00 <_eusrstack+0x2000dc00>
     322:	7dd010ef          	jal	ra,22fe <TIM_ClearITPendingBit>
C:\Users\windows\Desktop\smart_car\MASTER\obj/../USER/isr.c:140

    }
    if(TIM_GetITStatus(TIM1, TIM_IT_COM) != RESET)
     326:	02000593          	li	a1,32
     32a:	400137b7          	lui	a5,0x40013
     32e:	c0078513          	addi	a0,a5,-1024 # 40012c00 <_eusrstack+0x2000dc00>
     332:	75d010ef          	jal	ra,228e <TIM_GetITStatus>
     336:	87aa                	mv	a5,a0
     338:	cb89                	beqz	a5,34a <TIM1_TRG_COM_IRQHandler+0x4e>
C:\Users\windows\Desktop\smart_car\MASTER\obj/../USER/isr.c:142
    {
        TIM_ClearITPendingBit(TIM1, TIM_IT_COM);
     33a:	02000593          	li	a1,32
     33e:	400137b7          	lui	a5,0x40013
     342:	c0078513          	addi	a0,a5,-1024 # 40012c00 <_eusrstack+0x2000dc00>
     346:	7b9010ef          	jal	ra,22fe <TIM_ClearITPendingBit>
C:\Users\windows\Desktop\smart_car\MASTER\obj/../USER/isr.c:145

    }
}
     34a:	0001                	nop
     34c:	4432                	lw	s0,12(sp)
     34e:	0141                	addi	sp,sp,16
     350:	30200073          	mret

00000354 <TIM1_CC_IRQHandler>:
TIM1_CC_IRQHandler():
C:\Users\windows\Desktop\smart_car\MASTER\obj/../USER/isr.c:148

void TIM1_CC_IRQHandler(void)
{
     354:	1141                	addi	sp,sp,-16
     356:	c622                	sw	s0,12(sp)
     358:	0800                	addi	s0,sp,16
C:\Users\windows\Desktop\smart_car\MASTER\obj/../USER/isr.c:149
    if(TIM_GetITStatus(TIM1, TIM_IT_CC1) != RESET)
     35a:	4589                	li	a1,2
     35c:	400137b7          	lui	a5,0x40013
     360:	c0078513          	addi	a0,a5,-1024 # 40012c00 <_eusrstack+0x2000dc00>
     364:	72b010ef          	jal	ra,228e <TIM_GetITStatus>
     368:	87aa                	mv	a5,a0
     36a:	cb81                	beqz	a5,37a <TIM1_CC_IRQHandler+0x26>
C:\Users\windows\Desktop\smart_car\MASTER\obj/../USER/isr.c:151
    {
        TIM_ClearITPendingBit(TIM1, TIM_IT_CC1);
     36c:	4589                	li	a1,2
     36e:	400137b7          	lui	a5,0x40013
     372:	c0078513          	addi	a0,a5,-1024 # 40012c00 <_eusrstack+0x2000dc00>
     376:	789010ef          	jal	ra,22fe <TIM_ClearITPendingBit>
C:\Users\windows\Desktop\smart_car\MASTER\obj/../USER/isr.c:154

    }
    if(TIM_GetITStatus(TIM1, TIM_IT_CC2) != RESET)
     37a:	4591                	li	a1,4
     37c:	400137b7          	lui	a5,0x40013
     380:	c0078513          	addi	a0,a5,-1024 # 40012c00 <_eusrstack+0x2000dc00>
     384:	70b010ef          	jal	ra,228e <TIM_GetITStatus>
     388:	87aa                	mv	a5,a0
     38a:	cb81                	beqz	a5,39a <TIM1_CC_IRQHandler+0x46>
C:\Users\windows\Desktop\smart_car\MASTER\obj/../USER/isr.c:156
    {
        TIM_ClearITPendingBit(TIM1, TIM_IT_CC2);
     38c:	4591                	li	a1,4
     38e:	400137b7          	lui	a5,0x40013
     392:	c0078513          	addi	a0,a5,-1024 # 40012c00 <_eusrstack+0x2000dc00>
     396:	769010ef          	jal	ra,22fe <TIM_ClearITPendingBit>
C:\Users\windows\Desktop\smart_car\MASTER\obj/../USER/isr.c:159

    }
    if(TIM_GetITStatus(TIM1, TIM_IT_CC3) != RESET)
     39a:	45a1                	li	a1,8
     39c:	400137b7          	lui	a5,0x40013
     3a0:	c0078513          	addi	a0,a5,-1024 # 40012c00 <_eusrstack+0x2000dc00>
     3a4:	6eb010ef          	jal	ra,228e <TIM_GetITStatus>
     3a8:	87aa                	mv	a5,a0
     3aa:	cb81                	beqz	a5,3ba <TIM1_CC_IRQHandler+0x66>
C:\Users\windows\Desktop\smart_car\MASTER\obj/../USER/isr.c:161
    {
        TIM_ClearITPendingBit(TIM1, TIM_IT_CC3);
     3ac:	45a1                	li	a1,8
     3ae:	400137b7          	lui	a5,0x40013
     3b2:	c0078513          	addi	a0,a5,-1024 # 40012c00 <_eusrstack+0x2000dc00>
     3b6:	749010ef          	jal	ra,22fe <TIM_ClearITPendingBit>
C:\Users\windows\Desktop\smart_car\MASTER\obj/../USER/isr.c:164

    }
    if(TIM_GetITStatus(TIM1, TIM_IT_CC4) != RESET)
     3ba:	45c1                	li	a1,16
     3bc:	400137b7          	lui	a5,0x40013
     3c0:	c0078513          	addi	a0,a5,-1024 # 40012c00 <_eusrstack+0x2000dc00>
     3c4:	6cb010ef          	jal	ra,228e <TIM_GetITStatus>
     3c8:	87aa                	mv	a5,a0
     3ca:	cb81                	beqz	a5,3da <TIM1_CC_IRQHandler+0x86>
C:\Users\windows\Desktop\smart_car\MASTER\obj/../USER/isr.c:166
    {
        TIM_ClearITPendingBit(TIM1, TIM_IT_CC4);
     3cc:	45c1                	li	a1,16
     3ce:	400137b7          	lui	a5,0x40013
     3d2:	c0078513          	addi	a0,a5,-1024 # 40012c00 <_eusrstack+0x2000dc00>
     3d6:	729010ef          	jal	ra,22fe <TIM_ClearITPendingBit>
C:\Users\windows\Desktop\smart_car\MASTER\obj/../USER/isr.c:169

    }
}
     3da:	0001                	nop
     3dc:	4432                	lw	s0,12(sp)
     3de:	0141                	addi	sp,sp,16
     3e0:	30200073          	mret

000003e4 <TIM2_IRQHandler>:
TIM2_IRQHandler():
C:\Users\windows\Desktop\smart_car\MASTER\obj/../USER/isr.c:172

void TIM2_IRQHandler(void)
{
     3e4:	1141                	addi	sp,sp,-16
     3e6:	c622                	sw	s0,12(sp)
     3e8:	0800                	addi	s0,sp,16
C:\Users\windows\Desktop\smart_car\MASTER\obj/../USER/isr.c:174

    if(TIM_GetITStatus(TIM2, TIM_IT_Update) != RESET)
     3ea:	4585                	li	a1,1
     3ec:	40000537          	lui	a0,0x40000
     3f0:	69f010ef          	jal	ra,228e <TIM_GetITStatus>
     3f4:	87aa                	mv	a5,a0
     3f6:	c791                	beqz	a5,402 <TIM2_IRQHandler+0x1e>
C:\Users\windows\Desktop\smart_car\MASTER\obj/../USER/isr.c:176
    {
        TIM_ClearITPendingBit(TIM2, TIM_IT_Update );
     3f8:	4585                	li	a1,1
     3fa:	40000537          	lui	a0,0x40000
     3fe:	701010ef          	jal	ra,22fe <TIM_ClearITPendingBit>
C:\Users\windows\Desktop\smart_car\MASTER\obj/../USER/isr.c:182
        //ccd_collect();//CCD数据采集
        //gpio_toggle(B5);
        //GPIO_PIN_RESET(B5);
        //GPIO_PIN_SET(B5);
    }
}
     402:	0001                	nop
     404:	4432                	lw	s0,12(sp)
     406:	0141                	addi	sp,sp,16
     408:	30200073          	mret

0000040c <TIM3_IRQHandler>:
TIM3_IRQHandler():
C:\Users\windows\Desktop\smart_car\MASTER\obj/../USER/isr.c:185

void TIM3_IRQHandler(void)
{
     40c:	1141                	addi	sp,sp,-16
     40e:	c622                	sw	s0,12(sp)
     410:	0800                	addi	s0,sp,16
C:\Users\windows\Desktop\smart_car\MASTER\obj/../USER/isr.c:186
    if(TIM_GetITStatus(TIM3, TIM_IT_Update) != RESET)
     412:	4585                	li	a1,1
     414:	400007b7          	lui	a5,0x40000
     418:	40078513          	addi	a0,a5,1024 # 40000400 <_eusrstack+0x1fffb400>
     41c:	673010ef          	jal	ra,228e <TIM_GetITStatus>
     420:	87aa                	mv	a5,a0
     422:	cb81                	beqz	a5,432 <TIM3_IRQHandler+0x26>
C:\Users\windows\Desktop\smart_car\MASTER\obj/../USER/isr.c:188
    {
        TIM_ClearITPendingBit(TIM3, TIM_IT_Update );
     424:	4585                	li	a1,1
     426:	400007b7          	lui	a5,0x40000
     42a:	40078513          	addi	a0,a5,1024 # 40000400 <_eusrstack+0x1fffb400>
     42e:	6d1010ef          	jal	ra,22fe <TIM_ClearITPendingBit>
C:\Users\windows\Desktop\smart_car\MASTER\obj/../USER/isr.c:191

    }
}
     432:	0001                	nop
     434:	4432                	lw	s0,12(sp)
     436:	0141                	addi	sp,sp,16
     438:	30200073          	mret

0000043c <TIM4_IRQHandler>:
TIM4_IRQHandler():
C:\Users\windows\Desktop\smart_car\MASTER\obj/../USER/isr.c:194

void TIM4_IRQHandler(void)
{
     43c:	1141                	addi	sp,sp,-16
     43e:	c622                	sw	s0,12(sp)
     440:	0800                	addi	s0,sp,16
C:\Users\windows\Desktop\smart_car\MASTER\obj/../USER/isr.c:195
    if(TIM_GetITStatus(TIM4, TIM_IT_Update) != RESET)
     442:	4585                	li	a1,1
     444:	400017b7          	lui	a5,0x40001
     448:	80078513          	addi	a0,a5,-2048 # 40000800 <_eusrstack+0x1fffb800>
     44c:	643010ef          	jal	ra,228e <TIM_GetITStatus>
     450:	87aa                	mv	a5,a0
     452:	cb81                	beqz	a5,462 <TIM4_IRQHandler+0x26>
C:\Users\windows\Desktop\smart_car\MASTER\obj/../USER/isr.c:197
    {
        TIM_ClearITPendingBit(TIM4, TIM_IT_Update );
     454:	4585                	li	a1,1
     456:	400017b7          	lui	a5,0x40001
     45a:	80078513          	addi	a0,a5,-2048 # 40000800 <_eusrstack+0x1fffb800>
     45e:	6a1010ef          	jal	ra,22fe <TIM_ClearITPendingBit>
C:\Users\windows\Desktop\smart_car\MASTER\obj/../USER/isr.c:200

    }
}
     462:	0001                	nop
     464:	4432                	lw	s0,12(sp)
     466:	0141                	addi	sp,sp,16
     468:	30200073          	mret

0000046c <USART1_IRQHandler>:
USART1_IRQHandler():
C:\Users\windows\Desktop\smart_car\MASTER\obj/../USER/isr.c:203

void USART1_IRQHandler(void)
{
     46c:	1141                	addi	sp,sp,-16
     46e:	c622                	sw	s0,12(sp)
     470:	0800                	addi	s0,sp,16
C:\Users\windows\Desktop\smart_car\MASTER\obj/../USER/isr.c:205

}
     472:	0001                	nop
     474:	4432                	lw	s0,12(sp)
     476:	0141                	addi	sp,sp,16
     478:	30200073          	mret

0000047c <USART2_IRQHandler>:
USART2_IRQHandler():
C:\Users\windows\Desktop\smart_car\MASTER\obj/../USER/isr.c:208

void USART2_IRQHandler(void)
{
     47c:	1141                	addi	sp,sp,-16
     47e:	c622                	sw	s0,12(sp)
     480:	0800                	addi	s0,sp,16
C:\Users\windows\Desktop\smart_car\MASTER\obj/../USER/isr.c:209
    if(USART_GetITStatus(USART2, USART_IT_RXNE) != RESET)
     482:	52500593          	li	a1,1317
     486:	400047b7          	lui	a5,0x40004
     48a:	40078513          	addi	a0,a5,1024 # 40004400 <_eusrstack+0x1ffff400>
     48e:	290020ef          	jal	ra,271e <USART_GetITStatus>
     492:	87aa                	mv	a5,a0
     494:	cf85                	beqz	a5,4cc <USART2_IRQHandler+0x50>
C:\Users\windows\Desktop\smart_car\MASTER\obj/../USER/isr.c:211
    {
        USART_ClearITPendingBit(USART2, USART_IT_RXNE);
     496:	52500593          	li	a1,1317
     49a:	400047b7          	lui	a5,0x40004
     49e:	40078513          	addi	a0,a5,1024 # 40004400 <_eusrstack+0x1ffff400>
     4a2:	37e020ef          	jal	ra,2820 <USART_ClearITPendingBit>
C:\Users\windows\Desktop\smart_car\MASTER\obj/../USER/isr.c:212
        if(camera_type == CAMERA_BIN_UART)
     4a6:	200007b7          	lui	a5,0x20000
     4aa:	0747a703          	lw	a4,116(a5) # 20000074 <camera_type>
     4ae:	4789                	li	a5,2
     4b0:	00f71563          	bne	a4,a5,4ba <USART2_IRQHandler+0x3e>
C:\Users\windows\Desktop\smart_car\MASTER\obj/../USER/isr.c:213
            ov7725_cof_uart_interrupt();
     4b4:	0e9020ef          	jal	ra,2d9c <ov7725_cof_uart_interrupt>
C:\Users\windows\Desktop\smart_car\MASTER\obj/../USER/isr.c:217
        else if(camera_type == CAMERA_GRAYSCALE)
            mt9v03x_uart_callback();
    }
}
     4b8:	a811                	j	4cc <USART2_IRQHandler+0x50>
C:\Users\windows\Desktop\smart_car\MASTER\obj/../USER/isr.c:214
        else if(camera_type == CAMERA_GRAYSCALE)
     4ba:	200007b7          	lui	a5,0x20000
     4be:	0747a703          	lw	a4,116(a5) # 20000074 <camera_type>
     4c2:	4785                	li	a5,1
     4c4:	00f71463          	bne	a4,a5,4cc <USART2_IRQHandler+0x50>
C:\Users\windows\Desktop\smart_car\MASTER\obj/../USER/isr.c:215
            mt9v03x_uart_callback();
     4c8:	001020ef          	jal	ra,2cc8 <mt9v03x_uart_callback>
C:\Users\windows\Desktop\smart_car\MASTER\obj/../USER/isr.c:217
}
     4cc:	0001                	nop
     4ce:	4432                	lw	s0,12(sp)
     4d0:	0141                	addi	sp,sp,16
     4d2:	30200073          	mret

000004d6 <DMA1_Channel4_IRQHandler>:
DMA1_Channel4_IRQHandler():
C:\Users\windows\Desktop\smart_car\MASTER\obj/../USER/isr.c:225
//{
//
//}

void DMA1_Channel4_IRQHandler(void)
{
     4d6:	1141                	addi	sp,sp,-16
     4d8:	c622                	sw	s0,12(sp)
     4da:	0800                	addi	s0,sp,16
C:\Users\windows\Desktop\smart_car\MASTER\obj/../USER/isr.c:226
    if(SET == DMA_GetFlagStatus(DMA1_FLAG_TC4))
     4dc:	6509                	lui	a0,0x2
     4de:	636000ef          	jal	ra,b14 <DMA_GetFlagStatus>
     4e2:	872a                	mv	a4,a0
     4e4:	4785                	li	a5,1
     4e6:	02f71863          	bne	a4,a5,516 <DMA1_Channel4_IRQHandler+0x40>
C:\Users\windows\Desktop\smart_car\MASTER\obj/../USER/isr.c:228
    {
        DMA_ClearFlag(DMA1_FLAG_TC4);
     4ea:	6509                	lui	a0,0x2
     4ec:	684000ef          	jal	ra,b70 <DMA_ClearFlag>
C:\Users\windows\Desktop\smart_car\MASTER\obj/../USER/isr.c:229
        if(camera_type == CAMERA_BIN_UART)
     4f0:	200007b7          	lui	a5,0x20000
     4f4:	0747a703          	lw	a4,116(a5) # 20000074 <camera_type>
     4f8:	4789                	li	a5,2
     4fa:	00f71563          	bne	a4,a5,504 <DMA1_Channel4_IRQHandler+0x2e>
C:\Users\windows\Desktop\smart_car\MASTER\obj/../USER/isr.c:230
            ov7725_uart_dma();
     4fe:	145020ef          	jal	ra,2e42 <ov7725_uart_dma>
C:\Users\windows\Desktop\smart_car\MASTER\obj/../USER/isr.c:234
        else if(camera_type == CAMERA_GRAYSCALE)
            mt9v03x_dma();
    }
}
     502:	a811                	j	516 <DMA1_Channel4_IRQHandler+0x40>
C:\Users\windows\Desktop\smart_car\MASTER\obj/../USER/isr.c:231
        else if(camera_type == CAMERA_GRAYSCALE)
     504:	200007b7          	lui	a5,0x20000
     508:	0747a703          	lw	a4,116(a5) # 20000074 <camera_type>
     50c:	4785                	li	a5,1
     50e:	00f71463          	bne	a4,a5,516 <DMA1_Channel4_IRQHandler+0x40>
C:\Users\windows\Desktop\smart_car\MASTER\obj/../USER/isr.c:232
            mt9v03x_dma();
     512:	05d020ef          	jal	ra,2d6e <mt9v03x_dma>
C:\Users\windows\Desktop\smart_car\MASTER\obj/../USER/isr.c:234
}
     516:	0001                	nop
     518:	4432                	lw	s0,12(sp)
     51a:	0141                	addi	sp,sp,16
     51c:	30200073          	mret

00000520 <NMI_Handler>:
NMI_Handler():
C:\Users\windows\Desktop\smart_car\MASTER\obj/../USER/isr.c:243
* Description    : This function handles NMI exception.
* Input          : None
* Return         : None
*******************************************************************************/
void NMI_Handler(void)
{
     520:	1141                	addi	sp,sp,-16
     522:	c622                	sw	s0,12(sp)
     524:	0800                	addi	s0,sp,16
C:\Users\windows\Desktop\smart_car\MASTER\obj/../USER/isr.c:245

}
     526:	0001                	nop
     528:	4432                	lw	s0,12(sp)
     52a:	0141                	addi	sp,sp,16
     52c:	30200073          	mret

00000530 <HardFault_Handler>:
HardFault_Handler():
C:\Users\windows\Desktop\smart_car\MASTER\obj/../USER/isr.c:254
* Description    : This function handles Hard Fault exception.
* Input          : None
* Return         : None
*******************************************************************************/
void HardFault_Handler(void)
{
     530:	1141                	addi	sp,sp,-16
     532:	c622                	sw	s0,12(sp)
     534:	0800                	addi	s0,sp,16
C:\Users\windows\Desktop\smart_car\MASTER\obj/../USER/isr.c:256 (discriminator 1)

  while (1)
     536:	a001                	j	536 <HardFault_Handler+0x6>

00000538 <get_slave_data>:
get_slave_data():
C:\Users\windows\Desktop\smart_car\MASTER\obj/../USER/main.c:60
//  @return     void
//  @since      v1.0
//  Sample usage:
//-------------------------------------------------------------------------------------------------------------------
void get_slave_data(uint8 data)
{
     538:	1101                	addi	sp,sp,-32
     53a:	ce22                	sw	s0,28(sp)
     53c:	1000                	addi	s0,sp,32
     53e:	87aa                	mv	a5,a0
     540:	fef407a3          	sb	a5,-17(s0)
C:\Users\windows\Desktop\smart_car\MASTER\obj/../USER/main.c:62
    static uint8 uart_num = 0;
    temp_buff[uart_num++] = data;
     544:	8321c783          	lbu	a5,-1998(gp) # 200000a2 <uart_num.5977>
     548:	00178713          	addi	a4,a5,1
     54c:	0ff77693          	andi	a3,a4,255
     550:	82d18923          	sb	a3,-1998(gp) # 200000a2 <uart_num.5977>
     554:	873e                	mv	a4,a5
     556:	85418793          	addi	a5,gp,-1964 # 200000c4 <temp_buff>
     55a:	97ba                	add	a5,a5,a4
     55c:	fef44703          	lbu	a4,-17(s0)
     560:	00e78023          	sb	a4,0(a5)
C:\Users\windows\Desktop\smart_car\MASTER\obj/../USER/main.c:64

    if(1 == uart_num)
     564:	8321c703          	lbu	a4,-1998(gp) # 200000a2 <uart_num.5977>
     568:	4785                	li	a5,1
     56a:	00f71d63          	bne	a4,a5,584 <get_slave_data+0x4c>
C:\Users\windows\Desktop\smart_car\MASTER\obj/../USER/main.c:67
    {
        //接收到的第一个字符不为0xD8，帧头错误
        if(0xD8 != temp_buff[0])
     56e:	8541c703          	lbu	a4,-1964(gp) # 200000c4 <temp_buff>
     572:	0d800793          	li	a5,216
     576:	00f70763          	beq	a4,a5,584 <get_slave_data+0x4c>
C:\Users\windows\Desktop\smart_car\MASTER\obj/../USER/main.c:69
        {
            uart_num = 0;
     57a:	82018923          	sb	zero,-1998(gp) # 200000a2 <uart_num.5977>
C:\Users\windows\Desktop\smart_car\MASTER\obj/../USER/main.c:70
            uart_flag = E_FRAME_HEADER_ERROR;
     57e:	4709                	li	a4,2
     580:	80e18c23          	sb	a4,-2024(gp) # 20000088 <_edata>
C:\Users\windows\Desktop\smart_car\MASTER\obj/../USER/main.c:74
        }
    }

    if(LINE_LEN == uart_num)
     584:	8321c703          	lbu	a4,-1998(gp) # 200000a2 <uart_num.5977>
     588:	47b9                	li	a5,14
     58a:	02f71663          	bne	a4,a5,5b6 <get_slave_data+0x7e>
C:\Users\windows\Desktop\smart_car\MASTER\obj/../USER/main.c:76
    {
        uart_flag = E_OK;
     58e:	4705                	li	a4,1
     590:	80e18c23          	sb	a4,-2024(gp) # 20000088 <_edata>
C:\Users\windows\Desktop\smart_car\MASTER\obj/../USER/main.c:78
        //接收到最后一个字节为0xEE
        if(0xEE == temp_buff[LINE_LEN - 1])
     594:	85418793          	addi	a5,gp,-1964 # 200000c4 <temp_buff>
     598:	00d7c703          	lbu	a4,13(a5)
     59c:	0ee00793          	li	a5,238
     5a0:	00f71663          	bne	a4,a5,5ac <get_slave_data+0x74>
C:\Users\windows\Desktop\smart_car\MASTER\obj/../USER/main.c:80
        {
            uart_flag = E_OK;
     5a4:	4705                	li	a4,1
     5a6:	80e18c23          	sb	a4,-2024(gp) # 20000088 <_edata>
     5aa:	a021                	j	5b2 <get_slave_data+0x7a>
C:\Users\windows\Desktop\smart_car\MASTER\obj/../USER/main.c:84
        }
        else    //接收到最后一个字节不是0xEE，帧尾错误
        {
            uart_flag = E_FRAME_RTAIL_ERROR;
     5ac:	470d                	li	a4,3
     5ae:	80e18c23          	sb	a4,-2024(gp) # 20000088 <_edata>
C:\Users\windows\Desktop\smart_car\MASTER\obj/../USER/main.c:86
        }
        uart_num = 0;
     5b2:	82018923          	sb	zero,-1998(gp) # 200000a2 <uart_num.5977>
C:\Users\windows\Desktop\smart_car\MASTER\obj/../USER/main.c:88
    }
}
     5b6:	0001                	nop
     5b8:	4472                	lw	s0,28(sp)
     5ba:	6105                	addi	sp,sp,32
     5bc:	8082                	ret

000005be <data_analysis>:
data_analysis():
C:\Users\windows\Desktop\smart_car\MASTER\obj/../USER/main.c:98
//  @return     void
//  @since      v1.0
//  Sample usage:
//-------------------------------------------------------------------------------------------------------------------
void data_analysis(uint8 *line)
{
     5be:	1101                	addi	sp,sp,-32
     5c0:	ce22                	sw	s0,28(sp)
     5c2:	1000                	addi	s0,sp,32
     5c4:	fea42623          	sw	a0,-20(s0)
C:\Users\windows\Desktop\smart_car\MASTER\obj/../USER/main.c:99
    if(line[1] == 0xB0)    slave_encoder_left  = ((int16)line[2] << 8) | line[3];
     5c8:	fec42783          	lw	a5,-20(s0)
     5cc:	0785                	addi	a5,a5,1
     5ce:	0007c703          	lbu	a4,0(a5)
     5d2:	0b000793          	li	a5,176
     5d6:	02f71863          	bne	a4,a5,606 <data_analysis+0x48>
C:\Users\windows\Desktop\smart_car\MASTER\obj/../USER/main.c:99 (discriminator 1)
     5da:	fec42783          	lw	a5,-20(s0)
     5de:	0789                	addi	a5,a5,2
     5e0:	0007c783          	lbu	a5,0(a5)
     5e4:	07a2                	slli	a5,a5,0x8
     5e6:	01079713          	slli	a4,a5,0x10
     5ea:	8741                	srai	a4,a4,0x10
     5ec:	fec42783          	lw	a5,-20(s0)
     5f0:	078d                	addi	a5,a5,3
     5f2:	0007c783          	lbu	a5,0(a5)
     5f6:	07c2                	slli	a5,a5,0x10
     5f8:	87c1                	srai	a5,a5,0x10
     5fa:	8fd9                	or	a5,a5,a4
     5fc:	01079713          	slli	a4,a5,0x10
     600:	8741                	srai	a4,a4,0x10
     602:	80e19d23          	sh	a4,-2022(gp) # 2000008a <slave_encoder_left>
C:\Users\windows\Desktop\smart_car\MASTER\obj/../USER/main.c:100
    if(line[4] == 0xB1)    slave_encoder_right = ((int16)line[5] << 8) | line[6];
     606:	fec42783          	lw	a5,-20(s0)
     60a:	0791                	addi	a5,a5,4
     60c:	0007c703          	lbu	a4,0(a5)
     610:	0b100793          	li	a5,177
     614:	02f71863          	bne	a4,a5,644 <data_analysis+0x86>
C:\Users\windows\Desktop\smart_car\MASTER\obj/../USER/main.c:100 (discriminator 1)
     618:	fec42783          	lw	a5,-20(s0)
     61c:	0795                	addi	a5,a5,5
     61e:	0007c783          	lbu	a5,0(a5)
     622:	07a2                	slli	a5,a5,0x8
     624:	01079713          	slli	a4,a5,0x10
     628:	8741                	srai	a4,a4,0x10
     62a:	fec42783          	lw	a5,-20(s0)
     62e:	0799                	addi	a5,a5,6
     630:	0007c783          	lbu	a5,0(a5)
     634:	07c2                	slli	a5,a5,0x10
     636:	87c1                	srai	a5,a5,0x10
     638:	8fd9                	or	a5,a5,a4
     63a:	01079713          	slli	a4,a5,0x10
     63e:	8741                	srai	a4,a4,0x10
     640:	80e19e23          	sh	a4,-2020(gp) # 2000008c <slave_encoder_right>
C:\Users\windows\Desktop\smart_car\MASTER\obj/../USER/main.c:101
    if(line[7] == 0xB2)    slave_position      = ((int16)line[8] << 8) | line[9];
     644:	fec42783          	lw	a5,-20(s0)
     648:	079d                	addi	a5,a5,7
     64a:	0007c703          	lbu	a4,0(a5)
     64e:	0b200793          	li	a5,178
     652:	02f71863          	bne	a4,a5,682 <data_analysis+0xc4>
C:\Users\windows\Desktop\smart_car\MASTER\obj/../USER/main.c:101 (discriminator 1)
     656:	fec42783          	lw	a5,-20(s0)
     65a:	07a1                	addi	a5,a5,8
     65c:	0007c783          	lbu	a5,0(a5)
     660:	07a2                	slli	a5,a5,0x8
     662:	01079713          	slli	a4,a5,0x10
     666:	8741                	srai	a4,a4,0x10
     668:	fec42783          	lw	a5,-20(s0)
     66c:	07a5                	addi	a5,a5,9
     66e:	0007c783          	lbu	a5,0(a5)
     672:	07c2                	slli	a5,a5,0x10
     674:	87c1                	srai	a5,a5,0x10
     676:	8fd9                	or	a5,a5,a4
     678:	01079713          	slli	a4,a5,0x10
     67c:	8741                	srai	a4,a4,0x10
     67e:	80e19f23          	sh	a4,-2018(gp) # 2000008e <slave_position>
C:\Users\windows\Desktop\smart_car\MASTER\obj/../USER/main.c:102
    if(line[10] == 0xB3)   track               = ((int16)line[11] <<8) | line[12];
     682:	fec42783          	lw	a5,-20(s0)
     686:	07a9                	addi	a5,a5,10
     688:	0007c703          	lbu	a4,0(a5)
     68c:	0b300793          	li	a5,179
     690:	02f71863          	bne	a4,a5,6c0 <data_analysis+0x102>
C:\Users\windows\Desktop\smart_car\MASTER\obj/../USER/main.c:102 (discriminator 1)
     694:	fec42783          	lw	a5,-20(s0)
     698:	07ad                	addi	a5,a5,11
     69a:	0007c783          	lbu	a5,0(a5)
     69e:	07a2                	slli	a5,a5,0x8
     6a0:	01079713          	slli	a4,a5,0x10
     6a4:	8741                	srai	a4,a4,0x10
     6a6:	fec42783          	lw	a5,-20(s0)
     6aa:	07b1                	addi	a5,a5,12
     6ac:	0007c783          	lbu	a5,0(a5)
     6b0:	07c2                	slli	a5,a5,0x10
     6b2:	87c1                	srai	a5,a5,0x10
     6b4:	8fd9                	or	a5,a5,a4
     6b6:	01079713          	slli	a4,a5,0x10
     6ba:	8741                	srai	a4,a4,0x10
     6bc:	82e19223          	sh	a4,-2012(gp) # 20000094 <track>
C:\Users\windows\Desktop\smart_car\MASTER\obj/../USER/main.c:103
}
     6c0:	0001                	nop
     6c2:	4472                	lw	s0,28(sp)
     6c4:	6105                	addi	sp,sp,32
     6c6:	8082                	ret

000006c8 <USART3_IRQHandler>:
USART3_IRQHandler():
C:\Users\windows\Desktop\smart_car\MASTER\obj/../USER/main.c:114
//  @since      v1.0
//  Sample usage:
//-------------------------------------------------------------------------------------------------------------------
void USART3_IRQHandler(void) __attribute__((interrupt("WCH-Interrupt-fast")));
void USART3_IRQHandler(void)
{
     6c8:	1101                	addi	sp,sp,-32
     6ca:	ce22                	sw	s0,28(sp)
     6cc:	1000                	addi	s0,sp,32
C:\Users\windows\Desktop\smart_car\MASTER\obj/../USER/main.c:116
    uint8 dat;
    if(USART_GetITStatus(USART3, USART_IT_RXNE) != RESET)
     6ce:	52500593          	li	a1,1317
     6d2:	400057b7          	lui	a5,0x40005
     6d6:	80078513          	addi	a0,a5,-2048 # 40004800 <_eusrstack+0x1ffff800>
     6da:	044020ef          	jal	ra,271e <USART_GetITStatus>
     6de:	87aa                	mv	a5,a0
     6e0:	c795                	beqz	a5,70c <USART3_IRQHandler+0x44>
C:\Users\windows\Desktop\smart_car\MASTER\obj/../USER/main.c:118
    {
        USART_ClearITPendingBit(USART3, USART_IT_RXNE); //清除串口接收中断标志位
     6e2:	52500593          	li	a1,1317
     6e6:	400057b7          	lui	a5,0x40005
     6ea:	80078513          	addi	a0,a5,-2048 # 40004800 <_eusrstack+0x1ffff800>
     6ee:	132020ef          	jal	ra,2820 <USART_ClearITPendingBit>
C:\Users\windows\Desktop\smart_car\MASTER\obj/../USER/main.c:119
        dat = USART_ReceiveData(USART3);                //获取串口数据
     6f2:	400057b7          	lui	a5,0x40005
     6f6:	80078513          	addi	a0,a5,-2048 # 40004800 <_eusrstack+0x1ffff800>
     6fa:	7b9010ef          	jal	ra,26b2 <USART_ReceiveData>
     6fe:	87aa                	mv	a5,a0
     700:	fef407a3          	sb	a5,-17(s0)
C:\Users\windows\Desktop\smart_car\MASTER\obj/../USER/main.c:120
        get_slave_data(dat);                            //将每一个字节的串口数据存入temp_buff中。
     704:	fef44783          	lbu	a5,-17(s0)
     708:	853e                	mv	a0,a5
     70a:	353d                	jal	538 <get_slave_data>
C:\Users\windows\Desktop\smart_car\MASTER\obj/../USER/main.c:122
    }
}
     70c:	0001                	nop
     70e:	4472                	lw	s0,28(sp)
     710:	6105                	addi	sp,sp,32
     712:	30200073          	mret

00000716 <EXTI0_IRQHandler>:
EXTI0_IRQHandler():
C:\Users\windows\Desktop\smart_car\MASTER\obj/../USER/main.c:133
//  @since      v1.0
//  Sample usage:
//-------------------------------------------------------------------------------------------------------------------
void EXTI0_IRQHandler(void) __attribute__((interrupt("WCH-Interrupt-fast")));
void EXTI0_IRQHandler(void)
{
     716:	1101                	addi	sp,sp,-32
     718:	ce22                	sw	s0,28(sp)
     71a:	cc26                	sw	s1,24(sp)
     71c:	ca4a                	sw	s2,20(sp)
     71e:	c84e                	sw	s3,16(sp)
     720:	1000                	addi	s0,sp,32
C:\Users\windows\Desktop\smart_car\MASTER\obj/../USER/main.c:134
    if(SET == EXTI_GetITStatus(EXTI_Line0))
     722:	4505                	li	a0,1
     724:	2bd5                	jal	d18 <EXTI_GetITStatus>
     726:	872a                	mv	a4,a0
     728:	4785                	li	a5,1
     72a:	2af71363          	bne	a4,a5,9d0 <__stack_size+0x1d0>
C:\Users\windows\Desktop\smart_car\MASTER\obj/../USER/main.c:136
    {
        EXTI_ClearITPendingBit(EXTI_Line0);
     72e:	4505                	li	a0,1
     730:	63e000ef          	jal	ra,d6e <EXTI_ClearITPendingBit>
C:\Users\windows\Desktop\smart_car\MASTER\obj/../USER/main.c:137
        while(uart_flag != E_OK);                       //等待接收数据
     734:	0001                	nop
C:\Users\windows\Desktop\smart_car\MASTER\obj/../USER/main.c:137 (discriminator 1)
     736:	8181c783          	lbu	a5,-2024(gp) # 20000088 <_edata>
     73a:	0ff7f713          	andi	a4,a5,255
     73e:	4785                	li	a5,1
     740:	fef71be3          	bne	a4,a5,736 <EXTI0_IRQHandler+0x20>
C:\Users\windows\Desktop\smart_car\MASTER\obj/../USER/main.c:138
        uart_flag = E_START;                            //清空标志位
     744:	80018c23          	sb	zero,-2024(gp) # 20000088 <_edata>
C:\Users\windows\Desktop\smart_car\MASTER\obj/../USER/main.c:139
        data_analysis(temp_buff);                       //数据解析
     748:	85418513          	addi	a0,gp,-1964 # 200000c4 <temp_buff>
     74c:	3d8d                	jal	5be <data_analysis>
C:\Users\windows\Desktop\smart_car\MASTER\obj/../USER/main.c:141

        slave_encoder_right=-slave_encoder_right;
     74e:	81c19783          	lh	a5,-2020(gp) # 2000008c <slave_encoder_right>
     752:	07c2                	slli	a5,a5,0x10
     754:	83c1                	srli	a5,a5,0x10
     756:	40f007b3          	neg	a5,a5
     75a:	07c2                	slli	a5,a5,0x10
     75c:	83c1                	srli	a5,a5,0x10
     75e:	01079713          	slli	a4,a5,0x10
     762:	8741                	srai	a4,a4,0x10
     764:	80e19e23          	sh	a4,-2020(gp) # 2000008c <slave_encoder_right>
C:\Users\windows\Desktop\smart_car\MASTER\obj/../USER/main.c:142
        master_encoder_left=timer_quad_get(TIMER_2);//获得主机编码器的值
     768:	4505                	li	a0,1
     76a:	5d6030ef          	jal	ra,3d40 <timer_quad_get>
     76e:	87aa                	mv	a5,a0
     770:	873e                	mv	a4,a5
     772:	82e19023          	sh	a4,-2016(gp) # 20000090 <master_encoder_left>
C:\Users\windows\Desktop\smart_car\MASTER\obj/../USER/main.c:143
        master_encoder_right=-timer_quad_get(TIMER_3);//获得主机编码器的值
     776:	4509                	li	a0,2
     778:	5c8030ef          	jal	ra,3d40 <timer_quad_get>
     77c:	87aa                	mv	a5,a0
     77e:	07c2                	slli	a5,a5,0x10
     780:	83c1                	srli	a5,a5,0x10
     782:	40f007b3          	neg	a5,a5
     786:	07c2                	slli	a5,a5,0x10
     788:	83c1                	srli	a5,a5,0x10
     78a:	01079713          	slli	a4,a5,0x10
     78e:	8741                	srai	a4,a4,0x10
     790:	82e19123          	sh	a4,-2014(gp) # 20000092 <master_encoder_right>
C:\Users\windows\Desktop\smart_car\MASTER\obj/../USER/main.c:144
        timer_quad_clear(TIMER_2);
     794:	4505                	li	a0,1
     796:	5dc030ef          	jal	ra,3d72 <timer_quad_clear>
C:\Users\windows\Desktop\smart_car\MASTER\obj/../USER/main.c:145
        timer_quad_clear(TIMER_3);
     79a:	4509                	li	a0,2
     79c:	5d6030ef          	jal	ra,3d72 <timer_quad_clear>
C:\Users\windows\Desktop\smart_car\MASTER\obj/../USER/main.c:149

        float k;//大圆环 速度95 转角0.6  S弯 55 0.5

        target=100;//80 120 90_0.75 115 1.2
     7a0:	06400713          	li	a4,100
     7a4:	82e19423          	sh	a4,-2008(gp) # 20000098 <target>
C:\Users\windows\Desktop\smart_car\MASTER\obj/../USER/main.c:150
        k=0.5;//很稳 100，0.95
     7a8:	679d                	lui	a5,0x7
     7aa:	ac47a783          	lw	a5,-1340(a5) # 6ac4 <_exit+0x2>
     7ae:	fef42623          	sw	a5,-20(s0)
C:\Users\windows\Desktop\smart_car\MASTER\obj/../USER/main.c:153

        //最初版本 target=35 k=0.28
        if(slave_position>2||slave_position<-2)
     7b2:	81e19703          	lh	a4,-2018(gp) # 2000008e <slave_position>
     7b6:	4789                	li	a5,2
     7b8:	00e7c763          	blt	a5,a4,7c6 <EXTI0_IRQHandler+0xb0>
C:\Users\windows\Desktop\smart_car\MASTER\obj/../USER/main.c:153 (discriminator 1)
     7bc:	81e19703          	lh	a4,-2018(gp) # 2000008e <slave_position>
     7c0:	57f9                	li	a5,-2
     7c2:	10f75363          	bge	a4,a5,8c8 <__stack_size+0xc8>
C:\Users\windows\Desktop\smart_car\MASTER\obj/../USER/main.c:155
        {
            target_fl=target+k*slave_position;
     7c6:	82819783          	lh	a5,-2008(gp) # 20000098 <target>
     7ca:	853e                	mv	a0,a5
     7cc:	77b040ef          	jal	ra,5746 <__floatsisf>
     7d0:	84aa                	mv	s1,a0
     7d2:	81e19783          	lh	a5,-2018(gp) # 2000008e <slave_position>
     7d6:	853e                	mv	a0,a5
     7d8:	76f040ef          	jal	ra,5746 <__floatsisf>
     7dc:	87aa                	mv	a5,a0
     7de:	fec42583          	lw	a1,-20(s0)
     7e2:	853e                	mv	a0,a5
     7e4:	0e9040ef          	jal	ra,50cc <__mulsf3>
     7e8:	87aa                	mv	a5,a0
     7ea:	85be                	mv	a1,a5
     7ec:	8526                	mv	a0,s1
     7ee:	462040ef          	jal	ra,4c50 <__addsf3>
     7f2:	87aa                	mv	a5,a0
     7f4:	853e                	mv	a0,a5
     7f6:	6ef040ef          	jal	ra,56e4 <__fixsfsi>
     7fa:	87aa                	mv	a5,a0
     7fc:	01079713          	slli	a4,a5,0x10
     800:	8741                	srai	a4,a4,0x10
     802:	82e19523          	sh	a4,-2006(gp) # 2000009a <target_fl>
C:\Users\windows\Desktop\smart_car\MASTER\obj/../USER/main.c:156
            target_fr=target-k*slave_position;
     806:	82819783          	lh	a5,-2008(gp) # 20000098 <target>
     80a:	853e                	mv	a0,a5
     80c:	73b040ef          	jal	ra,5746 <__floatsisf>
     810:	84aa                	mv	s1,a0
     812:	81e19783          	lh	a5,-2018(gp) # 2000008e <slave_position>
     816:	853e                	mv	a0,a5
     818:	72f040ef          	jal	ra,5746 <__floatsisf>
     81c:	87aa                	mv	a5,a0
     81e:	fec42583          	lw	a1,-20(s0)
     822:	853e                	mv	a0,a5
     824:	0a9040ef          	jal	ra,50cc <__mulsf3>
     828:	87aa                	mv	a5,a0
     82a:	85be                	mv	a1,a5
     82c:	8526                	mv	a0,s1
     82e:	32f040ef          	jal	ra,535c <__subsf3>
     832:	87aa                	mv	a5,a0
     834:	853e                	mv	a0,a5
     836:	6af040ef          	jal	ra,56e4 <__fixsfsi>
     83a:	87aa                	mv	a5,a0
     83c:	01079713          	slli	a4,a5,0x10
     840:	8741                	srai	a4,a4,0x10
     842:	82e19623          	sh	a4,-2004(gp) # 2000009c <target_fr>
C:\Users\windows\Desktop\smart_car\MASTER\obj/../USER/main.c:157
            target_rl=target+k*slave_position;
     846:	82819783          	lh	a5,-2008(gp) # 20000098 <target>
     84a:	853e                	mv	a0,a5
     84c:	6fb040ef          	jal	ra,5746 <__floatsisf>
     850:	84aa                	mv	s1,a0
     852:	81e19783          	lh	a5,-2018(gp) # 2000008e <slave_position>
     856:	853e                	mv	a0,a5
     858:	6ef040ef          	jal	ra,5746 <__floatsisf>
     85c:	87aa                	mv	a5,a0
     85e:	fec42583          	lw	a1,-20(s0)
     862:	853e                	mv	a0,a5
     864:	069040ef          	jal	ra,50cc <__mulsf3>
     868:	87aa                	mv	a5,a0
     86a:	85be                	mv	a1,a5
     86c:	8526                	mv	a0,s1
     86e:	3e2040ef          	jal	ra,4c50 <__addsf3>
     872:	87aa                	mv	a5,a0
     874:	853e                	mv	a0,a5
     876:	66f040ef          	jal	ra,56e4 <__fixsfsi>
     87a:	87aa                	mv	a5,a0
     87c:	01079713          	slli	a4,a5,0x10
     880:	8741                	srai	a4,a4,0x10
     882:	82e19723          	sh	a4,-2002(gp) # 2000009e <target_rl>
C:\Users\windows\Desktop\smart_car\MASTER\obj/../USER/main.c:158
            target_rr=target-k*slave_position;
     886:	82819783          	lh	a5,-2008(gp) # 20000098 <target>
     88a:	853e                	mv	a0,a5
     88c:	6bb040ef          	jal	ra,5746 <__floatsisf>
     890:	84aa                	mv	s1,a0
     892:	81e19783          	lh	a5,-2018(gp) # 2000008e <slave_position>
     896:	853e                	mv	a0,a5
     898:	6af040ef          	jal	ra,5746 <__floatsisf>
     89c:	87aa                	mv	a5,a0
     89e:	fec42583          	lw	a1,-20(s0)
     8a2:	853e                	mv	a0,a5
     8a4:	029040ef          	jal	ra,50cc <__mulsf3>
     8a8:	87aa                	mv	a5,a0
     8aa:	85be                	mv	a1,a5
     8ac:	8526                	mv	a0,s1
     8ae:	2af040ef          	jal	ra,535c <__subsf3>
     8b2:	87aa                	mv	a5,a0
     8b4:	853e                	mv	a0,a5
     8b6:	62f040ef          	jal	ra,56e4 <__fixsfsi>
     8ba:	87aa                	mv	a5,a0
     8bc:	01079713          	slli	a4,a5,0x10
     8c0:	8741                	srai	a4,a4,0x10
     8c2:	82e19823          	sh	a4,-2000(gp) # 200000a0 <target_rr>
     8c6:	a00d                	j	8e8 <__stack_size+0xe8>
C:\Users\windows\Desktop\smart_car\MASTER\obj/../USER/main.c:161
        }
        else
            target_fl=target_fr=target_rl=target_rr=target;
     8c8:	82819703          	lh	a4,-2008(gp) # 20000098 <target>
     8cc:	82e19823          	sh	a4,-2000(gp) # 200000a0 <target_rr>
     8d0:	83019703          	lh	a4,-2000(gp) # 200000a0 <target_rr>
     8d4:	82e19723          	sh	a4,-2002(gp) # 2000009e <target_rl>
     8d8:	82e19703          	lh	a4,-2002(gp) # 2000009e <target_rl>
     8dc:	82e19623          	sh	a4,-2004(gp) # 2000009c <target_fr>
     8e0:	82c19703          	lh	a4,-2004(gp) # 2000009c <target_fr>
     8e4:	82e19523          	sh	a4,-2006(gp) # 2000009a <target_fl>
C:\Users\windows\Desktop\smart_car\MASTER\obj/../USER/main.c:163

        OutPut_Data(slave_encoder_left, slave_encoder_right, master_encoder_left, master_encoder_right);
     8e8:	81a19783          	lh	a5,-2022(gp) # 2000008a <slave_encoder_left>
     8ec:	873e                	mv	a4,a5
     8ee:	81c19783          	lh	a5,-2020(gp) # 2000008c <slave_encoder_right>
     8f2:	85be                	mv	a1,a5
     8f4:	82019783          	lh	a5,-2016(gp) # 20000090 <master_encoder_left>
     8f8:	863e                	mv	a2,a5
     8fa:	82219783          	lh	a5,-2014(gp) # 20000092 <master_encoder_right>
     8fe:	86be                	mv	a3,a5
     900:	853a                	mv	a0,a4
     902:	2be040ef          	jal	ra,4bc0 <OutPut_Data>
C:\Users\windows\Desktop\smart_car\MASTER\obj/../USER/main.c:165

        PID_incCtrl(&Pid_fl,(float)(target_fl-slave_encoder_left));
     906:	82a19783          	lh	a5,-2006(gp) # 2000009a <target_fl>
     90a:	873e                	mv	a4,a5
     90c:	81a19783          	lh	a5,-2022(gp) # 2000008a <slave_encoder_left>
     910:	40f707b3          	sub	a5,a4,a5
     914:	853e                	mv	a0,a5
     916:	631040ef          	jal	ra,5746 <__floatsisf>
     91a:	87aa                	mv	a5,a0
     91c:	85be                	mv	a1,a5
     91e:	86418513          	addi	a0,gp,-1948 # 200000d4 <Pid_fl>
     922:	08a040ef          	jal	ra,49ac <PID_incCtrl>
C:\Users\windows\Desktop\smart_car\MASTER\obj/../USER/main.c:166
        PID_incCtrl(&Pid_fr,(float)(target_fr-slave_encoder_right));
     926:	82c19783          	lh	a5,-2004(gp) # 2000009c <target_fr>
     92a:	873e                	mv	a4,a5
     92c:	81c19783          	lh	a5,-2020(gp) # 2000008c <slave_encoder_right>
     930:	40f707b3          	sub	a5,a4,a5
     934:	853e                	mv	a0,a5
     936:	611040ef          	jal	ra,5746 <__floatsisf>
     93a:	87aa                	mv	a5,a0
     93c:	85be                	mv	a1,a5
     93e:	89418513          	addi	a0,gp,-1900 # 20000104 <Pid_fr>
     942:	06a040ef          	jal	ra,49ac <PID_incCtrl>
C:\Users\windows\Desktop\smart_car\MASTER\obj/../USER/main.c:167
        PID_incCtrl(&Pid_rl,(float)(target_rl-master_encoder_left));
     946:	82e19783          	lh	a5,-2002(gp) # 2000009e <target_rl>
     94a:	873e                	mv	a4,a5
     94c:	82019783          	lh	a5,-2016(gp) # 20000090 <master_encoder_left>
     950:	40f707b3          	sub	a5,a4,a5
     954:	853e                	mv	a0,a5
     956:	5f1040ef          	jal	ra,5746 <__floatsisf>
     95a:	87aa                	mv	a5,a0
     95c:	85be                	mv	a1,a5
     95e:	8c418513          	addi	a0,gp,-1852 # 20000134 <Pid_rl>
     962:	04a040ef          	jal	ra,49ac <PID_incCtrl>
C:\Users\windows\Desktop\smart_car\MASTER\obj/../USER/main.c:168
        PID_incCtrl(&Pid_rr,(float)(target_rr-master_encoder_right));
     966:	83019783          	lh	a5,-2000(gp) # 200000a0 <target_rr>
     96a:	873e                	mv	a4,a5
     96c:	82219783          	lh	a5,-2014(gp) # 20000092 <master_encoder_right>
     970:	40f707b3          	sub	a5,a4,a5
     974:	853e                	mv	a0,a5
     976:	5d1040ef          	jal	ra,5746 <__floatsisf>
     97a:	87aa                	mv	a5,a0
     97c:	85be                	mv	a1,a5
     97e:	8f418513          	addi	a0,gp,-1804 # 20000164 <Pid_rr>
     982:	02a040ef          	jal	ra,49ac <PID_incCtrl>
C:\Users\windows\Desktop\smart_car\MASTER\obj/../USER/main.c:169
        Duty_All((int32)Pid_fl.out,(int32)Pid_fr.out,(int32)Pid_rl.out,(int32)Pid_rr.out);
     986:	86418793          	addi	a5,gp,-1948 # 200000d4 <Pid_fl>
     98a:	4fdc                	lw	a5,28(a5)
     98c:	853e                	mv	a0,a5
     98e:	557040ef          	jal	ra,56e4 <__fixsfsi>
     992:	84aa                	mv	s1,a0
     994:	89418793          	addi	a5,gp,-1900 # 20000104 <Pid_fr>
     998:	4fdc                	lw	a5,28(a5)
     99a:	853e                	mv	a0,a5
     99c:	549040ef          	jal	ra,56e4 <__fixsfsi>
     9a0:	892a                	mv	s2,a0
     9a2:	8c418793          	addi	a5,gp,-1852 # 20000134 <Pid_rl>
     9a6:	4fdc                	lw	a5,28(a5)
     9a8:	853e                	mv	a0,a5
     9aa:	53b040ef          	jal	ra,56e4 <__fixsfsi>
     9ae:	89aa                	mv	s3,a0
     9b0:	8f418793          	addi	a5,gp,-1804 # 20000164 <Pid_rr>
     9b4:	4fdc                	lw	a5,28(a5)
     9b6:	853e                	mv	a0,a5
     9b8:	52d040ef          	jal	ra,56e4 <__fixsfsi>
     9bc:	87aa                	mv	a5,a0
     9be:	86be                	mv	a3,a5
     9c0:	864e                	mv	a2,s3
     9c2:	85ca                	mv	a1,s2
     9c4:	8526                	mv	a0,s1
     9c6:	725030ef          	jal	ra,48ea <Duty_All>
C:\Users\windows\Desktop\smart_car\MASTER\obj/../USER/main.c:170
        show_flag = 1;                                  //屏幕显示标志位
     9ca:	4705                	li	a4,1
     9cc:	82e18323          	sb	a4,-2010(gp) # 20000096 <show_flag>
C:\Users\windows\Desktop\smart_car\MASTER\obj/../USER/main.c:172
    }
}
     9d0:	0001                	nop
     9d2:	4472                	lw	s0,28(sp)
     9d4:	44e2                	lw	s1,24(sp)
     9d6:	4952                	lw	s2,20(sp)
     9d8:	49c2                	lw	s3,16(sp)
     9da:	6105                	addi	sp,sp,32
     9dc:	30200073          	mret

000009e0 <Encoder_Init_Master>:
Encoder_Init_Master():
C:\Users\windows\Desktop\smart_car\MASTER\obj/../USER/main.c:175

void Encoder_Init_Master()//主机编码器初始化函数
{
     9e0:	1141                	addi	sp,sp,-16
     9e2:	c606                	sw	ra,12(sp)
     9e4:	c422                	sw	s0,8(sp)
     9e6:	0800                	addi	s0,sp,16
C:\Users\windows\Desktop\smart_car\MASTER\obj/../USER/main.c:176
    timer_quad_init(TIMER_2,TIMER2_CHA_A15,TIMER2_CHB_B3);//编码器3初始化，使用定时器2
     9e8:	4615                	li	a2,5
     9ea:	4591                	li	a1,4
     9ec:	4505                	li	a0,1
     9ee:	1f4030ef          	jal	ra,3be2 <timer_quad_init>
C:\Users\windows\Desktop\smart_car\MASTER\obj/../USER/main.c:177
    timer_quad_init(TIMER_3,TIMER3_CHA_B4,TIMER3_CHB_B5);//编码器4初始化，使用定时器3
     9f2:	462d                	li	a2,11
     9f4:	45a9                	li	a1,10
     9f6:	4509                	li	a0,2
     9f8:	1ea030ef          	jal	ra,3be2 <timer_quad_init>
C:\Users\windows\Desktop\smart_car\MASTER\obj/../USER/main.c:178
    return;
     9fc:	0001                	nop
C:\Users\windows\Desktop\smart_car\MASTER\obj/../USER/main.c:179
}
     9fe:	40b2                	lw	ra,12(sp)
     a00:	4422                	lw	s0,8(sp)
     a02:	0141                	addi	sp,sp,16
     a04:	8082                	ret

00000a06 <main>:
main():
C:\Users\windows\Desktop\smart_car\MASTER\obj/../USER/main.c:182

int main(void)
{
     a06:	1141                	addi	sp,sp,-16
     a08:	c606                	sw	ra,12(sp)
     a0a:	c422                	sw	s0,8(sp)
     a0c:	0800                	addi	s0,sp,16
C:\Users\windows\Desktop\smart_car\MASTER\obj/../USER/main.c:183
    DisableGlobalIRQ();
     a0e:	7e6020ef          	jal	ra,31f4 <DisableGlobalIRQ>
C:\Users\windows\Desktop\smart_car\MASTER\obj/../USER/main.c:184
    board_init();           //务必保留，本函数用于初始化MPU 时钟 调试串口
     a12:	281030ef          	jal	ra,4492 <board_init>
C:\Users\windows\Desktop\smart_car\MASTER\obj/../USER/main.c:186

    ips114_init();
     a16:	76d010ef          	jal	ra,2982 <ips114_init>
C:\Users\windows\Desktop\smart_car\MASTER\obj/../USER/main.c:192

    //串口的抢占优先级一定要比外部中断的抢占优先级高，这样才能实时接收从机数据
    //串口的抢占优先级一定要比外部中断的抢占优先级高，这样才能实时接收从机数据
    //串口的抢占优先级一定要比外部中断的抢占优先级高，这样才能实时接收从机数据

    uart_init(UART_3, 460800, UART3_TX_B10, UART3_RX_B11);  //串口3初始化，波特率460800
     a1a:	02100693          	li	a3,33
     a1e:	02000613          	li	a2,32
     a22:	000717b7          	lui	a5,0x71
     a26:	80078593          	addi	a1,a5,-2048 # 70800 <_data_lma+0x69a98>
     a2a:	4509                	li	a0,2
     a2c:	073030ef          	jal	ra,429e <uart_init>
C:\Users\windows\Desktop\smart_car\MASTER\obj/../USER/main.c:193
    uart_rx_irq(UART_3, ENABLE);                            //默认抢占优先级0 次优先级0。
     a30:	4585                	li	a1,1
     a32:	4509                	li	a0,2
     a34:	20f030ef          	jal	ra,4442 <uart_rx_irq>
C:\Users\windows\Desktop\smart_car\MASTER\obj/../USER/main.c:194
    gpio_interrupt_init(A0, RISING, GPIO_INT_CONFIG);       //A0初始化为GPIO 上升沿触发
     a38:	04800613          	li	a2,72
     a3c:	45a1                	li	a1,8
     a3e:	4501                	li	a0,0
     a40:	652020ef          	jal	ra,3092 <gpio_interrupt_init>
C:\Users\windows\Desktop\smart_car\MASTER\obj/../USER/main.c:195
    nvic_init(EXTI0_IRQn, 1, 1, ENABLE);                    //EXTI0优先级配置，抢占优先级1，次优先级1
     a44:	4685                	li	a3,1
     a46:	4605                	li	a2,1
     a48:	4585                	li	a1,1
     a4a:	4559                	li	a0,22
     a4c:	6c6020ef          	jal	ra,3112 <nvic_init>
C:\Users\windows\Desktop\smart_car\MASTER\obj/../USER/main.c:197

    PID_Init(&Pid_fl);
     a50:	86418513          	addi	a0,gp,-1948 # 200000d4 <Pid_fl>
     a54:	6e1030ef          	jal	ra,4934 <PID_Init>
C:\Users\windows\Desktop\smart_car\MASTER\obj/../USER/main.c:198
    PID_Init(&Pid_fr);
     a58:	89418513          	addi	a0,gp,-1900 # 20000104 <Pid_fr>
     a5c:	6d9030ef          	jal	ra,4934 <PID_Init>
C:\Users\windows\Desktop\smart_car\MASTER\obj/../USER/main.c:199
    PID_Init(&Pid_rl);
     a60:	8c418513          	addi	a0,gp,-1852 # 20000134 <Pid_rl>
     a64:	6d1030ef          	jal	ra,4934 <PID_Init>
C:\Users\windows\Desktop\smart_car\MASTER\obj/../USER/main.c:200
    PID_Init(&Pid_rr);
     a68:	8f418513          	addi	a0,gp,-1804 # 20000164 <Pid_rr>
     a6c:	6c9030ef          	jal	ra,4934 <PID_Init>
C:\Users\windows\Desktop\smart_car\MASTER\obj/../USER/main.c:201
    Duty_Init();
     a70:	4a1030ef          	jal	ra,4710 <Duty_Init>
C:\Users\windows\Desktop\smart_car\MASTER\obj/../USER/main.c:202
    Encoder_Init_Master();
     a74:	37b5                	jal	9e0 <Encoder_Init_Master>
C:\Users\windows\Desktop\smart_car\MASTER\obj/../USER/main.c:208

    //ips114_showstr(0, 3, "test");
    //systick_delay_ms(300);
    //此处编写用户代码(例如：外设初始化代码等)
    //总中断最后开启
    EnableGlobalIRQ(0);
     a76:	4501                	li	a0,0
     a78:	7b8020ef          	jal	ra,3230 <EnableGlobalIRQ>
C:\Users\windows\Desktop\smart_car\MASTER\obj/../USER/main.c:211 (discriminator 1)
    while(1)
    {
        Duty_All(-3000, -3000, -3000, -3000);
     a7c:	77fd                	lui	a5,0xfffff
     a7e:	44878693          	addi	a3,a5,1096 # fffff448 <_eusrstack+0xdfffa448>
     a82:	77fd                	lui	a5,0xfffff
     a84:	44878613          	addi	a2,a5,1096 # fffff448 <_eusrstack+0xdfffa448>
     a88:	77fd                	lui	a5,0xfffff
     a8a:	44878593          	addi	a1,a5,1096 # fffff448 <_eusrstack+0xdfffa448>
     a8e:	77fd                	lui	a5,0xfffff
     a90:	44878513          	addi	a0,a5,1096 # fffff448 <_eusrstack+0xdfffa448>
     a94:	657030ef          	jal	ra,48ea <Duty_All>
     a98:	b7d5                	j	a7c <main+0x76>

00000a9a <handle_reset>:
handle_reset():
C:\Users\windows\Desktop\smart_car\MASTER\obj/../Libraries/wch_libraries/Startup/startup_ch32v10x.S:147
	.weak	handle_reset
	.align	1
handle_reset:
.option push 
.option	norelax 
	la gp, __global_pointer$
     a9a:	20000197          	auipc	gp,0x20000
     a9e:	dd618193          	addi	gp,gp,-554 # 20000870 <__global_pointer$>
C:\Users\windows\Desktop\smart_car\MASTER\obj/../Libraries/wch_libraries/Startup/startup_ch32v10x.S:150
.option	pop 
1:
	la sp, _eusrstack 
     aa2:	20004117          	auipc	sp,0x20004
     aa6:	55e10113          	addi	sp,sp,1374 # 20005000 <_eusrstack>
C:\Users\windows\Desktop\smart_car\MASTER\obj/../Libraries/wch_libraries/Startup/startup_ch32v10x.S:153
2:
	/* Load data section from flash to RAM */
	la a0, _data_lma
     aaa:	00006517          	auipc	a0,0x6
     aae:	2be50513          	addi	a0,a0,702 # 6d68 <_data_lma>
C:\Users\windows\Desktop\smart_car\MASTER\obj/../Libraries/wch_libraries/Startup/startup_ch32v10x.S:154
	la a1, _data_vma
     ab2:	1ffff597          	auipc	a1,0x1ffff
     ab6:	54e58593          	addi	a1,a1,1358 # 20000000 <_data_vma>
C:\Users\windows\Desktop\smart_car\MASTER\obj/../Libraries/wch_libraries/Startup/startup_ch32v10x.S:155
	la a2, _edata
     aba:	81818613          	addi	a2,gp,-2024 # 20000088 <_edata>
C:\Users\windows\Desktop\smart_car\MASTER\obj/../Libraries/wch_libraries/Startup/startup_ch32v10x.S:156
	bgeu a1, a2, 2f
     abe:	00c5fa63          	bgeu	a1,a2,ad2 <handle_reset+0x38>
C:\Users\windows\Desktop\smart_car\MASTER\obj/../Libraries/wch_libraries/Startup/startup_ch32v10x.S:158
1:
	lw t0, (a0)
     ac2:	00052283          	lw	t0,0(a0)
C:\Users\windows\Desktop\smart_car\MASTER\obj/../Libraries/wch_libraries/Startup/startup_ch32v10x.S:159
	sw t0, (a1)
     ac6:	0055a023          	sw	t0,0(a1)
C:\Users\windows\Desktop\smart_car\MASTER\obj/../Libraries/wch_libraries/Startup/startup_ch32v10x.S:160
	addi a0, a0, 4
     aca:	0511                	addi	a0,a0,4
C:\Users\windows\Desktop\smart_car\MASTER\obj/../Libraries/wch_libraries/Startup/startup_ch32v10x.S:161
	addi a1, a1, 4
     acc:	0591                	addi	a1,a1,4
C:\Users\windows\Desktop\smart_car\MASTER\obj/../Libraries/wch_libraries/Startup/startup_ch32v10x.S:162
	bltu a1, a2, 1b
     ace:	fec5eae3          	bltu	a1,a2,ac2 <handle_reset+0x28>
C:\Users\windows\Desktop\smart_car\MASTER\obj/../Libraries/wch_libraries/Startup/startup_ch32v10x.S:165
2:
	/* clear bss section */
	la a0, _sbss
     ad2:	81818513          	addi	a0,gp,-2024 # 20000088 <_edata>
C:\Users\windows\Desktop\smart_car\MASTER\obj/../Libraries/wch_libraries/Startup/startup_ch32v10x.S:166
	la a1, _ebss
     ad6:	93418593          	addi	a1,gp,-1740 # 200001a4 <_ebss>
C:\Users\windows\Desktop\smart_car\MASTER\obj/../Libraries/wch_libraries/Startup/startup_ch32v10x.S:167
	bgeu a0, a1, 2f
     ada:	00b57763          	bgeu	a0,a1,ae8 <handle_reset+0x4e>
C:\Users\windows\Desktop\smart_car\MASTER\obj/../Libraries/wch_libraries/Startup/startup_ch32v10x.S:169
1:
	sw zero, (a0)
     ade:	00052023          	sw	zero,0(a0)
C:\Users\windows\Desktop\smart_car\MASTER\obj/../Libraries/wch_libraries/Startup/startup_ch32v10x.S:170
	addi a0, a0, 4
     ae2:	0511                	addi	a0,a0,4
C:\Users\windows\Desktop\smart_car\MASTER\obj/../Libraries/wch_libraries/Startup/startup_ch32v10x.S:171
	bltu a0, a1, 1b
     ae4:	feb56de3          	bltu	a0,a1,ade <handle_reset+0x44>
C:\Users\windows\Desktop\smart_car\MASTER\obj/../Libraries/wch_libraries/Startup/startup_ch32v10x.S:174
2:
	/* enable all interrupt */
  li t0, 0x88
     ae8:	08800293          	li	t0,136
C:\Users\windows\Desktop\smart_car\MASTER\obj/../Libraries/wch_libraries/Startup/startup_ch32v10x.S:175
  csrs mstatus, t0
     aec:	3002a073          	csrs	mstatus,t0
C:\Users\windows\Desktop\smart_car\MASTER\obj/../Libraries/wch_libraries/Startup/startup_ch32v10x.S:176
	la t0, _vector_base
     af0:	fffff297          	auipc	t0,0xfffff
     af4:	54828293          	addi	t0,t0,1352 # 38 <_einit>
C:\Users\windows\Desktop\smart_car\MASTER\obj/../Libraries/wch_libraries/Startup/startup_ch32v10x.S:177
  ori t0, t0, 1
     af8:	0012e293          	ori	t0,t0,1
C:\Users\windows\Desktop\smart_car\MASTER\obj/../Libraries/wch_libraries/Startup/startup_ch32v10x.S:178
	csrw mtvec, t0
     afc:	30529073          	csrw	mtvec,t0
C:\Users\windows\Desktop\smart_car\MASTER\obj/../Libraries/wch_libraries/Startup/startup_ch32v10x.S:180

  jal  SystemInit
     b00:	393030ef          	jal	ra,4692 <SystemInit>
C:\Users\windows\Desktop\smart_car\MASTER\obj/../Libraries/wch_libraries/Startup/startup_ch32v10x.S:181
	la t0, main
     b04:	00000297          	auipc	t0,0x0
     b08:	f0228293          	addi	t0,t0,-254 # a06 <main>
C:\Users\windows\Desktop\smart_car\MASTER\obj/../Libraries/wch_libraries/Startup/startup_ch32v10x.S:182
	csrw mepc, t0
     b0c:	34129073          	csrw	mepc,t0
C:\Users\windows\Desktop\smart_car\MASTER\obj/../Libraries/wch_libraries/Startup/startup_ch32v10x.S:183
	mret
     b10:	30200073          	mret

00000b14 <DMA_GetFlagStatus>:
DMA_GetFlagStatus():
C:\Users\windows\Desktop\smart_car\MASTER\obj/../Libraries/wch_libraries/Peripheral/ch32v10x_dma.c:290
*                      DMA2_FLAG_HT5: DMA2 Channel5 half transfer flag.
*                      DMA2_FLAG_TE5: DMA2 Channel5 transfer error flag.
* Return         : The new state of DMAy_FLAG (SET or RESET). 
*********************************************************************************/
FlagStatus DMA_GetFlagStatus(uint32_t DMAy_FLAG)
{
     b14:	7179                	addi	sp,sp,-48
     b16:	d622                	sw	s0,44(sp)
     b18:	1800                	addi	s0,sp,48
     b1a:	fca42e23          	sw	a0,-36(s0)
C:\Users\windows\Desktop\smart_car\MASTER\obj/../Libraries/wch_libraries/Peripheral/ch32v10x_dma.c:291
  FlagStatus bitstatus = RESET;
     b1e:	fe042623          	sw	zero,-20(s0)
C:\Users\windows\Desktop\smart_car\MASTER\obj/../Libraries/wch_libraries/Peripheral/ch32v10x_dma.c:292
  uint32_t tmpreg = 0;
     b22:	fe042423          	sw	zero,-24(s0)
C:\Users\windows\Desktop\smart_car\MASTER\obj/../Libraries/wch_libraries/Peripheral/ch32v10x_dma.c:294
  
  if ((DMAy_FLAG & FLAG_Mask) != (uint32_t)RESET)
     b26:	fdc42703          	lw	a4,-36(s0)
     b2a:	100007b7          	lui	a5,0x10000
     b2e:	8ff9                	and	a5,a5,a4
     b30:	cb89                	beqz	a5,b42 <DMA_GetFlagStatus+0x2e>
C:\Users\windows\Desktop\smart_car\MASTER\obj/../Libraries/wch_libraries/Peripheral/ch32v10x_dma.c:296
  {
    tmpreg = DMA2->INTFR ;
     b32:	400207b7          	lui	a5,0x40020
     b36:	40078793          	addi	a5,a5,1024 # 40020400 <_eusrstack+0x2001b400>
     b3a:	439c                	lw	a5,0(a5)
     b3c:	fef42423          	sw	a5,-24(s0)
     b40:	a031                	j	b4c <DMA_GetFlagStatus+0x38>
C:\Users\windows\Desktop\smart_car\MASTER\obj/../Libraries/wch_libraries/Peripheral/ch32v10x_dma.c:300
  }
  else
  {
    tmpreg = DMA1->INTFR ;
     b42:	400207b7          	lui	a5,0x40020
     b46:	439c                	lw	a5,0(a5)
     b48:	fef42423          	sw	a5,-24(s0)
C:\Users\windows\Desktop\smart_car\MASTER\obj/../Libraries/wch_libraries/Peripheral/ch32v10x_dma.c:303
  }

  if ((tmpreg & DMAy_FLAG) != (uint32_t)RESET)
     b4c:	fe842703          	lw	a4,-24(s0)
     b50:	fdc42783          	lw	a5,-36(s0)
     b54:	8ff9                	and	a5,a5,a4
     b56:	c789                	beqz	a5,b60 <DMA_GetFlagStatus+0x4c>
C:\Users\windows\Desktop\smart_car\MASTER\obj/../Libraries/wch_libraries/Peripheral/ch32v10x_dma.c:305
  {
    bitstatus = SET;
     b58:	4785                	li	a5,1
     b5a:	fef42623          	sw	a5,-20(s0)
     b5e:	a019                	j	b64 <DMA_GetFlagStatus+0x50>
C:\Users\windows\Desktop\smart_car\MASTER\obj/../Libraries/wch_libraries/Peripheral/ch32v10x_dma.c:309
  }
  else
  {
    bitstatus = RESET;
     b60:	fe042623          	sw	zero,-20(s0)
C:\Users\windows\Desktop\smart_car\MASTER\obj/../Libraries/wch_libraries/Peripheral/ch32v10x_dma.c:312
  }
  
  return  bitstatus;
     b64:	fec42783          	lw	a5,-20(s0)
C:\Users\windows\Desktop\smart_car\MASTER\obj/../Libraries/wch_libraries/Peripheral/ch32v10x_dma.c:313
}
     b68:	853e                	mv	a0,a5
     b6a:	5432                	lw	s0,44(sp)
     b6c:	6145                	addi	sp,sp,48
     b6e:	8082                	ret

00000b70 <DMA_ClearFlag>:
DMA_ClearFlag():
C:\Users\windows\Desktop\smart_car\MASTER\obj/../Libraries/wch_libraries/Peripheral/ch32v10x_dma.c:371
*                      DMA2_FLAG_HT5: DMA2 Channel5 half transfer flag.
*                      DMA2_FLAG_TE5: DMA2 Channel5 transfer error flag.
* Return         : None 
*********************************************************************************/
void DMA_ClearFlag(uint32_t DMAy_FLAG)
{
     b70:	1101                	addi	sp,sp,-32
     b72:	ce22                	sw	s0,28(sp)
     b74:	1000                	addi	s0,sp,32
     b76:	fea42623          	sw	a0,-20(s0)
C:\Users\windows\Desktop\smart_car\MASTER\obj/../Libraries/wch_libraries/Peripheral/ch32v10x_dma.c:372
  if ((DMAy_FLAG & FLAG_Mask) != (uint32_t)RESET)
     b7a:	fec42703          	lw	a4,-20(s0)
     b7e:	100007b7          	lui	a5,0x10000
     b82:	8ff9                	and	a5,a5,a4
     b84:	cb89                	beqz	a5,b96 <DMA_ClearFlag+0x26>
C:\Users\windows\Desktop\smart_car\MASTER\obj/../Libraries/wch_libraries/Peripheral/ch32v10x_dma.c:374
  {
    DMA2->INTFCR = DMAy_FLAG;
     b86:	400207b7          	lui	a5,0x40020
     b8a:	40078793          	addi	a5,a5,1024 # 40020400 <_eusrstack+0x2001b400>
     b8e:	fec42703          	lw	a4,-20(s0)
     b92:	c3d8                	sw	a4,4(a5)
C:\Users\windows\Desktop\smart_car\MASTER\obj/../Libraries/wch_libraries/Peripheral/ch32v10x_dma.c:380
  }
  else
  {
    DMA1->INTFCR = DMAy_FLAG;
  }
}
     b94:	a031                	j	ba0 <DMA_ClearFlag+0x30>
C:\Users\windows\Desktop\smart_car\MASTER\obj/../Libraries/wch_libraries/Peripheral/ch32v10x_dma.c:378
    DMA1->INTFCR = DMAy_FLAG;
     b96:	400207b7          	lui	a5,0x40020
     b9a:	fec42703          	lw	a4,-20(s0)
     b9e:	c3d8                	sw	a4,4(a5)
C:\Users\windows\Desktop\smart_car\MASTER\obj/../Libraries/wch_libraries/Peripheral/ch32v10x_dma.c:380
}
     ba0:	0001                	nop
     ba2:	4472                	lw	s0,28(sp)
     ba4:	6105                	addi	sp,sp,32
     ba6:	8082                	ret

00000ba8 <EXTI_Init>:
EXTI_Init():
C:\Users\windows\Desktop\smart_car\MASTER\obj/../Libraries/wch_libraries/Peripheral/ch32v10x_exti.c:37
*                  parameters in the EXTI_InitStruct.
* Input          : EXTI_InitStruct: pointer to a EXTI_InitTypeDef structure
* Return         : None
*********************************************************************************/	
void EXTI_Init(EXTI_InitTypeDef* EXTI_InitStruct)
{
     ba8:	7179                	addi	sp,sp,-48
     baa:	d622                	sw	s0,44(sp)
     bac:	1800                	addi	s0,sp,48
     bae:	fca42e23          	sw	a0,-36(s0)
C:\Users\windows\Desktop\smart_car\MASTER\obj/../Libraries/wch_libraries/Peripheral/ch32v10x_exti.c:38
  uint32_t tmp = 0;
     bb2:	fe042623          	sw	zero,-20(s0)
C:\Users\windows\Desktop\smart_car\MASTER\obj/../Libraries/wch_libraries/Peripheral/ch32v10x_exti.c:40

  tmp = (uint32_t)EXTI_BASE;
     bb6:	400107b7          	lui	a5,0x40010
     bba:	40078793          	addi	a5,a5,1024 # 40010400 <_eusrstack+0x2000b400>
     bbe:	fef42623          	sw	a5,-20(s0)
C:\Users\windows\Desktop\smart_car\MASTER\obj/../Libraries/wch_libraries/Peripheral/ch32v10x_exti.c:41
  if (EXTI_InitStruct->EXTI_LineCmd != DISABLE)
     bc2:	fdc42783          	lw	a5,-36(s0)
     bc6:	47dc                	lw	a5,12(a5)
     bc8:	12078063          	beqz	a5,ce8 <EXTI_Init+0x140>
C:\Users\windows\Desktop\smart_car\MASTER\obj/../Libraries/wch_libraries/Peripheral/ch32v10x_exti.c:43
  {
    EXTI->INTENR &= ~EXTI_InitStruct->EXTI_Line;
     bcc:	400107b7          	lui	a5,0x40010
     bd0:	40078793          	addi	a5,a5,1024 # 40010400 <_eusrstack+0x2000b400>
     bd4:	4394                	lw	a3,0(a5)
     bd6:	fdc42783          	lw	a5,-36(s0)
     bda:	439c                	lw	a5,0(a5)
     bdc:	fff7c713          	not	a4,a5
     be0:	400107b7          	lui	a5,0x40010
     be4:	40078793          	addi	a5,a5,1024 # 40010400 <_eusrstack+0x2000b400>
     be8:	8f75                	and	a4,a4,a3
     bea:	c398                	sw	a4,0(a5)
C:\Users\windows\Desktop\smart_car\MASTER\obj/../Libraries/wch_libraries/Peripheral/ch32v10x_exti.c:44
    EXTI->EVENR &= ~EXTI_InitStruct->EXTI_Line;
     bec:	400107b7          	lui	a5,0x40010
     bf0:	40078793          	addi	a5,a5,1024 # 40010400 <_eusrstack+0x2000b400>
     bf4:	43d4                	lw	a3,4(a5)
     bf6:	fdc42783          	lw	a5,-36(s0)
     bfa:	439c                	lw	a5,0(a5)
     bfc:	fff7c713          	not	a4,a5
     c00:	400107b7          	lui	a5,0x40010
     c04:	40078793          	addi	a5,a5,1024 # 40010400 <_eusrstack+0x2000b400>
     c08:	8f75                	and	a4,a4,a3
     c0a:	c3d8                	sw	a4,4(a5)
C:\Users\windows\Desktop\smart_car\MASTER\obj/../Libraries/wch_libraries/Peripheral/ch32v10x_exti.c:45
    tmp += EXTI_InitStruct->EXTI_Mode;
     c0c:	fdc42783          	lw	a5,-36(s0)
     c10:	43dc                	lw	a5,4(a5)
     c12:	fec42703          	lw	a4,-20(s0)
     c16:	97ba                	add	a5,a5,a4
     c18:	fef42623          	sw	a5,-20(s0)
C:\Users\windows\Desktop\smart_car\MASTER\obj/../Libraries/wch_libraries/Peripheral/ch32v10x_exti.c:46
    *(__IO uint32_t *) tmp |= EXTI_InitStruct->EXTI_Line;
     c1c:	fec42783          	lw	a5,-20(s0)
     c20:	4394                	lw	a3,0(a5)
     c22:	fdc42783          	lw	a5,-36(s0)
     c26:	4398                	lw	a4,0(a5)
     c28:	fec42783          	lw	a5,-20(s0)
     c2c:	8f55                	or	a4,a4,a3
     c2e:	c398                	sw	a4,0(a5)
C:\Users\windows\Desktop\smart_car\MASTER\obj/../Libraries/wch_libraries/Peripheral/ch32v10x_exti.c:47
    EXTI->RTENR &= ~EXTI_InitStruct->EXTI_Line;
     c30:	400107b7          	lui	a5,0x40010
     c34:	40078793          	addi	a5,a5,1024 # 40010400 <_eusrstack+0x2000b400>
     c38:	4794                	lw	a3,8(a5)
     c3a:	fdc42783          	lw	a5,-36(s0)
     c3e:	439c                	lw	a5,0(a5)
     c40:	fff7c713          	not	a4,a5
     c44:	400107b7          	lui	a5,0x40010
     c48:	40078793          	addi	a5,a5,1024 # 40010400 <_eusrstack+0x2000b400>
     c4c:	8f75                	and	a4,a4,a3
     c4e:	c798                	sw	a4,8(a5)
C:\Users\windows\Desktop\smart_car\MASTER\obj/../Libraries/wch_libraries/Peripheral/ch32v10x_exti.c:48
    EXTI->FTENR &= ~EXTI_InitStruct->EXTI_Line;
     c50:	400107b7          	lui	a5,0x40010
     c54:	40078793          	addi	a5,a5,1024 # 40010400 <_eusrstack+0x2000b400>
     c58:	47d4                	lw	a3,12(a5)
     c5a:	fdc42783          	lw	a5,-36(s0)
     c5e:	439c                	lw	a5,0(a5)
     c60:	fff7c713          	not	a4,a5
     c64:	400107b7          	lui	a5,0x40010
     c68:	40078793          	addi	a5,a5,1024 # 40010400 <_eusrstack+0x2000b400>
     c6c:	8f75                	and	a4,a4,a3
     c6e:	c7d8                	sw	a4,12(a5)
C:\Users\windows\Desktop\smart_car\MASTER\obj/../Libraries/wch_libraries/Peripheral/ch32v10x_exti.c:49
    if (EXTI_InitStruct->EXTI_Trigger == EXTI_Trigger_Rising_Falling)
     c70:	fdc42783          	lw	a5,-36(s0)
     c74:	4798                	lw	a4,8(a5)
     c76:	47c1                	li	a5,16
     c78:	02f71f63          	bne	a4,a5,cb6 <EXTI_Init+0x10e>
C:\Users\windows\Desktop\smart_car\MASTER\obj/../Libraries/wch_libraries/Peripheral/ch32v10x_exti.c:51
    {
      EXTI->RTENR |= EXTI_InitStruct->EXTI_Line;
     c7c:	400107b7          	lui	a5,0x40010
     c80:	40078793          	addi	a5,a5,1024 # 40010400 <_eusrstack+0x2000b400>
     c84:	4794                	lw	a3,8(a5)
     c86:	fdc42783          	lw	a5,-36(s0)
     c8a:	4398                	lw	a4,0(a5)
     c8c:	400107b7          	lui	a5,0x40010
     c90:	40078793          	addi	a5,a5,1024 # 40010400 <_eusrstack+0x2000b400>
     c94:	8f55                	or	a4,a4,a3
     c96:	c798                	sw	a4,8(a5)
C:\Users\windows\Desktop\smart_car\MASTER\obj/../Libraries/wch_libraries/Peripheral/ch32v10x_exti.c:52
      EXTI->FTENR |= EXTI_InitStruct->EXTI_Line;
     c98:	400107b7          	lui	a5,0x40010
     c9c:	40078793          	addi	a5,a5,1024 # 40010400 <_eusrstack+0x2000b400>
     ca0:	47d4                	lw	a3,12(a5)
     ca2:	fdc42783          	lw	a5,-36(s0)
     ca6:	4398                	lw	a4,0(a5)
     ca8:	400107b7          	lui	a5,0x40010
     cac:	40078793          	addi	a5,a5,1024 # 40010400 <_eusrstack+0x2000b400>
     cb0:	8f55                	or	a4,a4,a3
     cb2:	c7d8                	sw	a4,12(a5)
C:\Users\windows\Desktop\smart_car\MASTER\obj/../Libraries/wch_libraries/Peripheral/ch32v10x_exti.c:66
  else
  {
    tmp += EXTI_InitStruct->EXTI_Mode;
    *(__IO uint32_t *) tmp &= ~EXTI_InitStruct->EXTI_Line;
  }
}
     cb4:	a8b1                	j	d10 <EXTI_Init+0x168>
C:\Users\windows\Desktop\smart_car\MASTER\obj/../Libraries/wch_libraries/Peripheral/ch32v10x_exti.c:56
      tmp = (uint32_t)EXTI_BASE;
     cb6:	400107b7          	lui	a5,0x40010
     cba:	40078793          	addi	a5,a5,1024 # 40010400 <_eusrstack+0x2000b400>
     cbe:	fef42623          	sw	a5,-20(s0)
C:\Users\windows\Desktop\smart_car\MASTER\obj/../Libraries/wch_libraries/Peripheral/ch32v10x_exti.c:57
      tmp += EXTI_InitStruct->EXTI_Trigger;
     cc2:	fdc42783          	lw	a5,-36(s0)
     cc6:	479c                	lw	a5,8(a5)
     cc8:	fec42703          	lw	a4,-20(s0)
     ccc:	97ba                	add	a5,a5,a4
     cce:	fef42623          	sw	a5,-20(s0)
C:\Users\windows\Desktop\smart_car\MASTER\obj/../Libraries/wch_libraries/Peripheral/ch32v10x_exti.c:58
      *(__IO uint32_t *) tmp |= EXTI_InitStruct->EXTI_Line;
     cd2:	fec42783          	lw	a5,-20(s0)
     cd6:	4394                	lw	a3,0(a5)
     cd8:	fdc42783          	lw	a5,-36(s0)
     cdc:	4398                	lw	a4,0(a5)
     cde:	fec42783          	lw	a5,-20(s0)
     ce2:	8f55                	or	a4,a4,a3
     ce4:	c398                	sw	a4,0(a5)
C:\Users\windows\Desktop\smart_car\MASTER\obj/../Libraries/wch_libraries/Peripheral/ch32v10x_exti.c:66
}
     ce6:	a02d                	j	d10 <EXTI_Init+0x168>
C:\Users\windows\Desktop\smart_car\MASTER\obj/../Libraries/wch_libraries/Peripheral/ch32v10x_exti.c:63
    tmp += EXTI_InitStruct->EXTI_Mode;
     ce8:	fdc42783          	lw	a5,-36(s0)
     cec:	43dc                	lw	a5,4(a5)
     cee:	fec42703          	lw	a4,-20(s0)
     cf2:	97ba                	add	a5,a5,a4
     cf4:	fef42623          	sw	a5,-20(s0)
C:\Users\windows\Desktop\smart_car\MASTER\obj/../Libraries/wch_libraries/Peripheral/ch32v10x_exti.c:64
    *(__IO uint32_t *) tmp &= ~EXTI_InitStruct->EXTI_Line;
     cf8:	fec42783          	lw	a5,-20(s0)
     cfc:	4394                	lw	a3,0(a5)
     cfe:	fdc42783          	lw	a5,-36(s0)
     d02:	439c                	lw	a5,0(a5)
     d04:	fff7c713          	not	a4,a5
     d08:	fec42783          	lw	a5,-20(s0)
     d0c:	8f75                	and	a4,a4,a3
     d0e:	c398                	sw	a4,0(a5)
C:\Users\windows\Desktop\smart_car\MASTER\obj/../Libraries/wch_libraries/Peripheral/ch32v10x_exti.c:66
}
     d10:	0001                	nop
     d12:	5432                	lw	s0,44(sp)
     d14:	6145                	addi	sp,sp,48
     d16:	8082                	ret

00000d18 <EXTI_GetITStatus>:
EXTI_GetITStatus():
C:\Users\windows\Desktop\smart_car\MASTER\obj/../Libraries/wch_libraries/Peripheral/ch32v10x_exti.c:131
* Description    : Checks whether the specified EXTI line is asserted or not.
* Input          : EXTI_Line: specifies the EXTI lines to be enabled or disabled.
* Return         : The new state of EXTI_Line (SET or RESET).
*********************************************************************************/	
ITStatus EXTI_GetITStatus(uint32_t EXTI_Line)
{
     d18:	7179                	addi	sp,sp,-48
     d1a:	d622                	sw	s0,44(sp)
     d1c:	1800                	addi	s0,sp,48
     d1e:	fca42e23          	sw	a0,-36(s0)
C:\Users\windows\Desktop\smart_car\MASTER\obj/../Libraries/wch_libraries/Peripheral/ch32v10x_exti.c:132
  ITStatus bitstatus = RESET;
     d22:	fe042623          	sw	zero,-20(s0)
C:\Users\windows\Desktop\smart_car\MASTER\obj/../Libraries/wch_libraries/Peripheral/ch32v10x_exti.c:133
  uint32_t enablestatus = 0;
     d26:	fe042423          	sw	zero,-24(s0)
C:\Users\windows\Desktop\smart_car\MASTER\obj/../Libraries/wch_libraries/Peripheral/ch32v10x_exti.c:135
  
  enablestatus =  EXTI->INTENR & EXTI_Line;
     d2a:	400107b7          	lui	a5,0x40010
     d2e:	40078793          	addi	a5,a5,1024 # 40010400 <_eusrstack+0x2000b400>
     d32:	439c                	lw	a5,0(a5)
     d34:	fdc42703          	lw	a4,-36(s0)
     d38:	8ff9                	and	a5,a5,a4
     d3a:	fef42423          	sw	a5,-24(s0)
C:\Users\windows\Desktop\smart_car\MASTER\obj/../Libraries/wch_libraries/Peripheral/ch32v10x_exti.c:136
  if (((EXTI->INTFR & EXTI_Line) != (uint32_t)RESET) && (enablestatus != (uint32_t)RESET))
     d3e:	400107b7          	lui	a5,0x40010
     d42:	40078793          	addi	a5,a5,1024 # 40010400 <_eusrstack+0x2000b400>
     d46:	4bd8                	lw	a4,20(a5)
     d48:	fdc42783          	lw	a5,-36(s0)
     d4c:	8ff9                	and	a5,a5,a4
     d4e:	cb81                	beqz	a5,d5e <EXTI_GetITStatus+0x46>
C:\Users\windows\Desktop\smart_car\MASTER\obj/../Libraries/wch_libraries/Peripheral/ch32v10x_exti.c:136 (discriminator 1)
     d50:	fe842783          	lw	a5,-24(s0)
     d54:	c789                	beqz	a5,d5e <EXTI_GetITStatus+0x46>
C:\Users\windows\Desktop\smart_car\MASTER\obj/../Libraries/wch_libraries/Peripheral/ch32v10x_exti.c:138
  {
    bitstatus = SET;
     d56:	4785                	li	a5,1
     d58:	fef42623          	sw	a5,-20(s0)
     d5c:	a019                	j	d62 <EXTI_GetITStatus+0x4a>
C:\Users\windows\Desktop\smart_car\MASTER\obj/../Libraries/wch_libraries/Peripheral/ch32v10x_exti.c:142
  }
  else
  {
    bitstatus = RESET;
     d5e:	fe042623          	sw	zero,-20(s0)
C:\Users\windows\Desktop\smart_car\MASTER\obj/../Libraries/wch_libraries/Peripheral/ch32v10x_exti.c:144
  }
  return bitstatus;
     d62:	fec42783          	lw	a5,-20(s0)
C:\Users\windows\Desktop\smart_car\MASTER\obj/../Libraries/wch_libraries/Peripheral/ch32v10x_exti.c:145
}
     d66:	853e                	mv	a0,a5
     d68:	5432                	lw	s0,44(sp)
     d6a:	6145                	addi	sp,sp,48
     d6c:	8082                	ret

00000d6e <EXTI_ClearITPendingBit>:
EXTI_ClearITPendingBit():
C:\Users\windows\Desktop\smart_car\MASTER\obj/../Libraries/wch_libraries/Peripheral/ch32v10x_exti.c:154
* Description    : Clears the EXTI's line pending bits.
* Input          : EXTI_Line: specifies the EXTI lines to be enabled or disabled.
* Return         : None
*********************************************************************************/
void EXTI_ClearITPendingBit(uint32_t EXTI_Line)
{  
     d6e:	1101                	addi	sp,sp,-32
     d70:	ce22                	sw	s0,28(sp)
     d72:	1000                	addi	s0,sp,32
     d74:	fea42623          	sw	a0,-20(s0)
C:\Users\windows\Desktop\smart_car\MASTER\obj/../Libraries/wch_libraries/Peripheral/ch32v10x_exti.c:155
  EXTI->INTFR = EXTI_Line;
     d78:	400107b7          	lui	a5,0x40010
     d7c:	40078793          	addi	a5,a5,1024 # 40010400 <_eusrstack+0x2000b400>
     d80:	fec42703          	lw	a4,-20(s0)
     d84:	cbd8                	sw	a4,20(a5)
C:\Users\windows\Desktop\smart_car\MASTER\obj/../Libraries/wch_libraries/Peripheral/ch32v10x_exti.c:156
}
     d86:	0001                	nop
     d88:	4472                	lw	s0,28(sp)
     d8a:	6105                	addi	sp,sp,32
     d8c:	8082                	ret

00000d8e <GPIO_Init>:
GPIO_Init():
C:\Users\windows\Desktop\smart_car\MASTER\obj/../Libraries/wch_libraries/Peripheral/ch32v10x_gpio.c:88
* Input          : GPIO_InitStruct: pointer to a GPIO_InitTypeDef structure that
*      contains the configuration information for the specified GPIO peripheral.
* Return         : None
*******************************************************************************/
void GPIO_Init(GPIO_TypeDef* GPIOx, GPIO_InitTypeDef* GPIO_InitStruct)
{
     d8e:	7139                	addi	sp,sp,-64
     d90:	de22                	sw	s0,60(sp)
     d92:	0080                	addi	s0,sp,64
     d94:	fca42623          	sw	a0,-52(s0)
     d98:	fcb42423          	sw	a1,-56(s0)
C:\Users\windows\Desktop\smart_car\MASTER\obj/../Libraries/wch_libraries/Peripheral/ch32v10x_gpio.c:89
  uint32_t currentmode = 0x00, currentpin = 0x00, pinpos = 0x00, pos = 0x00;
     d9c:	fe042623          	sw	zero,-20(s0)
     da0:	fe042023          	sw	zero,-32(s0)
     da4:	fe042423          	sw	zero,-24(s0)
     da8:	fc042e23          	sw	zero,-36(s0)
C:\Users\windows\Desktop\smart_car\MASTER\obj/../Libraries/wch_libraries/Peripheral/ch32v10x_gpio.c:90
  uint32_t tmpreg = 0x00, pinmask = 0x00;
     dac:	fe042223          	sw	zero,-28(s0)
     db0:	fc042c23          	sw	zero,-40(s0)
C:\Users\windows\Desktop\smart_car\MASTER\obj/../Libraries/wch_libraries/Peripheral/ch32v10x_gpio.c:92

  currentmode = ((uint32_t)GPIO_InitStruct->GPIO_Mode) & ((uint32_t)0x0F);
     db4:	fc842783          	lw	a5,-56(s0)
     db8:	479c                	lw	a5,8(a5)
     dba:	8bbd                	andi	a5,a5,15
     dbc:	fef42623          	sw	a5,-20(s0)
C:\Users\windows\Desktop\smart_car\MASTER\obj/../Libraries/wch_libraries/Peripheral/ch32v10x_gpio.c:94
	
  if ((((uint32_t)GPIO_InitStruct->GPIO_Mode) & ((uint32_t)0x10)) != 0x00)
     dc0:	fc842783          	lw	a5,-56(s0)
     dc4:	479c                	lw	a5,8(a5)
     dc6:	8bc1                	andi	a5,a5,16
     dc8:	cb89                	beqz	a5,dda <GPIO_Init+0x4c>
C:\Users\windows\Desktop\smart_car\MASTER\obj/../Libraries/wch_libraries/Peripheral/ch32v10x_gpio.c:96
  { 
    currentmode |= (uint32_t)GPIO_InitStruct->GPIO_Speed;
     dca:	fc842783          	lw	a5,-56(s0)
     dce:	43dc                	lw	a5,4(a5)
     dd0:	fec42703          	lw	a4,-20(s0)
     dd4:	8fd9                	or	a5,a5,a4
     dd6:	fef42623          	sw	a5,-20(s0)
C:\Users\windows\Desktop\smart_car\MASTER\obj/../Libraries/wch_libraries/Peripheral/ch32v10x_gpio.c:99
  }

  if (((uint32_t)GPIO_InitStruct->GPIO_Pin & ((uint32_t)0x00FF)) != 0x00)
     dda:	fc842783          	lw	a5,-56(s0)
     dde:	0007d783          	lhu	a5,0(a5)
     de2:	0ff7f793          	andi	a5,a5,255
     de6:	cff1                	beqz	a5,ec2 <GPIO_Init+0x134>
C:\Users\windows\Desktop\smart_car\MASTER\obj/../Libraries/wch_libraries/Peripheral/ch32v10x_gpio.c:101
  {
    tmpreg = GPIOx->CFGLR;
     de8:	fcc42783          	lw	a5,-52(s0)
     dec:	439c                	lw	a5,0(a5)
     dee:	fef42223          	sw	a5,-28(s0)
C:\Users\windows\Desktop\smart_car\MASTER\obj/../Libraries/wch_libraries/Peripheral/ch32v10x_gpio.c:103
		
    for (pinpos = 0x00; pinpos < 0x08; pinpos++)
     df2:	fe042423          	sw	zero,-24(s0)
     df6:	a865                	j	eae <GPIO_Init+0x120>
C:\Users\windows\Desktop\smart_car\MASTER\obj/../Libraries/wch_libraries/Peripheral/ch32v10x_gpio.c:105
    {
      pos = ((uint32_t)0x01) << pinpos;
     df8:	fe842783          	lw	a5,-24(s0)
     dfc:	4705                	li	a4,1
     dfe:	00f717b3          	sll	a5,a4,a5
     e02:	fcf42e23          	sw	a5,-36(s0)
C:\Users\windows\Desktop\smart_car\MASTER\obj/../Libraries/wch_libraries/Peripheral/ch32v10x_gpio.c:106
      currentpin = (GPIO_InitStruct->GPIO_Pin) & pos;
     e06:	fc842783          	lw	a5,-56(s0)
     e0a:	0007d783          	lhu	a5,0(a5)
     e0e:	873e                	mv	a4,a5
     e10:	fdc42783          	lw	a5,-36(s0)
     e14:	8ff9                	and	a5,a5,a4
     e16:	fef42023          	sw	a5,-32(s0)
C:\Users\windows\Desktop\smart_car\MASTER\obj/../Libraries/wch_libraries/Peripheral/ch32v10x_gpio.c:108
			
      if (currentpin == pos)
     e1a:	fe042703          	lw	a4,-32(s0)
     e1e:	fdc42783          	lw	a5,-36(s0)
     e22:	08f71163          	bne	a4,a5,ea4 <GPIO_Init+0x116>
C:\Users\windows\Desktop\smart_car\MASTER\obj/../Libraries/wch_libraries/Peripheral/ch32v10x_gpio.c:110
      {
        pos = pinpos << 2;
     e26:	fe842783          	lw	a5,-24(s0)
     e2a:	078a                	slli	a5,a5,0x2
     e2c:	fcf42e23          	sw	a5,-36(s0)
C:\Users\windows\Desktop\smart_car\MASTER\obj/../Libraries/wch_libraries/Peripheral/ch32v10x_gpio.c:111
        pinmask = ((uint32_t)0x0F) << pos;
     e30:	fdc42783          	lw	a5,-36(s0)
     e34:	473d                	li	a4,15
     e36:	00f717b3          	sll	a5,a4,a5
     e3a:	fcf42c23          	sw	a5,-40(s0)
C:\Users\windows\Desktop\smart_car\MASTER\obj/../Libraries/wch_libraries/Peripheral/ch32v10x_gpio.c:112
        tmpreg &= ~pinmask;
     e3e:	fd842783          	lw	a5,-40(s0)
     e42:	fff7c793          	not	a5,a5
     e46:	fe442703          	lw	a4,-28(s0)
     e4a:	8ff9                	and	a5,a5,a4
     e4c:	fef42223          	sw	a5,-28(s0)
C:\Users\windows\Desktop\smart_car\MASTER\obj/../Libraries/wch_libraries/Peripheral/ch32v10x_gpio.c:113
        tmpreg |= (currentmode << pos);
     e50:	fdc42783          	lw	a5,-36(s0)
     e54:	fec42703          	lw	a4,-20(s0)
     e58:	00f717b3          	sll	a5,a4,a5
     e5c:	fe442703          	lw	a4,-28(s0)
     e60:	8fd9                	or	a5,a5,a4
     e62:	fef42223          	sw	a5,-28(s0)
C:\Users\windows\Desktop\smart_car\MASTER\obj/../Libraries/wch_libraries/Peripheral/ch32v10x_gpio.c:115

        if (GPIO_InitStruct->GPIO_Mode == GPIO_Mode_IPD)
     e66:	fc842783          	lw	a5,-56(s0)
     e6a:	4798                	lw	a4,8(a5)
     e6c:	02800793          	li	a5,40
     e70:	00f71b63          	bne	a4,a5,e86 <GPIO_Init+0xf8>
C:\Users\windows\Desktop\smart_car\MASTER\obj/../Libraries/wch_libraries/Peripheral/ch32v10x_gpio.c:117
        {
          GPIOx->BCR = (((uint32_t)0x01) << pinpos);
     e74:	fe842783          	lw	a5,-24(s0)
     e78:	4705                	li	a4,1
     e7a:	00f71733          	sll	a4,a4,a5
     e7e:	fcc42783          	lw	a5,-52(s0)
     e82:	cbd8                	sw	a4,20(a5)
     e84:	a005                	j	ea4 <GPIO_Init+0x116>
C:\Users\windows\Desktop\smart_car\MASTER\obj/../Libraries/wch_libraries/Peripheral/ch32v10x_gpio.c:121
        }
        else
        {
          if (GPIO_InitStruct->GPIO_Mode == GPIO_Mode_IPU)
     e86:	fc842783          	lw	a5,-56(s0)
     e8a:	4798                	lw	a4,8(a5)
     e8c:	04800793          	li	a5,72
     e90:	00f71a63          	bne	a4,a5,ea4 <GPIO_Init+0x116>
C:\Users\windows\Desktop\smart_car\MASTER\obj/../Libraries/wch_libraries/Peripheral/ch32v10x_gpio.c:123
          {
            GPIOx->BSHR = (((uint32_t)0x01) << pinpos);
     e94:	fe842783          	lw	a5,-24(s0)
     e98:	4705                	li	a4,1
     e9a:	00f71733          	sll	a4,a4,a5
     e9e:	fcc42783          	lw	a5,-52(s0)
     ea2:	cb98                	sw	a4,16(a5)
C:\Users\windows\Desktop\smart_car\MASTER\obj/../Libraries/wch_libraries/Peripheral/ch32v10x_gpio.c:103 (discriminator 2)
    for (pinpos = 0x00; pinpos < 0x08; pinpos++)
     ea4:	fe842783          	lw	a5,-24(s0)
     ea8:	0785                	addi	a5,a5,1
     eaa:	fef42423          	sw	a5,-24(s0)
C:\Users\windows\Desktop\smart_car\MASTER\obj/../Libraries/wch_libraries/Peripheral/ch32v10x_gpio.c:103 (discriminator 1)
     eae:	fe842703          	lw	a4,-24(s0)
     eb2:	479d                	li	a5,7
     eb4:	f4e7f2e3          	bgeu	a5,a4,df8 <GPIO_Init+0x6a>
C:\Users\windows\Desktop\smart_car\MASTER\obj/../Libraries/wch_libraries/Peripheral/ch32v10x_gpio.c:128
          }
        }
      }
    }
    GPIOx->CFGLR = tmpreg;
     eb8:	fcc42783          	lw	a5,-52(s0)
     ebc:	fe442703          	lw	a4,-28(s0)
     ec0:	c398                	sw	a4,0(a5)
C:\Users\windows\Desktop\smart_car\MASTER\obj/../Libraries/wch_libraries/Peripheral/ch32v10x_gpio.c:131
  }

  if (GPIO_InitStruct->GPIO_Pin > 0x00FF)
     ec2:	fc842783          	lw	a5,-56(s0)
     ec6:	0007d703          	lhu	a4,0(a5)
     eca:	0ff00793          	li	a5,255
     ece:	0ee7f163          	bgeu	a5,a4,fb0 <GPIO_Init+0x222>
C:\Users\windows\Desktop\smart_car\MASTER\obj/../Libraries/wch_libraries/Peripheral/ch32v10x_gpio.c:133
  {
    tmpreg = GPIOx->CFGHR;
     ed2:	fcc42783          	lw	a5,-52(s0)
     ed6:	43dc                	lw	a5,4(a5)
     ed8:	fef42223          	sw	a5,-28(s0)
C:\Users\windows\Desktop\smart_car\MASTER\obj/../Libraries/wch_libraries/Peripheral/ch32v10x_gpio.c:135
		
    for (pinpos = 0x00; pinpos < 0x08; pinpos++)
     edc:	fe042423          	sw	zero,-24(s0)
     ee0:	a875                	j	f9c <GPIO_Init+0x20e>
C:\Users\windows\Desktop\smart_car\MASTER\obj/../Libraries/wch_libraries/Peripheral/ch32v10x_gpio.c:137
    {
      pos = (((uint32_t)0x01) << (pinpos + 0x08));
     ee2:	fe842783          	lw	a5,-24(s0)
     ee6:	07a1                	addi	a5,a5,8
     ee8:	4705                	li	a4,1
     eea:	00f717b3          	sll	a5,a4,a5
     eee:	fcf42e23          	sw	a5,-36(s0)
C:\Users\windows\Desktop\smart_car\MASTER\obj/../Libraries/wch_libraries/Peripheral/ch32v10x_gpio.c:138
      currentpin = ((GPIO_InitStruct->GPIO_Pin) & pos);
     ef2:	fc842783          	lw	a5,-56(s0)
     ef6:	0007d783          	lhu	a5,0(a5)
     efa:	873e                	mv	a4,a5
     efc:	fdc42783          	lw	a5,-36(s0)
     f00:	8ff9                	and	a5,a5,a4
     f02:	fef42023          	sw	a5,-32(s0)
C:\Users\windows\Desktop\smart_car\MASTER\obj/../Libraries/wch_libraries/Peripheral/ch32v10x_gpio.c:140
			
      if (currentpin == pos)
     f06:	fe042703          	lw	a4,-32(s0)
     f0a:	fdc42783          	lw	a5,-36(s0)
     f0e:	08f71263          	bne	a4,a5,f92 <GPIO_Init+0x204>
C:\Users\windows\Desktop\smart_car\MASTER\obj/../Libraries/wch_libraries/Peripheral/ch32v10x_gpio.c:142
      {
        pos = pinpos << 2;
     f12:	fe842783          	lw	a5,-24(s0)
     f16:	078a                	slli	a5,a5,0x2
     f18:	fcf42e23          	sw	a5,-36(s0)
C:\Users\windows\Desktop\smart_car\MASTER\obj/../Libraries/wch_libraries/Peripheral/ch32v10x_gpio.c:143
        pinmask = ((uint32_t)0x0F) << pos;
     f1c:	fdc42783          	lw	a5,-36(s0)
     f20:	473d                	li	a4,15
     f22:	00f717b3          	sll	a5,a4,a5
     f26:	fcf42c23          	sw	a5,-40(s0)
C:\Users\windows\Desktop\smart_car\MASTER\obj/../Libraries/wch_libraries/Peripheral/ch32v10x_gpio.c:144
        tmpreg &= ~pinmask;
     f2a:	fd842783          	lw	a5,-40(s0)
     f2e:	fff7c793          	not	a5,a5
     f32:	fe442703          	lw	a4,-28(s0)
     f36:	8ff9                	and	a5,a5,a4
     f38:	fef42223          	sw	a5,-28(s0)
C:\Users\windows\Desktop\smart_car\MASTER\obj/../Libraries/wch_libraries/Peripheral/ch32v10x_gpio.c:145
        tmpreg |= (currentmode << pos);
     f3c:	fdc42783          	lw	a5,-36(s0)
     f40:	fec42703          	lw	a4,-20(s0)
     f44:	00f717b3          	sll	a5,a4,a5
     f48:	fe442703          	lw	a4,-28(s0)
     f4c:	8fd9                	or	a5,a5,a4
     f4e:	fef42223          	sw	a5,-28(s0)
C:\Users\windows\Desktop\smart_car\MASTER\obj/../Libraries/wch_libraries/Peripheral/ch32v10x_gpio.c:147

        if (GPIO_InitStruct->GPIO_Mode == GPIO_Mode_IPD)
     f52:	fc842783          	lw	a5,-56(s0)
     f56:	4798                	lw	a4,8(a5)
     f58:	02800793          	li	a5,40
     f5c:	00f71b63          	bne	a4,a5,f72 <GPIO_Init+0x1e4>
C:\Users\windows\Desktop\smart_car\MASTER\obj/../Libraries/wch_libraries/Peripheral/ch32v10x_gpio.c:149
        {
          GPIOx->BCR = (((uint32_t)0x01) << (pinpos + 0x08));
     f60:	fe842783          	lw	a5,-24(s0)
     f64:	07a1                	addi	a5,a5,8
     f66:	4705                	li	a4,1
     f68:	00f71733          	sll	a4,a4,a5
     f6c:	fcc42783          	lw	a5,-52(s0)
     f70:	cbd8                	sw	a4,20(a5)
C:\Users\windows\Desktop\smart_car\MASTER\obj/../Libraries/wch_libraries/Peripheral/ch32v10x_gpio.c:152
        }

        if (GPIO_InitStruct->GPIO_Mode == GPIO_Mode_IPU)
     f72:	fc842783          	lw	a5,-56(s0)
     f76:	4798                	lw	a4,8(a5)
     f78:	04800793          	li	a5,72
     f7c:	00f71b63          	bne	a4,a5,f92 <GPIO_Init+0x204>
C:\Users\windows\Desktop\smart_car\MASTER\obj/../Libraries/wch_libraries/Peripheral/ch32v10x_gpio.c:154
        {
          GPIOx->BSHR = (((uint32_t)0x01) << (pinpos + 0x08));
     f80:	fe842783          	lw	a5,-24(s0)
     f84:	07a1                	addi	a5,a5,8
     f86:	4705                	li	a4,1
     f88:	00f71733          	sll	a4,a4,a5
     f8c:	fcc42783          	lw	a5,-52(s0)
     f90:	cb98                	sw	a4,16(a5)
C:\Users\windows\Desktop\smart_car\MASTER\obj/../Libraries/wch_libraries/Peripheral/ch32v10x_gpio.c:135 (discriminator 2)
    for (pinpos = 0x00; pinpos < 0x08; pinpos++)
     f92:	fe842783          	lw	a5,-24(s0)
     f96:	0785                	addi	a5,a5,1
     f98:	fef42423          	sw	a5,-24(s0)
C:\Users\windows\Desktop\smart_car\MASTER\obj/../Libraries/wch_libraries/Peripheral/ch32v10x_gpio.c:135 (discriminator 1)
     f9c:	fe842703          	lw	a4,-24(s0)
     fa0:	479d                	li	a5,7
     fa2:	f4e7f0e3          	bgeu	a5,a4,ee2 <GPIO_Init+0x154>
C:\Users\windows\Desktop\smart_car\MASTER\obj/../Libraries/wch_libraries/Peripheral/ch32v10x_gpio.c:158
        }
      }
    }
    GPIOx->CFGHR = tmpreg;
     fa6:	fcc42783          	lw	a5,-52(s0)
     faa:	fe442703          	lw	a4,-28(s0)
     fae:	c3d8                	sw	a4,4(a5)
C:\Users\windows\Desktop\smart_car\MASTER\obj/../Libraries/wch_libraries/Peripheral/ch32v10x_gpio.c:160
  }
}
     fb0:	0001                	nop
     fb2:	5472                	lw	s0,60(sp)
     fb4:	6121                	addi	sp,sp,64
     fb6:	8082                	ret

00000fb8 <GPIO_WriteBit>:
GPIO_WriteBit():
C:\Users\windows\Desktop\smart_car\MASTER\obj/../Libraries/wch_libraries/Peripheral/ch32v10x_gpio.c:282
*                    Bit_SetL: to clear the port pin.
*                    Bit_SetH: to set the port pin.                  
* Return         : None
*******************************************************************************/
void GPIO_WriteBit(GPIO_TypeDef* GPIOx, uint16_t GPIO_Pin, BitAction BitVal)
{
     fb8:	1101                	addi	sp,sp,-32
     fba:	ce22                	sw	s0,28(sp)
     fbc:	1000                	addi	s0,sp,32
     fbe:	fea42623          	sw	a0,-20(s0)
     fc2:	87ae                	mv	a5,a1
     fc4:	fec42223          	sw	a2,-28(s0)
     fc8:	fef41523          	sh	a5,-22(s0)
C:\Users\windows\Desktop\smart_car\MASTER\obj/../Libraries/wch_libraries/Peripheral/ch32v10x_gpio.c:283
  if (BitVal != Bit_RESET)
     fcc:	fe442783          	lw	a5,-28(s0)
     fd0:	c799                	beqz	a5,fde <GPIO_WriteBit+0x26>
C:\Users\windows\Desktop\smart_car\MASTER\obj/../Libraries/wch_libraries/Peripheral/ch32v10x_gpio.c:285
  {
    GPIOx->BSHR = GPIO_Pin;
     fd2:	fea45703          	lhu	a4,-22(s0)
     fd6:	fec42783          	lw	a5,-20(s0)
     fda:	cb98                	sw	a4,16(a5)
C:\Users\windows\Desktop\smart_car\MASTER\obj/../Libraries/wch_libraries/Peripheral/ch32v10x_gpio.c:291
  }
  else
  {
    GPIOx->BCR = GPIO_Pin;
  }
}
     fdc:	a031                	j	fe8 <GPIO_WriteBit+0x30>
C:\Users\windows\Desktop\smart_car\MASTER\obj/../Libraries/wch_libraries/Peripheral/ch32v10x_gpio.c:289
    GPIOx->BCR = GPIO_Pin;
     fde:	fea45703          	lhu	a4,-22(s0)
     fe2:	fec42783          	lw	a5,-20(s0)
     fe6:	cbd8                	sw	a4,20(a5)
C:\Users\windows\Desktop\smart_car\MASTER\obj/../Libraries/wch_libraries/Peripheral/ch32v10x_gpio.c:291
}
     fe8:	0001                	nop
     fea:	4472                	lw	s0,28(sp)
     fec:	6105                	addi	sp,sp,32
     fee:	8082                	ret

00000ff0 <GPIO_PinRemapConfig>:
GPIO_PinRemapConfig():
C:\Users\windows\Desktop\smart_car\MASTER\obj/../Libraries/wch_libraries/Peripheral/ch32v10x_gpio.c:402
*      only for High density Value line devices)     
*                  NewState: ENABLE or DISABLE.             
* Return         : None
*******************************************************************************/
void GPIO_PinRemapConfig(uint32_t GPIO_Remap, FunctionalState NewState)
{
     ff0:	7179                	addi	sp,sp,-48
     ff2:	d622                	sw	s0,44(sp)
     ff4:	1800                	addi	s0,sp,48
     ff6:	fca42e23          	sw	a0,-36(s0)
     ffa:	fcb42c23          	sw	a1,-40(s0)
C:\Users\windows\Desktop\smart_car\MASTER\obj/../Libraries/wch_libraries/Peripheral/ch32v10x_gpio.c:403
  uint32_t tmp = 0x00, tmp1 = 0x00, tmpreg = 0x00, tmpmask = 0x00;
     ffe:	fe042423          	sw	zero,-24(s0)
    1002:	fe042223          	sw	zero,-28(s0)
    1006:	fe042623          	sw	zero,-20(s0)
    100a:	fe042023          	sw	zero,-32(s0)
C:\Users\windows\Desktop\smart_car\MASTER\obj/../Libraries/wch_libraries/Peripheral/ch32v10x_gpio.c:405

  if((GPIO_Remap & 0x80000000) == 0x80000000)
    100e:	fdc42783          	lw	a5,-36(s0)
    1012:	0007d863          	bgez	a5,1022 <GPIO_PinRemapConfig+0x32>
C:\Users\windows\Desktop\smart_car\MASTER\obj/../Libraries/wch_libraries/Peripheral/ch32v10x_gpio.c:407
  {
    tmpreg = AFIO->PCFR2;
    1016:	400107b7          	lui	a5,0x40010
    101a:	4fdc                	lw	a5,28(a5)
    101c:	fef42623          	sw	a5,-20(s0)
    1020:	a031                	j	102c <GPIO_PinRemapConfig+0x3c>
C:\Users\windows\Desktop\smart_car\MASTER\obj/../Libraries/wch_libraries/Peripheral/ch32v10x_gpio.c:411
  }
  else
  {
    tmpreg = AFIO->PCFR1;
    1022:	400107b7          	lui	a5,0x40010
    1026:	43dc                	lw	a5,4(a5)
    1028:	fef42623          	sw	a5,-20(s0)
C:\Users\windows\Desktop\smart_car\MASTER\obj/../Libraries/wch_libraries/Peripheral/ch32v10x_gpio.c:414
  }

  tmpmask = (GPIO_Remap & DBGAFR_POSITION_MASK) >> 0x10;
    102c:	fdc42783          	lw	a5,-36(s0)
    1030:	83c1                	srli	a5,a5,0x10
    1032:	8bbd                	andi	a5,a5,15
    1034:	fef42023          	sw	a5,-32(s0)
C:\Users\windows\Desktop\smart_car\MASTER\obj/../Libraries/wch_libraries/Peripheral/ch32v10x_gpio.c:415
  tmp = GPIO_Remap & LSB_MASK;
    1038:	fdc42703          	lw	a4,-36(s0)
    103c:	67c1                	lui	a5,0x10
    103e:	17fd                	addi	a5,a5,-1
    1040:	8ff9                	and	a5,a5,a4
    1042:	fef42423          	sw	a5,-24(s0)
C:\Users\windows\Desktop\smart_car\MASTER\obj/../Libraries/wch_libraries/Peripheral/ch32v10x_gpio.c:417

  if ((GPIO_Remap & (DBGAFR_LOCATION_MASK | DBGAFR_NUMBITS_MASK)) == (DBGAFR_LOCATION_MASK | DBGAFR_NUMBITS_MASK))
    1046:	fdc42703          	lw	a4,-36(s0)
    104a:	003007b7          	lui	a5,0x300
    104e:	8f7d                	and	a4,a4,a5
    1050:	003007b7          	lui	a5,0x300
    1054:	02f71563          	bne	a4,a5,107e <GPIO_PinRemapConfig+0x8e>
C:\Users\windows\Desktop\smart_car\MASTER\obj/../Libraries/wch_libraries/Peripheral/ch32v10x_gpio.c:419
  {
    tmpreg &= DBGAFR_SWJCFG_MASK;
    1058:	fec42703          	lw	a4,-20(s0)
    105c:	f10007b7          	lui	a5,0xf1000
    1060:	17fd                	addi	a5,a5,-1
    1062:	8ff9                	and	a5,a5,a4
    1064:	fef42623          	sw	a5,-20(s0)
C:\Users\windows\Desktop\smart_car\MASTER\obj/../Libraries/wch_libraries/Peripheral/ch32v10x_gpio.c:420
    AFIO->PCFR1 &= DBGAFR_SWJCFG_MASK;
    1068:	400107b7          	lui	a5,0x40010
    106c:	43d4                	lw	a3,4(a5)
    106e:	400107b7          	lui	a5,0x40010
    1072:	f1000737          	lui	a4,0xf1000
    1076:	177d                	addi	a4,a4,-1
    1078:	8f75                	and	a4,a4,a3
    107a:	c3d8                	sw	a4,4(a5)
    107c:	a0ad                	j	10e6 <GPIO_PinRemapConfig+0xf6>
C:\Users\windows\Desktop\smart_car\MASTER\obj/../Libraries/wch_libraries/Peripheral/ch32v10x_gpio.c:422
  }
  else if ((GPIO_Remap & DBGAFR_NUMBITS_MASK) == DBGAFR_NUMBITS_MASK)
    107e:	fdc42703          	lw	a4,-36(s0)
    1082:	001007b7          	lui	a5,0x100
    1086:	8ff9                	and	a5,a5,a4
    1088:	cb8d                	beqz	a5,10ba <GPIO_PinRemapConfig+0xca>
C:\Users\windows\Desktop\smart_car\MASTER\obj/../Libraries/wch_libraries/Peripheral/ch32v10x_gpio.c:424
  {
    tmp1 = ((uint32_t)0x03) << tmpmask;
    108a:	fe042783          	lw	a5,-32(s0)
    108e:	470d                	li	a4,3
    1090:	00f717b3          	sll	a5,a4,a5
    1094:	fef42223          	sw	a5,-28(s0)
C:\Users\windows\Desktop\smart_car\MASTER\obj/../Libraries/wch_libraries/Peripheral/ch32v10x_gpio.c:425
    tmpreg &= ~tmp1;
    1098:	fe442783          	lw	a5,-28(s0)
    109c:	fff7c793          	not	a5,a5
    10a0:	fec42703          	lw	a4,-20(s0)
    10a4:	8ff9                	and	a5,a5,a4
    10a6:	fef42623          	sw	a5,-20(s0)
C:\Users\windows\Desktop\smart_car\MASTER\obj/../Libraries/wch_libraries/Peripheral/ch32v10x_gpio.c:426
    tmpreg |= ~DBGAFR_SWJCFG_MASK;
    10aa:	fec42703          	lw	a4,-20(s0)
    10ae:	0f0007b7          	lui	a5,0xf000
    10b2:	8fd9                	or	a5,a5,a4
    10b4:	fef42623          	sw	a5,-20(s0)
    10b8:	a03d                	j	10e6 <GPIO_PinRemapConfig+0xf6>
C:\Users\windows\Desktop\smart_car\MASTER\obj/../Libraries/wch_libraries/Peripheral/ch32v10x_gpio.c:430
  }
  else
  {
    tmpreg &= ~(tmp << ((GPIO_Remap >> 0x15)*0x10));
    10ba:	fdc42783          	lw	a5,-36(s0)
    10be:	83d5                	srli	a5,a5,0x15
    10c0:	0792                	slli	a5,a5,0x4
    10c2:	fe842703          	lw	a4,-24(s0)
    10c6:	00f717b3          	sll	a5,a4,a5
    10ca:	fff7c793          	not	a5,a5
    10ce:	fec42703          	lw	a4,-20(s0)
    10d2:	8ff9                	and	a5,a5,a4
    10d4:	fef42623          	sw	a5,-20(s0)
C:\Users\windows\Desktop\smart_car\MASTER\obj/../Libraries/wch_libraries/Peripheral/ch32v10x_gpio.c:431
    tmpreg |= ~DBGAFR_SWJCFG_MASK;
    10d8:	fec42703          	lw	a4,-20(s0)
    10dc:	0f0007b7          	lui	a5,0xf000
    10e0:	8fd9                	or	a5,a5,a4
    10e2:	fef42623          	sw	a5,-20(s0)
C:\Users\windows\Desktop\smart_car\MASTER\obj/../Libraries/wch_libraries/Peripheral/ch32v10x_gpio.c:434
  }

  if (NewState != DISABLE)
    10e6:	fd842783          	lw	a5,-40(s0)
    10ea:	cf91                	beqz	a5,1106 <GPIO_PinRemapConfig+0x116>
C:\Users\windows\Desktop\smart_car\MASTER\obj/../Libraries/wch_libraries/Peripheral/ch32v10x_gpio.c:436
  {
    tmpreg |= (tmp << ((GPIO_Remap >> 0x15)*0x10));
    10ec:	fdc42783          	lw	a5,-36(s0)
    10f0:	83d5                	srli	a5,a5,0x15
    10f2:	0792                	slli	a5,a5,0x4
    10f4:	fe842703          	lw	a4,-24(s0)
    10f8:	00f717b3          	sll	a5,a4,a5
    10fc:	fec42703          	lw	a4,-20(s0)
    1100:	8fd9                	or	a5,a5,a4
    1102:	fef42623          	sw	a5,-20(s0)
C:\Users\windows\Desktop\smart_car\MASTER\obj/../Libraries/wch_libraries/Peripheral/ch32v10x_gpio.c:439
  }

  if((GPIO_Remap & 0x80000000) == 0x80000000)
    1106:	fdc42783          	lw	a5,-36(s0)
    110a:	0007d863          	bgez	a5,111a <GPIO_PinRemapConfig+0x12a>
C:\Users\windows\Desktop\smart_car\MASTER\obj/../Libraries/wch_libraries/Peripheral/ch32v10x_gpio.c:441
  {
    AFIO->PCFR2 = tmpreg;
    110e:	400107b7          	lui	a5,0x40010
    1112:	fec42703          	lw	a4,-20(s0)
    1116:	cfd8                	sw	a4,28(a5)
C:\Users\windows\Desktop\smart_car\MASTER\obj/../Libraries/wch_libraries/Peripheral/ch32v10x_gpio.c:447
  }
  else
  {
    AFIO->PCFR1 = tmpreg;
  }  
}
    1118:	a031                	j	1124 <GPIO_PinRemapConfig+0x134>
C:\Users\windows\Desktop\smart_car\MASTER\obj/../Libraries/wch_libraries/Peripheral/ch32v10x_gpio.c:445
    AFIO->PCFR1 = tmpreg;
    111a:	400107b7          	lui	a5,0x40010
    111e:	fec42703          	lw	a4,-20(s0)
    1122:	c3d8                	sw	a4,4(a5)
C:\Users\windows\Desktop\smart_car\MASTER\obj/../Libraries/wch_libraries/Peripheral/ch32v10x_gpio.c:447
}
    1124:	0001                	nop
    1126:	5432                	lw	s0,44(sp)
    1128:	6145                	addi	sp,sp,48
    112a:	8082                	ret

0000112c <GPIO_EXTILineConfig>:
GPIO_EXTILineConfig():
C:\Users\windows\Desktop\smart_car\MASTER\obj/../Libraries/wch_libraries/Peripheral/ch32v10x_gpio.c:459
*                  GPIO_PinSource: specifies the EXTI line to be configured.
*                    This parameter can be GPIO_PinSourcex where x can be (0..15).
* Return         : None
*******************************************************************************/
void GPIO_EXTILineConfig(uint8_t GPIO_PortSource, uint8_t GPIO_PinSource)
{
    112c:	7179                	addi	sp,sp,-48
    112e:	d622                	sw	s0,44(sp)
    1130:	1800                	addi	s0,sp,48
    1132:	87aa                	mv	a5,a0
    1134:	872e                	mv	a4,a1
    1136:	fcf40fa3          	sb	a5,-33(s0)
    113a:	87ba                	mv	a5,a4
    113c:	fcf40f23          	sb	a5,-34(s0)
C:\Users\windows\Desktop\smart_car\MASTER\obj/../Libraries/wch_libraries/Peripheral/ch32v10x_gpio.c:460
  uint32_t tmp = 0x00;
    1140:	fe042623          	sw	zero,-20(s0)
C:\Users\windows\Desktop\smart_car\MASTER\obj/../Libraries/wch_libraries/Peripheral/ch32v10x_gpio.c:462

  tmp = ((uint32_t)0x0F) << (0x04 * (GPIO_PinSource & (uint8_t)0x03));
    1144:	fde44783          	lbu	a5,-34(s0)
    1148:	8b8d                	andi	a5,a5,3
    114a:	078a                	slli	a5,a5,0x2
    114c:	473d                	li	a4,15
    114e:	00f717b3          	sll	a5,a4,a5
    1152:	fef42623          	sw	a5,-20(s0)
C:\Users\windows\Desktop\smart_car\MASTER\obj/../Libraries/wch_libraries/Peripheral/ch32v10x_gpio.c:463
  AFIO->EXTICR[GPIO_PinSource >> 0x02] &= ~tmp;
    1156:	40010737          	lui	a4,0x40010
    115a:	fde44783          	lbu	a5,-34(s0)
    115e:	8389                	srli	a5,a5,0x2
    1160:	0ff7f793          	andi	a5,a5,255
    1164:	078a                	slli	a5,a5,0x2
    1166:	97ba                	add	a5,a5,a4
    1168:	4798                	lw	a4,8(a5)
    116a:	fec42783          	lw	a5,-20(s0)
    116e:	fff7c793          	not	a5,a5
    1172:	400106b7          	lui	a3,0x40010
    1176:	fde44603          	lbu	a2,-34(s0)
    117a:	8209                	srli	a2,a2,0x2
    117c:	0ff67613          	andi	a2,a2,255
    1180:	8f7d                	and	a4,a4,a5
    1182:	00261793          	slli	a5,a2,0x2
    1186:	97b6                	add	a5,a5,a3
    1188:	c798                	sw	a4,8(a5)
C:\Users\windows\Desktop\smart_car\MASTER\obj/../Libraries/wch_libraries/Peripheral/ch32v10x_gpio.c:464
  AFIO->EXTICR[GPIO_PinSource >> 0x02] |= (((uint32_t)GPIO_PortSource) << (0x04 * (GPIO_PinSource & (uint8_t)0x03)));
    118a:	40010737          	lui	a4,0x40010
    118e:	fde44783          	lbu	a5,-34(s0)
    1192:	8389                	srli	a5,a5,0x2
    1194:	0ff7f793          	andi	a5,a5,255
    1198:	078a                	slli	a5,a5,0x2
    119a:	97ba                	add	a5,a5,a4
    119c:	4798                	lw	a4,8(a5)
    119e:	fdf44683          	lbu	a3,-33(s0)
    11a2:	fde44783          	lbu	a5,-34(s0)
    11a6:	8b8d                	andi	a5,a5,3
    11a8:	078a                	slli	a5,a5,0x2
    11aa:	00f697b3          	sll	a5,a3,a5
    11ae:	400106b7          	lui	a3,0x40010
    11b2:	fde44603          	lbu	a2,-34(s0)
    11b6:	8209                	srli	a2,a2,0x2
    11b8:	0ff67613          	andi	a2,a2,255
    11bc:	8f5d                	or	a4,a4,a5
    11be:	00261793          	slli	a5,a2,0x2
    11c2:	97b6                	add	a5,a5,a3
    11c4:	c798                	sw	a4,8(a5)
C:\Users\windows\Desktop\smart_car\MASTER\obj/../Libraries/wch_libraries/Peripheral/ch32v10x_gpio.c:465
}
    11c6:	0001                	nop
    11c8:	5432                	lw	s0,44(sp)
    11ca:	6145                	addi	sp,sp,48
    11cc:	8082                	ret

000011ce <NVIC_EnableIRQ>:
NVIC_EnableIRQ():
C:\Users\windows\Desktop\smart_car\MASTER\obj/../Libraries/wch_libraries/Core/core_riscv.h:126
* Function Name  : NVIC_EnableIRQ
* Description    : Enable Interrupt
* Input          : IRQn: Interrupt Numbers
* Return         : None
*******************************************************************************/
RV_STATIC_INLINE void NVIC_EnableIRQ(IRQn_Type IRQn){
    11ce:	1101                	addi	sp,sp,-32
    11d0:	ce22                	sw	s0,28(sp)
    11d2:	1000                	addi	s0,sp,32
    11d4:	fea42623          	sw	a0,-20(s0)
C:\Users\windows\Desktop\smart_car\MASTER\obj/../Libraries/wch_libraries/Core/core_riscv.h:127
  NVIC->IENR[((uint32_t)(IRQn) >> 5)] = (1 << ((uint32_t)(IRQn) & 0x1F));
    11d8:	fec42783          	lw	a5,-20(s0)
    11dc:	8bfd                	andi	a5,a5,31
    11de:	4705                	li	a4,1
    11e0:	00f716b3          	sll	a3,a4,a5
    11e4:	e000e737          	lui	a4,0xe000e
    11e8:	fec42783          	lw	a5,-20(s0)
    11ec:	8395                	srli	a5,a5,0x5
    11ee:	04078793          	addi	a5,a5,64 # 40010040 <_eusrstack+0x2000b040>
    11f2:	078a                	slli	a5,a5,0x2
    11f4:	97ba                	add	a5,a5,a4
    11f6:	c394                	sw	a3,0(a5)
C:\Users\windows\Desktop\smart_car\MASTER\obj/../Libraries/wch_libraries/Core/core_riscv.h:128
}
    11f8:	0001                	nop
    11fa:	4472                	lw	s0,28(sp)
    11fc:	6105                	addi	sp,sp,32
    11fe:	8082                	ret

00001200 <NVIC_DisableIRQ>:
NVIC_DisableIRQ():
C:\Users\windows\Desktop\smart_car\MASTER\obj/../Libraries/wch_libraries/Core/core_riscv.h:137
* Description    : Disable Interrupt
* Input          : IRQn: Interrupt Numbers
* Return         : None
*******************************************************************************/
RV_STATIC_INLINE void NVIC_DisableIRQ(IRQn_Type IRQn)
{
    1200:	1101                	addi	sp,sp,-32
    1202:	ce22                	sw	s0,28(sp)
    1204:	1000                	addi	s0,sp,32
    1206:	fea42623          	sw	a0,-20(s0)
C:\Users\windows\Desktop\smart_car\MASTER\obj/../Libraries/wch_libraries/Core/core_riscv.h:138
  NVIC->IRER[((uint32_t)(IRQn) >> 5)] = (1 << ((uint32_t)(IRQn) & 0x1F));
    120a:	fec42783          	lw	a5,-20(s0)
    120e:	8bfd                	andi	a5,a5,31
    1210:	4705                	li	a4,1
    1212:	00f716b3          	sll	a3,a4,a5
    1216:	e000e737          	lui	a4,0xe000e
    121a:	fec42783          	lw	a5,-20(s0)
    121e:	8395                	srli	a5,a5,0x5
    1220:	06078793          	addi	a5,a5,96
    1224:	078a                	slli	a5,a5,0x2
    1226:	97ba                	add	a5,a5,a4
    1228:	c394                	sw	a3,0(a5)
C:\Users\windows\Desktop\smart_car\MASTER\obj/../Libraries/wch_libraries/Core/core_riscv.h:139
}
    122a:	0001                	nop
    122c:	4472                	lw	s0,28(sp)
    122e:	6105                	addi	sp,sp,32
    1230:	8082                	ret

00001232 <NVIC_SetPriority>:
NVIC_SetPriority():
C:\Users\windows\Desktop\smart_car\MASTER\obj/../Libraries/wch_libraries/Core/core_riscv.h:208
*                  priority: bit7:pre-emption priority
*                            bit6-bit4: subpriority
* Return         : None
*******************************************************************************/
RV_STATIC_INLINE void NVIC_SetPriority(IRQn_Type IRQn, uint8_t priority)
{
    1232:	1101                	addi	sp,sp,-32
    1234:	ce22                	sw	s0,28(sp)
    1236:	1000                	addi	s0,sp,32
    1238:	fea42623          	sw	a0,-20(s0)
    123c:	87ae                	mv	a5,a1
    123e:	fef405a3          	sb	a5,-21(s0)
C:\Users\windows\Desktop\smart_car\MASTER\obj/../Libraries/wch_libraries/Core/core_riscv.h:209
  NVIC->IPRIOR[(uint32_t)(IRQn)] = priority;
    1242:	e000e737          	lui	a4,0xe000e
    1246:	fec42783          	lw	a5,-20(s0)
    124a:	97ba                	add	a5,a5,a4
    124c:	feb44703          	lbu	a4,-21(s0)
    1250:	40e78023          	sb	a4,1024(a5)
C:\Users\windows\Desktop\smart_car\MASTER\obj/../Libraries/wch_libraries/Core/core_riscv.h:210
}
    1254:	0001                	nop
    1256:	4472                	lw	s0,28(sp)
    1258:	6105                	addi	sp,sp,32
    125a:	8082                	ret

0000125c <NVIC_Init>:
NVIC_Init():
C:\Users\windows\Desktop\smart_car\MASTER\obj/../Libraries/wch_libraries/Peripheral/ch32v10x_misc.c:44
* Input          : NVIC_InitStruct: pointer to a NVIC_InitTypeDef structure that contains the
*                                   configuration information for the specified NVIC peripheral.                 
* Return         : None
*******************************************************************************************/
void NVIC_Init(NVIC_InitTypeDef* NVIC_InitStruct)
{
    125c:	1101                	addi	sp,sp,-32
    125e:	ce06                	sw	ra,28(sp)
    1260:	cc22                	sw	s0,24(sp)
    1262:	1000                	addi	s0,sp,32
    1264:	fea42623          	sw	a0,-20(s0)
C:\Users\windows\Desktop\smart_car\MASTER\obj/../Libraries/wch_libraries/Peripheral/ch32v10x_misc.c:47
	//uint8_t tmppre = 0;

	if((PFIC->CFGR&(1<<1)) != 0)                    //中断嵌套标志位：1为关闭
    1268:	e000e7b7          	lui	a5,0xe000e
    126c:	47bc                	lw	a5,72(a5)
    126e:	8b89                	andi	a5,a5,2
    1270:	c38d                	beqz	a5,1292 <NVIC_Init+0x36>
C:\Users\windows\Desktop\smart_car\MASTER\obj/../Libraries/wch_libraries/Peripheral/ch32v10x_misc.c:49
	{
		NVIC_SetPriority( NVIC_InitStruct->NVIC_IRQChannel, NVIC_InitStruct->NVIC_IRQChannelSubPriority<<4);
    1272:	fec42783          	lw	a5,-20(s0)
    1276:	0007c783          	lbu	a5,0(a5) # e000e000 <_eusrstack+0xc0009000>
    127a:	873e                	mv	a4,a5
    127c:	fec42783          	lw	a5,-20(s0)
    1280:	0027c783          	lbu	a5,2(a5)
    1284:	0792                	slli	a5,a5,0x4
    1286:	0ff7f793          	andi	a5,a5,255
    128a:	85be                	mv	a1,a5
    128c:	853a                	mv	a0,a4
    128e:	3755                	jal	1232 <NVIC_SetPriority>
    1290:	a095                	j	12f4 <NVIC_Init+0x98>
C:\Users\windows\Desktop\smart_car\MASTER\obj/../Libraries/wch_libraries/Peripheral/ch32v10x_misc.c:51
	}
	else if((PFIC->CFGR&(1<<1)) == 0)               //中断嵌套标志位：0为打开
    1292:	e000e7b7          	lui	a5,0xe000e
    1296:	47bc                	lw	a5,72(a5)
    1298:	8b89                	andi	a5,a5,2
    129a:	efa9                	bnez	a5,12f4 <NVIC_Init+0x98>
C:\Users\windows\Desktop\smart_car\MASTER\obj/../Libraries/wch_libraries/Peripheral/ch32v10x_misc.c:53
	{
        if(NVIC_InitStruct->NVIC_IRQChannelPreemptionPriority == 1)
    129c:	fec42783          	lw	a5,-20(s0)
    12a0:	0017c703          	lbu	a4,1(a5) # e000e001 <_eusrstack+0xc0009001>
    12a4:	4785                	li	a5,1
    12a6:	02f71863          	bne	a4,a5,12d6 <NVIC_Init+0x7a>
C:\Users\windows\Desktop\smart_car\MASTER\obj/../Libraries/wch_libraries/Peripheral/ch32v10x_misc.c:55
        {
            NVIC_SetPriority( NVIC_InitStruct->NVIC_IRQChannel, (1<<7)|(NVIC_InitStruct->NVIC_IRQChannelSubPriority<<4));
    12aa:	fec42783          	lw	a5,-20(s0)
    12ae:	0007c783          	lbu	a5,0(a5)
    12b2:	873e                	mv	a4,a5
    12b4:	fec42783          	lw	a5,-20(s0)
    12b8:	0027c783          	lbu	a5,2(a5)
    12bc:	0792                	slli	a5,a5,0x4
    12be:	07e2                	slli	a5,a5,0x18
    12c0:	87e1                	srai	a5,a5,0x18
    12c2:	f807e793          	ori	a5,a5,-128
    12c6:	07e2                	slli	a5,a5,0x18
    12c8:	87e1                	srai	a5,a5,0x18
    12ca:	0ff7f793          	andi	a5,a5,255
    12ce:	85be                	mv	a1,a5
    12d0:	853a                	mv	a0,a4
    12d2:	3785                	jal	1232 <NVIC_SetPriority>
    12d4:	a005                	j	12f4 <NVIC_Init+0x98>
C:\Users\windows\Desktop\smart_car\MASTER\obj/../Libraries/wch_libraries/Peripheral/ch32v10x_misc.c:59
        }
        else
        {
            NVIC_SetPriority( NVIC_InitStruct->NVIC_IRQChannel, (0<<7)|(NVIC_InitStruct->NVIC_IRQChannelSubPriority<<4));
    12d6:	fec42783          	lw	a5,-20(s0)
    12da:	0007c783          	lbu	a5,0(a5)
    12de:	873e                	mv	a4,a5
    12e0:	fec42783          	lw	a5,-20(s0)
    12e4:	0027c783          	lbu	a5,2(a5)
    12e8:	0792                	slli	a5,a5,0x4
    12ea:	0ff7f793          	andi	a5,a5,255
    12ee:	85be                	mv	a1,a5
    12f0:	853a                	mv	a0,a4
    12f2:	3781                	jal	1232 <NVIC_SetPriority>
C:\Users\windows\Desktop\smart_car\MASTER\obj/../Libraries/wch_libraries/Peripheral/ch32v10x_misc.c:93
//	else if(NVIC_Priority_Group == NVIC_PriorityGroup_4)
//	{
//		NVIC_SetPriority( NVIC_InitStruct->NVIC_IRQChannel, NVIC_InitStruct->NVIC_IRQChannelPreemptionPriority<<4);
//	}

  if (NVIC_InitStruct->NVIC_IRQChannelCmd != DISABLE)
    12f4:	fec42783          	lw	a5,-20(s0)
    12f8:	43dc                	lw	a5,4(a5)
    12fa:	cb81                	beqz	a5,130a <NVIC_Init+0xae>
C:\Users\windows\Desktop\smart_car\MASTER\obj/../Libraries/wch_libraries/Peripheral/ch32v10x_misc.c:95
  {
  	NVIC_EnableIRQ(NVIC_InitStruct->NVIC_IRQChannel);
    12fc:	fec42783          	lw	a5,-20(s0)
    1300:	0007c783          	lbu	a5,0(a5)
    1304:	853e                	mv	a0,a5
    1306:	35e1                	jal	11ce <NVIC_EnableIRQ>
C:\Users\windows\Desktop\smart_car\MASTER\obj/../Libraries/wch_libraries/Peripheral/ch32v10x_misc.c:101
  }
  else
  {
  	NVIC_DisableIRQ(NVIC_InitStruct->NVIC_IRQChannel);
  }
}
    1308:	a039                	j	1316 <NVIC_Init+0xba>
C:\Users\windows\Desktop\smart_car\MASTER\obj/../Libraries/wch_libraries/Peripheral/ch32v10x_misc.c:99
  	NVIC_DisableIRQ(NVIC_InitStruct->NVIC_IRQChannel);
    130a:	fec42783          	lw	a5,-20(s0)
    130e:	0007c783          	lbu	a5,0(a5)
    1312:	853e                	mv	a0,a5
    1314:	35f5                	jal	1200 <NVIC_DisableIRQ>
C:\Users\windows\Desktop\smart_car\MASTER\obj/../Libraries/wch_libraries/Peripheral/ch32v10x_misc.c:101
}
    1316:	0001                	nop
    1318:	40f2                	lw	ra,28(sp)
    131a:	4462                	lw	s0,24(sp)
    131c:	6105                	addi	sp,sp,32
    131e:	8082                	ret

00001320 <RCC_GetClocksFreq>:
RCC_GetClocksFreq():
C:\Users\windows\Desktop\smart_car\MASTER\obj/../Libraries/wch_libraries/Peripheral/ch32v10x_rcc.c:469
* Input          : The result of this function could be not correct when using
*      fractional value for HSE crystal.
* Return         : None
********************************************************************************/
void RCC_GetClocksFreq(RCC_ClocksTypeDef* RCC_Clocks)
{
    1320:	7179                	addi	sp,sp,-48
    1322:	d622                	sw	s0,44(sp)
    1324:	1800                	addi	s0,sp,48
    1326:	fca42e23          	sw	a0,-36(s0)
C:\Users\windows\Desktop\smart_car\MASTER\obj/../Libraries/wch_libraries/Peripheral/ch32v10x_rcc.c:470
  uint32_t tmp = 0, pllmull = 0, pllsource = 0, presc = 0;
    132a:	fe042623          	sw	zero,-20(s0)
    132e:	fe042423          	sw	zero,-24(s0)
    1332:	fe042223          	sw	zero,-28(s0)
    1336:	fe042023          	sw	zero,-32(s0)
C:\Users\windows\Desktop\smart_car\MASTER\obj/../Libraries/wch_libraries/Peripheral/ch32v10x_rcc.c:472
  
  tmp = RCC->CFGR0 & CFGR0_SWS_Mask;
    133a:	400217b7          	lui	a5,0x40021
    133e:	43dc                	lw	a5,4(a5)
    1340:	8bb1                	andi	a5,a5,12
    1342:	fef42623          	sw	a5,-20(s0)
    1346:	fec42703          	lw	a4,-20(s0)
    134a:	4791                	li	a5,4
    134c:	02f70263          	beq	a4,a5,1370 <RCC_GetClocksFreq+0x50>
    1350:	fec42703          	lw	a4,-20(s0)
    1354:	47a1                	li	a5,8
    1356:	02f70563          	beq	a4,a5,1380 <RCC_GetClocksFreq+0x60>
    135a:	fec42783          	lw	a5,-20(s0)
    135e:	e7c5                	bnez	a5,1406 <RCC_GetClocksFreq+0xe6>
C:\Users\windows\Desktop\smart_car\MASTER\obj/../Libraries/wch_libraries/Peripheral/ch32v10x_rcc.c:477
  
  switch (tmp)
  {
    case 0x00: 
      RCC_Clocks->SYSCLK_Frequency = HSI_VALUE;
    1360:	fdc42783          	lw	a5,-36(s0)
    1364:	007a1737          	lui	a4,0x7a1
    1368:	20070713          	addi	a4,a4,512 # 7a1200 <_data_lma+0x79a498>
    136c:	c398                	sw	a4,0(a5)
C:\Users\windows\Desktop\smart_car\MASTER\obj/../Libraries/wch_libraries/Peripheral/ch32v10x_rcc.c:478
      break;
    136e:	a065                	j	1416 <RCC_GetClocksFreq+0xf6>
C:\Users\windows\Desktop\smart_car\MASTER\obj/../Libraries/wch_libraries/Peripheral/ch32v10x_rcc.c:481
		
    case 0x04:
      RCC_Clocks->SYSCLK_Frequency = HSE_VALUE;
    1370:	fdc42783          	lw	a5,-36(s0)
    1374:	007a1737          	lui	a4,0x7a1
    1378:	20070713          	addi	a4,a4,512 # 7a1200 <_data_lma+0x79a498>
    137c:	c398                	sw	a4,0(a5)
C:\Users\windows\Desktop\smart_car\MASTER\obj/../Libraries/wch_libraries/Peripheral/ch32v10x_rcc.c:482
      break;
    137e:	a861                	j	1416 <RCC_GetClocksFreq+0xf6>
C:\Users\windows\Desktop\smart_car\MASTER\obj/../Libraries/wch_libraries/Peripheral/ch32v10x_rcc.c:485
		
    case 0x08:
      pllmull = RCC->CFGR0 & CFGR0_PLLMull_Mask;
    1380:	400217b7          	lui	a5,0x40021
    1384:	43d8                	lw	a4,4(a5)
    1386:	003c07b7          	lui	a5,0x3c0
    138a:	8ff9                	and	a5,a5,a4
    138c:	fef42423          	sw	a5,-24(s0)
C:\Users\windows\Desktop\smart_car\MASTER\obj/../Libraries/wch_libraries/Peripheral/ch32v10x_rcc.c:486
      pllsource = RCC->CFGR0 & CFGR0_PLLSRC_Mask;    
    1390:	400217b7          	lui	a5,0x40021
    1394:	43d8                	lw	a4,4(a5)
    1396:	67c1                	lui	a5,0x10
    1398:	8ff9                	and	a5,a5,a4
    139a:	fef42223          	sw	a5,-28(s0)
C:\Users\windows\Desktop\smart_car\MASTER\obj/../Libraries/wch_libraries/Peripheral/ch32v10x_rcc.c:487
      pllmull = ( pllmull >> 18) + 2;
    139e:	fe842783          	lw	a5,-24(s0)
    13a2:	83c9                	srli	a5,a5,0x12
    13a4:	0789                	addi	a5,a5,2
    13a6:	fef42423          	sw	a5,-24(s0)
C:\Users\windows\Desktop\smart_car\MASTER\obj/../Libraries/wch_libraries/Peripheral/ch32v10x_rcc.c:489
      
      if (pllsource == 0x00)
    13aa:	fe442783          	lw	a5,-28(s0)
    13ae:	ef89                	bnez	a5,13c8 <RCC_GetClocksFreq+0xa8>
C:\Users\windows\Desktop\smart_car\MASTER\obj/../Libraries/wch_libraries/Peripheral/ch32v10x_rcc.c:491
      {
        RCC_Clocks->SYSCLK_Frequency = (HSI_VALUE >> 1) * pllmull;
    13b0:	fe842703          	lw	a4,-24(s0)
    13b4:	003d17b7          	lui	a5,0x3d1
    13b8:	90078793          	addi	a5,a5,-1792 # 3d0900 <_data_lma+0x3c9b98>
    13bc:	02f70733          	mul	a4,a4,a5
    13c0:	fdc42783          	lw	a5,-36(s0)
    13c4:	c398                	sw	a4,0(a5)
C:\Users\windows\Desktop\smart_car\MASTER\obj/../Libraries/wch_libraries/Peripheral/ch32v10x_rcc.c:504
        else
        {
          RCC_Clocks->SYSCLK_Frequency = HSE_VALUE * pllmull;
        }
      } 
      break;
    13c6:	a881                	j	1416 <RCC_GetClocksFreq+0xf6>
C:\Users\windows\Desktop\smart_car\MASTER\obj/../Libraries/wch_libraries/Peripheral/ch32v10x_rcc.c:495
        if ((RCC->CFGR0 & CFGR0_PLLXTPRE_Mask) != (uint32_t)RESET)
    13c8:	400217b7          	lui	a5,0x40021
    13cc:	43d8                	lw	a4,4(a5)
    13ce:	000207b7          	lui	a5,0x20
    13d2:	8ff9                	and	a5,a5,a4
    13d4:	cf89                	beqz	a5,13ee <RCC_GetClocksFreq+0xce>
C:\Users\windows\Desktop\smart_car\MASTER\obj/../Libraries/wch_libraries/Peripheral/ch32v10x_rcc.c:497
          RCC_Clocks->SYSCLK_Frequency = (HSE_VALUE >> 1) * pllmull;
    13d6:	fe842703          	lw	a4,-24(s0)
    13da:	003d17b7          	lui	a5,0x3d1
    13de:	90078793          	addi	a5,a5,-1792 # 3d0900 <_data_lma+0x3c9b98>
    13e2:	02f70733          	mul	a4,a4,a5
    13e6:	fdc42783          	lw	a5,-36(s0)
    13ea:	c398                	sw	a4,0(a5)
C:\Users\windows\Desktop\smart_car\MASTER\obj/../Libraries/wch_libraries/Peripheral/ch32v10x_rcc.c:504
      break;
    13ec:	a02d                	j	1416 <RCC_GetClocksFreq+0xf6>
C:\Users\windows\Desktop\smart_car\MASTER\obj/../Libraries/wch_libraries/Peripheral/ch32v10x_rcc.c:501
          RCC_Clocks->SYSCLK_Frequency = HSE_VALUE * pllmull;
    13ee:	fe842703          	lw	a4,-24(s0)
    13f2:	007a17b7          	lui	a5,0x7a1
    13f6:	20078793          	addi	a5,a5,512 # 7a1200 <_data_lma+0x79a498>
    13fa:	02f70733          	mul	a4,a4,a5
    13fe:	fdc42783          	lw	a5,-36(s0)
    1402:	c398                	sw	a4,0(a5)
C:\Users\windows\Desktop\smart_car\MASTER\obj/../Libraries/wch_libraries/Peripheral/ch32v10x_rcc.c:504
      break;
    1404:	a809                	j	1416 <RCC_GetClocksFreq+0xf6>
C:\Users\windows\Desktop\smart_car\MASTER\obj/../Libraries/wch_libraries/Peripheral/ch32v10x_rcc.c:507

    default:
      RCC_Clocks->SYSCLK_Frequency = HSI_VALUE;
    1406:	fdc42783          	lw	a5,-36(s0)
    140a:	007a1737          	lui	a4,0x7a1
    140e:	20070713          	addi	a4,a4,512 # 7a1200 <_data_lma+0x79a498>
    1412:	c398                	sw	a4,0(a5)
C:\Users\windows\Desktop\smart_car\MASTER\obj/../Libraries/wch_libraries/Peripheral/ch32v10x_rcc.c:508
      break;
    1414:	0001                	nop
C:\Users\windows\Desktop\smart_car\MASTER\obj/../Libraries/wch_libraries/Peripheral/ch32v10x_rcc.c:511
  }

  tmp = RCC->CFGR0 & CFGR0_HPRE_Set_Mask;
    1416:	400217b7          	lui	a5,0x40021
    141a:	43dc                	lw	a5,4(a5)
    141c:	0f07f793          	andi	a5,a5,240
    1420:	fef42623          	sw	a5,-20(s0)
C:\Users\windows\Desktop\smart_car\MASTER\obj/../Libraries/wch_libraries/Peripheral/ch32v10x_rcc.c:512
  tmp = tmp >> 4;
    1424:	fec42783          	lw	a5,-20(s0)
    1428:	8391                	srli	a5,a5,0x4
    142a:	fef42623          	sw	a5,-20(s0)
C:\Users\windows\Desktop\smart_car\MASTER\obj/../Libraries/wch_libraries/Peripheral/ch32v10x_rcc.c:513
  presc = APBAHBPrescTable[tmp];
    142e:	200007b7          	lui	a5,0x20000
    1432:	00078713          	mv	a4,a5
    1436:	fec42783          	lw	a5,-20(s0)
    143a:	97ba                	add	a5,a5,a4
    143c:	0007c783          	lbu	a5,0(a5) # 20000000 <_data_vma>
    1440:	0ff7f793          	andi	a5,a5,255
    1444:	fef42023          	sw	a5,-32(s0)
C:\Users\windows\Desktop\smart_car\MASTER\obj/../Libraries/wch_libraries/Peripheral/ch32v10x_rcc.c:514
  RCC_Clocks->HCLK_Frequency = RCC_Clocks->SYSCLK_Frequency >> presc;
    1448:	fdc42783          	lw	a5,-36(s0)
    144c:	4398                	lw	a4,0(a5)
    144e:	fe042783          	lw	a5,-32(s0)
    1452:	00f75733          	srl	a4,a4,a5
    1456:	fdc42783          	lw	a5,-36(s0)
    145a:	c3d8                	sw	a4,4(a5)
C:\Users\windows\Desktop\smart_car\MASTER\obj/../Libraries/wch_libraries/Peripheral/ch32v10x_rcc.c:515
  tmp = RCC->CFGR0 & CFGR0_PPRE1_Set_Mask;
    145c:	400217b7          	lui	a5,0x40021
    1460:	43dc                	lw	a5,4(a5)
    1462:	7007f793          	andi	a5,a5,1792
    1466:	fef42623          	sw	a5,-20(s0)
C:\Users\windows\Desktop\smart_car\MASTER\obj/../Libraries/wch_libraries/Peripheral/ch32v10x_rcc.c:516
  tmp = tmp >> 8;
    146a:	fec42783          	lw	a5,-20(s0)
    146e:	83a1                	srli	a5,a5,0x8
    1470:	fef42623          	sw	a5,-20(s0)
C:\Users\windows\Desktop\smart_car\MASTER\obj/../Libraries/wch_libraries/Peripheral/ch32v10x_rcc.c:517
  presc = APBAHBPrescTable[tmp];
    1474:	200007b7          	lui	a5,0x20000
    1478:	00078713          	mv	a4,a5
    147c:	fec42783          	lw	a5,-20(s0)
    1480:	97ba                	add	a5,a5,a4
    1482:	0007c783          	lbu	a5,0(a5) # 20000000 <_data_vma>
    1486:	0ff7f793          	andi	a5,a5,255
    148a:	fef42023          	sw	a5,-32(s0)
C:\Users\windows\Desktop\smart_car\MASTER\obj/../Libraries/wch_libraries/Peripheral/ch32v10x_rcc.c:518
  RCC_Clocks->PCLK1_Frequency = RCC_Clocks->HCLK_Frequency >> presc;
    148e:	fdc42783          	lw	a5,-36(s0)
    1492:	43d8                	lw	a4,4(a5)
    1494:	fe042783          	lw	a5,-32(s0)
    1498:	00f75733          	srl	a4,a4,a5
    149c:	fdc42783          	lw	a5,-36(s0)
    14a0:	c798                	sw	a4,8(a5)
C:\Users\windows\Desktop\smart_car\MASTER\obj/../Libraries/wch_libraries/Peripheral/ch32v10x_rcc.c:519
  tmp = RCC->CFGR0 & CFGR0_PPRE2_Set_Mask;
    14a2:	400217b7          	lui	a5,0x40021
    14a6:	43d8                	lw	a4,4(a5)
    14a8:	6791                	lui	a5,0x4
    14aa:	80078793          	addi	a5,a5,-2048 # 3800 <pwm_init+0x244>
    14ae:	8ff9                	and	a5,a5,a4
    14b0:	fef42623          	sw	a5,-20(s0)
C:\Users\windows\Desktop\smart_car\MASTER\obj/../Libraries/wch_libraries/Peripheral/ch32v10x_rcc.c:520
  tmp = tmp >> 11;
    14b4:	fec42783          	lw	a5,-20(s0)
    14b8:	83ad                	srli	a5,a5,0xb
    14ba:	fef42623          	sw	a5,-20(s0)
C:\Users\windows\Desktop\smart_car\MASTER\obj/../Libraries/wch_libraries/Peripheral/ch32v10x_rcc.c:521
  presc = APBAHBPrescTable[tmp];
    14be:	200007b7          	lui	a5,0x20000
    14c2:	00078713          	mv	a4,a5
    14c6:	fec42783          	lw	a5,-20(s0)
    14ca:	97ba                	add	a5,a5,a4
    14cc:	0007c783          	lbu	a5,0(a5) # 20000000 <_data_vma>
    14d0:	0ff7f793          	andi	a5,a5,255
    14d4:	fef42023          	sw	a5,-32(s0)
C:\Users\windows\Desktop\smart_car\MASTER\obj/../Libraries/wch_libraries/Peripheral/ch32v10x_rcc.c:522
  RCC_Clocks->PCLK2_Frequency = RCC_Clocks->HCLK_Frequency >> presc;
    14d8:	fdc42783          	lw	a5,-36(s0)
    14dc:	43d8                	lw	a4,4(a5)
    14de:	fe042783          	lw	a5,-32(s0)
    14e2:	00f75733          	srl	a4,a4,a5
    14e6:	fdc42783          	lw	a5,-36(s0)
    14ea:	c7d8                	sw	a4,12(a5)
C:\Users\windows\Desktop\smart_car\MASTER\obj/../Libraries/wch_libraries/Peripheral/ch32v10x_rcc.c:523
  tmp = RCC->CFGR0 & CFGR0_ADCPRE_Set_Mask;
    14ec:	400217b7          	lui	a5,0x40021
    14f0:	43d8                	lw	a4,4(a5)
    14f2:	67b1                	lui	a5,0xc
    14f4:	8ff9                	and	a5,a5,a4
    14f6:	fef42623          	sw	a5,-20(s0)
C:\Users\windows\Desktop\smart_car\MASTER\obj/../Libraries/wch_libraries/Peripheral/ch32v10x_rcc.c:524
  tmp = tmp >> 14;
    14fa:	fec42783          	lw	a5,-20(s0)
    14fe:	83b9                	srli	a5,a5,0xe
    1500:	fef42623          	sw	a5,-20(s0)
C:\Users\windows\Desktop\smart_car\MASTER\obj/../Libraries/wch_libraries/Peripheral/ch32v10x_rcc.c:525
  presc = ADCPrescTable[tmp];
    1504:	200007b7          	lui	a5,0x20000
    1508:	07078713          	addi	a4,a5,112 # 20000070 <ADCPrescTable>
    150c:	fec42783          	lw	a5,-20(s0)
    1510:	97ba                	add	a5,a5,a4
    1512:	0007c783          	lbu	a5,0(a5)
    1516:	0ff7f793          	andi	a5,a5,255
    151a:	fef42023          	sw	a5,-32(s0)
C:\Users\windows\Desktop\smart_car\MASTER\obj/../Libraries/wch_libraries/Peripheral/ch32v10x_rcc.c:526
  RCC_Clocks->ADCCLK_Frequency = RCC_Clocks->PCLK2_Frequency / presc;
    151e:	fdc42783          	lw	a5,-36(s0)
    1522:	47d8                	lw	a4,12(a5)
    1524:	fe042783          	lw	a5,-32(s0)
    1528:	02f75733          	divu	a4,a4,a5
    152c:	fdc42783          	lw	a5,-36(s0)
    1530:	cb98                	sw	a4,16(a5)
C:\Users\windows\Desktop\smart_car\MASTER\obj/../Libraries/wch_libraries/Peripheral/ch32v10x_rcc.c:527
}
    1532:	0001                	nop
    1534:	5432                	lw	s0,44(sp)
    1536:	6145                	addi	sp,sp,48
    1538:	8082                	ret

0000153a <RCC_APB2PeriphClockCmd>:
RCC_APB2PeriphClockCmd():
C:\Users\windows\Desktop\smart_car\MASTER\obj/../Libraries/wch_libraries/Peripheral/ch32v10x_rcc.c:570
*                    RCC_APB2Periph_USART1.
*                  NewState: ENABLE or DISABLE
* Return         : None
*******************************************************************************/	
void RCC_APB2PeriphClockCmd(uint32_t RCC_APB2Periph, FunctionalState NewState)
{
    153a:	1101                	addi	sp,sp,-32
    153c:	ce22                	sw	s0,28(sp)
    153e:	1000                	addi	s0,sp,32
    1540:	fea42623          	sw	a0,-20(s0)
    1544:	feb42423          	sw	a1,-24(s0)
C:\Users\windows\Desktop\smart_car\MASTER\obj/../Libraries/wch_libraries/Peripheral/ch32v10x_rcc.c:571
  if (NewState != DISABLE)
    1548:	fe842783          	lw	a5,-24(s0)
    154c:	cb99                	beqz	a5,1562 <RCC_APB2PeriphClockCmd+0x28>
C:\Users\windows\Desktop\smart_car\MASTER\obj/../Libraries/wch_libraries/Peripheral/ch32v10x_rcc.c:573
  {
    RCC->APB2PCENR |= RCC_APB2Periph;
    154e:	400217b7          	lui	a5,0x40021
    1552:	4f94                	lw	a3,24(a5)
    1554:	400217b7          	lui	a5,0x40021
    1558:	fec42703          	lw	a4,-20(s0)
    155c:	8f55                	or	a4,a4,a3
    155e:	cf98                	sw	a4,24(a5)
C:\Users\windows\Desktop\smart_car\MASTER\obj/../Libraries/wch_libraries/Peripheral/ch32v10x_rcc.c:579
  }
  else
  {
    RCC->APB2PCENR &= ~RCC_APB2Periph;
  }
}
    1560:	a821                	j	1578 <RCC_APB2PeriphClockCmd+0x3e>
C:\Users\windows\Desktop\smart_car\MASTER\obj/../Libraries/wch_libraries/Peripheral/ch32v10x_rcc.c:577
    RCC->APB2PCENR &= ~RCC_APB2Periph;
    1562:	400217b7          	lui	a5,0x40021
    1566:	4f94                	lw	a3,24(a5)
    1568:	fec42783          	lw	a5,-20(s0)
    156c:	fff7c713          	not	a4,a5
    1570:	400217b7          	lui	a5,0x40021
    1574:	8f75                	and	a4,a4,a3
    1576:	cf98                	sw	a4,24(a5)
C:\Users\windows\Desktop\smart_car\MASTER\obj/../Libraries/wch_libraries/Peripheral/ch32v10x_rcc.c:579
}
    1578:	0001                	nop
    157a:	4472                	lw	s0,28(sp)
    157c:	6105                	addi	sp,sp,32
    157e:	8082                	ret

00001580 <RCC_APB1PeriphClockCmd>:
RCC_APB1PeriphClockCmd():
C:\Users\windows\Desktop\smart_car\MASTER\obj/../Libraries/wch_libraries/Peripheral/ch32v10x_rcc.c:603
*                    RCC_APB1Periph_DAC.                
*                  NewState: ENABLE or DISABLE.
* Return         : None
*******************************************************************************/	
void RCC_APB1PeriphClockCmd(uint32_t RCC_APB1Periph, FunctionalState NewState)
{
    1580:	1101                	addi	sp,sp,-32
    1582:	ce22                	sw	s0,28(sp)
    1584:	1000                	addi	s0,sp,32
    1586:	fea42623          	sw	a0,-20(s0)
    158a:	feb42423          	sw	a1,-24(s0)
C:\Users\windows\Desktop\smart_car\MASTER\obj/../Libraries/wch_libraries/Peripheral/ch32v10x_rcc.c:604
  if (NewState != DISABLE)
    158e:	fe842783          	lw	a5,-24(s0)
    1592:	cb99                	beqz	a5,15a8 <RCC_APB1PeriphClockCmd+0x28>
C:\Users\windows\Desktop\smart_car\MASTER\obj/../Libraries/wch_libraries/Peripheral/ch32v10x_rcc.c:606
  {
    RCC->APB1PCENR |= RCC_APB1Periph;
    1594:	400217b7          	lui	a5,0x40021
    1598:	4fd4                	lw	a3,28(a5)
    159a:	400217b7          	lui	a5,0x40021
    159e:	fec42703          	lw	a4,-20(s0)
    15a2:	8f55                	or	a4,a4,a3
    15a4:	cfd8                	sw	a4,28(a5)
C:\Users\windows\Desktop\smart_car\MASTER\obj/../Libraries/wch_libraries/Peripheral/ch32v10x_rcc.c:612
  }
  else
  {
    RCC->APB1PCENR &= ~RCC_APB1Periph;
  }
}
    15a6:	a821                	j	15be <RCC_APB1PeriphClockCmd+0x3e>
C:\Users\windows\Desktop\smart_car\MASTER\obj/../Libraries/wch_libraries/Peripheral/ch32v10x_rcc.c:610
    RCC->APB1PCENR &= ~RCC_APB1Periph;
    15a8:	400217b7          	lui	a5,0x40021
    15ac:	4fd4                	lw	a3,28(a5)
    15ae:	fec42783          	lw	a5,-20(s0)
    15b2:	fff7c713          	not	a4,a5
    15b6:	400217b7          	lui	a5,0x40021
    15ba:	8f75                	and	a4,a4,a3
    15bc:	cfd8                	sw	a4,28(a5)
C:\Users\windows\Desktop\smart_car\MASTER\obj/../Libraries/wch_libraries/Peripheral/ch32v10x_rcc.c:612
}
    15be:	0001                	nop
    15c0:	4472                	lw	s0,28(sp)
    15c2:	6105                	addi	sp,sp,32
    15c4:	8082                	ret

000015c6 <SPI_Init>:
SPI_Init():
C:\Users\windows\Desktop\smart_car\MASTER\obj/../Libraries/wch_libraries/Peripheral/ch32v10x_spi.c:83
*                  SPI_InitStruct: pointer to a SPI_InitTypeDef structure that
*      contains the configuration information for the specified SPI peripheral.
* Return         : None
*******************************************************************************/
void SPI_Init(SPI_TypeDef* SPIx, SPI_InitTypeDef* SPI_InitStruct)
{
    15c6:	7179                	addi	sp,sp,-48
    15c8:	d622                	sw	s0,44(sp)
    15ca:	1800                	addi	s0,sp,48
    15cc:	fca42e23          	sw	a0,-36(s0)
    15d0:	fcb42c23          	sw	a1,-40(s0)
C:\Users\windows\Desktop\smart_car\MASTER\obj/../Libraries/wch_libraries/Peripheral/ch32v10x_spi.c:84
  uint16_t tmpreg = 0;
    15d4:	fe041723          	sh	zero,-18(s0)
C:\Users\windows\Desktop\smart_car\MASTER\obj/../Libraries/wch_libraries/Peripheral/ch32v10x_spi.c:86
  
  tmpreg = SPIx->CTLR1;
    15d8:	fdc42783          	lw	a5,-36(s0)
    15dc:	0007d783          	lhu	a5,0(a5) # 40021000 <_eusrstack+0x2001c000>
    15e0:	fef41723          	sh	a5,-18(s0)
C:\Users\windows\Desktop\smart_car\MASTER\obj/../Libraries/wch_libraries/Peripheral/ch32v10x_spi.c:87
  tmpreg &= CTLR1_CLEAR_Mask;
    15e4:	fee45703          	lhu	a4,-18(s0)
    15e8:	678d                	lui	a5,0x3
    15ea:	04078793          	addi	a5,a5,64 # 3040 <gpio_set+0x2c>
    15ee:	8ff9                	and	a5,a5,a4
    15f0:	fef41723          	sh	a5,-18(s0)
C:\Users\windows\Desktop\smart_car\MASTER\obj/../Libraries/wch_libraries/Peripheral/ch32v10x_spi.c:88
  tmpreg |= (uint16_t)((uint32_t)SPI_InitStruct->SPI_Direction | SPI_InitStruct->SPI_Mode |
    15f4:	fd842783          	lw	a5,-40(s0)
    15f8:	0007d703          	lhu	a4,0(a5)
    15fc:	fd842783          	lw	a5,-40(s0)
    1600:	0027d783          	lhu	a5,2(a5)
    1604:	8fd9                	or	a5,a5,a4
    1606:	01079713          	slli	a4,a5,0x10
    160a:	8341                	srli	a4,a4,0x10
C:\Users\windows\Desktop\smart_car\MASTER\obj/../Libraries/wch_libraries/Peripheral/ch32v10x_spi.c:89
                  SPI_InitStruct->SPI_DataSize | SPI_InitStruct->SPI_CPOL |  
    160c:	fd842783          	lw	a5,-40(s0)
    1610:	0047d783          	lhu	a5,4(a5)
C:\Users\windows\Desktop\smart_car\MASTER\obj/../Libraries/wch_libraries/Peripheral/ch32v10x_spi.c:88
  tmpreg |= (uint16_t)((uint32_t)SPI_InitStruct->SPI_Direction | SPI_InitStruct->SPI_Mode |
    1614:	8fd9                	or	a5,a5,a4
    1616:	01079713          	slli	a4,a5,0x10
    161a:	8341                	srli	a4,a4,0x10
C:\Users\windows\Desktop\smart_car\MASTER\obj/../Libraries/wch_libraries/Peripheral/ch32v10x_spi.c:89
                  SPI_InitStruct->SPI_DataSize | SPI_InitStruct->SPI_CPOL |  
    161c:	fd842783          	lw	a5,-40(s0)
    1620:	0067d783          	lhu	a5,6(a5)
C:\Users\windows\Desktop\smart_car\MASTER\obj/../Libraries/wch_libraries/Peripheral/ch32v10x_spi.c:88
  tmpreg |= (uint16_t)((uint32_t)SPI_InitStruct->SPI_Direction | SPI_InitStruct->SPI_Mode |
    1624:	8fd9                	or	a5,a5,a4
    1626:	01079713          	slli	a4,a5,0x10
    162a:	8341                	srli	a4,a4,0x10
C:\Users\windows\Desktop\smart_car\MASTER\obj/../Libraries/wch_libraries/Peripheral/ch32v10x_spi.c:90
                  SPI_InitStruct->SPI_CPHA | SPI_InitStruct->SPI_NSS |  
    162c:	fd842783          	lw	a5,-40(s0)
    1630:	0087d783          	lhu	a5,8(a5)
C:\Users\windows\Desktop\smart_car\MASTER\obj/../Libraries/wch_libraries/Peripheral/ch32v10x_spi.c:88
  tmpreg |= (uint16_t)((uint32_t)SPI_InitStruct->SPI_Direction | SPI_InitStruct->SPI_Mode |
    1634:	8fd9                	or	a5,a5,a4
    1636:	01079713          	slli	a4,a5,0x10
    163a:	8341                	srli	a4,a4,0x10
C:\Users\windows\Desktop\smart_car\MASTER\obj/../Libraries/wch_libraries/Peripheral/ch32v10x_spi.c:90
                  SPI_InitStruct->SPI_CPHA | SPI_InitStruct->SPI_NSS |  
    163c:	fd842783          	lw	a5,-40(s0)
    1640:	00a7d783          	lhu	a5,10(a5)
C:\Users\windows\Desktop\smart_car\MASTER\obj/../Libraries/wch_libraries/Peripheral/ch32v10x_spi.c:88
  tmpreg |= (uint16_t)((uint32_t)SPI_InitStruct->SPI_Direction | SPI_InitStruct->SPI_Mode |
    1644:	8fd9                	or	a5,a5,a4
    1646:	01079713          	slli	a4,a5,0x10
    164a:	8341                	srli	a4,a4,0x10
C:\Users\windows\Desktop\smart_car\MASTER\obj/../Libraries/wch_libraries/Peripheral/ch32v10x_spi.c:91
                  SPI_InitStruct->SPI_BaudRatePrescaler | SPI_InitStruct->SPI_FirstBit);
    164c:	fd842783          	lw	a5,-40(s0)
    1650:	00c7d783          	lhu	a5,12(a5)
C:\Users\windows\Desktop\smart_car\MASTER\obj/../Libraries/wch_libraries/Peripheral/ch32v10x_spi.c:88
  tmpreg |= (uint16_t)((uint32_t)SPI_InitStruct->SPI_Direction | SPI_InitStruct->SPI_Mode |
    1654:	8fd9                	or	a5,a5,a4
    1656:	01079713          	slli	a4,a5,0x10
    165a:	8341                	srli	a4,a4,0x10
C:\Users\windows\Desktop\smart_car\MASTER\obj/../Libraries/wch_libraries/Peripheral/ch32v10x_spi.c:91
                  SPI_InitStruct->SPI_BaudRatePrescaler | SPI_InitStruct->SPI_FirstBit);
    165c:	fd842783          	lw	a5,-40(s0)
    1660:	00e7d783          	lhu	a5,14(a5)
C:\Users\windows\Desktop\smart_car\MASTER\obj/../Libraries/wch_libraries/Peripheral/ch32v10x_spi.c:88
  tmpreg |= (uint16_t)((uint32_t)SPI_InitStruct->SPI_Direction | SPI_InitStruct->SPI_Mode |
    1664:	8fd9                	or	a5,a5,a4
    1666:	01079713          	slli	a4,a5,0x10
    166a:	8341                	srli	a4,a4,0x10
    166c:	fee45783          	lhu	a5,-18(s0)
    1670:	8fd9                	or	a5,a5,a4
    1672:	fef41723          	sh	a5,-18(s0)
C:\Users\windows\Desktop\smart_car\MASTER\obj/../Libraries/wch_libraries/Peripheral/ch32v10x_spi.c:93

  SPIx->CTLR1 = tmpreg;
    1676:	fdc42783          	lw	a5,-36(s0)
    167a:	fee45703          	lhu	a4,-18(s0)
    167e:	00e79023          	sh	a4,0(a5)
C:\Users\windows\Desktop\smart_car\MASTER\obj/../Libraries/wch_libraries/Peripheral/ch32v10x_spi.c:94
  SPIx->I2SCFGR &= SPI_Mode_Select;		
    1682:	fdc42783          	lw	a5,-36(s0)
    1686:	01c7d783          	lhu	a5,28(a5)
    168a:	01079713          	slli	a4,a5,0x10
    168e:	8341                	srli	a4,a4,0x10
    1690:	77fd                	lui	a5,0xfffff
    1692:	7ff78793          	addi	a5,a5,2047 # fffff7ff <_eusrstack+0xdfffa7ff>
    1696:	8ff9                	and	a5,a5,a4
    1698:	01079713          	slli	a4,a5,0x10
    169c:	8341                	srli	a4,a4,0x10
    169e:	fdc42783          	lw	a5,-36(s0)
    16a2:	00e79e23          	sh	a4,28(a5)
C:\Users\windows\Desktop\smart_car\MASTER\obj/../Libraries/wch_libraries/Peripheral/ch32v10x_spi.c:95
  SPIx->CRCR = SPI_InitStruct->SPI_CRCPolynomial;
    16a6:	fd842783          	lw	a5,-40(s0)
    16aa:	0107d703          	lhu	a4,16(a5)
    16ae:	fdc42783          	lw	a5,-36(s0)
    16b2:	00e79823          	sh	a4,16(a5)
C:\Users\windows\Desktop\smart_car\MASTER\obj/../Libraries/wch_libraries/Peripheral/ch32v10x_spi.c:96
}
    16b6:	0001                	nop
    16b8:	5432                	lw	s0,44(sp)
    16ba:	6145                	addi	sp,sp,48
    16bc:	8082                	ret

000016be <SPI_Cmd>:
SPI_Cmd():
C:\Users\windows\Desktop\smart_car\MASTER\obj/../Libraries/wch_libraries/Peripheral/ch32v10x_spi.c:221
* Input          : SPIx: where x can be 1, 2 or 3 to select the SPI peripheral.
*                  NewState: ENABLE or DISABLE.
* Return         : None
*******************************************************************************/
void SPI_Cmd(SPI_TypeDef* SPIx, FunctionalState NewState)
{
    16be:	1101                	addi	sp,sp,-32
    16c0:	ce22                	sw	s0,28(sp)
    16c2:	1000                	addi	s0,sp,32
    16c4:	fea42623          	sw	a0,-20(s0)
    16c8:	feb42423          	sw	a1,-24(s0)
C:\Users\windows\Desktop\smart_car\MASTER\obj/../Libraries/wch_libraries/Peripheral/ch32v10x_spi.c:222
  if (NewState != DISABLE)
    16cc:	fe842783          	lw	a5,-24(s0)
    16d0:	c38d                	beqz	a5,16f2 <SPI_Cmd+0x34>
C:\Users\windows\Desktop\smart_car\MASTER\obj/../Libraries/wch_libraries/Peripheral/ch32v10x_spi.c:224
  {
    SPIx->CTLR1 |= CTLR1_SPE_Set;
    16d2:	fec42783          	lw	a5,-20(s0)
    16d6:	0007d783          	lhu	a5,0(a5)
    16da:	07c2                	slli	a5,a5,0x10
    16dc:	83c1                	srli	a5,a5,0x10
    16de:	0407e793          	ori	a5,a5,64
    16e2:	01079713          	slli	a4,a5,0x10
    16e6:	8341                	srli	a4,a4,0x10
    16e8:	fec42783          	lw	a5,-20(s0)
    16ec:	00e79023          	sh	a4,0(a5)
C:\Users\windows\Desktop\smart_car\MASTER\obj/../Libraries/wch_libraries/Peripheral/ch32v10x_spi.c:230
  }
  else
  {
    SPIx->CTLR1 &= CTLR1_SPE_Reset;
  }
}
    16f0:	a005                	j	1710 <SPI_Cmd+0x52>
C:\Users\windows\Desktop\smart_car\MASTER\obj/../Libraries/wch_libraries/Peripheral/ch32v10x_spi.c:228
    SPIx->CTLR1 &= CTLR1_SPE_Reset;
    16f2:	fec42783          	lw	a5,-20(s0)
    16f6:	0007d783          	lhu	a5,0(a5)
    16fa:	07c2                	slli	a5,a5,0x10
    16fc:	83c1                	srli	a5,a5,0x10
    16fe:	fbf7f793          	andi	a5,a5,-65
    1702:	01079713          	slli	a4,a5,0x10
    1706:	8341                	srli	a4,a4,0x10
    1708:	fec42783          	lw	a5,-20(s0)
    170c:	00e79023          	sh	a4,0(a5)
C:\Users\windows\Desktop\smart_car\MASTER\obj/../Libraries/wch_libraries/Peripheral/ch32v10x_spi.c:230
}
    1710:	0001                	nop
    1712:	4472                	lw	s0,28(sp)
    1714:	6105                	addi	sp,sp,32
    1716:	8082                	ret

00001718 <TIM_TimeBaseInit>:
TIM_TimeBaseInit():
C:\Users\windows\Desktop\smart_car\MASTER\obj/../Libraries/wch_libraries/Peripheral/ch32v10x_tim.c:67
*                  TIM_TimeBaseInitStruct: pointer to a TIM_TimeBaseInitTypeDef
*      structure.
* Return         : None
*******************************************************************************/
void TIM_TimeBaseInit(TIM_TypeDef* TIMx, TIM_TimeBaseInitTypeDef* TIM_TimeBaseInitStruct)
{
    1718:	7179                	addi	sp,sp,-48
    171a:	d622                	sw	s0,44(sp)
    171c:	1800                	addi	s0,sp,48
    171e:	fca42e23          	sw	a0,-36(s0)
    1722:	fcb42c23          	sw	a1,-40(s0)
C:\Users\windows\Desktop\smart_car\MASTER\obj/../Libraries/wch_libraries/Peripheral/ch32v10x_tim.c:68
  uint16_t tmpcr1 = 0;
    1726:	fe041723          	sh	zero,-18(s0)
C:\Users\windows\Desktop\smart_car\MASTER\obj/../Libraries/wch_libraries/Peripheral/ch32v10x_tim.c:70

  tmpcr1 = TIMx->CTLR1;  
    172a:	fdc42783          	lw	a5,-36(s0)
    172e:	0007d783          	lhu	a5,0(a5)
    1732:	fef41723          	sh	a5,-18(s0)
C:\Users\windows\Desktop\smart_car\MASTER\obj/../Libraries/wch_libraries/Peripheral/ch32v10x_tim.c:72

  if((TIMx == TIM1) || (TIMx == TIM2) || (TIMx == TIM3)|| (TIMx == TIM4)) 
    1736:	fdc42703          	lw	a4,-36(s0)
    173a:	400137b7          	lui	a5,0x40013
    173e:	c0078793          	addi	a5,a5,-1024 # 40012c00 <_eusrstack+0x2000dc00>
    1742:	02f70863          	beq	a4,a5,1772 <TIM_TimeBaseInit+0x5a>
C:\Users\windows\Desktop\smart_car\MASTER\obj/../Libraries/wch_libraries/Peripheral/ch32v10x_tim.c:72 (discriminator 1)
    1746:	fdc42703          	lw	a4,-36(s0)
    174a:	400007b7          	lui	a5,0x40000
    174e:	02f70263          	beq	a4,a5,1772 <TIM_TimeBaseInit+0x5a>
C:\Users\windows\Desktop\smart_car\MASTER\obj/../Libraries/wch_libraries/Peripheral/ch32v10x_tim.c:72 (discriminator 2)
    1752:	fdc42703          	lw	a4,-36(s0)
    1756:	400007b7          	lui	a5,0x40000
    175a:	40078793          	addi	a5,a5,1024 # 40000400 <_eusrstack+0x1fffb400>
    175e:	00f70a63          	beq	a4,a5,1772 <TIM_TimeBaseInit+0x5a>
C:\Users\windows\Desktop\smart_car\MASTER\obj/../Libraries/wch_libraries/Peripheral/ch32v10x_tim.c:72 (discriminator 3)
    1762:	fdc42703          	lw	a4,-36(s0)
    1766:	400017b7          	lui	a5,0x40001
    176a:	80078793          	addi	a5,a5,-2048 # 40000800 <_eusrstack+0x1fffb800>
    176e:	02f71163          	bne	a4,a5,1790 <TIM_TimeBaseInit+0x78>
C:\Users\windows\Desktop\smart_car\MASTER\obj/../Libraries/wch_libraries/Peripheral/ch32v10x_tim.c:74
  {
    tmpcr1 &= (uint16_t)(~((uint16_t)(TIM_DIR | TIM_CMS)));
    1772:	fee45783          	lhu	a5,-18(s0)
    1776:	f8f7f793          	andi	a5,a5,-113
    177a:	fef41723          	sh	a5,-18(s0)
C:\Users\windows\Desktop\smart_car\MASTER\obj/../Libraries/wch_libraries/Peripheral/ch32v10x_tim.c:75
    tmpcr1 |= (uint32_t)TIM_TimeBaseInitStruct->TIM_CounterMode;
    177e:	fd842783          	lw	a5,-40(s0)
    1782:	0027d703          	lhu	a4,2(a5)
    1786:	fee45783          	lhu	a5,-18(s0)
    178a:	8fd9                	or	a5,a5,a4
    178c:	fef41723          	sh	a5,-18(s0)
C:\Users\windows\Desktop\smart_car\MASTER\obj/../Libraries/wch_libraries/Peripheral/ch32v10x_tim.c:78
  }

  tmpcr1 &= (uint16_t)(~((uint16_t)TIM_CTLR1_CKD));
    1790:	fee45783          	lhu	a5,-18(s0)
    1794:	cff7f793          	andi	a5,a5,-769
    1798:	fef41723          	sh	a5,-18(s0)
C:\Users\windows\Desktop\smart_car\MASTER\obj/../Libraries/wch_libraries/Peripheral/ch32v10x_tim.c:79
  tmpcr1 |= (uint32_t)TIM_TimeBaseInitStruct->TIM_ClockDivision;
    179c:	fd842783          	lw	a5,-40(s0)
    17a0:	0067d703          	lhu	a4,6(a5)
    17a4:	fee45783          	lhu	a5,-18(s0)
    17a8:	8fd9                	or	a5,a5,a4
    17aa:	fef41723          	sh	a5,-18(s0)
C:\Users\windows\Desktop\smart_car\MASTER\obj/../Libraries/wch_libraries/Peripheral/ch32v10x_tim.c:81

  TIMx->CTLR1 = tmpcr1;
    17ae:	fdc42783          	lw	a5,-36(s0)
    17b2:	fee45703          	lhu	a4,-18(s0)
    17b6:	00e79023          	sh	a4,0(a5)
C:\Users\windows\Desktop\smart_car\MASTER\obj/../Libraries/wch_libraries/Peripheral/ch32v10x_tim.c:82
  TIMx->ATRLR = TIM_TimeBaseInitStruct->TIM_Period ;
    17ba:	fd842783          	lw	a5,-40(s0)
    17be:	0047d703          	lhu	a4,4(a5)
    17c2:	fdc42783          	lw	a5,-36(s0)
    17c6:	02e79623          	sh	a4,44(a5)
C:\Users\windows\Desktop\smart_car\MASTER\obj/../Libraries/wch_libraries/Peripheral/ch32v10x_tim.c:83
  TIMx->PSC = TIM_TimeBaseInitStruct->TIM_Prescaler;
    17ca:	fd842783          	lw	a5,-40(s0)
    17ce:	0007d703          	lhu	a4,0(a5)
    17d2:	fdc42783          	lw	a5,-36(s0)
    17d6:	02e79423          	sh	a4,40(a5)
C:\Users\windows\Desktop\smart_car\MASTER\obj/../Libraries/wch_libraries/Peripheral/ch32v10x_tim.c:85
    
  if (TIMx == TIM1)  
    17da:	fdc42703          	lw	a4,-36(s0)
    17de:	400137b7          	lui	a5,0x40013
    17e2:	c0078793          	addi	a5,a5,-1024 # 40012c00 <_eusrstack+0x2000dc00>
    17e6:	00f71d63          	bne	a4,a5,1800 <TIM_TimeBaseInit+0xe8>
C:\Users\windows\Desktop\smart_car\MASTER\obj/../Libraries/wch_libraries/Peripheral/ch32v10x_tim.c:87
  {
    TIMx->RPTCR = TIM_TimeBaseInitStruct->TIM_RepetitionCounter;
    17ea:	fd842783          	lw	a5,-40(s0)
    17ee:	0087c783          	lbu	a5,8(a5)
    17f2:	01079713          	slli	a4,a5,0x10
    17f6:	8341                	srli	a4,a4,0x10
    17f8:	fdc42783          	lw	a5,-36(s0)
    17fc:	02e79823          	sh	a4,48(a5)
C:\Users\windows\Desktop\smart_car\MASTER\obj/../Libraries/wch_libraries/Peripheral/ch32v10x_tim.c:90
  }

  TIMx->SWEVGR = TIM_PSCReloadMode_Immediate;           
    1800:	fdc42783          	lw	a5,-36(s0)
    1804:	4705                	li	a4,1
    1806:	00e79a23          	sh	a4,20(a5)
C:\Users\windows\Desktop\smart_car\MASTER\obj/../Libraries/wch_libraries/Peripheral/ch32v10x_tim.c:91
}
    180a:	0001                	nop
    180c:	5432                	lw	s0,44(sp)
    180e:	6145                	addi	sp,sp,48
    1810:	8082                	ret

00001812 <TIM_OC1Init>:
TIM_OC1Init():
C:\Users\windows\Desktop\smart_car\MASTER\obj/../Libraries/wch_libraries/Peripheral/ch32v10x_tim.c:102
* Input          : TIMx: where x can be 1 to 4 to select the TIM peripheral.
*                  TIM_OCInitStruct: pointer to a TIM_OCInitTypeDef structure.
* Return         : None
*******************************************************************************/
void TIM_OC1Init(TIM_TypeDef* TIMx, TIM_OCInitTypeDef* TIM_OCInitStruct)
{
    1812:	7179                	addi	sp,sp,-48
    1814:	d622                	sw	s0,44(sp)
    1816:	1800                	addi	s0,sp,48
    1818:	fca42e23          	sw	a0,-36(s0)
    181c:	fcb42c23          	sw	a1,-40(s0)
C:\Users\windows\Desktop\smart_car\MASTER\obj/../Libraries/wch_libraries/Peripheral/ch32v10x_tim.c:103
  uint16_t tmpccmrx = 0, tmpccer = 0, tmpcr2 = 0;
    1820:	fe041523          	sh	zero,-22(s0)
    1824:	fe041723          	sh	zero,-18(s0)
    1828:	fe041623          	sh	zero,-20(s0)
C:\Users\windows\Desktop\smart_car\MASTER\obj/../Libraries/wch_libraries/Peripheral/ch32v10x_tim.c:105
     
  TIMx->CCER &= (uint16_t)(~(uint16_t)TIM_CC1E);
    182c:	fdc42783          	lw	a5,-36(s0)
    1830:	0207d783          	lhu	a5,32(a5)
    1834:	07c2                	slli	a5,a5,0x10
    1836:	83c1                	srli	a5,a5,0x10
    1838:	9bf9                	andi	a5,a5,-2
    183a:	01079713          	slli	a4,a5,0x10
    183e:	8341                	srli	a4,a4,0x10
    1840:	fdc42783          	lw	a5,-36(s0)
    1844:	02e79023          	sh	a4,32(a5)
C:\Users\windows\Desktop\smart_car\MASTER\obj/../Libraries/wch_libraries/Peripheral/ch32v10x_tim.c:106
  tmpccer = TIMx->CCER;
    1848:	fdc42783          	lw	a5,-36(s0)
    184c:	0207d783          	lhu	a5,32(a5)
    1850:	fef41723          	sh	a5,-18(s0)
C:\Users\windows\Desktop\smart_car\MASTER\obj/../Libraries/wch_libraries/Peripheral/ch32v10x_tim.c:107
  tmpcr2 =  TIMx->CTLR2;
    1854:	fdc42783          	lw	a5,-36(s0)
    1858:	0047d783          	lhu	a5,4(a5)
    185c:	fef41623          	sh	a5,-20(s0)
C:\Users\windows\Desktop\smart_car\MASTER\obj/../Libraries/wch_libraries/Peripheral/ch32v10x_tim.c:108
  tmpccmrx = TIMx->CHCTLR1;
    1860:	fdc42783          	lw	a5,-36(s0)
    1864:	0187d783          	lhu	a5,24(a5)
    1868:	fef41523          	sh	a5,-22(s0)
C:\Users\windows\Desktop\smart_car\MASTER\obj/../Libraries/wch_libraries/Peripheral/ch32v10x_tim.c:109
  tmpccmrx &= (uint16_t)(~((uint16_t)TIM_OC1M));
    186c:	fea45783          	lhu	a5,-22(s0)
    1870:	f8f7f793          	andi	a5,a5,-113
    1874:	fef41523          	sh	a5,-22(s0)
C:\Users\windows\Desktop\smart_car\MASTER\obj/../Libraries/wch_libraries/Peripheral/ch32v10x_tim.c:110
  tmpccmrx &= (uint16_t)(~((uint16_t)TIM_CC1S));
    1878:	fea45783          	lhu	a5,-22(s0)
    187c:	9bf1                	andi	a5,a5,-4
    187e:	fef41523          	sh	a5,-22(s0)
C:\Users\windows\Desktop\smart_car\MASTER\obj/../Libraries/wch_libraries/Peripheral/ch32v10x_tim.c:111
  tmpccmrx |= TIM_OCInitStruct->TIM_OCMode;
    1882:	fd842783          	lw	a5,-40(s0)
    1886:	0007d703          	lhu	a4,0(a5)
    188a:	fea45783          	lhu	a5,-22(s0)
    188e:	8fd9                	or	a5,a5,a4
    1890:	fef41523          	sh	a5,-22(s0)
C:\Users\windows\Desktop\smart_car\MASTER\obj/../Libraries/wch_libraries/Peripheral/ch32v10x_tim.c:112
  tmpccer &= (uint16_t)(~((uint16_t)TIM_CC1P));
    1894:	fee45783          	lhu	a5,-18(s0)
    1898:	9bf5                	andi	a5,a5,-3
    189a:	fef41723          	sh	a5,-18(s0)
C:\Users\windows\Desktop\smart_car\MASTER\obj/../Libraries/wch_libraries/Peripheral/ch32v10x_tim.c:113
  tmpccer |= TIM_OCInitStruct->TIM_OCPolarity;
    189e:	fd842783          	lw	a5,-40(s0)
    18a2:	0087d703          	lhu	a4,8(a5)
    18a6:	fee45783          	lhu	a5,-18(s0)
    18aa:	8fd9                	or	a5,a5,a4
    18ac:	fef41723          	sh	a5,-18(s0)
C:\Users\windows\Desktop\smart_car\MASTER\obj/../Libraries/wch_libraries/Peripheral/ch32v10x_tim.c:114
  tmpccer |= TIM_OCInitStruct->TIM_OutputState;
    18b0:	fd842783          	lw	a5,-40(s0)
    18b4:	0027d703          	lhu	a4,2(a5)
    18b8:	fee45783          	lhu	a5,-18(s0)
    18bc:	8fd9                	or	a5,a5,a4
    18be:	fef41723          	sh	a5,-18(s0)
C:\Users\windows\Desktop\smart_car\MASTER\obj/../Libraries/wch_libraries/Peripheral/ch32v10x_tim.c:116
    
  if(TIMx == TIM1)
    18c2:	fdc42703          	lw	a4,-36(s0)
    18c6:	400137b7          	lui	a5,0x40013
    18ca:	c0078793          	addi	a5,a5,-1024 # 40012c00 <_eusrstack+0x2000dc00>
    18ce:	06f71c63          	bne	a4,a5,1946 <TIM_OC1Init+0x134>
C:\Users\windows\Desktop\smart_car\MASTER\obj/../Libraries/wch_libraries/Peripheral/ch32v10x_tim.c:118
  {
    tmpccer &= (uint16_t)(~((uint16_t)TIM_CC1NP));
    18d2:	fee45783          	lhu	a5,-18(s0)
    18d6:	9bdd                	andi	a5,a5,-9
    18d8:	fef41723          	sh	a5,-18(s0)
C:\Users\windows\Desktop\smart_car\MASTER\obj/../Libraries/wch_libraries/Peripheral/ch32v10x_tim.c:119
    tmpccer |= TIM_OCInitStruct->TIM_OCNPolarity;
    18dc:	fd842783          	lw	a5,-40(s0)
    18e0:	00a7d703          	lhu	a4,10(a5)
    18e4:	fee45783          	lhu	a5,-18(s0)
    18e8:	8fd9                	or	a5,a5,a4
    18ea:	fef41723          	sh	a5,-18(s0)
C:\Users\windows\Desktop\smart_car\MASTER\obj/../Libraries/wch_libraries/Peripheral/ch32v10x_tim.c:121
 
    tmpccer &= (uint16_t)(~((uint16_t)TIM_CC1NE));    
    18ee:	fee45783          	lhu	a5,-18(s0)
    18f2:	9bed                	andi	a5,a5,-5
    18f4:	fef41723          	sh	a5,-18(s0)
C:\Users\windows\Desktop\smart_car\MASTER\obj/../Libraries/wch_libraries/Peripheral/ch32v10x_tim.c:122
    tmpccer |= TIM_OCInitStruct->TIM_OutputNState;
    18f8:	fd842783          	lw	a5,-40(s0)
    18fc:	0047d703          	lhu	a4,4(a5)
    1900:	fee45783          	lhu	a5,-18(s0)
    1904:	8fd9                	or	a5,a5,a4
    1906:	fef41723          	sh	a5,-18(s0)
C:\Users\windows\Desktop\smart_car\MASTER\obj/../Libraries/wch_libraries/Peripheral/ch32v10x_tim.c:124
    
    tmpcr2 &= (uint16_t)(~((uint16_t)TIM_OIS1));
    190a:	fec45783          	lhu	a5,-20(s0)
    190e:	eff7f793          	andi	a5,a5,-257
    1912:	fef41623          	sh	a5,-20(s0)
C:\Users\windows\Desktop\smart_car\MASTER\obj/../Libraries/wch_libraries/Peripheral/ch32v10x_tim.c:125
    tmpcr2 &= (uint16_t)(~((uint16_t)TIM_OIS1N));
    1916:	fec45783          	lhu	a5,-20(s0)
    191a:	dff7f793          	andi	a5,a5,-513
    191e:	fef41623          	sh	a5,-20(s0)
C:\Users\windows\Desktop\smart_car\MASTER\obj/../Libraries/wch_libraries/Peripheral/ch32v10x_tim.c:127
    
    tmpcr2 |= TIM_OCInitStruct->TIM_OCIdleState;
    1922:	fd842783          	lw	a5,-40(s0)
    1926:	00c7d703          	lhu	a4,12(a5)
    192a:	fec45783          	lhu	a5,-20(s0)
    192e:	8fd9                	or	a5,a5,a4
    1930:	fef41623          	sh	a5,-20(s0)
C:\Users\windows\Desktop\smart_car\MASTER\obj/../Libraries/wch_libraries/Peripheral/ch32v10x_tim.c:128
    tmpcr2 |= TIM_OCInitStruct->TIM_OCNIdleState;
    1934:	fd842783          	lw	a5,-40(s0)
    1938:	00e7d703          	lhu	a4,14(a5)
    193c:	fec45783          	lhu	a5,-20(s0)
    1940:	8fd9                	or	a5,a5,a4
    1942:	fef41623          	sh	a5,-20(s0)
C:\Users\windows\Desktop\smart_car\MASTER\obj/../Libraries/wch_libraries/Peripheral/ch32v10x_tim.c:131
  }

  TIMx->CTLR2 = tmpcr2;
    1946:	fdc42783          	lw	a5,-36(s0)
    194a:	fec45703          	lhu	a4,-20(s0)
    194e:	00e79223          	sh	a4,4(a5)
C:\Users\windows\Desktop\smart_car\MASTER\obj/../Libraries/wch_libraries/Peripheral/ch32v10x_tim.c:132
  TIMx->CHCTLR1 = tmpccmrx;
    1952:	fdc42783          	lw	a5,-36(s0)
    1956:	fea45703          	lhu	a4,-22(s0)
    195a:	00e79c23          	sh	a4,24(a5)
C:\Users\windows\Desktop\smart_car\MASTER\obj/../Libraries/wch_libraries/Peripheral/ch32v10x_tim.c:133
  TIMx->CH1CVR = TIM_OCInitStruct->TIM_Pulse; 
    195e:	fd842783          	lw	a5,-40(s0)
    1962:	0067d703          	lhu	a4,6(a5)
    1966:	fdc42783          	lw	a5,-36(s0)
    196a:	02e79a23          	sh	a4,52(a5)
C:\Users\windows\Desktop\smart_car\MASTER\obj/../Libraries/wch_libraries/Peripheral/ch32v10x_tim.c:134
  TIMx->CCER = tmpccer;
    196e:	fdc42783          	lw	a5,-36(s0)
    1972:	fee45703          	lhu	a4,-18(s0)
    1976:	02e79023          	sh	a4,32(a5)
C:\Users\windows\Desktop\smart_car\MASTER\obj/../Libraries/wch_libraries/Peripheral/ch32v10x_tim.c:135
}
    197a:	0001                	nop
    197c:	5432                	lw	s0,44(sp)
    197e:	6145                	addi	sp,sp,48
    1980:	8082                	ret

00001982 <TIM_OC2Init>:
TIM_OC2Init():
C:\Users\windows\Desktop\smart_car\MASTER\obj/../Libraries/wch_libraries/Peripheral/ch32v10x_tim.c:146
* Input          : TIMx: where x can be 1 to 4 to select the TIM peripheral.
*                  TIM_OCInitStruct: pointer to a TIM_OCInitTypeDef structure.
* Return         : None
*******************************************************************************/
void TIM_OC2Init(TIM_TypeDef* TIMx, TIM_OCInitTypeDef* TIM_OCInitStruct)
{
    1982:	7179                	addi	sp,sp,-48
    1984:	d622                	sw	s0,44(sp)
    1986:	1800                	addi	s0,sp,48
    1988:	fca42e23          	sw	a0,-36(s0)
    198c:	fcb42c23          	sw	a1,-40(s0)
C:\Users\windows\Desktop\smart_car\MASTER\obj/../Libraries/wch_libraries/Peripheral/ch32v10x_tim.c:147
  uint16_t tmpccmrx = 0, tmpccer = 0, tmpcr2 = 0;
    1990:	fe041523          	sh	zero,-22(s0)
    1994:	fe041723          	sh	zero,-18(s0)
    1998:	fe041623          	sh	zero,-20(s0)
C:\Users\windows\Desktop\smart_car\MASTER\obj/../Libraries/wch_libraries/Peripheral/ch32v10x_tim.c:149
   
  TIMx->CCER &= (uint16_t)(~((uint16_t)TIM_CC2E)); 
    199c:	fdc42783          	lw	a5,-36(s0)
    19a0:	0207d783          	lhu	a5,32(a5)
    19a4:	07c2                	slli	a5,a5,0x10
    19a6:	83c1                	srli	a5,a5,0x10
    19a8:	9bbd                	andi	a5,a5,-17
    19aa:	01079713          	slli	a4,a5,0x10
    19ae:	8341                	srli	a4,a4,0x10
    19b0:	fdc42783          	lw	a5,-36(s0)
    19b4:	02e79023          	sh	a4,32(a5)
C:\Users\windows\Desktop\smart_car\MASTER\obj/../Libraries/wch_libraries/Peripheral/ch32v10x_tim.c:150
  tmpccer = TIMx->CCER;
    19b8:	fdc42783          	lw	a5,-36(s0)
    19bc:	0207d783          	lhu	a5,32(a5)
    19c0:	fef41723          	sh	a5,-18(s0)
C:\Users\windows\Desktop\smart_car\MASTER\obj/../Libraries/wch_libraries/Peripheral/ch32v10x_tim.c:151
  tmpcr2 =  TIMx->CTLR2;
    19c4:	fdc42783          	lw	a5,-36(s0)
    19c8:	0047d783          	lhu	a5,4(a5)
    19cc:	fef41623          	sh	a5,-20(s0)
C:\Users\windows\Desktop\smart_car\MASTER\obj/../Libraries/wch_libraries/Peripheral/ch32v10x_tim.c:152
  tmpccmrx = TIMx->CHCTLR1;
    19d0:	fdc42783          	lw	a5,-36(s0)
    19d4:	0187d783          	lhu	a5,24(a5)
    19d8:	fef41523          	sh	a5,-22(s0)
C:\Users\windows\Desktop\smart_car\MASTER\obj/../Libraries/wch_libraries/Peripheral/ch32v10x_tim.c:153
  tmpccmrx &= (uint16_t)(~((uint16_t)TIM_OC2M));
    19dc:	fea45703          	lhu	a4,-22(s0)
    19e0:	77e5                	lui	a5,0xffff9
    19e2:	17fd                	addi	a5,a5,-1
    19e4:	8ff9                	and	a5,a5,a4
    19e6:	fef41523          	sh	a5,-22(s0)
C:\Users\windows\Desktop\smart_car\MASTER\obj/../Libraries/wch_libraries/Peripheral/ch32v10x_tim.c:154
  tmpccmrx &= (uint16_t)(~((uint16_t)TIM_CC2S));
    19ea:	fea45783          	lhu	a5,-22(s0)
    19ee:	cff7f793          	andi	a5,a5,-769
    19f2:	fef41523          	sh	a5,-22(s0)
C:\Users\windows\Desktop\smart_car\MASTER\obj/../Libraries/wch_libraries/Peripheral/ch32v10x_tim.c:155
  tmpccmrx |= (uint16_t)(TIM_OCInitStruct->TIM_OCMode << 8);
    19f6:	fd842783          	lw	a5,-40(s0)
    19fa:	0007d783          	lhu	a5,0(a5) # ffff9000 <_eusrstack+0xdfff4000>
    19fe:	07a2                	slli	a5,a5,0x8
    1a00:	01079713          	slli	a4,a5,0x10
    1a04:	8341                	srli	a4,a4,0x10
    1a06:	fea45783          	lhu	a5,-22(s0)
    1a0a:	8fd9                	or	a5,a5,a4
    1a0c:	fef41523          	sh	a5,-22(s0)
C:\Users\windows\Desktop\smart_car\MASTER\obj/../Libraries/wch_libraries/Peripheral/ch32v10x_tim.c:156
  tmpccer &= (uint16_t)(~((uint16_t)TIM_CC2P));
    1a10:	fee45783          	lhu	a5,-18(s0)
    1a14:	fdf7f793          	andi	a5,a5,-33
    1a18:	fef41723          	sh	a5,-18(s0)
C:\Users\windows\Desktop\smart_car\MASTER\obj/../Libraries/wch_libraries/Peripheral/ch32v10x_tim.c:157
  tmpccer |= (uint16_t)(TIM_OCInitStruct->TIM_OCPolarity << 4);
    1a1c:	fd842783          	lw	a5,-40(s0)
    1a20:	0087d783          	lhu	a5,8(a5)
    1a24:	0792                	slli	a5,a5,0x4
    1a26:	01079713          	slli	a4,a5,0x10
    1a2a:	8341                	srli	a4,a4,0x10
    1a2c:	fee45783          	lhu	a5,-18(s0)
    1a30:	8fd9                	or	a5,a5,a4
    1a32:	fef41723          	sh	a5,-18(s0)
C:\Users\windows\Desktop\smart_car\MASTER\obj/../Libraries/wch_libraries/Peripheral/ch32v10x_tim.c:158
  tmpccer |= (uint16_t)(TIM_OCInitStruct->TIM_OutputState << 4);
    1a36:	fd842783          	lw	a5,-40(s0)
    1a3a:	0027d783          	lhu	a5,2(a5)
    1a3e:	0792                	slli	a5,a5,0x4
    1a40:	01079713          	slli	a4,a5,0x10
    1a44:	8341                	srli	a4,a4,0x10
    1a46:	fee45783          	lhu	a5,-18(s0)
    1a4a:	8fd9                	or	a5,a5,a4
    1a4c:	fef41723          	sh	a5,-18(s0)
C:\Users\windows\Desktop\smart_car\MASTER\obj/../Libraries/wch_libraries/Peripheral/ch32v10x_tim.c:160
    
  if(TIMx == TIM1)
    1a50:	fdc42703          	lw	a4,-36(s0)
    1a54:	400137b7          	lui	a5,0x40013
    1a58:	c0078793          	addi	a5,a5,-1024 # 40012c00 <_eusrstack+0x2000dc00>
    1a5c:	0af71063          	bne	a4,a5,1afc <TIM_OC2Init+0x17a>
C:\Users\windows\Desktop\smart_car\MASTER\obj/../Libraries/wch_libraries/Peripheral/ch32v10x_tim.c:162
  {
    tmpccer &= (uint16_t)(~((uint16_t)TIM_CC2NP));
    1a60:	fee45783          	lhu	a5,-18(s0)
    1a64:	f7f7f793          	andi	a5,a5,-129
    1a68:	fef41723          	sh	a5,-18(s0)
C:\Users\windows\Desktop\smart_car\MASTER\obj/../Libraries/wch_libraries/Peripheral/ch32v10x_tim.c:163
    tmpccer |= (uint16_t)(TIM_OCInitStruct->TIM_OCNPolarity << 4);
    1a6c:	fd842783          	lw	a5,-40(s0)
    1a70:	00a7d783          	lhu	a5,10(a5)
    1a74:	0792                	slli	a5,a5,0x4
    1a76:	01079713          	slli	a4,a5,0x10
    1a7a:	8341                	srli	a4,a4,0x10
    1a7c:	fee45783          	lhu	a5,-18(s0)
    1a80:	8fd9                	or	a5,a5,a4
    1a82:	fef41723          	sh	a5,-18(s0)
C:\Users\windows\Desktop\smart_car\MASTER\obj/../Libraries/wch_libraries/Peripheral/ch32v10x_tim.c:164
    tmpccer &= (uint16_t)(~((uint16_t)TIM_CC2NE));    
    1a86:	fee45783          	lhu	a5,-18(s0)
    1a8a:	fbf7f793          	andi	a5,a5,-65
    1a8e:	fef41723          	sh	a5,-18(s0)
C:\Users\windows\Desktop\smart_car\MASTER\obj/../Libraries/wch_libraries/Peripheral/ch32v10x_tim.c:165
    tmpccer |= (uint16_t)(TIM_OCInitStruct->TIM_OutputNState << 4);
    1a92:	fd842783          	lw	a5,-40(s0)
    1a96:	0047d783          	lhu	a5,4(a5)
    1a9a:	0792                	slli	a5,a5,0x4
    1a9c:	01079713          	slli	a4,a5,0x10
    1aa0:	8341                	srli	a4,a4,0x10
    1aa2:	fee45783          	lhu	a5,-18(s0)
    1aa6:	8fd9                	or	a5,a5,a4
    1aa8:	fef41723          	sh	a5,-18(s0)
C:\Users\windows\Desktop\smart_car\MASTER\obj/../Libraries/wch_libraries/Peripheral/ch32v10x_tim.c:167
    
    tmpcr2 &= (uint16_t)(~((uint16_t)TIM_OIS2));
    1aac:	fec45783          	lhu	a5,-20(s0)
    1ab0:	bff7f793          	andi	a5,a5,-1025
    1ab4:	fef41623          	sh	a5,-20(s0)
C:\Users\windows\Desktop\smart_car\MASTER\obj/../Libraries/wch_libraries/Peripheral/ch32v10x_tim.c:168
    tmpcr2 &= (uint16_t)(~((uint16_t)TIM_OIS2N));
    1ab8:	fec45703          	lhu	a4,-20(s0)
    1abc:	77fd                	lui	a5,0xfffff
    1abe:	7ff78793          	addi	a5,a5,2047 # fffff7ff <_eusrstack+0xdfffa7ff>
    1ac2:	8ff9                	and	a5,a5,a4
    1ac4:	fef41623          	sh	a5,-20(s0)
C:\Users\windows\Desktop\smart_car\MASTER\obj/../Libraries/wch_libraries/Peripheral/ch32v10x_tim.c:169
    tmpcr2 |= (uint16_t)(TIM_OCInitStruct->TIM_OCIdleState << 2);
    1ac8:	fd842783          	lw	a5,-40(s0)
    1acc:	00c7d783          	lhu	a5,12(a5)
    1ad0:	078a                	slli	a5,a5,0x2
    1ad2:	01079713          	slli	a4,a5,0x10
    1ad6:	8341                	srli	a4,a4,0x10
    1ad8:	fec45783          	lhu	a5,-20(s0)
    1adc:	8fd9                	or	a5,a5,a4
    1ade:	fef41623          	sh	a5,-20(s0)
C:\Users\windows\Desktop\smart_car\MASTER\obj/../Libraries/wch_libraries/Peripheral/ch32v10x_tim.c:170
    tmpcr2 |= (uint16_t)(TIM_OCInitStruct->TIM_OCNIdleState << 2);
    1ae2:	fd842783          	lw	a5,-40(s0)
    1ae6:	00e7d783          	lhu	a5,14(a5)
    1aea:	078a                	slli	a5,a5,0x2
    1aec:	01079713          	slli	a4,a5,0x10
    1af0:	8341                	srli	a4,a4,0x10
    1af2:	fec45783          	lhu	a5,-20(s0)
    1af6:	8fd9                	or	a5,a5,a4
    1af8:	fef41623          	sh	a5,-20(s0)
C:\Users\windows\Desktop\smart_car\MASTER\obj/../Libraries/wch_libraries/Peripheral/ch32v10x_tim.c:173
  }

  TIMx->CTLR2 = tmpcr2;
    1afc:	fdc42783          	lw	a5,-36(s0)
    1b00:	fec45703          	lhu	a4,-20(s0)
    1b04:	00e79223          	sh	a4,4(a5)
C:\Users\windows\Desktop\smart_car\MASTER\obj/../Libraries/wch_libraries/Peripheral/ch32v10x_tim.c:174
  TIMx->CHCTLR1 = tmpccmrx;
    1b08:	fdc42783          	lw	a5,-36(s0)
    1b0c:	fea45703          	lhu	a4,-22(s0)
    1b10:	00e79c23          	sh	a4,24(a5)
C:\Users\windows\Desktop\smart_car\MASTER\obj/../Libraries/wch_libraries/Peripheral/ch32v10x_tim.c:175
  TIMx->CH2CVR = TIM_OCInitStruct->TIM_Pulse;
    1b14:	fd842783          	lw	a5,-40(s0)
    1b18:	0067d703          	lhu	a4,6(a5)
    1b1c:	fdc42783          	lw	a5,-36(s0)
    1b20:	02e79c23          	sh	a4,56(a5)
C:\Users\windows\Desktop\smart_car\MASTER\obj/../Libraries/wch_libraries/Peripheral/ch32v10x_tim.c:176
  TIMx->CCER = tmpccer;
    1b24:	fdc42783          	lw	a5,-36(s0)
    1b28:	fee45703          	lhu	a4,-18(s0)
    1b2c:	02e79023          	sh	a4,32(a5)
C:\Users\windows\Desktop\smart_car\MASTER\obj/../Libraries/wch_libraries/Peripheral/ch32v10x_tim.c:177
}
    1b30:	0001                	nop
    1b32:	5432                	lw	s0,44(sp)
    1b34:	6145                	addi	sp,sp,48
    1b36:	8082                	ret

00001b38 <TIM_OC3Init>:
TIM_OC3Init():
C:\Users\windows\Desktop\smart_car\MASTER\obj/../Libraries/wch_libraries/Peripheral/ch32v10x_tim.c:188
* Input          : TIMx: where x can be 1 to 4 to select the TIM peripheral.
*                  TIM_OCInitStruct: pointer to a TIM_OCInitTypeDef structure.
* Return         : None
*******************************************************************************/
void TIM_OC3Init(TIM_TypeDef* TIMx, TIM_OCInitTypeDef* TIM_OCInitStruct)
{
    1b38:	7179                	addi	sp,sp,-48
    1b3a:	d622                	sw	s0,44(sp)
    1b3c:	1800                	addi	s0,sp,48
    1b3e:	fca42e23          	sw	a0,-36(s0)
    1b42:	fcb42c23          	sw	a1,-40(s0)
C:\Users\windows\Desktop\smart_car\MASTER\obj/../Libraries/wch_libraries/Peripheral/ch32v10x_tim.c:189
  uint16_t tmpccmrx = 0, tmpccer = 0, tmpcr2 = 0;
    1b46:	fe041523          	sh	zero,-22(s0)
    1b4a:	fe041723          	sh	zero,-18(s0)
    1b4e:	fe041623          	sh	zero,-20(s0)
C:\Users\windows\Desktop\smart_car\MASTER\obj/../Libraries/wch_libraries/Peripheral/ch32v10x_tim.c:191
   
  TIMx->CCER &= (uint16_t)(~((uint16_t)TIM_CC3E));
    1b52:	fdc42783          	lw	a5,-36(s0)
    1b56:	0207d783          	lhu	a5,32(a5)
    1b5a:	07c2                	slli	a5,a5,0x10
    1b5c:	83c1                	srli	a5,a5,0x10
    1b5e:	eff7f793          	andi	a5,a5,-257
    1b62:	01079713          	slli	a4,a5,0x10
    1b66:	8341                	srli	a4,a4,0x10
    1b68:	fdc42783          	lw	a5,-36(s0)
    1b6c:	02e79023          	sh	a4,32(a5)
C:\Users\windows\Desktop\smart_car\MASTER\obj/../Libraries/wch_libraries/Peripheral/ch32v10x_tim.c:192
  tmpccer = TIMx->CCER;
    1b70:	fdc42783          	lw	a5,-36(s0)
    1b74:	0207d783          	lhu	a5,32(a5)
    1b78:	fef41723          	sh	a5,-18(s0)
C:\Users\windows\Desktop\smart_car\MASTER\obj/../Libraries/wch_libraries/Peripheral/ch32v10x_tim.c:193
  tmpcr2 =  TIMx->CTLR2;
    1b7c:	fdc42783          	lw	a5,-36(s0)
    1b80:	0047d783          	lhu	a5,4(a5)
    1b84:	fef41623          	sh	a5,-20(s0)
C:\Users\windows\Desktop\smart_car\MASTER\obj/../Libraries/wch_libraries/Peripheral/ch32v10x_tim.c:194
  tmpccmrx = TIMx->CHCTLR2;
    1b88:	fdc42783          	lw	a5,-36(s0)
    1b8c:	01c7d783          	lhu	a5,28(a5)
    1b90:	fef41523          	sh	a5,-22(s0)
C:\Users\windows\Desktop\smart_car\MASTER\obj/../Libraries/wch_libraries/Peripheral/ch32v10x_tim.c:195
  tmpccmrx &= (uint16_t)(~((uint16_t)TIM_OC3M));
    1b94:	fea45783          	lhu	a5,-22(s0)
    1b98:	f8f7f793          	andi	a5,a5,-113
    1b9c:	fef41523          	sh	a5,-22(s0)
C:\Users\windows\Desktop\smart_car\MASTER\obj/../Libraries/wch_libraries/Peripheral/ch32v10x_tim.c:196
  tmpccmrx &= (uint16_t)(~((uint16_t)TIM_CC3S));  
    1ba0:	fea45783          	lhu	a5,-22(s0)
    1ba4:	9bf1                	andi	a5,a5,-4
    1ba6:	fef41523          	sh	a5,-22(s0)
C:\Users\windows\Desktop\smart_car\MASTER\obj/../Libraries/wch_libraries/Peripheral/ch32v10x_tim.c:197
  tmpccmrx |= TIM_OCInitStruct->TIM_OCMode;
    1baa:	fd842783          	lw	a5,-40(s0)
    1bae:	0007d703          	lhu	a4,0(a5)
    1bb2:	fea45783          	lhu	a5,-22(s0)
    1bb6:	8fd9                	or	a5,a5,a4
    1bb8:	fef41523          	sh	a5,-22(s0)
C:\Users\windows\Desktop\smart_car\MASTER\obj/../Libraries/wch_libraries/Peripheral/ch32v10x_tim.c:198
  tmpccer &= (uint16_t)(~((uint16_t)TIM_CC3P));
    1bbc:	fee45783          	lhu	a5,-18(s0)
    1bc0:	dff7f793          	andi	a5,a5,-513
    1bc4:	fef41723          	sh	a5,-18(s0)
C:\Users\windows\Desktop\smart_car\MASTER\obj/../Libraries/wch_libraries/Peripheral/ch32v10x_tim.c:199
  tmpccer |= (uint16_t)(TIM_OCInitStruct->TIM_OCPolarity << 8);
    1bc8:	fd842783          	lw	a5,-40(s0)
    1bcc:	0087d783          	lhu	a5,8(a5)
    1bd0:	07a2                	slli	a5,a5,0x8
    1bd2:	01079713          	slli	a4,a5,0x10
    1bd6:	8341                	srli	a4,a4,0x10
    1bd8:	fee45783          	lhu	a5,-18(s0)
    1bdc:	8fd9                	or	a5,a5,a4
    1bde:	fef41723          	sh	a5,-18(s0)
C:\Users\windows\Desktop\smart_car\MASTER\obj/../Libraries/wch_libraries/Peripheral/ch32v10x_tim.c:200
  tmpccer |= (uint16_t)(TIM_OCInitStruct->TIM_OutputState << 8);
    1be2:	fd842783          	lw	a5,-40(s0)
    1be6:	0027d783          	lhu	a5,2(a5)
    1bea:	07a2                	slli	a5,a5,0x8
    1bec:	01079713          	slli	a4,a5,0x10
    1bf0:	8341                	srli	a4,a4,0x10
    1bf2:	fee45783          	lhu	a5,-18(s0)
    1bf6:	8fd9                	or	a5,a5,a4
    1bf8:	fef41723          	sh	a5,-18(s0)
C:\Users\windows\Desktop\smart_car\MASTER\obj/../Libraries/wch_libraries/Peripheral/ch32v10x_tim.c:202
    
  if(TIMx == TIM1)
    1bfc:	fdc42703          	lw	a4,-36(s0)
    1c00:	400137b7          	lui	a5,0x40013
    1c04:	c0078793          	addi	a5,a5,-1024 # 40012c00 <_eusrstack+0x2000dc00>
    1c08:	0af71263          	bne	a4,a5,1cac <TIM_OC3Init+0x174>
C:\Users\windows\Desktop\smart_car\MASTER\obj/../Libraries/wch_libraries/Peripheral/ch32v10x_tim.c:204
  {
    tmpccer &= (uint16_t)(~((uint16_t)TIM_CC3NP));
    1c0c:	fee45703          	lhu	a4,-18(s0)
    1c10:	77fd                	lui	a5,0xfffff
    1c12:	7ff78793          	addi	a5,a5,2047 # fffff7ff <_eusrstack+0xdfffa7ff>
    1c16:	8ff9                	and	a5,a5,a4
    1c18:	fef41723          	sh	a5,-18(s0)
C:\Users\windows\Desktop\smart_car\MASTER\obj/../Libraries/wch_libraries/Peripheral/ch32v10x_tim.c:205
    tmpccer |= (uint16_t)(TIM_OCInitStruct->TIM_OCNPolarity << 8);
    1c1c:	fd842783          	lw	a5,-40(s0)
    1c20:	00a7d783          	lhu	a5,10(a5)
    1c24:	07a2                	slli	a5,a5,0x8
    1c26:	01079713          	slli	a4,a5,0x10
    1c2a:	8341                	srli	a4,a4,0x10
    1c2c:	fee45783          	lhu	a5,-18(s0)
    1c30:	8fd9                	or	a5,a5,a4
    1c32:	fef41723          	sh	a5,-18(s0)
C:\Users\windows\Desktop\smart_car\MASTER\obj/../Libraries/wch_libraries/Peripheral/ch32v10x_tim.c:206
    tmpccer &= (uint16_t)(~((uint16_t)TIM_CC3NE));
    1c36:	fee45783          	lhu	a5,-18(s0)
    1c3a:	bff7f793          	andi	a5,a5,-1025
    1c3e:	fef41723          	sh	a5,-18(s0)
C:\Users\windows\Desktop\smart_car\MASTER\obj/../Libraries/wch_libraries/Peripheral/ch32v10x_tim.c:207
    tmpccer |= (uint16_t)(TIM_OCInitStruct->TIM_OutputNState << 8);
    1c42:	fd842783          	lw	a5,-40(s0)
    1c46:	0047d783          	lhu	a5,4(a5)
    1c4a:	07a2                	slli	a5,a5,0x8
    1c4c:	01079713          	slli	a4,a5,0x10
    1c50:	8341                	srli	a4,a4,0x10
    1c52:	fee45783          	lhu	a5,-18(s0)
    1c56:	8fd9                	or	a5,a5,a4
    1c58:	fef41723          	sh	a5,-18(s0)
C:\Users\windows\Desktop\smart_car\MASTER\obj/../Libraries/wch_libraries/Peripheral/ch32v10x_tim.c:208
    tmpcr2 &= (uint16_t)(~((uint16_t)TIM_OIS3));
    1c5c:	fec45703          	lhu	a4,-20(s0)
    1c60:	77fd                	lui	a5,0xfffff
    1c62:	17fd                	addi	a5,a5,-1
    1c64:	8ff9                	and	a5,a5,a4
    1c66:	fef41623          	sh	a5,-20(s0)
C:\Users\windows\Desktop\smart_car\MASTER\obj/../Libraries/wch_libraries/Peripheral/ch32v10x_tim.c:209
    tmpcr2 &= (uint16_t)(~((uint16_t)TIM_OIS3N));
    1c6a:	fec45703          	lhu	a4,-20(s0)
    1c6e:	77f9                	lui	a5,0xffffe
    1c70:	17fd                	addi	a5,a5,-1
    1c72:	8ff9                	and	a5,a5,a4
    1c74:	fef41623          	sh	a5,-20(s0)
C:\Users\windows\Desktop\smart_car\MASTER\obj/../Libraries/wch_libraries/Peripheral/ch32v10x_tim.c:210
    tmpcr2 |= (uint16_t)(TIM_OCInitStruct->TIM_OCIdleState << 4);
    1c78:	fd842783          	lw	a5,-40(s0)
    1c7c:	00c7d783          	lhu	a5,12(a5) # ffffe00c <_eusrstack+0xdfff900c>
    1c80:	0792                	slli	a5,a5,0x4
    1c82:	01079713          	slli	a4,a5,0x10
    1c86:	8341                	srli	a4,a4,0x10
    1c88:	fec45783          	lhu	a5,-20(s0)
    1c8c:	8fd9                	or	a5,a5,a4
    1c8e:	fef41623          	sh	a5,-20(s0)
C:\Users\windows\Desktop\smart_car\MASTER\obj/../Libraries/wch_libraries/Peripheral/ch32v10x_tim.c:211
    tmpcr2 |= (uint16_t)(TIM_OCInitStruct->TIM_OCNIdleState << 4);
    1c92:	fd842783          	lw	a5,-40(s0)
    1c96:	00e7d783          	lhu	a5,14(a5)
    1c9a:	0792                	slli	a5,a5,0x4
    1c9c:	01079713          	slli	a4,a5,0x10
    1ca0:	8341                	srli	a4,a4,0x10
    1ca2:	fec45783          	lhu	a5,-20(s0)
    1ca6:	8fd9                	or	a5,a5,a4
    1ca8:	fef41623          	sh	a5,-20(s0)
C:\Users\windows\Desktop\smart_car\MASTER\obj/../Libraries/wch_libraries/Peripheral/ch32v10x_tim.c:214
  }

  TIMx->CTLR2 = tmpcr2;
    1cac:	fdc42783          	lw	a5,-36(s0)
    1cb0:	fec45703          	lhu	a4,-20(s0)
    1cb4:	00e79223          	sh	a4,4(a5)
C:\Users\windows\Desktop\smart_car\MASTER\obj/../Libraries/wch_libraries/Peripheral/ch32v10x_tim.c:215
  TIMx->CHCTLR2 = tmpccmrx;
    1cb8:	fdc42783          	lw	a5,-36(s0)
    1cbc:	fea45703          	lhu	a4,-22(s0)
    1cc0:	00e79e23          	sh	a4,28(a5)
C:\Users\windows\Desktop\smart_car\MASTER\obj/../Libraries/wch_libraries/Peripheral/ch32v10x_tim.c:216
  TIMx->CH3CVR = TIM_OCInitStruct->TIM_Pulse;
    1cc4:	fd842783          	lw	a5,-40(s0)
    1cc8:	0067d703          	lhu	a4,6(a5)
    1ccc:	fdc42783          	lw	a5,-36(s0)
    1cd0:	02e79e23          	sh	a4,60(a5)
C:\Users\windows\Desktop\smart_car\MASTER\obj/../Libraries/wch_libraries/Peripheral/ch32v10x_tim.c:217
  TIMx->CCER = tmpccer;
    1cd4:	fdc42783          	lw	a5,-36(s0)
    1cd8:	fee45703          	lhu	a4,-18(s0)
    1cdc:	02e79023          	sh	a4,32(a5)
C:\Users\windows\Desktop\smart_car\MASTER\obj/../Libraries/wch_libraries/Peripheral/ch32v10x_tim.c:218
}
    1ce0:	0001                	nop
    1ce2:	5432                	lw	s0,44(sp)
    1ce4:	6145                	addi	sp,sp,48
    1ce6:	8082                	ret

00001ce8 <TIM_OC4Init>:
TIM_OC4Init():
C:\Users\windows\Desktop\smart_car\MASTER\obj/../Libraries/wch_libraries/Peripheral/ch32v10x_tim.c:229
* Input          : TIMx: where x can be 1 to 4 to select the TIM peripheral.
*                  TIM_OCInitStruct: pointer to a TIM_OCInitTypeDef structure.
* Return         : None
*******************************************************************************/
void TIM_OC4Init(TIM_TypeDef* TIMx, TIM_OCInitTypeDef* TIM_OCInitStruct)
{
    1ce8:	7179                	addi	sp,sp,-48
    1cea:	d622                	sw	s0,44(sp)
    1cec:	1800                	addi	s0,sp,48
    1cee:	fca42e23          	sw	a0,-36(s0)
    1cf2:	fcb42c23          	sw	a1,-40(s0)
C:\Users\windows\Desktop\smart_car\MASTER\obj/../Libraries/wch_libraries/Peripheral/ch32v10x_tim.c:230
  uint16_t tmpccmrx = 0, tmpccer = 0, tmpcr2 = 0;
    1cf6:	fe041623          	sh	zero,-20(s0)
    1cfa:	fe041523          	sh	zero,-22(s0)
    1cfe:	fe041723          	sh	zero,-18(s0)
C:\Users\windows\Desktop\smart_car\MASTER\obj/../Libraries/wch_libraries/Peripheral/ch32v10x_tim.c:232

  TIMx->CCER &= (uint16_t)(~((uint16_t)TIM_CC4E));
    1d02:	fdc42783          	lw	a5,-36(s0)
    1d06:	0207d783          	lhu	a5,32(a5)
    1d0a:	01079713          	slli	a4,a5,0x10
    1d0e:	8341                	srli	a4,a4,0x10
    1d10:	77fd                	lui	a5,0xfffff
    1d12:	17fd                	addi	a5,a5,-1
    1d14:	8ff9                	and	a5,a5,a4
    1d16:	01079713          	slli	a4,a5,0x10
    1d1a:	8341                	srli	a4,a4,0x10
    1d1c:	fdc42783          	lw	a5,-36(s0)
    1d20:	02e79023          	sh	a4,32(a5) # fffff020 <_eusrstack+0xdfffa020>
C:\Users\windows\Desktop\smart_car\MASTER\obj/../Libraries/wch_libraries/Peripheral/ch32v10x_tim.c:233
  tmpccer = TIMx->CCER;
    1d24:	fdc42783          	lw	a5,-36(s0)
    1d28:	0207d783          	lhu	a5,32(a5)
    1d2c:	fef41523          	sh	a5,-22(s0)
C:\Users\windows\Desktop\smart_car\MASTER\obj/../Libraries/wch_libraries/Peripheral/ch32v10x_tim.c:234
  tmpcr2 =  TIMx->CTLR2;
    1d30:	fdc42783          	lw	a5,-36(s0)
    1d34:	0047d783          	lhu	a5,4(a5)
    1d38:	fef41723          	sh	a5,-18(s0)
C:\Users\windows\Desktop\smart_car\MASTER\obj/../Libraries/wch_libraries/Peripheral/ch32v10x_tim.c:235
  tmpccmrx = TIMx->CHCTLR2;
    1d3c:	fdc42783          	lw	a5,-36(s0)
    1d40:	01c7d783          	lhu	a5,28(a5)
    1d44:	fef41623          	sh	a5,-20(s0)
C:\Users\windows\Desktop\smart_car\MASTER\obj/../Libraries/wch_libraries/Peripheral/ch32v10x_tim.c:236
  tmpccmrx &= (uint16_t)(~((uint16_t)TIM_OC4M));
    1d48:	fec45703          	lhu	a4,-20(s0)
    1d4c:	77e5                	lui	a5,0xffff9
    1d4e:	17fd                	addi	a5,a5,-1
    1d50:	8ff9                	and	a5,a5,a4
    1d52:	fef41623          	sh	a5,-20(s0)
C:\Users\windows\Desktop\smart_car\MASTER\obj/../Libraries/wch_libraries/Peripheral/ch32v10x_tim.c:237
  tmpccmrx &= (uint16_t)(~((uint16_t)TIM_CC4S));
    1d56:	fec45783          	lhu	a5,-20(s0)
    1d5a:	cff7f793          	andi	a5,a5,-769
    1d5e:	fef41623          	sh	a5,-20(s0)
C:\Users\windows\Desktop\smart_car\MASTER\obj/../Libraries/wch_libraries/Peripheral/ch32v10x_tim.c:238
  tmpccmrx |= (uint16_t)(TIM_OCInitStruct->TIM_OCMode << 8);
    1d62:	fd842783          	lw	a5,-40(s0)
    1d66:	0007d783          	lhu	a5,0(a5) # ffff9000 <_eusrstack+0xdfff4000>
    1d6a:	07a2                	slli	a5,a5,0x8
    1d6c:	01079713          	slli	a4,a5,0x10
    1d70:	8341                	srli	a4,a4,0x10
    1d72:	fec45783          	lhu	a5,-20(s0)
    1d76:	8fd9                	or	a5,a5,a4
    1d78:	fef41623          	sh	a5,-20(s0)
C:\Users\windows\Desktop\smart_car\MASTER\obj/../Libraries/wch_libraries/Peripheral/ch32v10x_tim.c:239
  tmpccer &= (uint16_t)(~((uint16_t)TIM_CC4P));
    1d7c:	fea45703          	lhu	a4,-22(s0)
    1d80:	77f9                	lui	a5,0xffffe
    1d82:	17fd                	addi	a5,a5,-1
    1d84:	8ff9                	and	a5,a5,a4
    1d86:	fef41523          	sh	a5,-22(s0)
C:\Users\windows\Desktop\smart_car\MASTER\obj/../Libraries/wch_libraries/Peripheral/ch32v10x_tim.c:240
  tmpccer |= (uint16_t)(TIM_OCInitStruct->TIM_OCPolarity << 12);
    1d8a:	fd842783          	lw	a5,-40(s0)
    1d8e:	0087d783          	lhu	a5,8(a5) # ffffe008 <_eusrstack+0xdfff9008>
    1d92:	07b2                	slli	a5,a5,0xc
    1d94:	01079713          	slli	a4,a5,0x10
    1d98:	8341                	srli	a4,a4,0x10
    1d9a:	fea45783          	lhu	a5,-22(s0)
    1d9e:	8fd9                	or	a5,a5,a4
    1da0:	fef41523          	sh	a5,-22(s0)
C:\Users\windows\Desktop\smart_car\MASTER\obj/../Libraries/wch_libraries/Peripheral/ch32v10x_tim.c:241
  tmpccer |= (uint16_t)(TIM_OCInitStruct->TIM_OutputState << 12);
    1da4:	fd842783          	lw	a5,-40(s0)
    1da8:	0027d783          	lhu	a5,2(a5)
    1dac:	07b2                	slli	a5,a5,0xc
    1dae:	01079713          	slli	a4,a5,0x10
    1db2:	8341                	srli	a4,a4,0x10
    1db4:	fea45783          	lhu	a5,-22(s0)
    1db8:	8fd9                	or	a5,a5,a4
    1dba:	fef41523          	sh	a5,-22(s0)
C:\Users\windows\Desktop\smart_car\MASTER\obj/../Libraries/wch_libraries/Peripheral/ch32v10x_tim.c:243
    
  if(TIMx == TIM1)
    1dbe:	fdc42703          	lw	a4,-36(s0)
    1dc2:	400137b7          	lui	a5,0x40013
    1dc6:	c0078793          	addi	a5,a5,-1024 # 40012c00 <_eusrstack+0x2000dc00>
    1dca:	02f71663          	bne	a4,a5,1df6 <TIM_OC4Init+0x10e>
C:\Users\windows\Desktop\smart_car\MASTER\obj/../Libraries/wch_libraries/Peripheral/ch32v10x_tim.c:245
  {
    tmpcr2 &= (uint16_t)(~((uint16_t)TIM_OIS4));
    1dce:	fee45703          	lhu	a4,-18(s0)
    1dd2:	77f1                	lui	a5,0xffffc
    1dd4:	17fd                	addi	a5,a5,-1
    1dd6:	8ff9                	and	a5,a5,a4
    1dd8:	fef41723          	sh	a5,-18(s0)
C:\Users\windows\Desktop\smart_car\MASTER\obj/../Libraries/wch_libraries/Peripheral/ch32v10x_tim.c:246
    tmpcr2 |= (uint16_t)(TIM_OCInitStruct->TIM_OCIdleState << 6);
    1ddc:	fd842783          	lw	a5,-40(s0)
    1de0:	00c7d783          	lhu	a5,12(a5) # ffffc00c <_eusrstack+0xdfff700c>
    1de4:	079a                	slli	a5,a5,0x6
    1de6:	01079713          	slli	a4,a5,0x10
    1dea:	8341                	srli	a4,a4,0x10
    1dec:	fee45783          	lhu	a5,-18(s0)
    1df0:	8fd9                	or	a5,a5,a4
    1df2:	fef41723          	sh	a5,-18(s0)
C:\Users\windows\Desktop\smart_car\MASTER\obj/../Libraries/wch_libraries/Peripheral/ch32v10x_tim.c:249
  }

  TIMx->CTLR2 = tmpcr2; 
    1df6:	fdc42783          	lw	a5,-36(s0)
    1dfa:	fee45703          	lhu	a4,-18(s0)
    1dfe:	00e79223          	sh	a4,4(a5)
C:\Users\windows\Desktop\smart_car\MASTER\obj/../Libraries/wch_libraries/Peripheral/ch32v10x_tim.c:250
  TIMx->CHCTLR2 = tmpccmrx;
    1e02:	fdc42783          	lw	a5,-36(s0)
    1e06:	fec45703          	lhu	a4,-20(s0)
    1e0a:	00e79e23          	sh	a4,28(a5)
C:\Users\windows\Desktop\smart_car\MASTER\obj/../Libraries/wch_libraries/Peripheral/ch32v10x_tim.c:251
  TIMx->CH4CVR = TIM_OCInitStruct->TIM_Pulse;
    1e0e:	fd842783          	lw	a5,-40(s0)
    1e12:	0067d703          	lhu	a4,6(a5)
    1e16:	fdc42783          	lw	a5,-36(s0)
    1e1a:	04e79023          	sh	a4,64(a5)
C:\Users\windows\Desktop\smart_car\MASTER\obj/../Libraries/wch_libraries/Peripheral/ch32v10x_tim.c:252
  TIMx->CCER = tmpccer;
    1e1e:	fdc42783          	lw	a5,-36(s0)
    1e22:	fea45703          	lhu	a4,-22(s0)
    1e26:	02e79023          	sh	a4,32(a5)
C:\Users\windows\Desktop\smart_car\MASTER\obj/../Libraries/wch_libraries/Peripheral/ch32v10x_tim.c:253
}
    1e2a:	0001                	nop
    1e2c:	5432                	lw	s0,44(sp)
    1e2e:	6145                	addi	sp,sp,48
    1e30:	8082                	ret

00001e32 <TIM_TimeBaseStructInit>:
TIM_TimeBaseStructInit():
C:\Users\windows\Desktop\smart_car\MASTER\obj/../Libraries/wch_libraries/Peripheral/ch32v10x_tim.c:367
* Description    : Fills each TIM_TimeBaseInitStruct member with its default value.
* Input          : TIM_TimeBaseInitStruct : pointer to a TIM_TimeBaseInitTypeDef structure.                 
* Return         : None
*******************************************************************************/
void TIM_TimeBaseStructInit(TIM_TimeBaseInitTypeDef* TIM_TimeBaseInitStruct)
{
    1e32:	1101                	addi	sp,sp,-32
    1e34:	ce22                	sw	s0,28(sp)
    1e36:	1000                	addi	s0,sp,32
    1e38:	fea42623          	sw	a0,-20(s0)
C:\Users\windows\Desktop\smart_car\MASTER\obj/../Libraries/wch_libraries/Peripheral/ch32v10x_tim.c:368
  TIM_TimeBaseInitStruct->TIM_Period = 0xFFFF;
    1e3c:	fec42783          	lw	a5,-20(s0)
    1e40:	577d                	li	a4,-1
    1e42:	00e79223          	sh	a4,4(a5)
C:\Users\windows\Desktop\smart_car\MASTER\obj/../Libraries/wch_libraries/Peripheral/ch32v10x_tim.c:369
  TIM_TimeBaseInitStruct->TIM_Prescaler = 0x0000;
    1e46:	fec42783          	lw	a5,-20(s0)
    1e4a:	00079023          	sh	zero,0(a5)
C:\Users\windows\Desktop\smart_car\MASTER\obj/../Libraries/wch_libraries/Peripheral/ch32v10x_tim.c:370
  TIM_TimeBaseInitStruct->TIM_ClockDivision = TIM_CKD_DIV1;
    1e4e:	fec42783          	lw	a5,-20(s0)
    1e52:	00079323          	sh	zero,6(a5)
C:\Users\windows\Desktop\smart_car\MASTER\obj/../Libraries/wch_libraries/Peripheral/ch32v10x_tim.c:371
  TIM_TimeBaseInitStruct->TIM_CounterMode = TIM_CounterMode_Up;
    1e56:	fec42783          	lw	a5,-20(s0)
    1e5a:	00079123          	sh	zero,2(a5)
C:\Users\windows\Desktop\smart_car\MASTER\obj/../Libraries/wch_libraries/Peripheral/ch32v10x_tim.c:372
  TIM_TimeBaseInitStruct->TIM_RepetitionCounter = 0x0000;
    1e5e:	fec42783          	lw	a5,-20(s0)
    1e62:	00078423          	sb	zero,8(a5)
C:\Users\windows\Desktop\smart_car\MASTER\obj/../Libraries/wch_libraries/Peripheral/ch32v10x_tim.c:373
}
    1e66:	0001                	nop
    1e68:	4472                	lw	s0,28(sp)
    1e6a:	6105                	addi	sp,sp,32
    1e6c:	8082                	ret

00001e6e <TIM_Cmd>:
TIM_Cmd():
C:\Users\windows\Desktop\smart_car\MASTER\obj/../Libraries/wch_libraries/Peripheral/ch32v10x_tim.c:433
* Input          : TIMx: where x can be 1 to 4 to select the TIM peripheral.
*                  NewState: ENABLE or DISABLE.
* Return         : None
*******************************************************************************/
void TIM_Cmd(TIM_TypeDef* TIMx, FunctionalState NewState)
{ 
    1e6e:	1101                	addi	sp,sp,-32
    1e70:	ce22                	sw	s0,28(sp)
    1e72:	1000                	addi	s0,sp,32
    1e74:	fea42623          	sw	a0,-20(s0)
    1e78:	feb42423          	sw	a1,-24(s0)
C:\Users\windows\Desktop\smart_car\MASTER\obj/../Libraries/wch_libraries/Peripheral/ch32v10x_tim.c:434
  if (NewState != DISABLE)
    1e7c:	fe842783          	lw	a5,-24(s0)
    1e80:	c38d                	beqz	a5,1ea2 <TIM_Cmd+0x34>
C:\Users\windows\Desktop\smart_car\MASTER\obj/../Libraries/wch_libraries/Peripheral/ch32v10x_tim.c:436
  {
    TIMx->CTLR1 |= TIM_CEN;
    1e82:	fec42783          	lw	a5,-20(s0)
    1e86:	0007d783          	lhu	a5,0(a5)
    1e8a:	07c2                	slli	a5,a5,0x10
    1e8c:	83c1                	srli	a5,a5,0x10
    1e8e:	0017e793          	ori	a5,a5,1
    1e92:	01079713          	slli	a4,a5,0x10
    1e96:	8341                	srli	a4,a4,0x10
    1e98:	fec42783          	lw	a5,-20(s0)
    1e9c:	00e79023          	sh	a4,0(a5)
C:\Users\windows\Desktop\smart_car\MASTER\obj/../Libraries/wch_libraries/Peripheral/ch32v10x_tim.c:442
  }
  else
  {
    TIMx->CTLR1 &= (uint16_t)(~((uint16_t)TIM_CEN));
  }
}
    1ea0:	a839                	j	1ebe <TIM_Cmd+0x50>
C:\Users\windows\Desktop\smart_car\MASTER\obj/../Libraries/wch_libraries/Peripheral/ch32v10x_tim.c:440
    TIMx->CTLR1 &= (uint16_t)(~((uint16_t)TIM_CEN));
    1ea2:	fec42783          	lw	a5,-20(s0)
    1ea6:	0007d783          	lhu	a5,0(a5)
    1eaa:	07c2                	slli	a5,a5,0x10
    1eac:	83c1                	srli	a5,a5,0x10
    1eae:	9bf9                	andi	a5,a5,-2
    1eb0:	01079713          	slli	a4,a5,0x10
    1eb4:	8341                	srli	a4,a4,0x10
    1eb6:	fec42783          	lw	a5,-20(s0)
    1eba:	00e79023          	sh	a4,0(a5)
C:\Users\windows\Desktop\smart_car\MASTER\obj/../Libraries/wch_libraries/Peripheral/ch32v10x_tim.c:442
}
    1ebe:	0001                	nop
    1ec0:	4472                	lw	s0,28(sp)
    1ec2:	6105                	addi	sp,sp,32
    1ec4:	8082                	ret

00001ec6 <TIM_CtrlPWMOutputs>:
TIM_CtrlPWMOutputs():
C:\Users\windows\Desktop\smart_car\MASTER\obj/../Libraries/wch_libraries/Peripheral/ch32v10x_tim.c:452
* Input          : TIMx: where x can be 1 to 4 to select the TIM peripheral.
*                  NewState: ENABLE or DISABLE.
* Return         : None
*******************************************************************************/
void TIM_CtrlPWMOutputs(TIM_TypeDef* TIMx, FunctionalState NewState)
{
    1ec6:	1101                	addi	sp,sp,-32
    1ec8:	ce22                	sw	s0,28(sp)
    1eca:	1000                	addi	s0,sp,32
    1ecc:	fea42623          	sw	a0,-20(s0)
    1ed0:	feb42423          	sw	a1,-24(s0)
C:\Users\windows\Desktop\smart_car\MASTER\obj/../Libraries/wch_libraries/Peripheral/ch32v10x_tim.c:453
  if (NewState != DISABLE)
    1ed4:	fe842783          	lw	a5,-24(s0)
    1ed8:	c395                	beqz	a5,1efc <TIM_CtrlPWMOutputs+0x36>
C:\Users\windows\Desktop\smart_car\MASTER\obj/../Libraries/wch_libraries/Peripheral/ch32v10x_tim.c:455
  {
    TIMx->BDTR |= TIM_MOE;
    1eda:	fec42783          	lw	a5,-20(s0)
    1ede:	0447d783          	lhu	a5,68(a5)
    1ee2:	01079713          	slli	a4,a5,0x10
    1ee6:	8341                	srli	a4,a4,0x10
    1ee8:	77e1                	lui	a5,0xffff8
    1eea:	8fd9                	or	a5,a5,a4
    1eec:	01079713          	slli	a4,a5,0x10
    1ef0:	8341                	srli	a4,a4,0x10
    1ef2:	fec42783          	lw	a5,-20(s0)
    1ef6:	04e79223          	sh	a4,68(a5) # ffff8044 <_eusrstack+0xdfff3044>
C:\Users\windows\Desktop\smart_car\MASTER\obj/../Libraries/wch_libraries/Peripheral/ch32v10x_tim.c:461
  }
  else
  {
    TIMx->BDTR &= (uint16_t)(~((uint16_t)TIM_MOE));
  }  
}
    1efa:	a015                	j	1f1e <TIM_CtrlPWMOutputs+0x58>
C:\Users\windows\Desktop\smart_car\MASTER\obj/../Libraries/wch_libraries/Peripheral/ch32v10x_tim.c:459
    TIMx->BDTR &= (uint16_t)(~((uint16_t)TIM_MOE));
    1efc:	fec42783          	lw	a5,-20(s0)
    1f00:	0447d783          	lhu	a5,68(a5)
    1f04:	01079713          	slli	a4,a5,0x10
    1f08:	8341                	srli	a4,a4,0x10
    1f0a:	67a1                	lui	a5,0x8
    1f0c:	17fd                	addi	a5,a5,-1
    1f0e:	8ff9                	and	a5,a5,a4
    1f10:	01079713          	slli	a4,a5,0x10
    1f14:	8341                	srli	a4,a4,0x10
    1f16:	fec42783          	lw	a5,-20(s0)
    1f1a:	04e79223          	sh	a4,68(a5) # 8044 <_data_lma+0x12dc>
C:\Users\windows\Desktop\smart_car\MASTER\obj/../Libraries/wch_libraries/Peripheral/ch32v10x_tim.c:461
}
    1f1e:	0001                	nop
    1f20:	4472                	lw	s0,28(sp)
    1f22:	6105                	addi	sp,sp,32
    1f24:	8082                	ret

00001f26 <TIM_EncoderInterfaceConfig>:
TIM_EncoderInterfaceConfig():
C:\Users\windows\Desktop\smart_car\MASTER\obj/../Libraries/wch_libraries/Peripheral/ch32v10x_tim.c:796
*                    TIM_ICPolarity_Rising: IC Rising edge.
* Return         : None
*******************************************************************************/
void TIM_EncoderInterfaceConfig(TIM_TypeDef* TIMx, uint16_t TIM_EncoderMode,
                                uint16_t TIM_IC1Polarity, uint16_t TIM_IC2Polarity)
{
    1f26:	7179                	addi	sp,sp,-48
    1f28:	d622                	sw	s0,44(sp)
    1f2a:	1800                	addi	s0,sp,48
    1f2c:	fca42e23          	sw	a0,-36(s0)
    1f30:	87ae                	mv	a5,a1
    1f32:	8736                	mv	a4,a3
    1f34:	fcf41d23          	sh	a5,-38(s0)
    1f38:	87b2                	mv	a5,a2
    1f3a:	fcf41c23          	sh	a5,-40(s0)
    1f3e:	87ba                	mv	a5,a4
    1f40:	fcf41b23          	sh	a5,-42(s0)
C:\Users\windows\Desktop\smart_car\MASTER\obj/../Libraries/wch_libraries/Peripheral/ch32v10x_tim.c:797
  uint16_t tmpsmcr = 0;
    1f44:	fe041723          	sh	zero,-18(s0)
C:\Users\windows\Desktop\smart_car\MASTER\obj/../Libraries/wch_libraries/Peripheral/ch32v10x_tim.c:798
  uint16_t tmpccmr1 = 0;
    1f48:	fe041623          	sh	zero,-20(s0)
C:\Users\windows\Desktop\smart_car\MASTER\obj/../Libraries/wch_libraries/Peripheral/ch32v10x_tim.c:799
  uint16_t tmpccer = 0;
    1f4c:	fe041523          	sh	zero,-22(s0)
C:\Users\windows\Desktop\smart_car\MASTER\obj/../Libraries/wch_libraries/Peripheral/ch32v10x_tim.c:801
    
  tmpsmcr = TIMx->SMCFGR;
    1f50:	fdc42783          	lw	a5,-36(s0)
    1f54:	0087d783          	lhu	a5,8(a5)
    1f58:	fef41723          	sh	a5,-18(s0)
C:\Users\windows\Desktop\smart_car\MASTER\obj/../Libraries/wch_libraries/Peripheral/ch32v10x_tim.c:802
  tmpccmr1 = TIMx->CHCTLR1;
    1f5c:	fdc42783          	lw	a5,-36(s0)
    1f60:	0187d783          	lhu	a5,24(a5)
    1f64:	fef41623          	sh	a5,-20(s0)
C:\Users\windows\Desktop\smart_car\MASTER\obj/../Libraries/wch_libraries/Peripheral/ch32v10x_tim.c:803
  tmpccer = TIMx->CCER;
    1f68:	fdc42783          	lw	a5,-36(s0)
    1f6c:	0207d783          	lhu	a5,32(a5)
    1f70:	fef41523          	sh	a5,-22(s0)
C:\Users\windows\Desktop\smart_car\MASTER\obj/../Libraries/wch_libraries/Peripheral/ch32v10x_tim.c:804
  tmpsmcr &= (uint16_t)(~((uint16_t)TIM_SMS));
    1f74:	fee45783          	lhu	a5,-18(s0)
    1f78:	9be1                	andi	a5,a5,-8
    1f7a:	fef41723          	sh	a5,-18(s0)
C:\Users\windows\Desktop\smart_car\MASTER\obj/../Libraries/wch_libraries/Peripheral/ch32v10x_tim.c:805
  tmpsmcr |= TIM_EncoderMode;
    1f7e:	fee45703          	lhu	a4,-18(s0)
    1f82:	fda45783          	lhu	a5,-38(s0)
    1f86:	8fd9                	or	a5,a5,a4
    1f88:	fef41723          	sh	a5,-18(s0)
C:\Users\windows\Desktop\smart_car\MASTER\obj/../Libraries/wch_libraries/Peripheral/ch32v10x_tim.c:806
  tmpccmr1 &= (uint16_t)(((uint16_t)~((uint16_t)TIM_CC1S)) & (uint16_t)(~((uint16_t)TIM_CC2S)));
    1f8c:	fec45783          	lhu	a5,-20(s0)
    1f90:	cfc7f793          	andi	a5,a5,-772
    1f94:	fef41623          	sh	a5,-20(s0)
C:\Users\windows\Desktop\smart_car\MASTER\obj/../Libraries/wch_libraries/Peripheral/ch32v10x_tim.c:807
  tmpccmr1 |= TIM_CC1S_0 | TIM_CC2S_0;
    1f98:	fec45783          	lhu	a5,-20(s0)
    1f9c:	1017e793          	ori	a5,a5,257
    1fa0:	fef41623          	sh	a5,-20(s0)
C:\Users\windows\Desktop\smart_car\MASTER\obj/../Libraries/wch_libraries/Peripheral/ch32v10x_tim.c:808
  tmpccer &= (uint16_t)(((uint16_t)~((uint16_t)TIM_CC1P)) & ((uint16_t)~((uint16_t)TIM_CC2P)));
    1fa4:	fea45783          	lhu	a5,-22(s0)
    1fa8:	fdd7f793          	andi	a5,a5,-35
    1fac:	fef41523          	sh	a5,-22(s0)
C:\Users\windows\Desktop\smart_car\MASTER\obj/../Libraries/wch_libraries/Peripheral/ch32v10x_tim.c:809
  tmpccer |= (uint16_t)(TIM_IC1Polarity | (uint16_t)(TIM_IC2Polarity << (uint16_t)4)); 
    1fb0:	fd645783          	lhu	a5,-42(s0)
    1fb4:	0792                	slli	a5,a5,0x4
    1fb6:	01079713          	slli	a4,a5,0x10
    1fba:	8341                	srli	a4,a4,0x10
    1fbc:	fd845783          	lhu	a5,-40(s0)
    1fc0:	8fd9                	or	a5,a5,a4
    1fc2:	01079713          	slli	a4,a5,0x10
    1fc6:	8341                	srli	a4,a4,0x10
    1fc8:	fea45783          	lhu	a5,-22(s0)
    1fcc:	8fd9                	or	a5,a5,a4
    1fce:	fef41523          	sh	a5,-22(s0)
C:\Users\windows\Desktop\smart_car\MASTER\obj/../Libraries/wch_libraries/Peripheral/ch32v10x_tim.c:810
  TIMx->SMCFGR = tmpsmcr;
    1fd2:	fdc42783          	lw	a5,-36(s0)
    1fd6:	fee45703          	lhu	a4,-18(s0)
    1fda:	00e79423          	sh	a4,8(a5)
C:\Users\windows\Desktop\smart_car\MASTER\obj/../Libraries/wch_libraries/Peripheral/ch32v10x_tim.c:811
  TIMx->CHCTLR1 = tmpccmr1;
    1fde:	fdc42783          	lw	a5,-36(s0)
    1fe2:	fec45703          	lhu	a4,-20(s0)
    1fe6:	00e79c23          	sh	a4,24(a5)
C:\Users\windows\Desktop\smart_car\MASTER\obj/../Libraries/wch_libraries/Peripheral/ch32v10x_tim.c:812
  TIMx->CCER = tmpccer;
    1fea:	fdc42783          	lw	a5,-36(s0)
    1fee:	fea45703          	lhu	a4,-22(s0)
    1ff2:	02e79023          	sh	a4,32(a5)
C:\Users\windows\Desktop\smart_car\MASTER\obj/../Libraries/wch_libraries/Peripheral/ch32v10x_tim.c:813
}
    1ff6:	0001                	nop
    1ff8:	5432                	lw	s0,44(sp)
    1ffa:	6145                	addi	sp,sp,48
    1ffc:	8082                	ret

00001ffe <TIM_OC1PreloadConfig>:
TIM_OC1PreloadConfig():
C:\Users\windows\Desktop\smart_car\MASTER\obj/../Libraries/wch_libraries/Peripheral/ch32v10x_tim.c:981
*                    TIM_OCPreload_Enable.
*                    TIM_OCPreload_Disable.
* Return         : None
*******************************************************************************/
void TIM_OC1PreloadConfig(TIM_TypeDef* TIMx, uint16_t TIM_OCPreload)
{
    1ffe:	7179                	addi	sp,sp,-48
    2000:	d622                	sw	s0,44(sp)
    2002:	1800                	addi	s0,sp,48
    2004:	fca42e23          	sw	a0,-36(s0)
    2008:	87ae                	mv	a5,a1
    200a:	fcf41d23          	sh	a5,-38(s0)
C:\Users\windows\Desktop\smart_car\MASTER\obj/../Libraries/wch_libraries/Peripheral/ch32v10x_tim.c:982
  uint16_t tmpccmr1 = 0;
    200e:	fe041723          	sh	zero,-18(s0)
C:\Users\windows\Desktop\smart_car\MASTER\obj/../Libraries/wch_libraries/Peripheral/ch32v10x_tim.c:984

  tmpccmr1 = TIMx->CHCTLR1;
    2012:	fdc42783          	lw	a5,-36(s0)
    2016:	0187d783          	lhu	a5,24(a5)
    201a:	fef41723          	sh	a5,-18(s0)
C:\Users\windows\Desktop\smart_car\MASTER\obj/../Libraries/wch_libraries/Peripheral/ch32v10x_tim.c:985
  tmpccmr1 &= (uint16_t)~((uint16_t)TIM_OC1PE);
    201e:	fee45783          	lhu	a5,-18(s0)
    2022:	9bdd                	andi	a5,a5,-9
    2024:	fef41723          	sh	a5,-18(s0)
C:\Users\windows\Desktop\smart_car\MASTER\obj/../Libraries/wch_libraries/Peripheral/ch32v10x_tim.c:986
  tmpccmr1 |= TIM_OCPreload;
    2028:	fee45703          	lhu	a4,-18(s0)
    202c:	fda45783          	lhu	a5,-38(s0)
    2030:	8fd9                	or	a5,a5,a4
    2032:	fef41723          	sh	a5,-18(s0)
C:\Users\windows\Desktop\smart_car\MASTER\obj/../Libraries/wch_libraries/Peripheral/ch32v10x_tim.c:987
  TIMx->CHCTLR1 = tmpccmr1;
    2036:	fdc42783          	lw	a5,-36(s0)
    203a:	fee45703          	lhu	a4,-18(s0)
    203e:	00e79c23          	sh	a4,24(a5)
C:\Users\windows\Desktop\smart_car\MASTER\obj/../Libraries/wch_libraries/Peripheral/ch32v10x_tim.c:988
}
    2042:	0001                	nop
    2044:	5432                	lw	s0,44(sp)
    2046:	6145                	addi	sp,sp,48
    2048:	8082                	ret

0000204a <TIM_OC2PreloadConfig>:
TIM_OC2PreloadConfig():
C:\Users\windows\Desktop\smart_car\MASTER\obj/../Libraries/wch_libraries/Peripheral/ch32v10x_tim.c:1000
*                    TIM_OCPreload_Enable.
*                    TIM_OCPreload_Disable.
* Return         : None
*******************************************************************************/
void TIM_OC2PreloadConfig(TIM_TypeDef* TIMx, uint16_t TIM_OCPreload)
{
    204a:	7179                	addi	sp,sp,-48
    204c:	d622                	sw	s0,44(sp)
    204e:	1800                	addi	s0,sp,48
    2050:	fca42e23          	sw	a0,-36(s0)
    2054:	87ae                	mv	a5,a1
    2056:	fcf41d23          	sh	a5,-38(s0)
C:\Users\windows\Desktop\smart_car\MASTER\obj/../Libraries/wch_libraries/Peripheral/ch32v10x_tim.c:1001
  uint16_t tmpccmr1 = 0;
    205a:	fe041723          	sh	zero,-18(s0)
C:\Users\windows\Desktop\smart_car\MASTER\obj/../Libraries/wch_libraries/Peripheral/ch32v10x_tim.c:1003

  tmpccmr1 = TIMx->CHCTLR1;
    205e:	fdc42783          	lw	a5,-36(s0)
    2062:	0187d783          	lhu	a5,24(a5)
    2066:	fef41723          	sh	a5,-18(s0)
C:\Users\windows\Desktop\smart_car\MASTER\obj/../Libraries/wch_libraries/Peripheral/ch32v10x_tim.c:1004
  tmpccmr1 &= (uint16_t)~((uint16_t)TIM_OC2PE);
    206a:	fee45703          	lhu	a4,-18(s0)
    206e:	77fd                	lui	a5,0xfffff
    2070:	7ff78793          	addi	a5,a5,2047 # fffff7ff <_eusrstack+0xdfffa7ff>
    2074:	8ff9                	and	a5,a5,a4
    2076:	fef41723          	sh	a5,-18(s0)
C:\Users\windows\Desktop\smart_car\MASTER\obj/../Libraries/wch_libraries/Peripheral/ch32v10x_tim.c:1005
  tmpccmr1 |= (uint16_t)(TIM_OCPreload << 8);	
    207a:	fda45783          	lhu	a5,-38(s0)
    207e:	07a2                	slli	a5,a5,0x8
    2080:	01079713          	slli	a4,a5,0x10
    2084:	8341                	srli	a4,a4,0x10
    2086:	fee45783          	lhu	a5,-18(s0)
    208a:	8fd9                	or	a5,a5,a4
    208c:	fef41723          	sh	a5,-18(s0)
C:\Users\windows\Desktop\smart_car\MASTER\obj/../Libraries/wch_libraries/Peripheral/ch32v10x_tim.c:1006
  TIMx->CHCTLR1 = tmpccmr1;
    2090:	fdc42783          	lw	a5,-36(s0)
    2094:	fee45703          	lhu	a4,-18(s0)
    2098:	00e79c23          	sh	a4,24(a5)
C:\Users\windows\Desktop\smart_car\MASTER\obj/../Libraries/wch_libraries/Peripheral/ch32v10x_tim.c:1007
}
    209c:	0001                	nop
    209e:	5432                	lw	s0,44(sp)
    20a0:	6145                	addi	sp,sp,48
    20a2:	8082                	ret

000020a4 <TIM_OC3PreloadConfig>:
TIM_OC3PreloadConfig():
C:\Users\windows\Desktop\smart_car\MASTER\obj/../Libraries/wch_libraries/Peripheral/ch32v10x_tim.c:1019
*                    TIM_OCPreload_Enable.
*                    TIM_OCPreload_Disable.
* Return         : None
*******************************************************************************/
void TIM_OC3PreloadConfig(TIM_TypeDef* TIMx, uint16_t TIM_OCPreload)
{
    20a4:	7179                	addi	sp,sp,-48
    20a6:	d622                	sw	s0,44(sp)
    20a8:	1800                	addi	s0,sp,48
    20aa:	fca42e23          	sw	a0,-36(s0)
    20ae:	87ae                	mv	a5,a1
    20b0:	fcf41d23          	sh	a5,-38(s0)
C:\Users\windows\Desktop\smart_car\MASTER\obj/../Libraries/wch_libraries/Peripheral/ch32v10x_tim.c:1020
  uint16_t tmpccmr2 = 0;
    20b4:	fe041723          	sh	zero,-18(s0)
C:\Users\windows\Desktop\smart_car\MASTER\obj/../Libraries/wch_libraries/Peripheral/ch32v10x_tim.c:1022

  tmpccmr2 = TIMx->CHCTLR2;
    20b8:	fdc42783          	lw	a5,-36(s0)
    20bc:	01c7d783          	lhu	a5,28(a5)
    20c0:	fef41723          	sh	a5,-18(s0)
C:\Users\windows\Desktop\smart_car\MASTER\obj/../Libraries/wch_libraries/Peripheral/ch32v10x_tim.c:1023
  tmpccmr2 &= (uint16_t)~((uint16_t)TIM_OC3PE);
    20c4:	fee45783          	lhu	a5,-18(s0)
    20c8:	9bdd                	andi	a5,a5,-9
    20ca:	fef41723          	sh	a5,-18(s0)
C:\Users\windows\Desktop\smart_car\MASTER\obj/../Libraries/wch_libraries/Peripheral/ch32v10x_tim.c:1024
  tmpccmr2 |= TIM_OCPreload;
    20ce:	fee45703          	lhu	a4,-18(s0)
    20d2:	fda45783          	lhu	a5,-38(s0)
    20d6:	8fd9                	or	a5,a5,a4
    20d8:	fef41723          	sh	a5,-18(s0)
C:\Users\windows\Desktop\smart_car\MASTER\obj/../Libraries/wch_libraries/Peripheral/ch32v10x_tim.c:1025
  TIMx->CHCTLR2 = tmpccmr2;
    20dc:	fdc42783          	lw	a5,-36(s0)
    20e0:	fee45703          	lhu	a4,-18(s0)
    20e4:	00e79e23          	sh	a4,28(a5)
C:\Users\windows\Desktop\smart_car\MASTER\obj/../Libraries/wch_libraries/Peripheral/ch32v10x_tim.c:1026
}
    20e8:	0001                	nop
    20ea:	5432                	lw	s0,44(sp)
    20ec:	6145                	addi	sp,sp,48
    20ee:	8082                	ret

000020f0 <TIM_OC4PreloadConfig>:
TIM_OC4PreloadConfig():
C:\Users\windows\Desktop\smart_car\MASTER\obj/../Libraries/wch_libraries/Peripheral/ch32v10x_tim.c:1038
*                    TIM_OCPreload_Enable.
*                    TIM_OCPreload_Disable.
* Return         : None
*******************************************************************************/
void TIM_OC4PreloadConfig(TIM_TypeDef* TIMx, uint16_t TIM_OCPreload)
{
    20f0:	7179                	addi	sp,sp,-48
    20f2:	d622                	sw	s0,44(sp)
    20f4:	1800                	addi	s0,sp,48
    20f6:	fca42e23          	sw	a0,-36(s0)
    20fa:	87ae                	mv	a5,a1
    20fc:	fcf41d23          	sh	a5,-38(s0)
C:\Users\windows\Desktop\smart_car\MASTER\obj/../Libraries/wch_libraries/Peripheral/ch32v10x_tim.c:1039
  uint16_t tmpccmr2 = 0;
    2100:	fe041723          	sh	zero,-18(s0)
C:\Users\windows\Desktop\smart_car\MASTER\obj/../Libraries/wch_libraries/Peripheral/ch32v10x_tim.c:1041

  tmpccmr2 = TIMx->CHCTLR2;
    2104:	fdc42783          	lw	a5,-36(s0)
    2108:	01c7d783          	lhu	a5,28(a5)
    210c:	fef41723          	sh	a5,-18(s0)
C:\Users\windows\Desktop\smart_car\MASTER\obj/../Libraries/wch_libraries/Peripheral/ch32v10x_tim.c:1042
  tmpccmr2 &= (uint16_t)~((uint16_t)TIM_OC4PE);
    2110:	fee45703          	lhu	a4,-18(s0)
    2114:	77fd                	lui	a5,0xfffff
    2116:	7ff78793          	addi	a5,a5,2047 # fffff7ff <_eusrstack+0xdfffa7ff>
    211a:	8ff9                	and	a5,a5,a4
    211c:	fef41723          	sh	a5,-18(s0)
C:\Users\windows\Desktop\smart_car\MASTER\obj/../Libraries/wch_libraries/Peripheral/ch32v10x_tim.c:1043
  tmpccmr2 |= (uint16_t)(TIM_OCPreload << 8);
    2120:	fda45783          	lhu	a5,-38(s0)
    2124:	07a2                	slli	a5,a5,0x8
    2126:	01079713          	slli	a4,a5,0x10
    212a:	8341                	srli	a4,a4,0x10
    212c:	fee45783          	lhu	a5,-18(s0)
    2130:	8fd9                	or	a5,a5,a4
    2132:	fef41723          	sh	a5,-18(s0)
C:\Users\windows\Desktop\smart_car\MASTER\obj/../Libraries/wch_libraries/Peripheral/ch32v10x_tim.c:1044
  TIMx->CHCTLR2 = tmpccmr2;
    2136:	fdc42783          	lw	a5,-36(s0)
    213a:	fee45703          	lhu	a4,-18(s0)
    213e:	00e79e23          	sh	a4,28(a5)
C:\Users\windows\Desktop\smart_car\MASTER\obj/../Libraries/wch_libraries/Peripheral/ch32v10x_tim.c:1045
}
    2142:	0001                	nop
    2144:	5432                	lw	s0,44(sp)
    2146:	6145                	addi	sp,sp,48
    2148:	8082                	ret

0000214a <TIM_OC1FastConfig>:
TIM_OC1FastConfig():
C:\Users\windows\Desktop\smart_car\MASTER\obj/../Libraries/wch_libraries/Peripheral/ch32v10x_tim.c:1057
*                    TIM_OCFast_Enable: TIM output compare fast enable.
*                    TIM_OCFast_Disable: TIM output compare fast disable.
* Return         : None
*******************************************************************************/
void TIM_OC1FastConfig(TIM_TypeDef* TIMx, uint16_t TIM_OCFast)
{
    214a:	7179                	addi	sp,sp,-48
    214c:	d622                	sw	s0,44(sp)
    214e:	1800                	addi	s0,sp,48
    2150:	fca42e23          	sw	a0,-36(s0)
    2154:	87ae                	mv	a5,a1
    2156:	fcf41d23          	sh	a5,-38(s0)
C:\Users\windows\Desktop\smart_car\MASTER\obj/../Libraries/wch_libraries/Peripheral/ch32v10x_tim.c:1058
  uint16_t tmpccmr1 = 0;
    215a:	fe041723          	sh	zero,-18(s0)
C:\Users\windows\Desktop\smart_car\MASTER\obj/../Libraries/wch_libraries/Peripheral/ch32v10x_tim.c:1060

  tmpccmr1 = TIMx->CHCTLR1;
    215e:	fdc42783          	lw	a5,-36(s0)
    2162:	0187d783          	lhu	a5,24(a5)
    2166:	fef41723          	sh	a5,-18(s0)
C:\Users\windows\Desktop\smart_car\MASTER\obj/../Libraries/wch_libraries/Peripheral/ch32v10x_tim.c:1061
  tmpccmr1 &= (uint16_t)~((uint16_t)TIM_OC1FE);
    216a:	fee45783          	lhu	a5,-18(s0)
    216e:	9bed                	andi	a5,a5,-5
    2170:	fef41723          	sh	a5,-18(s0)
C:\Users\windows\Desktop\smart_car\MASTER\obj/../Libraries/wch_libraries/Peripheral/ch32v10x_tim.c:1062
  tmpccmr1 |= TIM_OCFast;
    2174:	fee45703          	lhu	a4,-18(s0)
    2178:	fda45783          	lhu	a5,-38(s0)
    217c:	8fd9                	or	a5,a5,a4
    217e:	fef41723          	sh	a5,-18(s0)
C:\Users\windows\Desktop\smart_car\MASTER\obj/../Libraries/wch_libraries/Peripheral/ch32v10x_tim.c:1063
  TIMx->CHCTLR1 = tmpccmr1;
    2182:	fdc42783          	lw	a5,-36(s0)
    2186:	fee45703          	lhu	a4,-18(s0)
    218a:	00e79c23          	sh	a4,24(a5)
C:\Users\windows\Desktop\smart_car\MASTER\obj/../Libraries/wch_libraries/Peripheral/ch32v10x_tim.c:1064
}
    218e:	0001                	nop
    2190:	5432                	lw	s0,44(sp)
    2192:	6145                	addi	sp,sp,48
    2194:	8082                	ret

00002196 <TIM_OC2FastConfig>:
TIM_OC2FastConfig():
C:\Users\windows\Desktop\smart_car\MASTER\obj/../Libraries/wch_libraries/Peripheral/ch32v10x_tim.c:1076
*                    TIM_OCFast_Enable: TIM output compare fast enable.
*                    TIM_OCFast_Disable: TIM output compare fast disable.
* Return         : None
*******************************************************************************/
void TIM_OC2FastConfig(TIM_TypeDef* TIMx, uint16_t TIM_OCFast)
{
    2196:	7179                	addi	sp,sp,-48
    2198:	d622                	sw	s0,44(sp)
    219a:	1800                	addi	s0,sp,48
    219c:	fca42e23          	sw	a0,-36(s0)
    21a0:	87ae                	mv	a5,a1
    21a2:	fcf41d23          	sh	a5,-38(s0)
C:\Users\windows\Desktop\smart_car\MASTER\obj/../Libraries/wch_libraries/Peripheral/ch32v10x_tim.c:1077
  uint16_t tmpccmr1 = 0;
    21a6:	fe041723          	sh	zero,-18(s0)
C:\Users\windows\Desktop\smart_car\MASTER\obj/../Libraries/wch_libraries/Peripheral/ch32v10x_tim.c:1079

  tmpccmr1 = TIMx->CHCTLR1;
    21aa:	fdc42783          	lw	a5,-36(s0)
    21ae:	0187d783          	lhu	a5,24(a5)
    21b2:	fef41723          	sh	a5,-18(s0)
C:\Users\windows\Desktop\smart_car\MASTER\obj/../Libraries/wch_libraries/Peripheral/ch32v10x_tim.c:1080
  tmpccmr1 &= (uint16_t)~((uint16_t)TIM_OC2FE);
    21b6:	fee45783          	lhu	a5,-18(s0)
    21ba:	bff7f793          	andi	a5,a5,-1025
    21be:	fef41723          	sh	a5,-18(s0)
C:\Users\windows\Desktop\smart_car\MASTER\obj/../Libraries/wch_libraries/Peripheral/ch32v10x_tim.c:1081
  tmpccmr1 |= (uint16_t)(TIM_OCFast << 8);
    21c2:	fda45783          	lhu	a5,-38(s0)
    21c6:	07a2                	slli	a5,a5,0x8
    21c8:	01079713          	slli	a4,a5,0x10
    21cc:	8341                	srli	a4,a4,0x10
    21ce:	fee45783          	lhu	a5,-18(s0)
    21d2:	8fd9                	or	a5,a5,a4
    21d4:	fef41723          	sh	a5,-18(s0)
C:\Users\windows\Desktop\smart_car\MASTER\obj/../Libraries/wch_libraries/Peripheral/ch32v10x_tim.c:1082
  TIMx->CHCTLR1 = tmpccmr1;
    21d8:	fdc42783          	lw	a5,-36(s0)
    21dc:	fee45703          	lhu	a4,-18(s0)
    21e0:	00e79c23          	sh	a4,24(a5)
C:\Users\windows\Desktop\smart_car\MASTER\obj/../Libraries/wch_libraries/Peripheral/ch32v10x_tim.c:1083
}
    21e4:	0001                	nop
    21e6:	5432                	lw	s0,44(sp)
    21e8:	6145                	addi	sp,sp,48
    21ea:	8082                	ret

000021ec <TIM_OC3FastConfig>:
TIM_OC3FastConfig():
C:\Users\windows\Desktop\smart_car\MASTER\obj/../Libraries/wch_libraries/Peripheral/ch32v10x_tim.c:1095
*                    TIM_OCFast_Enable: TIM output compare fast enable.
*                    TIM_OCFast_Disable: TIM output compare fast disable.
* Return         : None
*******************************************************************************/
void TIM_OC3FastConfig(TIM_TypeDef* TIMx, uint16_t TIM_OCFast)
{
    21ec:	7179                	addi	sp,sp,-48
    21ee:	d622                	sw	s0,44(sp)
    21f0:	1800                	addi	s0,sp,48
    21f2:	fca42e23          	sw	a0,-36(s0)
    21f6:	87ae                	mv	a5,a1
    21f8:	fcf41d23          	sh	a5,-38(s0)
C:\Users\windows\Desktop\smart_car\MASTER\obj/../Libraries/wch_libraries/Peripheral/ch32v10x_tim.c:1096
  uint16_t tmpccmr2 = 0;
    21fc:	fe041723          	sh	zero,-18(s0)
C:\Users\windows\Desktop\smart_car\MASTER\obj/../Libraries/wch_libraries/Peripheral/ch32v10x_tim.c:1098

  tmpccmr2 = TIMx->CHCTLR2;
    2200:	fdc42783          	lw	a5,-36(s0)
    2204:	01c7d783          	lhu	a5,28(a5)
    2208:	fef41723          	sh	a5,-18(s0)
C:\Users\windows\Desktop\smart_car\MASTER\obj/../Libraries/wch_libraries/Peripheral/ch32v10x_tim.c:1099
  tmpccmr2 &= (uint16_t)~((uint16_t)TIM_OC3FE);
    220c:	fee45783          	lhu	a5,-18(s0)
    2210:	9bed                	andi	a5,a5,-5
    2212:	fef41723          	sh	a5,-18(s0)
C:\Users\windows\Desktop\smart_car\MASTER\obj/../Libraries/wch_libraries/Peripheral/ch32v10x_tim.c:1100
  tmpccmr2 |= TIM_OCFast;	
    2216:	fee45703          	lhu	a4,-18(s0)
    221a:	fda45783          	lhu	a5,-38(s0)
    221e:	8fd9                	or	a5,a5,a4
    2220:	fef41723          	sh	a5,-18(s0)
C:\Users\windows\Desktop\smart_car\MASTER\obj/../Libraries/wch_libraries/Peripheral/ch32v10x_tim.c:1101
  TIMx->CHCTLR2 = tmpccmr2;
    2224:	fdc42783          	lw	a5,-36(s0)
    2228:	fee45703          	lhu	a4,-18(s0)
    222c:	00e79e23          	sh	a4,28(a5)
C:\Users\windows\Desktop\smart_car\MASTER\obj/../Libraries/wch_libraries/Peripheral/ch32v10x_tim.c:1102
}
    2230:	0001                	nop
    2232:	5432                	lw	s0,44(sp)
    2234:	6145                	addi	sp,sp,48
    2236:	8082                	ret

00002238 <TIM_OC4FastConfig>:
TIM_OC4FastConfig():
C:\Users\windows\Desktop\smart_car\MASTER\obj/../Libraries/wch_libraries/Peripheral/ch32v10x_tim.c:1114
*                    TIM_OCFast_Enable: TIM output compare fast enable.
*                    TIM_OCFast_Disable: TIM output compare fast disable.
* Return         : None
*******************************************************************************/
void TIM_OC4FastConfig(TIM_TypeDef* TIMx, uint16_t TIM_OCFast)
{
    2238:	7179                	addi	sp,sp,-48
    223a:	d622                	sw	s0,44(sp)
    223c:	1800                	addi	s0,sp,48
    223e:	fca42e23          	sw	a0,-36(s0)
    2242:	87ae                	mv	a5,a1
    2244:	fcf41d23          	sh	a5,-38(s0)
C:\Users\windows\Desktop\smart_car\MASTER\obj/../Libraries/wch_libraries/Peripheral/ch32v10x_tim.c:1115
  uint16_t tmpccmr2 = 0;
    2248:	fe041723          	sh	zero,-18(s0)
C:\Users\windows\Desktop\smart_car\MASTER\obj/../Libraries/wch_libraries/Peripheral/ch32v10x_tim.c:1117

  tmpccmr2 = TIMx->CHCTLR2;
    224c:	fdc42783          	lw	a5,-36(s0)
    2250:	01c7d783          	lhu	a5,28(a5)
    2254:	fef41723          	sh	a5,-18(s0)
C:\Users\windows\Desktop\smart_car\MASTER\obj/../Libraries/wch_libraries/Peripheral/ch32v10x_tim.c:1118
  tmpccmr2 &= (uint16_t)~((uint16_t)TIM_OC4FE);
    2258:	fee45783          	lhu	a5,-18(s0)
    225c:	bff7f793          	andi	a5,a5,-1025
    2260:	fef41723          	sh	a5,-18(s0)
C:\Users\windows\Desktop\smart_car\MASTER\obj/../Libraries/wch_libraries/Peripheral/ch32v10x_tim.c:1119
  tmpccmr2 |= (uint16_t)(TIM_OCFast << 8);
    2264:	fda45783          	lhu	a5,-38(s0)
    2268:	07a2                	slli	a5,a5,0x8
    226a:	01079713          	slli	a4,a5,0x10
    226e:	8341                	srli	a4,a4,0x10
    2270:	fee45783          	lhu	a5,-18(s0)
    2274:	8fd9                	or	a5,a5,a4
    2276:	fef41723          	sh	a5,-18(s0)
C:\Users\windows\Desktop\smart_car\MASTER\obj/../Libraries/wch_libraries/Peripheral/ch32v10x_tim.c:1120
  TIMx->CHCTLR2 = tmpccmr2;
    227a:	fdc42783          	lw	a5,-36(s0)
    227e:	fee45703          	lhu	a4,-18(s0)
    2282:	00e79e23          	sh	a4,28(a5)
C:\Users\windows\Desktop\smart_car\MASTER\obj/../Libraries/wch_libraries/Peripheral/ch32v10x_tim.c:1121
}
    2286:	0001                	nop
    2288:	5432                	lw	s0,44(sp)
    228a:	6145                	addi	sp,sp,48
    228c:	8082                	ret

0000228e <TIM_GetITStatus>:
TIM_GetITStatus():
C:\Users\windows\Desktop\smart_car\MASTER\obj/../Libraries/wch_libraries/Peripheral/ch32v10x_tim.c:1853
*                    TIM_IT_Trigger: TIM Trigger Interrupt source.
*                    TIM_IT_Break: TIM Break Interrupt source.
* Return         : bitstatus: SET or RESET.
*******************************************************************************/
ITStatus TIM_GetITStatus(TIM_TypeDef* TIMx, uint16_t TIM_IT)
{
    228e:	7179                	addi	sp,sp,-48
    2290:	d622                	sw	s0,44(sp)
    2292:	1800                	addi	s0,sp,48
    2294:	fca42e23          	sw	a0,-36(s0)
    2298:	87ae                	mv	a5,a1
    229a:	fcf41d23          	sh	a5,-38(s0)
C:\Users\windows\Desktop\smart_car\MASTER\obj/../Libraries/wch_libraries/Peripheral/ch32v10x_tim.c:1854
  ITStatus bitstatus = RESET;  
    229e:	fe042623          	sw	zero,-20(s0)
C:\Users\windows\Desktop\smart_car\MASTER\obj/../Libraries/wch_libraries/Peripheral/ch32v10x_tim.c:1855
  uint16_t itstatus = 0x0, itenable = 0x0;
    22a2:	fe041523          	sh	zero,-22(s0)
    22a6:	fe041423          	sh	zero,-24(s0)
C:\Users\windows\Desktop\smart_car\MASTER\obj/../Libraries/wch_libraries/Peripheral/ch32v10x_tim.c:1857
   
  itstatus = TIMx->INTFR & TIM_IT;
    22aa:	fdc42783          	lw	a5,-36(s0)
    22ae:	0107d783          	lhu	a5,16(a5)
    22b2:	01079713          	slli	a4,a5,0x10
    22b6:	8341                	srli	a4,a4,0x10
    22b8:	fda45783          	lhu	a5,-38(s0)
    22bc:	8ff9                	and	a5,a5,a4
    22be:	fef41523          	sh	a5,-22(s0)
C:\Users\windows\Desktop\smart_car\MASTER\obj/../Libraries/wch_libraries/Peripheral/ch32v10x_tim.c:1859
  
  itenable = TIMx->DMAINTENR & TIM_IT;
    22c2:	fdc42783          	lw	a5,-36(s0)
    22c6:	00c7d783          	lhu	a5,12(a5)
    22ca:	01079713          	slli	a4,a5,0x10
    22ce:	8341                	srli	a4,a4,0x10
    22d0:	fda45783          	lhu	a5,-38(s0)
    22d4:	8ff9                	and	a5,a5,a4
    22d6:	fef41423          	sh	a5,-24(s0)
C:\Users\windows\Desktop\smart_car\MASTER\obj/../Libraries/wch_libraries/Peripheral/ch32v10x_tim.c:1860
  if ((itstatus != (uint16_t)RESET) && (itenable != (uint16_t)RESET))
    22da:	fea45783          	lhu	a5,-22(s0)
    22de:	cb81                	beqz	a5,22ee <TIM_GetITStatus+0x60>
C:\Users\windows\Desktop\smart_car\MASTER\obj/../Libraries/wch_libraries/Peripheral/ch32v10x_tim.c:1860 (discriminator 1)
    22e0:	fe845783          	lhu	a5,-24(s0)
    22e4:	c789                	beqz	a5,22ee <TIM_GetITStatus+0x60>
C:\Users\windows\Desktop\smart_car\MASTER\obj/../Libraries/wch_libraries/Peripheral/ch32v10x_tim.c:1862
  {
    bitstatus = SET;
    22e6:	4785                	li	a5,1
    22e8:	fef42623          	sw	a5,-20(s0)
    22ec:	a019                	j	22f2 <TIM_GetITStatus+0x64>
C:\Users\windows\Desktop\smart_car\MASTER\obj/../Libraries/wch_libraries/Peripheral/ch32v10x_tim.c:1866
  }
  else
  {
    bitstatus = RESET;
    22ee:	fe042623          	sw	zero,-20(s0)
C:\Users\windows\Desktop\smart_car\MASTER\obj/../Libraries/wch_libraries/Peripheral/ch32v10x_tim.c:1869
  }
	
  return bitstatus;
    22f2:	fec42783          	lw	a5,-20(s0)
C:\Users\windows\Desktop\smart_car\MASTER\obj/../Libraries/wch_libraries/Peripheral/ch32v10x_tim.c:1870
}
    22f6:	853e                	mv	a0,a5
    22f8:	5432                	lw	s0,44(sp)
    22fa:	6145                	addi	sp,sp,48
    22fc:	8082                	ret

000022fe <TIM_ClearITPendingBit>:
TIM_ClearITPendingBit():
C:\Users\windows\Desktop\smart_car\MASTER\obj/../Libraries/wch_libraries/Peripheral/ch32v10x_tim.c:1888
*                    TIM_IT_Trigger: TIM Trigger Interrupt source.
*                    TIM_IT_Break: TIM Break Interrupt source.
* Return         : None
*******************************************************************************/
void TIM_ClearITPendingBit(TIM_TypeDef* TIMx, uint16_t TIM_IT)
{
    22fe:	1101                	addi	sp,sp,-32
    2300:	ce22                	sw	s0,28(sp)
    2302:	1000                	addi	s0,sp,32
    2304:	fea42623          	sw	a0,-20(s0)
    2308:	87ae                	mv	a5,a1
    230a:	fef41523          	sh	a5,-22(s0)
C:\Users\windows\Desktop\smart_car\MASTER\obj/../Libraries/wch_libraries/Peripheral/ch32v10x_tim.c:1889
  TIMx->INTFR = (uint16_t)~TIM_IT;
    230e:	fea45783          	lhu	a5,-22(s0)
    2312:	fff7c793          	not	a5,a5
    2316:	01079713          	slli	a4,a5,0x10
    231a:	8341                	srli	a4,a4,0x10
    231c:	fec42783          	lw	a5,-20(s0)
    2320:	00e79823          	sh	a4,16(a5)
C:\Users\windows\Desktop\smart_car\MASTER\obj/../Libraries/wch_libraries/Peripheral/ch32v10x_tim.c:1890
}
    2324:	0001                	nop
    2326:	4472                	lw	s0,28(sp)
    2328:	6105                	addi	sp,sp,32
    232a:	8082                	ret

0000232c <USART_Init>:
USART_Init():
C:\Users\windows\Desktop\smart_car\MASTER\obj/../Libraries/wch_libraries/Peripheral/ch32v10x_usart.c:105
*                  USART_InitStruct: pointer to a USART_InitTypeDef structure
*      that contains the configuration information for the specified USART peripheral. 
* Return         : None
*******************************************************************************/
void USART_Init(USART_TypeDef* USARTx, USART_InitTypeDef* USART_InitStruct)
{
    232c:	715d                	addi	sp,sp,-80
    232e:	c686                	sw	ra,76(sp)
    2330:	c4a2                	sw	s0,72(sp)
    2332:	0880                	addi	s0,sp,80
    2334:	faa42e23          	sw	a0,-68(s0)
    2338:	fab42c23          	sw	a1,-72(s0)
C:\Users\windows\Desktop\smart_car\MASTER\obj/../Libraries/wch_libraries/Peripheral/ch32v10x_usart.c:106
  uint32_t tmpreg = 0x00, apbclock = 0x00;
    233c:	fe042623          	sw	zero,-20(s0)
    2340:	fe042423          	sw	zero,-24(s0)
C:\Users\windows\Desktop\smart_car\MASTER\obj/../Libraries/wch_libraries/Peripheral/ch32v10x_usart.c:107
  uint32_t integerdivider = 0x00;
    2344:	fe042223          	sw	zero,-28(s0)
C:\Users\windows\Desktop\smart_car\MASTER\obj/../Libraries/wch_libraries/Peripheral/ch32v10x_usart.c:108
  uint32_t fractionaldivider = 0x00;
    2348:	fe042023          	sw	zero,-32(s0)
C:\Users\windows\Desktop\smart_car\MASTER\obj/../Libraries/wch_libraries/Peripheral/ch32v10x_usart.c:109
  uint32_t usartxbase = 0;
    234c:	fc042e23          	sw	zero,-36(s0)
C:\Users\windows\Desktop\smart_car\MASTER\obj/../Libraries/wch_libraries/Peripheral/ch32v10x_usart.c:116

  if (USART_InitStruct->USART_HardwareFlowControl != USART_HardwareFlowControl_None)
  {
  }

  usartxbase = (uint32_t)USARTx;
    2350:	fbc42783          	lw	a5,-68(s0)
    2354:	fcf42e23          	sw	a5,-36(s0)
C:\Users\windows\Desktop\smart_car\MASTER\obj/../Libraries/wch_libraries/Peripheral/ch32v10x_usart.c:117
  tmpreg = USARTx->CTLR2;
    2358:	fbc42783          	lw	a5,-68(s0)
    235c:	0107d783          	lhu	a5,16(a5)
    2360:	07c2                	slli	a5,a5,0x10
    2362:	83c1                	srli	a5,a5,0x10
    2364:	fef42623          	sw	a5,-20(s0)
C:\Users\windows\Desktop\smart_car\MASTER\obj/../Libraries/wch_libraries/Peripheral/ch32v10x_usart.c:118
  tmpreg &= CTLR2_STOP_CLEAR_Mask;
    2368:	fec42703          	lw	a4,-20(s0)
    236c:	67b5                	lui	a5,0xd
    236e:	17fd                	addi	a5,a5,-1
    2370:	8ff9                	and	a5,a5,a4
    2372:	fef42623          	sw	a5,-20(s0)
C:\Users\windows\Desktop\smart_car\MASTER\obj/../Libraries/wch_libraries/Peripheral/ch32v10x_usart.c:119
  tmpreg |= (uint32_t)USART_InitStruct->USART_StopBits;  
    2376:	fb842783          	lw	a5,-72(s0)
    237a:	0067d783          	lhu	a5,6(a5) # d006 <_data_lma+0x629e>
    237e:	873e                	mv	a4,a5
    2380:	fec42783          	lw	a5,-20(s0)
    2384:	8fd9                	or	a5,a5,a4
    2386:	fef42623          	sw	a5,-20(s0)
C:\Users\windows\Desktop\smart_car\MASTER\obj/../Libraries/wch_libraries/Peripheral/ch32v10x_usart.c:121
	
  USARTx->CTLR2 = (uint16_t)tmpreg;
    238a:	fec42783          	lw	a5,-20(s0)
    238e:	01079713          	slli	a4,a5,0x10
    2392:	8341                	srli	a4,a4,0x10
    2394:	fbc42783          	lw	a5,-68(s0)
    2398:	00e79823          	sh	a4,16(a5)
C:\Users\windows\Desktop\smart_car\MASTER\obj/../Libraries/wch_libraries/Peripheral/ch32v10x_usart.c:122
  tmpreg = USARTx->CTLR1;
    239c:	fbc42783          	lw	a5,-68(s0)
    23a0:	00c7d783          	lhu	a5,12(a5)
    23a4:	07c2                	slli	a5,a5,0x10
    23a6:	83c1                	srli	a5,a5,0x10
    23a8:	fef42623          	sw	a5,-20(s0)
C:\Users\windows\Desktop\smart_car\MASTER\obj/../Libraries/wch_libraries/Peripheral/ch32v10x_usart.c:123
  tmpreg &= CTLR1_CLEAR_Mask;
    23ac:	fec42703          	lw	a4,-20(s0)
    23b0:	67bd                	lui	a5,0xf
    23b2:	9f378793          	addi	a5,a5,-1549 # e9f3 <_data_lma+0x7c8b>
    23b6:	8ff9                	and	a5,a5,a4
    23b8:	fef42623          	sw	a5,-20(s0)
C:\Users\windows\Desktop\smart_car\MASTER\obj/../Libraries/wch_libraries/Peripheral/ch32v10x_usart.c:124
  tmpreg |= (uint32_t)USART_InitStruct->USART_WordLength | USART_InitStruct->USART_Parity |
    23bc:	fb842783          	lw	a5,-72(s0)
    23c0:	0047d703          	lhu	a4,4(a5)
    23c4:	fb842783          	lw	a5,-72(s0)
    23c8:	0087d783          	lhu	a5,8(a5)
    23cc:	8fd9                	or	a5,a5,a4
    23ce:	01079713          	slli	a4,a5,0x10
    23d2:	8341                	srli	a4,a4,0x10
C:\Users\windows\Desktop\smart_car\MASTER\obj/../Libraries/wch_libraries/Peripheral/ch32v10x_usart.c:125
            USART_InitStruct->USART_Mode;
    23d4:	fb842783          	lw	a5,-72(s0)
    23d8:	00a7d783          	lhu	a5,10(a5)
C:\Users\windows\Desktop\smart_car\MASTER\obj/../Libraries/wch_libraries/Peripheral/ch32v10x_usart.c:124
  tmpreg |= (uint32_t)USART_InitStruct->USART_WordLength | USART_InitStruct->USART_Parity |
    23dc:	8fd9                	or	a5,a5,a4
    23de:	07c2                	slli	a5,a5,0x10
    23e0:	83c1                	srli	a5,a5,0x10
    23e2:	873e                	mv	a4,a5
    23e4:	fec42783          	lw	a5,-20(s0)
    23e8:	8fd9                	or	a5,a5,a4
    23ea:	fef42623          	sw	a5,-20(s0)
C:\Users\windows\Desktop\smart_car\MASTER\obj/../Libraries/wch_libraries/Peripheral/ch32v10x_usart.c:126
  USARTx->CTLR1 = (uint16_t)tmpreg;
    23ee:	fec42783          	lw	a5,-20(s0)
    23f2:	01079713          	slli	a4,a5,0x10
    23f6:	8341                	srli	a4,a4,0x10
    23f8:	fbc42783          	lw	a5,-68(s0)
    23fc:	00e79623          	sh	a4,12(a5)
C:\Users\windows\Desktop\smart_car\MASTER\obj/../Libraries/wch_libraries/Peripheral/ch32v10x_usart.c:128
 
  tmpreg = USARTx->CTLR3;
    2400:	fbc42783          	lw	a5,-68(s0)
    2404:	0147d783          	lhu	a5,20(a5)
    2408:	07c2                	slli	a5,a5,0x10
    240a:	83c1                	srli	a5,a5,0x10
    240c:	fef42623          	sw	a5,-20(s0)
C:\Users\windows\Desktop\smart_car\MASTER\obj/../Libraries/wch_libraries/Peripheral/ch32v10x_usart.c:129
  tmpreg &= CTLR3_CLEAR_Mask;
    2410:	fec42703          	lw	a4,-20(s0)
    2414:	67c1                	lui	a5,0x10
    2416:	cff78793          	addi	a5,a5,-769 # fcff <_data_lma+0x8f97>
    241a:	8ff9                	and	a5,a5,a4
    241c:	fef42623          	sw	a5,-20(s0)
C:\Users\windows\Desktop\smart_car\MASTER\obj/../Libraries/wch_libraries/Peripheral/ch32v10x_usart.c:130
  tmpreg |= USART_InitStruct->USART_HardwareFlowControl;
    2420:	fb842783          	lw	a5,-72(s0)
    2424:	00c7d783          	lhu	a5,12(a5)
    2428:	873e                	mv	a4,a5
    242a:	fec42783          	lw	a5,-20(s0)
    242e:	8fd9                	or	a5,a5,a4
    2430:	fef42623          	sw	a5,-20(s0)
C:\Users\windows\Desktop\smart_car\MASTER\obj/../Libraries/wch_libraries/Peripheral/ch32v10x_usart.c:131
  USARTx->CTLR3 = (uint16_t)tmpreg;
    2434:	fec42783          	lw	a5,-20(s0)
    2438:	01079713          	slli	a4,a5,0x10
    243c:	8341                	srli	a4,a4,0x10
    243e:	fbc42783          	lw	a5,-68(s0)
    2442:	00e79a23          	sh	a4,20(a5)
C:\Users\windows\Desktop\smart_car\MASTER\obj/../Libraries/wch_libraries/Peripheral/ch32v10x_usart.c:133

  RCC_GetClocksFreq(&RCC_ClocksStatus);
    2446:	fc840793          	addi	a5,s0,-56
    244a:	853e                	mv	a0,a5
    244c:	ed5fe0ef          	jal	ra,1320 <RCC_GetClocksFreq>
C:\Users\windows\Desktop\smart_car\MASTER\obj/../Libraries/wch_libraries/Peripheral/ch32v10x_usart.c:135
	
  if (usartxbase == USART1_BASE)
    2450:	fdc42703          	lw	a4,-36(s0)
    2454:	400147b7          	lui	a5,0x40014
    2458:	80078793          	addi	a5,a5,-2048 # 40013800 <_eusrstack+0x2000e800>
    245c:	00f71763          	bne	a4,a5,246a <USART_Init+0x13e>
C:\Users\windows\Desktop\smart_car\MASTER\obj/../Libraries/wch_libraries/Peripheral/ch32v10x_usart.c:137
  {
    apbclock = RCC_ClocksStatus.PCLK2_Frequency;
    2460:	fd442783          	lw	a5,-44(s0)
    2464:	fef42423          	sw	a5,-24(s0)
    2468:	a029                	j	2472 <USART_Init+0x146>
C:\Users\windows\Desktop\smart_car\MASTER\obj/../Libraries/wch_libraries/Peripheral/ch32v10x_usart.c:141
  }
  else
  {
    apbclock = RCC_ClocksStatus.PCLK1_Frequency;
    246a:	fd042783          	lw	a5,-48(s0)
    246e:	fef42423          	sw	a5,-24(s0)
C:\Users\windows\Desktop\smart_car\MASTER\obj/../Libraries/wch_libraries/Peripheral/ch32v10x_usart.c:144
  }
  
  if ((USARTx->CTLR1 & CTLR1_OVER8_Set) != 0)
    2472:	fbc42783          	lw	a5,-68(s0)
    2476:	00c7d783          	lhu	a5,12(a5)
    247a:	07c2                	slli	a5,a5,0x10
    247c:	83c1                	srli	a5,a5,0x10
    247e:	07c2                	slli	a5,a5,0x10
    2480:	87c1                	srai	a5,a5,0x10
    2482:	0207d263          	bgez	a5,24a6 <USART_Init+0x17a>
C:\Users\windows\Desktop\smart_car\MASTER\obj/../Libraries/wch_libraries/Peripheral/ch32v10x_usart.c:146
  {
    integerdivider = ((25 * apbclock) / (2 * (USART_InitStruct->USART_BaudRate)));    
    2486:	fe842703          	lw	a4,-24(s0)
    248a:	87ba                	mv	a5,a4
    248c:	0786                	slli	a5,a5,0x1
    248e:	97ba                	add	a5,a5,a4
    2490:	078e                	slli	a5,a5,0x3
    2492:	973e                	add	a4,a4,a5
    2494:	fb842783          	lw	a5,-72(s0)
    2498:	439c                	lw	a5,0(a5)
    249a:	0786                	slli	a5,a5,0x1
    249c:	02f757b3          	divu	a5,a4,a5
    24a0:	fef42223          	sw	a5,-28(s0)
    24a4:	a005                	j	24c4 <USART_Init+0x198>
C:\Users\windows\Desktop\smart_car\MASTER\obj/../Libraries/wch_libraries/Peripheral/ch32v10x_usart.c:150
  }
  else 
  {
    integerdivider = ((25 * apbclock) / (4 * (USART_InitStruct->USART_BaudRate)));    
    24a6:	fe842703          	lw	a4,-24(s0)
    24aa:	87ba                	mv	a5,a4
    24ac:	0786                	slli	a5,a5,0x1
    24ae:	97ba                	add	a5,a5,a4
    24b0:	078e                	slli	a5,a5,0x3
    24b2:	973e                	add	a4,a4,a5
    24b4:	fb842783          	lw	a5,-72(s0)
    24b8:	439c                	lw	a5,0(a5)
    24ba:	078a                	slli	a5,a5,0x2
    24bc:	02f757b3          	divu	a5,a4,a5
    24c0:	fef42223          	sw	a5,-28(s0)
C:\Users\windows\Desktop\smart_car\MASTER\obj/../Libraries/wch_libraries/Peripheral/ch32v10x_usart.c:152
  }
  tmpreg = (integerdivider / 100) << 4;
    24c4:	fe442703          	lw	a4,-28(s0)
    24c8:	06400793          	li	a5,100
    24cc:	02f757b3          	divu	a5,a4,a5
    24d0:	0792                	slli	a5,a5,0x4
    24d2:	fef42623          	sw	a5,-20(s0)
C:\Users\windows\Desktop\smart_car\MASTER\obj/../Libraries/wch_libraries/Peripheral/ch32v10x_usart.c:154

  fractionaldivider = integerdivider - (100 * (tmpreg >> 4));
    24d6:	fec42783          	lw	a5,-20(s0)
    24da:	0047d713          	srli	a4,a5,0x4
    24de:	06400793          	li	a5,100
    24e2:	02f707b3          	mul	a5,a4,a5
    24e6:	fe442703          	lw	a4,-28(s0)
    24ea:	40f707b3          	sub	a5,a4,a5
    24ee:	fef42023          	sw	a5,-32(s0)
C:\Users\windows\Desktop\smart_car\MASTER\obj/../Libraries/wch_libraries/Peripheral/ch32v10x_usart.c:156

  if ((USARTx->CTLR1 & CTLR1_OVER8_Set) != 0)
    24f2:	fbc42783          	lw	a5,-68(s0)
    24f6:	00c7d783          	lhu	a5,12(a5)
    24fa:	07c2                	slli	a5,a5,0x10
    24fc:	83c1                	srli	a5,a5,0x10
    24fe:	07c2                	slli	a5,a5,0x10
    2500:	87c1                	srai	a5,a5,0x10
    2502:	0207d263          	bgez	a5,2526 <USART_Init+0x1fa>
C:\Users\windows\Desktop\smart_car\MASTER\obj/../Libraries/wch_libraries/Peripheral/ch32v10x_usart.c:158
  {
    tmpreg |= ((((fractionaldivider * 8) + 50) / 100)) & ((uint8_t)0x07);
    2506:	fe042783          	lw	a5,-32(s0)
    250a:	078e                	slli	a5,a5,0x3
    250c:	03278713          	addi	a4,a5,50
    2510:	06400793          	li	a5,100
    2514:	02f757b3          	divu	a5,a4,a5
    2518:	8b9d                	andi	a5,a5,7
    251a:	fec42703          	lw	a4,-20(s0)
    251e:	8fd9                	or	a5,a5,a4
    2520:	fef42623          	sw	a5,-20(s0)
    2524:	a005                	j	2544 <USART_Init+0x218>
C:\Users\windows\Desktop\smart_car\MASTER\obj/../Libraries/wch_libraries/Peripheral/ch32v10x_usart.c:162
  }
  else 
  {
    tmpreg |= ((((fractionaldivider * 16) + 50) / 100)) & ((uint8_t)0x0F);
    2526:	fe042783          	lw	a5,-32(s0)
    252a:	0792                	slli	a5,a5,0x4
    252c:	03278713          	addi	a4,a5,50
    2530:	06400793          	li	a5,100
    2534:	02f757b3          	divu	a5,a4,a5
    2538:	8bbd                	andi	a5,a5,15
    253a:	fec42703          	lw	a4,-20(s0)
    253e:	8fd9                	or	a5,a5,a4
    2540:	fef42623          	sw	a5,-20(s0)
C:\Users\windows\Desktop\smart_car\MASTER\obj/../Libraries/wch_libraries/Peripheral/ch32v10x_usart.c:165
  }
  
  USARTx->BRR = (uint16_t)tmpreg;
    2544:	fec42783          	lw	a5,-20(s0)
    2548:	01079713          	slli	a4,a5,0x10
    254c:	8341                	srli	a4,a4,0x10
    254e:	fbc42783          	lw	a5,-68(s0)
    2552:	00e79423          	sh	a4,8(a5)
C:\Users\windows\Desktop\smart_car\MASTER\obj/../Libraries/wch_libraries/Peripheral/ch32v10x_usart.c:166
}
    2556:	0001                	nop
    2558:	40b6                	lw	ra,76(sp)
    255a:	4426                	lw	s0,72(sp)
    255c:	6161                	addi	sp,sp,80
    255e:	8082                	ret

00002560 <USART_Cmd>:
USART_Cmd():
C:\Users\windows\Desktop\smart_car\MASTER\obj/../Libraries/wch_libraries/Peripheral/ch32v10x_usart.c:229
* Input          : USARTx: where x can be 1, 2, 3 to select the USART peripheral.
*                  NewState: ENABLE or DISABLE.
* Return         : None
*******************************************************************************/
void USART_Cmd(USART_TypeDef* USARTx, FunctionalState NewState)
{
    2560:	1101                	addi	sp,sp,-32
    2562:	ce22                	sw	s0,28(sp)
    2564:	1000                	addi	s0,sp,32
    2566:	fea42623          	sw	a0,-20(s0)
    256a:	feb42423          	sw	a1,-24(s0)
C:\Users\windows\Desktop\smart_car\MASTER\obj/../Libraries/wch_libraries/Peripheral/ch32v10x_usart.c:230
  if (NewState != DISABLE)
    256e:	fe842783          	lw	a5,-24(s0)
    2572:	c395                	beqz	a5,2596 <USART_Cmd+0x36>
C:\Users\windows\Desktop\smart_car\MASTER\obj/../Libraries/wch_libraries/Peripheral/ch32v10x_usart.c:232
  {
    USARTx->CTLR1 |= CTLR1_UE_Set;
    2574:	fec42783          	lw	a5,-20(s0)
    2578:	00c7d783          	lhu	a5,12(a5)
    257c:	01079713          	slli	a4,a5,0x10
    2580:	8341                	srli	a4,a4,0x10
    2582:	6789                	lui	a5,0x2
    2584:	8fd9                	or	a5,a5,a4
    2586:	01079713          	slli	a4,a5,0x10
    258a:	8341                	srli	a4,a4,0x10
    258c:	fec42783          	lw	a5,-20(s0)
    2590:	00e79623          	sh	a4,12(a5) # 200c <TIM_OC1PreloadConfig+0xe>
C:\Users\windows\Desktop\smart_car\MASTER\obj/../Libraries/wch_libraries/Peripheral/ch32v10x_usart.c:238
  }
  else
  {
    USARTx->CTLR1 &= CTLR1_UE_Reset;
  }
}
    2594:	a015                	j	25b8 <USART_Cmd+0x58>
C:\Users\windows\Desktop\smart_car\MASTER\obj/../Libraries/wch_libraries/Peripheral/ch32v10x_usart.c:236
    USARTx->CTLR1 &= CTLR1_UE_Reset;
    2596:	fec42783          	lw	a5,-20(s0)
    259a:	00c7d783          	lhu	a5,12(a5)
    259e:	01079713          	slli	a4,a5,0x10
    25a2:	8341                	srli	a4,a4,0x10
    25a4:	77f9                	lui	a5,0xffffe
    25a6:	17fd                	addi	a5,a5,-1
    25a8:	8ff9                	and	a5,a5,a4
    25aa:	01079713          	slli	a4,a5,0x10
    25ae:	8341                	srli	a4,a4,0x10
    25b0:	fec42783          	lw	a5,-20(s0)
    25b4:	00e79623          	sh	a4,12(a5) # ffffe00c <_eusrstack+0xdfff900c>
C:\Users\windows\Desktop\smart_car\MASTER\obj/../Libraries/wch_libraries/Peripheral/ch32v10x_usart.c:238
}
    25b8:	0001                	nop
    25ba:	4472                	lw	s0,28(sp)
    25bc:	6105                	addi	sp,sp,32
    25be:	8082                	ret

000025c0 <USART_ITConfig>:
USART_ITConfig():
C:\Users\windows\Desktop\smart_car\MASTER\obj/../Libraries/wch_libraries/Peripheral/ch32v10x_usart.c:257
*                    USART_IT_ERR:  Error interrupt.
*                  NewState: ENABLE or DISABLE.
* Return         : None
*******************************************************************************/
void USART_ITConfig(USART_TypeDef* USARTx, uint16_t USART_IT, FunctionalState NewState)
{
    25c0:	7179                	addi	sp,sp,-48
    25c2:	d622                	sw	s0,44(sp)
    25c4:	1800                	addi	s0,sp,48
    25c6:	fca42e23          	sw	a0,-36(s0)
    25ca:	87ae                	mv	a5,a1
    25cc:	fcc42a23          	sw	a2,-44(s0)
    25d0:	fcf41d23          	sh	a5,-38(s0)
C:\Users\windows\Desktop\smart_car\MASTER\obj/../Libraries/wch_libraries/Peripheral/ch32v10x_usart.c:258
  uint32_t usartreg = 0x00, itpos = 0x00, itmask = 0x00;
    25d4:	fe042423          	sw	zero,-24(s0)
    25d8:	fe042223          	sw	zero,-28(s0)
    25dc:	fe042023          	sw	zero,-32(s0)
C:\Users\windows\Desktop\smart_car\MASTER\obj/../Libraries/wch_libraries/Peripheral/ch32v10x_usart.c:259
  uint32_t usartxbase = 0x00;
    25e0:	fe042623          	sw	zero,-20(s0)
C:\Users\windows\Desktop\smart_car\MASTER\obj/../Libraries/wch_libraries/Peripheral/ch32v10x_usart.c:265

  if (USART_IT == USART_IT_CTS)
  {
  }   
  
  usartxbase = (uint32_t)USARTx;
    25e4:	fdc42783          	lw	a5,-36(s0)
    25e8:	fef42623          	sw	a5,-20(s0)
C:\Users\windows\Desktop\smart_car\MASTER\obj/../Libraries/wch_libraries/Peripheral/ch32v10x_usart.c:266
  usartreg = (((uint8_t)USART_IT) >> 0x05);
    25ec:	fda45783          	lhu	a5,-38(s0)
    25f0:	0ff7f793          	andi	a5,a5,255
    25f4:	8395                	srli	a5,a5,0x5
    25f6:	0ff7f793          	andi	a5,a5,255
    25fa:	fef42423          	sw	a5,-24(s0)
C:\Users\windows\Desktop\smart_car\MASTER\obj/../Libraries/wch_libraries/Peripheral/ch32v10x_usart.c:267
  itpos = USART_IT & IT_Mask;
    25fe:	fda45783          	lhu	a5,-38(s0)
    2602:	8bfd                	andi	a5,a5,31
    2604:	fef42223          	sw	a5,-28(s0)
C:\Users\windows\Desktop\smart_car\MASTER\obj/../Libraries/wch_libraries/Peripheral/ch32v10x_usart.c:268
  itmask = (((uint32_t)0x01) << itpos);
    2608:	fe442783          	lw	a5,-28(s0)
    260c:	4705                	li	a4,1
    260e:	00f717b3          	sll	a5,a4,a5
    2612:	fef42023          	sw	a5,-32(s0)
C:\Users\windows\Desktop\smart_car\MASTER\obj/../Libraries/wch_libraries/Peripheral/ch32v10x_usart.c:270
    
  if (usartreg == 0x01) 
    2616:	fe842703          	lw	a4,-24(s0)
    261a:	4785                	li	a5,1
    261c:	00f71863          	bne	a4,a5,262c <USART_ITConfig+0x6c>
C:\Users\windows\Desktop\smart_car\MASTER\obj/../Libraries/wch_libraries/Peripheral/ch32v10x_usart.c:272
  {
    usartxbase += 0x0C;
    2620:	fec42783          	lw	a5,-20(s0)
    2624:	07b1                	addi	a5,a5,12
    2626:	fef42623          	sw	a5,-20(s0)
    262a:	a00d                	j	264c <USART_ITConfig+0x8c>
C:\Users\windows\Desktop\smart_car\MASTER\obj/../Libraries/wch_libraries/Peripheral/ch32v10x_usart.c:274
  }
  else if (usartreg == 0x02) 
    262c:	fe842703          	lw	a4,-24(s0)
    2630:	4789                	li	a5,2
    2632:	00f71863          	bne	a4,a5,2642 <USART_ITConfig+0x82>
C:\Users\windows\Desktop\smart_car\MASTER\obj/../Libraries/wch_libraries/Peripheral/ch32v10x_usart.c:276
  {
    usartxbase += 0x10;
    2636:	fec42783          	lw	a5,-20(s0)
    263a:	07c1                	addi	a5,a5,16
    263c:	fef42623          	sw	a5,-20(s0)
    2640:	a031                	j	264c <USART_ITConfig+0x8c>
C:\Users\windows\Desktop\smart_car\MASTER\obj/../Libraries/wch_libraries/Peripheral/ch32v10x_usart.c:280
  }
  else 
  {
    usartxbase += 0x14; 
    2642:	fec42783          	lw	a5,-20(s0)
    2646:	07d1                	addi	a5,a5,20
    2648:	fef42623          	sw	a5,-20(s0)
C:\Users\windows\Desktop\smart_car\MASTER\obj/../Libraries/wch_libraries/Peripheral/ch32v10x_usart.c:283
  }
	
  if (NewState != DISABLE)
    264c:	fd442783          	lw	a5,-44(s0)
    2650:	cb99                	beqz	a5,2666 <USART_ITConfig+0xa6>
C:\Users\windows\Desktop\smart_car\MASTER\obj/../Libraries/wch_libraries/Peripheral/ch32v10x_usart.c:285
  {
    *(__IO uint32_t*)usartxbase  |= itmask;
    2652:	fec42783          	lw	a5,-20(s0)
    2656:	4394                	lw	a3,0(a5)
    2658:	fec42783          	lw	a5,-20(s0)
    265c:	fe042703          	lw	a4,-32(s0)
    2660:	8f55                	or	a4,a4,a3
    2662:	c398                	sw	a4,0(a5)
C:\Users\windows\Desktop\smart_car\MASTER\obj/../Libraries/wch_libraries/Peripheral/ch32v10x_usart.c:291
  }
  else
  {
    *(__IO uint32_t*)usartxbase &= ~itmask;
  }
}
    2664:	a821                	j	267c <USART_ITConfig+0xbc>
C:\Users\windows\Desktop\smart_car\MASTER\obj/../Libraries/wch_libraries/Peripheral/ch32v10x_usart.c:289
    *(__IO uint32_t*)usartxbase &= ~itmask;
    2666:	fec42783          	lw	a5,-20(s0)
    266a:	4394                	lw	a3,0(a5)
    266c:	fe042783          	lw	a5,-32(s0)
    2670:	fff7c713          	not	a4,a5
    2674:	fec42783          	lw	a5,-20(s0)
    2678:	8f75                	and	a4,a4,a3
    267a:	c398                	sw	a4,0(a5)
C:\Users\windows\Desktop\smart_car\MASTER\obj/../Libraries/wch_libraries/Peripheral/ch32v10x_usart.c:291
}
    267c:	0001                	nop
    267e:	5432                	lw	s0,44(sp)
    2680:	6145                	addi	sp,sp,48
    2682:	8082                	ret

00002684 <USART_SendData>:
USART_SendData():
C:\Users\windows\Desktop\smart_car\MASTER\obj/../Libraries/wch_libraries/Peripheral/ch32v10x_usart.c:404
* Input          : USARTx: where x can be 1, 2, 3 to select the USART peripheral.
*                  Data: the data to transmit..
* Return         : None
*******************************************************************************/
void USART_SendData(USART_TypeDef* USARTx, uint16_t Data)
{
    2684:	1101                	addi	sp,sp,-32
    2686:	ce22                	sw	s0,28(sp)
    2688:	1000                	addi	s0,sp,32
    268a:	fea42623          	sw	a0,-20(s0)
    268e:	87ae                	mv	a5,a1
    2690:	fef41523          	sh	a5,-22(s0)
C:\Users\windows\Desktop\smart_car\MASTER\obj/../Libraries/wch_libraries/Peripheral/ch32v10x_usart.c:405
  USARTx->DATAR = (Data & (uint16_t)0x01FF);
    2694:	fea45783          	lhu	a5,-22(s0)
    2698:	1ff7f793          	andi	a5,a5,511
    269c:	01079713          	slli	a4,a5,0x10
    26a0:	8341                	srli	a4,a4,0x10
    26a2:	fec42783          	lw	a5,-20(s0)
    26a6:	00e79223          	sh	a4,4(a5)
C:\Users\windows\Desktop\smart_car\MASTER\obj/../Libraries/wch_libraries/Peripheral/ch32v10x_usart.c:406
}
    26aa:	0001                	nop
    26ac:	4472                	lw	s0,28(sp)
    26ae:	6105                	addi	sp,sp,32
    26b0:	8082                	ret

000026b2 <USART_ReceiveData>:
USART_ReceiveData():
C:\Users\windows\Desktop\smart_car\MASTER\obj/../Libraries/wch_libraries/Peripheral/ch32v10x_usart.c:415
* Description    : Returns the most recent received data by the USARTx peripheral.
* Input          : USARTx: where x can be 1, 2, 3 to select the USART peripheral.
* Return         : The received data.
*******************************************************************************/
uint16_t USART_ReceiveData(USART_TypeDef* USARTx)
{
    26b2:	1101                	addi	sp,sp,-32
    26b4:	ce22                	sw	s0,28(sp)
    26b6:	1000                	addi	s0,sp,32
    26b8:	fea42623          	sw	a0,-20(s0)
C:\Users\windows\Desktop\smart_car\MASTER\obj/../Libraries/wch_libraries/Peripheral/ch32v10x_usart.c:416
  return (uint16_t)(USARTx->DATAR & (uint16_t)0x01FF);
    26bc:	fec42783          	lw	a5,-20(s0)
    26c0:	0047d783          	lhu	a5,4(a5)
    26c4:	07c2                	slli	a5,a5,0x10
    26c6:	83c1                	srli	a5,a5,0x10
    26c8:	1ff7f793          	andi	a5,a5,511
    26cc:	07c2                	slli	a5,a5,0x10
    26ce:	83c1                	srli	a5,a5,0x10
C:\Users\windows\Desktop\smart_car\MASTER\obj/../Libraries/wch_libraries/Peripheral/ch32v10x_usart.c:417
}
    26d0:	853e                	mv	a0,a5
    26d2:	4472                	lw	s0,28(sp)
    26d4:	6105                	addi	sp,sp,32
    26d6:	8082                	ret

000026d8 <USART_GetFlagStatus>:
USART_GetFlagStatus():
C:\Users\windows\Desktop\smart_car\MASTER\obj/../Libraries/wch_libraries/Peripheral/ch32v10x_usart.c:603
*                    USART_FLAG_FE: Framing Error flag.
*                    USART_FLAG_PE: Parity Error flag.
* Return         : bitstatus: SET or RESET.
*******************************************************************************/
FlagStatus USART_GetFlagStatus(USART_TypeDef* USARTx, uint16_t USART_FLAG)
{
    26d8:	7179                	addi	sp,sp,-48
    26da:	d622                	sw	s0,44(sp)
    26dc:	1800                	addi	s0,sp,48
    26de:	fca42e23          	sw	a0,-36(s0)
    26e2:	87ae                	mv	a5,a1
    26e4:	fcf41d23          	sh	a5,-38(s0)
C:\Users\windows\Desktop\smart_car\MASTER\obj/../Libraries/wch_libraries/Peripheral/ch32v10x_usart.c:604
  FlagStatus bitstatus = RESET;
    26e8:	fe042623          	sw	zero,-20(s0)
C:\Users\windows\Desktop\smart_car\MASTER\obj/../Libraries/wch_libraries/Peripheral/ch32v10x_usart.c:610

  if (USART_FLAG == USART_FLAG_CTS)
  {
  }  
  
  if ((USARTx->STATR & USART_FLAG) != (uint16_t)RESET)
    26ec:	fdc42783          	lw	a5,-36(s0)
    26f0:	0007d783          	lhu	a5,0(a5)
    26f4:	01079713          	slli	a4,a5,0x10
    26f8:	8341                	srli	a4,a4,0x10
    26fa:	fda45783          	lhu	a5,-38(s0)
    26fe:	8ff9                	and	a5,a5,a4
    2700:	07c2                	slli	a5,a5,0x10
    2702:	83c1                	srli	a5,a5,0x10
    2704:	c789                	beqz	a5,270e <USART_GetFlagStatus+0x36>
C:\Users\windows\Desktop\smart_car\MASTER\obj/../Libraries/wch_libraries/Peripheral/ch32v10x_usart.c:612
  {
    bitstatus = SET;
    2706:	4785                	li	a5,1
    2708:	fef42623          	sw	a5,-20(s0)
    270c:	a019                	j	2712 <USART_GetFlagStatus+0x3a>
C:\Users\windows\Desktop\smart_car\MASTER\obj/../Libraries/wch_libraries/Peripheral/ch32v10x_usart.c:616
  }
  else
  {
    bitstatus = RESET;
    270e:	fe042623          	sw	zero,-20(s0)
C:\Users\windows\Desktop\smart_car\MASTER\obj/../Libraries/wch_libraries/Peripheral/ch32v10x_usart.c:618
  }
  return bitstatus;
    2712:	fec42783          	lw	a5,-20(s0)
C:\Users\windows\Desktop\smart_car\MASTER\obj/../Libraries/wch_libraries/Peripheral/ch32v10x_usart.c:619
}
    2716:	853e                	mv	a0,a5
    2718:	5432                	lw	s0,44(sp)
    271a:	6145                	addi	sp,sp,48
    271c:	8082                	ret

0000271e <USART_GetITStatus>:
USART_GetITStatus():
C:\Users\windows\Desktop\smart_car\MASTER\obj/../Libraries/wch_libraries/Peripheral/ch32v10x_usart.c:660
*                    USART_IT_FE: Framing Error interrupt.
*                    USART_IT_PE: Parity Error interrupt.
* Return         : bitstatus: SET or RESET.
*******************************************************************************/
ITStatus USART_GetITStatus(USART_TypeDef* USARTx, uint16_t USART_IT)
{
    271e:	7179                	addi	sp,sp,-48
    2720:	d622                	sw	s0,44(sp)
    2722:	1800                	addi	s0,sp,48
    2724:	fca42e23          	sw	a0,-36(s0)
    2728:	87ae                	mv	a5,a1
    272a:	fcf41d23          	sh	a5,-38(s0)
C:\Users\windows\Desktop\smart_car\MASTER\obj/../Libraries/wch_libraries/Peripheral/ch32v10x_usart.c:661
  uint32_t bitpos = 0x00, itmask = 0x00, usartreg = 0x00;
    272e:	fe042223          	sw	zero,-28(s0)
    2732:	fe042623          	sw	zero,-20(s0)
    2736:	fe042023          	sw	zero,-32(s0)
C:\Users\windows\Desktop\smart_car\MASTER\obj/../Libraries/wch_libraries/Peripheral/ch32v10x_usart.c:662
  ITStatus bitstatus = RESET;
    273a:	fe042423          	sw	zero,-24(s0)
C:\Users\windows\Desktop\smart_car\MASTER\obj/../Libraries/wch_libraries/Peripheral/ch32v10x_usart.c:668

  if (USART_IT == USART_IT_CTS)
  {
  }   
  
  usartreg = (((uint8_t)USART_IT) >> 0x05);
    273e:	fda45783          	lhu	a5,-38(s0)
    2742:	0ff7f793          	andi	a5,a5,255
    2746:	8395                	srli	a5,a5,0x5
    2748:	0ff7f793          	andi	a5,a5,255
    274c:	fef42023          	sw	a5,-32(s0)
C:\Users\windows\Desktop\smart_car\MASTER\obj/../Libraries/wch_libraries/Peripheral/ch32v10x_usart.c:669
  itmask = USART_IT & IT_Mask;
    2750:	fda45783          	lhu	a5,-38(s0)
    2754:	8bfd                	andi	a5,a5,31
    2756:	fef42623          	sw	a5,-20(s0)
C:\Users\windows\Desktop\smart_car\MASTER\obj/../Libraries/wch_libraries/Peripheral/ch32v10x_usart.c:670
  itmask = (uint32_t)0x01 << itmask;
    275a:	fec42783          	lw	a5,-20(s0)
    275e:	4705                	li	a4,1
    2760:	00f717b3          	sll	a5,a4,a5
    2764:	fef42623          	sw	a5,-20(s0)
C:\Users\windows\Desktop\smart_car\MASTER\obj/../Libraries/wch_libraries/Peripheral/ch32v10x_usart.c:672
  
  if (usartreg == 0x01) 
    2768:	fe042703          	lw	a4,-32(s0)
    276c:	4785                	li	a5,1
    276e:	00f71f63          	bne	a4,a5,278c <USART_GetITStatus+0x6e>
C:\Users\windows\Desktop\smart_car\MASTER\obj/../Libraries/wch_libraries/Peripheral/ch32v10x_usart.c:674
  {
    itmask &= USARTx->CTLR1;
    2772:	fdc42783          	lw	a5,-36(s0)
    2776:	00c7d783          	lhu	a5,12(a5)
    277a:	07c2                	slli	a5,a5,0x10
    277c:	83c1                	srli	a5,a5,0x10
    277e:	873e                	mv	a4,a5
    2780:	fec42783          	lw	a5,-20(s0)
    2784:	8ff9                	and	a5,a5,a4
    2786:	fef42623          	sw	a5,-20(s0)
    278a:	a83d                	j	27c8 <USART_GetITStatus+0xaa>
C:\Users\windows\Desktop\smart_car\MASTER\obj/../Libraries/wch_libraries/Peripheral/ch32v10x_usart.c:676
  }
  else if (usartreg == 0x02) 
    278c:	fe042703          	lw	a4,-32(s0)
    2790:	4789                	li	a5,2
    2792:	00f71f63          	bne	a4,a5,27b0 <USART_GetITStatus+0x92>
C:\Users\windows\Desktop\smart_car\MASTER\obj/../Libraries/wch_libraries/Peripheral/ch32v10x_usart.c:678
  {
    itmask &= USARTx->CTLR2;
    2796:	fdc42783          	lw	a5,-36(s0)
    279a:	0107d783          	lhu	a5,16(a5)
    279e:	07c2                	slli	a5,a5,0x10
    27a0:	83c1                	srli	a5,a5,0x10
    27a2:	873e                	mv	a4,a5
    27a4:	fec42783          	lw	a5,-20(s0)
    27a8:	8ff9                	and	a5,a5,a4
    27aa:	fef42623          	sw	a5,-20(s0)
    27ae:	a829                	j	27c8 <USART_GetITStatus+0xaa>
C:\Users\windows\Desktop\smart_car\MASTER\obj/../Libraries/wch_libraries/Peripheral/ch32v10x_usart.c:682
  }
  else 
  {
    itmask &= USARTx->CTLR3;
    27b0:	fdc42783          	lw	a5,-36(s0)
    27b4:	0147d783          	lhu	a5,20(a5)
    27b8:	07c2                	slli	a5,a5,0x10
    27ba:	83c1                	srli	a5,a5,0x10
    27bc:	873e                	mv	a4,a5
    27be:	fec42783          	lw	a5,-20(s0)
    27c2:	8ff9                	and	a5,a5,a4
    27c4:	fef42623          	sw	a5,-20(s0)
C:\Users\windows\Desktop\smart_car\MASTER\obj/../Libraries/wch_libraries/Peripheral/ch32v10x_usart.c:685
  }
  
  bitpos = USART_IT >> 0x08;
    27c8:	fda45783          	lhu	a5,-38(s0)
    27cc:	83a1                	srli	a5,a5,0x8
    27ce:	07c2                	slli	a5,a5,0x10
    27d0:	83c1                	srli	a5,a5,0x10
    27d2:	fef42223          	sw	a5,-28(s0)
C:\Users\windows\Desktop\smart_car\MASTER\obj/../Libraries/wch_libraries/Peripheral/ch32v10x_usart.c:686
  bitpos = (uint32_t)0x01 << bitpos;
    27d6:	fe442783          	lw	a5,-28(s0)
    27da:	4705                	li	a4,1
    27dc:	00f717b3          	sll	a5,a4,a5
    27e0:	fef42223          	sw	a5,-28(s0)
C:\Users\windows\Desktop\smart_car\MASTER\obj/../Libraries/wch_libraries/Peripheral/ch32v10x_usart.c:687
  bitpos &= USARTx->STATR;
    27e4:	fdc42783          	lw	a5,-36(s0)
    27e8:	0007d783          	lhu	a5,0(a5)
    27ec:	07c2                	slli	a5,a5,0x10
    27ee:	83c1                	srli	a5,a5,0x10
    27f0:	873e                	mv	a4,a5
    27f2:	fe442783          	lw	a5,-28(s0)
    27f6:	8ff9                	and	a5,a5,a4
    27f8:	fef42223          	sw	a5,-28(s0)
C:\Users\windows\Desktop\smart_car\MASTER\obj/../Libraries/wch_libraries/Peripheral/ch32v10x_usart.c:689
	
  if ((itmask != (uint16_t)RESET)&&(bitpos != (uint16_t)RESET))
    27fc:	fec42783          	lw	a5,-20(s0)
    2800:	cb81                	beqz	a5,2810 <USART_GetITStatus+0xf2>
C:\Users\windows\Desktop\smart_car\MASTER\obj/../Libraries/wch_libraries/Peripheral/ch32v10x_usart.c:689 (discriminator 1)
    2802:	fe442783          	lw	a5,-28(s0)
    2806:	c789                	beqz	a5,2810 <USART_GetITStatus+0xf2>
C:\Users\windows\Desktop\smart_car\MASTER\obj/../Libraries/wch_libraries/Peripheral/ch32v10x_usart.c:691
  {
    bitstatus = SET;
    2808:	4785                	li	a5,1
    280a:	fef42423          	sw	a5,-24(s0)
    280e:	a019                	j	2814 <USART_GetITStatus+0xf6>
C:\Users\windows\Desktop\smart_car\MASTER\obj/../Libraries/wch_libraries/Peripheral/ch32v10x_usart.c:695
  }
  else
  {
    bitstatus = RESET;
    2810:	fe042423          	sw	zero,-24(s0)
C:\Users\windows\Desktop\smart_car\MASTER\obj/../Libraries/wch_libraries/Peripheral/ch32v10x_usart.c:698
  }
  
  return bitstatus;  
    2814:	fe842783          	lw	a5,-24(s0)
C:\Users\windows\Desktop\smart_car\MASTER\obj/../Libraries/wch_libraries/Peripheral/ch32v10x_usart.c:699
}
    2818:	853e                	mv	a0,a5
    281a:	5432                	lw	s0,44(sp)
    281c:	6145                	addi	sp,sp,48
    281e:	8082                	ret

00002820 <USART_ClearITPendingBit>:
USART_ClearITPendingBit():
C:\Users\windows\Desktop\smart_car\MASTER\obj/../Libraries/wch_libraries/Peripheral/ch32v10x_usart.c:713
*                    USART_IT_TC:   Transmission complete interrupt.
*                    USART_IT_RXNE: Receive Data register not empty interrupt.
* Return         : None
*******************************************************************************/
void USART_ClearITPendingBit(USART_TypeDef* USARTx, uint16_t USART_IT)
{
    2820:	7179                	addi	sp,sp,-48
    2822:	d622                	sw	s0,44(sp)
    2824:	1800                	addi	s0,sp,48
    2826:	fca42e23          	sw	a0,-36(s0)
    282a:	87ae                	mv	a5,a1
    282c:	fcf41d23          	sh	a5,-38(s0)
C:\Users\windows\Desktop\smart_car\MASTER\obj/../Libraries/wch_libraries/Peripheral/ch32v10x_usart.c:714
  uint16_t bitpos = 0x00, itmask = 0x00;
    2830:	fe041723          	sh	zero,-18(s0)
    2834:	fe041623          	sh	zero,-20(s0)
C:\Users\windows\Desktop\smart_car\MASTER\obj/../Libraries/wch_libraries/Peripheral/ch32v10x_usart.c:720

  if (USART_IT == USART_IT_CTS)
  {
  }   
  
  bitpos = USART_IT >> 0x08;
    2838:	fda45783          	lhu	a5,-38(s0)
    283c:	83a1                	srli	a5,a5,0x8
    283e:	fef41723          	sh	a5,-18(s0)
C:\Users\windows\Desktop\smart_car\MASTER\obj/../Libraries/wch_libraries/Peripheral/ch32v10x_usart.c:721
  itmask = ((uint16_t)0x01 << (uint16_t)bitpos);
    2842:	fee45783          	lhu	a5,-18(s0)
    2846:	4705                	li	a4,1
    2848:	00f717b3          	sll	a5,a4,a5
    284c:	fef41623          	sh	a5,-20(s0)
C:\Users\windows\Desktop\smart_car\MASTER\obj/../Libraries/wch_libraries/Peripheral/ch32v10x_usart.c:722
  USARTx->STATR = (uint16_t)~itmask;
    2850:	fec45783          	lhu	a5,-20(s0)
    2854:	fff7c793          	not	a5,a5
    2858:	01079713          	slli	a4,a5,0x10
    285c:	8341                	srli	a4,a4,0x10
    285e:	fdc42783          	lw	a5,-36(s0)
    2862:	00e79023          	sh	a4,0(a5)
C:\Users\windows\Desktop\smart_car\MASTER\obj/../Libraries/wch_libraries/Peripheral/ch32v10x_usart.c:723
}
    2866:	0001                	nop
    2868:	5432                	lw	s0,44(sp)
    286a:	6145                	addi	sp,sp,48
    286c:	8082                	ret

0000286e <ips114_writeIndex>:
ips114_writeIndex():
C:\Users\windows\Desktop\smart_car\MASTER\obj/../Libraries/seekfree_peripheral/SEEKFREE_IPS114_SPI.c:50
//  @return     				
//  @since      v1.0
//  Sample usage:               
//-------------------------------------------------------------------------------------------------------------------
void ips114_writeIndex(uint8 dat)			//写命令
{	
    286e:	1101                	addi	sp,sp,-32
    2870:	ce06                	sw	ra,28(sp)
    2872:	cc22                	sw	s0,24(sp)
    2874:	1000                	addi	s0,sp,32
    2876:	87aa                	mv	a5,a0
    2878:	fef407a3          	sb	a5,-17(s0)
C:\Users\windows\Desktop\smart_car\MASTER\obj/../Libraries/seekfree_peripheral/SEEKFREE_IPS114_SPI.c:51
    IPS114_CS(0);
    287c:	679d                	lui	a5,0x7
    287e:	b0c78793          	addi	a5,a5,-1268 # 6b0c <GPION>
    2882:	479c                	lw	a5,8(a5)
    2884:	873e                	mv	a4,a5
    2886:	67a1                	lui	a5,0x8
    2888:	cb5c                	sw	a5,20(a4)
C:\Users\windows\Desktop\smart_car\MASTER\obj/../Libraries/seekfree_peripheral/SEEKFREE_IPS114_SPI.c:52
    IPS114_DC(0);
    288a:	679d                	lui	a5,0x7
    288c:	b0c78793          	addi	a5,a5,-1268 # 6b0c <GPION>
    2890:	479c                	lw	a5,8(a5)
    2892:	873e                	mv	a4,a5
    2894:	6791                	lui	a5,0x4
    2896:	cb5c                	sw	a5,20(a4)
C:\Users\windows\Desktop\smart_car\MASTER\obj/../Libraries/seekfree_peripheral/SEEKFREE_IPS114_SPI.c:53
    spi_mosi(IPS114_SPIN, &dat, NULL, 1);
    2898:	fef40793          	addi	a5,s0,-17
    289c:	4685                	li	a3,1
    289e:	4601                	li	a2,0
    28a0:	85be                	mv	a1,a5
    28a2:	4501                	li	a0,0
    28a4:	7b8010ef          	jal	ra,405c <spi_mosi>
C:\Users\windows\Desktop\smart_car\MASTER\obj/../Libraries/seekfree_peripheral/SEEKFREE_IPS114_SPI.c:54
    IPS114_CS(1);
    28a8:	679d                	lui	a5,0x7
    28aa:	b0c78793          	addi	a5,a5,-1268 # 6b0c <GPION>
    28ae:	479c                	lw	a5,8(a5)
    28b0:	873e                	mv	a4,a5
    28b2:	67a1                	lui	a5,0x8
    28b4:	cb1c                	sw	a5,16(a4)
C:\Users\windows\Desktop\smart_car\MASTER\obj/../Libraries/seekfree_peripheral/SEEKFREE_IPS114_SPI.c:55
}
    28b6:	0001                	nop
    28b8:	40f2                	lw	ra,28(sp)
    28ba:	4462                	lw	s0,24(sp)
    28bc:	6105                	addi	sp,sp,32
    28be:	8082                	ret

000028c0 <ips114_writeData>:
ips114_writeData():
C:\Users\windows\Desktop\smart_car\MASTER\obj/../Libraries/seekfree_peripheral/SEEKFREE_IPS114_SPI.c:65
//  @return     				
//  @since      v1.0
//  Sample usage:               
//-------------------------------------------------------------------------------------------------------------------
void ips114_writeData(uint8 dat)			//写数据
{
    28c0:	1101                	addi	sp,sp,-32
    28c2:	ce06                	sw	ra,28(sp)
    28c4:	cc22                	sw	s0,24(sp)
    28c6:	1000                	addi	s0,sp,32
    28c8:	87aa                	mv	a5,a0
    28ca:	fef407a3          	sb	a5,-17(s0)
C:\Users\windows\Desktop\smart_car\MASTER\obj/../Libraries/seekfree_peripheral/SEEKFREE_IPS114_SPI.c:66
    IPS114_CS(0);
    28ce:	679d                	lui	a5,0x7
    28d0:	b0c78793          	addi	a5,a5,-1268 # 6b0c <GPION>
    28d4:	479c                	lw	a5,8(a5)
    28d6:	873e                	mv	a4,a5
    28d8:	67a1                	lui	a5,0x8
    28da:	cb5c                	sw	a5,20(a4)
C:\Users\windows\Desktop\smart_car\MASTER\obj/../Libraries/seekfree_peripheral/SEEKFREE_IPS114_SPI.c:67
    IPS114_DC(1);
    28dc:	679d                	lui	a5,0x7
    28de:	b0c78793          	addi	a5,a5,-1268 # 6b0c <GPION>
    28e2:	479c                	lw	a5,8(a5)
    28e4:	873e                	mv	a4,a5
    28e6:	6791                	lui	a5,0x4
    28e8:	cb1c                	sw	a5,16(a4)
C:\Users\windows\Desktop\smart_car\MASTER\obj/../Libraries/seekfree_peripheral/SEEKFREE_IPS114_SPI.c:68
    spi_mosi(IPS114_SPIN, &dat, NULL, 1);
    28ea:	fef40793          	addi	a5,s0,-17
    28ee:	4685                	li	a3,1
    28f0:	4601                	li	a2,0
    28f2:	85be                	mv	a1,a5
    28f4:	4501                	li	a0,0
    28f6:	766010ef          	jal	ra,405c <spi_mosi>
C:\Users\windows\Desktop\smart_car\MASTER\obj/../Libraries/seekfree_peripheral/SEEKFREE_IPS114_SPI.c:69
    IPS114_CS(1);
    28fa:	679d                	lui	a5,0x7
    28fc:	b0c78793          	addi	a5,a5,-1268 # 6b0c <GPION>
    2900:	479c                	lw	a5,8(a5)
    2902:	873e                	mv	a4,a5
    2904:	67a1                	lui	a5,0x8
    2906:	cb1c                	sw	a5,16(a4)
C:\Users\windows\Desktop\smart_car\MASTER\obj/../Libraries/seekfree_peripheral/SEEKFREE_IPS114_SPI.c:70
}
    2908:	0001                	nop
    290a:	40f2                	lw	ra,28(sp)
    290c:	4462                	lw	s0,24(sp)
    290e:	6105                	addi	sp,sp,32
    2910:	8082                	ret

00002912 <ips114_writedata_16bit>:
ips114_writedata_16bit():
C:\Users\windows\Desktop\smart_car\MASTER\obj/../Libraries/seekfree_peripheral/SEEKFREE_IPS114_SPI.c:80
//  @return     				
//  @since      v1.0
//  Sample usage:               
//-------------------------------------------------------------------------------------------------------------------
void ips114_writedata_16bit(uint16 dat)	//向液晶屏写一个16位数据
{
    2912:	7179                	addi	sp,sp,-48
    2914:	d606                	sw	ra,44(sp)
    2916:	d422                	sw	s0,40(sp)
    2918:	1800                	addi	s0,sp,48
    291a:	87aa                	mv	a5,a0
    291c:	fcf41f23          	sh	a5,-34(s0)
C:\Users\windows\Desktop\smart_car\MASTER\obj/../Libraries/seekfree_peripheral/SEEKFREE_IPS114_SPI.c:82
    uint8 dat1[2];
    IPS114_CS(0);
    2920:	679d                	lui	a5,0x7
    2922:	b0c78793          	addi	a5,a5,-1268 # 6b0c <GPION>
    2926:	479c                	lw	a5,8(a5)
    2928:	873e                	mv	a4,a5
    292a:	67a1                	lui	a5,0x8
    292c:	cb5c                	sw	a5,20(a4)
C:\Users\windows\Desktop\smart_car\MASTER\obj/../Libraries/seekfree_peripheral/SEEKFREE_IPS114_SPI.c:83
    dat1[0] = dat >> 8;
    292e:	fde45783          	lhu	a5,-34(s0)
    2932:	83a1                	srli	a5,a5,0x8
    2934:	07c2                	slli	a5,a5,0x10
    2936:	83c1                	srli	a5,a5,0x10
    2938:	0ff7f793          	andi	a5,a5,255
    293c:	fef40623          	sb	a5,-20(s0)
C:\Users\windows\Desktop\smart_car\MASTER\obj/../Libraries/seekfree_peripheral/SEEKFREE_IPS114_SPI.c:84
    dat1[1] = (uint8)dat;
    2940:	fde45783          	lhu	a5,-34(s0)
    2944:	0ff7f793          	andi	a5,a5,255
    2948:	fef406a3          	sb	a5,-19(s0)
C:\Users\windows\Desktop\smart_car\MASTER\obj/../Libraries/seekfree_peripheral/SEEKFREE_IPS114_SPI.c:86
    
    IPS114_DC(1);
    294c:	679d                	lui	a5,0x7
    294e:	b0c78793          	addi	a5,a5,-1268 # 6b0c <GPION>
    2952:	479c                	lw	a5,8(a5)
    2954:	873e                	mv	a4,a5
    2956:	6791                	lui	a5,0x4
    2958:	cb1c                	sw	a5,16(a4)
C:\Users\windows\Desktop\smart_car\MASTER\obj/../Libraries/seekfree_peripheral/SEEKFREE_IPS114_SPI.c:87
    spi_mosi(IPS114_SPIN, dat1, NULL, 2); 	//写入数据  高位在前  低位在后
    295a:	fec40793          	addi	a5,s0,-20
    295e:	4689                	li	a3,2
    2960:	4601                	li	a2,0
    2962:	85be                	mv	a1,a5
    2964:	4501                	li	a0,0
    2966:	6f6010ef          	jal	ra,405c <spi_mosi>
C:\Users\windows\Desktop\smart_car\MASTER\obj/../Libraries/seekfree_peripheral/SEEKFREE_IPS114_SPI.c:88
    IPS114_CS(1);
    296a:	679d                	lui	a5,0x7
    296c:	b0c78793          	addi	a5,a5,-1268 # 6b0c <GPION>
    2970:	479c                	lw	a5,8(a5)
    2972:	873e                	mv	a4,a5
    2974:	67a1                	lui	a5,0x8
    2976:	cb1c                	sw	a5,16(a4)
C:\Users\windows\Desktop\smart_car\MASTER\obj/../Libraries/seekfree_peripheral/SEEKFREE_IPS114_SPI.c:89
}
    2978:	0001                	nop
    297a:	50b2                	lw	ra,44(sp)
    297c:	5422                	lw	s0,40(sp)
    297e:	6145                	addi	sp,sp,48
    2980:	8082                	ret

00002982 <ips114_init>:
ips114_init():
C:\Users\windows\Desktop\smart_car\MASTER\obj/../Libraries/seekfree_peripheral/SEEKFREE_IPS114_SPI.c:98
//  @return     void
//  @since      v1.0
//  Sample usage:               
//-------------------------------------------------------------------------------------------------------------------
void ips114_init(void)
{
    2982:	7179                	addi	sp,sp,-48
    2984:	d606                	sw	ra,44(sp)
    2986:	d422                	sw	s0,40(sp)
    2988:	d24a                	sw	s2,36(sp)
    298a:	d04e                	sw	s3,32(sp)
    298c:	ce52                	sw	s4,28(sp)
    298e:	cc56                	sw	s5,24(sp)
    2990:	ca5a                	sw	s6,20(sp)
    2992:	c85e                	sw	s7,16(sp)
    2994:	c662                	sw	s8,12(sp)
    2996:	c466                	sw	s9,8(sp)
    2998:	1800                	addi	s0,sp,48
C:\Users\windows\Desktop\smart_car\MASTER\obj/../Libraries/seekfree_peripheral/SEEKFREE_IPS114_SPI.c:99
    spi_init(IPS114_SPIN, IPS114_SCL_PIN, IPS114_SDA_PIN, IPS114_SDA_IN_PIN, IPS114_CS_PIN, 0, FPCLK_DIV_2);//硬件SPI初始化
    299a:	4801                	li	a6,0
    299c:	4781                	li	a5,0
    299e:	04f00713          	li	a4,79
    29a2:	02300693          	li	a3,35
    29a6:	4605                	li	a2,1
    29a8:	4581                	li	a1,0
    29aa:	4501                	li	a0,0
    29ac:	57a010ef          	jal	ra,3f26 <spi_init>
C:\Users\windows\Desktop\smart_car\MASTER\obj/../Libraries/seekfree_peripheral/SEEKFREE_IPS114_SPI.c:101

    gpio_init(IPS114_BL_PIN, GPO, 1, GPIO_PIN_CONFIG);
    29b0:	31000693          	li	a3,784
    29b4:	4605                	li	a2,1
    29b6:	4585                	li	a1,1
    29b8:	08000513          	li	a0,128
    29bc:	2955                	jal	2e70 <gpio_init>
C:\Users\windows\Desktop\smart_car\MASTER\obj/../Libraries/seekfree_peripheral/SEEKFREE_IPS114_SPI.c:102
    gpio_init(IPS114_DC_PIN, GPO, 0, GPIO_PIN_CONFIG);
    29be:	31000693          	li	a3,784
    29c2:	4601                	li	a2,0
    29c4:	4585                	li	a1,1
    29c6:	04e00513          	li	a0,78
    29ca:	215d                	jal	2e70 <gpio_init>
C:\Users\windows\Desktop\smart_car\MASTER\obj/../Libraries/seekfree_peripheral/SEEKFREE_IPS114_SPI.c:103
    gpio_init(IPS114_REST_PIN, GPO, 0, GPIO_PIN_CONFIG);
    29cc:	31000693          	li	a3,784
    29d0:	4601                	li	a2,0
    29d2:	4585                	li	a1,1
    29d4:	04d00513          	li	a0,77
    29d8:	2961                	jal	2e70 <gpio_init>
C:\Users\windows\Desktop\smart_car\MASTER\obj/../Libraries/seekfree_peripheral/SEEKFREE_IPS114_SPI.c:105

    IPS114_REST(0);
    29da:	679d                	lui	a5,0x7
    29dc:	b0c78793          	addi	a5,a5,-1268 # 6b0c <GPION>
    29e0:	479c                	lw	a5,8(a5)
    29e2:	873e                	mv	a4,a5
    29e4:	6789                	lui	a5,0x2
    29e6:	cb5c                	sw	a5,20(a4)
C:\Users\windows\Desktop\smart_car\MASTER\obj/../Libraries/seekfree_peripheral/SEEKFREE_IPS114_SPI.c:106
    systick_delay_ms(200);
    29e8:	8441a703          	lw	a4,-1980(gp) # 200000b4 <sys_clk>
    29ec:	6789                	lui	a5,0x2
    29ee:	f4078793          	addi	a5,a5,-192 # 1f40 <TIM_EncoderInterfaceConfig+0x1a>
    29f2:	02f75733          	divu	a4,a4,a5
    29f6:	0c800793          	li	a5,200
    29fa:	02f707b3          	mul	a5,a4,a5
    29fe:	8c3e                	mv	s8,a5
    2a00:	4c81                	li	s9,0
    2a02:	8562                	mv	a0,s8
    2a04:	85e6                	mv	a1,s9
    2a06:	718010ef          	jal	ra,411e <systick_delay>
C:\Users\windows\Desktop\smart_car\MASTER\obj/../Libraries/seekfree_peripheral/SEEKFREE_IPS114_SPI.c:108
    
    IPS114_REST(1);
    2a0a:	679d                	lui	a5,0x7
    2a0c:	b0c78793          	addi	a5,a5,-1268 # 6b0c <GPION>
    2a10:	479c                	lw	a5,8(a5)
    2a12:	873e                	mv	a4,a5
    2a14:	6789                	lui	a5,0x2
    2a16:	cb1c                	sw	a5,16(a4)
C:\Users\windows\Desktop\smart_car\MASTER\obj/../Libraries/seekfree_peripheral/SEEKFREE_IPS114_SPI.c:109
    systick_delay_ms(100);
    2a18:	8441a703          	lw	a4,-1980(gp) # 200000b4 <sys_clk>
    2a1c:	6789                	lui	a5,0x2
    2a1e:	f4078793          	addi	a5,a5,-192 # 1f40 <TIM_EncoderInterfaceConfig+0x1a>
    2a22:	02f75733          	divu	a4,a4,a5
    2a26:	06400793          	li	a5,100
    2a2a:	02f707b3          	mul	a5,a4,a5
    2a2e:	8b3e                	mv	s6,a5
    2a30:	4b81                	li	s7,0
    2a32:	855a                	mv	a0,s6
    2a34:	85de                	mv	a1,s7
    2a36:	6e8010ef          	jal	ra,411e <systick_delay>
C:\Users\windows\Desktop\smart_car\MASTER\obj/../Libraries/seekfree_peripheral/SEEKFREE_IPS114_SPI.c:111
	
    ips114_writeIndex(0x36);
    2a3a:	03600513          	li	a0,54
    2a3e:	3d05                	jal	286e <ips114_writeIndex>
C:\Users\windows\Desktop\smart_car\MASTER\obj/../Libraries/seekfree_peripheral/SEEKFREE_IPS114_SPI.c:112
    systick_delay_ms(100);
    2a40:	8441a703          	lw	a4,-1980(gp) # 200000b4 <sys_clk>
    2a44:	6789                	lui	a5,0x2
    2a46:	f4078793          	addi	a5,a5,-192 # 1f40 <TIM_EncoderInterfaceConfig+0x1a>
    2a4a:	02f75733          	divu	a4,a4,a5
    2a4e:	06400793          	li	a5,100
    2a52:	02f707b3          	mul	a5,a4,a5
    2a56:	8a3e                	mv	s4,a5
    2a58:	4a81                	li	s5,0
    2a5a:	8552                	mv	a0,s4
    2a5c:	85d6                	mv	a1,s5
    2a5e:	6c0010ef          	jal	ra,411e <systick_delay>
C:\Users\windows\Desktop\smart_car\MASTER\obj/../Libraries/seekfree_peripheral/SEEKFREE_IPS114_SPI.c:115
    if      (IPS114_DISPLAY_DIR==0)    ips114_writeData(0x00);
    else if (IPS114_DISPLAY_DIR==1)    ips114_writeData(0xC0);
    else if (IPS114_DISPLAY_DIR==2)    ips114_writeData(0x70);
    2a62:	07000513          	li	a0,112
    2a66:	3da9                	jal	28c0 <ips114_writeData>
C:\Users\windows\Desktop\smart_car\MASTER\obj/../Libraries/seekfree_peripheral/SEEKFREE_IPS114_SPI.c:118
    else                            ips114_writeData(0xA0);
    
    ips114_writeIndex(0x3A); 
    2a68:	03a00513          	li	a0,58
    2a6c:	3509                	jal	286e <ips114_writeIndex>
C:\Users\windows\Desktop\smart_car\MASTER\obj/../Libraries/seekfree_peripheral/SEEKFREE_IPS114_SPI.c:119
    ips114_writeData(0x05);
    2a6e:	4515                	li	a0,5
    2a70:	3d81                	jal	28c0 <ips114_writeData>
C:\Users\windows\Desktop\smart_car\MASTER\obj/../Libraries/seekfree_peripheral/SEEKFREE_IPS114_SPI.c:121

    ips114_writeIndex(0xB2);
    2a72:	0b200513          	li	a0,178
    2a76:	3be5                	jal	286e <ips114_writeIndex>
C:\Users\windows\Desktop\smart_car\MASTER\obj/../Libraries/seekfree_peripheral/SEEKFREE_IPS114_SPI.c:122
    ips114_writeData(0x0C);
    2a78:	4531                	li	a0,12
    2a7a:	3599                	jal	28c0 <ips114_writeData>
C:\Users\windows\Desktop\smart_car\MASTER\obj/../Libraries/seekfree_peripheral/SEEKFREE_IPS114_SPI.c:123
    ips114_writeData(0x0C);
    2a7c:	4531                	li	a0,12
    2a7e:	3589                	jal	28c0 <ips114_writeData>
C:\Users\windows\Desktop\smart_car\MASTER\obj/../Libraries/seekfree_peripheral/SEEKFREE_IPS114_SPI.c:124
    ips114_writeData(0x00);
    2a80:	4501                	li	a0,0
    2a82:	3d3d                	jal	28c0 <ips114_writeData>
C:\Users\windows\Desktop\smart_car\MASTER\obj/../Libraries/seekfree_peripheral/SEEKFREE_IPS114_SPI.c:125
    ips114_writeData(0x33);
    2a84:	03300513          	li	a0,51
    2a88:	3d25                	jal	28c0 <ips114_writeData>
C:\Users\windows\Desktop\smart_car\MASTER\obj/../Libraries/seekfree_peripheral/SEEKFREE_IPS114_SPI.c:126
    ips114_writeData(0x33); 
    2a8a:	03300513          	li	a0,51
    2a8e:	3d0d                	jal	28c0 <ips114_writeData>
C:\Users\windows\Desktop\smart_car\MASTER\obj/../Libraries/seekfree_peripheral/SEEKFREE_IPS114_SPI.c:128

    ips114_writeIndex(0xB7); 
    2a90:	0b700513          	li	a0,183
    2a94:	3be9                	jal	286e <ips114_writeIndex>
C:\Users\windows\Desktop\smart_car\MASTER\obj/../Libraries/seekfree_peripheral/SEEKFREE_IPS114_SPI.c:129
    ips114_writeData(0x35);  
    2a96:	03500513          	li	a0,53
    2a9a:	351d                	jal	28c0 <ips114_writeData>
C:\Users\windows\Desktop\smart_car\MASTER\obj/../Libraries/seekfree_peripheral/SEEKFREE_IPS114_SPI.c:131

    ips114_writeIndex(0xBB);
    2a9c:	0bb00513          	li	a0,187
    2aa0:	33f9                	jal	286e <ips114_writeIndex>
C:\Users\windows\Desktop\smart_car\MASTER\obj/../Libraries/seekfree_peripheral/SEEKFREE_IPS114_SPI.c:132
    ips114_writeData(0x37);
    2aa2:	03700513          	li	a0,55
    2aa6:	3d29                	jal	28c0 <ips114_writeData>
C:\Users\windows\Desktop\smart_car\MASTER\obj/../Libraries/seekfree_peripheral/SEEKFREE_IPS114_SPI.c:134

    ips114_writeIndex(0xC0);
    2aa8:	0c000513          	li	a0,192
    2aac:	33c9                	jal	286e <ips114_writeIndex>
C:\Users\windows\Desktop\smart_car\MASTER\obj/../Libraries/seekfree_peripheral/SEEKFREE_IPS114_SPI.c:135
    ips114_writeData(0x2C);
    2aae:	02c00513          	li	a0,44
    2ab2:	3539                	jal	28c0 <ips114_writeData>
C:\Users\windows\Desktop\smart_car\MASTER\obj/../Libraries/seekfree_peripheral/SEEKFREE_IPS114_SPI.c:137

    ips114_writeIndex(0xC2);
    2ab4:	0c200513          	li	a0,194
    2ab8:	3b5d                	jal	286e <ips114_writeIndex>
C:\Users\windows\Desktop\smart_car\MASTER\obj/../Libraries/seekfree_peripheral/SEEKFREE_IPS114_SPI.c:138
    ips114_writeData(0x01);
    2aba:	4505                	li	a0,1
    2abc:	3511                	jal	28c0 <ips114_writeData>
C:\Users\windows\Desktop\smart_car\MASTER\obj/../Libraries/seekfree_peripheral/SEEKFREE_IPS114_SPI.c:140

    ips114_writeIndex(0xC3);
    2abe:	0c300513          	li	a0,195
    2ac2:	3375                	jal	286e <ips114_writeIndex>
C:\Users\windows\Desktop\smart_car\MASTER\obj/../Libraries/seekfree_peripheral/SEEKFREE_IPS114_SPI.c:141
    ips114_writeData(0x12);   
    2ac4:	4549                	li	a0,18
    2ac6:	3bed                	jal	28c0 <ips114_writeData>
C:\Users\windows\Desktop\smart_car\MASTER\obj/../Libraries/seekfree_peripheral/SEEKFREE_IPS114_SPI.c:143

    ips114_writeIndex(0xC4);
    2ac8:	0c400513          	li	a0,196
    2acc:	334d                	jal	286e <ips114_writeIndex>
C:\Users\windows\Desktop\smart_car\MASTER\obj/../Libraries/seekfree_peripheral/SEEKFREE_IPS114_SPI.c:144
    ips114_writeData(0x20);  
    2ace:	02000513          	li	a0,32
    2ad2:	33fd                	jal	28c0 <ips114_writeData>
C:\Users\windows\Desktop\smart_car\MASTER\obj/../Libraries/seekfree_peripheral/SEEKFREE_IPS114_SPI.c:146

    ips114_writeIndex(0xC6); 
    2ad4:	0c600513          	li	a0,198
    2ad8:	3b59                	jal	286e <ips114_writeIndex>
C:\Users\windows\Desktop\smart_car\MASTER\obj/../Libraries/seekfree_peripheral/SEEKFREE_IPS114_SPI.c:147
    ips114_writeData(0x0F);    
    2ada:	453d                	li	a0,15
    2adc:	33d5                	jal	28c0 <ips114_writeData>
C:\Users\windows\Desktop\smart_car\MASTER\obj/../Libraries/seekfree_peripheral/SEEKFREE_IPS114_SPI.c:149

    ips114_writeIndex(0xD0); 
    2ade:	0d000513          	li	a0,208
    2ae2:	3371                	jal	286e <ips114_writeIndex>
C:\Users\windows\Desktop\smart_car\MASTER\obj/../Libraries/seekfree_peripheral/SEEKFREE_IPS114_SPI.c:150
    ips114_writeData(0xA4);
    2ae4:	0a400513          	li	a0,164
    2ae8:	3be1                	jal	28c0 <ips114_writeData>
C:\Users\windows\Desktop\smart_car\MASTER\obj/../Libraries/seekfree_peripheral/SEEKFREE_IPS114_SPI.c:151
    ips114_writeData(0xA1);
    2aea:	0a100513          	li	a0,161
    2aee:	3bc9                	jal	28c0 <ips114_writeData>
C:\Users\windows\Desktop\smart_car\MASTER\obj/../Libraries/seekfree_peripheral/SEEKFREE_IPS114_SPI.c:153

    ips114_writeIndex(0xE0);
    2af0:	0e000513          	li	a0,224
    2af4:	3bad                	jal	286e <ips114_writeIndex>
C:\Users\windows\Desktop\smart_car\MASTER\obj/../Libraries/seekfree_peripheral/SEEKFREE_IPS114_SPI.c:154
    ips114_writeData(0xD0);
    2af6:	0d000513          	li	a0,208
    2afa:	33d9                	jal	28c0 <ips114_writeData>
C:\Users\windows\Desktop\smart_car\MASTER\obj/../Libraries/seekfree_peripheral/SEEKFREE_IPS114_SPI.c:155
    ips114_writeData(0x04);
    2afc:	4511                	li	a0,4
    2afe:	33c9                	jal	28c0 <ips114_writeData>
C:\Users\windows\Desktop\smart_car\MASTER\obj/../Libraries/seekfree_peripheral/SEEKFREE_IPS114_SPI.c:156
    ips114_writeData(0x0D);
    2b00:	4535                	li	a0,13
    2b02:	3b7d                	jal	28c0 <ips114_writeData>
C:\Users\windows\Desktop\smart_car\MASTER\obj/../Libraries/seekfree_peripheral/SEEKFREE_IPS114_SPI.c:157
    ips114_writeData(0x11);
    2b04:	4545                	li	a0,17
    2b06:	3b6d                	jal	28c0 <ips114_writeData>
C:\Users\windows\Desktop\smart_car\MASTER\obj/../Libraries/seekfree_peripheral/SEEKFREE_IPS114_SPI.c:158
    ips114_writeData(0x13);
    2b08:	454d                	li	a0,19
    2b0a:	3b5d                	jal	28c0 <ips114_writeData>
C:\Users\windows\Desktop\smart_car\MASTER\obj/../Libraries/seekfree_peripheral/SEEKFREE_IPS114_SPI.c:159
    ips114_writeData(0x2B);
    2b0c:	02b00513          	li	a0,43
    2b10:	3b45                	jal	28c0 <ips114_writeData>
C:\Users\windows\Desktop\smart_car\MASTER\obj/../Libraries/seekfree_peripheral/SEEKFREE_IPS114_SPI.c:160
    ips114_writeData(0x3F);
    2b12:	03f00513          	li	a0,63
    2b16:	336d                	jal	28c0 <ips114_writeData>
C:\Users\windows\Desktop\smart_car\MASTER\obj/../Libraries/seekfree_peripheral/SEEKFREE_IPS114_SPI.c:161
    ips114_writeData(0x54);
    2b18:	05400513          	li	a0,84
    2b1c:	3355                	jal	28c0 <ips114_writeData>
C:\Users\windows\Desktop\smart_car\MASTER\obj/../Libraries/seekfree_peripheral/SEEKFREE_IPS114_SPI.c:162
    ips114_writeData(0x4C);
    2b1e:	04c00513          	li	a0,76
    2b22:	3b79                	jal	28c0 <ips114_writeData>
C:\Users\windows\Desktop\smart_car\MASTER\obj/../Libraries/seekfree_peripheral/SEEKFREE_IPS114_SPI.c:163
    ips114_writeData(0x18);
    2b24:	4561                	li	a0,24
    2b26:	3b69                	jal	28c0 <ips114_writeData>
C:\Users\windows\Desktop\smart_car\MASTER\obj/../Libraries/seekfree_peripheral/SEEKFREE_IPS114_SPI.c:164
    ips114_writeData(0x0D);
    2b28:	4535                	li	a0,13
    2b2a:	3b59                	jal	28c0 <ips114_writeData>
C:\Users\windows\Desktop\smart_car\MASTER\obj/../Libraries/seekfree_peripheral/SEEKFREE_IPS114_SPI.c:165
    ips114_writeData(0x0B);
    2b2c:	452d                	li	a0,11
    2b2e:	3b49                	jal	28c0 <ips114_writeData>
C:\Users\windows\Desktop\smart_car\MASTER\obj/../Libraries/seekfree_peripheral/SEEKFREE_IPS114_SPI.c:166
    ips114_writeData(0x1F);
    2b30:	457d                	li	a0,31
    2b32:	3379                	jal	28c0 <ips114_writeData>
C:\Users\windows\Desktop\smart_car\MASTER\obj/../Libraries/seekfree_peripheral/SEEKFREE_IPS114_SPI.c:167
    ips114_writeData(0x23);
    2b34:	02300513          	li	a0,35
    2b38:	3361                	jal	28c0 <ips114_writeData>
C:\Users\windows\Desktop\smart_car\MASTER\obj/../Libraries/seekfree_peripheral/SEEKFREE_IPS114_SPI.c:169

    ips114_writeIndex(0xE1);
    2b3a:	0e100513          	li	a0,225
    2b3e:	3b05                	jal	286e <ips114_writeIndex>
C:\Users\windows\Desktop\smart_car\MASTER\obj/../Libraries/seekfree_peripheral/SEEKFREE_IPS114_SPI.c:170
    ips114_writeData(0xD0);
    2b40:	0d000513          	li	a0,208
    2b44:	3bb5                	jal	28c0 <ips114_writeData>
C:\Users\windows\Desktop\smart_car\MASTER\obj/../Libraries/seekfree_peripheral/SEEKFREE_IPS114_SPI.c:171
    ips114_writeData(0x04);
    2b46:	4511                	li	a0,4
    2b48:	3ba5                	jal	28c0 <ips114_writeData>
C:\Users\windows\Desktop\smart_car\MASTER\obj/../Libraries/seekfree_peripheral/SEEKFREE_IPS114_SPI.c:172
    ips114_writeData(0x0C);
    2b4a:	4531                	li	a0,12
    2b4c:	3b95                	jal	28c0 <ips114_writeData>
C:\Users\windows\Desktop\smart_car\MASTER\obj/../Libraries/seekfree_peripheral/SEEKFREE_IPS114_SPI.c:173
    ips114_writeData(0x11);
    2b4e:	4545                	li	a0,17
    2b50:	3b85                	jal	28c0 <ips114_writeData>
C:\Users\windows\Desktop\smart_car\MASTER\obj/../Libraries/seekfree_peripheral/SEEKFREE_IPS114_SPI.c:174
    ips114_writeData(0x13);
    2b52:	454d                	li	a0,19
    2b54:	33b5                	jal	28c0 <ips114_writeData>
C:\Users\windows\Desktop\smart_car\MASTER\obj/../Libraries/seekfree_peripheral/SEEKFREE_IPS114_SPI.c:175
    ips114_writeData(0x2C);
    2b56:	02c00513          	li	a0,44
    2b5a:	339d                	jal	28c0 <ips114_writeData>
C:\Users\windows\Desktop\smart_car\MASTER\obj/../Libraries/seekfree_peripheral/SEEKFREE_IPS114_SPI.c:176
    ips114_writeData(0x3F);
    2b5c:	03f00513          	li	a0,63
    2b60:	3385                	jal	28c0 <ips114_writeData>
C:\Users\windows\Desktop\smart_car\MASTER\obj/../Libraries/seekfree_peripheral/SEEKFREE_IPS114_SPI.c:177
    ips114_writeData(0x44);
    2b62:	04400513          	li	a0,68
    2b66:	3ba9                	jal	28c0 <ips114_writeData>
C:\Users\windows\Desktop\smart_car\MASTER\obj/../Libraries/seekfree_peripheral/SEEKFREE_IPS114_SPI.c:178
    ips114_writeData(0x51);
    2b68:	05100513          	li	a0,81
    2b6c:	3b91                	jal	28c0 <ips114_writeData>
C:\Users\windows\Desktop\smart_car\MASTER\obj/../Libraries/seekfree_peripheral/SEEKFREE_IPS114_SPI.c:179
    ips114_writeData(0x2F);
    2b6e:	02f00513          	li	a0,47
    2b72:	33b9                	jal	28c0 <ips114_writeData>
C:\Users\windows\Desktop\smart_car\MASTER\obj/../Libraries/seekfree_peripheral/SEEKFREE_IPS114_SPI.c:180
    ips114_writeData(0x1F);
    2b74:	457d                	li	a0,31
    2b76:	33a9                	jal	28c0 <ips114_writeData>
C:\Users\windows\Desktop\smart_car\MASTER\obj/../Libraries/seekfree_peripheral/SEEKFREE_IPS114_SPI.c:181
    ips114_writeData(0x1F);
    2b78:	457d                	li	a0,31
    2b7a:	3399                	jal	28c0 <ips114_writeData>
C:\Users\windows\Desktop\smart_car\MASTER\obj/../Libraries/seekfree_peripheral/SEEKFREE_IPS114_SPI.c:182
    ips114_writeData(0x20);
    2b7c:	02000513          	li	a0,32
    2b80:	3381                	jal	28c0 <ips114_writeData>
C:\Users\windows\Desktop\smart_car\MASTER\obj/../Libraries/seekfree_peripheral/SEEKFREE_IPS114_SPI.c:183
    ips114_writeData(0x23);
    2b82:	02300513          	li	a0,35
    2b86:	3b2d                	jal	28c0 <ips114_writeData>
C:\Users\windows\Desktop\smart_car\MASTER\obj/../Libraries/seekfree_peripheral/SEEKFREE_IPS114_SPI.c:185

    ips114_writeIndex(0x21); 
    2b88:	02100513          	li	a0,33
    2b8c:	31cd                	jal	286e <ips114_writeIndex>
C:\Users\windows\Desktop\smart_car\MASTER\obj/../Libraries/seekfree_peripheral/SEEKFREE_IPS114_SPI.c:187

    ips114_writeIndex(0x11); 
    2b8e:	4545                	li	a0,17
    2b90:	39f9                	jal	286e <ips114_writeIndex>
C:\Users\windows\Desktop\smart_car\MASTER\obj/../Libraries/seekfree_peripheral/SEEKFREE_IPS114_SPI.c:188
    systick_delay_ms(120); 
    2b92:	8441a703          	lw	a4,-1980(gp) # 200000b4 <sys_clk>
    2b96:	6789                	lui	a5,0x2
    2b98:	f4078793          	addi	a5,a5,-192 # 1f40 <TIM_EncoderInterfaceConfig+0x1a>
    2b9c:	02f75733          	divu	a4,a4,a5
    2ba0:	87ba                	mv	a5,a4
    2ba2:	0792                	slli	a5,a5,0x4
    2ba4:	8f99                	sub	a5,a5,a4
    2ba6:	078e                	slli	a5,a5,0x3
    2ba8:	893e                	mv	s2,a5
    2baa:	4981                	li	s3,0
    2bac:	854a                	mv	a0,s2
    2bae:	85ce                	mv	a1,s3
    2bb0:	56e010ef          	jal	ra,411e <systick_delay>
C:\Users\windows\Desktop\smart_car\MASTER\obj/../Libraries/seekfree_peripheral/SEEKFREE_IPS114_SPI.c:190

    ips114_writeIndex(0x29);
    2bb4:	02900513          	li	a0,41
    2bb8:	395d                	jal	286e <ips114_writeIndex>
C:\Users\windows\Desktop\smart_car\MASTER\obj/../Libraries/seekfree_peripheral/SEEKFREE_IPS114_SPI.c:191
    ips114_clear(IPS114_BGCOLOR);
    2bba:	67c1                	lui	a5,0x10
    2bbc:	fff78513          	addi	a0,a5,-1 # ffff <_data_lma+0x9297>
    2bc0:	2045                	jal	2c60 <ips114_clear>
C:\Users\windows\Desktop\smart_car\MASTER\obj/../Libraries/seekfree_peripheral/SEEKFREE_IPS114_SPI.c:192
}
    2bc2:	0001                	nop
    2bc4:	50b2                	lw	ra,44(sp)
    2bc6:	5422                	lw	s0,40(sp)
    2bc8:	5912                	lw	s2,36(sp)
    2bca:	5982                	lw	s3,32(sp)
    2bcc:	4a72                	lw	s4,28(sp)
    2bce:	4ae2                	lw	s5,24(sp)
    2bd0:	4b52                	lw	s6,20(sp)
    2bd2:	4bc2                	lw	s7,16(sp)
    2bd4:	4c32                	lw	s8,12(sp)
    2bd6:	4ca2                	lw	s9,8(sp)
    2bd8:	6145                	addi	sp,sp,48
    2bda:	8082                	ret

00002bdc <ips114_set_region>:
ips114_set_region():
C:\Users\windows\Desktop\smart_car\MASTER\obj/../Libraries/seekfree_peripheral/SEEKFREE_IPS114_SPI.c:197



void ips114_set_region(uint16 x1,uint16 y1,uint16 x2,uint16 y2)
{
    2bdc:	1101                	addi	sp,sp,-32
    2bde:	ce06                	sw	ra,28(sp)
    2be0:	cc22                	sw	s0,24(sp)
    2be2:	1000                	addi	s0,sp,32
    2be4:	87aa                	mv	a5,a0
    2be6:	8736                	mv	a4,a3
    2be8:	fef41723          	sh	a5,-18(s0)
    2bec:	87ae                	mv	a5,a1
    2bee:	fef41623          	sh	a5,-20(s0)
    2bf2:	87b2                	mv	a5,a2
    2bf4:	fef41523          	sh	a5,-22(s0)
    2bf8:	87ba                	mv	a5,a4
    2bfa:	fef41423          	sh	a5,-24(s0)
C:\Users\windows\Desktop\smart_car\MASTER\obj/../Libraries/seekfree_peripheral/SEEKFREE_IPS114_SPI.c:220
		ips114_writedata_16bit(y2+40);
		ips114_writeIndex(0x2c);//储存器写
	}
	else if(IPS114_DISPLAY_DIR==2)
	{
		ips114_writeIndex(0x2a);//列地址设置
    2bfe:	02a00513          	li	a0,42
    2c02:	c6dff0ef          	jal	ra,286e <ips114_writeIndex>
C:\Users\windows\Desktop\smart_car\MASTER\obj/../Libraries/seekfree_peripheral/SEEKFREE_IPS114_SPI.c:221
		ips114_writedata_16bit(x1+40);
    2c06:	fee45783          	lhu	a5,-18(s0)
    2c0a:	02878793          	addi	a5,a5,40
    2c0e:	07c2                	slli	a5,a5,0x10
    2c10:	83c1                	srli	a5,a5,0x10
    2c12:	853e                	mv	a0,a5
    2c14:	39fd                	jal	2912 <ips114_writedata_16bit>
C:\Users\windows\Desktop\smart_car\MASTER\obj/../Libraries/seekfree_peripheral/SEEKFREE_IPS114_SPI.c:222
		ips114_writedata_16bit(x2+40);
    2c16:	fea45783          	lhu	a5,-22(s0)
    2c1a:	02878793          	addi	a5,a5,40
    2c1e:	07c2                	slli	a5,a5,0x10
    2c20:	83c1                	srli	a5,a5,0x10
    2c22:	853e                	mv	a0,a5
    2c24:	31fd                	jal	2912 <ips114_writedata_16bit>
C:\Users\windows\Desktop\smart_car\MASTER\obj/../Libraries/seekfree_peripheral/SEEKFREE_IPS114_SPI.c:223
		ips114_writeIndex(0x2b);//行地址设置
    2c26:	02b00513          	li	a0,43
    2c2a:	c45ff0ef          	jal	ra,286e <ips114_writeIndex>
C:\Users\windows\Desktop\smart_car\MASTER\obj/../Libraries/seekfree_peripheral/SEEKFREE_IPS114_SPI.c:224
		ips114_writedata_16bit(y1+53);
    2c2e:	fec45783          	lhu	a5,-20(s0)
    2c32:	03578793          	addi	a5,a5,53
    2c36:	07c2                	slli	a5,a5,0x10
    2c38:	83c1                	srli	a5,a5,0x10
    2c3a:	853e                	mv	a0,a5
    2c3c:	39d9                	jal	2912 <ips114_writedata_16bit>
C:\Users\windows\Desktop\smart_car\MASTER\obj/../Libraries/seekfree_peripheral/SEEKFREE_IPS114_SPI.c:225
		ips114_writedata_16bit(y2+53);
    2c3e:	fe845783          	lhu	a5,-24(s0)
    2c42:	03578793          	addi	a5,a5,53
    2c46:	07c2                	slli	a5,a5,0x10
    2c48:	83c1                	srli	a5,a5,0x10
    2c4a:	853e                	mv	a0,a5
    2c4c:	31d9                	jal	2912 <ips114_writedata_16bit>
C:\Users\windows\Desktop\smart_car\MASTER\obj/../Libraries/seekfree_peripheral/SEEKFREE_IPS114_SPI.c:226
		ips114_writeIndex(0x2c);//储存器写
    2c4e:	02c00513          	li	a0,44
    2c52:	c1dff0ef          	jal	ra,286e <ips114_writeIndex>
C:\Users\windows\Desktop\smart_car\MASTER\obj/../Libraries/seekfree_peripheral/SEEKFREE_IPS114_SPI.c:238
		ips114_writeIndex(0x2b);//行地址设置
		ips114_writedata_16bit(y1+52);
		ips114_writedata_16bit(y2+52);
		ips114_writeIndex(0x2c);//储存器写
	}
}
    2c56:	0001                	nop
    2c58:	40f2                	lw	ra,28(sp)
    2c5a:	4462                	lw	s0,24(sp)
    2c5c:	6105                	addi	sp,sp,32
    2c5e:	8082                	ret

00002c60 <ips114_clear>:
ips114_clear():
C:\Users\windows\Desktop\smart_car\MASTER\obj/../Libraries/seekfree_peripheral/SEEKFREE_IPS114_SPI.c:248
//  @return     void
//  @since      v1.0
//  Sample usage:               ips114_clear(YELLOW);// 全屏设置为黄色
//-------------------------------------------------------------------------------------------------------------------
void ips114_clear(uint16 color)
{
    2c60:	7179                	addi	sp,sp,-48
    2c62:	d606                	sw	ra,44(sp)
    2c64:	d422                	sw	s0,40(sp)
    2c66:	1800                	addi	s0,sp,48
    2c68:	87aa                	mv	a5,a0
    2c6a:	fcf41f23          	sh	a5,-34(s0)
C:\Users\windows\Desktop\smart_car\MASTER\obj/../Libraries/seekfree_peripheral/SEEKFREE_IPS114_SPI.c:250
    uint16 i,j;
	ips114_set_region(0,0,IPS114_X_MAX-1,IPS114_Y_MAX-1);
    2c6e:	08600693          	li	a3,134
    2c72:	0ef00613          	li	a2,239
    2c76:	4581                	li	a1,0
    2c78:	4501                	li	a0,0
    2c7a:	378d                	jal	2bdc <ips114_set_region>
C:\Users\windows\Desktop\smart_car\MASTER\obj/../Libraries/seekfree_peripheral/SEEKFREE_IPS114_SPI.c:251
    for(i=0;i<IPS114_X_MAX;i++)
    2c7c:	fe041723          	sh	zero,-18(s0)
    2c80:	a80d                	j	2cb2 <ips114_clear+0x52>
C:\Users\windows\Desktop\smart_car\MASTER\obj/../Libraries/seekfree_peripheral/SEEKFREE_IPS114_SPI.c:253
    {
        for (j=0;j<IPS114_Y_MAX;j++)
    2c82:	fe041623          	sh	zero,-20(s0)
    2c86:	a819                	j	2c9c <ips114_clear+0x3c>
C:\Users\windows\Desktop\smart_car\MASTER\obj/../Libraries/seekfree_peripheral/SEEKFREE_IPS114_SPI.c:255 (discriminator 3)
	   	{
        	ips114_writedata_16bit(color);	 			 
    2c88:	fde45783          	lhu	a5,-34(s0)
    2c8c:	853e                	mv	a0,a5
    2c8e:	c85ff0ef          	jal	ra,2912 <ips114_writedata_16bit>
C:\Users\windows\Desktop\smart_car\MASTER\obj/../Libraries/seekfree_peripheral/SEEKFREE_IPS114_SPI.c:253 (discriminator 3)
        for (j=0;j<IPS114_Y_MAX;j++)
    2c92:	fec45783          	lhu	a5,-20(s0)
    2c96:	0785                	addi	a5,a5,1
    2c98:	fef41623          	sh	a5,-20(s0)
C:\Users\windows\Desktop\smart_car\MASTER\obj/../Libraries/seekfree_peripheral/SEEKFREE_IPS114_SPI.c:253 (discriminator 1)
    2c9c:	fec45703          	lhu	a4,-20(s0)
    2ca0:	08600793          	li	a5,134
    2ca4:	fee7f2e3          	bgeu	a5,a4,2c88 <ips114_clear+0x28>
C:\Users\windows\Desktop\smart_car\MASTER\obj/../Libraries/seekfree_peripheral/SEEKFREE_IPS114_SPI.c:251 (discriminator 2)
    for(i=0;i<IPS114_X_MAX;i++)
    2ca8:	fee45783          	lhu	a5,-18(s0)
    2cac:	0785                	addi	a5,a5,1
    2cae:	fef41723          	sh	a5,-18(s0)
C:\Users\windows\Desktop\smart_car\MASTER\obj/../Libraries/seekfree_peripheral/SEEKFREE_IPS114_SPI.c:251 (discriminator 1)
    2cb2:	fee45703          	lhu	a4,-18(s0)
    2cb6:	0ef00793          	li	a5,239
    2cba:	fce7f4e3          	bgeu	a5,a4,2c82 <ips114_clear+0x22>
C:\Users\windows\Desktop\smart_car\MASTER\obj/../Libraries/seekfree_peripheral/SEEKFREE_IPS114_SPI.c:258
	    }
    }
}
    2cbe:	0001                	nop
    2cc0:	50b2                	lw	ra,44(sp)
    2cc2:	5422                	lw	s0,40(sp)
    2cc4:	6145                	addi	sp,sp,48
    2cc6:	8082                	ret

00002cc8 <mt9v03x_uart_callback>:
mt9v03x_uart_callback():
C:\Users\windows\Desktop\smart_car\MASTER\obj/../Libraries/seekfree_peripheral/SEEKFREE_MT9V03X.c:90
//  @since      v1.0
//  Sample usage:
//  @note       
//-------------------------------------------------------------------------------------------------------------------
void mt9v03x_uart_callback(void)
{
    2cc8:	1141                	addi	sp,sp,-16
    2cca:	c622                	sw	s0,12(sp)
    2ccc:	0800                	addi	s0,sp,16
C:\Users\windows\Desktop\smart_car\MASTER\obj/../Libraries/seekfree_peripheral/SEEKFREE_MT9V03X.c:91
    receive[receive_num] = ((USART_TypeDef*)UARTN[MT9V03X_COF_UART])->DATAR & 0x01FF;;
    2cce:	679d                	lui	a5,0x7
    2cd0:	b3c78793          	addi	a5,a5,-1220 # 6b3c <UARTN>
    2cd4:	43dc                	lw	a5,4(a5)
    2cd6:	0047d783          	lhu	a5,4(a5)
    2cda:	01079713          	slli	a4,a5,0x10
    2cde:	8341                	srli	a4,a4,0x10
    2ce0:	8371c783          	lbu	a5,-1993(gp) # 200000a7 <receive_num>
    2ce4:	86be                	mv	a3,a5
    2ce6:	0ff77713          	andi	a4,a4,255
    2cea:	83418793          	addi	a5,gp,-1996 # 200000a4 <receive>
    2cee:	97b6                	add	a5,a5,a3
    2cf0:	00e78023          	sb	a4,0(a5)
C:\Users\windows\Desktop\smart_car\MASTER\obj/../Libraries/seekfree_peripheral/SEEKFREE_MT9V03X.c:92
    receive_num++;
    2cf4:	8371c783          	lbu	a5,-1993(gp) # 200000a7 <receive_num>
    2cf8:	0785                	addi	a5,a5,1
    2cfa:	0ff7f713          	andi	a4,a5,255
    2cfe:	82e18ba3          	sb	a4,-1993(gp) # 200000a7 <receive_num>
C:\Users\windows\Desktop\smart_car\MASTER\obj/../Libraries/seekfree_peripheral/SEEKFREE_MT9V03X.c:94

    if(1==receive_num && 0XA5!=receive[0])  receive_num = 0;
    2d02:	8371c703          	lbu	a4,-1993(gp) # 200000a7 <receive_num>
    2d06:	4785                	li	a5,1
    2d08:	00f71a63          	bne	a4,a5,2d1c <mt9v03x_uart_callback+0x54>
C:\Users\windows\Desktop\smart_car\MASTER\obj/../Libraries/seekfree_peripheral/SEEKFREE_MT9V03X.c:94 (discriminator 1)
    2d0c:	8341c703          	lbu	a4,-1996(gp) # 200000a4 <receive>
    2d10:	0a500793          	li	a5,165
    2d14:	00f70463          	beq	a4,a5,2d1c <mt9v03x_uart_callback+0x54>
C:\Users\windows\Desktop\smart_car\MASTER\obj/../Libraries/seekfree_peripheral/SEEKFREE_MT9V03X.c:94 (discriminator 2)
    2d18:	82018ba3          	sb	zero,-1993(gp) # 200000a7 <receive_num>
C:\Users\windows\Desktop\smart_car\MASTER\obj/../Libraries/seekfree_peripheral/SEEKFREE_MT9V03X.c:95
    if(3 == receive_num)
    2d1c:	8371c703          	lbu	a4,-1993(gp) # 200000a7 <receive_num>
    2d20:	478d                	li	a5,3
    2d22:	00f71763          	bne	a4,a5,2d30 <mt9v03x_uart_callback+0x68>
C:\Users\windows\Desktop\smart_car\MASTER\obj/../Libraries/seekfree_peripheral/SEEKFREE_MT9V03X.c:97
    {
        receive_num = 0;
    2d26:	82018ba3          	sb	zero,-1993(gp) # 200000a7 <receive_num>
C:\Users\windows\Desktop\smart_car\MASTER\obj/../Libraries/seekfree_peripheral/SEEKFREE_MT9V03X.c:98
        uart_receive_flag = 1;
    2d2a:	4705                	li	a4,1
    2d2c:	82e18c23          	sb	a4,-1992(gp) # 200000a8 <uart_receive_flag>
C:\Users\windows\Desktop\smart_car\MASTER\obj/../Libraries/seekfree_peripheral/SEEKFREE_MT9V03X.c:101
    }
    
}
    2d30:	0001                	nop
    2d32:	4432                	lw	s0,12(sp)
    2d34:	0141                	addi	sp,sp,16
    2d36:	8082                	ret

00002d38 <mt9v03x_vsync>:
mt9v03x_vsync():
C:\Users\windows\Desktop\smart_car\MASTER\obj/../Libraries/seekfree_peripheral/SEEKFREE_MT9V03X.c:376
//  @return     void
//  @since      v1.0
//  Sample usage:               在isr.c里面先创建对应的中断函数，然后调用该函数(之后别忘记清除中断标志位)
//-------------------------------------------------------------------------------------------------------------------
void mt9v03x_vsync(void)
{
    2d38:	1141                	addi	sp,sp,-16
    2d3a:	c622                	sw	s0,12(sp)
    2d3c:	0800                	addi	s0,sp,16
C:\Users\windows\Desktop\smart_car\MASTER\obj/../Libraries/seekfree_peripheral/SEEKFREE_MT9V03X.c:377
    MT9V03X_DMA_CH->CNTR = MT9V03X_H*MT9V03X_W;             //设置当前DMA传输的剩余数量，向下递减，该寄存器只能在DMA不工作时更改。
    2d3e:	400207b7          	lui	a5,0x40020
    2d42:	04478793          	addi	a5,a5,68 # 40020044 <_eusrstack+0x2001b044>
    2d46:	6709                	lui	a4,0x2
    2d48:	4b870713          	addi	a4,a4,1208 # 24b8 <USART_Init+0x18c>
    2d4c:	c3d8                	sw	a4,4(a5)
C:\Users\windows\Desktop\smart_car\MASTER\obj/../Libraries/seekfree_peripheral/SEEKFREE_MT9V03X.c:378
    MT9V03X_DMA_CH->CFGR |= DMA_CFGR1_EN;
    2d4e:	400207b7          	lui	a5,0x40020
    2d52:	04478793          	addi	a5,a5,68 # 40020044 <_eusrstack+0x2001b044>
    2d56:	4398                	lw	a4,0(a5)
    2d58:	400207b7          	lui	a5,0x40020
    2d5c:	04478793          	addi	a5,a5,68 # 40020044 <_eusrstack+0x2001b044>
    2d60:	00176713          	ori	a4,a4,1
    2d64:	c398                	sw	a4,0(a5)
C:\Users\windows\Desktop\smart_car\MASTER\obj/../Libraries/seekfree_peripheral/SEEKFREE_MT9V03X.c:379
}
    2d66:	0001                	nop
    2d68:	4432                	lw	s0,12(sp)
    2d6a:	0141                	addi	sp,sp,16
    2d6c:	8082                	ret

00002d6e <mt9v03x_dma>:
mt9v03x_dma():
C:\Users\windows\Desktop\smart_car\MASTER\obj/../Libraries/seekfree_peripheral/SEEKFREE_MT9V03X.c:389
//  @return     void
//  @since      v1.0
//  Sample usage:
//-------------------------------------------------------------------------------------------------------------------
void mt9v03x_dma(void)
{
    2d6e:	1141                	addi	sp,sp,-16
    2d70:	c622                	sw	s0,12(sp)
    2d72:	0800                	addi	s0,sp,16
C:\Users\windows\Desktop\smart_car\MASTER\obj/../Libraries/seekfree_peripheral/SEEKFREE_MT9V03X.c:390
    mt9v03x_finish_flag = 1;//一副图像从采集开始到采集结束耗时3.8MS左右(50FPS、188*120分辨率)
    2d74:	4705                	li	a4,1
    2d76:	82e18ca3          	sb	a4,-1991(gp) # 200000a9 <mt9v03x_finish_flag>
C:\Users\windows\Desktop\smart_car\MASTER\obj/../Libraries/seekfree_peripheral/SEEKFREE_MT9V03X.c:391
    MT9V03X_DMA_CH->CFGR &= (uint16)(~DMA_CFGR1_EN);   //关闭DMA1
    2d7a:	400207b7          	lui	a5,0x40020
    2d7e:	04478793          	addi	a5,a5,68 # 40020044 <_eusrstack+0x2001b044>
    2d82:	4394                	lw	a3,0(a5)
    2d84:	400207b7          	lui	a5,0x40020
    2d88:	04478793          	addi	a5,a5,68 # 40020044 <_eusrstack+0x2001b044>
    2d8c:	6741                	lui	a4,0x10
    2d8e:	1779                	addi	a4,a4,-2
    2d90:	8f75                	and	a4,a4,a3
    2d92:	c398                	sw	a4,0(a5)
C:\Users\windows\Desktop\smart_car\MASTER\obj/../Libraries/seekfree_peripheral/SEEKFREE_MT9V03X.c:392
}
    2d94:	0001                	nop
    2d96:	4432                	lw	s0,12(sp)
    2d98:	0141                	addi	sp,sp,16
    2d9a:	8082                	ret

00002d9c <ov7725_cof_uart_interrupt>:
ov7725_cof_uart_interrupt():
C:\Users\windows\Desktop\smart_car\MASTER\obj/../Libraries/seekfree_peripheral/SEEKFREE_UART_7725.c:81
//  Sample usage:
//  @note       该函数在ISR文件 串口3中断程序被调用
//-------------------------------------------------------------------------------------------------------------------

void ov7725_cof_uart_interrupt(void)
{
    2d9c:	1141                	addi	sp,sp,-16
    2d9e:	c622                	sw	s0,12(sp)
    2da0:	0800                	addi	s0,sp,16
C:\Users\windows\Desktop\smart_car\MASTER\obj/../Libraries/seekfree_peripheral/SEEKFREE_UART_7725.c:83

    ov7725_uart_receive[ov7725_uart_receive_num] = ((USART_TypeDef*)UARTN[OV7725_UART_COF_UART])->DATAR & 0x01FF;
    2da2:	679d                	lui	a5,0x7
    2da4:	b3c78793          	addi	a5,a5,-1220 # 6b3c <UARTN>
    2da8:	43dc                	lw	a5,4(a5)
    2daa:	0047d783          	lhu	a5,4(a5)
    2dae:	01079713          	slli	a4,a5,0x10
    2db2:	8341                	srli	a4,a4,0x10
    2db4:	83f1c783          	lbu	a5,-1985(gp) # 200000af <ov7725_uart_receive_num>
    2db8:	86be                	mv	a3,a5
    2dba:	0ff77713          	andi	a4,a4,255
    2dbe:	83c18793          	addi	a5,gp,-1988 # 200000ac <ov7725_uart_receive>
    2dc2:	97b6                	add	a5,a5,a3
    2dc4:	00e78023          	sb	a4,0(a5)
C:\Users\windows\Desktop\smart_car\MASTER\obj/../Libraries/seekfree_peripheral/SEEKFREE_UART_7725.c:84
    ov7725_uart_receive_num++;
    2dc8:	83f1c783          	lbu	a5,-1985(gp) # 200000af <ov7725_uart_receive_num>
    2dcc:	0785                	addi	a5,a5,1
    2dce:	0ff7f713          	andi	a4,a5,255
    2dd2:	82e18fa3          	sb	a4,-1985(gp) # 200000af <ov7725_uart_receive_num>
C:\Users\windows\Desktop\smart_car\MASTER\obj/../Libraries/seekfree_peripheral/SEEKFREE_UART_7725.c:86

    if(1==ov7725_uart_receive_num && 0XA5!=ov7725_uart_receive[0])  ov7725_uart_receive_num = 0;
    2dd6:	83f1c703          	lbu	a4,-1985(gp) # 200000af <ov7725_uart_receive_num>
    2dda:	4785                	li	a5,1
    2ddc:	00f71a63          	bne	a4,a5,2df0 <ov7725_cof_uart_interrupt+0x54>
C:\Users\windows\Desktop\smart_car\MASTER\obj/../Libraries/seekfree_peripheral/SEEKFREE_UART_7725.c:86 (discriminator 1)
    2de0:	83c1c703          	lbu	a4,-1988(gp) # 200000ac <ov7725_uart_receive>
    2de4:	0a500793          	li	a5,165
    2de8:	00f70463          	beq	a4,a5,2df0 <ov7725_cof_uart_interrupt+0x54>
C:\Users\windows\Desktop\smart_car\MASTER\obj/../Libraries/seekfree_peripheral/SEEKFREE_UART_7725.c:86 (discriminator 2)
    2dec:	82018fa3          	sb	zero,-1985(gp) # 200000af <ov7725_uart_receive_num>
C:\Users\windows\Desktop\smart_car\MASTER\obj/../Libraries/seekfree_peripheral/SEEKFREE_UART_7725.c:87
    if(3 == ov7725_uart_receive_num)
    2df0:	83f1c703          	lbu	a4,-1985(gp) # 200000af <ov7725_uart_receive_num>
    2df4:	478d                	li	a5,3
    2df6:	00f71763          	bne	a4,a5,2e04 <ov7725_cof_uart_interrupt+0x68>
C:\Users\windows\Desktop\smart_car\MASTER\obj/../Libraries/seekfree_peripheral/SEEKFREE_UART_7725.c:89
    {
        ov7725_uart_receive_num = 0;
    2dfa:	82018fa3          	sb	zero,-1985(gp) # 200000af <ov7725_uart_receive_num>
C:\Users\windows\Desktop\smart_car\MASTER\obj/../Libraries/seekfree_peripheral/SEEKFREE_UART_7725.c:90
        ov7725_uart_receive_flag = 1;
    2dfe:	4705                	li	a4,1
    2e00:	84e18023          	sb	a4,-1984(gp) # 200000b0 <ov7725_uart_receive_flag>
C:\Users\windows\Desktop\smart_car\MASTER\obj/../Libraries/seekfree_peripheral/SEEKFREE_UART_7725.c:92
    }
}
    2e04:	0001                	nop
    2e06:	4432                	lw	s0,12(sp)
    2e08:	0141                	addi	sp,sp,16
    2e0a:	8082                	ret

00002e0c <ov7725_uart_vsync>:
ov7725_uart_vsync():
C:\Users\windows\Desktop\smart_car\MASTER\obj/../Libraries/seekfree_peripheral/SEEKFREE_UART_7725.c:103
//  @since      v1.0
//  Sample usage:                   在isr.c里面先创建对应的中断函数，然后调用该函数(之后别忘记清除中断标志位)
//-------------------------------------------------------------------------------------------------------------------

void ov7725_uart_vsync(void)
{
    2e0c:	1141                	addi	sp,sp,-16
    2e0e:	c622                	sw	s0,12(sp)
    2e10:	0800                	addi	s0,sp,16
C:\Users\windows\Desktop\smart_car\MASTER\obj/../Libraries/seekfree_peripheral/SEEKFREE_UART_7725.c:104
    OV7725_UART_DMA_CH->CNTR = OV7725_UART_SIZE;             //设置当前DMA传输的剩余数量，向下递减，该寄存器只能在DMA不工作时更改。
    2e12:	400207b7          	lui	a5,0x40020
    2e16:	04478793          	addi	a5,a5,68 # 40020044 <_eusrstack+0x2001b044>
    2e1a:	6705                	lui	a4,0x1
    2e1c:	96070713          	addi	a4,a4,-1696 # 960 <__stack_size+0x160>
    2e20:	c3d8                	sw	a4,4(a5)
C:\Users\windows\Desktop\smart_car\MASTER\obj/../Libraries/seekfree_peripheral/SEEKFREE_UART_7725.c:105
    OV7725_UART_DMA_CH->CFGR |= DMA_CFGR1_EN;                //开启DMA1
    2e22:	400207b7          	lui	a5,0x40020
    2e26:	04478793          	addi	a5,a5,68 # 40020044 <_eusrstack+0x2001b044>
    2e2a:	4398                	lw	a4,0(a5)
    2e2c:	400207b7          	lui	a5,0x40020
    2e30:	04478793          	addi	a5,a5,68 # 40020044 <_eusrstack+0x2001b044>
    2e34:	00176713          	ori	a4,a4,1
    2e38:	c398                	sw	a4,0(a5)
C:\Users\windows\Desktop\smart_car\MASTER\obj/../Libraries/seekfree_peripheral/SEEKFREE_UART_7725.c:106
}
    2e3a:	0001                	nop
    2e3c:	4432                	lw	s0,12(sp)
    2e3e:	0141                	addi	sp,sp,16
    2e40:	8082                	ret

00002e42 <ov7725_uart_dma>:
ov7725_uart_dma():
C:\Users\windows\Desktop\smart_car\MASTER\obj/../Libraries/seekfree_peripheral/SEEKFREE_UART_7725.c:117
//  @return     void
//  @since      v1.0
//  Sample usage:                   在isr.c里面先创建对应的中断函数，然后调用该函数(之后别忘记清除中断标志位)
//-------------------------------------------------------------------------------------------------------------------
void ov7725_uart_dma(void)
{
    2e42:	1141                	addi	sp,sp,-16
    2e44:	c622                	sw	s0,12(sp)
    2e46:	0800                	addi	s0,sp,16
C:\Users\windows\Desktop\smart_car\MASTER\obj/../Libraries/seekfree_peripheral/SEEKFREE_UART_7725.c:118
    ov7725_uart_finish_flag = 1;                             //摄像头数据采集置1
    2e48:	4705                	li	a4,1
    2e4a:	84e180a3          	sb	a4,-1983(gp) # 200000b1 <ov7725_uart_finish_flag>
C:\Users\windows\Desktop\smart_car\MASTER\obj/../Libraries/seekfree_peripheral/SEEKFREE_UART_7725.c:119
    OV7725_UART_DMA_CH->CFGR &= (uint16)(~DMA_CFGR1_EN);     //关闭DMA1
    2e4e:	400207b7          	lui	a5,0x40020
    2e52:	04478793          	addi	a5,a5,68 # 40020044 <_eusrstack+0x2001b044>
    2e56:	4394                	lw	a3,0(a5)
    2e58:	400207b7          	lui	a5,0x40020
    2e5c:	04478793          	addi	a5,a5,68 # 40020044 <_eusrstack+0x2001b044>
    2e60:	6741                	lui	a4,0x10
    2e62:	1779                	addi	a4,a4,-2
    2e64:	8f75                	and	a4,a4,a3
    2e66:	c398                	sw	a4,0(a5)
C:\Users\windows\Desktop\smart_car\MASTER\obj/../Libraries/seekfree_peripheral/SEEKFREE_UART_7725.c:120
}
    2e68:	0001                	nop
    2e6a:	4432                	lw	s0,12(sp)
    2e6c:	0141                	addi	sp,sp,16
    2e6e:	8082                	ret

00002e70 <gpio_init>:
gpio_init():
C:\Users\windows\Desktop\smart_car\MASTER\obj/../Libraries/seekfree_libraries/zf_gpio.c:40
//  @param      pinconf     引脚配置（可设置参数由zf_gpio.h文件内GPIOSPEED_enum与GPIOMODE_enum枚举值确定，多个条件使用 | 相或）
//  @return     void
//  Sample usage:           gpio_init(D0, GPO, 1, GPIO_PIN_CONFIG);//D0初始化为GPIO功能、输出模式、输出高电平、速度100MHZ 推挽输出
//-------------------------------------------------------------------------------------------------------------------
void gpio_init(PIN_enum pin, GPIODIR_enum dir, uint8 dat, uint32 pinconf)
{
    2e70:	7179                	addi	sp,sp,-48
    2e72:	d606                	sw	ra,44(sp)
    2e74:	d422                	sw	s0,40(sp)
    2e76:	1800                	addi	s0,sp,48
    2e78:	fca42e23          	sw	a0,-36(s0)
    2e7c:	fcb42c23          	sw	a1,-40(s0)
    2e80:	87b2                	mv	a5,a2
    2e82:	fcd42823          	sw	a3,-48(s0)
    2e86:	fcf40ba3          	sb	a5,-41(s0)
C:\Users\windows\Desktop\smart_car\MASTER\obj/../Libraries/seekfree_libraries/zf_gpio.c:42
    GPIO_InitTypeDef GPIO_InitStructure;
    uint8 io_group = (pin & 0xE0) >> 5;
    2e8a:	fdc42783          	lw	a5,-36(s0)
    2e8e:	8395                	srli	a5,a5,0x5
    2e90:	0ff7f793          	andi	a5,a5,255
    2e94:	8b9d                	andi	a5,a5,7
    2e96:	fef407a3          	sb	a5,-17(s0)
C:\Users\windows\Desktop\smart_car\MASTER\obj/../Libraries/seekfree_libraries/zf_gpio.c:43
    uint8 io_pin = pin & 0x1F;
    2e9a:	fdc42783          	lw	a5,-36(s0)
    2e9e:	0ff7f793          	andi	a5,a5,255
    2ea2:	8bfd                	andi	a5,a5,31
    2ea4:	fef40723          	sb	a5,-18(s0)
C:\Users\windows\Desktop\smart_car\MASTER\obj/../Libraries/seekfree_libraries/zf_gpio.c:46


    if(PIN_NULL == pin) return;
    2ea8:	fdc42703          	lw	a4,-36(s0)
    2eac:	08000793          	li	a5,128
    2eb0:	14f70d63          	beq	a4,a5,300a <gpio_init+0x19a>
C:\Users\windows\Desktop\smart_car\MASTER\obj/../Libraries/seekfree_libraries/zf_gpio.c:48
    //GPIO总线使能
    if(0 == (pin >> 5))      RCC_APB2PeriphClockCmd(RCC_APB2Periph_GPIOA, ENABLE);
    2eb4:	fdc42783          	lw	a5,-36(s0)
    2eb8:	8395                	srli	a5,a5,0x5
    2eba:	e791                	bnez	a5,2ec6 <gpio_init+0x56>
C:\Users\windows\Desktop\smart_car\MASTER\obj/../Libraries/seekfree_libraries/zf_gpio.c:48 (discriminator 1)
    2ebc:	4585                	li	a1,1
    2ebe:	4511                	li	a0,4
    2ec0:	e7afe0ef          	jal	ra,153a <RCC_APB2PeriphClockCmd>
    2ec4:	a861                	j	2f5c <gpio_init+0xec>
C:\Users\windows\Desktop\smart_car\MASTER\obj/../Libraries/seekfree_libraries/zf_gpio.c:49
    else if(1 == (pin >> 5)) RCC_APB2PeriphClockCmd(RCC_APB2Periph_GPIOB, ENABLE);
    2ec6:	fdc42783          	lw	a5,-36(s0)
    2eca:	0057d713          	srli	a4,a5,0x5
    2ece:	4785                	li	a5,1
    2ed0:	00f71763          	bne	a4,a5,2ede <gpio_init+0x6e>
C:\Users\windows\Desktop\smart_car\MASTER\obj/../Libraries/seekfree_libraries/zf_gpio.c:49 (discriminator 1)
    2ed4:	4585                	li	a1,1
    2ed6:	4521                	li	a0,8
    2ed8:	e62fe0ef          	jal	ra,153a <RCC_APB2PeriphClockCmd>
    2edc:	a041                	j	2f5c <gpio_init+0xec>
C:\Users\windows\Desktop\smart_car\MASTER\obj/../Libraries/seekfree_libraries/zf_gpio.c:50
    else if(2 == (pin >> 5)) RCC_APB2PeriphClockCmd(RCC_APB2Periph_GPIOC, ENABLE);
    2ede:	fdc42783          	lw	a5,-36(s0)
    2ee2:	0057d713          	srli	a4,a5,0x5
    2ee6:	4789                	li	a5,2
    2ee8:	00f71763          	bne	a4,a5,2ef6 <gpio_init+0x86>
C:\Users\windows\Desktop\smart_car\MASTER\obj/../Libraries/seekfree_libraries/zf_gpio.c:50 (discriminator 1)
    2eec:	4585                	li	a1,1
    2eee:	4541                	li	a0,16
    2ef0:	e4afe0ef          	jal	ra,153a <RCC_APB2PeriphClockCmd>
    2ef4:	a0a5                	j	2f5c <gpio_init+0xec>
C:\Users\windows\Desktop\smart_car\MASTER\obj/../Libraries/seekfree_libraries/zf_gpio.c:51
    else if(3 == (pin >> 5)) RCC_APB2PeriphClockCmd(RCC_APB2Periph_GPIOD, ENABLE);
    2ef6:	fdc42783          	lw	a5,-36(s0)
    2efa:	0057d713          	srli	a4,a5,0x5
    2efe:	478d                	li	a5,3
    2f00:	00f71863          	bne	a4,a5,2f10 <gpio_init+0xa0>
C:\Users\windows\Desktop\smart_car\MASTER\obj/../Libraries/seekfree_libraries/zf_gpio.c:51 (discriminator 1)
    2f04:	4585                	li	a1,1
    2f06:	02000513          	li	a0,32
    2f0a:	e30fe0ef          	jal	ra,153a <RCC_APB2PeriphClockCmd>
    2f0e:	a0b9                	j	2f5c <gpio_init+0xec>
C:\Users\windows\Desktop\smart_car\MASTER\obj/../Libraries/seekfree_libraries/zf_gpio.c:52
    else if(4 == (pin >> 5)) RCC_APB2PeriphClockCmd(RCC_APB2Periph_GPIOE, ENABLE);
    2f10:	fdc42783          	lw	a5,-36(s0)
    2f14:	0057d713          	srli	a4,a5,0x5
    2f18:	4791                	li	a5,4
    2f1a:	00f71863          	bne	a4,a5,2f2a <gpio_init+0xba>
C:\Users\windows\Desktop\smart_car\MASTER\obj/../Libraries/seekfree_libraries/zf_gpio.c:52 (discriminator 1)
    2f1e:	4585                	li	a1,1
    2f20:	04000513          	li	a0,64
    2f24:	e16fe0ef          	jal	ra,153a <RCC_APB2PeriphClockCmd>
    2f28:	a815                	j	2f5c <gpio_init+0xec>
C:\Users\windows\Desktop\smart_car\MASTER\obj/../Libraries/seekfree_libraries/zf_gpio.c:53
    else if(5 == (pin >> 5)) RCC_APB2PeriphClockCmd(RCC_APB2Periph_GPIOF, ENABLE);
    2f2a:	fdc42783          	lw	a5,-36(s0)
    2f2e:	0057d713          	srli	a4,a5,0x5
    2f32:	4795                	li	a5,5
    2f34:	00f71863          	bne	a4,a5,2f44 <gpio_init+0xd4>
C:\Users\windows\Desktop\smart_car\MASTER\obj/../Libraries/seekfree_libraries/zf_gpio.c:53 (discriminator 1)
    2f38:	4585                	li	a1,1
    2f3a:	08000513          	li	a0,128
    2f3e:	dfcfe0ef          	jal	ra,153a <RCC_APB2PeriphClockCmd>
    2f42:	a829                	j	2f5c <gpio_init+0xec>
C:\Users\windows\Desktop\smart_car\MASTER\obj/../Libraries/seekfree_libraries/zf_gpio.c:54
    else if(6 == (pin >> 5)) RCC_APB2PeriphClockCmd(RCC_APB2Periph_GPIOG, ENABLE);
    2f44:	fdc42783          	lw	a5,-36(s0)
    2f48:	0057d713          	srli	a4,a5,0x5
    2f4c:	4799                	li	a5,6
    2f4e:	00f71763          	bne	a4,a5,2f5c <gpio_init+0xec>
C:\Users\windows\Desktop\smart_car\MASTER\obj/../Libraries/seekfree_libraries/zf_gpio.c:54 (discriminator 1)
    2f52:	4585                	li	a1,1
    2f54:	10000513          	li	a0,256
    2f58:	de2fe0ef          	jal	ra,153a <RCC_APB2PeriphClockCmd>
C:\Users\windows\Desktop\smart_car\MASTER\obj/../Libraries/seekfree_libraries/zf_gpio.c:58


    //设置引脚号
    GPIO_InitStructure.GPIO_Pin = (uint16)(1 << io_pin);
    2f5c:	fee44783          	lbu	a5,-18(s0)
    2f60:	4705                	li	a4,1
    2f62:	00f717b3          	sll	a5,a4,a5
    2f66:	07c2                	slli	a5,a5,0x10
    2f68:	83c1                	srli	a5,a5,0x10
    2f6a:	fef41023          	sh	a5,-32(s0)
C:\Users\windows\Desktop\smart_car\MASTER\obj/../Libraries/seekfree_libraries/zf_gpio.c:60

    if(GPO == dir)
    2f6e:	fd842703          	lw	a4,-40(s0)
    2f72:	4785                	li	a5,1
    2f74:	02f71763          	bne	a4,a5,2fa2 <gpio_init+0x132>
C:\Users\windows\Desktop\smart_car\MASTER\obj/../Libraries/seekfree_libraries/zf_gpio.c:63
    {
        //只有输出需要设置速度
        if((uint16)pinconf >> 8 == 0) GPIO_InitStructure.GPIO_Speed = (GPIOSpeed_TypeDef)(GPIO_Speed_50MHz);  //防止没有填写这个参数,默认设置50Mhz
    2f78:	fd042783          	lw	a5,-48(s0)
    2f7c:	07c2                	slli	a5,a5,0x10
    2f7e:	83c1                	srli	a5,a5,0x10
    2f80:	83a1                	srli	a5,a5,0x8
    2f82:	07c2                	slli	a5,a5,0x10
    2f84:	83c1                	srli	a5,a5,0x10
    2f86:	e789                	bnez	a5,2f90 <gpio_init+0x120>
C:\Users\windows\Desktop\smart_car\MASTER\obj/../Libraries/seekfree_libraries/zf_gpio.c:63 (discriminator 1)
    2f88:	478d                	li	a5,3
    2f8a:	fef42223          	sw	a5,-28(s0)
    2f8e:	a811                	j	2fa2 <gpio_init+0x132>
C:\Users\windows\Desktop\smart_car\MASTER\obj/../Libraries/seekfree_libraries/zf_gpio.c:64
        else GPIO_InitStructure.GPIO_Speed = (GPIOSpeed_TypeDef)((uint16)pinconf >> 8);                       //已经填写了该参数。根据值来设置
    2f90:	fd042783          	lw	a5,-48(s0)
    2f94:	07c2                	slli	a5,a5,0x10
    2f96:	83c1                	srli	a5,a5,0x10
    2f98:	83a1                	srli	a5,a5,0x8
    2f9a:	07c2                	slli	a5,a5,0x10
    2f9c:	83c1                	srli	a5,a5,0x10
    2f9e:	fef42223          	sw	a5,-28(s0)
C:\Users\windows\Desktop\smart_car\MASTER\obj/../Libraries/seekfree_libraries/zf_gpio.c:68
    }

    //设置模式
    GPIO_InitStructure.GPIO_Mode = (GPIOMode_TypeDef)((uint16)pinconf & 0xff);
    2fa2:	fd042783          	lw	a5,-48(s0)
    2fa6:	07c2                	slli	a5,a5,0x10
    2fa8:	83c1                	srli	a5,a5,0x10
    2faa:	0ff7f793          	andi	a5,a5,255
    2fae:	fef42423          	sw	a5,-24(s0)
C:\Users\windows\Desktop\smart_car\MASTER\obj/../Libraries/seekfree_libraries/zf_gpio.c:69
    GPIO_Init((GPIO_TypeDef *)(GPION[io_group]), &GPIO_InitStructure);
    2fb2:	fef44703          	lbu	a4,-17(s0)
    2fb6:	679d                	lui	a5,0x7
    2fb8:	070a                	slli	a4,a4,0x2
    2fba:	b0c78793          	addi	a5,a5,-1268 # 6b0c <GPION>
    2fbe:	97ba                	add	a5,a5,a4
    2fc0:	439c                	lw	a5,0(a5)
    2fc2:	873e                	mv	a4,a5
    2fc4:	fe040793          	addi	a5,s0,-32
    2fc8:	85be                	mv	a1,a5
    2fca:	853a                	mv	a0,a4
    2fcc:	dc3fd0ef          	jal	ra,d8e <GPIO_Init>
C:\Users\windows\Desktop\smart_car\MASTER\obj/../Libraries/seekfree_libraries/zf_gpio.c:71

    if(GPO == dir)
    2fd0:	fd842703          	lw	a4,-40(s0)
    2fd4:	4785                	li	a5,1
    2fd6:	02f71b63          	bne	a4,a5,300c <gpio_init+0x19c>
C:\Users\windows\Desktop\smart_car\MASTER\obj/../Libraries/seekfree_libraries/zf_gpio.c:74
    {
        //只有输出需要设置引脚状态
        GPIO_WriteBit((GPIO_TypeDef *)(GPION[io_group]), (uint16)(1 << io_pin), dat);
    2fda:	fef44703          	lbu	a4,-17(s0)
    2fde:	679d                	lui	a5,0x7
    2fe0:	070a                	slli	a4,a4,0x2
    2fe2:	b0c78793          	addi	a5,a5,-1268 # 6b0c <GPION>
    2fe6:	97ba                	add	a5,a5,a4
    2fe8:	439c                	lw	a5,0(a5)
    2fea:	86be                	mv	a3,a5
    2fec:	fee44783          	lbu	a5,-18(s0)
    2ff0:	4705                	li	a4,1
    2ff2:	00f717b3          	sll	a5,a4,a5
    2ff6:	07c2                	slli	a5,a5,0x10
    2ff8:	83c1                	srli	a5,a5,0x10
    2ffa:	fd744703          	lbu	a4,-41(s0)
    2ffe:	863a                	mv	a2,a4
    3000:	85be                	mv	a1,a5
    3002:	8536                	mv	a0,a3
    3004:	fb5fd0ef          	jal	ra,fb8 <GPIO_WriteBit>
    3008:	a011                	j	300c <gpio_init+0x19c>
C:\Users\windows\Desktop\smart_car\MASTER\obj/../Libraries/seekfree_libraries/zf_gpio.c:46
    if(PIN_NULL == pin) return;
    300a:	0001                	nop
C:\Users\windows\Desktop\smart_car\MASTER\obj/../Libraries/seekfree_libraries/zf_gpio.c:76
    }
}
    300c:	50b2                	lw	ra,44(sp)
    300e:	5422                	lw	s0,40(sp)
    3010:	6145                	addi	sp,sp,48
    3012:	8082                	ret

00003014 <gpio_set>:
gpio_set():
C:\Users\windows\Desktop\smart_car\MASTER\obj/../Libraries/seekfree_libraries/zf_gpio.c:86
//  @param      dat         引脚的电平状态，输出时有效 0：低电平 1：高电平
//  @return     void
//  Sample usage:           gpio_set(D0, 0);//D0输出低电平
//-------------------------------------------------------------------------------------------------------------------
void gpio_set(PIN_enum pin, uint8 dat)
{
    3014:	7179                	addi	sp,sp,-48
    3016:	d622                	sw	s0,44(sp)
    3018:	1800                	addi	s0,sp,48
    301a:	fca42e23          	sw	a0,-36(s0)
    301e:	87ae                	mv	a5,a1
    3020:	fcf40da3          	sb	a5,-37(s0)
C:\Users\windows\Desktop\smart_car\MASTER\obj/../Libraries/seekfree_libraries/zf_gpio.c:87
    uint8 io_group = (pin & 0xE0) >> 5;
    3024:	fdc42783          	lw	a5,-36(s0)
    3028:	8395                	srli	a5,a5,0x5
    302a:	0ff7f793          	andi	a5,a5,255
    302e:	8b9d                	andi	a5,a5,7
    3030:	fef407a3          	sb	a5,-17(s0)
C:\Users\windows\Desktop\smart_car\MASTER\obj/../Libraries/seekfree_libraries/zf_gpio.c:88
    uint8 io_pin = pin & 0x1F;
    3034:	fdc42783          	lw	a5,-36(s0)
    3038:	0ff7f793          	andi	a5,a5,255
    303c:	8bfd                	andi	a5,a5,31
    303e:	fef40723          	sb	a5,-18(s0)
C:\Users\windows\Desktop\smart_car\MASTER\obj/../Libraries/seekfree_libraries/zf_gpio.c:90

    if (dat == 1)
    3042:	fdb44703          	lbu	a4,-37(s0)
    3046:	4785                	li	a5,1
    3048:	02f71263          	bne	a4,a5,306c <gpio_set+0x58>
C:\Users\windows\Desktop\smart_car\MASTER\obj/../Libraries/seekfree_libraries/zf_gpio.c:91
         ((GPIO_TypeDef *)(GPION[io_group]))->BSHR = 1 << io_pin;
    304c:	fee44783          	lbu	a5,-18(s0)
    3050:	4705                	li	a4,1
    3052:	00f716b3          	sll	a3,a4,a5
    3056:	fef44703          	lbu	a4,-17(s0)
    305a:	679d                	lui	a5,0x7
    305c:	070a                	slli	a4,a4,0x2
    305e:	b0c78793          	addi	a5,a5,-1268 # 6b0c <GPION>
    3062:	97ba                	add	a5,a5,a4
    3064:	439c                	lw	a5,0(a5)
    3066:	8736                	mv	a4,a3
    3068:	cb98                	sw	a4,16(a5)
C:\Users\windows\Desktop\smart_car\MASTER\obj/../Libraries/seekfree_libraries/zf_gpio.c:94
    else
         ((GPIO_TypeDef *)(GPION[io_group]))->BCR = 1 << io_pin;
}
    306a:	a005                	j	308a <gpio_set+0x76>
C:\Users\windows\Desktop\smart_car\MASTER\obj/../Libraries/seekfree_libraries/zf_gpio.c:93
         ((GPIO_TypeDef *)(GPION[io_group]))->BCR = 1 << io_pin;
    306c:	fee44783          	lbu	a5,-18(s0)
    3070:	4705                	li	a4,1
    3072:	00f716b3          	sll	a3,a4,a5
    3076:	fef44703          	lbu	a4,-17(s0)
    307a:	679d                	lui	a5,0x7
    307c:	070a                	slli	a4,a4,0x2
    307e:	b0c78793          	addi	a5,a5,-1268 # 6b0c <GPION>
    3082:	97ba                	add	a5,a5,a4
    3084:	439c                	lw	a5,0(a5)
    3086:	8736                	mv	a4,a3
    3088:	cbd8                	sw	a4,20(a5)
C:\Users\windows\Desktop\smart_car\MASTER\obj/../Libraries/seekfree_libraries/zf_gpio.c:94
}
    308a:	0001                	nop
    308c:	5432                	lw	s0,44(sp)
    308e:	6145                	addi	sp,sp,48
    3090:	8082                	ret

00003092 <gpio_interrupt_init>:
gpio_interrupt_init():
C:\Users\windows\Desktop\smart_car\MASTER\obj/../Libraries/seekfree_libraries/zf_gpio.c:141
//  @param      trigger     中断触发方式 选择范围参见h文件TRIGGER_enum枚举
//  @return     void
//  Sample usage:           gpio_interrupt_init(D0, RISING, GPIO_INT_CONFIG);//D0上升沿中断
//-------------------------------------------------------------------------------------------------------------------
void gpio_interrupt_init(PIN_enum pin,TRIGGER_enum trigger, uint32 pinconf)
{
    3092:	7179                	addi	sp,sp,-48
    3094:	d606                	sw	ra,44(sp)
    3096:	d422                	sw	s0,40(sp)
    3098:	1800                	addi	s0,sp,48
    309a:	fca42e23          	sw	a0,-36(s0)
    309e:	fcb42c23          	sw	a1,-40(s0)
    30a2:	fcc42a23          	sw	a2,-44(s0)
C:\Users\windows\Desktop\smart_car\MASTER\obj/../Libraries/seekfree_libraries/zf_gpio.c:143
    EXTI_InitTypeDef EXTI_InitStructure;
    RCC_APB2PeriphClockCmd(RCC_APB2Periph_AFIO,ENABLE);
    30a6:	4585                	li	a1,1
    30a8:	4505                	li	a0,1
    30aa:	c90fe0ef          	jal	ra,153a <RCC_APB2PeriphClockCmd>
C:\Users\windows\Desktop\smart_car\MASTER\obj/../Libraries/seekfree_libraries/zf_gpio.c:144
    gpio_init(pin, GPI, 0, pinconf);
    30ae:	fd442683          	lw	a3,-44(s0)
    30b2:	4601                	li	a2,0
    30b4:	4581                	li	a1,0
    30b6:	fdc42503          	lw	a0,-36(s0)
    30ba:	3b5d                	jal	2e70 <gpio_init>
C:\Users\windows\Desktop\smart_car\MASTER\obj/../Libraries/seekfree_libraries/zf_gpio.c:145
    GPIO_EXTILineConfig(pin >> 5, pin & 0x1F);              //引脚中断号配置
    30bc:	fdc42783          	lw	a5,-36(s0)
    30c0:	8395                	srli	a5,a5,0x5
    30c2:	0ff7f713          	andi	a4,a5,255
    30c6:	fdc42783          	lw	a5,-36(s0)
    30ca:	0ff7f793          	andi	a5,a5,255
    30ce:	8bfd                	andi	a5,a5,31
    30d0:	0ff7f793          	andi	a5,a5,255
    30d4:	85be                	mv	a1,a5
    30d6:	853a                	mv	a0,a4
    30d8:	854fe0ef          	jal	ra,112c <GPIO_EXTILineConfig>
C:\Users\windows\Desktop\smart_car\MASTER\obj/../Libraries/seekfree_libraries/zf_gpio.c:146
    EXTI_InitStructure.EXTI_Line = 1 << (pin & 0x1F);       //引脚号配置
    30dc:	fdc42783          	lw	a5,-36(s0)
    30e0:	8bfd                	andi	a5,a5,31
    30e2:	4705                	li	a4,1
    30e4:	00f717b3          	sll	a5,a4,a5
    30e8:	fef42023          	sw	a5,-32(s0)
C:\Users\windows\Desktop\smart_car\MASTER\obj/../Libraries/seekfree_libraries/zf_gpio.c:147
    EXTI_InitStructure.EXTI_Mode = EXTI_Mode_Interrupt;     //触发模式
    30ec:	fe042223          	sw	zero,-28(s0)
C:\Users\windows\Desktop\smart_car\MASTER\obj/../Libraries/seekfree_libraries/zf_gpio.c:148
    EXTI_InitStructure.EXTI_Trigger = trigger;              //触发方式
    30f0:	fd842783          	lw	a5,-40(s0)
    30f4:	fef42423          	sw	a5,-24(s0)
C:\Users\windows\Desktop\smart_car\MASTER\obj/../Libraries/seekfree_libraries/zf_gpio.c:149
    EXTI_InitStructure.EXTI_LineCmd = ENABLE;               //使能或者失能
    30f8:	4785                	li	a5,1
    30fa:	fef42623          	sw	a5,-20(s0)
C:\Users\windows\Desktop\smart_car\MASTER\obj/../Libraries/seekfree_libraries/zf_gpio.c:150
    EXTI_Init(&EXTI_InitStructure);
    30fe:	fe040793          	addi	a5,s0,-32
    3102:	853e                	mv	a0,a5
    3104:	aa5fd0ef          	jal	ra,ba8 <EXTI_Init>
C:\Users\windows\Desktop\smart_car\MASTER\obj/../Libraries/seekfree_libraries/zf_gpio.c:151
}
    3108:	0001                	nop
    310a:	50b2                	lw	ra,44(sp)
    310c:	5422                	lw	s0,40(sp)
    310e:	6145                	addi	sp,sp,48
    3110:	8082                	ret

00003112 <nvic_init>:
nvic_init():
C:\Users\windows\Desktop\smart_car\MASTER\obj/../Libraries/seekfree_libraries/zf_nvic.c:38
//  @param      status                      使能或者失能
//  @return     void
//  Sample usage:                           nvic_init(EXTI0_IRQn,0, 0, ENABLE); //外部中断0使能,抢占优先级最高，次优先级最高。
//-------------------------------------------------------------------------------------------------------------------
void nvic_init(IRQn_Type irqn,uint8 preemption_priority, uint8 sub_priority,uint8 status)
{
    3112:	7179                	addi	sp,sp,-48
    3114:	d606                	sw	ra,44(sp)
    3116:	d422                	sw	s0,40(sp)
    3118:	1800                	addi	s0,sp,48
    311a:	fca42e23          	sw	a0,-36(s0)
    311e:	87ae                	mv	a5,a1
    3120:	8736                	mv	a4,a3
    3122:	fcf40da3          	sb	a5,-37(s0)
    3126:	87b2                	mv	a5,a2
    3128:	fcf40d23          	sb	a5,-38(s0)
    312c:	87ba                	mv	a5,a4
    312e:	fcf40ca3          	sb	a5,-39(s0)
C:\Users\windows\Desktop\smart_car\MASTER\obj/../Libraries/seekfree_libraries/zf_nvic.c:41
    NVIC_InitTypeDef NVIC_InitStructure;

    NVIC_InitStructure.NVIC_IRQChannel = irqn;                                  //中断号设置
    3132:	fdc42783          	lw	a5,-36(s0)
    3136:	0ff7f793          	andi	a5,a5,255
    313a:	fef40423          	sb	a5,-24(s0)
C:\Users\windows\Desktop\smart_car\MASTER\obj/../Libraries/seekfree_libraries/zf_nvic.c:42
    NVIC_InitStructure.NVIC_IRQChannelPreemptionPriority=preemption_priority;   //抢占优先级值越小，优先级越高
    313e:	fdb44783          	lbu	a5,-37(s0)
    3142:	fef404a3          	sb	a5,-23(s0)
C:\Users\windows\Desktop\smart_car\MASTER\obj/../Libraries/seekfree_libraries/zf_nvic.c:43
    NVIC_InitStructure.NVIC_IRQChannelSubPriority = sub_priority;               //次优先级值越小，优先级越高
    3146:	fda44783          	lbu	a5,-38(s0)
    314a:	fef40523          	sb	a5,-22(s0)
C:\Users\windows\Desktop\smart_car\MASTER\obj/../Libraries/seekfree_libraries/zf_nvic.c:44
    NVIC_InitStructure.NVIC_IRQChannelCmd = status;                             //使能
    314e:	fd944783          	lbu	a5,-39(s0)
    3152:	fef42623          	sw	a5,-20(s0)
C:\Users\windows\Desktop\smart_car\MASTER\obj/../Libraries/seekfree_libraries/zf_nvic.c:45
    NVIC_Init(&NVIC_InitStructure);
    3156:	fe840793          	addi	a5,s0,-24
    315a:	853e                	mv	a0,a5
    315c:	900fe0ef          	jal	ra,125c <NVIC_Init>
C:\Users\windows\Desktop\smart_car\MASTER\obj/../Libraries/seekfree_libraries/zf_nvic.c:48

    //保存状态值
    irq_status.ienr0 |= (PFIC->ISR[0] & 0xFFFFF000);    //[31:12]
    3160:	e000e7b7          	lui	a5,0xe000e
    3164:	4398                	lw	a4,0(a5)
    3166:	77fd                	lui	a5,0xfffff
    3168:	8f7d                	and	a4,a4,a5
    316a:	9241a783          	lw	a5,-1756(gp) # 20000194 <irq_status>
    316e:	8f5d                	or	a4,a4,a5
    3170:	92e1a223          	sw	a4,-1756(gp) # 20000194 <irq_status>
C:\Users\windows\Desktop\smart_car\MASTER\obj/../Libraries/seekfree_libraries/zf_nvic.c:49
    irq_status.ienr1 |= (PFIC->ISR[1] & 0x0FFFFFFF);    //[27:0]
    3174:	e000e7b7          	lui	a5,0xe000e
    3178:	43d8                	lw	a4,4(a5)
    317a:	100007b7          	lui	a5,0x10000
    317e:	17fd                	addi	a5,a5,-1
    3180:	8f7d                	and	a4,a4,a5
    3182:	92418793          	addi	a5,gp,-1756 # 20000194 <irq_status>
    3186:	43dc                	lw	a5,4(a5)
    3188:	8f5d                	or	a4,a4,a5
    318a:	92418793          	addi	a5,gp,-1756 # 20000194 <irq_status>
    318e:	c3d8                	sw	a4,4(a5)
C:\Users\windows\Desktop\smart_car\MASTER\obj/../Libraries/seekfree_libraries/zf_nvic.c:50
    if(irq_status.flag == 1)
    3190:	92418793          	addi	a5,gp,-1756 # 20000194 <irq_status>
    3194:	0087c703          	lbu	a4,8(a5) # 10000008 <_data_lma+0xfff92a0>
    3198:	4785                	li	a5,1
    319a:	00f71363          	bne	a4,a5,31a0 <nvic_init+0x8e>
C:\Users\windows\Desktop\smart_car\MASTER\obj/../Libraries/seekfree_libraries/zf_nvic.c:52
    {
        close_all_irq();
    319e:	2031                	jal	31aa <close_all_irq>
C:\Users\windows\Desktop\smart_car\MASTER\obj/../Libraries/seekfree_libraries/zf_nvic.c:54
    }
}
    31a0:	0001                	nop
    31a2:	50b2                	lw	ra,44(sp)
    31a4:	5422                	lw	s0,40(sp)
    31a6:	6145                	addi	sp,sp,48
    31a8:	8082                	ret

000031aa <close_all_irq>:
close_all_irq():
C:\Users\windows\Desktop\smart_car\MASTER\obj/../Libraries/seekfree_libraries/zf_nvic.c:63
//  @return     void
//  @since      v1.0
//  Sample usage:
//-------------------------------------------------------------------------------------------------------------------
void close_all_irq(void)
{
    31aa:	1141                	addi	sp,sp,-16
    31ac:	c622                	sw	s0,12(sp)
    31ae:	0800                	addi	s0,sp,16
C:\Users\windows\Desktop\smart_car\MASTER\obj/../Libraries/seekfree_libraries/zf_nvic.c:65
    //写1，清空状态
    PFIC->IRER[0] = 0xffffffff;
    31b0:	e000e7b7          	lui	a5,0xe000e
    31b4:	577d                	li	a4,-1
    31b6:	18e7a023          	sw	a4,384(a5) # e000e180 <_eusrstack+0xc0009180>
C:\Users\windows\Desktop\smart_car\MASTER\obj/../Libraries/seekfree_libraries/zf_nvic.c:66
    PFIC->IRER[1] = 0xffffffff;
    31ba:	e000e7b7          	lui	a5,0xe000e
    31be:	577d                	li	a4,-1
    31c0:	18e7a223          	sw	a4,388(a5) # e000e184 <_eusrstack+0xc0009184>
C:\Users\windows\Desktop\smart_car\MASTER\obj/../Libraries/seekfree_libraries/zf_nvic.c:67
}
    31c4:	0001                	nop
    31c6:	4432                	lw	s0,12(sp)
    31c8:	0141                	addi	sp,sp,16
    31ca:	8082                	ret

000031cc <sys_recover_irq>:
sys_recover_irq():
C:\Users\windows\Desktop\smart_car\MASTER\obj/../Libraries/seekfree_libraries/zf_nvic.c:77
//  @return     void
//  @since      v1.0
//  Sample usage:
//-------------------------------------------------------------------------------------------------------------------
void sys_recover_irq(void)
{
    31cc:	1141                	addi	sp,sp,-16
    31ce:	c622                	sw	s0,12(sp)
    31d0:	0800                	addi	s0,sp,16
C:\Users\windows\Desktop\smart_car\MASTER\obj/../Libraries/seekfree_libraries/zf_nvic.c:78
    PFIC->IENR[0] = irq_status.ienr0;
    31d2:	e000e7b7          	lui	a5,0xe000e
    31d6:	9241a703          	lw	a4,-1756(gp) # 20000194 <irq_status>
    31da:	10e7a023          	sw	a4,256(a5) # e000e100 <_eusrstack+0xc0009100>
C:\Users\windows\Desktop\smart_car\MASTER\obj/../Libraries/seekfree_libraries/zf_nvic.c:79
    PFIC->IENR[1] = irq_status.ienr1;
    31de:	e000e7b7          	lui	a5,0xe000e
    31e2:	92418713          	addi	a4,gp,-1756 # 20000194 <irq_status>
    31e6:	4358                	lw	a4,4(a4)
    31e8:	10e7a223          	sw	a4,260(a5) # e000e104 <_eusrstack+0xc0009104>
C:\Users\windows\Desktop\smart_car\MASTER\obj/../Libraries/seekfree_libraries/zf_nvic.c:80
}
    31ec:	0001                	nop
    31ee:	4432                	lw	s0,12(sp)
    31f0:	0141                	addi	sp,sp,16
    31f2:	8082                	ret

000031f4 <DisableGlobalIRQ>:
DisableGlobalIRQ():
C:\Users\windows\Desktop\smart_car\MASTER\obj/../Libraries/seekfree_libraries/zf_nvic.c:90
//  @return     void
//  @since      v1.0
//  Sample usage:
//-------------------------------------------------------------------------------------------------------------------
uint8 DisableGlobalIRQ(void)
{
    31f4:	1101                	addi	sp,sp,-32
    31f6:	ce06                	sw	ra,28(sp)
    31f8:	cc22                	sw	s0,24(sp)
    31fa:	1000                	addi	s0,sp,32
C:\Users\windows\Desktop\smart_car\MASTER\obj/../Libraries/seekfree_libraries/zf_nvic.c:92
    uint8 state;
    irq_status.flag = 1;
    31fc:	92418793          	addi	a5,gp,-1756 # 20000194 <irq_status>
    3200:	4705                	li	a4,1
    3202:	00e78423          	sb	a4,8(a5)
C:\Users\windows\Desktop\smart_car\MASTER\obj/../Libraries/seekfree_libraries/zf_nvic.c:93
    if((irq_status.ienr0 == 0) && (irq_status.ienr1 == 0))   state = 0;  //没有就返回0
    3206:	9241a783          	lw	a5,-1756(gp) # 20000194 <irq_status>
    320a:	eb81                	bnez	a5,321a <DisableGlobalIRQ+0x26>
C:\Users\windows\Desktop\smart_car\MASTER\obj/../Libraries/seekfree_libraries/zf_nvic.c:93 (discriminator 1)
    320c:	92418793          	addi	a5,gp,-1756 # 20000194 <irq_status>
    3210:	43dc                	lw	a5,4(a5)
    3212:	e781                	bnez	a5,321a <DisableGlobalIRQ+0x26>
C:\Users\windows\Desktop\smart_car\MASTER\obj/../Libraries/seekfree_libraries/zf_nvic.c:93 (discriminator 2)
    3214:	fe0407a3          	sb	zero,-17(s0)
    3218:	a021                	j	3220 <DisableGlobalIRQ+0x2c>
C:\Users\windows\Desktop\smart_car\MASTER\obj/../Libraries/seekfree_libraries/zf_nvic.c:94
    else state = 1;  //有中断就返回1
    321a:	4785                	li	a5,1
    321c:	fef407a3          	sb	a5,-17(s0)
C:\Users\windows\Desktop\smart_car\MASTER\obj/../Libraries/seekfree_libraries/zf_nvic.c:95
    close_all_irq();
    3220:	3769                	jal	31aa <close_all_irq>
C:\Users\windows\Desktop\smart_car\MASTER\obj/../Libraries/seekfree_libraries/zf_nvic.c:96
    return state;
    3222:	fef44783          	lbu	a5,-17(s0)
C:\Users\windows\Desktop\smart_car\MASTER\obj/../Libraries/seekfree_libraries/zf_nvic.c:97
}
    3226:	853e                	mv	a0,a5
    3228:	40f2                	lw	ra,28(sp)
    322a:	4462                	lw	s0,24(sp)
    322c:	6105                	addi	sp,sp,32
    322e:	8082                	ret

00003230 <EnableGlobalIRQ>:
EnableGlobalIRQ():
C:\Users\windows\Desktop\smart_car\MASTER\obj/../Libraries/seekfree_libraries/zf_nvic.c:107
//  @return     void
//  @since      v1.0
//  Sample usage:
//-------------------------------------------------------------------------------------------------------------------
void EnableGlobalIRQ(uint8 state)
{
    3230:	1101                	addi	sp,sp,-32
    3232:	ce06                	sw	ra,28(sp)
    3234:	cc22                	sw	s0,24(sp)
    3236:	1000                	addi	s0,sp,32
    3238:	87aa                	mv	a5,a0
    323a:	fef407a3          	sb	a5,-17(s0)
C:\Users\windows\Desktop\smart_car\MASTER\obj/../Libraries/seekfree_libraries/zf_nvic.c:108
    if(state == 0)
    323e:	fef44783          	lbu	a5,-17(s0)
    3242:	e791                	bnez	a5,324e <EnableGlobalIRQ+0x1e>
C:\Users\windows\Desktop\smart_car\MASTER\obj/../Libraries/seekfree_libraries/zf_nvic.c:110
    {
        irq_status.flag = 0;
    3244:	92418793          	addi	a5,gp,-1756 # 20000194 <irq_status>
    3248:	00078423          	sb	zero,8(a5)
C:\Users\windows\Desktop\smart_car\MASTER\obj/../Libraries/seekfree_libraries/zf_nvic.c:111
        sys_recover_irq();
    324c:	3741                	jal	31cc <sys_recover_irq>
C:\Users\windows\Desktop\smart_car\MASTER\obj/../Libraries/seekfree_libraries/zf_nvic.c:113
    }
}
    324e:	0001                	nop
    3250:	40f2                	lw	ra,28(sp)
    3252:	4462                	lw	s0,24(sp)
    3254:	6105                	addi	sp,sp,32
    3256:	8082                	ret

00003258 <pwm_gpio_init>:
pwm_gpio_init():
C:\Users\windows\Desktop\smart_car\MASTER\obj/../Libraries/seekfree_libraries/zf_pwm.c:35
//  @param      pwmch       PWM通道(可选择范围由zf_pwm.h内PWMCH_enum枚举值确定)
//  @return     void
//  Sample usage:           内部使用  用户无需关心
//-------------------------------------------------------------------------------------------------------------------
void pwm_gpio_init(PWMCH_enum pwmch)
{
    3258:	1101                	addi	sp,sp,-32
    325a:	ce06                	sw	ra,28(sp)
    325c:	cc22                	sw	s0,24(sp)
    325e:	1000                	addi	s0,sp,32
    3260:	fea42623          	sw	a0,-20(s0)
    3264:	fec42703          	lw	a4,-20(s0)
    3268:	20000793          	li	a5,512
    326c:	24f70763          	beq	a4,a5,34ba <pwm_gpio_init+0x262>
    3270:	fec42703          	lw	a4,-20(s0)
    3274:	20000793          	li	a5,512
    3278:	0ae7ea63          	bltu	a5,a4,332c <pwm_gpio_init+0xd4>
    327c:	fec42703          	lw	a4,-20(s0)
    3280:	10100793          	li	a5,257
    3284:	1cf70063          	beq	a4,a5,3444 <pwm_gpio_init+0x1ec>
    3288:	fec42703          	lw	a4,-20(s0)
    328c:	10100793          	li	a5,257
    3290:	04e7e263          	bltu	a5,a4,32d4 <pwm_gpio_init+0x7c>
    3294:	fec42703          	lw	a4,-20(s0)
    3298:	4789                	li	a5,2
    329a:	16f70d63          	beq	a4,a5,3414 <pwm_gpio_init+0x1bc>
    329e:	fec42703          	lw	a4,-20(s0)
    32a2:	4789                	li	a5,2
    32a4:	00e7ec63          	bltu	a5,a4,32bc <pwm_gpio_init+0x64>
    32a8:	fec42783          	lw	a5,-20(s0)
    32ac:	14078463          	beqz	a5,33f4 <pwm_gpio_init+0x19c>
    32b0:	fec42703          	lw	a4,-20(s0)
    32b4:	4785                	li	a5,1
    32b6:	14f70763          	beq	a4,a5,3404 <pwm_gpio_init+0x1ac>
C:\Users\windows\Desktop\smart_car\MASTER\obj/../Libraries/seekfree_libraries/zf_pwm.c:145
        case PWM4_CH4_B9:
            gpio_init(B9, GPO, 0, SPEED_50MHZ|OUT_AF_PP);
            break;
        default:
            //断言
            break;
    32ba:	ace5                	j	35b2 <pwm_gpio_init+0x35a>
    32bc:	fec42703          	lw	a4,-20(s0)
    32c0:	478d                	li	a5,3
    32c2:	16f70163          	beq	a4,a5,3424 <pwm_gpio_init+0x1cc>
    32c6:	fec42703          	lw	a4,-20(s0)
    32ca:	10000793          	li	a5,256
    32ce:	16f70363          	beq	a4,a5,3434 <pwm_gpio_init+0x1dc>
    32d2:	a4c5                	j	35b2 <pwm_gpio_init+0x35a>
    32d4:	fec42703          	lw	a4,-20(s0)
    32d8:	11000793          	li	a5,272
    32dc:	18f70c63          	beq	a4,a5,3474 <pwm_gpio_init+0x21c>
    32e0:	fec42703          	lw	a4,-20(s0)
    32e4:	11000793          	li	a5,272
    32e8:	00e7ef63          	bltu	a5,a4,3306 <pwm_gpio_init+0xae>
    32ec:	fec42703          	lw	a4,-20(s0)
    32f0:	10200793          	li	a5,258
    32f4:	16f70063          	beq	a4,a5,3454 <pwm_gpio_init+0x1fc>
    32f8:	fec42703          	lw	a4,-20(s0)
    32fc:	10300793          	li	a5,259
    3300:	16f70263          	beq	a4,a5,3464 <pwm_gpio_init+0x20c>
    3304:	a47d                	j	35b2 <pwm_gpio_init+0x35a>
    3306:	fec42703          	lw	a4,-20(s0)
    330a:	11200793          	li	a5,274
    330e:	18f70463          	beq	a4,a5,3496 <pwm_gpio_init+0x23e>
    3312:	fec42703          	lw	a4,-20(s0)
    3316:	11200793          	li	a5,274
    331a:	16f76563          	bltu	a4,a5,3484 <pwm_gpio_init+0x22c>
    331e:	fec42703          	lw	a4,-20(s0)
    3322:	11300793          	li	a5,275
    3326:	18f70163          	beq	a4,a5,34a8 <pwm_gpio_init+0x250>
    332a:	a461                	j	35b2 <pwm_gpio_init+0x35a>
    332c:	fec42703          	lw	a4,-20(s0)
    3330:	21300793          	li	a5,531
    3334:	20f70063          	beq	a4,a5,3534 <pwm_gpio_init+0x2dc>
    3338:	fec42703          	lw	a4,-20(s0)
    333c:	21300793          	li	a5,531
    3340:	04e7ee63          	bltu	a5,a4,339c <pwm_gpio_init+0x144>
    3344:	fec42703          	lw	a4,-20(s0)
    3348:	20300793          	li	a5,515
    334c:	1af70063          	beq	a4,a5,34ec <pwm_gpio_init+0x294>
    3350:	fec42703          	lw	a4,-20(s0)
    3354:	20300793          	li	a5,515
    3358:	00e7ef63          	bltu	a5,a4,3376 <pwm_gpio_init+0x11e>
    335c:	fec42703          	lw	a4,-20(s0)
    3360:	20100793          	li	a5,513
    3364:	16f70363          	beq	a4,a5,34ca <pwm_gpio_init+0x272>
    3368:	fec42703          	lw	a4,-20(s0)
    336c:	20200793          	li	a5,514
    3370:	16f70563          	beq	a4,a5,34da <pwm_gpio_init+0x282>
    3374:	ac3d                	j	35b2 <pwm_gpio_init+0x35a>
    3376:	fec42703          	lw	a4,-20(s0)
    337a:	21100793          	li	a5,529
    337e:	18f70963          	beq	a4,a5,3510 <pwm_gpio_init+0x2b8>
    3382:	fec42703          	lw	a4,-20(s0)
    3386:	21100793          	li	a5,529
    338a:	18e7ec63          	bltu	a5,a4,3522 <pwm_gpio_init+0x2ca>
    338e:	fec42703          	lw	a4,-20(s0)
    3392:	21000793          	li	a5,528
    3396:	16f70463          	beq	a4,a5,34fe <pwm_gpio_init+0x2a6>
    339a:	ac21                	j	35b2 <pwm_gpio_init+0x35a>
    339c:	fec42703          	lw	a4,-20(s0)
    33a0:	30000793          	li	a5,768
    33a4:	1cf70363          	beq	a4,a5,356a <pwm_gpio_init+0x312>
    33a8:	fec42703          	lw	a4,-20(s0)
    33ac:	30000793          	li	a5,768
    33b0:	00e7ef63          	bltu	a5,a4,33ce <pwm_gpio_init+0x176>
    33b4:	fec42703          	lw	a4,-20(s0)
    33b8:	22000793          	li	a5,544
    33bc:	18f70563          	beq	a4,a5,3546 <pwm_gpio_init+0x2ee>
    33c0:	fec42703          	lw	a4,-20(s0)
    33c4:	22100793          	li	a5,545
    33c8:	18f70863          	beq	a4,a5,3558 <pwm_gpio_init+0x300>
    33cc:	a2dd                	j	35b2 <pwm_gpio_init+0x35a>
    33ce:	fec42703          	lw	a4,-20(s0)
    33d2:	30200793          	li	a5,770
    33d6:	1af70c63          	beq	a4,a5,358e <pwm_gpio_init+0x336>
    33da:	fec42703          	lw	a4,-20(s0)
    33de:	30200793          	li	a5,770
    33e2:	18f76d63          	bltu	a4,a5,357c <pwm_gpio_init+0x324>
    33e6:	fec42703          	lw	a4,-20(s0)
    33ea:	30300793          	li	a5,771
    33ee:	1af70963          	beq	a4,a5,35a0 <pwm_gpio_init+0x348>
    33f2:	a2c1                	j	35b2 <pwm_gpio_init+0x35a>
C:\Users\windows\Desktop\smart_car\MASTER\obj/../Libraries/seekfree_libraries/zf_pwm.c:40
            gpio_init(A8, GPO, 0, SPEED_50MHZ|OUT_AF_PP);
    33f4:	31800693          	li	a3,792
    33f8:	4601                	li	a2,0
    33fa:	4585                	li	a1,1
    33fc:	4521                	li	a0,8
    33fe:	a73ff0ef          	jal	ra,2e70 <gpio_init>
C:\Users\windows\Desktop\smart_car\MASTER\obj/../Libraries/seekfree_libraries/zf_pwm.c:41
            break;
    3402:	aa45                	j	35b2 <pwm_gpio_init+0x35a>
C:\Users\windows\Desktop\smart_car\MASTER\obj/../Libraries/seekfree_libraries/zf_pwm.c:43
            gpio_init(A9, GPO, 0, SPEED_50MHZ|OUT_AF_PP);
    3404:	31800693          	li	a3,792
    3408:	4601                	li	a2,0
    340a:	4585                	li	a1,1
    340c:	4525                	li	a0,9
    340e:	a63ff0ef          	jal	ra,2e70 <gpio_init>
C:\Users\windows\Desktop\smart_car\MASTER\obj/../Libraries/seekfree_libraries/zf_pwm.c:44
            break;
    3412:	a245                	j	35b2 <pwm_gpio_init+0x35a>
C:\Users\windows\Desktop\smart_car\MASTER\obj/../Libraries/seekfree_libraries/zf_pwm.c:46
            gpio_init(A10, GPO, 0, SPEED_50MHZ|OUT_AF_PP);
    3414:	31800693          	li	a3,792
    3418:	4601                	li	a2,0
    341a:	4585                	li	a1,1
    341c:	4529                	li	a0,10
    341e:	a53ff0ef          	jal	ra,2e70 <gpio_init>
C:\Users\windows\Desktop\smart_car\MASTER\obj/../Libraries/seekfree_libraries/zf_pwm.c:47
            break;
    3422:	aa41                	j	35b2 <pwm_gpio_init+0x35a>
C:\Users\windows\Desktop\smart_car\MASTER\obj/../Libraries/seekfree_libraries/zf_pwm.c:49
            gpio_init(A11, GPO, 0, SPEED_50MHZ|OUT_AF_PP);
    3424:	31800693          	li	a3,792
    3428:	4601                	li	a2,0
    342a:	4585                	li	a1,1
    342c:	452d                	li	a0,11
    342e:	a43ff0ef          	jal	ra,2e70 <gpio_init>
C:\Users\windows\Desktop\smart_car\MASTER\obj/../Libraries/seekfree_libraries/zf_pwm.c:50
            break;
    3432:	a241                	j	35b2 <pwm_gpio_init+0x35a>
C:\Users\windows\Desktop\smart_car\MASTER\obj/../Libraries/seekfree_libraries/zf_pwm.c:73
            gpio_init(A0, GPO, 0, SPEED_50MHZ|OUT_AF_PP);
    3434:	31800693          	li	a3,792
    3438:	4601                	li	a2,0
    343a:	4585                	li	a1,1
    343c:	4501                	li	a0,0
    343e:	a33ff0ef          	jal	ra,2e70 <gpio_init>
C:\Users\windows\Desktop\smart_car\MASTER\obj/../Libraries/seekfree_libraries/zf_pwm.c:74
            break;
    3442:	aa85                	j	35b2 <pwm_gpio_init+0x35a>
C:\Users\windows\Desktop\smart_car\MASTER\obj/../Libraries/seekfree_libraries/zf_pwm.c:76
            gpio_init(A1, GPO, 0, SPEED_50MHZ|OUT_AF_PP);
    3444:	31800693          	li	a3,792
    3448:	4601                	li	a2,0
    344a:	4585                	li	a1,1
    344c:	4505                	li	a0,1
    344e:	a23ff0ef          	jal	ra,2e70 <gpio_init>
C:\Users\windows\Desktop\smart_car\MASTER\obj/../Libraries/seekfree_libraries/zf_pwm.c:77
            break;
    3452:	a285                	j	35b2 <pwm_gpio_init+0x35a>
C:\Users\windows\Desktop\smart_car\MASTER\obj/../Libraries/seekfree_libraries/zf_pwm.c:79
            gpio_init(A2, GPO, 0, SPEED_50MHZ|OUT_AF_PP);
    3454:	31800693          	li	a3,792
    3458:	4601                	li	a2,0
    345a:	4585                	li	a1,1
    345c:	4509                	li	a0,2
    345e:	a13ff0ef          	jal	ra,2e70 <gpio_init>
C:\Users\windows\Desktop\smart_car\MASTER\obj/../Libraries/seekfree_libraries/zf_pwm.c:80
            break;
    3462:	aa81                	j	35b2 <pwm_gpio_init+0x35a>
C:\Users\windows\Desktop\smart_car\MASTER\obj/../Libraries/seekfree_libraries/zf_pwm.c:82
            gpio_init(A3, GPO, 0, SPEED_50MHZ|OUT_AF_PP);
    3464:	31800693          	li	a3,792
    3468:	4601                	li	a2,0
    346a:	4585                	li	a1,1
    346c:	450d                	li	a0,3
    346e:	a03ff0ef          	jal	ra,2e70 <gpio_init>
C:\Users\windows\Desktop\smart_car\MASTER\obj/../Libraries/seekfree_libraries/zf_pwm.c:83
            break;
    3472:	a281                	j	35b2 <pwm_gpio_init+0x35a>
C:\Users\windows\Desktop\smart_car\MASTER\obj/../Libraries/seekfree_libraries/zf_pwm.c:86
            gpio_init(A15, GPO, 0, SPEED_50MHZ|OUT_AF_PP);
    3474:	31800693          	li	a3,792
    3478:	4601                	li	a2,0
    347a:	4585                	li	a1,1
    347c:	453d                	li	a0,15
    347e:	9f3ff0ef          	jal	ra,2e70 <gpio_init>
C:\Users\windows\Desktop\smart_car\MASTER\obj/../Libraries/seekfree_libraries/zf_pwm.c:87
            break;
    3482:	aa05                	j	35b2 <pwm_gpio_init+0x35a>
C:\Users\windows\Desktop\smart_car\MASTER\obj/../Libraries/seekfree_libraries/zf_pwm.c:89
            gpio_init(B3, GPO, 0, SPEED_50MHZ|OUT_AF_PP);
    3484:	31800693          	li	a3,792
    3488:	4601                	li	a2,0
    348a:	4585                	li	a1,1
    348c:	02300513          	li	a0,35
    3490:	9e1ff0ef          	jal	ra,2e70 <gpio_init>
C:\Users\windows\Desktop\smart_car\MASTER\obj/../Libraries/seekfree_libraries/zf_pwm.c:90
            break;
    3494:	aa39                	j	35b2 <pwm_gpio_init+0x35a>
C:\Users\windows\Desktop\smart_car\MASTER\obj/../Libraries/seekfree_libraries/zf_pwm.c:92
            gpio_init(B10, GPO, 0, SPEED_50MHZ|OUT_AF_PP);
    3496:	31800693          	li	a3,792
    349a:	4601                	li	a2,0
    349c:	4585                	li	a1,1
    349e:	02a00513          	li	a0,42
    34a2:	9cfff0ef          	jal	ra,2e70 <gpio_init>
C:\Users\windows\Desktop\smart_car\MASTER\obj/../Libraries/seekfree_libraries/zf_pwm.c:93
            break;
    34a6:	a231                	j	35b2 <pwm_gpio_init+0x35a>
C:\Users\windows\Desktop\smart_car\MASTER\obj/../Libraries/seekfree_libraries/zf_pwm.c:95
            gpio_init(B11, GPO, 0, SPEED_50MHZ|OUT_AF_PP);
    34a8:	31800693          	li	a3,792
    34ac:	4601                	li	a2,0
    34ae:	4585                	li	a1,1
    34b0:	02b00513          	li	a0,43
    34b4:	9bdff0ef          	jal	ra,2e70 <gpio_init>
C:\Users\windows\Desktop\smart_car\MASTER\obj/../Libraries/seekfree_libraries/zf_pwm.c:96
            break;
    34b8:	a8ed                	j	35b2 <pwm_gpio_init+0x35a>
C:\Users\windows\Desktop\smart_car\MASTER\obj/../Libraries/seekfree_libraries/zf_pwm.c:99
            gpio_init(A6, GPO, 0, SPEED_50MHZ|OUT_AF_PP);
    34ba:	31800693          	li	a3,792
    34be:	4601                	li	a2,0
    34c0:	4585                	li	a1,1
    34c2:	4519                	li	a0,6
    34c4:	9adff0ef          	jal	ra,2e70 <gpio_init>
C:\Users\windows\Desktop\smart_car\MASTER\obj/../Libraries/seekfree_libraries/zf_pwm.c:100
            break;
    34c8:	a0ed                	j	35b2 <pwm_gpio_init+0x35a>
C:\Users\windows\Desktop\smart_car\MASTER\obj/../Libraries/seekfree_libraries/zf_pwm.c:102
            gpio_init(A7, GPO, 0, SPEED_50MHZ|OUT_AF_PP);
    34ca:	31800693          	li	a3,792
    34ce:	4601                	li	a2,0
    34d0:	4585                	li	a1,1
    34d2:	451d                	li	a0,7
    34d4:	99dff0ef          	jal	ra,2e70 <gpio_init>
C:\Users\windows\Desktop\smart_car\MASTER\obj/../Libraries/seekfree_libraries/zf_pwm.c:103
            break;
    34d8:	a8e9                	j	35b2 <pwm_gpio_init+0x35a>
C:\Users\windows\Desktop\smart_car\MASTER\obj/../Libraries/seekfree_libraries/zf_pwm.c:105
            gpio_init(B0, GPO, 0, SPEED_50MHZ|OUT_AF_PP);
    34da:	31800693          	li	a3,792
    34de:	4601                	li	a2,0
    34e0:	4585                	li	a1,1
    34e2:	02000513          	li	a0,32
    34e6:	98bff0ef          	jal	ra,2e70 <gpio_init>
C:\Users\windows\Desktop\smart_car\MASTER\obj/../Libraries/seekfree_libraries/zf_pwm.c:106
            break;
    34ea:	a0e1                	j	35b2 <pwm_gpio_init+0x35a>
C:\Users\windows\Desktop\smart_car\MASTER\obj/../Libraries/seekfree_libraries/zf_pwm.c:108
            gpio_init(B1, GPO, 0, SPEED_50MHZ|OUT_AF_PP);
    34ec:	31800693          	li	a3,792
    34f0:	4601                	li	a2,0
    34f2:	4585                	li	a1,1
    34f4:	02100513          	li	a0,33
    34f8:	979ff0ef          	jal	ra,2e70 <gpio_init>
C:\Users\windows\Desktop\smart_car\MASTER\obj/../Libraries/seekfree_libraries/zf_pwm.c:109
            break;
    34fc:	a85d                	j	35b2 <pwm_gpio_init+0x35a>
C:\Users\windows\Desktop\smart_car\MASTER\obj/../Libraries/seekfree_libraries/zf_pwm.c:112
            gpio_init(C6, GPO, 0, SPEED_50MHZ|OUT_AF_PP);
    34fe:	31800693          	li	a3,792
    3502:	4601                	li	a2,0
    3504:	4585                	li	a1,1
    3506:	04600513          	li	a0,70
    350a:	967ff0ef          	jal	ra,2e70 <gpio_init>
C:\Users\windows\Desktop\smart_car\MASTER\obj/../Libraries/seekfree_libraries/zf_pwm.c:113
            break;
    350e:	a055                	j	35b2 <pwm_gpio_init+0x35a>
C:\Users\windows\Desktop\smart_car\MASTER\obj/../Libraries/seekfree_libraries/zf_pwm.c:115
            gpio_init(C7, GPO, 0, SPEED_50MHZ|OUT_AF_PP);
    3510:	31800693          	li	a3,792
    3514:	4601                	li	a2,0
    3516:	4585                	li	a1,1
    3518:	04700513          	li	a0,71
    351c:	955ff0ef          	jal	ra,2e70 <gpio_init>
C:\Users\windows\Desktop\smart_car\MASTER\obj/../Libraries/seekfree_libraries/zf_pwm.c:116
            break;
    3520:	a849                	j	35b2 <pwm_gpio_init+0x35a>
C:\Users\windows\Desktop\smart_car\MASTER\obj/../Libraries/seekfree_libraries/zf_pwm.c:118
            gpio_init(C8, GPO, 0, SPEED_50MHZ|OUT_AF_PP);
    3522:	31800693          	li	a3,792
    3526:	4601                	li	a2,0
    3528:	4585                	li	a1,1
    352a:	04800513          	li	a0,72
    352e:	943ff0ef          	jal	ra,2e70 <gpio_init>
C:\Users\windows\Desktop\smart_car\MASTER\obj/../Libraries/seekfree_libraries/zf_pwm.c:119
            break;
    3532:	a041                	j	35b2 <pwm_gpio_init+0x35a>
C:\Users\windows\Desktop\smart_car\MASTER\obj/../Libraries/seekfree_libraries/zf_pwm.c:121
            gpio_init(C9, GPO, 0, SPEED_50MHZ|OUT_AF_PP);
    3534:	31800693          	li	a3,792
    3538:	4601                	li	a2,0
    353a:	4585                	li	a1,1
    353c:	04900513          	li	a0,73
    3540:	931ff0ef          	jal	ra,2e70 <gpio_init>
C:\Users\windows\Desktop\smart_car\MASTER\obj/../Libraries/seekfree_libraries/zf_pwm.c:122
            break;
    3544:	a0bd                	j	35b2 <pwm_gpio_init+0x35a>
C:\Users\windows\Desktop\smart_car\MASTER\obj/../Libraries/seekfree_libraries/zf_pwm.c:125
            gpio_init(B4, GPO, 0, SPEED_50MHZ|OUT_AF_PP);
    3546:	31800693          	li	a3,792
    354a:	4601                	li	a2,0
    354c:	4585                	li	a1,1
    354e:	02400513          	li	a0,36
    3552:	91fff0ef          	jal	ra,2e70 <gpio_init>
C:\Users\windows\Desktop\smart_car\MASTER\obj/../Libraries/seekfree_libraries/zf_pwm.c:126
            break;
    3556:	a8b1                	j	35b2 <pwm_gpio_init+0x35a>
C:\Users\windows\Desktop\smart_car\MASTER\obj/../Libraries/seekfree_libraries/zf_pwm.c:128
            gpio_init(B5, GPO, 0, SPEED_50MHZ|OUT_AF_PP);
    3558:	31800693          	li	a3,792
    355c:	4601                	li	a2,0
    355e:	4585                	li	a1,1
    3560:	02500513          	li	a0,37
    3564:	90dff0ef          	jal	ra,2e70 <gpio_init>
C:\Users\windows\Desktop\smart_car\MASTER\obj/../Libraries/seekfree_libraries/zf_pwm.c:129
            break;
    3568:	a0a9                	j	35b2 <pwm_gpio_init+0x35a>
C:\Users\windows\Desktop\smart_car\MASTER\obj/../Libraries/seekfree_libraries/zf_pwm.c:132
            gpio_init(B6, GPO, 0, SPEED_50MHZ|OUT_AF_PP);
    356a:	31800693          	li	a3,792
    356e:	4601                	li	a2,0
    3570:	4585                	li	a1,1
    3572:	02600513          	li	a0,38
    3576:	8fbff0ef          	jal	ra,2e70 <gpio_init>
C:\Users\windows\Desktop\smart_car\MASTER\obj/../Libraries/seekfree_libraries/zf_pwm.c:133
            break;
    357a:	a825                	j	35b2 <pwm_gpio_init+0x35a>
C:\Users\windows\Desktop\smart_car\MASTER\obj/../Libraries/seekfree_libraries/zf_pwm.c:135
            gpio_init(B7, GPO, 0, SPEED_50MHZ|OUT_AF_PP);
    357c:	31800693          	li	a3,792
    3580:	4601                	li	a2,0
    3582:	4585                	li	a1,1
    3584:	02700513          	li	a0,39
    3588:	8e9ff0ef          	jal	ra,2e70 <gpio_init>
C:\Users\windows\Desktop\smart_car\MASTER\obj/../Libraries/seekfree_libraries/zf_pwm.c:136
            break;
    358c:	a01d                	j	35b2 <pwm_gpio_init+0x35a>
C:\Users\windows\Desktop\smart_car\MASTER\obj/../Libraries/seekfree_libraries/zf_pwm.c:138
            gpio_init(B8, GPO, 0, SPEED_50MHZ|OUT_AF_PP);
    358e:	31800693          	li	a3,792
    3592:	4601                	li	a2,0
    3594:	4585                	li	a1,1
    3596:	02800513          	li	a0,40
    359a:	8d7ff0ef          	jal	ra,2e70 <gpio_init>
C:\Users\windows\Desktop\smart_car\MASTER\obj/../Libraries/seekfree_libraries/zf_pwm.c:139
            break;
    359e:	a811                	j	35b2 <pwm_gpio_init+0x35a>
C:\Users\windows\Desktop\smart_car\MASTER\obj/../Libraries/seekfree_libraries/zf_pwm.c:141
            gpio_init(B9, GPO, 0, SPEED_50MHZ|OUT_AF_PP);
    35a0:	31800693          	li	a3,792
    35a4:	4601                	li	a2,0
    35a6:	4585                	li	a1,1
    35a8:	02900513          	li	a0,41
    35ac:	8c5ff0ef          	jal	ra,2e70 <gpio_init>
C:\Users\windows\Desktop\smart_car\MASTER\obj/../Libraries/seekfree_libraries/zf_pwm.c:142
            break;
    35b0:	0001                	nop
C:\Users\windows\Desktop\smart_car\MASTER\obj/../Libraries/seekfree_libraries/zf_pwm.c:147
    }
}
    35b2:	0001                	nop
    35b4:	40f2                	lw	ra,28(sp)
    35b6:	4462                	lw	s0,24(sp)
    35b8:	6105                	addi	sp,sp,32
    35ba:	8082                	ret

000035bc <pwm_init>:
pwm_init():
C:\Users\windows\Desktop\smart_car\MASTER\obj/../Libraries/seekfree_libraries/zf_pwm.c:165
//  @return     void
//  Sample usage:               pwm_init(PWM1_CH1_A8, 50, 5000);   //初始化PWM1 通道1 使用引脚A8  输出PWM频率50HZ   占空比为百分之 5000/PWM_DUTY_MAX*100
//                              PWM_DUTY_MAX在zf_pwm.h文件中 默认为50000
//-------------------------------------------------------------------------------------------------------------------
void pwm_init(PWMCH_enum pwmch, uint32 freq, uint32 duty)
{
    35bc:	7139                	addi	sp,sp,-64
    35be:	de06                	sw	ra,60(sp)
    35c0:	dc22                	sw	s0,56(sp)
    35c2:	0080                	addi	s0,sp,64
    35c4:	fca42623          	sw	a0,-52(s0)
    35c8:	fcb42423          	sw	a1,-56(s0)
    35cc:	fcc42223          	sw	a2,-60(s0)
C:\Users\windows\Desktop\smart_car\MASTER\obj/../Libraries/seekfree_libraries/zf_pwm.c:170
    TIM_TimeBaseInitTypeDef  TIM_TimeBaseStructure;
    TIM_OCInitTypeDef  TIM_OCInitStructure;
    uint16 match_temp;                                          //占空比值
    uint16 period_temp;                                         //周期值
    uint16 freq_div = 0;                                        //分频值
    35d0:	fe041723          	sh	zero,-18(s0)
C:\Users\windows\Desktop\smart_car\MASTER\obj/../Libraries/seekfree_libraries/zf_pwm.c:172

    pwm_gpio_init(pwmch);                                       //PWM引脚初始化
    35d4:	fcc42503          	lw	a0,-52(s0)
    35d8:	c81ff0ef          	jal	ra,3258 <pwm_gpio_init>
C:\Users\windows\Desktop\smart_car\MASTER\obj/../Libraries/seekfree_libraries/zf_pwm.c:174

    if((pwmch >> 8) == 0x00)
    35dc:	fcc42783          	lw	a5,-52(s0)
    35e0:	83a1                	srli	a5,a5,0x8
    35e2:	eb81                	bnez	a5,35f2 <pwm_init+0x36>
C:\Users\windows\Desktop\smart_car\MASTER\obj/../Libraries/seekfree_libraries/zf_pwm.c:175
        RCC_APB2PeriphClockCmd(RCC_APB2Periph_TIM1, ENABLE);    //使能定时器1时钟
    35e4:	4585                	li	a1,1
    35e6:	6785                	lui	a5,0x1
    35e8:	80078513          	addi	a0,a5,-2048 # 800 <__stack_size>
    35ec:	f4ffd0ef          	jal	ra,153a <RCC_APB2PeriphClockCmd>
    35f0:	a0a1                	j	3638 <pwm_init+0x7c>
C:\Users\windows\Desktop\smart_car\MASTER\obj/../Libraries/seekfree_libraries/zf_pwm.c:176
    else if((pwmch >> 8) == 0x01)
    35f2:	fcc42783          	lw	a5,-52(s0)
    35f6:	0087d713          	srli	a4,a5,0x8
    35fa:	4785                	li	a5,1
    35fc:	00f71763          	bne	a4,a5,360a <pwm_init+0x4e>
C:\Users\windows\Desktop\smart_car\MASTER\obj/../Libraries/seekfree_libraries/zf_pwm.c:177
        RCC_APB1PeriphClockCmd(RCC_APB1Periph_TIM2, ENABLE);    //使能定时器2时钟
    3600:	4585                	li	a1,1
    3602:	4505                	li	a0,1
    3604:	f7dfd0ef          	jal	ra,1580 <RCC_APB1PeriphClockCmd>
    3608:	a805                	j	3638 <pwm_init+0x7c>
C:\Users\windows\Desktop\smart_car\MASTER\obj/../Libraries/seekfree_libraries/zf_pwm.c:178
    else if((pwmch >> 8) == 0x02)
    360a:	fcc42783          	lw	a5,-52(s0)
    360e:	0087d713          	srli	a4,a5,0x8
    3612:	4789                	li	a5,2
    3614:	00f71763          	bne	a4,a5,3622 <pwm_init+0x66>
C:\Users\windows\Desktop\smart_car\MASTER\obj/../Libraries/seekfree_libraries/zf_pwm.c:179
        RCC_APB1PeriphClockCmd(RCC_APB1Periph_TIM3, ENABLE);    //使能定时器3时钟
    3618:	4585                	li	a1,1
    361a:	4509                	li	a0,2
    361c:	f65fd0ef          	jal	ra,1580 <RCC_APB1PeriphClockCmd>
    3620:	a821                	j	3638 <pwm_init+0x7c>
C:\Users\windows\Desktop\smart_car\MASTER\obj/../Libraries/seekfree_libraries/zf_pwm.c:180
    else if((pwmch >> 8) == 0x03)
    3622:	fcc42783          	lw	a5,-52(s0)
    3626:	0087d713          	srli	a4,a5,0x8
    362a:	478d                	li	a5,3
    362c:	00f71663          	bne	a4,a5,3638 <pwm_init+0x7c>
C:\Users\windows\Desktop\smart_car\MASTER\obj/../Libraries/seekfree_libraries/zf_pwm.c:181
        RCC_APB1PeriphClockCmd(RCC_APB1Periph_TIM4, ENABLE);    //使能定时器4时钟
    3630:	4585                	li	a1,1
    3632:	4511                	li	a0,4
    3634:	f4dfd0ef          	jal	ra,1580 <RCC_APB1PeriphClockCmd>
C:\Users\windows\Desktop\smart_car\MASTER\obj/../Libraries/seekfree_libraries/zf_pwm.c:183

    RCC_APB2PeriphClockCmd(RCC_APB2Periph_AFIO, ENABLE);        //使能AFIO复用功能模块时钟
    3638:	4585                	li	a1,1
    363a:	4505                	li	a0,1
    363c:	efffd0ef          	jal	ra,153a <RCC_APB2PeriphClockCmd>
C:\Users\windows\Desktop\smart_car\MASTER\obj/../Libraries/seekfree_libraries/zf_pwm.c:186

    //引脚重映射
    if((pwmch >> 4) == 0x10)        //PWM1的部分重映射
    3640:	fcc42783          	lw	a5,-52(s0)
    3644:	0047d713          	srli	a4,a5,0x4
    3648:	47c1                	li	a5,16
    364a:	00f71a63          	bne	a4,a5,365e <pwm_init+0xa2>
C:\Users\windows\Desktop\smart_car\MASTER\obj/../Libraries/seekfree_libraries/zf_pwm.c:187
        GPIO_PinRemapConfig(GPIO_PartialRemap_TIM1, ENABLE);
    364e:	4585                	li	a1,1
    3650:	001607b7          	lui	a5,0x160
    3654:	04078513          	addi	a0,a5,64 # 160040 <_data_lma+0x1592d8>
    3658:	999fd0ef          	jal	ra,ff0 <GPIO_PinRemapConfig>
    365c:	a8b9                	j	36ba <pwm_init+0xfe>
C:\Users\windows\Desktop\smart_car\MASTER\obj/../Libraries/seekfree_libraries/zf_pwm.c:188
    else if((pwmch >> 4) == 0x11)   //PWM2的完全重映射
    365e:	fcc42783          	lw	a5,-52(s0)
    3662:	0047d713          	srli	a4,a5,0x4
    3666:	47c5                	li	a5,17
    3668:	00f71a63          	bne	a4,a5,367c <pwm_init+0xc0>
C:\Users\windows\Desktop\smart_car\MASTER\obj/../Libraries/seekfree_libraries/zf_pwm.c:189
        GPIO_PinRemapConfig(GPIO_FullRemap_TIM2, ENABLE);
    366c:	4585                	li	a1,1
    366e:	001807b7          	lui	a5,0x180
    3672:	30078513          	addi	a0,a5,768 # 180300 <_data_lma+0x179598>
    3676:	97bfd0ef          	jal	ra,ff0 <GPIO_PinRemapConfig>
    367a:	a081                	j	36ba <pwm_init+0xfe>
C:\Users\windows\Desktop\smart_car\MASTER\obj/../Libraries/seekfree_libraries/zf_pwm.c:190
    else if((pwmch >> 4) == 0x21)   //PWM3的完全重映射
    367c:	fcc42783          	lw	a5,-52(s0)
    3680:	0047d713          	srli	a4,a5,0x4
    3684:	02100793          	li	a5,33
    3688:	00f71a63          	bne	a4,a5,369c <pwm_init+0xe0>
C:\Users\windows\Desktop\smart_car\MASTER\obj/../Libraries/seekfree_libraries/zf_pwm.c:191
        GPIO_PinRemapConfig(GPIO_FullRemap_TIM3, ENABLE);
    368c:	4585                	li	a1,1
    368e:	001a17b7          	lui	a5,0x1a1
    3692:	c0078513          	addi	a0,a5,-1024 # 1a0c00 <_data_lma+0x199e98>
    3696:	95bfd0ef          	jal	ra,ff0 <GPIO_PinRemapConfig>
    369a:	a005                	j	36ba <pwm_init+0xfe>
C:\Users\windows\Desktop\smart_car\MASTER\obj/../Libraries/seekfree_libraries/zf_pwm.c:192
    else if((pwmch >> 4) == 0x22)   //PWM3的部分重映射
    369c:	fcc42783          	lw	a5,-52(s0)
    36a0:	0047d713          	srli	a4,a5,0x4
    36a4:	02200793          	li	a5,34
    36a8:	00f71963          	bne	a4,a5,36ba <pwm_init+0xfe>
C:\Users\windows\Desktop\smart_car\MASTER\obj/../Libraries/seekfree_libraries/zf_pwm.c:193
        GPIO_PinRemapConfig(GPIO_PartialRemap_TIM3, ENABLE);
    36ac:	4585                	li	a1,1
    36ae:	001a17b7          	lui	a5,0x1a1
    36b2:	80078513          	addi	a0,a5,-2048 # 1a0800 <_data_lma+0x199a98>
    36b6:	93bfd0ef          	jal	ra,ff0 <GPIO_PinRemapConfig>
C:\Users\windows\Desktop\smart_car\MASTER\obj/../Libraries/seekfree_libraries/zf_pwm.c:196

    //获取系统主频
    sys_clk = 8000000 * (((RCC->CFGR0 >> 18)&0x0F) + 2);
    36ba:	400217b7          	lui	a5,0x40021
    36be:	43dc                	lw	a5,4(a5)
    36c0:	83c9                	srli	a5,a5,0x12
    36c2:	00f7f713          	andi	a4,a5,15
    36c6:	007a17b7          	lui	a5,0x7a1
    36ca:	20078793          	addi	a5,a5,512 # 7a1200 <_data_lma+0x79a498>
    36ce:	02f70733          	mul	a4,a4,a5
    36d2:	00f427b7          	lui	a5,0xf42
    36d6:	40078793          	addi	a5,a5,1024 # f42400 <_data_lma+0xf3b698>
    36da:	973e                	add	a4,a4,a5
    36dc:	84e1a223          	sw	a4,-1980(gp) # 200000b4 <sys_clk>
C:\Users\windows\Desktop\smart_car\MASTER\obj/../Libraries/seekfree_libraries/zf_pwm.c:198

    freq_div = (uint16)((sys_clk / freq) >> 16);                            //多少分频
    36e0:	8441a703          	lw	a4,-1980(gp) # 200000b4 <sys_clk>
    36e4:	fc842783          	lw	a5,-56(s0)
    36e8:	02f757b3          	divu	a5,a4,a5
    36ec:	83c1                	srli	a5,a5,0x10
    36ee:	fef41723          	sh	a5,-18(s0)
C:\Users\windows\Desktop\smart_car\MASTER\obj/../Libraries/seekfree_libraries/zf_pwm.c:199
    period_temp = (uint16)(sys_clk/(freq*(freq_div + 1)));                  //周期
    36f2:	8441a703          	lw	a4,-1980(gp) # 200000b4 <sys_clk>
    36f6:	fee45783          	lhu	a5,-18(s0)
    36fa:	0785                	addi	a5,a5,1
    36fc:	86be                	mv	a3,a5
    36fe:	fc842783          	lw	a5,-56(s0)
    3702:	02f687b3          	mul	a5,a3,a5
    3706:	02f757b3          	divu	a5,a4,a5
    370a:	fef41623          	sh	a5,-20(s0)
C:\Users\windows\Desktop\smart_car\MASTER\obj/../Libraries/seekfree_libraries/zf_pwm.c:200
    match_temp = period_temp * duty / PWM_DUTY_MAX;                         //占空比
    370e:	fec45703          	lhu	a4,-20(s0)
    3712:	fc442783          	lw	a5,-60(s0)
    3716:	02f70733          	mul	a4,a4,a5
    371a:	6789                	lui	a5,0x2
    371c:	71078793          	addi	a5,a5,1808 # 2710 <USART_GetFlagStatus+0x38>
    3720:	02f757b3          	divu	a5,a4,a5
    3724:	fef41523          	sh	a5,-22(s0)
C:\Users\windows\Desktop\smart_car\MASTER\obj/../Libraries/seekfree_libraries/zf_pwm.c:203

    //初始化TIM1-4
    TIM_TimeBaseStructure.TIM_Period = period_temp - 1;                     //设置在下一个更新事件装入活动的自动重装载寄存器周期的值
    3728:	fec45783          	lhu	a5,-20(s0)
    372c:	17fd                	addi	a5,a5,-1
    372e:	07c2                	slli	a5,a5,0x10
    3730:	83c1                	srli	a5,a5,0x10
    3732:	fef41223          	sh	a5,-28(s0)
C:\Users\windows\Desktop\smart_car\MASTER\obj/../Libraries/seekfree_libraries/zf_pwm.c:204
    TIM_TimeBaseStructure.TIM_Prescaler = freq_div;                         //设置用来作为TIMx时钟频率除数的预分频值
    3736:	fee45783          	lhu	a5,-18(s0)
    373a:	fef41023          	sh	a5,-32(s0)
C:\Users\windows\Desktop\smart_car\MASTER\obj/../Libraries/seekfree_libraries/zf_pwm.c:205
    TIM_TimeBaseStructure.TIM_ClockDivision = TIM_CKD_DIV1;                 //设置时钟分割:TDTS = Tck_tim
    373e:	fe041323          	sh	zero,-26(s0)
C:\Users\windows\Desktop\smart_car\MASTER\obj/../Libraries/seekfree_libraries/zf_pwm.c:206
    TIM_TimeBaseStructure.TIM_CounterMode = TIM_CounterMode_Up;             //TIM向上计数模式
    3742:	fe041123          	sh	zero,-30(s0)
C:\Users\windows\Desktop\smart_car\MASTER\obj/../Libraries/seekfree_libraries/zf_pwm.c:207
    TIM_TimeBaseStructure.TIM_RepetitionCounter = 0;
    3746:	fe040423          	sb	zero,-24(s0)
C:\Users\windows\Desktop\smart_car\MASTER\obj/../Libraries/seekfree_libraries/zf_pwm.c:210

    //初始化TIM1-4 PWM模式
    TIM_OCInitStructure.TIM_OCMode = TIM_OCMode_PWM2;                       //选择定时器模式:TIM脉冲宽度调制模式2
    374a:	07000793          	li	a5,112
    374e:	fcf41823          	sh	a5,-48(s0)
C:\Users\windows\Desktop\smart_car\MASTER\obj/../Libraries/seekfree_libraries/zf_pwm.c:211
    TIM_OCInitStructure.TIM_OutputState = TIM_OutputState_Enable;           //比较输出使能
    3752:	4785                	li	a5,1
    3754:	fcf41923          	sh	a5,-46(s0)
C:\Users\windows\Desktop\smart_car\MASTER\obj/../Libraries/seekfree_libraries/zf_pwm.c:212
    TIM_OCInitStructure.TIM_OutputNState = TIM_OutputState_Disable;
    3758:	fc041a23          	sh	zero,-44(s0)
C:\Users\windows\Desktop\smart_car\MASTER\obj/../Libraries/seekfree_libraries/zf_pwm.c:213
    TIM_OCInitStructure.TIM_Pulse = match_temp;
    375c:	fea45783          	lhu	a5,-22(s0)
    3760:	fcf41b23          	sh	a5,-42(s0)
C:\Users\windows\Desktop\smart_car\MASTER\obj/../Libraries/seekfree_libraries/zf_pwm.c:214
    TIM_OCInitStructure.TIM_OCPolarity = TIM_OCPolarity_Low;                //输出极性:TIM输出比较极性高
    3764:	4789                	li	a5,2
    3766:	fcf41c23          	sh	a5,-40(s0)
C:\Users\windows\Desktop\smart_car\MASTER\obj/../Libraries/seekfree_libraries/zf_pwm.c:215
    TIM_OCInitStructure.TIM_OCNPolarity = TIM_OCPolarity_Low;               //输出极性:TIM输出比较极性高
    376a:	4789                	li	a5,2
    376c:	fcf41d23          	sh	a5,-38(s0)
C:\Users\windows\Desktop\smart_car\MASTER\obj/../Libraries/seekfree_libraries/zf_pwm.c:216
    TIM_OCInitStructure.TIM_OCIdleState = TIM_OCIdleState_Reset;
    3770:	fc041e23          	sh	zero,-36(s0)
C:\Users\windows\Desktop\smart_car\MASTER\obj/../Libraries/seekfree_libraries/zf_pwm.c:217
    TIM_OCInitStructure.TIM_OCNIdleState = TIM_OCIdleState_Reset;
    3774:	fc041f23          	sh	zero,-34(s0)
C:\Users\windows\Desktop\smart_car\MASTER\obj/../Libraries/seekfree_libraries/zf_pwm.c:221



    TIM_TimeBaseInit(((TIM_TypeDef *) TIMERN[pwmch>>8]), &TIM_TimeBaseStructure);  //根据TIM_TimeBaseInitStruct中指定的参数初始化TIMx的时间基数单位
    3778:	fcc42783          	lw	a5,-52(s0)
    377c:	0087d713          	srli	a4,a5,0x8
    3780:	679d                	lui	a5,0x7
    3782:	070a                	slli	a4,a4,0x2
    3784:	b1c78793          	addi	a5,a5,-1252 # 6b1c <TIMERN>
    3788:	97ba                	add	a5,a5,a4
    378a:	439c                	lw	a5,0(a5)
    378c:	873e                	mv	a4,a5
    378e:	fe040793          	addi	a5,s0,-32
    3792:	85be                	mv	a1,a5
    3794:	853a                	mv	a0,a4
    3796:	f83fd0ef          	jal	ra,1718 <TIM_TimeBaseInit>
C:\Users\windows\Desktop\smart_car\MASTER\obj/../Libraries/seekfree_libraries/zf_pwm.c:231
//        {
//            TIM_OCInitStructure.TIM_OutputState = TIM_OutputState_Enable;   //P通道
//            TIM_OCInitStructure.TIM_OutputNState = TIM_OutputState_Enable;  //N通道
//        }

    if((pwmch & 0x03) == 0x00)                                          //通道选择
    379a:	fcc42783          	lw	a5,-52(s0)
    379e:	8b8d                	andi	a5,a5,3
    37a0:	efb9                	bnez	a5,37fe <pwm_init+0x242>
C:\Users\windows\Desktop\smart_car\MASTER\obj/../Libraries/seekfree_libraries/zf_pwm.c:233
    {
        TIM_OC1Init(((TIM_TypeDef *) TIMERN[pwmch>>8]), &TIM_OCInitStructure );                       //定时器通道1初始化
    37a2:	fcc42783          	lw	a5,-52(s0)
    37a6:	0087d713          	srli	a4,a5,0x8
    37aa:	679d                	lui	a5,0x7
    37ac:	070a                	slli	a4,a4,0x2
    37ae:	b1c78793          	addi	a5,a5,-1252 # 6b1c <TIMERN>
    37b2:	97ba                	add	a5,a5,a4
    37b4:	439c                	lw	a5,0(a5)
    37b6:	873e                	mv	a4,a5
    37b8:	fd040793          	addi	a5,s0,-48
    37bc:	85be                	mv	a1,a5
    37be:	853a                	mv	a0,a4
    37c0:	852fe0ef          	jal	ra,1812 <TIM_OC1Init>
C:\Users\windows\Desktop\smart_car\MASTER\obj/../Libraries/seekfree_libraries/zf_pwm.c:234
        TIM_OC1PreloadConfig(((TIM_TypeDef *) TIMERN[pwmch>>8]), TIM_OCPreload_Enable);               //定时器预装载配置
    37c4:	fcc42783          	lw	a5,-52(s0)
    37c8:	0087d713          	srli	a4,a5,0x8
    37cc:	679d                	lui	a5,0x7
    37ce:	070a                	slli	a4,a4,0x2
    37d0:	b1c78793          	addi	a5,a5,-1252 # 6b1c <TIMERN>
    37d4:	97ba                	add	a5,a5,a4
    37d6:	439c                	lw	a5,0(a5)
    37d8:	45a1                	li	a1,8
    37da:	853e                	mv	a0,a5
    37dc:	823fe0ef          	jal	ra,1ffe <TIM_OC1PreloadConfig>
C:\Users\windows\Desktop\smart_car\MASTER\obj/../Libraries/seekfree_libraries/zf_pwm.c:235
        TIM_OC1FastConfig(((TIM_TypeDef *) TIMERN[pwmch>>8]), TIM_OC1FE);                             //比较捕获通道快速使能
    37e0:	fcc42783          	lw	a5,-52(s0)
    37e4:	0087d713          	srli	a4,a5,0x8
    37e8:	679d                	lui	a5,0x7
    37ea:	070a                	slli	a4,a4,0x2
    37ec:	b1c78793          	addi	a5,a5,-1252 # 6b1c <TIMERN>
    37f0:	97ba                	add	a5,a5,a4
    37f2:	439c                	lw	a5,0(a5)
    37f4:	4591                	li	a1,4
    37f6:	853e                	mv	a0,a5
    37f8:	953fe0ef          	jal	ra,214a <TIM_OC1FastConfig>
    37fc:	a289                	j	393e <pwm_init+0x382>
C:\Users\windows\Desktop\smart_car\MASTER\obj/../Libraries/seekfree_libraries/zf_pwm.c:237
    }
    else if((pwmch & 0x03) == 0x01)
    37fe:	fcc42783          	lw	a5,-52(s0)
    3802:	0037f713          	andi	a4,a5,3
    3806:	4785                	li	a5,1
    3808:	06f71163          	bne	a4,a5,386a <pwm_init+0x2ae>
C:\Users\windows\Desktop\smart_car\MASTER\obj/../Libraries/seekfree_libraries/zf_pwm.c:239
    {
        TIM_OC2Init(((TIM_TypeDef *) TIMERN[pwmch>>8]), &TIM_OCInitStructure );
    380c:	fcc42783          	lw	a5,-52(s0)
    3810:	0087d713          	srli	a4,a5,0x8
    3814:	679d                	lui	a5,0x7
    3816:	070a                	slli	a4,a4,0x2
    3818:	b1c78793          	addi	a5,a5,-1252 # 6b1c <TIMERN>
    381c:	97ba                	add	a5,a5,a4
    381e:	439c                	lw	a5,0(a5)
    3820:	873e                	mv	a4,a5
    3822:	fd040793          	addi	a5,s0,-48
    3826:	85be                	mv	a1,a5
    3828:	853a                	mv	a0,a4
    382a:	958fe0ef          	jal	ra,1982 <TIM_OC2Init>
C:\Users\windows\Desktop\smart_car\MASTER\obj/../Libraries/seekfree_libraries/zf_pwm.c:240
        TIM_OC2PreloadConfig(((TIM_TypeDef *) TIMERN[pwmch>>8]), TIM_OCPreload_Enable);
    382e:	fcc42783          	lw	a5,-52(s0)
    3832:	0087d713          	srli	a4,a5,0x8
    3836:	679d                	lui	a5,0x7
    3838:	070a                	slli	a4,a4,0x2
    383a:	b1c78793          	addi	a5,a5,-1252 # 6b1c <TIMERN>
    383e:	97ba                	add	a5,a5,a4
    3840:	439c                	lw	a5,0(a5)
    3842:	45a1                	li	a1,8
    3844:	853e                	mv	a0,a5
    3846:	805fe0ef          	jal	ra,204a <TIM_OC2PreloadConfig>
C:\Users\windows\Desktop\smart_car\MASTER\obj/../Libraries/seekfree_libraries/zf_pwm.c:241
        TIM_OC2FastConfig(((TIM_TypeDef *) TIMERN[pwmch>>8]), TIM_OC2FE);                             //比较捕获通道快速使能
    384a:	fcc42783          	lw	a5,-52(s0)
    384e:	0087d713          	srli	a4,a5,0x8
    3852:	679d                	lui	a5,0x7
    3854:	070a                	slli	a4,a4,0x2
    3856:	b1c78793          	addi	a5,a5,-1252 # 6b1c <TIMERN>
    385a:	97ba                	add	a5,a5,a4
    385c:	439c                	lw	a5,0(a5)
    385e:	40000593          	li	a1,1024
    3862:	853e                	mv	a0,a5
    3864:	933fe0ef          	jal	ra,2196 <TIM_OC2FastConfig>
    3868:	a8d9                	j	393e <pwm_init+0x382>
C:\Users\windows\Desktop\smart_car\MASTER\obj/../Libraries/seekfree_libraries/zf_pwm.c:243
    }
    else if((pwmch & 0x03) == 0x02)
    386a:	fcc42783          	lw	a5,-52(s0)
    386e:	0037f713          	andi	a4,a5,3
    3872:	4789                	li	a5,2
    3874:	06f71063          	bne	a4,a5,38d4 <pwm_init+0x318>
C:\Users\windows\Desktop\smart_car\MASTER\obj/../Libraries/seekfree_libraries/zf_pwm.c:245
    {
        TIM_OC3Init(((TIM_TypeDef *) TIMERN[pwmch>>8]), &TIM_OCInitStructure );
    3878:	fcc42783          	lw	a5,-52(s0)
    387c:	0087d713          	srli	a4,a5,0x8
    3880:	679d                	lui	a5,0x7
    3882:	070a                	slli	a4,a4,0x2
    3884:	b1c78793          	addi	a5,a5,-1252 # 6b1c <TIMERN>
    3888:	97ba                	add	a5,a5,a4
    388a:	439c                	lw	a5,0(a5)
    388c:	873e                	mv	a4,a5
    388e:	fd040793          	addi	a5,s0,-48
    3892:	85be                	mv	a1,a5
    3894:	853a                	mv	a0,a4
    3896:	aa2fe0ef          	jal	ra,1b38 <TIM_OC3Init>
C:\Users\windows\Desktop\smart_car\MASTER\obj/../Libraries/seekfree_libraries/zf_pwm.c:246
        TIM_OC3PreloadConfig(((TIM_TypeDef *) TIMERN[pwmch>>8]), TIM_OCPreload_Enable);
    389a:	fcc42783          	lw	a5,-52(s0)
    389e:	0087d713          	srli	a4,a5,0x8
    38a2:	679d                	lui	a5,0x7
    38a4:	070a                	slli	a4,a4,0x2
    38a6:	b1c78793          	addi	a5,a5,-1252 # 6b1c <TIMERN>
    38aa:	97ba                	add	a5,a5,a4
    38ac:	439c                	lw	a5,0(a5)
    38ae:	45a1                	li	a1,8
    38b0:	853e                	mv	a0,a5
    38b2:	ff2fe0ef          	jal	ra,20a4 <TIM_OC3PreloadConfig>
C:\Users\windows\Desktop\smart_car\MASTER\obj/../Libraries/seekfree_libraries/zf_pwm.c:247
        TIM_OC3FastConfig(((TIM_TypeDef *) TIMERN[pwmch>>8]), TIM_OC3FE);                             //比较捕获通道快速使能
    38b6:	fcc42783          	lw	a5,-52(s0)
    38ba:	0087d713          	srli	a4,a5,0x8
    38be:	679d                	lui	a5,0x7
    38c0:	070a                	slli	a4,a4,0x2
    38c2:	b1c78793          	addi	a5,a5,-1252 # 6b1c <TIMERN>
    38c6:	97ba                	add	a5,a5,a4
    38c8:	439c                	lw	a5,0(a5)
    38ca:	4591                	li	a1,4
    38cc:	853e                	mv	a0,a5
    38ce:	91ffe0ef          	jal	ra,21ec <TIM_OC3FastConfig>
    38d2:	a0b5                	j	393e <pwm_init+0x382>
C:\Users\windows\Desktop\smart_car\MASTER\obj/../Libraries/seekfree_libraries/zf_pwm.c:249
    }
    else if((pwmch & 0x03) == 0x03)
    38d4:	fcc42783          	lw	a5,-52(s0)
    38d8:	0037f713          	andi	a4,a5,3
    38dc:	478d                	li	a5,3
    38de:	06f71063          	bne	a4,a5,393e <pwm_init+0x382>
C:\Users\windows\Desktop\smart_car\MASTER\obj/../Libraries/seekfree_libraries/zf_pwm.c:251
    {
        TIM_OC4Init(((TIM_TypeDef *) TIMERN[pwmch>>8]), &TIM_OCInitStructure );
    38e2:	fcc42783          	lw	a5,-52(s0)
    38e6:	0087d713          	srli	a4,a5,0x8
    38ea:	679d                	lui	a5,0x7
    38ec:	070a                	slli	a4,a4,0x2
    38ee:	b1c78793          	addi	a5,a5,-1252 # 6b1c <TIMERN>
    38f2:	97ba                	add	a5,a5,a4
    38f4:	439c                	lw	a5,0(a5)
    38f6:	873e                	mv	a4,a5
    38f8:	fd040793          	addi	a5,s0,-48
    38fc:	85be                	mv	a1,a5
    38fe:	853a                	mv	a0,a4
    3900:	be8fe0ef          	jal	ra,1ce8 <TIM_OC4Init>
C:\Users\windows\Desktop\smart_car\MASTER\obj/../Libraries/seekfree_libraries/zf_pwm.c:252
        TIM_OC4PreloadConfig(((TIM_TypeDef *) TIMERN[pwmch>>8]), TIM_OCPreload_Enable);
    3904:	fcc42783          	lw	a5,-52(s0)
    3908:	0087d713          	srli	a4,a5,0x8
    390c:	679d                	lui	a5,0x7
    390e:	070a                	slli	a4,a4,0x2
    3910:	b1c78793          	addi	a5,a5,-1252 # 6b1c <TIMERN>
    3914:	97ba                	add	a5,a5,a4
    3916:	439c                	lw	a5,0(a5)
    3918:	45a1                	li	a1,8
    391a:	853e                	mv	a0,a5
    391c:	fd4fe0ef          	jal	ra,20f0 <TIM_OC4PreloadConfig>
C:\Users\windows\Desktop\smart_car\MASTER\obj/../Libraries/seekfree_libraries/zf_pwm.c:253
        TIM_OC4FastConfig(((TIM_TypeDef *) TIMERN[pwmch>>8]), TIM_OC4FE);                             //比较捕获通道快速使能
    3920:	fcc42783          	lw	a5,-52(s0)
    3924:	0087d713          	srli	a4,a5,0x8
    3928:	679d                	lui	a5,0x7
    392a:	070a                	slli	a4,a4,0x2
    392c:	b1c78793          	addi	a5,a5,-1252 # 6b1c <TIMERN>
    3930:	97ba                	add	a5,a5,a4
    3932:	439c                	lw	a5,0(a5)
    3934:	40000593          	li	a1,1024
    3938:	853e                	mv	a0,a5
    393a:	8fffe0ef          	jal	ra,2238 <TIM_OC4FastConfig>
C:\Users\windows\Desktop\smart_car\MASTER\obj/../Libraries/seekfree_libraries/zf_pwm.c:256
    }

    TIM_Cmd(((TIM_TypeDef *) TIMERN[pwmch>>8]), ENABLE);                                              //定时器使能
    393e:	fcc42783          	lw	a5,-52(s0)
    3942:	0087d713          	srli	a4,a5,0x8
    3946:	679d                	lui	a5,0x7
    3948:	070a                	slli	a4,a4,0x2
    394a:	b1c78793          	addi	a5,a5,-1252 # 6b1c <TIMERN>
    394e:	97ba                	add	a5,a5,a4
    3950:	439c                	lw	a5,0(a5)
    3952:	4585                	li	a1,1
    3954:	853e                	mv	a0,a5
    3956:	d18fe0ef          	jal	ra,1e6e <TIM_Cmd>
C:\Users\windows\Desktop\smart_car\MASTER\obj/../Libraries/seekfree_libraries/zf_pwm.c:257
    TIM_CtrlPWMOutputs(((TIM_TypeDef *) TIMERN[pwmch>>8]), ENABLE );
    395a:	fcc42783          	lw	a5,-52(s0)
    395e:	0087d713          	srli	a4,a5,0x8
    3962:	679d                	lui	a5,0x7
    3964:	070a                	slli	a4,a4,0x2
    3966:	b1c78793          	addi	a5,a5,-1252 # 6b1c <TIMERN>
    396a:	97ba                	add	a5,a5,a4
    396c:	439c                	lw	a5,0(a5)
    396e:	4585                	li	a1,1
    3970:	853e                	mv	a0,a5
    3972:	d54fe0ef          	jal	ra,1ec6 <TIM_CtrlPWMOutputs>
C:\Users\windows\Desktop\smart_car\MASTER\obj/../Libraries/seekfree_libraries/zf_pwm.c:259
    //TIM_ARRPreloadConfig( TIM1, ENABLE );
}
    3976:	0001                	nop
    3978:	50f2                	lw	ra,60(sp)
    397a:	5462                	lw	s0,56(sp)
    397c:	6121                	addi	sp,sp,64
    397e:	8082                	ret

00003980 <pwm_duty>:
pwm_duty():
C:\Users\windows\Desktop\smart_car\MASTER\obj/../Libraries/seekfree_libraries/zf_pwm.c:270
//  @return     void
//  Sample usage:               pwm_duty(PWM1_CH1_A8, 5000);   //PWM1 通道1 使用引脚A8 占空比为百分之 5000/PWM_DUTY_MAX*100
//                              PWM_DUTY_MAX在zf_pwm.h文件中 默认为50000
//-------------------------------------------------------------------------------------------------------------------
void pwm_duty(PWMCH_enum pwmch, uint32 duty)
{
    3980:	7179                	addi	sp,sp,-48
    3982:	d622                	sw	s0,44(sp)
    3984:	1800                	addi	s0,sp,48
    3986:	fca42e23          	sw	a0,-36(s0)
    398a:	fcb42c23          	sw	a1,-40(s0)
C:\Users\windows\Desktop\smart_car\MASTER\obj/../Libraries/seekfree_libraries/zf_pwm.c:277
    uint16 period_temp;
    //const uint32 TIMERN[] = {TIM1_BASE, TIM2_BASE, TIM3_BASE, TIM4_BASE};
    //获取周期值
    //计算占空比

    period_temp = ((TIM_TypeDef *) TIMERN[pwmch>>8])->ATRLR;    //获取定时器的周期值
    398e:	fdc42783          	lw	a5,-36(s0)
    3992:	0087d713          	srli	a4,a5,0x8
    3996:	679d                	lui	a5,0x7
    3998:	070a                	slli	a4,a4,0x2
    399a:	b1c78793          	addi	a5,a5,-1252 # 6b1c <TIMERN>
    399e:	97ba                	add	a5,a5,a4
    39a0:	439c                	lw	a5,0(a5)
    39a2:	02c7d783          	lhu	a5,44(a5)
    39a6:	fef41723          	sh	a5,-18(s0)
C:\Users\windows\Desktop\smart_car\MASTER\obj/../Libraries/seekfree_libraries/zf_pwm.c:278
    match_temp = period_temp * duty / PWM_DUTY_MAX;             //占空比
    39aa:	fee45703          	lhu	a4,-18(s0)
    39ae:	fd842783          	lw	a5,-40(s0)
    39b2:	02f70733          	mul	a4,a4,a5
    39b6:	6789                	lui	a5,0x2
    39b8:	71078793          	addi	a5,a5,1808 # 2710 <USART_GetFlagStatus+0x38>
    39bc:	02f757b3          	divu	a5,a4,a5
    39c0:	fef41623          	sh	a5,-20(s0)
C:\Users\windows\Desktop\smart_car\MASTER\obj/../Libraries/seekfree_libraries/zf_pwm.c:280

    if((pwmch >> 8) == 0x00)
    39c4:	fdc42783          	lw	a5,-36(s0)
    39c8:	83a1                	srli	a5,a5,0x8
    39ca:	e385                	bnez	a5,39ea <pwm_duty+0x6a>
C:\Users\windows\Desktop\smart_car\MASTER\obj/../Libraries/seekfree_libraries/zf_pwm.c:282
    {
        (*(volatile uint32*)(0x40012C34 + (pwmch&0x03) * 0x04)) = match_temp;
    39cc:	fdc42783          	lw	a5,-36(s0)
    39d0:	0037f713          	andi	a4,a5,3
    39d4:	100057b7          	lui	a5,0x10005
    39d8:	b0d78793          	addi	a5,a5,-1267 # 10004b0d <_data_lma+0xfffdda5>
    39dc:	97ba                	add	a5,a5,a4
    39de:	078a                	slli	a5,a5,0x2
    39e0:	873e                	mv	a4,a5
    39e2:	fec45783          	lhu	a5,-20(s0)
    39e6:	c31c                	sw	a5,0(a4)
C:\Users\windows\Desktop\smart_car\MASTER\obj/../Libraries/seekfree_libraries/zf_pwm.c:312
        //0x40000834 TIM4->CH1CVR
        //0x40000838 TIM4->CH2CVR
        //0x4000083C TIM4->CH3CVR
        //0x40000840 TIM4->CH4CVR
    }
}
    39e8:	a049                	j	3a6a <pwm_duty+0xea>
C:\Users\windows\Desktop\smart_car\MASTER\obj/../Libraries/seekfree_libraries/zf_pwm.c:288
    else if((pwmch >> 8) == 0x01)
    39ea:	fdc42783          	lw	a5,-36(s0)
    39ee:	0087d713          	srli	a4,a5,0x8
    39f2:	4785                	li	a5,1
    39f4:	02f71063          	bne	a4,a5,3a14 <pwm_duty+0x94>
C:\Users\windows\Desktop\smart_car\MASTER\obj/../Libraries/seekfree_libraries/zf_pwm.c:290
        (*(volatile uint32*)(0x40000034 + (pwmch&0x03) * 0x04)) = match_temp;
    39f8:	fdc42783          	lw	a5,-36(s0)
    39fc:	0037f713          	andi	a4,a5,3
    3a00:	100007b7          	lui	a5,0x10000
    3a04:	07b5                	addi	a5,a5,13
    3a06:	97ba                	add	a5,a5,a4
    3a08:	078a                	slli	a5,a5,0x2
    3a0a:	873e                	mv	a4,a5
    3a0c:	fec45783          	lhu	a5,-20(s0)
    3a10:	c31c                	sw	a5,0(a4)
C:\Users\windows\Desktop\smart_car\MASTER\obj/../Libraries/seekfree_libraries/zf_pwm.c:312
}
    3a12:	a8a1                	j	3a6a <pwm_duty+0xea>
C:\Users\windows\Desktop\smart_car\MASTER\obj/../Libraries/seekfree_libraries/zf_pwm.c:296
    else if((pwmch >> 8) == 0x02)
    3a14:	fdc42783          	lw	a5,-36(s0)
    3a18:	0087d713          	srli	a4,a5,0x8
    3a1c:	4789                	li	a5,2
    3a1e:	02f71163          	bne	a4,a5,3a40 <pwm_duty+0xc0>
C:\Users\windows\Desktop\smart_car\MASTER\obj/../Libraries/seekfree_libraries/zf_pwm.c:298
        (*(volatile uint32*)(0x40000434 + (pwmch&0x03) * 0x04)) = match_temp;
    3a22:	fdc42783          	lw	a5,-36(s0)
    3a26:	0037f713          	andi	a4,a5,3
    3a2a:	100007b7          	lui	a5,0x10000
    3a2e:	10d78793          	addi	a5,a5,269 # 1000010d <_data_lma+0xfff93a5>
    3a32:	97ba                	add	a5,a5,a4
    3a34:	078a                	slli	a5,a5,0x2
    3a36:	873e                	mv	a4,a5
    3a38:	fec45783          	lhu	a5,-20(s0)
    3a3c:	c31c                	sw	a5,0(a4)
C:\Users\windows\Desktop\smart_car\MASTER\obj/../Libraries/seekfree_libraries/zf_pwm.c:312
}
    3a3e:	a035                	j	3a6a <pwm_duty+0xea>
C:\Users\windows\Desktop\smart_car\MASTER\obj/../Libraries/seekfree_libraries/zf_pwm.c:304
    else if((pwmch >> 8) == 0x03)
    3a40:	fdc42783          	lw	a5,-36(s0)
    3a44:	0087d713          	srli	a4,a5,0x8
    3a48:	478d                	li	a5,3
    3a4a:	02f71063          	bne	a4,a5,3a6a <pwm_duty+0xea>
C:\Users\windows\Desktop\smart_car\MASTER\obj/../Libraries/seekfree_libraries/zf_pwm.c:306
        (*(volatile uint32*)(0x40000834 + (pwmch&0x03) * 0x04)) = match_temp;
    3a4e:	fdc42783          	lw	a5,-36(s0)
    3a52:	0037f713          	andi	a4,a5,3
    3a56:	100007b7          	lui	a5,0x10000
    3a5a:	20d78793          	addi	a5,a5,525 # 1000020d <_data_lma+0xfff94a5>
    3a5e:	97ba                	add	a5,a5,a4
    3a60:	078a                	slli	a5,a5,0x2
    3a62:	873e                	mv	a4,a5
    3a64:	fec45783          	lhu	a5,-20(s0)
    3a68:	c31c                	sw	a5,0(a4)
C:\Users\windows\Desktop\smart_car\MASTER\obj/../Libraries/seekfree_libraries/zf_pwm.c:312
}
    3a6a:	0001                	nop
    3a6c:	5432                	lw	s0,44(sp)
    3a6e:	6145                	addi	sp,sp,48
    3a70:	8082                	ret

00003a72 <timer_gpio_quad_init>:
timer_gpio_quad_init():
C:\Users\windows\Desktop\smart_car\MASTER\obj/../Libraries/seekfree_libraries/zf_qtimer.c:40
//  @param      phaseB      通道B以及引脚
//  @return     void
//  Sample usage:           内部使用，用户无需关心
//-------------------------------------------------------------------------------------------------------------------
void timer_gpio_quad_init(TIMER_PIN_enum phaseA, TIMER_PIN_enum phaseB)
{
    3a72:	1101                	addi	sp,sp,-32
    3a74:	ce06                	sw	ra,28(sp)
    3a76:	cc22                	sw	s0,24(sp)
    3a78:	1000                	addi	s0,sp,32
    3a7a:	fea42623          	sw	a0,-20(s0)
    3a7e:	feb42423          	sw	a1,-24(s0)
C:\Users\windows\Desktop\smart_car\MASTER\obj/../Libraries/seekfree_libraries/zf_qtimer.c:41
    if(TIMER1_CHA_A8 == phaseA)       gpio_init(A8, GPI, 0, IN_FLOAT);
    3a82:	fec42783          	lw	a5,-20(s0)
    3a86:	eb81                	bnez	a5,3a96 <timer_gpio_quad_init+0x24>
C:\Users\windows\Desktop\smart_car\MASTER\obj/../Libraries/seekfree_libraries/zf_qtimer.c:41 (discriminator 1)
    3a88:	4691                	li	a3,4
    3a8a:	4601                	li	a2,0
    3a8c:	4581                	li	a1,0
    3a8e:	4521                	li	a0,8
    3a90:	be0ff0ef          	jal	ra,2e70 <gpio_init>
    3a94:	a859                	j	3b2a <timer_gpio_quad_init+0xb8>
C:\Users\windows\Desktop\smart_car\MASTER\obj/../Libraries/seekfree_libraries/zf_qtimer.c:42
    else if(TIMER2_CHA_A0 == phaseA)  gpio_init(A0, GPI, 0, IN_FLOAT);
    3a96:	fec42703          	lw	a4,-20(s0)
    3a9a:	4789                	li	a5,2
    3a9c:	00f71963          	bne	a4,a5,3aae <timer_gpio_quad_init+0x3c>
C:\Users\windows\Desktop\smart_car\MASTER\obj/../Libraries/seekfree_libraries/zf_qtimer.c:42 (discriminator 1)
    3aa0:	4691                	li	a3,4
    3aa2:	4601                	li	a2,0
    3aa4:	4581                	li	a1,0
    3aa6:	4501                	li	a0,0
    3aa8:	bc8ff0ef          	jal	ra,2e70 <gpio_init>
    3aac:	a8bd                	j	3b2a <timer_gpio_quad_init+0xb8>
C:\Users\windows\Desktop\smart_car\MASTER\obj/../Libraries/seekfree_libraries/zf_qtimer.c:43
    else if(TIMER2_CHA_A15 == phaseA) gpio_init(A15, GPI, 0, IN_FLOAT);
    3aae:	fec42703          	lw	a4,-20(s0)
    3ab2:	4791                	li	a5,4
    3ab4:	00f71963          	bne	a4,a5,3ac6 <timer_gpio_quad_init+0x54>
C:\Users\windows\Desktop\smart_car\MASTER\obj/../Libraries/seekfree_libraries/zf_qtimer.c:43 (discriminator 1)
    3ab8:	4691                	li	a3,4
    3aba:	4601                	li	a2,0
    3abc:	4581                	li	a1,0
    3abe:	453d                	li	a0,15
    3ac0:	bb0ff0ef          	jal	ra,2e70 <gpio_init>
    3ac4:	a09d                	j	3b2a <timer_gpio_quad_init+0xb8>
C:\Users\windows\Desktop\smart_car\MASTER\obj/../Libraries/seekfree_libraries/zf_qtimer.c:44
    else if(TIMER3_CHA_A6 == phaseA)  gpio_init(A6, GPI, 0, IN_FLOAT);
    3ac6:	fec42703          	lw	a4,-20(s0)
    3aca:	4799                	li	a5,6
    3acc:	00f71963          	bne	a4,a5,3ade <timer_gpio_quad_init+0x6c>
C:\Users\windows\Desktop\smart_car\MASTER\obj/../Libraries/seekfree_libraries/zf_qtimer.c:44 (discriminator 1)
    3ad0:	4691                	li	a3,4
    3ad2:	4601                	li	a2,0
    3ad4:	4581                	li	a1,0
    3ad6:	4519                	li	a0,6
    3ad8:	b98ff0ef          	jal	ra,2e70 <gpio_init>
    3adc:	a0b9                	j	3b2a <timer_gpio_quad_init+0xb8>
C:\Users\windows\Desktop\smart_car\MASTER\obj/../Libraries/seekfree_libraries/zf_qtimer.c:45
    else if(TIMER3_CHA_C6 == phaseA)  gpio_init(C6, GPI, 0, IN_FLOAT);
    3ade:	fec42703          	lw	a4,-20(s0)
    3ae2:	47a1                	li	a5,8
    3ae4:	00f71a63          	bne	a4,a5,3af8 <timer_gpio_quad_init+0x86>
C:\Users\windows\Desktop\smart_car\MASTER\obj/../Libraries/seekfree_libraries/zf_qtimer.c:45 (discriminator 1)
    3ae8:	4691                	li	a3,4
    3aea:	4601                	li	a2,0
    3aec:	4581                	li	a1,0
    3aee:	04600513          	li	a0,70
    3af2:	b7eff0ef          	jal	ra,2e70 <gpio_init>
    3af6:	a815                	j	3b2a <timer_gpio_quad_init+0xb8>
C:\Users\windows\Desktop\smart_car\MASTER\obj/../Libraries/seekfree_libraries/zf_qtimer.c:46
    else if(TIMER3_CHA_B4 == phaseA)  gpio_init(B4, GPI, 0, IN_FLOAT);
    3af8:	fec42703          	lw	a4,-20(s0)
    3afc:	47a9                	li	a5,10
    3afe:	00f71a63          	bne	a4,a5,3b12 <timer_gpio_quad_init+0xa0>
C:\Users\windows\Desktop\smart_car\MASTER\obj/../Libraries/seekfree_libraries/zf_qtimer.c:46 (discriminator 1)
    3b02:	4691                	li	a3,4
    3b04:	4601                	li	a2,0
    3b06:	4581                	li	a1,0
    3b08:	02400513          	li	a0,36
    3b0c:	b64ff0ef          	jal	ra,2e70 <gpio_init>
    3b10:	a829                	j	3b2a <timer_gpio_quad_init+0xb8>
C:\Users\windows\Desktop\smart_car\MASTER\obj/../Libraries/seekfree_libraries/zf_qtimer.c:47
    else if(TIMER4_CHA_B6 == phaseA)  gpio_init(B6, GPI, 0, IN_FLOAT);
    3b12:	fec42703          	lw	a4,-20(s0)
    3b16:	47b1                	li	a5,12
    3b18:	00f71963          	bne	a4,a5,3b2a <timer_gpio_quad_init+0xb8>
C:\Users\windows\Desktop\smart_car\MASTER\obj/../Libraries/seekfree_libraries/zf_qtimer.c:47 (discriminator 1)
    3b1c:	4691                	li	a3,4
    3b1e:	4601                	li	a2,0
    3b20:	4581                	li	a1,0
    3b22:	02600513          	li	a0,38
    3b26:	b4aff0ef          	jal	ra,2e70 <gpio_init>
C:\Users\windows\Desktop\smart_car\MASTER\obj/../Libraries/seekfree_libraries/zf_qtimer.c:49

    if(TIMER1_CHB_A9 == phaseB)       gpio_init(A9, GPI, 0, IN_FLOAT);
    3b2a:	fe842703          	lw	a4,-24(s0)
    3b2e:	4785                	li	a5,1
    3b30:	00f71963          	bne	a4,a5,3b42 <timer_gpio_quad_init+0xd0>
C:\Users\windows\Desktop\smart_car\MASTER\obj/../Libraries/seekfree_libraries/zf_qtimer.c:49 (discriminator 1)
    3b34:	4691                	li	a3,4
    3b36:	4601                	li	a2,0
    3b38:	4581                	li	a1,0
    3b3a:	4525                	li	a0,9
    3b3c:	b34ff0ef          	jal	ra,2e70 <gpio_init>
C:\Users\windows\Desktop\smart_car\MASTER\obj/../Libraries/seekfree_libraries/zf_qtimer.c:57 (discriminator 1)
    else if(TIMER3_CHB_A7 == phaseB)  gpio_init(A7, GPI, 0, IN_FLOAT);
    else if(TIMER3_CHB_C7 == phaseB)  gpio_init(C7, GPI, 0, IN_FLOAT);
    else if(TIMER3_CHB_B5 == phaseB)  gpio_init(B5, GPI, 0, IN_FLOAT);
    else if(TIMER4_CHB_B7 == phaseB)  gpio_init(B7, GPI, 0, IN_FLOAT);

}
    3b40:	a861                	j	3bd8 <timer_gpio_quad_init+0x166>
C:\Users\windows\Desktop\smart_car\MASTER\obj/../Libraries/seekfree_libraries/zf_qtimer.c:50
    else if(TIMER2_CHB_A1 == phaseB)  gpio_init(A1, GPI, 0, IN_FLOAT);
    3b42:	fe842703          	lw	a4,-24(s0)
    3b46:	478d                	li	a5,3
    3b48:	00f71963          	bne	a4,a5,3b5a <timer_gpio_quad_init+0xe8>
C:\Users\windows\Desktop\smart_car\MASTER\obj/../Libraries/seekfree_libraries/zf_qtimer.c:50 (discriminator 1)
    3b4c:	4691                	li	a3,4
    3b4e:	4601                	li	a2,0
    3b50:	4581                	li	a1,0
    3b52:	4505                	li	a0,1
    3b54:	b1cff0ef          	jal	ra,2e70 <gpio_init>
C:\Users\windows\Desktop\smart_car\MASTER\obj/../Libraries/seekfree_libraries/zf_qtimer.c:57 (discriminator 1)
}
    3b58:	a041                	j	3bd8 <timer_gpio_quad_init+0x166>
C:\Users\windows\Desktop\smart_car\MASTER\obj/../Libraries/seekfree_libraries/zf_qtimer.c:51
    else if(TIMER2_CHB_B3 == phaseB)  gpio_init(B3, GPI, 0, IN_FLOAT);
    3b5a:	fe842703          	lw	a4,-24(s0)
    3b5e:	4795                	li	a5,5
    3b60:	00f71a63          	bne	a4,a5,3b74 <timer_gpio_quad_init+0x102>
C:\Users\windows\Desktop\smart_car\MASTER\obj/../Libraries/seekfree_libraries/zf_qtimer.c:51 (discriminator 1)
    3b64:	4691                	li	a3,4
    3b66:	4601                	li	a2,0
    3b68:	4581                	li	a1,0
    3b6a:	02300513          	li	a0,35
    3b6e:	b02ff0ef          	jal	ra,2e70 <gpio_init>
C:\Users\windows\Desktop\smart_car\MASTER\obj/../Libraries/seekfree_libraries/zf_qtimer.c:57 (discriminator 1)
}
    3b72:	a09d                	j	3bd8 <timer_gpio_quad_init+0x166>
C:\Users\windows\Desktop\smart_car\MASTER\obj/../Libraries/seekfree_libraries/zf_qtimer.c:52
    else if(TIMER3_CHB_A7 == phaseB)  gpio_init(A7, GPI, 0, IN_FLOAT);
    3b74:	fe842703          	lw	a4,-24(s0)
    3b78:	479d                	li	a5,7
    3b7a:	00f71963          	bne	a4,a5,3b8c <timer_gpio_quad_init+0x11a>
C:\Users\windows\Desktop\smart_car\MASTER\obj/../Libraries/seekfree_libraries/zf_qtimer.c:52 (discriminator 1)
    3b7e:	4691                	li	a3,4
    3b80:	4601                	li	a2,0
    3b82:	4581                	li	a1,0
    3b84:	451d                	li	a0,7
    3b86:	aeaff0ef          	jal	ra,2e70 <gpio_init>
C:\Users\windows\Desktop\smart_car\MASTER\obj/../Libraries/seekfree_libraries/zf_qtimer.c:57 (discriminator 1)
}
    3b8a:	a0b9                	j	3bd8 <timer_gpio_quad_init+0x166>
C:\Users\windows\Desktop\smart_car\MASTER\obj/../Libraries/seekfree_libraries/zf_qtimer.c:53
    else if(TIMER3_CHB_C7 == phaseB)  gpio_init(C7, GPI, 0, IN_FLOAT);
    3b8c:	fe842703          	lw	a4,-24(s0)
    3b90:	47a5                	li	a5,9
    3b92:	00f71a63          	bne	a4,a5,3ba6 <timer_gpio_quad_init+0x134>
C:\Users\windows\Desktop\smart_car\MASTER\obj/../Libraries/seekfree_libraries/zf_qtimer.c:53 (discriminator 1)
    3b96:	4691                	li	a3,4
    3b98:	4601                	li	a2,0
    3b9a:	4581                	li	a1,0
    3b9c:	04700513          	li	a0,71
    3ba0:	ad0ff0ef          	jal	ra,2e70 <gpio_init>
C:\Users\windows\Desktop\smart_car\MASTER\obj/../Libraries/seekfree_libraries/zf_qtimer.c:57 (discriminator 1)
}
    3ba4:	a815                	j	3bd8 <timer_gpio_quad_init+0x166>
C:\Users\windows\Desktop\smart_car\MASTER\obj/../Libraries/seekfree_libraries/zf_qtimer.c:54
    else if(TIMER3_CHB_B5 == phaseB)  gpio_init(B5, GPI, 0, IN_FLOAT);
    3ba6:	fe842703          	lw	a4,-24(s0)
    3baa:	47ad                	li	a5,11
    3bac:	00f71a63          	bne	a4,a5,3bc0 <timer_gpio_quad_init+0x14e>
C:\Users\windows\Desktop\smart_car\MASTER\obj/../Libraries/seekfree_libraries/zf_qtimer.c:54 (discriminator 1)
    3bb0:	4691                	li	a3,4
    3bb2:	4601                	li	a2,0
    3bb4:	4581                	li	a1,0
    3bb6:	02500513          	li	a0,37
    3bba:	ab6ff0ef          	jal	ra,2e70 <gpio_init>
C:\Users\windows\Desktop\smart_car\MASTER\obj/../Libraries/seekfree_libraries/zf_qtimer.c:57 (discriminator 1)
}
    3bbe:	a829                	j	3bd8 <timer_gpio_quad_init+0x166>
C:\Users\windows\Desktop\smart_car\MASTER\obj/../Libraries/seekfree_libraries/zf_qtimer.c:55
    else if(TIMER4_CHB_B7 == phaseB)  gpio_init(B7, GPI, 0, IN_FLOAT);
    3bc0:	fe842703          	lw	a4,-24(s0)
    3bc4:	47b5                	li	a5,13
    3bc6:	00f71963          	bne	a4,a5,3bd8 <timer_gpio_quad_init+0x166>
C:\Users\windows\Desktop\smart_car\MASTER\obj/../Libraries/seekfree_libraries/zf_qtimer.c:55 (discriminator 1)
    3bca:	4691                	li	a3,4
    3bcc:	4601                	li	a2,0
    3bce:	4581                	li	a1,0
    3bd0:	02700513          	li	a0,39
    3bd4:	a9cff0ef          	jal	ra,2e70 <gpio_init>
C:\Users\windows\Desktop\smart_car\MASTER\obj/../Libraries/seekfree_libraries/zf_qtimer.c:57
}
    3bd8:	0001                	nop
    3bda:	40f2                	lw	ra,28(sp)
    3bdc:	4462                	lw	s0,24(sp)
    3bde:	6105                	addi	sp,sp,32
    3be0:	8082                	ret

00003be2 <timer_quad_init>:
timer_quad_init():
C:\Users\windows\Desktop\smart_car\MASTER\obj/../Libraries/seekfree_libraries/zf_qtimer.c:69
//  @param      phaseB      通道B以及引脚
//  @return     void
//  Sample usage:           推荐使用正交解码编码器。
//-------------------------------------------------------------------------------------------------------------------
void timer_quad_init(TIMERN_enum timern, TIMER_PIN_enum phaseA, TIMER_PIN_enum phaseB)
{
    3be2:	7179                	addi	sp,sp,-48
    3be4:	d606                	sw	ra,44(sp)
    3be6:	d422                	sw	s0,40(sp)
    3be8:	1800                	addi	s0,sp,48
    3bea:	fca42e23          	sw	a0,-36(s0)
    3bee:	fcb42c23          	sw	a1,-40(s0)
    3bf2:	fcc42a23          	sw	a2,-44(s0)
C:\Users\windows\Desktop\smart_car\MASTER\obj/../Libraries/seekfree_libraries/zf_qtimer.c:72
    TIM_TimeBaseInitTypeDef TIM_TimeBaseStructure;

    if(TIMER_1 == timern)       RCC_APB2PeriphClockCmd(RCC_APB2Periph_TIM1, ENABLE);//使能定时器1的时钟
    3bf6:	fdc42783          	lw	a5,-36(s0)
    3bfa:	eb81                	bnez	a5,3c0a <timer_quad_init+0x28>
C:\Users\windows\Desktop\smart_car\MASTER\obj/../Libraries/seekfree_libraries/zf_qtimer.c:72 (discriminator 1)
    3bfc:	4585                	li	a1,1
    3bfe:	6785                	lui	a5,0x1
    3c00:	80078513          	addi	a0,a5,-2048 # 800 <__stack_size>
    3c04:	937fd0ef          	jal	ra,153a <RCC_APB2PeriphClockCmd>
    3c08:	a835                	j	3c44 <timer_quad_init+0x62>
C:\Users\windows\Desktop\smart_car\MASTER\obj/../Libraries/seekfree_libraries/zf_qtimer.c:73
    else  if(TIMER_2 == timern) RCC_APB1PeriphClockCmd(RCC_APB1Periph_TIM2, ENABLE);//使能定时器2的时钟
    3c0a:	fdc42703          	lw	a4,-36(s0)
    3c0e:	4785                	li	a5,1
    3c10:	00f71763          	bne	a4,a5,3c1e <timer_quad_init+0x3c>
C:\Users\windows\Desktop\smart_car\MASTER\obj/../Libraries/seekfree_libraries/zf_qtimer.c:73 (discriminator 1)
    3c14:	4585                	li	a1,1
    3c16:	4505                	li	a0,1
    3c18:	969fd0ef          	jal	ra,1580 <RCC_APB1PeriphClockCmd>
    3c1c:	a025                	j	3c44 <timer_quad_init+0x62>
C:\Users\windows\Desktop\smart_car\MASTER\obj/../Libraries/seekfree_libraries/zf_qtimer.c:74
    else  if(TIMER_3 == timern) RCC_APB1PeriphClockCmd(RCC_APB1Periph_TIM3, ENABLE);//使能定时器3的时钟
    3c1e:	fdc42703          	lw	a4,-36(s0)
    3c22:	4789                	li	a5,2
    3c24:	00f71763          	bne	a4,a5,3c32 <timer_quad_init+0x50>
C:\Users\windows\Desktop\smart_car\MASTER\obj/../Libraries/seekfree_libraries/zf_qtimer.c:74 (discriminator 1)
    3c28:	4585                	li	a1,1
    3c2a:	4509                	li	a0,2
    3c2c:	955fd0ef          	jal	ra,1580 <RCC_APB1PeriphClockCmd>
    3c30:	a811                	j	3c44 <timer_quad_init+0x62>
C:\Users\windows\Desktop\smart_car\MASTER\obj/../Libraries/seekfree_libraries/zf_qtimer.c:75
    else  if(TIMER_4 == timern) RCC_APB1PeriphClockCmd(RCC_APB1Periph_TIM4, ENABLE);//使能定时器4的时钟
    3c32:	fdc42703          	lw	a4,-36(s0)
    3c36:	478d                	li	a5,3
    3c38:	00f71663          	bne	a4,a5,3c44 <timer_quad_init+0x62>
C:\Users\windows\Desktop\smart_car\MASTER\obj/../Libraries/seekfree_libraries/zf_qtimer.c:75 (discriminator 1)
    3c3c:	4585                	li	a1,1
    3c3e:	4511                	li	a0,4
    3c40:	941fd0ef          	jal	ra,1580 <RCC_APB1PeriphClockCmd>
C:\Users\windows\Desktop\smart_car\MASTER\obj/../Libraries/seekfree_libraries/zf_qtimer.c:77

    timer_gpio_quad_init(phaseA, phaseB);                                           //初始化引脚
    3c44:	fd442583          	lw	a1,-44(s0)
    3c48:	fd842503          	lw	a0,-40(s0)
    3c4c:	e27ff0ef          	jal	ra,3a72 <timer_gpio_quad_init>
C:\Users\windows\Desktop\smart_car\MASTER\obj/../Libraries/seekfree_libraries/zf_qtimer.c:79

    RCC_APB2PeriphClockCmd(RCC_APB2Periph_AFIO, ENABLE);                            //使能AFIO复用功能模块时钟
    3c50:	4585                	li	a1,1
    3c52:	4505                	li	a0,1
    3c54:	8e7fd0ef          	jal	ra,153a <RCC_APB2PeriphClockCmd>
C:\Users\windows\Desktop\smart_car\MASTER\obj/../Libraries/seekfree_libraries/zf_qtimer.c:81

    if(TIMER2_CHA_A15 == phaseA && TIMER2_CHB_B3 == phaseB)                         //引脚重映射
    3c58:	fd842703          	lw	a4,-40(s0)
    3c5c:	4791                	li	a5,4
    3c5e:	00f71f63          	bne	a4,a5,3c7c <timer_quad_init+0x9a>
C:\Users\windows\Desktop\smart_car\MASTER\obj/../Libraries/seekfree_libraries/zf_qtimer.c:81 (discriminator 1)
    3c62:	fd442703          	lw	a4,-44(s0)
    3c66:	4795                	li	a5,5
    3c68:	00f71a63          	bne	a4,a5,3c7c <timer_quad_init+0x9a>
C:\Users\windows\Desktop\smart_car\MASTER\obj/../Libraries/seekfree_libraries/zf_qtimer.c:82
        GPIO_PinRemapConfig(GPIO_FullRemap_TIM2, ENABLE);
    3c6c:	4585                	li	a1,1
    3c6e:	001807b7          	lui	a5,0x180
    3c72:	30078513          	addi	a0,a5,768 # 180300 <_data_lma+0x179598>
    3c76:	b7afd0ef          	jal	ra,ff0 <GPIO_PinRemapConfig>
    3c7a:	a0a1                	j	3cc2 <timer_quad_init+0xe0>
C:\Users\windows\Desktop\smart_car\MASTER\obj/../Libraries/seekfree_libraries/zf_qtimer.c:83
    else    if(TIMER3_CHA_C6 == phaseA && TIMER3_CHB_C7 == phaseB)
    3c7c:	fd842703          	lw	a4,-40(s0)
    3c80:	47a1                	li	a5,8
    3c82:	00f71f63          	bne	a4,a5,3ca0 <timer_quad_init+0xbe>
C:\Users\windows\Desktop\smart_car\MASTER\obj/../Libraries/seekfree_libraries/zf_qtimer.c:83 (discriminator 1)
    3c86:	fd442703          	lw	a4,-44(s0)
    3c8a:	47a5                	li	a5,9
    3c8c:	00f71a63          	bne	a4,a5,3ca0 <timer_quad_init+0xbe>
C:\Users\windows\Desktop\smart_car\MASTER\obj/../Libraries/seekfree_libraries/zf_qtimer.c:84
        GPIO_PinRemapConfig(GPIO_FullRemap_TIM3, ENABLE);
    3c90:	4585                	li	a1,1
    3c92:	001a17b7          	lui	a5,0x1a1
    3c96:	c0078513          	addi	a0,a5,-1024 # 1a0c00 <_data_lma+0x199e98>
    3c9a:	b56fd0ef          	jal	ra,ff0 <GPIO_PinRemapConfig>
    3c9e:	a015                	j	3cc2 <timer_quad_init+0xe0>
C:\Users\windows\Desktop\smart_car\MASTER\obj/../Libraries/seekfree_libraries/zf_qtimer.c:85
    else    if(TIMER3_CHA_B4 == phaseA && TIMER3_CHB_B5 == phaseB)
    3ca0:	fd842703          	lw	a4,-40(s0)
    3ca4:	47a9                	li	a5,10
    3ca6:	00f71e63          	bne	a4,a5,3cc2 <timer_quad_init+0xe0>
C:\Users\windows\Desktop\smart_car\MASTER\obj/../Libraries/seekfree_libraries/zf_qtimer.c:85 (discriminator 1)
    3caa:	fd442703          	lw	a4,-44(s0)
    3cae:	47ad                	li	a5,11
    3cb0:	00f71963          	bne	a4,a5,3cc2 <timer_quad_init+0xe0>
C:\Users\windows\Desktop\smart_car\MASTER\obj/../Libraries/seekfree_libraries/zf_qtimer.c:86
        GPIO_PinRemapConfig(GPIO_PartialRemap_TIM3, ENABLE);
    3cb4:	4585                	li	a1,1
    3cb6:	001a17b7          	lui	a5,0x1a1
    3cba:	80078513          	addi	a0,a5,-2048 # 1a0800 <_data_lma+0x199a98>
    3cbe:	b32fd0ef          	jal	ra,ff0 <GPIO_PinRemapConfig>
C:\Users\windows\Desktop\smart_car\MASTER\obj/../Libraries/seekfree_libraries/zf_qtimer.c:88

    TIM_TimeBaseStructInit(&TIM_TimeBaseStructure);
    3cc2:	fe440793          	addi	a5,s0,-28
    3cc6:	853e                	mv	a0,a5
    3cc8:	96afe0ef          	jal	ra,1e32 <TIM_TimeBaseStructInit>
C:\Users\windows\Desktop\smart_car\MASTER\obj/../Libraries/seekfree_libraries/zf_qtimer.c:89
    TIM_TimeBaseStructure.TIM_Prescaler = 1;                                        //预分频器
    3ccc:	4785                	li	a5,1
    3cce:	fef41223          	sh	a5,-28(s0)
C:\Users\windows\Desktop\smart_car\MASTER\obj/../Libraries/seekfree_libraries/zf_qtimer.c:90
    TIM_TimeBaseStructure.TIM_Period = 0xFFFF;                                      //设定计数器自动重装值
    3cd2:	57fd                	li	a5,-1
    3cd4:	fef41423          	sh	a5,-24(s0)
C:\Users\windows\Desktop\smart_car\MASTER\obj/../Libraries/seekfree_libraries/zf_qtimer.c:91
    TIM_TimeBaseStructure.TIM_ClockDivision = TIM_CKD_DIV1;                         //选择时钟分频：不分频
    3cd8:	fe041523          	sh	zero,-22(s0)
C:\Users\windows\Desktop\smart_car\MASTER\obj/../Libraries/seekfree_libraries/zf_qtimer.c:92
    TIM_TimeBaseStructure.TIM_CounterMode = TIM_CounterMode_Up;                     //TIM向上计数
    3cdc:	fe041323          	sh	zero,-26(s0)
C:\Users\windows\Desktop\smart_car\MASTER\obj/../Libraries/seekfree_libraries/zf_qtimer.c:93
    TIM_TimeBaseStructure.TIM_RepetitionCounter = 0;                                //重复计数器
    3ce0:	fe040623          	sb	zero,-20(s0)
C:\Users\windows\Desktop\smart_car\MASTER\obj/../Libraries/seekfree_libraries/zf_qtimer.c:94
    TIM_TimeBaseInit((TIM_TypeDef*)(TIMERN[timern]), &TIM_TimeBaseStructure);       //初始化结构体
    3ce4:	679d                	lui	a5,0x7
    3ce6:	fdc42703          	lw	a4,-36(s0)
    3cea:	070a                	slli	a4,a4,0x2
    3cec:	b1c78793          	addi	a5,a5,-1252 # 6b1c <TIMERN>
    3cf0:	97ba                	add	a5,a5,a4
    3cf2:	439c                	lw	a5,0(a5)
    3cf4:	873e                	mv	a4,a5
    3cf6:	fe440793          	addi	a5,s0,-28
    3cfa:	85be                	mv	a1,a5
    3cfc:	853a                	mv	a0,a4
    3cfe:	a1bfd0ef          	jal	ra,1718 <TIM_TimeBaseInit>
C:\Users\windows\Desktop\smart_car\MASTER\obj/../Libraries/seekfree_libraries/zf_qtimer.c:95
    TIM_EncoderInterfaceConfig((TIM_TypeDef*)(TIMERN[timern]), TIM_EncoderMode_TI2 , TIM_ICPolarity_Rising, TIM_ICPolarity_Rising);//使用编码器模式
    3d02:	679d                	lui	a5,0x7
    3d04:	fdc42703          	lw	a4,-36(s0)
    3d08:	070a                	slli	a4,a4,0x2
    3d0a:	b1c78793          	addi	a5,a5,-1252 # 6b1c <TIMERN>
    3d0e:	97ba                	add	a5,a5,a4
    3d10:	439c                	lw	a5,0(a5)
    3d12:	4681                	li	a3,0
    3d14:	4601                	li	a2,0
    3d16:	4589                	li	a1,2
    3d18:	853e                	mv	a0,a5
    3d1a:	a0cfe0ef          	jal	ra,1f26 <TIM_EncoderInterfaceConfig>
C:\Users\windows\Desktop\smart_car\MASTER\obj/../Libraries/seekfree_libraries/zf_qtimer.c:97

    TIM_Cmd((TIM_TypeDef*)(TIMERN[timern]), ENABLE);                                //定时器使能
    3d1e:	679d                	lui	a5,0x7
    3d20:	fdc42703          	lw	a4,-36(s0)
    3d24:	070a                	slli	a4,a4,0x2
    3d26:	b1c78793          	addi	a5,a5,-1252 # 6b1c <TIMERN>
    3d2a:	97ba                	add	a5,a5,a4
    3d2c:	439c                	lw	a5,0(a5)
    3d2e:	4585                	li	a1,1
    3d30:	853e                	mv	a0,a5
    3d32:	93cfe0ef          	jal	ra,1e6e <TIM_Cmd>
C:\Users\windows\Desktop\smart_car\MASTER\obj/../Libraries/seekfree_libraries/zf_qtimer.c:98
}
    3d36:	0001                	nop
    3d38:	50b2                	lw	ra,44(sp)
    3d3a:	5422                	lw	s0,40(sp)
    3d3c:	6145                	addi	sp,sp,48
    3d3e:	8082                	ret

00003d40 <timer_quad_get>:
timer_quad_get():
C:\Users\windows\Desktop\smart_car\MASTER\obj/../Libraries/seekfree_libraries/zf_qtimer.c:107
//  @param      timern      定时器枚举体
//  @return     void
//  Sample usage:
//-------------------------------------------------------------------------------------------------------------------
int16 timer_quad_get(TIMERN_enum timern)
{
    3d40:	7179                	addi	sp,sp,-48
    3d42:	d622                	sw	s0,44(sp)
    3d44:	1800                	addi	s0,sp,48
    3d46:	fca42e23          	sw	a0,-36(s0)
C:\Users\windows\Desktop\smart_car\MASTER\obj/../Libraries/seekfree_libraries/zf_qtimer.c:108
    int16 count = ((TIM_TypeDef*)(TIMERN[timern]))->CNT;
    3d4a:	679d                	lui	a5,0x7
    3d4c:	fdc42703          	lw	a4,-36(s0)
    3d50:	070a                	slli	a4,a4,0x2
    3d52:	b1c78793          	addi	a5,a5,-1252 # 6b1c <TIMERN>
    3d56:	97ba                	add	a5,a5,a4
    3d58:	439c                	lw	a5,0(a5)
    3d5a:	0247d783          	lhu	a5,36(a5)
    3d5e:	07c2                	slli	a5,a5,0x10
    3d60:	83c1                	srli	a5,a5,0x10
    3d62:	fef41723          	sh	a5,-18(s0)
C:\Users\windows\Desktop\smart_car\MASTER\obj/../Libraries/seekfree_libraries/zf_qtimer.c:109
    return count;
    3d66:	fee41783          	lh	a5,-18(s0)
C:\Users\windows\Desktop\smart_car\MASTER\obj/../Libraries/seekfree_libraries/zf_qtimer.c:110
}
    3d6a:	853e                	mv	a0,a5
    3d6c:	5432                	lw	s0,44(sp)
    3d6e:	6145                	addi	sp,sp,48
    3d70:	8082                	ret

00003d72 <timer_quad_clear>:
timer_quad_clear():
C:\Users\windows\Desktop\smart_car\MASTER\obj/../Libraries/seekfree_libraries/zf_qtimer.c:119
//  @param      timern      定时器枚举体
//  @return     void
//  Sample usage:
//-------------------------------------------------------------------------------------------------------------------
void timer_quad_clear(TIMERN_enum timern)
{
    3d72:	1101                	addi	sp,sp,-32
    3d74:	ce22                	sw	s0,28(sp)
    3d76:	1000                	addi	s0,sp,32
    3d78:	fea42623          	sw	a0,-20(s0)
C:\Users\windows\Desktop\smart_car\MASTER\obj/../Libraries/seekfree_libraries/zf_qtimer.c:120
    ((TIM_TypeDef*)(TIMERN[timern]))->CNT = 0;
    3d7c:	679d                	lui	a5,0x7
    3d7e:	fec42703          	lw	a4,-20(s0)
    3d82:	070a                	slli	a4,a4,0x2
    3d84:	b1c78793          	addi	a5,a5,-1252 # 6b1c <TIMERN>
    3d88:	97ba                	add	a5,a5,a4
    3d8a:	439c                	lw	a5,0(a5)
    3d8c:	02079223          	sh	zero,36(a5)
C:\Users\windows\Desktop\smart_car\MASTER\obj/../Libraries/seekfree_libraries/zf_qtimer.c:121
}
    3d90:	0001                	nop
    3d92:	4472                	lw	s0,28(sp)
    3d94:	6105                	addi	sp,sp,32
    3d96:	8082                	ret

00003d98 <spi_gpio_init>:
spi_gpio_init():
C:\Users\windows\Desktop\smart_car\MASTER\obj/../Libraries/seekfree_libraries/zf_spi.c:41
//  @param      cs_pin      片选引脚(可选择范围由common.h内PIN_enum枚举值确定)
//  @return     void
//  Sample usage:           内部使用  用户无需关心
//-------------------------------------------------------------------------------------------------------------------
void spi_gpio_init(SPI_PIN_enum sck_pin, SPI_PIN_enum mosi_pin, SPI_PIN_enum miso_pin, PIN_enum cs_pin)
{
    3d98:	1101                	addi	sp,sp,-32
    3d9a:	ce06                	sw	ra,28(sp)
    3d9c:	cc22                	sw	s0,24(sp)
    3d9e:	1000                	addi	s0,sp,32
    3da0:	fea42623          	sw	a0,-20(s0)
    3da4:	feb42423          	sw	a1,-24(s0)
    3da8:	fec42223          	sw	a2,-28(s0)
    3dac:	fed42023          	sw	a3,-32(s0)
C:\Users\windows\Desktop\smart_car\MASTER\obj/../Libraries/seekfree_libraries/zf_spi.c:42
    if(SPI1_SCK_PA5 == sck_pin) gpio_init(A5, GPO, 1, SPEED_50MHZ|OUT_AF_PP);
    3db0:	fec42783          	lw	a5,-20(s0)
    3db4:	eb89                	bnez	a5,3dc6 <spi_gpio_init+0x2e>
C:\Users\windows\Desktop\smart_car\MASTER\obj/../Libraries/seekfree_libraries/zf_spi.c:42 (discriminator 1)
    3db6:	31800693          	li	a3,792
    3dba:	4605                	li	a2,1
    3dbc:	4585                	li	a1,1
    3dbe:	4515                	li	a0,5
    3dc0:	8b0ff0ef          	jal	ra,2e70 <gpio_init>
    3dc4:	a899                	j	3e1a <spi_gpio_init+0x82>
C:\Users\windows\Desktop\smart_car\MASTER\obj/../Libraries/seekfree_libraries/zf_spi.c:43
    else if(SPI1_SCK_PB3 == sck_pin) gpio_init(B3, GPO, 1, SPEED_50MHZ|OUT_AF_PP);
    3dc6:	fec42703          	lw	a4,-20(s0)
    3dca:	47c1                	li	a5,16
    3dcc:	00f71b63          	bne	a4,a5,3de2 <spi_gpio_init+0x4a>
C:\Users\windows\Desktop\smart_car\MASTER\obj/../Libraries/seekfree_libraries/zf_spi.c:43 (discriminator 1)
    3dd0:	31800693          	li	a3,792
    3dd4:	4605                	li	a2,1
    3dd6:	4585                	li	a1,1
    3dd8:	02300513          	li	a0,35
    3ddc:	894ff0ef          	jal	ra,2e70 <gpio_init>
    3de0:	a82d                	j	3e1a <spi_gpio_init+0x82>
C:\Users\windows\Desktop\smart_car\MASTER\obj/../Libraries/seekfree_libraries/zf_spi.c:44
    else if(SPI2_SCK_PB13 == sck_pin) gpio_init(B13, GPO, 1, SPEED_50MHZ|OUT_AF_PP);
    3de2:	fec42703          	lw	a4,-20(s0)
    3de6:	02000793          	li	a5,32
    3dea:	00f71b63          	bne	a4,a5,3e00 <spi_gpio_init+0x68>
C:\Users\windows\Desktop\smart_car\MASTER\obj/../Libraries/seekfree_libraries/zf_spi.c:44 (discriminator 1)
    3dee:	31800693          	li	a3,792
    3df2:	4605                	li	a2,1
    3df4:	4585                	li	a1,1
    3df6:	02d00513          	li	a0,45
    3dfa:	876ff0ef          	jal	ra,2e70 <gpio_init>
    3dfe:	a831                	j	3e1a <spi_gpio_init+0x82>
C:\Users\windows\Desktop\smart_car\MASTER\obj/../Libraries/seekfree_libraries/zf_spi.c:45
    else assert(0);         //无此参数进入断言
    3e00:	679d                	lui	a5,0x7
    3e02:	ac878693          	addi	a3,a5,-1336 # 6ac8 <_exit+0x6>
    3e06:	679d                	lui	a5,0x7
    3e08:	b2c78613          	addi	a2,a5,-1236 # 6b2c <__func__.3348>
    3e0c:	02d00593          	li	a1,45
    3e10:	679d                	lui	a5,0x7
    3e12:	acc78513          	addi	a0,a5,-1332 # 6acc <_exit+0xa>
    3e16:	26d010ef          	jal	ra,5882 <__assert_func>
C:\Users\windows\Desktop\smart_car\MASTER\obj/../Libraries/seekfree_libraries/zf_spi.c:47

    if(SPI1_MOSI_PA7 == mosi_pin) gpio_init(A7, GPO, 1, SPEED_50MHZ|OUT_AF_PP);
    3e1a:	fe842703          	lw	a4,-24(s0)
    3e1e:	4785                	li	a5,1
    3e20:	00f71a63          	bne	a4,a5,3e34 <spi_gpio_init+0x9c>
C:\Users\windows\Desktop\smart_car\MASTER\obj/../Libraries/seekfree_libraries/zf_spi.c:47 (discriminator 1)
    3e24:	31800693          	li	a3,792
    3e28:	4605                	li	a2,1
    3e2a:	4585                	li	a1,1
    3e2c:	451d                	li	a0,7
    3e2e:	842ff0ef          	jal	ra,2e70 <gpio_init>
    3e32:	a899                	j	3e88 <spi_gpio_init+0xf0>
C:\Users\windows\Desktop\smart_car\MASTER\obj/../Libraries/seekfree_libraries/zf_spi.c:48
    else if(SPI1_MOSI_PB5 == mosi_pin) gpio_init(B5, GPO, 1, SPEED_50MHZ|OUT_AF_PP);
    3e34:	fe842703          	lw	a4,-24(s0)
    3e38:	47c5                	li	a5,17
    3e3a:	00f71b63          	bne	a4,a5,3e50 <spi_gpio_init+0xb8>
C:\Users\windows\Desktop\smart_car\MASTER\obj/../Libraries/seekfree_libraries/zf_spi.c:48 (discriminator 1)
    3e3e:	31800693          	li	a3,792
    3e42:	4605                	li	a2,1
    3e44:	4585                	li	a1,1
    3e46:	02500513          	li	a0,37
    3e4a:	826ff0ef          	jal	ra,2e70 <gpio_init>
    3e4e:	a82d                	j	3e88 <spi_gpio_init+0xf0>
C:\Users\windows\Desktop\smart_car\MASTER\obj/../Libraries/seekfree_libraries/zf_spi.c:49
    else if(SPI2_MOSI_PB15 == mosi_pin) gpio_init(B15, GPO, 1, SPEED_50MHZ|OUT_AF_PP);
    3e50:	fe842703          	lw	a4,-24(s0)
    3e54:	02100793          	li	a5,33
    3e58:	00f71b63          	bne	a4,a5,3e6e <spi_gpio_init+0xd6>
C:\Users\windows\Desktop\smart_car\MASTER\obj/../Libraries/seekfree_libraries/zf_spi.c:49 (discriminator 1)
    3e5c:	31800693          	li	a3,792
    3e60:	4605                	li	a2,1
    3e62:	4585                	li	a1,1
    3e64:	02f00513          	li	a0,47
    3e68:	808ff0ef          	jal	ra,2e70 <gpio_init>
    3e6c:	a831                	j	3e88 <spi_gpio_init+0xf0>
C:\Users\windows\Desktop\smart_car\MASTER\obj/../Libraries/seekfree_libraries/zf_spi.c:50
    else assert(0);         //无此参数进入断言
    3e6e:	679d                	lui	a5,0x7
    3e70:	ac878693          	addi	a3,a5,-1336 # 6ac8 <_exit+0x6>
    3e74:	679d                	lui	a5,0x7
    3e76:	b2c78613          	addi	a2,a5,-1236 # 6b2c <__func__.3348>
    3e7a:	03200593          	li	a1,50
    3e7e:	679d                	lui	a5,0x7
    3e80:	acc78513          	addi	a0,a5,-1332 # 6acc <_exit+0xa>
    3e84:	1ff010ef          	jal	ra,5882 <__assert_func>
C:\Users\windows\Desktop\smart_car\MASTER\obj/../Libraries/seekfree_libraries/zf_spi.c:52

    if(SPI1_MISO_PA6 == miso_pin) gpio_init(A6, GPO, 1, SPEED_50MHZ|OUT_AF_PP);
    3e88:	fe442703          	lw	a4,-28(s0)
    3e8c:	4789                	li	a5,2
    3e8e:	00f71a63          	bne	a4,a5,3ea2 <spi_gpio_init+0x10a>
C:\Users\windows\Desktop\smart_car\MASTER\obj/../Libraries/seekfree_libraries/zf_spi.c:52 (discriminator 1)
    3e92:	31800693          	li	a3,792
    3e96:	4605                	li	a2,1
    3e98:	4585                	li	a1,1
    3e9a:	4519                	li	a0,6
    3e9c:	fd5fe0ef          	jal	ra,2e70 <gpio_init>
    3ea0:	a0b5                	j	3f0c <spi_gpio_init+0x174>
C:\Users\windows\Desktop\smart_car\MASTER\obj/../Libraries/seekfree_libraries/zf_spi.c:53
    else if(SPI1_MISO_PB4 == miso_pin) gpio_init(B4, GPO, 1, SPEED_50MHZ|OUT_AF_PP);
    3ea2:	fe442703          	lw	a4,-28(s0)
    3ea6:	47c9                	li	a5,18
    3ea8:	00f71b63          	bne	a4,a5,3ebe <spi_gpio_init+0x126>
C:\Users\windows\Desktop\smart_car\MASTER\obj/../Libraries/seekfree_libraries/zf_spi.c:53 (discriminator 1)
    3eac:	31800693          	li	a3,792
    3eb0:	4605                	li	a2,1
    3eb2:	4585                	li	a1,1
    3eb4:	02400513          	li	a0,36
    3eb8:	fb9fe0ef          	jal	ra,2e70 <gpio_init>
    3ebc:	a881                	j	3f0c <spi_gpio_init+0x174>
C:\Users\windows\Desktop\smart_car\MASTER\obj/../Libraries/seekfree_libraries/zf_spi.c:54
    else if(SPI2_MISO_PB14 == miso_pin) gpio_init(B14, GPO, 1, SPEED_50MHZ|OUT_AF_PP);
    3ebe:	fe442703          	lw	a4,-28(s0)
    3ec2:	02200793          	li	a5,34
    3ec6:	00f71b63          	bne	a4,a5,3edc <spi_gpio_init+0x144>
C:\Users\windows\Desktop\smart_car\MASTER\obj/../Libraries/seekfree_libraries/zf_spi.c:54 (discriminator 1)
    3eca:	31800693          	li	a3,792
    3ece:	4605                	li	a2,1
    3ed0:	4585                	li	a1,1
    3ed2:	02e00513          	li	a0,46
    3ed6:	f9bfe0ef          	jal	ra,2e70 <gpio_init>
    3eda:	a80d                	j	3f0c <spi_gpio_init+0x174>
C:\Users\windows\Desktop\smart_car\MASTER\obj/../Libraries/seekfree_libraries/zf_spi.c:55
    else if(SPI_MISO_NULL == miso_pin)  miso_pin = SPI_MISO_NULL;
    3edc:	fe442703          	lw	a4,-28(s0)
    3ee0:	02300793          	li	a5,35
    3ee4:	00f71763          	bne	a4,a5,3ef2 <spi_gpio_init+0x15a>
C:\Users\windows\Desktop\smart_car\MASTER\obj/../Libraries/seekfree_libraries/zf_spi.c:55 (discriminator 1)
    3ee8:	02300793          	li	a5,35
    3eec:	fef42223          	sw	a5,-28(s0)
    3ef0:	a831                	j	3f0c <spi_gpio_init+0x174>
C:\Users\windows\Desktop\smart_car\MASTER\obj/../Libraries/seekfree_libraries/zf_spi.c:56
    else  assert(0);         //无此参数进入断言
    3ef2:	679d                	lui	a5,0x7
    3ef4:	ac878693          	addi	a3,a5,-1336 # 6ac8 <_exit+0x6>
    3ef8:	679d                	lui	a5,0x7
    3efa:	b2c78613          	addi	a2,a5,-1236 # 6b2c <__func__.3348>
    3efe:	03800593          	li	a1,56
    3f02:	679d                	lui	a5,0x7
    3f04:	acc78513          	addi	a0,a5,-1332 # 6acc <_exit+0xa>
    3f08:	17b010ef          	jal	ra,5882 <__assert_func>
C:\Users\windows\Desktop\smart_car\MASTER\obj/../Libraries/seekfree_libraries/zf_spi.c:59


    gpio_init(cs_pin, GPO, 1, SPEED_50MHZ|OUT_PP);
    3f0c:	31000693          	li	a3,784
    3f10:	4605                	li	a2,1
    3f12:	4585                	li	a1,1
    3f14:	fe042503          	lw	a0,-32(s0)
    3f18:	f59fe0ef          	jal	ra,2e70 <gpio_init>
C:\Users\windows\Desktop\smart_car\MASTER\obj/../Libraries/seekfree_libraries/zf_spi.c:61

}
    3f1c:	0001                	nop
    3f1e:	40f2                	lw	ra,28(sp)
    3f20:	4462                	lw	s0,24(sp)
    3f22:	6105                	addi	sp,sp,32
    3f24:	8082                	ret

00003f26 <spi_init>:
spi_init():
C:\Users\windows\Desktop\smart_car\MASTER\obj/../Libraries/seekfree_libraries/zf_spi.c:85
        SPI_PIN_enum mosi_pin,
        SPI_PIN_enum miso_pin,
        PIN_enum cs_pin,
        uint8 mode,
        SPI_SPEED_enum BaudRatePrescaler)
{
    3f26:	715d                	addi	sp,sp,-80
    3f28:	c686                	sw	ra,76(sp)
    3f2a:	c4a2                	sw	s0,72(sp)
    3f2c:	0880                	addi	s0,sp,80
    3f2e:	fca42623          	sw	a0,-52(s0)
    3f32:	fcb42423          	sw	a1,-56(s0)
    3f36:	fcc42223          	sw	a2,-60(s0)
    3f3a:	fcd42023          	sw	a3,-64(s0)
    3f3e:	fae42e23          	sw	a4,-68(s0)
    3f42:	fb042a23          	sw	a6,-76(s0)
    3f46:	faf40da3          	sb	a5,-69(s0)
C:\Users\windows\Desktop\smart_car\MASTER\obj/../Libraries/seekfree_libraries/zf_spi.c:89

    SPI_InitTypeDef  SPI_InitStructure;

    if(SPI_1 == spi_n)
    3f4a:	fcc42783          	lw	a5,-52(s0)
    3f4e:	eb81                	bnez	a5,3f5e <spi_init+0x38>
C:\Users\windows\Desktop\smart_car\MASTER\obj/../Libraries/seekfree_libraries/zf_spi.c:91
    {
        RCC_APB2PeriphClockCmd(RCC_APB2Periph_SPI1 | RCC_APB2Periph_AFIO, ENABLE);                //SPI1时钟使能
    3f50:	4585                	li	a1,1
    3f52:	6785                	lui	a5,0x1
    3f54:	00178513          	addi	a0,a5,1 # 1001 <GPIO_PinRemapConfig+0x11>
    3f58:	de2fd0ef          	jal	ra,153a <RCC_APB2PeriphClockCmd>
    3f5c:	a821                	j	3f74 <spi_init+0x4e>
C:\Users\windows\Desktop\smart_car\MASTER\obj/../Libraries/seekfree_libraries/zf_spi.c:93
    }
    else if(SPI_2 == spi_n)
    3f5e:	fcc42703          	lw	a4,-52(s0)
    3f62:	4785                	li	a5,1
    3f64:	00f71863          	bne	a4,a5,3f74 <spi_init+0x4e>
C:\Users\windows\Desktop\smart_car\MASTER\obj/../Libraries/seekfree_libraries/zf_spi.c:95
    {
        RCC_APB1PeriphClockCmd(RCC_APB1Periph_SPI2 | RCC_APB2Periph_AFIO, ENABLE);                //SPI2时钟使能
    3f68:	4585                	li	a1,1
    3f6a:	6791                	lui	a5,0x4
    3f6c:	00178513          	addi	a0,a5,1 # 4001 <spi_init+0xdb>
    3f70:	e10fd0ef          	jal	ra,1580 <RCC_APB1PeriphClockCmd>
C:\Users\windows\Desktop\smart_car\MASTER\obj/../Libraries/seekfree_libraries/zf_spi.c:98
    }

    spi_gpio_init(sck_pin, mosi_pin, miso_pin, cs_pin);
    3f74:	fbc42683          	lw	a3,-68(s0)
    3f78:	fc042603          	lw	a2,-64(s0)
    3f7c:	fc442583          	lw	a1,-60(s0)
    3f80:	fc842503          	lw	a0,-56(s0)
    3f84:	e15ff0ef          	jal	ra,3d98 <spi_gpio_init>
C:\Users\windows\Desktop\smart_car\MASTER\obj/../Libraries/seekfree_libraries/zf_spi.c:100

    SPI_InitStructure.SPI_Direction = SPI_Direction_2Lines_FullDuplex;      //SPI设置为双线双向全双工
    3f88:	fc041e23          	sh	zero,-36(s0)
C:\Users\windows\Desktop\smart_car\MASTER\obj/../Libraries/seekfree_libraries/zf_spi.c:101
    SPI_InitStructure.SPI_Mode = SPI_Mode_Master;                           //设置SPI工作模式:设置为主SPI
    3f8c:	10400793          	li	a5,260
    3f90:	fcf41f23          	sh	a5,-34(s0)
C:\Users\windows\Desktop\smart_car\MASTER\obj/../Libraries/seekfree_libraries/zf_spi.c:102
    SPI_InitStructure.SPI_DataSize = SPI_DataSize_8b;                       //设置SPI的数据大小:SPI发送接收8位帧结构
    3f94:	fe041023          	sh	zero,-32(s0)
C:\Users\windows\Desktop\smart_car\MASTER\obj/../Libraries/seekfree_libraries/zf_spi.c:104

    switch(mode)
    3f98:	fbb44783          	lbu	a5,-69(s0)
    3f9c:	4705                	li	a4,1
    3f9e:	02e78363          	beq	a5,a4,3fc4 <spi_init+0x9e>
    3fa2:	4705                	li	a4,1
    3fa4:	00f74463          	blt	a4,a5,3fac <spi_init+0x86>
    3fa8:	cb89                	beqz	a5,3fba <spi_init+0x94>
    3faa:	a081                	j	3fea <spi_init+0xc4>
    3fac:	4709                	li	a4,2
    3fae:	02e78163          	beq	a5,a4,3fd0 <spi_init+0xaa>
    3fb2:	470d                	li	a4,3
    3fb4:	02e78463          	beq	a5,a4,3fdc <spi_init+0xb6>
    3fb8:	a80d                	j	3fea <spi_init+0xc4>
C:\Users\windows\Desktop\smart_car\MASTER\obj/../Libraries/seekfree_libraries/zf_spi.c:108
    {
        case 0:
        {
            SPI_InitStructure.SPI_CPOL = SPI_CPOL_Low;                      //串行同步时钟的空闲状态为低电平
    3fba:	fe041123          	sh	zero,-30(s0)
C:\Users\windows\Desktop\smart_car\MASTER\obj/../Libraries/seekfree_libraries/zf_spi.c:109
            SPI_InitStructure.SPI_CPHA = SPI_CPHA_1Edge;                    //串行同步时钟的第一个跳变沿（上升或下降）数据被采样
    3fbe:	fe041223          	sh	zero,-28(s0)
C:\Users\windows\Desktop\smart_car\MASTER\obj/../Libraries/seekfree_libraries/zf_spi.c:110
        }break;
    3fc2:	a025                	j	3fea <spi_init+0xc4>
C:\Users\windows\Desktop\smart_car\MASTER\obj/../Libraries/seekfree_libraries/zf_spi.c:113
        case 1:
        {
            SPI_InitStructure.SPI_CPOL = SPI_CPOL_Low;                      //串行同步时钟的空闲状态为低电平
    3fc4:	fe041123          	sh	zero,-30(s0)
C:\Users\windows\Desktop\smart_car\MASTER\obj/../Libraries/seekfree_libraries/zf_spi.c:114
            SPI_InitStructure.SPI_CPHA = SPI_CPHA_2Edge;                    //串行同步时钟的第二个跳变沿（上升或下降）数据被采样
    3fc8:	4785                	li	a5,1
    3fca:	fef41223          	sh	a5,-28(s0)
C:\Users\windows\Desktop\smart_car\MASTER\obj/../Libraries/seekfree_libraries/zf_spi.c:115
        }break;
    3fce:	a831                	j	3fea <spi_init+0xc4>
C:\Users\windows\Desktop\smart_car\MASTER\obj/../Libraries/seekfree_libraries/zf_spi.c:118
        case 2:
        {
            SPI_InitStructure.SPI_CPOL = SPI_CPOL_High;                     //串行同步时钟的空闲状态为高电平
    3fd0:	4789                	li	a5,2
    3fd2:	fef41123          	sh	a5,-30(s0)
C:\Users\windows\Desktop\smart_car\MASTER\obj/../Libraries/seekfree_libraries/zf_spi.c:119
            SPI_InitStructure.SPI_CPHA = SPI_CPHA_1Edge;                    //串行同步时钟的第一个跳变沿（上升或下降）数据被采样
    3fd6:	fe041223          	sh	zero,-28(s0)
C:\Users\windows\Desktop\smart_car\MASTER\obj/../Libraries/seekfree_libraries/zf_spi.c:120
        }break;
    3fda:	a801                	j	3fea <spi_init+0xc4>
C:\Users\windows\Desktop\smart_car\MASTER\obj/../Libraries/seekfree_libraries/zf_spi.c:123
        case 3:
        {
            SPI_InitStructure.SPI_CPOL = SPI_CPOL_High;                     //串行同步时钟的空闲状态为高电平
    3fdc:	4789                	li	a5,2
    3fde:	fef41123          	sh	a5,-30(s0)
C:\Users\windows\Desktop\smart_car\MASTER\obj/../Libraries/seekfree_libraries/zf_spi.c:124
            SPI_InitStructure.SPI_CPHA = SPI_CPHA_2Edge;                    //串行同步时钟的第二个跳变沿（上升或下降）数据被采样
    3fe2:	4785                	li	a5,1
    3fe4:	fef41223          	sh	a5,-28(s0)
C:\Users\windows\Desktop\smart_car\MASTER\obj/../Libraries/seekfree_libraries/zf_spi.c:125
        }break;
    3fe8:	0001                	nop
C:\Users\windows\Desktop\smart_car\MASTER\obj/../Libraries/seekfree_libraries/zf_spi.c:128
    }

    SPI_InitStructure.SPI_NSS = SPI_NSS_Soft;                               //主机模式，使用软件控制NSS引脚
    3fea:	20000793          	li	a5,512
    3fee:	fef41323          	sh	a5,-26(s0)
C:\Users\windows\Desktop\smart_car\MASTER\obj/../Libraries/seekfree_libraries/zf_spi.c:129
    SPI_InitStructure.SPI_BaudRatePrescaler = BaudRatePrescaler << 3;       //定义波特率预分频的值
    3ff2:	fb442783          	lw	a5,-76(s0)
    3ff6:	07c2                	slli	a5,a5,0x10
    3ff8:	83c1                	srli	a5,a5,0x10
    3ffa:	078e                	slli	a5,a5,0x3
    3ffc:	07c2                	slli	a5,a5,0x10
    3ffe:	83c1                	srli	a5,a5,0x10
    4000:	fef41423          	sh	a5,-24(s0)
C:\Users\windows\Desktop\smart_car\MASTER\obj/../Libraries/seekfree_libraries/zf_spi.c:130
    SPI_InitStructure.SPI_FirstBit = SPI_FirstBit_MSB;                      //指定数据传输从MSB位还是LSB位开始:数据传输从MSB位开始
    4004:	fe041523          	sh	zero,-22(s0)
C:\Users\windows\Desktop\smart_car\MASTER\obj/../Libraries/seekfree_libraries/zf_spi.c:131
    SPI_InitStructure.SPI_CRCPolynomial = 7;                                //CRC值计算的多项式
    4008:	479d                	li	a5,7
    400a:	fef41623          	sh	a5,-20(s0)
C:\Users\windows\Desktop\smart_car\MASTER\obj/../Libraries/seekfree_libraries/zf_spi.c:132
    SPI_Init((SPI_TypeDef *)(SPIN[spi_n]), &SPI_InitStructure);             //根据SPI_InitStruct中指定的参数初始化外设SPIx寄存器
    400e:	fcc42703          	lw	a4,-52(s0)
    4012:	070a                	slli	a4,a4,0x2
    4014:	80c18793          	addi	a5,gp,-2036 # 2000007c <SPIN>
    4018:	97ba                	add	a5,a5,a4
    401a:	439c                	lw	a5,0(a5)
    401c:	873e                	mv	a4,a5
    401e:	fdc40793          	addi	a5,s0,-36
    4022:	85be                	mv	a1,a5
    4024:	853a                	mv	a0,a4
    4026:	da0fd0ef          	jal	ra,15c6 <SPI_Init>
C:\Users\windows\Desktop\smart_car\MASTER\obj/../Libraries/seekfree_libraries/zf_spi.c:134

    if(SPI1_SCK_PB3 == sck_pin) GPIO_PinRemapConfig(GPIO_Remap_SPI1, ENABLE);
    402a:	fc842703          	lw	a4,-56(s0)
    402e:	47c1                	li	a5,16
    4030:	00f71663          	bne	a4,a5,403c <spi_init+0x116>
C:\Users\windows\Desktop\smart_car\MASTER\obj/../Libraries/seekfree_libraries/zf_spi.c:134 (discriminator 1)
    4034:	4585                	li	a1,1
    4036:	4505                	li	a0,1
    4038:	fb9fc0ef          	jal	ra,ff0 <GPIO_PinRemapConfig>
C:\Users\windows\Desktop\smart_car\MASTER\obj/../Libraries/seekfree_libraries/zf_spi.c:136

    SPI_Cmd(((SPI_TypeDef *)(SPIN[spi_n])), ENABLE);                         //使能SPI外设
    403c:	fcc42703          	lw	a4,-52(s0)
    4040:	070a                	slli	a4,a4,0x2
    4042:	80c18793          	addi	a5,gp,-2036 # 2000007c <SPIN>
    4046:	97ba                	add	a5,a5,a4
    4048:	439c                	lw	a5,0(a5)
    404a:	4585                	li	a1,1
    404c:	853e                	mv	a0,a5
    404e:	e70fd0ef          	jal	ra,16be <SPI_Cmd>
C:\Users\windows\Desktop\smart_car\MASTER\obj/../Libraries/seekfree_libraries/zf_spi.c:138

}
    4052:	0001                	nop
    4054:	40b6                	lw	ra,76(sp)
    4056:	4426                	lw	s0,72(sp)
    4058:	6161                	addi	sp,sp,80
    405a:	8082                	ret

0000405c <spi_mosi>:
spi_mosi():
C:\Users\windows\Desktop\smart_car\MASTER\obj/../Libraries/seekfree_libraries/zf_spi.c:151
//  @return     void
//  @since      v2.0
//  Sample usage:               spi_mosi(SPI_1, buf, buf, 1);    //发送modata的内容，并接收到midata里，长度为1字节
//-------------------------------------------------------------------------------------------------------------------
void spi_mosi(SPIN_enum spi_n, uint8 *modata, uint8 *midata, uint32 len)
{
    405c:	1101                	addi	sp,sp,-32
    405e:	ce22                	sw	s0,28(sp)
    4060:	1000                	addi	s0,sp,32
    4062:	fea42623          	sw	a0,-20(s0)
    4066:	feb42423          	sw	a1,-24(s0)
    406a:	fec42223          	sw	a2,-28(s0)
    406e:	fed42023          	sw	a3,-32(s0)
C:\Users\windows\Desktop\smart_car\MASTER\obj/../Libraries/seekfree_libraries/zf_spi.c:152
    while(len--)
    4072:	a859                	j	4108 <spi_mosi+0xac>
C:\Users\windows\Desktop\smart_car\MASTER\obj/../Libraries/seekfree_libraries/zf_spi.c:154
    {
        while((((SPI_TypeDef *)(SPIN[spi_n]))->STATR & SPI_I2S_FLAG_TXE) == RESET);
    4074:	0001                	nop
C:\Users\windows\Desktop\smart_car\MASTER\obj/../Libraries/seekfree_libraries/zf_spi.c:154 (discriminator 1)
    4076:	fec42703          	lw	a4,-20(s0)
    407a:	070a                	slli	a4,a4,0x2
    407c:	80c18793          	addi	a5,gp,-2036 # 2000007c <SPIN>
    4080:	97ba                	add	a5,a5,a4
    4082:	439c                	lw	a5,0(a5)
    4084:	0087d783          	lhu	a5,8(a5)
    4088:	07c2                	slli	a5,a5,0x10
    408a:	83c1                	srli	a5,a5,0x10
    408c:	8b89                	andi	a5,a5,2
    408e:	d7e5                	beqz	a5,4076 <spi_mosi+0x1a>
C:\Users\windows\Desktop\smart_car\MASTER\obj/../Libraries/seekfree_libraries/zf_spi.c:155
        ((SPI_TypeDef *)(SPIN[spi_n]))->DATAR = *(modata++);
    4090:	fe842783          	lw	a5,-24(s0)
    4094:	00178713          	addi	a4,a5,1
    4098:	fee42423          	sw	a4,-24(s0)
    409c:	0007c683          	lbu	a3,0(a5)
    40a0:	fec42703          	lw	a4,-20(s0)
    40a4:	070a                	slli	a4,a4,0x2
    40a6:	80c18793          	addi	a5,gp,-2036 # 2000007c <SPIN>
    40aa:	97ba                	add	a5,a5,a4
    40ac:	439c                	lw	a5,0(a5)
    40ae:	873e                	mv	a4,a5
    40b0:	01069793          	slli	a5,a3,0x10
    40b4:	83c1                	srli	a5,a5,0x10
    40b6:	00f71623          	sh	a5,12(a4) # 1000c <_data_lma+0x92a4>
C:\Users\windows\Desktop\smart_car\MASTER\obj/../Libraries/seekfree_libraries/zf_spi.c:156
        if(NULL != midata)
    40ba:	fe442783          	lw	a5,-28(s0)
    40be:	c7a9                	beqz	a5,4108 <spi_mosi+0xac>
C:\Users\windows\Desktop\smart_car\MASTER\obj/../Libraries/seekfree_libraries/zf_spi.c:158
        {
            while((((SPI_TypeDef *)(SPIN[spi_n]))->STATR & SPI_I2S_FLAG_RXNE) == RESET);
    40c0:	0001                	nop
C:\Users\windows\Desktop\smart_car\MASTER\obj/../Libraries/seekfree_libraries/zf_spi.c:158 (discriminator 1)
    40c2:	fec42703          	lw	a4,-20(s0)
    40c6:	070a                	slli	a4,a4,0x2
    40c8:	80c18793          	addi	a5,gp,-2036 # 2000007c <SPIN>
    40cc:	97ba                	add	a5,a5,a4
    40ce:	439c                	lw	a5,0(a5)
    40d0:	0087d783          	lhu	a5,8(a5)
    40d4:	07c2                	slli	a5,a5,0x10
    40d6:	83c1                	srli	a5,a5,0x10
    40d8:	8b85                	andi	a5,a5,1
    40da:	d7e5                	beqz	a5,40c2 <spi_mosi+0x66>
C:\Users\windows\Desktop\smart_car\MASTER\obj/../Libraries/seekfree_libraries/zf_spi.c:159
            *(midata++) = ((SPI_TypeDef *)(SPIN[spi_n]))->DATAR;
    40dc:	fec42703          	lw	a4,-20(s0)
    40e0:	070a                	slli	a4,a4,0x2
    40e2:	80c18793          	addi	a5,gp,-2036 # 2000007c <SPIN>
    40e6:	97ba                	add	a5,a5,a4
    40e8:	439c                	lw	a5,0(a5)
    40ea:	00c7d783          	lhu	a5,12(a5)
    40ee:	01079693          	slli	a3,a5,0x10
    40f2:	82c1                	srli	a3,a3,0x10
    40f4:	fe442783          	lw	a5,-28(s0)
    40f8:	00178713          	addi	a4,a5,1
    40fc:	fee42223          	sw	a4,-28(s0)
    4100:	0ff6f713          	andi	a4,a3,255
    4104:	00e78023          	sb	a4,0(a5)
C:\Users\windows\Desktop\smart_car\MASTER\obj/../Libraries/seekfree_libraries/zf_spi.c:152
    while(len--)
    4108:	fe042783          	lw	a5,-32(s0)
    410c:	fff78713          	addi	a4,a5,-1
    4110:	fee42023          	sw	a4,-32(s0)
    4114:	f3a5                	bnez	a5,4074 <spi_mosi+0x18>
C:\Users\windows\Desktop\smart_car\MASTER\obj/../Libraries/seekfree_libraries/zf_spi.c:162
        }
    }
}
    4116:	0001                	nop
    4118:	4472                	lw	s0,28(sp)
    411a:	6105                	addi	sp,sp,32
    411c:	8082                	ret

0000411e <systick_delay>:
systick_delay():
C:\Users\windows\Desktop\smart_car\MASTER\obj/../Libraries/seekfree_libraries/zf_systick.c:29
//  @param      time                us
//  @return     void
//  Sample usage:                   内部使用，用户无需关心
//-------------------------------------------------------------------------------------------------------------------
void systick_delay(uint64 time)
{
    411e:	1101                	addi	sp,sp,-32
    4120:	ce22                	sw	s0,28(sp)
    4122:	1000                	addi	s0,sp,32
    4124:	fea42423          	sw	a0,-24(s0)
    4128:	feb42623          	sw	a1,-20(s0)
C:\Users\windows\Desktop\smart_car\MASTER\obj/../Libraries/seekfree_libraries/zf_systick.c:30
    SysTick->CTLR = 0;
    412c:	e000f737          	lui	a4,0xe000f
    4130:	00072023          	sw	zero,0(a4) # e000f000 <_eusrstack+0xc000a000>
C:\Users\windows\Desktop\smart_car\MASTER\obj/../Libraries/seekfree_libraries/zf_systick.c:31
    SysTick->CNTL0 = 0;
    4134:	e000f737          	lui	a4,0xe000f
    4138:	00070223          	sb	zero,4(a4) # e000f004 <_eusrstack+0xc000a004>
C:\Users\windows\Desktop\smart_car\MASTER\obj/../Libraries/seekfree_libraries/zf_systick.c:32
    SysTick->CNTL1 = 0;
    413c:	e000f737          	lui	a4,0xe000f
    4140:	000702a3          	sb	zero,5(a4) # e000f005 <_eusrstack+0xc000a005>
C:\Users\windows\Desktop\smart_car\MASTER\obj/../Libraries/seekfree_libraries/zf_systick.c:33
    SysTick->CNTL2 = 0;
    4144:	e000f737          	lui	a4,0xe000f
    4148:	00070323          	sb	zero,6(a4) # e000f006 <_eusrstack+0xc000a006>
C:\Users\windows\Desktop\smart_car\MASTER\obj/../Libraries/seekfree_libraries/zf_systick.c:34
    SysTick->CNTL3 = 0;
    414c:	e000f737          	lui	a4,0xe000f
    4150:	000703a3          	sb	zero,7(a4) # e000f007 <_eusrstack+0xc000a007>
C:\Users\windows\Desktop\smart_car\MASTER\obj/../Libraries/seekfree_libraries/zf_systick.c:35
    SysTick->CNTH0 = 0;
    4154:	e000f737          	lui	a4,0xe000f
    4158:	00070423          	sb	zero,8(a4) # e000f008 <_eusrstack+0xc000a008>
C:\Users\windows\Desktop\smart_car\MASTER\obj/../Libraries/seekfree_libraries/zf_systick.c:36
    SysTick->CNTH1 = 0;
    415c:	e000f737          	lui	a4,0xe000f
    4160:	000704a3          	sb	zero,9(a4) # e000f009 <_eusrstack+0xc000a009>
C:\Users\windows\Desktop\smart_car\MASTER\obj/../Libraries/seekfree_libraries/zf_systick.c:37
    SysTick->CNTH2 = 0;
    4164:	e000f737          	lui	a4,0xe000f
    4168:	00070523          	sb	zero,10(a4) # e000f00a <_eusrstack+0xc000a00a>
C:\Users\windows\Desktop\smart_car\MASTER\obj/../Libraries/seekfree_libraries/zf_systick.c:38
    SysTick->CNTH3 = 0;
    416c:	e000f737          	lui	a4,0xe000f
    4170:	000705a3          	sb	zero,11(a4) # e000f00b <_eusrstack+0xc000a00b>
C:\Users\windows\Desktop\smart_car\MASTER\obj/../Libraries/seekfree_libraries/zf_systick.c:39
    SysTick->CTLR = 1;          //启动系统计数器 systick（HCLK/8 时基） us
    4174:	e000f737          	lui	a4,0xe000f
    4178:	4685                	li	a3,1
    417a:	c314                	sw	a3,0(a4)
C:\Users\windows\Desktop\smart_car\MASTER\obj/../Libraries/seekfree_libraries/zf_systick.c:41

    while((*(volatile uint32*)0xE000F004) <= time);
    417c:	0001                	nop
C:\Users\windows\Desktop\smart_car\MASTER\obj/../Libraries/seekfree_libraries/zf_systick.c:41 (discriminator 1)
    417e:	e000f737          	lui	a4,0xe000f
    4182:	0711                	addi	a4,a4,4
    4184:	4318                	lw	a4,0(a4)
    4186:	87ba                	mv	a5,a4
    4188:	4801                	li	a6,0
    418a:	fec42703          	lw	a4,-20(s0)
    418e:	86c2                	mv	a3,a6
    4190:	00d76d63          	bltu	a4,a3,41aa <systick_delay+0x8c>
    4194:	fec42703          	lw	a4,-20(s0)
    4198:	86c2                	mv	a3,a6
    419a:	fed712e3          	bne	a4,a3,417e <systick_delay+0x60>
    419e:	fe842703          	lw	a4,-24(s0)
    41a2:	86be                	mv	a3,a5
    41a4:	00d76363          	bltu	a4,a3,41aa <systick_delay+0x8c>
    41a8:	bfd9                	j	417e <systick_delay+0x60>
C:\Users\windows\Desktop\smart_car\MASTER\obj/../Libraries/seekfree_libraries/zf_systick.c:42
}
    41aa:	0001                	nop
    41ac:	4472                	lw	s0,28(sp)
    41ae:	6105                	addi	sp,sp,32
    41b0:	8082                	ret

000041b2 <uart_gpio_init>:
uart_gpio_init():
C:\Users\windows\Desktop\smart_car\MASTER\obj/../Libraries/seekfree_libraries/zf_uart.c:38
//  @param      rx_pin      串口接收引脚号
//  @return     void
//  Sample usage:           内部使用，用户无需关心
//-------------------------------------------------------------------------------------------------------------------
void uart_gpio_init(UARTPIN_enum tx_pin, UARTPIN_enum rx_pin)
{
    41b2:	1101                	addi	sp,sp,-32
    41b4:	ce06                	sw	ra,28(sp)
    41b6:	cc22                	sw	s0,24(sp)
    41b8:	1000                	addi	s0,sp,32
    41ba:	fea42623          	sw	a0,-20(s0)
    41be:	feb42423          	sw	a1,-24(s0)
C:\Users\windows\Desktop\smart_car\MASTER\obj/../Libraries/seekfree_libraries/zf_uart.c:39
    if(tx_pin == UART1_TX_A9 && rx_pin == UART1_RX_A10)
    41c2:	fec42783          	lw	a5,-20(s0)
    41c6:	e785                	bnez	a5,41ee <uart_gpio_init+0x3c>
C:\Users\windows\Desktop\smart_car\MASTER\obj/../Libraries/seekfree_libraries/zf_uart.c:39 (discriminator 1)
    41c8:	fe842703          	lw	a4,-24(s0)
    41cc:	4785                	li	a5,1
    41ce:	02f71063          	bne	a4,a5,41ee <uart_gpio_init+0x3c>
C:\Users\windows\Desktop\smart_car\MASTER\obj/../Libraries/seekfree_libraries/zf_uart.c:41
    {
        gpio_init(A9, GPO, 0, SPEED_50MHZ|OUT_AF_PP);
    41d2:	31800693          	li	a3,792
    41d6:	4601                	li	a2,0
    41d8:	4585                	li	a1,1
    41da:	4525                	li	a0,9
    41dc:	c95fe0ef          	jal	ra,2e70 <gpio_init>
C:\Users\windows\Desktop\smart_car\MASTER\obj/../Libraries/seekfree_libraries/zf_uart.c:42
        gpio_init(A10, GPI, 0, IN_FLOAT);
    41e0:	4691                	li	a3,4
    41e2:	4601                	li	a2,0
    41e4:	4581                	li	a1,0
    41e6:	4529                	li	a0,10
    41e8:	c89fe0ef          	jal	ra,2e70 <gpio_init>
C:\Users\windows\Desktop\smart_car\MASTER\obj/../Libraries/seekfree_libraries/zf_uart.c:67
    else if(tx_pin == UART3_TX_C10)
    {
        gpio_init(C10, GPO, 0, SPEED_50MHZ|OUT_AF_PP);
        gpio_init(C11, GPI, 0, IN_FLOAT);
    }
}
    41ec:	a065                	j	4294 <uart_gpio_init+0xe2>
C:\Users\windows\Desktop\smart_car\MASTER\obj/../Libraries/seekfree_libraries/zf_uart.c:44
    else if(tx_pin == UART1_TX_B6)
    41ee:	fec42703          	lw	a4,-20(s0)
    41f2:	4789                	li	a5,2
    41f4:	02f71263          	bne	a4,a5,4218 <uart_gpio_init+0x66>
C:\Users\windows\Desktop\smart_car\MASTER\obj/../Libraries/seekfree_libraries/zf_uart.c:46
        gpio_init(B6, GPO, 0, SPEED_50MHZ|OUT_AF_PP);
    41f8:	31800693          	li	a3,792
    41fc:	4601                	li	a2,0
    41fe:	4585                	li	a1,1
    4200:	02600513          	li	a0,38
    4204:	c6dfe0ef          	jal	ra,2e70 <gpio_init>
C:\Users\windows\Desktop\smart_car\MASTER\obj/../Libraries/seekfree_libraries/zf_uart.c:47
        gpio_init(B7, GPI, 0, IN_FLOAT);
    4208:	4691                	li	a3,4
    420a:	4601                	li	a2,0
    420c:	4581                	li	a1,0
    420e:	02700513          	li	a0,39
    4212:	c5ffe0ef          	jal	ra,2e70 <gpio_init>
C:\Users\windows\Desktop\smart_car\MASTER\obj/../Libraries/seekfree_libraries/zf_uart.c:67
}
    4216:	a8bd                	j	4294 <uart_gpio_init+0xe2>
C:\Users\windows\Desktop\smart_car\MASTER\obj/../Libraries/seekfree_libraries/zf_uart.c:50
    else if(tx_pin == UART2_TX_A2)
    4218:	fec42703          	lw	a4,-20(s0)
    421c:	47c1                	li	a5,16
    421e:	02f71063          	bne	a4,a5,423e <uart_gpio_init+0x8c>
C:\Users\windows\Desktop\smart_car\MASTER\obj/../Libraries/seekfree_libraries/zf_uart.c:52
        gpio_init(A2, GPO, 0, SPEED_50MHZ|OUT_AF_PP);
    4222:	31800693          	li	a3,792
    4226:	4601                	li	a2,0
    4228:	4585                	li	a1,1
    422a:	4509                	li	a0,2
    422c:	c45fe0ef          	jal	ra,2e70 <gpio_init>
C:\Users\windows\Desktop\smart_car\MASTER\obj/../Libraries/seekfree_libraries/zf_uart.c:53
        gpio_init(A3, GPI, 0, IN_FLOAT);
    4230:	4691                	li	a3,4
    4232:	4601                	li	a2,0
    4234:	4581                	li	a1,0
    4236:	450d                	li	a0,3
    4238:	c39fe0ef          	jal	ra,2e70 <gpio_init>
C:\Users\windows\Desktop\smart_car\MASTER\obj/../Libraries/seekfree_libraries/zf_uart.c:67
}
    423c:	a8a1                	j	4294 <uart_gpio_init+0xe2>
C:\Users\windows\Desktop\smart_car\MASTER\obj/../Libraries/seekfree_libraries/zf_uart.c:56
    else if(tx_pin == UART3_TX_B10)
    423e:	fec42703          	lw	a4,-20(s0)
    4242:	02000793          	li	a5,32
    4246:	02f71263          	bne	a4,a5,426a <uart_gpio_init+0xb8>
C:\Users\windows\Desktop\smart_car\MASTER\obj/../Libraries/seekfree_libraries/zf_uart.c:58
        gpio_init(B10, GPO, 0, SPEED_50MHZ|OUT_AF_PP);
    424a:	31800693          	li	a3,792
    424e:	4601                	li	a2,0
    4250:	4585                	li	a1,1
    4252:	02a00513          	li	a0,42
    4256:	c1bfe0ef          	jal	ra,2e70 <gpio_init>
C:\Users\windows\Desktop\smart_car\MASTER\obj/../Libraries/seekfree_libraries/zf_uart.c:59
        gpio_init(B11, GPI, 0, IN_FLOAT);
    425a:	4691                	li	a3,4
    425c:	4601                	li	a2,0
    425e:	4581                	li	a1,0
    4260:	02b00513          	li	a0,43
    4264:	c0dfe0ef          	jal	ra,2e70 <gpio_init>
C:\Users\windows\Desktop\smart_car\MASTER\obj/../Libraries/seekfree_libraries/zf_uart.c:67
}
    4268:	a035                	j	4294 <uart_gpio_init+0xe2>
C:\Users\windows\Desktop\smart_car\MASTER\obj/../Libraries/seekfree_libraries/zf_uart.c:62
    else if(tx_pin == UART3_TX_C10)
    426a:	fec42703          	lw	a4,-20(s0)
    426e:	02200793          	li	a5,34
    4272:	02f71163          	bne	a4,a5,4294 <uart_gpio_init+0xe2>
C:\Users\windows\Desktop\smart_car\MASTER\obj/../Libraries/seekfree_libraries/zf_uart.c:64
        gpio_init(C10, GPO, 0, SPEED_50MHZ|OUT_AF_PP);
    4276:	31800693          	li	a3,792
    427a:	4601                	li	a2,0
    427c:	4585                	li	a1,1
    427e:	04a00513          	li	a0,74
    4282:	beffe0ef          	jal	ra,2e70 <gpio_init>
C:\Users\windows\Desktop\smart_car\MASTER\obj/../Libraries/seekfree_libraries/zf_uart.c:65
        gpio_init(C11, GPI, 0, IN_FLOAT);
    4286:	4691                	li	a3,4
    4288:	4601                	li	a2,0
    428a:	4581                	li	a1,0
    428c:	04b00513          	li	a0,75
    4290:	be1fe0ef          	jal	ra,2e70 <gpio_init>
C:\Users\windows\Desktop\smart_car\MASTER\obj/../Libraries/seekfree_libraries/zf_uart.c:67
}
    4294:	0001                	nop
    4296:	40f2                	lw	ra,28(sp)
    4298:	4462                	lw	s0,24(sp)
    429a:	6105                	addi	sp,sp,32
    429c:	8082                	ret

0000429e <uart_init>:
uart_init():
C:\Users\windows\Desktop\smart_car\MASTER\obj/../Libraries/seekfree_libraries/zf_uart.c:79
//  @param      rx_pin      串口接收引脚号
//  @return     void
//  Sample usage:           uart_init(UART_1, 115200, UART1_TX_A9, UART1_RX_A10); //串口1初始化引脚号,TX为A9,RX为A10
//-------------------------------------------------------------------------------------------------------------------
void uart_init(UARTN_enum uartn, uint32 baud, UARTPIN_enum tx_pin, UARTPIN_enum rx_pin)
{
    429e:	7179                	addi	sp,sp,-48
    42a0:	d606                	sw	ra,44(sp)
    42a2:	d422                	sw	s0,40(sp)
    42a4:	1800                	addi	s0,sp,48
    42a6:	fca42e23          	sw	a0,-36(s0)
    42aa:	fcb42c23          	sw	a1,-40(s0)
    42ae:	fcc42a23          	sw	a2,-44(s0)
    42b2:	fcd42823          	sw	a3,-48(s0)
C:\Users\windows\Desktop\smart_car\MASTER\obj/../Libraries/seekfree_libraries/zf_uart.c:83
    USART_InitTypeDef USART_InitStructure;


    RCC_APB2PeriphClockCmd(RCC_APB2Periph_AFIO, ENABLE);
    42b6:	4585                	li	a1,1
    42b8:	4505                	li	a0,1
    42ba:	a80fd0ef          	jal	ra,153a <RCC_APB2PeriphClockCmd>
C:\Users\windows\Desktop\smart_car\MASTER\obj/../Libraries/seekfree_libraries/zf_uart.c:86

    //引脚初始化
    uart_gpio_init(tx_pin, rx_pin);
    42be:	fd042583          	lw	a1,-48(s0)
    42c2:	fd442503          	lw	a0,-44(s0)
    42c6:	eedff0ef          	jal	ra,41b2 <uart_gpio_init>
C:\Users\windows\Desktop\smart_car\MASTER\obj/../Libraries/seekfree_libraries/zf_uart.c:88

    if(UART1_TX_B6 == tx_pin && UART1_RX_B7 == rx_pin)                         //引脚重映射
    42ca:	fd442703          	lw	a4,-44(s0)
    42ce:	4789                	li	a5,2
    42d0:	00f71b63          	bne	a4,a5,42e6 <uart_init+0x48>
C:\Users\windows\Desktop\smart_car\MASTER\obj/../Libraries/seekfree_libraries/zf_uart.c:88 (discriminator 1)
    42d4:	fd042703          	lw	a4,-48(s0)
    42d8:	478d                	li	a5,3
    42da:	00f71663          	bne	a4,a5,42e6 <uart_init+0x48>
C:\Users\windows\Desktop\smart_car\MASTER\obj/../Libraries/seekfree_libraries/zf_uart.c:89
        GPIO_PinRemapConfig(GPIO_Remap_USART1, ENABLE);
    42de:	4585                	li	a1,1
    42e0:	4511                	li	a0,4
    42e2:	d0ffc0ef          	jal	ra,ff0 <GPIO_PinRemapConfig>
C:\Users\windows\Desktop\smart_car\MASTER\obj/../Libraries/seekfree_libraries/zf_uart.c:90
    if(UART3_TX_C10 == tx_pin && UART3_RX_C11 == rx_pin)
    42e6:	fd442703          	lw	a4,-44(s0)
    42ea:	02200793          	li	a5,34
    42ee:	00f71f63          	bne	a4,a5,430c <uart_init+0x6e>
C:\Users\windows\Desktop\smart_car\MASTER\obj/../Libraries/seekfree_libraries/zf_uart.c:90 (discriminator 1)
    42f2:	fd042703          	lw	a4,-48(s0)
    42f6:	02300793          	li	a5,35
    42fa:	00f71963          	bne	a4,a5,430c <uart_init+0x6e>
C:\Users\windows\Desktop\smart_car\MASTER\obj/../Libraries/seekfree_libraries/zf_uart.c:91
        GPIO_PinRemapConfig(GPIO_PartialRemap_USART3, ENABLE);
    42fe:	4585                	li	a1,1
    4300:	001407b7          	lui	a5,0x140
    4304:	01078513          	addi	a0,a5,16 # 140010 <_data_lma+0x1392a8>
    4308:	ce9fc0ef          	jal	ra,ff0 <GPIO_PinRemapConfig>
C:\Users\windows\Desktop\smart_car\MASTER\obj/../Libraries/seekfree_libraries/zf_uart.c:94

    //串口总线使能
    if(UART_1 == uartn) RCC_APB2PeriphClockCmd(RCC_APB2Periph_USART1, ENABLE);
    430c:	fdc42783          	lw	a5,-36(s0)
    4310:	e791                	bnez	a5,431c <uart_init+0x7e>
C:\Users\windows\Desktop\smart_car\MASTER\obj/../Libraries/seekfree_libraries/zf_uart.c:94 (discriminator 1)
    4312:	4585                	li	a1,1
    4314:	6511                	lui	a0,0x4
    4316:	a24fd0ef          	jal	ra,153a <RCC_APB2PeriphClockCmd>
    431a:	a035                	j	4346 <uart_init+0xa8>
C:\Users\windows\Desktop\smart_car\MASTER\obj/../Libraries/seekfree_libraries/zf_uart.c:95
    else if(UART_2 == uartn) RCC_APB1PeriphClockCmd(RCC_APB1Periph_USART2, ENABLE);
    431c:	fdc42703          	lw	a4,-36(s0)
    4320:	4785                	li	a5,1
    4322:	00f71863          	bne	a4,a5,4332 <uart_init+0x94>
C:\Users\windows\Desktop\smart_car\MASTER\obj/../Libraries/seekfree_libraries/zf_uart.c:95 (discriminator 1)
    4326:	4585                	li	a1,1
    4328:	00020537          	lui	a0,0x20
    432c:	a54fd0ef          	jal	ra,1580 <RCC_APB1PeriphClockCmd>
    4330:	a819                	j	4346 <uart_init+0xa8>
C:\Users\windows\Desktop\smart_car\MASTER\obj/../Libraries/seekfree_libraries/zf_uart.c:96
    else if(UART_3 == uartn) RCC_APB1PeriphClockCmd(RCC_APB1Periph_USART3, ENABLE);
    4332:	fdc42703          	lw	a4,-36(s0)
    4336:	4789                	li	a5,2
    4338:	00f71763          	bne	a4,a5,4346 <uart_init+0xa8>
C:\Users\windows\Desktop\smart_car\MASTER\obj/../Libraries/seekfree_libraries/zf_uart.c:96 (discriminator 1)
    433c:	4585                	li	a1,1
    433e:	00040537          	lui	a0,0x40
    4342:	a3efd0ef          	jal	ra,1580 <RCC_APB1PeriphClockCmd>
C:\Users\windows\Desktop\smart_car\MASTER\obj/../Libraries/seekfree_libraries/zf_uart.c:99

    //串口参数配置
    USART_InitStructure.USART_BaudRate = baud;
    4346:	fd842783          	lw	a5,-40(s0)
    434a:	fef42023          	sw	a5,-32(s0)
C:\Users\windows\Desktop\smart_car\MASTER\obj/../Libraries/seekfree_libraries/zf_uart.c:100
    USART_InitStructure.USART_WordLength = USART_WordLength_8b;
    434e:	fe041223          	sh	zero,-28(s0)
C:\Users\windows\Desktop\smart_car\MASTER\obj/../Libraries/seekfree_libraries/zf_uart.c:101
    USART_InitStructure.USART_StopBits = USART_StopBits_1;
    4352:	fe041323          	sh	zero,-26(s0)
C:\Users\windows\Desktop\smart_car\MASTER\obj/../Libraries/seekfree_libraries/zf_uart.c:102
    USART_InitStructure.USART_Parity = USART_Parity_No;
    4356:	fe041423          	sh	zero,-24(s0)
C:\Users\windows\Desktop\smart_car\MASTER\obj/../Libraries/seekfree_libraries/zf_uart.c:103
    USART_InitStructure.USART_HardwareFlowControl = USART_HardwareFlowControl_None;
    435a:	fe041623          	sh	zero,-20(s0)
C:\Users\windows\Desktop\smart_car\MASTER\obj/../Libraries/seekfree_libraries/zf_uart.c:104
    USART_InitStructure.USART_Mode = USART_Mode_Tx | USART_Mode_Rx;
    435e:	47b1                	li	a5,12
    4360:	fef41523          	sh	a5,-22(s0)
C:\Users\windows\Desktop\smart_car\MASTER\obj/../Libraries/seekfree_libraries/zf_uart.c:107

    //使能串口
    USART_Init((USART_TypeDef*)UARTN[uartn], &USART_InitStructure);
    4364:	679d                	lui	a5,0x7
    4366:	fdc42703          	lw	a4,-36(s0)
    436a:	070a                	slli	a4,a4,0x2
    436c:	b3c78793          	addi	a5,a5,-1220 # 6b3c <UARTN>
    4370:	97ba                	add	a5,a5,a4
    4372:	439c                	lw	a5,0(a5)
    4374:	873e                	mv	a4,a5
    4376:	fe040793          	addi	a5,s0,-32
    437a:	85be                	mv	a1,a5
    437c:	853a                	mv	a0,a4
    437e:	faffd0ef          	jal	ra,232c <USART_Init>
C:\Users\windows\Desktop\smart_car\MASTER\obj/../Libraries/seekfree_libraries/zf_uart.c:108
    USART_Cmd((USART_TypeDef*)UARTN[uartn], ENABLE);
    4382:	679d                	lui	a5,0x7
    4384:	fdc42703          	lw	a4,-36(s0)
    4388:	070a                	slli	a4,a4,0x2
    438a:	b3c78793          	addi	a5,a5,-1220 # 6b3c <UARTN>
    438e:	97ba                	add	a5,a5,a4
    4390:	439c                	lw	a5,0(a5)
    4392:	4585                	li	a1,1
    4394:	853e                	mv	a0,a5
    4396:	9cafe0ef          	jal	ra,2560 <USART_Cmd>
C:\Users\windows\Desktop\smart_car\MASTER\obj/../Libraries/seekfree_libraries/zf_uart.c:111


}
    439a:	0001                	nop
    439c:	50b2                	lw	ra,44(sp)
    439e:	5422                	lw	s0,40(sp)
    43a0:	6145                	addi	sp,sp,48
    43a2:	8082                	ret

000043a4 <uart_putchar>:
uart_putchar():
C:\Users\windows\Desktop\smart_car\MASTER\obj/../Libraries/seekfree_libraries/zf_uart.c:122
//  @param      dat         串口数据
//  @return     void
//  Sample usage:           uart_putchar(UART_1, 0x43);        //串口1发送0x43。
//-------------------------------------------------------------------------------------------------------------------
void uart_putchar(UARTN_enum uartn, uint8 dat)
{
    43a4:	1101                	addi	sp,sp,-32
    43a6:	ce22                	sw	s0,28(sp)
    43a8:	1000                	addi	s0,sp,32
    43aa:	fea42623          	sw	a0,-20(s0)
    43ae:	87ae                	mv	a5,a1
    43b0:	fef405a3          	sb	a5,-21(s0)
C:\Users\windows\Desktop\smart_car\MASTER\obj/../Libraries/seekfree_libraries/zf_uart.c:123
    while((((USART_TypeDef*)UARTN[uartn])->STATR & USART_FLAG_TXE)==0);
    43b4:	0001                	nop
C:\Users\windows\Desktop\smart_car\MASTER\obj/../Libraries/seekfree_libraries/zf_uart.c:123 (discriminator 1)
    43b6:	679d                	lui	a5,0x7
    43b8:	fec42703          	lw	a4,-20(s0)
    43bc:	070a                	slli	a4,a4,0x2
    43be:	b3c78793          	addi	a5,a5,-1220 # 6b3c <UARTN>
    43c2:	97ba                	add	a5,a5,a4
    43c4:	439c                	lw	a5,0(a5)
    43c6:	0007d783          	lhu	a5,0(a5)
    43ca:	07c2                	slli	a5,a5,0x10
    43cc:	83c1                	srli	a5,a5,0x10
    43ce:	0807f793          	andi	a5,a5,128
    43d2:	d3f5                	beqz	a5,43b6 <uart_putchar+0x12>
C:\Users\windows\Desktop\smart_car\MASTER\obj/../Libraries/seekfree_libraries/zf_uart.c:124
    ((USART_TypeDef*)UARTN[uartn])->DATAR = dat;
    43d4:	679d                	lui	a5,0x7
    43d6:	fec42703          	lw	a4,-20(s0)
    43da:	070a                	slli	a4,a4,0x2
    43dc:	b3c78793          	addi	a5,a5,-1220 # 6b3c <UARTN>
    43e0:	97ba                	add	a5,a5,a4
    43e2:	439c                	lw	a5,0(a5)
    43e4:	873e                	mv	a4,a5
    43e6:	feb44783          	lbu	a5,-21(s0)
    43ea:	07c2                	slli	a5,a5,0x10
    43ec:	83c1                	srli	a5,a5,0x10
    43ee:	00f71223          	sh	a5,4(a4) # e000f004 <_eusrstack+0xc000a004>
C:\Users\windows\Desktop\smart_car\MASTER\obj/../Libraries/seekfree_libraries/zf_uart.c:125
}
    43f2:	0001                	nop
    43f4:	4472                	lw	s0,28(sp)
    43f6:	6105                	addi	sp,sp,32
    43f8:	8082                	ret

000043fa <uart_putbuff>:
uart_putbuff():
C:\Users\windows\Desktop\smart_car\MASTER\obj/../Libraries/seekfree_libraries/zf_uart.c:136
//  @param      len         数据长度
//  @return     void
//  Sample usage:           uart_putbuff(UART_1, buff, 10);     //串口1发送10个buff数组。
//-------------------------------------------------------------------------------------------------------------------
void uart_putbuff(UARTN_enum uartn, uint8 *buff, uint32 len)
{
    43fa:	1101                	addi	sp,sp,-32
    43fc:	ce06                	sw	ra,28(sp)
    43fe:	cc22                	sw	s0,24(sp)
    4400:	1000                	addi	s0,sp,32
    4402:	fea42623          	sw	a0,-20(s0)
    4406:	feb42423          	sw	a1,-24(s0)
    440a:	fec42223          	sw	a2,-28(s0)
C:\Users\windows\Desktop\smart_car\MASTER\obj/../Libraries/seekfree_libraries/zf_uart.c:137
    while(len--)
    440e:	a831                	j	442a <uart_putbuff+0x30>
C:\Users\windows\Desktop\smart_car\MASTER\obj/../Libraries/seekfree_libraries/zf_uart.c:138
        uart_putchar(uartn, *buff++);
    4410:	fe842783          	lw	a5,-24(s0)
    4414:	00178713          	addi	a4,a5,1
    4418:	fee42423          	sw	a4,-24(s0)
    441c:	0007c783          	lbu	a5,0(a5)
    4420:	85be                	mv	a1,a5
    4422:	fec42503          	lw	a0,-20(s0)
    4426:	f7fff0ef          	jal	ra,43a4 <uart_putchar>
C:\Users\windows\Desktop\smart_car\MASTER\obj/../Libraries/seekfree_libraries/zf_uart.c:137
    while(len--)
    442a:	fe442783          	lw	a5,-28(s0)
    442e:	fff78713          	addi	a4,a5,-1
    4432:	fee42223          	sw	a4,-28(s0)
    4436:	ffe9                	bnez	a5,4410 <uart_putbuff+0x16>
C:\Users\windows\Desktop\smart_car\MASTER\obj/../Libraries/seekfree_libraries/zf_uart.c:139
}
    4438:	0001                	nop
    443a:	40f2                	lw	ra,28(sp)
    443c:	4462                	lw	s0,24(sp)
    443e:	6105                	addi	sp,sp,32
    4440:	8082                	ret

00004442 <uart_rx_irq>:
uart_rx_irq():
C:\Users\windows\Desktop\smart_car\MASTER\obj/../Libraries/seekfree_libraries/zf_uart.c:165
//  @param      status      使能或者失能
//  @return     void
//  Sample usage:           uart_rx_irq(UART_1, ENABLE);        //打开串口1接收中断
//-------------------------------------------------------------------------------------------------------------------
void uart_rx_irq(UARTN_enum uartn,uint8 status)
{
    4442:	1101                	addi	sp,sp,-32
    4444:	ce06                	sw	ra,28(sp)
    4446:	cc22                	sw	s0,24(sp)
    4448:	1000                	addi	s0,sp,32
    444a:	fea42623          	sw	a0,-20(s0)
    444e:	87ae                	mv	a5,a1
    4450:	fef405a3          	sb	a5,-21(s0)
C:\Users\windows\Desktop\smart_car\MASTER\obj/../Libraries/seekfree_libraries/zf_uart.c:166
    USART_ITConfig(((USART_TypeDef*)UARTN[uartn]), USART_IT_RXNE, ENABLE);
    4454:	679d                	lui	a5,0x7
    4456:	fec42703          	lw	a4,-20(s0)
    445a:	070a                	slli	a4,a4,0x2
    445c:	b3c78793          	addi	a5,a5,-1220 # 6b3c <UARTN>
    4460:	97ba                	add	a5,a5,a4
    4462:	439c                	lw	a5,0(a5)
    4464:	4605                	li	a2,1
    4466:	52500593          	li	a1,1317
    446a:	853e                	mv	a0,a5
    446c:	954fe0ef          	jal	ra,25c0 <USART_ITConfig>
C:\Users\windows\Desktop\smart_car\MASTER\obj/../Libraries/seekfree_libraries/zf_uart.c:167
    nvic_init(USART1_IRQn + uartn, 0, 0, status);
    4470:	fec42783          	lw	a5,-20(s0)
    4474:	03578793          	addi	a5,a5,53
    4478:	feb44703          	lbu	a4,-21(s0)
    447c:	86ba                	mv	a3,a4
    447e:	4601                	li	a2,0
    4480:	4581                	li	a1,0
    4482:	853e                	mv	a0,a5
    4484:	c8ffe0ef          	jal	ra,3112 <nvic_init>
C:\Users\windows\Desktop\smart_car\MASTER\obj/../Libraries/seekfree_libraries/zf_uart.c:168
}
    4488:	0001                	nop
    448a:	40f2                	lw	ra,28(sp)
    448c:	4462                	lw	s0,24(sp)
    448e:	6105                	addi	sp,sp,32
    4490:	8082                	ret

00004492 <board_init>:
board_init():
C:\Users\windows\Desktop\smart_car\MASTER\obj/../Libraries/board/board.c:9




void board_init(void)
{
    4492:	1141                	addi	sp,sp,-16
    4494:	c606                	sw	ra,12(sp)
    4496:	c422                	sw	s0,8(sp)
    4498:	0800                	addi	s0,sp,16
C:\Users\windows\Desktop\smart_car\MASTER\obj/../Libraries/board/board.c:11
    //获取系统主频
    sys_clk = 8000000 * (((RCC->CFGR0 >> 18)&0x0F) + 2);
    449a:	400217b7          	lui	a5,0x40021
    449e:	43dc                	lw	a5,4(a5)
    44a0:	83c9                	srli	a5,a5,0x12
    44a2:	00f7f713          	andi	a4,a5,15
    44a6:	007a17b7          	lui	a5,0x7a1
    44aa:	20078793          	addi	a5,a5,512 # 7a1200 <_data_lma+0x79a498>
    44ae:	02f70733          	mul	a4,a4,a5
    44b2:	00f427b7          	lui	a5,0xf42
    44b6:	40078793          	addi	a5,a5,1024 # f42400 <_data_lma+0xf3b698>
    44ba:	973e                	add	a4,a4,a5
    44bc:	84e1a223          	sw	a4,-1980(gp) # 200000b4 <sys_clk>
C:\Users\windows\Desktop\smart_car\MASTER\obj/../Libraries/board/board.c:13
    //初始化DEBUG串口
    uart_init(DEBUG_UART, DEBUG_UART_BAUD, DEBUG_UART_TX_PIN, DEBUG_UART_RX_PIN);
    44c0:	4685                	li	a3,1
    44c2:	4601                	li	a2,0
    44c4:	67f1                	lui	a5,0x1c
    44c6:	20078593          	addi	a1,a5,512 # 1c200 <_data_lma+0x15498>
    44ca:	4501                	li	a0,0
    44cc:	dd3ff0ef          	jal	ra,429e <uart_init>
C:\Users\windows\Desktop\smart_car\MASTER\obj/../Libraries/board/board.c:14
}
    44d0:	0001                	nop
    44d2:	40b2                	lw	ra,12(sp)
    44d4:	4422                	lw	s0,8(sp)
    44d6:	0141                	addi	sp,sp,16
    44d8:	8082                	ret

000044da <_write>:
_write():
C:\Users\windows\Desktop\smart_car\MASTER\obj/../Libraries/board/board.c:25
//  @since      v1.0
//  Sample usage:              重定向printf到DEBUG串口上
//-------------------------------------------------------------------------------------------------------------------
#if (1 == PRINTF_ENABLE)
int _write(int fd, char *buf, int size)
{
    44da:	7179                	addi	sp,sp,-48
    44dc:	d606                	sw	ra,44(sp)
    44de:	d422                	sw	s0,40(sp)
    44e0:	1800                	addi	s0,sp,48
    44e2:	fca42e23          	sw	a0,-36(s0)
    44e6:	fcb42c23          	sw	a1,-40(s0)
    44ea:	fcc42a23          	sw	a2,-44(s0)
C:\Users\windows\Desktop\smart_car\MASTER\obj/../Libraries/board/board.c:27
    int i;
    for(i=0; i<size; i++)
    44ee:	fe042623          	sw	zero,-20(s0)
    44f2:	a099                	j	4538 <_write+0x5e>
C:\Users\windows\Desktop\smart_car\MASTER\obj/../Libraries/board/board.c:29
    {
        while (USART_GetFlagStatus((USART_TypeDef*)UARTN[DEBUG_UART], USART_FLAG_TC) == RESET);
    44f4:	0001                	nop
C:\Users\windows\Desktop\smart_car\MASTER\obj/../Libraries/board/board.c:29 (discriminator 1)
    44f6:	679d                	lui	a5,0x7
    44f8:	b3c7a783          	lw	a5,-1220(a5) # 6b3c <UARTN>
    44fc:	04000593          	li	a1,64
    4500:	853e                	mv	a0,a5
    4502:	9d6fe0ef          	jal	ra,26d8 <USART_GetFlagStatus>
    4506:	87aa                	mv	a5,a0
    4508:	d7fd                	beqz	a5,44f6 <_write+0x1c>
C:\Users\windows\Desktop\smart_car\MASTER\obj/../Libraries/board/board.c:30 (discriminator 2)
        USART_SendData((USART_TypeDef*)UARTN[DEBUG_UART], *buf++);
    450a:	679d                	lui	a5,0x7
    450c:	b3c7a783          	lw	a5,-1220(a5) # 6b3c <UARTN>
    4510:	86be                	mv	a3,a5
    4512:	fd842783          	lw	a5,-40(s0)
    4516:	00178713          	addi	a4,a5,1
    451a:	fce42c23          	sw	a4,-40(s0)
    451e:	00078783          	lb	a5,0(a5)
    4522:	07c2                	slli	a5,a5,0x10
    4524:	83c1                	srli	a5,a5,0x10
    4526:	85be                	mv	a1,a5
    4528:	8536                	mv	a0,a3
    452a:	95afe0ef          	jal	ra,2684 <USART_SendData>
C:\Users\windows\Desktop\smart_car\MASTER\obj/../Libraries/board/board.c:27 (discriminator 2)
    for(i=0; i<size; i++)
    452e:	fec42783          	lw	a5,-20(s0)
    4532:	0785                	addi	a5,a5,1
    4534:	fef42623          	sw	a5,-20(s0)
C:\Users\windows\Desktop\smart_car\MASTER\obj/../Libraries/board/board.c:27 (discriminator 1)
    4538:	fec42703          	lw	a4,-20(s0)
    453c:	fd442783          	lw	a5,-44(s0)
    4540:	faf74ae3          	blt	a4,a5,44f4 <_write+0x1a>
C:\Users\windows\Desktop\smart_car\MASTER\obj/../Libraries/board/board.c:32
    }
    return size;
    4544:	fd442783          	lw	a5,-44(s0)
C:\Users\windows\Desktop\smart_car\MASTER\obj/../Libraries/board/board.c:33
}
    4548:	853e                	mv	a0,a5
    454a:	50b2                	lw	ra,44(sp)
    454c:	5422                	lw	s0,40(sp)
    454e:	6145                	addi	sp,sp,48
    4550:	8082                	ret

00004552 <SetSysClock>:
SetSysClock():
C:\Users\windows\Desktop\smart_car\MASTER\obj/../Libraries/board/clock_config.c:11
* Description    : Sets System clock frequency to 72MHz and configure HCLK, PCLK2 and PCLK1 prescalers.
* Input          : None
* Return         : None
*******************************************************************************************/
static void SetSysClock(void)
{
    4552:	1101                	addi	sp,sp,-32
    4554:	ce22                	sw	s0,28(sp)
    4556:	1000                	addi	s0,sp,32
C:\Users\windows\Desktop\smart_car\MASTER\obj/../Libraries/board/clock_config.c:12
    __IO uint32_t StartUpCounter = 0, HSEStatus = 0;
    4558:	fe042623          	sw	zero,-20(s0)
    455c:	fe042423          	sw	zero,-24(s0)
C:\Users\windows\Desktop\smart_car\MASTER\obj/../Libraries/board/clock_config.c:14

    RCC->CTLR |= ((uint32_t)RCC_HSEON);
    4560:	400217b7          	lui	a5,0x40021
    4564:	4394                	lw	a3,0(a5)
    4566:	400217b7          	lui	a5,0x40021
    456a:	6741                	lui	a4,0x10
    456c:	8f55                	or	a4,a4,a3
    456e:	c398                	sw	a4,0(a5)
C:\Users\windows\Desktop\smart_car\MASTER\obj/../Libraries/board/clock_config.c:19 (discriminator 2)

    /* Wait till HSE is ready and if Time out is reached exit */
    do
    {
        HSEStatus = RCC->CTLR & RCC_HSERDY;
    4570:	400217b7          	lui	a5,0x40021
    4574:	4398                	lw	a4,0(a5)
    4576:	000207b7          	lui	a5,0x20
    457a:	8ff9                	and	a5,a5,a4
    457c:	fef42423          	sw	a5,-24(s0)
C:\Users\windows\Desktop\smart_car\MASTER\obj/../Libraries/board/clock_config.c:20 (discriminator 2)
        StartUpCounter++;
    4580:	fec42783          	lw	a5,-20(s0)
    4584:	0785                	addi	a5,a5,1
    4586:	fef42623          	sw	a5,-20(s0)
C:\Users\windows\Desktop\smart_car\MASTER\obj/../Libraries/board/clock_config.c:21 (discriminator 2)
    } while((HSEStatus == 0) && (StartUpCounter != HSE_STARTUP_TIMEOUT));
    458a:	fe842783          	lw	a5,-24(s0)
    458e:	e799                	bnez	a5,459c <SetSysClock+0x4a>
C:\Users\windows\Desktop\smart_car\MASTER\obj/../Libraries/board/clock_config.c:21 (discriminator 1)
    4590:	fec42703          	lw	a4,-20(s0)
    4594:	50000793          	li	a5,1280
    4598:	fcf71ce3          	bne	a4,a5,4570 <SetSysClock+0x1e>
C:\Users\windows\Desktop\smart_car\MASTER\obj/../Libraries/board/clock_config.c:23

    if ((RCC->CTLR & RCC_HSERDY) != RESET)
    459c:	400217b7          	lui	a5,0x40021
    45a0:	4398                	lw	a4,0(a5)
    45a2:	000207b7          	lui	a5,0x20
    45a6:	8ff9                	and	a5,a5,a4
    45a8:	c789                	beqz	a5,45b2 <SetSysClock+0x60>
C:\Users\windows\Desktop\smart_car\MASTER\obj/../Libraries/board/clock_config.c:25
    {
        HSEStatus = (uint32_t)0x01;
    45aa:	4785                	li	a5,1
    45ac:	fef42423          	sw	a5,-24(s0)
    45b0:	a019                	j	45b6 <SetSysClock+0x64>
C:\Users\windows\Desktop\smart_car\MASTER\obj/../Libraries/board/clock_config.c:29
    }
    else
    {
        HSEStatus = (uint32_t)0x00;
    45b2:	fe042423          	sw	zero,-24(s0)
C:\Users\windows\Desktop\smart_car\MASTER\obj/../Libraries/board/clock_config.c:32
    }

    if (HSEStatus == (uint32_t)0x01)
    45b6:	fe842703          	lw	a4,-24(s0)
    45ba:	4785                	li	a5,1
    45bc:	0cf71763          	bne	a4,a5,468a <SetSysClock+0x138>
C:\Users\windows\Desktop\smart_car\MASTER\obj/../Libraries/board/clock_config.c:35
    {
        /* Enable Prefetch Buffer */
        FLASH->ACTLR |= FLASH_ACTLR_PRFTBE;
    45c0:	400227b7          	lui	a5,0x40022
    45c4:	4398                	lw	a4,0(a5)
    45c6:	400227b7          	lui	a5,0x40022
    45ca:	01076713          	ori	a4,a4,16
    45ce:	c398                	sw	a4,0(a5)
C:\Users\windows\Desktop\smart_car\MASTER\obj/../Libraries/board/clock_config.c:38

        /* Flash 2 wait state */
        FLASH->ACTLR &= (uint32_t)((uint32_t)~FLASH_ACTLR_LATENCY);
    45d0:	400227b7          	lui	a5,0x40022
    45d4:	4398                	lw	a4,0(a5)
    45d6:	400227b7          	lui	a5,0x40022
    45da:	9b71                	andi	a4,a4,-4
    45dc:	c398                	sw	a4,0(a5)
C:\Users\windows\Desktop\smart_car\MASTER\obj/../Libraries/board/clock_config.c:39
        FLASH->ACTLR |= (uint32_t)FLASH_ACTLR_LATENCY_2;
    45de:	400227b7          	lui	a5,0x40022
    45e2:	4398                	lw	a4,0(a5)
    45e4:	400227b7          	lui	a5,0x40022
    45e8:	00276713          	ori	a4,a4,2
    45ec:	c398                	sw	a4,0(a5)
C:\Users\windows\Desktop\smart_car\MASTER\obj/../Libraries/board/clock_config.c:42

        /* HCLK = SYSCLK */
        RCC->CFGR0 |= (uint32_t)RCC_HPRE_DIV1;
    45ee:	40021737          	lui	a4,0x40021
    45f2:	400217b7          	lui	a5,0x40021
    45f6:	4358                	lw	a4,4(a4)
    45f8:	c3d8                	sw	a4,4(a5)
C:\Users\windows\Desktop\smart_car\MASTER\obj/../Libraries/board/clock_config.c:44
        /* PCLK2 = HCLK */
        RCC->CFGR0 |= (uint32_t)RCC_PPRE2_DIV1;
    45fa:	40021737          	lui	a4,0x40021
    45fe:	400217b7          	lui	a5,0x40021
    4602:	4358                	lw	a4,4(a4)
    4604:	c3d8                	sw	a4,4(a5)
C:\Users\windows\Desktop\smart_car\MASTER\obj/../Libraries/board/clock_config.c:46
        /* PCLK1 = HCLK */
        RCC->CFGR0 |= (uint32_t)RCC_PPRE1_DIV1;
    4606:	40021737          	lui	a4,0x40021
    460a:	400217b7          	lui	a5,0x40021
    460e:	4358                	lw	a4,4(a4)
    4610:	c3d8                	sw	a4,4(a5)
C:\Users\windows\Desktop\smart_car\MASTER\obj/../Libraries/board/clock_config.c:49


        RCC->CFGR0 &= (uint32_t)((uint32_t)~(RCC_PLLSRC | RCC_PLLXTPRE |
    4612:	400217b7          	lui	a5,0x40021
    4616:	43d4                	lw	a3,4(a5)
    4618:	400217b7          	lui	a5,0x40021
    461c:	ffc10737          	lui	a4,0xffc10
    4620:	177d                	addi	a4,a4,-1
    4622:	8f75                	and	a4,a4,a3
    4624:	c3d8                	sw	a4,4(a5)
C:\Users\windows\Desktop\smart_car\MASTER\obj/../Libraries/board/clock_config.c:52
                                            RCC_PLLMULL));
        /*  PLL configuration: PLLCLK = HSE * ?  */
        RCC->CFGR0 |= (uint32_t)(RCC_PLLSRC_HSE | RCC_PLLMULL11);
    4626:	400217b7          	lui	a5,0x40021
    462a:	43d4                	lw	a3,4(a5)
    462c:	400217b7          	lui	a5,0x40021
    4630:	00250737          	lui	a4,0x250
    4634:	8f55                	or	a4,a4,a3
    4636:	c3d8                	sw	a4,4(a5)
C:\Users\windows\Desktop\smart_car\MASTER\obj/../Libraries/board/clock_config.c:54
        /* Enable PLL */
        RCC->CTLR |= RCC_PLLON;
    4638:	400217b7          	lui	a5,0x40021
    463c:	4394                	lw	a3,0(a5)
    463e:	400217b7          	lui	a5,0x40021
    4642:	01000737          	lui	a4,0x1000
    4646:	8f55                	or	a4,a4,a3
    4648:	c398                	sw	a4,0(a5)
C:\Users\windows\Desktop\smart_car\MASTER\obj/../Libraries/board/clock_config.c:56
        /* Wait till PLL is ready */
        while((RCC->CTLR & RCC_PLLRDY) == 0)
    464a:	0001                	nop
C:\Users\windows\Desktop\smart_car\MASTER\obj/../Libraries/board/clock_config.c:56 (discriminator 1)
    464c:	400217b7          	lui	a5,0x40021
    4650:	4398                	lw	a4,0(a5)
    4652:	020007b7          	lui	a5,0x2000
    4656:	8ff9                	and	a5,a5,a4
    4658:	dbf5                	beqz	a5,464c <SetSysClock+0xfa>
C:\Users\windows\Desktop\smart_car\MASTER\obj/../Libraries/board/clock_config.c:60
        {
        }
        /* Select PLL as system clock source */
        RCC->CFGR0 &= (uint32_t)((uint32_t)~(RCC_SW));
    465a:	400217b7          	lui	a5,0x40021
    465e:	43d8                	lw	a4,4(a5)
    4660:	400217b7          	lui	a5,0x40021
    4664:	9b71                	andi	a4,a4,-4
    4666:	c3d8                	sw	a4,4(a5)
C:\Users\windows\Desktop\smart_car\MASTER\obj/../Libraries/board/clock_config.c:61
        RCC->CFGR0 |= (uint32_t)RCC_SW_PLL;
    4668:	400217b7          	lui	a5,0x40021
    466c:	43d8                	lw	a4,4(a5)
    466e:	400217b7          	lui	a5,0x40021
    4672:	00276713          	ori	a4,a4,2
    4676:	c3d8                	sw	a4,4(a5)
C:\Users\windows\Desktop\smart_car\MASTER\obj/../Libraries/board/clock_config.c:63
        /* Wait till PLL is used as system clock source */
        while ((RCC->CFGR0 & (uint32_t)RCC_SWS) != (uint32_t)0x08)
    4678:	0001                	nop
C:\Users\windows\Desktop\smart_car\MASTER\obj/../Libraries/board/clock_config.c:63 (discriminator 1)
    467a:	400217b7          	lui	a5,0x40021
    467e:	43dc                	lw	a5,4(a5)
    4680:	00c7f713          	andi	a4,a5,12
    4684:	47a1                	li	a5,8
    4686:	fef71ae3          	bne	a4,a5,467a <SetSysClock+0x128>
C:\Users\windows\Desktop\smart_car\MASTER\obj/../Libraries/board/clock_config.c:74
        /*
         * If HSE fails to start-up, the application will have wrong clock
     * configuration. User can add here some code to deal with this error
         */
    }
}
    468a:	0001                	nop
    468c:	4472                	lw	s0,28(sp)
    468e:	6105                	addi	sp,sp,32
    4690:	8082                	ret

00004692 <SystemInit>:
SystemInit():
C:\Users\windows\Desktop\smart_car\MASTER\obj/../Libraries/board/clock_config.c:84
*                  the PLL and update the SystemCoreClock variable.
* Input          : None
* Return         : None
*******************************************************************************************/
void SystemInit (void)
{
    4692:	1141                	addi	sp,sp,-16
    4694:	c606                	sw	ra,12(sp)
    4696:	c422                	sw	s0,8(sp)
    4698:	0800                	addi	s0,sp,16
C:\Users\windows\Desktop\smart_car\MASTER\obj/../Libraries/board/clock_config.c:85
    RCC->CTLR |= (uint32_t)0x00000001;
    469a:	400217b7          	lui	a5,0x40021
    469e:	4398                	lw	a4,0(a5)
    46a0:	400217b7          	lui	a5,0x40021
    46a4:	00176713          	ori	a4,a4,1
    46a8:	c398                	sw	a4,0(a5)
C:\Users\windows\Desktop\smart_car\MASTER\obj/../Libraries/board/clock_config.c:86
    RCC->CFGR0 &= (uint32_t)0xF8FF0000;
    46aa:	400217b7          	lui	a5,0x40021
    46ae:	43d4                	lw	a3,4(a5)
    46b0:	400217b7          	lui	a5,0x40021
    46b4:	f8ff0737          	lui	a4,0xf8ff0
    46b8:	8f75                	and	a4,a4,a3
    46ba:	c3d8                	sw	a4,4(a5)
C:\Users\windows\Desktop\smart_car\MASTER\obj/../Libraries/board/clock_config.c:87
    RCC->CTLR &= (uint32_t)0xFEF6FFFF;
    46bc:	400217b7          	lui	a5,0x40021
    46c0:	4394                	lw	a3,0(a5)
    46c2:	400217b7          	lui	a5,0x40021
    46c6:	fef70737          	lui	a4,0xfef70
    46ca:	177d                	addi	a4,a4,-1
    46cc:	8f75                	and	a4,a4,a3
    46ce:	c398                	sw	a4,0(a5)
C:\Users\windows\Desktop\smart_car\MASTER\obj/../Libraries/board/clock_config.c:88
    RCC->CTLR &= (uint32_t)0xFFFBFFFF;
    46d0:	400217b7          	lui	a5,0x40021
    46d4:	4394                	lw	a3,0(a5)
    46d6:	400217b7          	lui	a5,0x40021
    46da:	fffc0737          	lui	a4,0xfffc0
    46de:	177d                	addi	a4,a4,-1
    46e0:	8f75                	and	a4,a4,a3
    46e2:	c398                	sw	a4,0(a5)
C:\Users\windows\Desktop\smart_car\MASTER\obj/../Libraries/board/clock_config.c:89
    RCC->CFGR0 &= (uint32_t)0xFF80FFFF;
    46e4:	400217b7          	lui	a5,0x40021
    46e8:	43d4                	lw	a3,4(a5)
    46ea:	400217b7          	lui	a5,0x40021
    46ee:	ff810737          	lui	a4,0xff810
    46f2:	177d                	addi	a4,a4,-1
    46f4:	8f75                	and	a4,a4,a3
    46f6:	c3d8                	sw	a4,4(a5)
C:\Users\windows\Desktop\smart_car\MASTER\obj/../Libraries/board/clock_config.c:90
    RCC->INTR = 0x009F0000;
    46f8:	400217b7          	lui	a5,0x40021
    46fc:	009f0737          	lui	a4,0x9f0
    4700:	c798                	sw	a4,8(a5)
C:\Users\windows\Desktop\smart_car\MASTER\obj/../Libraries/board/clock_config.c:91
    SetSysClock();
    4702:	e51ff0ef          	jal	ra,4552 <SetSysClock>
C:\Users\windows\Desktop\smart_car\MASTER\obj/../Libraries/board/clock_config.c:92
}
    4706:	0001                	nop
    4708:	40b2                	lw	ra,12(sp)
    470a:	4422                	lw	s0,8(sp)
    470c:	0141                	addi	sp,sp,16
    470e:	8082                	ret

00004710 <Duty_Init>:
Duty_Init():
C:\Users\windows\Desktop\smart_car\MASTER\obj/../CODE/Motor.c:14
#define PWM_FREQ 17000
#define MAX_DUTY 10000


void Duty_Init()
{
    4710:	1141                	addi	sp,sp,-16
    4712:	c606                	sw	ra,12(sp)
    4714:	c422                	sw	s0,8(sp)
    4716:	0800                	addi	s0,sp,16
C:\Users\windows\Desktop\smart_car\MASTER\obj/../CODE/Motor.c:15
    pwm_init(PWM4_CH1_B6,PWM_FREQ,0);//电机PWM引脚初始化
    4718:	4601                	li	a2,0
    471a:	6791                	lui	a5,0x4
    471c:	26878593          	addi	a1,a5,616 # 4268 <uart_gpio_init+0xb6>
    4720:	30000513          	li	a0,768
    4724:	e99fe0ef          	jal	ra,35bc <pwm_init>
C:\Users\windows\Desktop\smart_car\MASTER\obj/../CODE/Motor.c:16
    pwm_init(PWM4_CH2_B7,PWM_FREQ,0);
    4728:	4601                	li	a2,0
    472a:	6791                	lui	a5,0x4
    472c:	26878593          	addi	a1,a5,616 # 4268 <uart_gpio_init+0xb6>
    4730:	30100513          	li	a0,769
    4734:	e89fe0ef          	jal	ra,35bc <pwm_init>
C:\Users\windows\Desktop\smart_car\MASTER\obj/../CODE/Motor.c:17
    pwm_init(PWM4_CH3_B8,PWM_FREQ,0);
    4738:	4601                	li	a2,0
    473a:	6791                	lui	a5,0x4
    473c:	26878593          	addi	a1,a5,616 # 4268 <uart_gpio_init+0xb6>
    4740:	30200513          	li	a0,770
    4744:	e79fe0ef          	jal	ra,35bc <pwm_init>
C:\Users\windows\Desktop\smart_car\MASTER\obj/../CODE/Motor.c:18
    pwm_init(PWM4_CH4_B9,PWM_FREQ,0);
    4748:	4601                	li	a2,0
    474a:	6791                	lui	a5,0x4
    474c:	26878593          	addi	a1,a5,616 # 4268 <uart_gpio_init+0xb6>
    4750:	30300513          	li	a0,771
    4754:	e69fe0ef          	jal	ra,35bc <pwm_init>
C:\Users\windows\Desktop\smart_car\MASTER\obj/../CODE/Motor.c:20

    gpio_init(C10,GPO,0,GPIO_PIN_CONFIG);//电机方向引脚初始化
    4758:	31000693          	li	a3,784
    475c:	4601                	li	a2,0
    475e:	4585                	li	a1,1
    4760:	04a00513          	li	a0,74
    4764:	f0cfe0ef          	jal	ra,2e70 <gpio_init>
C:\Users\windows\Desktop\smart_car\MASTER\obj/../CODE/Motor.c:21
    gpio_init(C11,GPO,0,GPIO_PIN_CONFIG);
    4768:	31000693          	li	a3,784
    476c:	4601                	li	a2,0
    476e:	4585                	li	a1,1
    4770:	04b00513          	li	a0,75
    4774:	efcfe0ef          	jal	ra,2e70 <gpio_init>
C:\Users\windows\Desktop\smart_car\MASTER\obj/../CODE/Motor.c:22
    gpio_init(B12,GPO,1,GPIO_PIN_CONFIG);
    4778:	31000693          	li	a3,784
    477c:	4605                	li	a2,1
    477e:	4585                	li	a1,1
    4780:	02c00513          	li	a0,44
    4784:	eecfe0ef          	jal	ra,2e70 <gpio_init>
C:\Users\windows\Desktop\smart_car\MASTER\obj/../CODE/Motor.c:23
    gpio_init(A8,GPO,1,GPIO_PIN_CONFIG);
    4788:	31000693          	li	a3,784
    478c:	4605                	li	a2,1
    478e:	4585                	li	a1,1
    4790:	4521                	li	a0,8
    4792:	edefe0ef          	jal	ra,2e70 <gpio_init>
C:\Users\windows\Desktop\smart_car\MASTER\obj/../CODE/Motor.c:24
    return;
    4796:	0001                	nop
C:\Users\windows\Desktop\smart_car\MASTER\obj/../CODE/Motor.c:25
}
    4798:	40b2                	lw	ra,12(sp)
    479a:	4422                	lw	s0,8(sp)
    479c:	0141                	addi	sp,sp,16
    479e:	8082                	ret

000047a0 <Duty_Single>:
Duty_Single():
C:\Users\windows\Desktop\smart_car\MASTER\obj/../CODE/Motor.c:36
    pwm_stop(PWM4_CH3_B8);
    pwm_stop(PWM4_CH4_B9);
}

void Duty_Single(Wheel_Type wh,int32 duty)//设定某个轮子的占空比
{
    47a0:	7179                	addi	sp,sp,-48
    47a2:	d606                	sw	ra,44(sp)
    47a4:	d422                	sw	s0,40(sp)
    47a6:	1800                	addi	s0,sp,48
    47a8:	fca42e23          	sw	a0,-36(s0)
    47ac:	fcb42c23          	sw	a1,-40(s0)
C:\Users\windows\Desktop\smart_car\MASTER\obj/../CODE/Motor.c:37
    if(duty>10000)
    47b0:	fd842703          	lw	a4,-40(s0)
    47b4:	6789                	lui	a5,0x2
    47b6:	71078793          	addi	a5,a5,1808 # 2710 <USART_GetFlagStatus+0x38>
    47ba:	00e7d763          	bge	a5,a4,47c8 <Duty_Single+0x28>
C:\Users\windows\Desktop\smart_car\MASTER\obj/../CODE/Motor.c:38
        duty=10000;
    47be:	6789                	lui	a5,0x2
    47c0:	71078793          	addi	a5,a5,1808 # 2710 <USART_GetFlagStatus+0x38>
    47c4:	fcf42c23          	sw	a5,-40(s0)
C:\Users\windows\Desktop\smart_car\MASTER\obj/../CODE/Motor.c:39
    if(duty<-10000)
    47c8:	fd842703          	lw	a4,-40(s0)
    47cc:	77f9                	lui	a5,0xffffe
    47ce:	8f078793          	addi	a5,a5,-1808 # ffffd8f0 <_eusrstack+0xdfff88f0>
    47d2:	00f75763          	bge	a4,a5,47e0 <Duty_Single+0x40>
C:\Users\windows\Desktop\smart_car\MASTER\obj/../CODE/Motor.c:40
        duty=-10000;
    47d6:	77f9                	lui	a5,0xffffe
    47d8:	8f078793          	addi	a5,a5,-1808 # ffffd8f0 <_eusrstack+0xdfff88f0>
    47dc:	fcf42c23          	sw	a5,-40(s0)
C:\Users\windows\Desktop\smart_car\MASTER\obj/../CODE/Motor.c:42
    uint32 tmp;
    if(duty<0)
    47e0:	fd842783          	lw	a5,-40(s0)
    47e4:	0007d963          	bgez	a5,47f6 <Duty_Single+0x56>
C:\Users\windows\Desktop\smart_car\MASTER\obj/../CODE/Motor.c:43
        tmp=(uint32)-duty;
    47e8:	fd842783          	lw	a5,-40(s0)
    47ec:	40f007b3          	neg	a5,a5
    47f0:	fef42623          	sw	a5,-20(s0)
    47f4:	a029                	j	47fe <Duty_Single+0x5e>
C:\Users\windows\Desktop\smart_car\MASTER\obj/../CODE/Motor.c:45
    else
        tmp=(uint32)duty;
    47f6:	fd842783          	lw	a5,-40(s0)
    47fa:	fef42623          	sw	a5,-20(s0)
    47fe:	fdc42703          	lw	a4,-36(s0)
    4802:	4789                	li	a5,2
    4804:	04f70e63          	beq	a4,a5,4860 <Duty_Single+0xc0>
    4808:	fdc42703          	lw	a4,-36(s0)
    480c:	4789                	li	a5,2
    480e:	00e7e863          	bltu	a5,a4,481e <Duty_Single+0x7e>
    4812:	fdc42703          	lw	a4,-36(s0)
    4816:	4785                	li	a5,1
    4818:	00f70e63          	beq	a4,a5,4834 <Duty_Single+0x94>
C:\Users\windows\Desktop\smart_car\MASTER\obj/../CODE/Motor.c:77
        else
            gpio_set(A8,0);
        pwm_duty(PWM4_CH4_B9,tmp);
        break;
    }
    return;
    481c:	a0d9                	j	48e2 <Duty_Single+0x142>
    481e:	fdc42703          	lw	a4,-36(s0)
    4822:	478d                	li	a5,3
    4824:	06f70463          	beq	a4,a5,488c <Duty_Single+0xec>
    4828:	fdc42703          	lw	a4,-36(s0)
    482c:	4791                	li	a5,4
    482e:	08f70563          	beq	a4,a5,48b8 <Duty_Single+0x118>
    4832:	a845                	j	48e2 <Duty_Single+0x142>
C:\Users\windows\Desktop\smart_car\MASTER\obj/../CODE/Motor.c:49
        if(duty>0)
    4834:	fd842783          	lw	a5,-40(s0)
    4838:	00f05863          	blez	a5,4848 <Duty_Single+0xa8>
C:\Users\windows\Desktop\smart_car\MASTER\obj/../CODE/Motor.c:50
            gpio_set(C10,0);
    483c:	4581                	li	a1,0
    483e:	04a00513          	li	a0,74
    4842:	fd2fe0ef          	jal	ra,3014 <gpio_set>
    4846:	a031                	j	4852 <Duty_Single+0xb2>
C:\Users\windows\Desktop\smart_car\MASTER\obj/../CODE/Motor.c:52
            gpio_set(C10,1);
    4848:	4585                	li	a1,1
    484a:	04a00513          	li	a0,74
    484e:	fc6fe0ef          	jal	ra,3014 <gpio_set>
C:\Users\windows\Desktop\smart_car\MASTER\obj/../CODE/Motor.c:53
        pwm_duty(PWM4_CH1_B6,tmp);
    4852:	fec42583          	lw	a1,-20(s0)
    4856:	30000513          	li	a0,768
    485a:	926ff0ef          	jal	ra,3980 <pwm_duty>
C:\Users\windows\Desktop\smart_car\MASTER\obj/../CODE/Motor.c:54
        break;
    485e:	a049                	j	48e0 <Duty_Single+0x140>
C:\Users\windows\Desktop\smart_car\MASTER\obj/../CODE/Motor.c:56
        if(duty>0)
    4860:	fd842783          	lw	a5,-40(s0)
    4864:	00f05863          	blez	a5,4874 <Duty_Single+0xd4>
C:\Users\windows\Desktop\smart_car\MASTER\obj/../CODE/Motor.c:57
            gpio_set(C11,0);
    4868:	4581                	li	a1,0
    486a:	04b00513          	li	a0,75
    486e:	fa6fe0ef          	jal	ra,3014 <gpio_set>
    4872:	a031                	j	487e <Duty_Single+0xde>
C:\Users\windows\Desktop\smart_car\MASTER\obj/../CODE/Motor.c:59
            gpio_set(C11,1);
    4874:	4585                	li	a1,1
    4876:	04b00513          	li	a0,75
    487a:	f9afe0ef          	jal	ra,3014 <gpio_set>
C:\Users\windows\Desktop\smart_car\MASTER\obj/../CODE/Motor.c:60
        pwm_duty(PWM4_CH2_B7,tmp);
    487e:	fec42583          	lw	a1,-20(s0)
    4882:	30100513          	li	a0,769
    4886:	8faff0ef          	jal	ra,3980 <pwm_duty>
C:\Users\windows\Desktop\smart_car\MASTER\obj/../CODE/Motor.c:61
        break;
    488a:	a899                	j	48e0 <Duty_Single+0x140>
C:\Users\windows\Desktop\smart_car\MASTER\obj/../CODE/Motor.c:63
        if(duty>0)
    488c:	fd842783          	lw	a5,-40(s0)
    4890:	00f05863          	blez	a5,48a0 <Duty_Single+0x100>
C:\Users\windows\Desktop\smart_car\MASTER\obj/../CODE/Motor.c:64
            gpio_set(B12,1);
    4894:	4585                	li	a1,1
    4896:	02c00513          	li	a0,44
    489a:	f7afe0ef          	jal	ra,3014 <gpio_set>
    489e:	a031                	j	48aa <Duty_Single+0x10a>
C:\Users\windows\Desktop\smart_car\MASTER\obj/../CODE/Motor.c:66
            gpio_set(B12,0);
    48a0:	4581                	li	a1,0
    48a2:	02c00513          	li	a0,44
    48a6:	f6efe0ef          	jal	ra,3014 <gpio_set>
C:\Users\windows\Desktop\smart_car\MASTER\obj/../CODE/Motor.c:67
        pwm_duty(PWM4_CH3_B8,tmp);
    48aa:	fec42583          	lw	a1,-20(s0)
    48ae:	30200513          	li	a0,770
    48b2:	8ceff0ef          	jal	ra,3980 <pwm_duty>
C:\Users\windows\Desktop\smart_car\MASTER\obj/../CODE/Motor.c:68
        break;
    48b6:	a02d                	j	48e0 <Duty_Single+0x140>
C:\Users\windows\Desktop\smart_car\MASTER\obj/../CODE/Motor.c:70
        if(duty>0)
    48b8:	fd842783          	lw	a5,-40(s0)
    48bc:	00f05763          	blez	a5,48ca <Duty_Single+0x12a>
C:\Users\windows\Desktop\smart_car\MASTER\obj/../CODE/Motor.c:71
            gpio_set(A8,1);
    48c0:	4585                	li	a1,1
    48c2:	4521                	li	a0,8
    48c4:	f50fe0ef          	jal	ra,3014 <gpio_set>
    48c8:	a029                	j	48d2 <Duty_Single+0x132>
C:\Users\windows\Desktop\smart_car\MASTER\obj/../CODE/Motor.c:73
            gpio_set(A8,0);
    48ca:	4581                	li	a1,0
    48cc:	4521                	li	a0,8
    48ce:	f46fe0ef          	jal	ra,3014 <gpio_set>
C:\Users\windows\Desktop\smart_car\MASTER\obj/../CODE/Motor.c:74
        pwm_duty(PWM4_CH4_B9,tmp);
    48d2:	fec42583          	lw	a1,-20(s0)
    48d6:	30300513          	li	a0,771
    48da:	8a6ff0ef          	jal	ra,3980 <pwm_duty>
C:\Users\windows\Desktop\smart_car\MASTER\obj/../CODE/Motor.c:75
        break;
    48de:	0001                	nop
C:\Users\windows\Desktop\smart_car\MASTER\obj/../CODE/Motor.c:77
    return;
    48e0:	0001                	nop
C:\Users\windows\Desktop\smart_car\MASTER\obj/../CODE/Motor.c:78
}
    48e2:	50b2                	lw	ra,44(sp)
    48e4:	5422                	lw	s0,40(sp)
    48e6:	6145                	addi	sp,sp,48
    48e8:	8082                	ret

000048ea <Duty_All>:
Duty_All():
C:\Users\windows\Desktop\smart_car\MASTER\obj/../CODE/Motor.c:81

void Duty_All(int32 duty_fl,int32 duty_fr,int32 duty_rl,int32 duty_rr)//设定所有轮子的占空比
{
    48ea:	1101                	addi	sp,sp,-32
    48ec:	ce06                	sw	ra,28(sp)
    48ee:	cc22                	sw	s0,24(sp)
    48f0:	1000                	addi	s0,sp,32
    48f2:	fea42623          	sw	a0,-20(s0)
    48f6:	feb42423          	sw	a1,-24(s0)
    48fa:	fec42223          	sw	a2,-28(s0)
    48fe:	fed42023          	sw	a3,-32(s0)
C:\Users\windows\Desktop\smart_car\MASTER\obj/../CODE/Motor.c:82
    Duty_Single(FL,duty_fl);
    4902:	fec42583          	lw	a1,-20(s0)
    4906:	4505                	li	a0,1
    4908:	e99ff0ef          	jal	ra,47a0 <Duty_Single>
C:\Users\windows\Desktop\smart_car\MASTER\obj/../CODE/Motor.c:83
    Duty_Single(FR,duty_fr);
    490c:	fe842583          	lw	a1,-24(s0)
    4910:	4509                	li	a0,2
    4912:	e8fff0ef          	jal	ra,47a0 <Duty_Single>
C:\Users\windows\Desktop\smart_car\MASTER\obj/../CODE/Motor.c:84
    Duty_Single(RL,duty_rl);
    4916:	fe442583          	lw	a1,-28(s0)
    491a:	450d                	li	a0,3
    491c:	e85ff0ef          	jal	ra,47a0 <Duty_Single>
C:\Users\windows\Desktop\smart_car\MASTER\obj/../CODE/Motor.c:85
    Duty_Single(RR,duty_rr);
    4920:	fe042583          	lw	a1,-32(s0)
    4924:	4511                	li	a0,4
    4926:	e7bff0ef          	jal	ra,47a0 <Duty_Single>
C:\Users\windows\Desktop\smart_car\MASTER\obj/../CODE/Motor.c:86
    return;
    492a:	0001                	nop
C:\Users\windows\Desktop\smart_car\MASTER\obj/../CODE/Motor.c:87
}
    492c:	40f2                	lw	ra,28(sp)
    492e:	4462                	lw	s0,24(sp)
    4930:	6105                	addi	sp,sp,32
    4932:	8082                	ret

00004934 <PID_Init>:
PID_Init():
C:\Users\windows\Desktop\smart_car\MASTER\obj/../CODE/PID.c:16
//extern Pid_Param Pid_fl,Pid_fr,Pid_rl,Pid_rr;
//extern int16 master_encoder_left,master_encoder_right;
//extern int16 slave_encoder_left,slave_encoder_right;

void PID_Init(Pid_Param *tmp)//PID初始化
{
    4934:	1101                	addi	sp,sp,-32
    4936:	ce22                	sw	s0,28(sp)
    4938:	1000                	addi	s0,sp,32
    493a:	fea42623          	sw	a0,-20(s0)
C:\Users\windows\Desktop\smart_car\MASTER\obj/../CODE/PID.c:17
    tmp->kp=13;// P:115 I: 2 D: 15
    493e:	fec42783          	lw	a5,-20(s0)
    4942:	671d                	lui	a4,0x7
    4944:	af872703          	lw	a4,-1288(a4) # 6af8 <_exit+0x36>
    4948:	c398                	sw	a4,0(a5)
C:\Users\windows\Desktop\smart_car\MASTER\obj/../CODE/PID.c:18
    tmp->ki=5;// 5ms:125,2,80
    494a:	fec42783          	lw	a5,-20(s0)
    494e:	671d                	lui	a4,0x7
    4950:	afc72703          	lw	a4,-1284(a4) # 6afc <_exit+0x3a>
    4954:	c3d8                	sw	a4,4(a5)
C:\Users\windows\Desktop\smart_car\MASTER\obj/../CODE/PID.c:19
    tmp->kd=20;//10ms: 13,5,20
    4956:	fec42783          	lw	a5,-20(s0)
    495a:	671d                	lui	a4,0x7
    495c:	b0072703          	lw	a4,-1280(a4) # 6b00 <_exit+0x3e>
    4960:	c798                	sw	a4,8(a5)
C:\Users\windows\Desktop\smart_car\MASTER\obj/../CODE/PID.c:20
    tmp->imax=6000;//
    4962:	fec42783          	lw	a5,-20(s0)
    4966:	671d                	lui	a4,0x7
    4968:	b0472703          	lw	a4,-1276(a4) # 6b04 <_exit+0x42>
    496c:	c7d8                	sw	a4,12(a5)
C:\Users\windows\Desktop\smart_car\MASTER\obj/../CODE/PID.c:22

    tmp->out=0;
    496e:	fec42783          	lw	a5,-20(s0)
    4972:	00000713          	li	a4,0
    4976:	cfd8                	sw	a4,28(a5)
C:\Users\windows\Desktop\smart_car\MASTER\obj/../CODE/PID.c:23
    tmp->out_p=0;
    4978:	fec42783          	lw	a5,-20(s0)
    497c:	cb98                	sw	a4,16(a5)
C:\Users\windows\Desktop\smart_car\MASTER\obj/../CODE/PID.c:24
    tmp->out_i=0;
    497e:	fec42783          	lw	a5,-20(s0)
    4982:	cbd8                	sw	a4,20(a5)
C:\Users\windows\Desktop\smart_car\MASTER\obj/../CODE/PID.c:25
    tmp->out_d=0;
    4984:	fec42783          	lw	a5,-20(s0)
    4988:	cf98                	sw	a4,24(a5)
C:\Users\windows\Desktop\smart_car\MASTER\obj/../CODE/PID.c:27

    tmp->integrator=0;
    498a:	fec42783          	lw	a5,-20(s0)
    498e:	d398                	sw	a4,32(a5)
C:\Users\windows\Desktop\smart_car\MASTER\obj/../CODE/PID.c:28
    tmp->last_last_error=0;
    4990:	fec42783          	lw	a5,-20(s0)
    4994:	d798                	sw	a4,40(a5)
C:\Users\windows\Desktop\smart_car\MASTER\obj/../CODE/PID.c:29
    tmp->last_error=0;
    4996:	fec42783          	lw	a5,-20(s0)
    499a:	d3d8                	sw	a4,36(a5)
C:\Users\windows\Desktop\smart_car\MASTER\obj/../CODE/PID.c:30
    tmp->last_t=0;
    499c:	fec42783          	lw	a5,-20(s0)
    49a0:	0207a623          	sw	zero,44(a5)
C:\Users\windows\Desktop\smart_car\MASTER\obj/../CODE/PID.c:31
}
    49a4:	0001                	nop
    49a6:	4472                	lw	s0,28(sp)
    49a8:	6105                	addi	sp,sp,32
    49aa:	8082                	ret

000049ac <PID_incCtrl>:
PID_incCtrl():
C:\Users\windows\Desktop\smart_car\MASTER\obj/../CODE/PID.c:34

void PID_incCtrl(Pid_Param *tmp, float error)
{
    49ac:	1101                	addi	sp,sp,-32
    49ae:	ce06                	sw	ra,28(sp)
    49b0:	cc22                	sw	s0,24(sp)
    49b2:	ca26                	sw	s1,20(sp)
    49b4:	1000                	addi	s0,sp,32
    49b6:	fea42623          	sw	a0,-20(s0)
    49ba:	feb42423          	sw	a1,-24(s0)
C:\Users\windows\Desktop\smart_car\MASTER\obj/../CODE/PID.c:35
    tmp->out_p = tmp->kp * (error-tmp->last_error);
    49be:	fec42783          	lw	a5,-20(s0)
    49c2:	4384                	lw	s1,0(a5)
    49c4:	fec42783          	lw	a5,-20(s0)
    49c8:	53dc                	lw	a5,36(a5)
    49ca:	85be                	mv	a1,a5
    49cc:	fe842503          	lw	a0,-24(s0)
    49d0:	18d000ef          	jal	ra,535c <__subsf3>
    49d4:	87aa                	mv	a5,a0
    49d6:	85be                	mv	a1,a5
    49d8:	8526                	mv	a0,s1
    49da:	2dcd                	jal	50cc <__mulsf3>
    49dc:	87aa                	mv	a5,a0
    49de:	873e                	mv	a4,a5
    49e0:	fec42783          	lw	a5,-20(s0)
    49e4:	cb98                	sw	a4,16(a5)
C:\Users\windows\Desktop\smart_car\MASTER\obj/../CODE/PID.c:36
    tmp->out_i=tmp->ki * error;
    49e6:	fec42783          	lw	a5,-20(s0)
    49ea:	43dc                	lw	a5,4(a5)
    49ec:	fe842583          	lw	a1,-24(s0)
    49f0:	853e                	mv	a0,a5
    49f2:	2de9                	jal	50cc <__mulsf3>
    49f4:	87aa                	mv	a5,a0
    49f6:	873e                	mv	a4,a5
    49f8:	fec42783          	lw	a5,-20(s0)
    49fc:	cbd8                	sw	a4,20(a5)
C:\Users\windows\Desktop\smart_car\MASTER\obj/../CODE/PID.c:37
    tmp->out_d = tmp->kd * (error - 2*tmp->last_error + tmp->last_last_error);
    49fe:	fec42783          	lw	a5,-20(s0)
    4a02:	4784                	lw	s1,8(a5)
    4a04:	fec42783          	lw	a5,-20(s0)
    4a08:	53dc                	lw	a5,36(a5)
    4a0a:	85be                	mv	a1,a5
    4a0c:	853e                	mv	a0,a5
    4a0e:	2489                	jal	4c50 <__addsf3>
    4a10:	87aa                	mv	a5,a0
    4a12:	85be                	mv	a1,a5
    4a14:	fe842503          	lw	a0,-24(s0)
    4a18:	145000ef          	jal	ra,535c <__subsf3>
    4a1c:	87aa                	mv	a5,a0
    4a1e:	873e                	mv	a4,a5
    4a20:	fec42783          	lw	a5,-20(s0)
    4a24:	579c                	lw	a5,40(a5)
    4a26:	85be                	mv	a1,a5
    4a28:	853a                	mv	a0,a4
    4a2a:	241d                	jal	4c50 <__addsf3>
    4a2c:	87aa                	mv	a5,a0
    4a2e:	85be                	mv	a1,a5
    4a30:	8526                	mv	a0,s1
    4a32:	2d69                	jal	50cc <__mulsf3>
    4a34:	87aa                	mv	a5,a0
    4a36:	873e                	mv	a4,a5
    4a38:	fec42783          	lw	a5,-20(s0)
    4a3c:	cf98                	sw	a4,24(a5)
C:\Users\windows\Desktop\smart_car\MASTER\obj/../CODE/PID.c:39

    tmp->last_last_error = tmp->last_error;
    4a3e:	fec42783          	lw	a5,-20(s0)
    4a42:	53d8                	lw	a4,36(a5)
    4a44:	fec42783          	lw	a5,-20(s0)
    4a48:	d798                	sw	a4,40(a5)
C:\Users\windows\Desktop\smart_car\MASTER\obj/../CODE/PID.c:40
    tmp->last_error = error;
    4a4a:	fec42783          	lw	a5,-20(s0)
    4a4e:	fe842703          	lw	a4,-24(s0)
    4a52:	d3d8                	sw	a4,36(a5)
C:\Users\windows\Desktop\smart_car\MASTER\obj/../CODE/PID.c:42

    tmp->out = tmp->out+tmp->out_p + tmp->out_i + tmp->out_d;
    4a54:	fec42783          	lw	a5,-20(s0)
    4a58:	4fd8                	lw	a4,28(a5)
    4a5a:	fec42783          	lw	a5,-20(s0)
    4a5e:	4b9c                	lw	a5,16(a5)
    4a60:	85be                	mv	a1,a5
    4a62:	853a                	mv	a0,a4
    4a64:	22f5                	jal	4c50 <__addsf3>
    4a66:	87aa                	mv	a5,a0
    4a68:	873e                	mv	a4,a5
    4a6a:	fec42783          	lw	a5,-20(s0)
    4a6e:	4bdc                	lw	a5,20(a5)
    4a70:	85be                	mv	a1,a5
    4a72:	853a                	mv	a0,a4
    4a74:	2af1                	jal	4c50 <__addsf3>
    4a76:	87aa                	mv	a5,a0
    4a78:	873e                	mv	a4,a5
    4a7a:	fec42783          	lw	a5,-20(s0)
    4a7e:	4f9c                	lw	a5,24(a5)
    4a80:	85be                	mv	a1,a5
    4a82:	853a                	mv	a0,a4
    4a84:	22f1                	jal	4c50 <__addsf3>
    4a86:	87aa                	mv	a5,a0
    4a88:	873e                	mv	a4,a5
    4a8a:	fec42783          	lw	a5,-20(s0)
    4a8e:	cfd8                	sw	a4,28(a5)
C:\Users\windows\Desktop\smart_car\MASTER\obj/../CODE/PID.c:44

    if(tmp->out > 6000)
    4a90:	fec42783          	lw	a5,-20(s0)
    4a94:	4fd8                	lw	a4,28(a5)
    4a96:	679d                	lui	a5,0x7
    4a98:	b047a583          	lw	a1,-1276(a5) # 6b04 <_exit+0x42>
    4a9c:	853a                	mv	a0,a4
    4a9e:	2b31                	jal	4fba <__gesf2>
    4aa0:	87aa                	mv	a5,a0
    4aa2:	00f05863          	blez	a5,4ab2 <PID_incCtrl+0x106>
C:\Users\windows\Desktop\smart_car\MASTER\obj/../CODE/PID.c:45
        tmp->out = 6000;
    4aa6:	fec42783          	lw	a5,-20(s0)
    4aaa:	671d                	lui	a4,0x7
    4aac:	b0472703          	lw	a4,-1276(a4) # 6b04 <_exit+0x42>
    4ab0:	cfd8                	sw	a4,28(a5)
C:\Users\windows\Desktop\smart_car\MASTER\obj/../CODE/PID.c:46
    if(tmp->out < -6000)
    4ab2:	fec42783          	lw	a5,-20(s0)
    4ab6:	4fd8                	lw	a4,28(a5)
    4ab8:	679d                	lui	a5,0x7
    4aba:	b087a583          	lw	a1,-1272(a5) # 6b08 <_exit+0x46>
    4abe:	853a                	mv	a0,a4
    4ac0:	2341                	jal	5040 <__lesf2>
    4ac2:	87aa                	mv	a5,a0
    4ac4:	0007c363          	bltz	a5,4aca <PID_incCtrl+0x11e>
C:\Users\windows\Desktop\smart_car\MASTER\obj/../CODE/PID.c:48
        tmp->out = -6000;
}
    4ac8:	a039                	j	4ad6 <PID_incCtrl+0x12a>
C:\Users\windows\Desktop\smart_car\MASTER\obj/../CODE/PID.c:47
        tmp->out = -6000;
    4aca:	fec42783          	lw	a5,-20(s0)
    4ace:	671d                	lui	a4,0x7
    4ad0:	b0872703          	lw	a4,-1272(a4) # 6b08 <_exit+0x46>
    4ad4:	cfd8                	sw	a4,28(a5)
C:\Users\windows\Desktop\smart_car\MASTER\obj/../CODE/PID.c:48
}
    4ad6:	0001                	nop
    4ad8:	40f2                	lw	ra,28(sp)
    4ada:	4462                	lw	s0,24(sp)
    4adc:	44d2                	lw	s1,20(sp)
    4ade:	6105                	addi	sp,sp,32
    4ae0:	8082                	ret

00004ae2 <CRC16>:
CRC16():
C:\Users\windows\Desktop\smart_car\MASTER\obj/../CODE/shangweiji.c:5
#include "shangweiji.h"
#include "headfile.h"

void CRC16(uint8 *Array,uint8 *Rcvbuf,unsigned int Len )  //产生校验码
{
    4ae2:	7179                	addi	sp,sp,-48
    4ae4:	d622                	sw	s0,44(sp)
    4ae6:	1800                	addi	s0,sp,48
    4ae8:	fca42e23          	sw	a0,-36(s0)
    4aec:	fcb42c23          	sw	a1,-40(s0)
    4af0:	fcc42a23          	sw	a2,-44(s0)
C:\Users\windows\Desktop\smart_car\MASTER\obj/../CODE/shangweiji.c:7
	uint16 IX,IY,CRCa;
	CRCa=0xFFFF;
    4af4:	57fd                	li	a5,-1
    4af6:	fef41523          	sh	a5,-22(s0)
C:\Users\windows\Desktop\smart_car\MASTER\obj/../CODE/shangweiji.c:9
	
	if(Len<=0)
    4afa:	fd442783          	lw	a5,-44(s0)
    4afe:	e781                	bnez	a5,4b06 <CRC16+0x24>
C:\Users\windows\Desktop\smart_car\MASTER\obj/../CODE/shangweiji.c:10
		CRCa=0;
    4b00:	fe041523          	sh	zero,-22(s0)
    4b04:	a069                	j	4b8e <CRC16+0xac>
C:\Users\windows\Desktop\smart_car\MASTER\obj/../CODE/shangweiji.c:13
	else
	{
		Len--;
    4b06:	fd442783          	lw	a5,-44(s0)
    4b0a:	17fd                	addi	a5,a5,-1
    4b0c:	fcf42a23          	sw	a5,-44(s0)
C:\Users\windows\Desktop\smart_car\MASTER\obj/../CODE/shangweiji.c:14
		for(IX=0;IX<=Len;IX++)
    4b10:	fe041723          	sh	zero,-18(s0)
    4b14:	a0bd                	j	4b82 <CRC16+0xa0>
C:\Users\windows\Desktop\smart_car\MASTER\obj/../CODE/shangweiji.c:16
		{
 			CRCa=CRCa^Array[IX];
    4b16:	fee45783          	lhu	a5,-18(s0)
    4b1a:	fdc42703          	lw	a4,-36(s0)
    4b1e:	97ba                	add	a5,a5,a4
    4b20:	0007c783          	lbu	a5,0(a5)
    4b24:	01079713          	slli	a4,a5,0x10
    4b28:	8341                	srli	a4,a4,0x10
    4b2a:	fea45783          	lhu	a5,-22(s0)
    4b2e:	8fb9                	xor	a5,a5,a4
    4b30:	fef41523          	sh	a5,-22(s0)
C:\Users\windows\Desktop\smart_car\MASTER\obj/../CODE/shangweiji.c:17
			for(IY=0;IY<=7;IY++)
    4b34:	fe041623          	sh	zero,-20(s0)
    4b38:	a81d                	j	4b6e <CRC16+0x8c>
C:\Users\windows\Desktop\smart_car\MASTER\obj/../CODE/shangweiji.c:19
			{
			if((CRCa&1)!=0) CRCa=(CRCa>>1)^0xA001;
    4b3a:	fea45783          	lhu	a5,-22(s0)
    4b3e:	8b85                	andi	a5,a5,1
    4b40:	cf89                	beqz	a5,4b5a <CRC16+0x78>
C:\Users\windows\Desktop\smart_car\MASTER\obj/../CODE/shangweiji.c:19 (discriminator 1)
    4b42:	fea45783          	lhu	a5,-22(s0)
    4b46:	8385                	srli	a5,a5,0x1
    4b48:	01079713          	slli	a4,a5,0x10
    4b4c:	8341                	srli	a4,a4,0x10
    4b4e:	77e9                	lui	a5,0xffffa
    4b50:	0785                	addi	a5,a5,1
    4b52:	8fb9                	xor	a5,a5,a4
    4b54:	fef41523          	sh	a5,-22(s0)
    4b58:	a031                	j	4b64 <CRC16+0x82>
C:\Users\windows\Desktop\smart_car\MASTER\obj/../CODE/shangweiji.c:20
			else CRCa=CRCa>>1;
    4b5a:	fea45783          	lhu	a5,-22(s0)
    4b5e:	8385                	srli	a5,a5,0x1
    4b60:	fef41523          	sh	a5,-22(s0)
C:\Users\windows\Desktop\smart_car\MASTER\obj/../CODE/shangweiji.c:17 (discriminator 2)
			for(IY=0;IY<=7;IY++)
    4b64:	fec45783          	lhu	a5,-20(s0)
    4b68:	0785                	addi	a5,a5,1
    4b6a:	fef41623          	sh	a5,-20(s0)
C:\Users\windows\Desktop\smart_car\MASTER\obj/../CODE/shangweiji.c:17 (discriminator 1)
    4b6e:	fec45703          	lhu	a4,-20(s0)
    4b72:	479d                	li	a5,7
    4b74:	fce7f3e3          	bgeu	a5,a4,4b3a <CRC16+0x58>
C:\Users\windows\Desktop\smart_car\MASTER\obj/../CODE/shangweiji.c:14 (discriminator 2)
		for(IX=0;IX<=Len;IX++)
    4b78:	fee45783          	lhu	a5,-18(s0)
    4b7c:	0785                	addi	a5,a5,1
    4b7e:	fef41723          	sh	a5,-18(s0)
C:\Users\windows\Desktop\smart_car\MASTER\obj/../CODE/shangweiji.c:14 (discriminator 1)
    4b82:	fee45783          	lhu	a5,-18(s0)
    4b86:	fd442703          	lw	a4,-44(s0)
    4b8a:	f8f776e3          	bgeu	a4,a5,4b16 <CRC16+0x34>
C:\Users\windows\Desktop\smart_car\MASTER\obj/../CODE/shangweiji.c:24
			}
		}
	}
	Rcvbuf[1]=(CRCa&0xFF00)>>8; //高位置
    4b8e:	fea45783          	lhu	a5,-22(s0)
    4b92:	83a1                	srli	a5,a5,0x8
    4b94:	01079713          	slli	a4,a5,0x10
    4b98:	8341                	srli	a4,a4,0x10
    4b9a:	fd842783          	lw	a5,-40(s0)
    4b9e:	0785                	addi	a5,a5,1
    4ba0:	0ff77713          	andi	a4,a4,255
    4ba4:	00e78023          	sb	a4,0(a5) # ffffa000 <_eusrstack+0xdfff5000>
C:\Users\windows\Desktop\smart_car\MASTER\obj/../CODE/shangweiji.c:25
	Rcvbuf[0]=(CRCa&0x00FF); //低位置
    4ba8:	fea45783          	lhu	a5,-22(s0)
    4bac:	0ff7f713          	andi	a4,a5,255
    4bb0:	fd842783          	lw	a5,-40(s0)
    4bb4:	00e78023          	sb	a4,0(a5)
C:\Users\windows\Desktop\smart_car\MASTER\obj/../CODE/shangweiji.c:26
}
    4bb8:	0001                	nop
    4bba:	5432                	lw	s0,44(sp)
    4bbc:	6145                	addi	sp,sp,48
    4bbe:	8082                	ret

00004bc0 <OutPut_Data>:
OutPut_Data():
C:\Users\windows\Desktop\smart_car\MASTER\obj/../CODE/shangweiji.c:29

void OutPut_Data(int ch1,int ch2,int ch3,int ch4)
{
    4bc0:	7179                	addi	sp,sp,-48
    4bc2:	d606                	sw	ra,44(sp)
    4bc4:	d422                	sw	s0,40(sp)
    4bc6:	1800                	addi	s0,sp,48
    4bc8:	fca42e23          	sw	a0,-36(s0)
    4bcc:	fcb42c23          	sw	a1,-40(s0)
    4bd0:	fcc42a23          	sw	a2,-44(s0)
    4bd4:	fcd42823          	sw	a3,-48(s0)
C:\Users\windows\Desktop\smart_car\MASTER\obj/../CODE/shangweiji.c:31
	uint8 Array[8],Rcvbuf[2];
	Array[0]=(uint8)(ch1&0x00FF);
    4bd8:	fdc42783          	lw	a5,-36(s0)
    4bdc:	0ff7f793          	andi	a5,a5,255
    4be0:	fef40423          	sb	a5,-24(s0)
C:\Users\windows\Desktop\smart_car\MASTER\obj/../CODE/shangweiji.c:32
	Array[1]=(uint8)(ch1&0xFF00);
    4be4:	fe0404a3          	sb	zero,-23(s0)
C:\Users\windows\Desktop\smart_car\MASTER\obj/../CODE/shangweiji.c:33
	Array[2]=(uint8)(ch2&0x00FF);
    4be8:	fd842783          	lw	a5,-40(s0)
    4bec:	0ff7f793          	andi	a5,a5,255
    4bf0:	fef40523          	sb	a5,-22(s0)
C:\Users\windows\Desktop\smart_car\MASTER\obj/../CODE/shangweiji.c:34
	Array[3]=(uint8)(ch2&0xFF00);
    4bf4:	fe0405a3          	sb	zero,-21(s0)
C:\Users\windows\Desktop\smart_car\MASTER\obj/../CODE/shangweiji.c:35
	Array[4]=(uint8)(ch3&0x00FF);
    4bf8:	fd442783          	lw	a5,-44(s0)
    4bfc:	0ff7f793          	andi	a5,a5,255
    4c00:	fef40623          	sb	a5,-20(s0)
C:\Users\windows\Desktop\smart_car\MASTER\obj/../CODE/shangweiji.c:36
	Array[5]=(uint8)(ch3&0xFF00);
    4c04:	fe0406a3          	sb	zero,-19(s0)
C:\Users\windows\Desktop\smart_car\MASTER\obj/../CODE/shangweiji.c:37
	Array[6]=(uint8)(ch4&0x00FF);
    4c08:	fd042783          	lw	a5,-48(s0)
    4c0c:	0ff7f793          	andi	a5,a5,255
    4c10:	fef40723          	sb	a5,-18(s0)
C:\Users\windows\Desktop\smart_car\MASTER\obj/../CODE/shangweiji.c:38
	Array[7]=(uint8)(ch4&0xFF00);
    4c14:	fe0407a3          	sb	zero,-17(s0)
C:\Users\windows\Desktop\smart_car\MASTER\obj/../CODE/shangweiji.c:39
	CRC16(Array,Rcvbuf,8);
    4c18:	fe440713          	addi	a4,s0,-28
    4c1c:	fe840793          	addi	a5,s0,-24
    4c20:	4621                	li	a2,8
    4c22:	85ba                	mv	a1,a4
    4c24:	853e                	mv	a0,a5
    4c26:	ebdff0ef          	jal	ra,4ae2 <CRC16>
C:\Users\windows\Desktop\smart_car\MASTER\obj/../CODE/shangweiji.c:50
	printf("Array[5]:%d\r\n",Array[5]);
	printf("Array[6]:%d\r\n",Array[6]);
	printf("Array[7]:%d\r\n",Array[7]);
	printf("Rcvbuf[0]:%d\r\n",Rcvbuf[0]);
	printf("Rcvbuf[1]:%d\r\n",Rcvbuf[1]);*/
	uart_putbuff(UART_1, Array, 8); //发送4个通道的数据
    4c2a:	fe840793          	addi	a5,s0,-24
    4c2e:	4621                	li	a2,8
    4c30:	85be                	mv	a1,a5
    4c32:	4501                	li	a0,0
    4c34:	fc6ff0ef          	jal	ra,43fa <uart_putbuff>
C:\Users\windows\Desktop\smart_car\MASTER\obj/../CODE/shangweiji.c:51
	uart_putbuff(UART_1, Rcvbuf, 2);// 发送校验码
    4c38:	fe440793          	addi	a5,s0,-28
    4c3c:	4609                	li	a2,2
    4c3e:	85be                	mv	a1,a5
    4c40:	4501                	li	a0,0
    4c42:	fb8ff0ef          	jal	ra,43fa <uart_putbuff>
C:\Users\windows\Desktop\smart_car\MASTER\obj/../CODE/shangweiji.c:52
}
    4c46:	0001                	nop
    4c48:	50b2                	lw	ra,44(sp)
    4c4a:	5422                	lw	s0,40(sp)
    4c4c:	6145                	addi	sp,sp,48
    4c4e:	8082                	ret

00004c50 <__addsf3>:
__addsf3():
    4c50:	1141                	addi	sp,sp,-16
    4c52:	00800737          	lui	a4,0x800
    4c56:	177d                	addi	a4,a4,-1
    4c58:	0175d813          	srli	a6,a1,0x17
    4c5c:	c226                	sw	s1,4(sp)
    4c5e:	01755493          	srli	s1,a0,0x17
    4c62:	00a77333          	and	t1,a4,a0
    4c66:	0ff4f493          	andi	s1,s1,255
    4c6a:	00b776b3          	and	a3,a4,a1
    4c6e:	c04a                	sw	s2,0(sp)
    4c70:	0ff87813          	andi	a6,a6,255
    4c74:	01f55913          	srli	s2,a0,0x1f
    4c78:	c606                	sw	ra,12(sp)
    4c7a:	c422                	sw	s0,8(sp)
    4c7c:	81fd                	srli	a1,a1,0x1f
    4c7e:	879a                	mv	a5,t1
    4c80:	8526                	mv	a0,s1
    4c82:	864a                	mv	a2,s2
    4c84:	00331e13          	slli	t3,t1,0x3
    4c88:	00369e93          	slli	t4,a3,0x3
    4c8c:	410488b3          	sub	a7,s1,a6
    4c90:	0eb90a63          	beq	s2,a1,4d84 <__addsf3+0x134>
    4c94:	0d105063          	blez	a7,4d54 <__addsf3+0x104>
    4c98:	14080463          	beqz	a6,4de0 <__addsf3+0x190>
    4c9c:	0ff00793          	li	a5,255
    4ca0:	14f48b63          	beq	s1,a5,4df6 <__addsf3+0x1a6>
    4ca4:	040007b7          	lui	a5,0x4000
    4ca8:	00feeeb3          	or	t4,t4,a5
    4cac:	47ed                	li	a5,27
    4cae:	2917c163          	blt	a5,a7,4f30 <__addsf3+0x2e0>
    4cb2:	02000793          	li	a5,32
    4cb6:	411787b3          	sub	a5,a5,a7
    4cba:	00fe97b3          	sll	a5,t4,a5
    4cbe:	011ed8b3          	srl	a7,t4,a7
    4cc2:	00f037b3          	snez	a5,a5
    4cc6:	00f8e7b3          	or	a5,a7,a5
    4cca:	40fe07b3          	sub	a5,t3,a5
    4cce:	00579713          	slli	a4,a5,0x5
    4cd2:	18075e63          	bgez	a4,4e6e <__addsf3+0x21e>
    4cd6:	04000437          	lui	s0,0x4000
    4cda:	147d                	addi	s0,s0,-1
    4cdc:	8c7d                	and	s0,s0,a5
    4cde:	8522                	mv	a0,s0
    4ce0:	32d000ef          	jal	ra,580c <__clzsi2>
    4ce4:	156d                	addi	a0,a0,-5
    4ce6:	00a417b3          	sll	a5,s0,a0
    4cea:	1a954863          	blt	a0,s1,4e9a <__addsf3+0x24a>
    4cee:	8d05                	sub	a0,a0,s1
    4cf0:	00150413          	addi	s0,a0,1 # 40001 <_data_lma+0x39299>
    4cf4:	02000713          	li	a4,32
    4cf8:	8f01                	sub	a4,a4,s0
    4cfa:	00e79733          	sll	a4,a5,a4
    4cfe:	00e03733          	snez	a4,a4
    4d02:	0087d7b3          	srl	a5,a5,s0
    4d06:	8fd9                	or	a5,a5,a4
    4d08:	4481                	li	s1,0
    4d0a:	0077f713          	andi	a4,a5,7
    4d0e:	c719                	beqz	a4,4d1c <__addsf3+0xcc>
    4d10:	00f7f713          	andi	a4,a5,15
    4d14:	4691                	li	a3,4
    4d16:	00d70363          	beq	a4,a3,4d1c <__addsf3+0xcc>
    4d1a:	0791                	addi	a5,a5,4
    4d1c:	00579713          	slli	a4,a5,0x5
    4d20:	14075b63          	bgez	a4,4e76 <__addsf3+0x226>
    4d24:	0485                	addi	s1,s1,1
    4d26:	0ff00713          	li	a4,255
    4d2a:	864a                	mv	a2,s2
    4d2c:	16e48363          	beq	s1,a4,4e92 <__addsf3+0x242>
    4d30:	079a                	slli	a5,a5,0x6
    4d32:	83a5                	srli	a5,a5,0x9
    4d34:	0ff4f513          	andi	a0,s1,255
    4d38:	40b2                	lw	ra,12(sp)
    4d3a:	4422                	lw	s0,8(sp)
    4d3c:	07a6                	slli	a5,a5,0x9
    4d3e:	01751493          	slli	s1,a0,0x17
    4d42:	0097d513          	srli	a0,a5,0x9
    4d46:	8d45                	or	a0,a0,s1
    4d48:	067e                	slli	a2,a2,0x1f
    4d4a:	4492                	lw	s1,4(sp)
    4d4c:	4902                	lw	s2,0(sp)
    4d4e:	8d51                	or	a0,a0,a2
    4d50:	0141                	addi	sp,sp,16
    4d52:	8082                	ret
    4d54:	0a089963          	bnez	a7,4e06 <__addsf3+0x1b6>
    4d58:	00148713          	addi	a4,s1,1
    4d5c:	0fe77713          	andi	a4,a4,254
    4d60:	14071763          	bnez	a4,4eae <__addsf3+0x25e>
    4d64:	22049063          	bnez	s1,4f84 <__addsf3+0x334>
    4d68:	1e0e0d63          	beqz	t3,4f62 <__addsf3+0x312>
    4d6c:	fc0e86e3          	beqz	t4,4d38 <__addsf3+0xe8>
    4d70:	41de07b3          	sub	a5,t3,t4
    4d74:	00579713          	slli	a4,a5,0x5
    4d78:	22075063          	bgez	a4,4f98 <__addsf3+0x348>
    4d7c:	41ce87b3          	sub	a5,t4,t3
    4d80:	892e                	mv	s2,a1
    4d82:	b761                	j	4d0a <__addsf3+0xba>
    4d84:	0b105c63          	blez	a7,4e3c <__addsf3+0x1ec>
    4d88:	08080e63          	beqz	a6,4e24 <__addsf3+0x1d4>
    4d8c:	0ff00793          	li	a5,255
    4d90:	06f48363          	beq	s1,a5,4df6 <__addsf3+0x1a6>
    4d94:	040007b7          	lui	a5,0x4000
    4d98:	00feeeb3          	or	t4,t4,a5
    4d9c:	47ed                	li	a5,27
    4d9e:	1f17c963          	blt	a5,a7,4f90 <__addsf3+0x340>
    4da2:	02000793          	li	a5,32
    4da6:	411787b3          	sub	a5,a5,a7
    4daa:	00fe97b3          	sll	a5,t4,a5
    4dae:	011ed8b3          	srl	a7,t4,a7
    4db2:	00f037b3          	snez	a5,a5
    4db6:	00f8e7b3          	or	a5,a7,a5
    4dba:	97f2                	add	a5,a5,t3
    4dbc:	00579713          	slli	a4,a5,0x5
    4dc0:	0a075763          	bgez	a4,4e6e <__addsf3+0x21e>
    4dc4:	0485                	addi	s1,s1,1
    4dc6:	0ff00713          	li	a4,255
    4dca:	0ce48463          	beq	s1,a4,4e92 <__addsf3+0x242>
    4dce:	7e0006b7          	lui	a3,0x7e000
    4dd2:	0017d713          	srli	a4,a5,0x1
    4dd6:	16fd                	addi	a3,a3,-1
    4dd8:	8b85                	andi	a5,a5,1
    4dda:	8f75                	and	a4,a4,a3
    4ddc:	8fd9                	or	a5,a5,a4
    4dde:	b735                	j	4d0a <__addsf3+0xba>
    4de0:	080e8d63          	beqz	t4,4e7a <__addsf3+0x22a>
    4de4:	18fd                	addi	a7,a7,-1
    4de6:	41de07b3          	sub	a5,t3,t4
    4dea:	ee0882e3          	beqz	a7,4cce <__addsf3+0x7e>
    4dee:	0ff00793          	li	a5,255
    4df2:	eaf49de3          	bne	s1,a5,4cac <__addsf3+0x5c>
    4df6:	08030d63          	beqz	t1,4e90 <__addsf3+0x240>
    4dfa:	4601                	li	a2,0
    4dfc:	0ff00513          	li	a0,255
    4e00:	004007b7          	lui	a5,0x400
    4e04:	bf15                	j	4d38 <__addsf3+0xe8>
    4e06:	40980733          	sub	a4,a6,s1
    4e0a:	e8ed                	bnez	s1,4efc <__addsf3+0x2ac>
    4e0c:	140e0263          	beqz	t3,4f50 <__addsf3+0x300>
    4e10:	177d                	addi	a4,a4,-1
    4e12:	18070863          	beqz	a4,4fa2 <__addsf3+0x352>
    4e16:	0ff00793          	li	a5,255
    4e1a:	0ef81963          	bne	a6,a5,4f0c <__addsf3+0x2bc>
    4e1e:	892e                	mv	s2,a1
    4e20:	8336                	mv	t1,a3
    4e22:	bfd1                	j	4df6 <__addsf3+0x1a6>
    4e24:	040e8b63          	beqz	t4,4e7a <__addsf3+0x22a>
    4e28:	18fd                	addi	a7,a7,-1
    4e2a:	01de07b3          	add	a5,t3,t4
    4e2e:	f80887e3          	beqz	a7,4dbc <__addsf3+0x16c>
    4e32:	0ff00793          	li	a5,255
    4e36:	f6f493e3          	bne	s1,a5,4d9c <__addsf3+0x14c>
    4e3a:	bf75                	j	4df6 <__addsf3+0x1a6>
    4e3c:	08089563          	bnez	a7,4ec6 <__addsf3+0x276>
    4e40:	0485                	addi	s1,s1,1
    4e42:	0fe4f713          	andi	a4,s1,254
    4e46:	12071363          	bnez	a4,4f6c <__addsf3+0x31c>
    4e4a:	10051763          	bnez	a0,4f58 <__addsf3+0x308>
    4e4e:	140e0f63          	beqz	t3,4fac <__addsf3+0x35c>
    4e52:	ee0e83e3          	beqz	t4,4d38 <__addsf3+0xe8>
    4e56:	01de07b3          	add	a5,t3,t4
    4e5a:	00579713          	slli	a4,a5,0x5
    4e5e:	4481                	li	s1,0
    4e60:	00075763          	bgez	a4,4e6e <__addsf3+0x21e>
    4e64:	fc000737          	lui	a4,0xfc000
    4e68:	177d                	addi	a4,a4,-1
    4e6a:	8ff9                	and	a5,a5,a4
    4e6c:	4485                	li	s1,1
    4e6e:	0077f713          	andi	a4,a5,7
    4e72:	e8071fe3          	bnez	a4,4d10 <__addsf3+0xc0>
    4e76:	0037d313          	srli	t1,a5,0x3
    4e7a:	0ff00793          	li	a5,255
    4e7e:	f6f48ce3          	beq	s1,a5,4df6 <__addsf3+0x1a6>
    4e82:	00931793          	slli	a5,t1,0x9
    4e86:	83a5                	srli	a5,a5,0x9
    4e88:	0ff4f513          	andi	a0,s1,255
    4e8c:	864a                	mv	a2,s2
    4e8e:	b56d                	j	4d38 <__addsf3+0xe8>
    4e90:	864a                	mv	a2,s2
    4e92:	0ff00513          	li	a0,255
    4e96:	4781                	li	a5,0
    4e98:	b545                	j	4d38 <__addsf3+0xe8>
    4e9a:	fc000737          	lui	a4,0xfc000
    4e9e:	177d                	addi	a4,a4,-1
    4ea0:	8ff9                	and	a5,a5,a4
    4ea2:	0077f713          	andi	a4,a5,7
    4ea6:	8c89                	sub	s1,s1,a0
    4ea8:	e60714e3          	bnez	a4,4d10 <__addsf3+0xc0>
    4eac:	b7e9                	j	4e76 <__addsf3+0x226>
    4eae:	41de0433          	sub	s0,t3,t4
    4eb2:	00541793          	slli	a5,s0,0x5
    4eb6:	0c07c363          	bltz	a5,4f7c <__addsf3+0x32c>
    4eba:	e20412e3          	bnez	s0,4cde <__addsf3+0x8e>
    4ebe:	4601                	li	a2,0
    4ec0:	4501                	li	a0,0
    4ec2:	4781                	li	a5,0
    4ec4:	bd95                	j	4d38 <__addsf3+0xe8>
    4ec6:	40980733          	sub	a4,a6,s1
    4eca:	c4ad                	beqz	s1,4f34 <__addsf3+0x2e4>
    4ecc:	0ff00793          	li	a5,255
    4ed0:	f4f808e3          	beq	a6,a5,4e20 <__addsf3+0x1d0>
    4ed4:	040007b7          	lui	a5,0x4000
    4ed8:	00fe6e33          	or	t3,t3,a5
    4edc:	47ed                	li	a5,27
    4ede:	0ce7cc63          	blt	a5,a4,4fb6 <__addsf3+0x366>
    4ee2:	02000793          	li	a5,32
    4ee6:	8f99                	sub	a5,a5,a4
    4ee8:	00fe17b3          	sll	a5,t3,a5
    4eec:	00ee5733          	srl	a4,t3,a4
    4ef0:	00f037b3          	snez	a5,a5
    4ef4:	8fd9                	or	a5,a5,a4
    4ef6:	97f6                	add	a5,a5,t4
    4ef8:	84c2                	mv	s1,a6
    4efa:	b5c9                	j	4dbc <__addsf3+0x16c>
    4efc:	0ff00793          	li	a5,255
    4f00:	f0f80fe3          	beq	a6,a5,4e1e <__addsf3+0x1ce>
    4f04:	040007b7          	lui	a5,0x4000
    4f08:	00fe6e33          	or	t3,t3,a5
    4f0c:	47ed                	li	a5,27
    4f0e:	08e7c363          	blt	a5,a4,4f94 <__addsf3+0x344>
    4f12:	02000693          	li	a3,32
    4f16:	8e99                	sub	a3,a3,a4
    4f18:	00de16b3          	sll	a3,t3,a3
    4f1c:	00ee57b3          	srl	a5,t3,a4
    4f20:	00d03733          	snez	a4,a3
    4f24:	8fd9                	or	a5,a5,a4
    4f26:	40fe87b3          	sub	a5,t4,a5
    4f2a:	84c2                	mv	s1,a6
    4f2c:	892e                	mv	s2,a1
    4f2e:	b345                	j	4cce <__addsf3+0x7e>
    4f30:	4785                	li	a5,1
    4f32:	bb61                	j	4cca <__addsf3+0x7a>
    4f34:	060e0e63          	beqz	t3,4fb0 <__addsf3+0x360>
    4f38:	177d                	addi	a4,a4,-1
    4f3a:	01de07b3          	add	a5,t3,t4
    4f3e:	84c2                	mv	s1,a6
    4f40:	e6070ee3          	beqz	a4,4dbc <__addsf3+0x16c>
    4f44:	0ff00793          	li	a5,255
    4f48:	f8f81ae3          	bne	a6,a5,4edc <__addsf3+0x28c>
    4f4c:	8336                	mv	t1,a3
    4f4e:	b565                	j	4df6 <__addsf3+0x1a6>
    4f50:	8336                	mv	t1,a3
    4f52:	84c2                	mv	s1,a6
    4f54:	892e                	mv	s2,a1
    4f56:	b715                	j	4e7a <__addsf3+0x22a>
    4f58:	ec0e04e3          	beqz	t3,4e20 <__addsf3+0x1d0>
    4f5c:	e80e8de3          	beqz	t4,4df6 <__addsf3+0x1a6>
    4f60:	bd69                	j	4dfa <__addsf3+0x1aa>
    4f62:	020e8d63          	beqz	t4,4f9c <__addsf3+0x34c>
    4f66:	862e                	mv	a2,a1
    4f68:	87b6                	mv	a5,a3
    4f6a:	b3f9                	j	4d38 <__addsf3+0xe8>
    4f6c:	0ff00793          	li	a5,255
    4f70:	f2f481e3          	beq	s1,a5,4e92 <__addsf3+0x242>
    4f74:	01de07b3          	add	a5,t3,t4
    4f78:	8385                	srli	a5,a5,0x1
    4f7a:	bdd5                	j	4e6e <__addsf3+0x21e>
    4f7c:	41ce8433          	sub	s0,t4,t3
    4f80:	892e                	mv	s2,a1
    4f82:	bbb1                	j	4cde <__addsf3+0x8e>
    4f84:	fc0e1ce3          	bnez	t3,4f5c <__addsf3+0x30c>
    4f88:	e60e89e3          	beqz	t4,4dfa <__addsf3+0x1aa>
    4f8c:	892e                	mv	s2,a1
    4f8e:	bd49                	j	4e20 <__addsf3+0x1d0>
    4f90:	4785                	li	a5,1
    4f92:	b525                	j	4dba <__addsf3+0x16a>
    4f94:	4785                	li	a5,1
    4f96:	bf41                	j	4f26 <__addsf3+0x2d6>
    4f98:	ec079be3          	bnez	a5,4e6e <__addsf3+0x21e>
    4f9c:	4601                	li	a2,0
    4f9e:	4781                	li	a5,0
    4fa0:	bb61                	j	4d38 <__addsf3+0xe8>
    4fa2:	41ce87b3          	sub	a5,t4,t3
    4fa6:	84c2                	mv	s1,a6
    4fa8:	892e                	mv	s2,a1
    4faa:	b315                	j	4cce <__addsf3+0x7e>
    4fac:	87b6                	mv	a5,a3
    4fae:	b369                	j	4d38 <__addsf3+0xe8>
    4fb0:	8336                	mv	t1,a3
    4fb2:	84c2                	mv	s1,a6
    4fb4:	b5d9                	j	4e7a <__addsf3+0x22a>
    4fb6:	4785                	li	a5,1
    4fb8:	bf3d                	j	4ef6 <__addsf3+0x2a6>

00004fba <__gesf2>:
__gtsf2():
    4fba:	01755693          	srli	a3,a0,0x17
    4fbe:	008007b7          	lui	a5,0x800
    4fc2:	17fd                	addi	a5,a5,-1
    4fc4:	0175d613          	srli	a2,a1,0x17
    4fc8:	0ff6f693          	andi	a3,a3,255
    4fcc:	0ff00813          	li	a6,255
    4fd0:	00a7f8b3          	and	a7,a5,a0
    4fd4:	01f55713          	srli	a4,a0,0x1f
    4fd8:	8fed                	and	a5,a5,a1
    4fda:	0ff67613          	andi	a2,a2,255
    4fde:	81fd                	srli	a1,a1,0x1f
    4fe0:	03068163          	beq	a3,a6,5002 <__gesf2+0x48>
    4fe4:	01060c63          	beq	a2,a6,4ffc <__gesf2+0x42>
    4fe8:	e28d                	bnez	a3,500a <__gesf2+0x50>
    4fea:	e211                	bnez	a2,4fee <__gesf2+0x34>
    4fec:	c3b1                	beqz	a5,5030 <__gesf2+0x76>
    4fee:	02088e63          	beqz	a7,502a <__gesf2+0x70>
    4ff2:	04b70563          	beq	a4,a1,503c <__gesf2+0x82>
    4ff6:	4505                	li	a0,1
    4ff8:	e71d                	bnez	a4,5026 <__gesf2+0x6c>
    4ffa:	8082                	ret
    4ffc:	d7f5                	beqz	a5,4fe8 <__gesf2+0x2e>
    4ffe:	5579                	li	a0,-2
    5000:	8082                	ret
    5002:	fe089ee3          	bnez	a7,4ffe <__gesf2+0x44>
    5006:	02d60963          	beq	a2,a3,5038 <__gesf2+0x7e>
    500a:	e211                	bnez	a2,500e <__gesf2+0x54>
    500c:	d7ed                	beqz	a5,4ff6 <__gesf2+0x3c>
    500e:	feb714e3          	bne	a4,a1,4ff6 <__gesf2+0x3c>
    5012:	fed642e3          	blt	a2,a3,4ff6 <__gesf2+0x3c>
    5016:	00c6c763          	blt	a3,a2,5024 <__gesf2+0x6a>
    501a:	fd17eee3          	bltu	a5,a7,4ff6 <__gesf2+0x3c>
    501e:	4501                	li	a0,0
    5020:	fcf8fde3          	bgeu	a7,a5,4ffa <__gesf2+0x40>
    5024:	e701                	bnez	a4,502c <__gesf2+0x72>
    5026:	557d                	li	a0,-1
    5028:	8082                	ret
    502a:	ddf5                	beqz	a1,5026 <__gesf2+0x6c>
    502c:	4505                	li	a0,1
    502e:	8082                	ret
    5030:	4501                	li	a0,0
    5032:	fc0892e3          	bnez	a7,4ff6 <__gesf2+0x3c>
    5036:	8082                	ret
    5038:	dbf9                	beqz	a5,500e <__gesf2+0x54>
    503a:	b7d1                	j	4ffe <__gesf2+0x44>
    503c:	4681                	li	a3,0
    503e:	bfe1                	j	5016 <__gesf2+0x5c>

00005040 <__lesf2>:
__lesf2():
    5040:	01755693          	srli	a3,a0,0x17
    5044:	008007b7          	lui	a5,0x800
    5048:	17fd                	addi	a5,a5,-1
    504a:	0175d613          	srli	a2,a1,0x17
    504e:	0ff6f693          	andi	a3,a3,255
    5052:	0ff00813          	li	a6,255
    5056:	00a7f8b3          	and	a7,a5,a0
    505a:	01f55713          	srli	a4,a0,0x1f
    505e:	8fed                	and	a5,a5,a1
    5060:	0ff67613          	andi	a2,a2,255
    5064:	81fd                	srli	a1,a1,0x1f
    5066:	03068763          	beq	a3,a6,5094 <__lesf2+0x54>
    506a:	01060963          	beq	a2,a6,507c <__lesf2+0x3c>
    506e:	ea85                	bnez	a3,509e <__lesf2+0x5e>
    5070:	ea11                	bnez	a2,5084 <__lesf2+0x44>
    5072:	eb89                	bnez	a5,5084 <__lesf2+0x44>
    5074:	4501                	li	a0,0
    5076:	00089b63          	bnez	a7,508c <__lesf2+0x4c>
    507a:	8082                	ret
    507c:	4509                	li	a0,2
    507e:	fff5                	bnez	a5,507a <__lesf2+0x3a>
    5080:	dae5                	beqz	a3,5070 <__lesf2+0x30>
    5082:	a831                	j	509e <__lesf2+0x5e>
    5084:	02088c63          	beqz	a7,50bc <__lesf2+0x7c>
    5088:	04b70063          	beq	a4,a1,50c8 <__lesf2+0x88>
    508c:	4505                	li	a0,1
    508e:	d775                	beqz	a4,507a <__lesf2+0x3a>
    5090:	557d                	li	a0,-1
    5092:	8082                	ret
    5094:	4509                	li	a0,2
    5096:	02089863          	bnez	a7,50c6 <__lesf2+0x86>
    509a:	02d60463          	beq	a2,a3,50c2 <__lesf2+0x82>
    509e:	e211                	bnez	a2,50a2 <__lesf2+0x62>
    50a0:	d7f5                	beqz	a5,508c <__lesf2+0x4c>
    50a2:	feb715e3          	bne	a4,a1,508c <__lesf2+0x4c>
    50a6:	fed643e3          	blt	a2,a3,508c <__lesf2+0x4c>
    50aa:	00c6c763          	blt	a3,a2,50b8 <__lesf2+0x78>
    50ae:	fd17efe3          	bltu	a5,a7,508c <__lesf2+0x4c>
    50b2:	4501                	li	a0,0
    50b4:	fcf8f3e3          	bgeu	a7,a5,507a <__lesf2+0x3a>
    50b8:	e319                	bnez	a4,50be <__lesf2+0x7e>
    50ba:	bfd9                	j	5090 <__lesf2+0x50>
    50bc:	d9f1                	beqz	a1,5090 <__lesf2+0x50>
    50be:	4505                	li	a0,1
    50c0:	8082                	ret
    50c2:	d3e5                	beqz	a5,50a2 <__lesf2+0x62>
    50c4:	8082                	ret
    50c6:	8082                	ret
    50c8:	4681                	li	a3,0
    50ca:	b7c5                	j	50aa <__lesf2+0x6a>

000050cc <__mulsf3>:
__mulsf3():
    50cc:	7179                	addi	sp,sp,-48
    50ce:	d422                	sw	s0,40(sp)
    50d0:	01755413          	srli	s0,a0,0x17
    50d4:	ce4e                	sw	s3,28(sp)
    50d6:	cc52                	sw	s4,24(sp)
    50d8:	00951993          	slli	s3,a0,0x9
    50dc:	d606                	sw	ra,44(sp)
    50de:	d226                	sw	s1,36(sp)
    50e0:	d04a                	sw	s2,32(sp)
    50e2:	ca56                	sw	s5,20(sp)
    50e4:	c85a                	sw	s6,16(sp)
    50e6:	0ff47413          	andi	s0,s0,255
    50ea:	0099d993          	srli	s3,s3,0x9
    50ee:	01f55a13          	srli	s4,a0,0x1f
    50f2:	c469                	beqz	s0,51bc <__mulsf3+0xf0>
    50f4:	0ff00793          	li	a5,255
    50f8:	0ef40863          	beq	s0,a5,51e8 <__mulsf3+0x11c>
    50fc:	00399793          	slli	a5,s3,0x3
    5100:	04000737          	lui	a4,0x4000
    5104:	00e7e9b3          	or	s3,a5,a4
    5108:	f8140413          	addi	s0,s0,-127 # 3ffff81 <_data_lma+0x3ff9219>
    510c:	4481                	li	s1,0
    510e:	4b01                	li	s6,0
    5110:	0175d713          	srli	a4,a1,0x17
    5114:	00959a93          	slli	s5,a1,0x9
    5118:	0ff77713          	andi	a4,a4,255
    511c:	009ada93          	srli	s5,s5,0x9
    5120:	01f5d913          	srli	s2,a1,0x1f
    5124:	cf45                	beqz	a4,51dc <__mulsf3+0x110>
    5126:	0ff00793          	li	a5,255
    512a:	02f70c63          	beq	a4,a5,5162 <__mulsf3+0x96>
    512e:	0a8e                	slli	s5,s5,0x3
    5130:	f8170713          	addi	a4,a4,-127 # 3ffff81 <_data_lma+0x3ff9219>
    5134:	040007b7          	lui	a5,0x4000
    5138:	00faeab3          	or	s5,s5,a5
    513c:	943a                	add	s0,s0,a4
    513e:	4601                	li	a2,0
    5140:	012a4533          	xor	a0,s4,s2
    5144:	47bd                	li	a5,15
    5146:	86aa                	mv	a3,a0
    5148:	00140593          	addi	a1,s0,1
    514c:	1097e063          	bltu	a5,s1,524c <__mulsf3+0x180>
    5150:	00002717          	auipc	a4,0x2
    5154:	9fc70713          	addi	a4,a4,-1540 # 6b4c <UARTN+0x10>
    5158:	048a                	slli	s1,s1,0x2
    515a:	94ba                	add	s1,s1,a4
    515c:	409c                	lw	a5,0(s1)
    515e:	97ba                	add	a5,a5,a4
    5160:	8782                	jr	a5
    5162:	0ff40413          	addi	s0,s0,255
    5166:	0c0a9663          	bnez	s5,5232 <__mulsf3+0x166>
    516a:	0024e493          	ori	s1,s1,2
    516e:	4609                	li	a2,2
    5170:	bfc1                	j	5140 <__mulsf3+0x74>
    5172:	4501                	li	a0,0
    5174:	0ff00713          	li	a4,255
    5178:	004007b7          	lui	a5,0x400
    517c:	50b2                	lw	ra,44(sp)
    517e:	5422                	lw	s0,40(sp)
    5180:	07a6                	slli	a5,a5,0x9
    5182:	075e                	slli	a4,a4,0x17
    5184:	83a5                	srli	a5,a5,0x9
    5186:	057e                	slli	a0,a0,0x1f
    5188:	8fd9                	or	a5,a5,a4
    518a:	5492                	lw	s1,36(sp)
    518c:	5902                	lw	s2,32(sp)
    518e:	49f2                	lw	s3,28(sp)
    5190:	4a62                	lw	s4,24(sp)
    5192:	4ad2                	lw	s5,20(sp)
    5194:	4b42                	lw	s6,16(sp)
    5196:	8d5d                	or	a0,a0,a5
    5198:	6145                	addi	sp,sp,48
    519a:	8082                	ret
    519c:	86ca                	mv	a3,s2
    519e:	89d6                	mv	s3,s5
    51a0:	8b32                	mv	s6,a2
    51a2:	4789                	li	a5,2
    51a4:	08fb0f63          	beq	s6,a5,5242 <__mulsf3+0x176>
    51a8:	478d                	li	a5,3
    51aa:	fcfb04e3          	beq	s6,a5,5172 <__mulsf3+0xa6>
    51ae:	4785                	li	a5,1
    51b0:	8536                	mv	a0,a3
    51b2:	1afb1063          	bne	s6,a5,5352 <__mulsf3+0x286>
    51b6:	4701                	li	a4,0
    51b8:	4781                	li	a5,0
    51ba:	b7c9                	j	517c <__mulsf3+0xb0>
    51bc:	04099d63          	bnez	s3,5216 <__mulsf3+0x14a>
    51c0:	0175d713          	srli	a4,a1,0x17
    51c4:	00959a93          	slli	s5,a1,0x9
    51c8:	0ff77713          	andi	a4,a4,255
    51cc:	4491                	li	s1,4
    51ce:	4401                	li	s0,0
    51d0:	4b05                	li	s6,1
    51d2:	009ada93          	srli	s5,s5,0x9
    51d6:	01f5d913          	srli	s2,a1,0x1f
    51da:	f731                	bnez	a4,5126 <__mulsf3+0x5a>
    51dc:	000a9d63          	bnez	s5,51f6 <__mulsf3+0x12a>
    51e0:	0014e493          	ori	s1,s1,1
    51e4:	4605                	li	a2,1
    51e6:	bfa9                	j	5140 <__mulsf3+0x74>
    51e8:	02099263          	bnez	s3,520c <__mulsf3+0x140>
    51ec:	44a1                	li	s1,8
    51ee:	0ff00413          	li	s0,255
    51f2:	4b09                	li	s6,2
    51f4:	bf31                	j	5110 <__mulsf3+0x44>
    51f6:	8556                	mv	a0,s5
    51f8:	2d11                	jal	580c <__clzsi2>
    51fa:	ffb50793          	addi	a5,a0,-5
    51fe:	8c09                	sub	s0,s0,a0
    5200:	00fa9ab3          	sll	s5,s5,a5
    5204:	f8a40413          	addi	s0,s0,-118
    5208:	4601                	li	a2,0
    520a:	bf1d                	j	5140 <__mulsf3+0x74>
    520c:	44b1                	li	s1,12
    520e:	0ff00413          	li	s0,255
    5212:	4b0d                	li	s6,3
    5214:	bdf5                	j	5110 <__mulsf3+0x44>
    5216:	854e                	mv	a0,s3
    5218:	c62e                	sw	a1,12(sp)
    521a:	2bcd                	jal	580c <__clzsi2>
    521c:	ffb50793          	addi	a5,a0,-5
    5220:	f8a00413          	li	s0,-118
    5224:	00f999b3          	sll	s3,s3,a5
    5228:	8c09                	sub	s0,s0,a0
    522a:	4481                	li	s1,0
    522c:	4b01                	li	s6,0
    522e:	45b2                	lw	a1,12(sp)
    5230:	b5c5                	j	5110 <__mulsf3+0x44>
    5232:	0034e493          	ori	s1,s1,3
    5236:	460d                	li	a2,3
    5238:	b721                	j	5140 <__mulsf3+0x74>
    523a:	4789                	li	a5,2
    523c:	86d2                	mv	a3,s4
    523e:	f6fb15e3          	bne	s6,a5,51a8 <__mulsf3+0xdc>
    5242:	8536                	mv	a0,a3
    5244:	0ff00713          	li	a4,255
    5248:	4781                	li	a5,0
    524a:	bf0d                	j	517c <__mulsf3+0xb0>
    524c:	6341                	lui	t1,0x10
    524e:	fff30693          	addi	a3,t1,-1 # ffff <_data_lma+0x9297>
    5252:	0109d613          	srli	a2,s3,0x10
    5256:	010ad893          	srli	a7,s5,0x10
    525a:	00d9f7b3          	and	a5,s3,a3
    525e:	00dafab3          	and	s5,s5,a3
    5262:	03578833          	mul	a6,a5,s5
    5266:	02f889b3          	mul	s3,a7,a5
    526a:	01085713          	srli	a4,a6,0x10
    526e:	03560ab3          	mul	s5,a2,s5
    5272:	99d6                	add	s3,s3,s5
    5274:	974e                	add	a4,a4,s3
    5276:	03160633          	mul	a2,a2,a7
    527a:	01577363          	bgeu	a4,s5,5280 <__mulsf3+0x1b4>
    527e:	961a                	add	a2,a2,t1
    5280:	67c1                	lui	a5,0x10
    5282:	17fd                	addi	a5,a5,-1
    5284:	00f776b3          	and	a3,a4,a5
    5288:	00f87833          	and	a6,a6,a5
    528c:	06c2                	slli	a3,a3,0x10
    528e:	96c2                	add	a3,a3,a6
    5290:	00669993          	slli	s3,a3,0x6
    5294:	01075793          	srli	a5,a4,0x10
    5298:	013039b3          	snez	s3,s3
    529c:	82e9                	srli	a3,a3,0x1a
    529e:	97b2                	add	a5,a5,a2
    52a0:	079a                	slli	a5,a5,0x6
    52a2:	00d9e6b3          	or	a3,s3,a3
    52a6:	00d7e9b3          	or	s3,a5,a3
    52aa:	00499793          	slli	a5,s3,0x4
    52ae:	0007d963          	bgez	a5,52c0 <__mulsf3+0x1f4>
    52b2:	0019d713          	srli	a4,s3,0x1
    52b6:	0019f793          	andi	a5,s3,1
    52ba:	00f769b3          	or	s3,a4,a5
    52be:	842e                	mv	s0,a1
    52c0:	07f40713          	addi	a4,s0,127
    52c4:	04e05063          	blez	a4,5304 <__mulsf3+0x238>
    52c8:	0079f793          	andi	a5,s3,7
    52cc:	c799                	beqz	a5,52da <__mulsf3+0x20e>
    52ce:	00f9f793          	andi	a5,s3,15
    52d2:	4691                	li	a3,4
    52d4:	00d78363          	beq	a5,a3,52da <__mulsf3+0x20e>
    52d8:	0991                	addi	s3,s3,4
    52da:	00499793          	slli	a5,s3,0x4
    52de:	0007d963          	bgez	a5,52f0 <__mulsf3+0x224>
    52e2:	f80007b7          	lui	a5,0xf8000
    52e6:	17fd                	addi	a5,a5,-1
    52e8:	00f9f9b3          	and	s3,s3,a5
    52ec:	08040713          	addi	a4,s0,128
    52f0:	0fe00793          	li	a5,254
    52f4:	04e7cb63          	blt	a5,a4,534a <__mulsf3+0x27e>
    52f8:	00699793          	slli	a5,s3,0x6
    52fc:	83a5                	srli	a5,a5,0x9
    52fe:	0ff77713          	andi	a4,a4,255
    5302:	bdad                	j	517c <__mulsf3+0xb0>
    5304:	4785                	li	a5,1
    5306:	40e786b3          	sub	a3,a5,a4
    530a:	c711                	beqz	a4,5316 <__mulsf3+0x24a>
    530c:	466d                	li	a2,27
    530e:	4701                	li	a4,0
    5310:	4781                	li	a5,0
    5312:	e6d645e3          	blt	a2,a3,517c <__mulsf3+0xb0>
    5316:	09e40713          	addi	a4,s0,158
    531a:	00e99733          	sll	a4,s3,a4
    531e:	00e03733          	snez	a4,a4
    5322:	00d9d7b3          	srl	a5,s3,a3
    5326:	8fd9                	or	a5,a5,a4
    5328:	0077f713          	andi	a4,a5,7
    532c:	c719                	beqz	a4,533a <__mulsf3+0x26e>
    532e:	00f7f713          	andi	a4,a5,15
    5332:	4691                	li	a3,4
    5334:	00d70363          	beq	a4,a3,533a <__mulsf3+0x26e>
    5338:	0791                	addi	a5,a5,4
    533a:	00579713          	slli	a4,a5,0x5
    533e:	00074c63          	bltz	a4,5356 <__mulsf3+0x28a>
    5342:	079a                	slli	a5,a5,0x6
    5344:	83a5                	srli	a5,a5,0x9
    5346:	4701                	li	a4,0
    5348:	bd15                	j	517c <__mulsf3+0xb0>
    534a:	0ff00713          	li	a4,255
    534e:	4781                	li	a5,0
    5350:	b535                	j	517c <__mulsf3+0xb0>
    5352:	842e                	mv	s0,a1
    5354:	b7b5                	j	52c0 <__mulsf3+0x1f4>
    5356:	4705                	li	a4,1
    5358:	4781                	li	a5,0
    535a:	b50d                	j	517c <__mulsf3+0xb0>

0000535c <__subsf3>:
__subsf3():
    535c:	00800737          	lui	a4,0x800
    5360:	1141                	addi	sp,sp,-16
    5362:	177d                	addi	a4,a4,-1
    5364:	01755693          	srli	a3,a0,0x17
    5368:	0175d813          	srli	a6,a1,0x17
    536c:	00a777b3          	and	a5,a4,a0
    5370:	0ff6f693          	andi	a3,a3,255
    5374:	01f55e93          	srli	t4,a0,0x1f
    5378:	00b77633          	and	a2,a4,a1
    537c:	c226                	sw	s1,4(sp)
    537e:	c04a                	sw	s2,0(sp)
    5380:	0ff87813          	andi	a6,a6,255
    5384:	c606                	sw	ra,12(sp)
    5386:	c422                	sw	s0,8(sp)
    5388:	0ff00313          	li	t1,255
    538c:	8e3e                	mv	t3,a5
    538e:	8936                	mv	s2,a3
    5390:	84f6                	mv	s1,t4
    5392:	00379f13          	slli	t5,a5,0x3
    5396:	81fd                	srli	a1,a1,0x1f
    5398:	00361513          	slli	a0,a2,0x3
    539c:	410688b3          	sub	a7,a3,a6
    53a0:	10680263          	beq	a6,t1,54a4 <__subsf3+0x148>
    53a4:	0015c593          	xori	a1,a1,1
    53a8:	10be8c63          	beq	t4,a1,54c0 <__subsf3+0x164>
    53ac:	0d105463          	blez	a7,5474 <__subsf3+0x118>
    53b0:	10081063          	bnez	a6,54b0 <__subsf3+0x154>
    53b4:	1e050463          	beqz	a0,559c <__subsf3+0x240>
    53b8:	18fd                	addi	a7,a7,-1
    53ba:	40af07b3          	sub	a5,t5,a0
    53be:	02088663          	beqz	a7,53ea <__subsf3+0x8e>
    53c2:	0ff00793          	li	a5,255
    53c6:	16f68863          	beq	a3,a5,5536 <__subsf3+0x1da>
    53ca:	47ed                	li	a5,27
    53cc:	2917c763          	blt	a5,a7,565a <__subsf3+0x2fe>
    53d0:	02000713          	li	a4,32
    53d4:	41170733          	sub	a4,a4,a7
    53d8:	00e51733          	sll	a4,a0,a4
    53dc:	011557b3          	srl	a5,a0,a7
    53e0:	00e03733          	snez	a4,a4
    53e4:	8fd9                	or	a5,a5,a4
    53e6:	40ff07b3          	sub	a5,t5,a5
    53ea:	00579713          	slli	a4,a5,0x5
    53ee:	1a075163          	bgez	a4,5590 <__subsf3+0x234>
    53f2:	04000437          	lui	s0,0x4000
    53f6:	147d                	addi	s0,s0,-1
    53f8:	8c7d                	and	s0,s0,a5
    53fa:	8522                	mv	a0,s0
    53fc:	2901                	jal	580c <__clzsi2>
    53fe:	156d                	addi	a0,a0,-5
    5400:	00a417b3          	sll	a5,s0,a0
    5404:	1b254e63          	blt	a0,s2,55c0 <__subsf3+0x264>
    5408:	41250533          	sub	a0,a0,s2
    540c:	00150413          	addi	s0,a0,1
    5410:	02000713          	li	a4,32
    5414:	8f01                	sub	a4,a4,s0
    5416:	00e79733          	sll	a4,a5,a4
    541a:	00e03733          	snez	a4,a4
    541e:	0087d7b3          	srl	a5,a5,s0
    5422:	8fd9                	or	a5,a5,a4
    5424:	4901                	li	s2,0
    5426:	0077f713          	andi	a4,a5,7
    542a:	c719                	beqz	a4,5438 <__subsf3+0xdc>
    542c:	00f7f713          	andi	a4,a5,15
    5430:	4691                	li	a3,4
    5432:	00d70363          	beq	a4,a3,5438 <__subsf3+0xdc>
    5436:	0791                	addi	a5,a5,4
    5438:	00579713          	slli	a4,a5,0x5
    543c:	14075e63          	bgez	a4,5598 <__subsf3+0x23c>
    5440:	00190693          	addi	a3,s2,1
    5444:	0ff00713          	li	a4,255
    5448:	0014fe93          	andi	t4,s1,1
    544c:	16e68663          	beq	a3,a4,55b8 <__subsf3+0x25c>
    5450:	079a                	slli	a5,a5,0x6
    5452:	83a5                	srli	a5,a5,0x9
    5454:	0ff6f693          	andi	a3,a3,255
    5458:	07a6                	slli	a5,a5,0x9
    545a:	40b2                	lw	ra,12(sp)
    545c:	4422                	lw	s0,8(sp)
    545e:	0097d513          	srli	a0,a5,0x9
    5462:	06de                	slli	a3,a3,0x17
    5464:	01fe9793          	slli	a5,t4,0x1f
    5468:	8d55                	or	a0,a0,a3
    546a:	4492                	lw	s1,4(sp)
    546c:	4902                	lw	s2,0(sp)
    546e:	8d5d                	or	a0,a0,a5
    5470:	0141                	addi	sp,sp,16
    5472:	8082                	ret
    5474:	0a089263          	bnez	a7,5518 <__subsf3+0x1bc>
    5478:	00168713          	addi	a4,a3,1 # 7e000001 <_eusrstack+0x5dffb001>
    547c:	0fe77713          	andi	a4,a4,254
    5480:	14071b63          	bnez	a4,55d6 <__subsf3+0x27a>
    5484:	22069463          	bnez	a3,56ac <__subsf3+0x350>
    5488:	200f0263          	beqz	t5,568c <__subsf3+0x330>
    548c:	d571                	beqz	a0,5458 <__subsf3+0xfc>
    548e:	40af07b3          	sub	a5,t5,a0
    5492:	00579713          	slli	a4,a5,0x5
    5496:	22075563          	bgez	a4,56c0 <__subsf3+0x364>
    549a:	41e507b3          	sub	a5,a0,t5
    549e:	4901                	li	s2,0
    54a0:	84ae                	mv	s1,a1
    54a2:	b751                	j	5426 <__subsf3+0xca>
    54a4:	f00500e3          	beqz	a0,53a4 <__subsf3+0x48>
    54a8:	0abe8a63          	beq	t4,a1,555c <__subsf3+0x200>
    54ac:	fd1054e3          	blez	a7,5474 <__subsf3+0x118>
    54b0:	0ff00793          	li	a5,255
    54b4:	08f68163          	beq	a3,a5,5536 <__subsf3+0x1da>
    54b8:	040007b7          	lui	a5,0x4000
    54bc:	8d5d                	or	a0,a0,a5
    54be:	b731                	j	53ca <__subsf3+0x6e>
    54c0:	09105e63          	blez	a7,555c <__subsf3+0x200>
    54c4:	08080163          	beqz	a6,5546 <__subsf3+0x1ea>
    54c8:	0ff00793          	li	a5,255
    54cc:	06f68563          	beq	a3,a5,5536 <__subsf3+0x1da>
    54d0:	040007b7          	lui	a5,0x4000
    54d4:	8d5d                	or	a0,a0,a5
    54d6:	47ed                	li	a5,27
    54d8:	1f17c063          	blt	a5,a7,56b8 <__subsf3+0x35c>
    54dc:	02000713          	li	a4,32
    54e0:	41170733          	sub	a4,a4,a7
    54e4:	00e51733          	sll	a4,a0,a4
    54e8:	011557b3          	srl	a5,a0,a7
    54ec:	00e03733          	snez	a4,a4
    54f0:	8fd9                	or	a5,a5,a4
    54f2:	97fa                	add	a5,a5,t5
    54f4:	00579713          	slli	a4,a5,0x5
    54f8:	08075c63          	bgez	a4,5590 <__subsf3+0x234>
    54fc:	0905                	addi	s2,s2,1
    54fe:	0ff00713          	li	a4,255
    5502:	0ae90b63          	beq	s2,a4,55b8 <__subsf3+0x25c>
    5506:	7e0006b7          	lui	a3,0x7e000
    550a:	0017d713          	srli	a4,a5,0x1
    550e:	16fd                	addi	a3,a3,-1
    5510:	8b85                	andi	a5,a5,1
    5512:	8f75                	and	a4,a4,a3
    5514:	8fd9                	or	a5,a5,a4
    5516:	bf01                	j	5426 <__subsf3+0xca>
    5518:	40d80733          	sub	a4,a6,a3
    551c:	10069563          	bnez	a3,5626 <__subsf3+0x2ca>
    5520:	140f0d63          	beqz	t5,567a <__subsf3+0x31e>
    5524:	177d                	addi	a4,a4,-1
    5526:	1a070363          	beqz	a4,56cc <__subsf3+0x370>
    552a:	0ff00793          	li	a5,255
    552e:	10f81463          	bne	a6,a5,5636 <__subsf3+0x2da>
    5532:	84ae                	mv	s1,a1
    5534:	8e32                	mv	t3,a2
    5536:	060e0f63          	beqz	t3,55b4 <__subsf3+0x258>
    553a:	4e81                	li	t4,0
    553c:	0ff00693          	li	a3,255
    5540:	004007b7          	lui	a5,0x400
    5544:	bf11                	j	5458 <__subsf3+0xfc>
    5546:	c939                	beqz	a0,559c <__subsf3+0x240>
    5548:	18fd                	addi	a7,a7,-1
    554a:	00af07b3          	add	a5,t5,a0
    554e:	fa0883e3          	beqz	a7,54f4 <__subsf3+0x198>
    5552:	0ff00793          	li	a5,255
    5556:	f8f690e3          	bne	a3,a5,54d6 <__subsf3+0x17a>
    555a:	bff1                	j	5536 <__subsf3+0x1da>
    555c:	08089963          	bnez	a7,55ee <__subsf3+0x292>
    5560:	00168913          	addi	s2,a3,1 # 7e000001 <_eusrstack+0x5dffb001>
    5564:	0fe97713          	andi	a4,s2,254
    5568:	12071663          	bnez	a4,5694 <__subsf3+0x338>
    556c:	10069b63          	bnez	a3,5682 <__subsf3+0x326>
    5570:	160f0363          	beqz	t5,56d6 <__subsf3+0x37a>
    5574:	ee0502e3          	beqz	a0,5458 <__subsf3+0xfc>
    5578:	00af07b3          	add	a5,t5,a0
    557c:	00579713          	slli	a4,a5,0x5
    5580:	4901                	li	s2,0
    5582:	00075763          	bgez	a4,5590 <__subsf3+0x234>
    5586:	fc000737          	lui	a4,0xfc000
    558a:	177d                	addi	a4,a4,-1
    558c:	8ff9                	and	a5,a5,a4
    558e:	4905                	li	s2,1
    5590:	0077f713          	andi	a4,a5,7
    5594:	e8071ce3          	bnez	a4,542c <__subsf3+0xd0>
    5598:	0037de13          	srli	t3,a5,0x3
    559c:	0ff00793          	li	a5,255
    55a0:	f8f90be3          	beq	s2,a5,5536 <__subsf3+0x1da>
    55a4:	009e1793          	slli	a5,t3,0x9
    55a8:	83a5                	srli	a5,a5,0x9
    55aa:	0ff97693          	andi	a3,s2,255
    55ae:	0014fe93          	andi	t4,s1,1
    55b2:	b55d                	j	5458 <__subsf3+0xfc>
    55b4:	0014fe93          	andi	t4,s1,1
    55b8:	0ff00693          	li	a3,255
    55bc:	4781                	li	a5,0
    55be:	bd69                	j	5458 <__subsf3+0xfc>
    55c0:	fc000737          	lui	a4,0xfc000
    55c4:	177d                	addi	a4,a4,-1
    55c6:	8ff9                	and	a5,a5,a4
    55c8:	0077f713          	andi	a4,a5,7
    55cc:	40a90933          	sub	s2,s2,a0
    55d0:	e4071ee3          	bnez	a4,542c <__subsf3+0xd0>
    55d4:	b7d1                	j	5598 <__subsf3+0x23c>
    55d6:	40af0433          	sub	s0,t5,a0
    55da:	00541793          	slli	a5,s0,0x5
    55de:	0c07c363          	bltz	a5,56a4 <__subsf3+0x348>
    55e2:	e0041ce3          	bnez	s0,53fa <__subsf3+0x9e>
    55e6:	4e81                	li	t4,0
    55e8:	4681                	li	a3,0
    55ea:	4781                	li	a5,0
    55ec:	b5b5                	j	5458 <__subsf3+0xfc>
    55ee:	40d80733          	sub	a4,a6,a3
    55f2:	c6b5                	beqz	a3,565e <__subsf3+0x302>
    55f4:	0ff00793          	li	a5,255
    55f8:	f2f80ee3          	beq	a6,a5,5534 <__subsf3+0x1d8>
    55fc:	040007b7          	lui	a5,0x4000
    5600:	00ff6f33          	or	t5,t5,a5
    5604:	47ed                	li	a5,27
    5606:	0ce7cd63          	blt	a5,a4,56e0 <__subsf3+0x384>
    560a:	02000793          	li	a5,32
    560e:	8f99                	sub	a5,a5,a4
    5610:	00ff17b3          	sll	a5,t5,a5
    5614:	00ef5733          	srl	a4,t5,a4
    5618:	00f037b3          	snez	a5,a5
    561c:	8f5d                	or	a4,a4,a5
    561e:	00a707b3          	add	a5,a4,a0
    5622:	8942                	mv	s2,a6
    5624:	bdc1                	j	54f4 <__subsf3+0x198>
    5626:	0ff00793          	li	a5,255
    562a:	f0f804e3          	beq	a6,a5,5532 <__subsf3+0x1d6>
    562e:	040007b7          	lui	a5,0x4000
    5632:	00ff6f33          	or	t5,t5,a5
    5636:	47ed                	li	a5,27
    5638:	08e7c263          	blt	a5,a4,56bc <__subsf3+0x360>
    563c:	02000793          	li	a5,32
    5640:	8f99                	sub	a5,a5,a4
    5642:	00ff17b3          	sll	a5,t5,a5
    5646:	00ef5733          	srl	a4,t5,a4
    564a:	00f037b3          	snez	a5,a5
    564e:	8fd9                	or	a5,a5,a4
    5650:	40f507b3          	sub	a5,a0,a5
    5654:	8942                	mv	s2,a6
    5656:	84ae                	mv	s1,a1
    5658:	bb49                	j	53ea <__subsf3+0x8e>
    565a:	4785                	li	a5,1
    565c:	b369                	j	53e6 <__subsf3+0x8a>
    565e:	060f0e63          	beqz	t5,56da <__subsf3+0x37e>
    5662:	177d                	addi	a4,a4,-1
    5664:	00af07b3          	add	a5,t5,a0
    5668:	8942                	mv	s2,a6
    566a:	e80705e3          	beqz	a4,54f4 <__subsf3+0x198>
    566e:	0ff00793          	li	a5,255
    5672:	f8f819e3          	bne	a6,a5,5604 <__subsf3+0x2a8>
    5676:	8e32                	mv	t3,a2
    5678:	bd7d                	j	5536 <__subsf3+0x1da>
    567a:	8e32                	mv	t3,a2
    567c:	8942                	mv	s2,a6
    567e:	84ae                	mv	s1,a1
    5680:	bf31                	j	559c <__subsf3+0x240>
    5682:	ea0f09e3          	beqz	t5,5534 <__subsf3+0x1d8>
    5686:	ea0508e3          	beqz	a0,5536 <__subsf3+0x1da>
    568a:	bd45                	j	553a <__subsf3+0x1de>
    568c:	cd0d                	beqz	a0,56c6 <__subsf3+0x36a>
    568e:	8eae                	mv	t4,a1
    5690:	87b2                	mv	a5,a2
    5692:	b3d9                	j	5458 <__subsf3+0xfc>
    5694:	0ff00793          	li	a5,255
    5698:	f2f900e3          	beq	s2,a5,55b8 <__subsf3+0x25c>
    569c:	00af07b3          	add	a5,t5,a0
    56a0:	8385                	srli	a5,a5,0x1
    56a2:	b5fd                	j	5590 <__subsf3+0x234>
    56a4:	41e50433          	sub	s0,a0,t5
    56a8:	84ae                	mv	s1,a1
    56aa:	bb81                	j	53fa <__subsf3+0x9e>
    56ac:	fc0f1de3          	bnez	t5,5686 <__subsf3+0x32a>
    56b0:	e80505e3          	beqz	a0,553a <__subsf3+0x1de>
    56b4:	84ae                	mv	s1,a1
    56b6:	bdbd                	j	5534 <__subsf3+0x1d8>
    56b8:	4785                	li	a5,1
    56ba:	bd25                	j	54f2 <__subsf3+0x196>
    56bc:	4785                	li	a5,1
    56be:	bf49                	j	5650 <__subsf3+0x2f4>
    56c0:	4901                	li	s2,0
    56c2:	ec0797e3          	bnez	a5,5590 <__subsf3+0x234>
    56c6:	4e81                	li	t4,0
    56c8:	4781                	li	a5,0
    56ca:	b379                	j	5458 <__subsf3+0xfc>
    56cc:	41e507b3          	sub	a5,a0,t5
    56d0:	8942                	mv	s2,a6
    56d2:	84ae                	mv	s1,a1
    56d4:	bb19                	j	53ea <__subsf3+0x8e>
    56d6:	87b2                	mv	a5,a2
    56d8:	b341                	j	5458 <__subsf3+0xfc>
    56da:	8e32                	mv	t3,a2
    56dc:	8942                	mv	s2,a6
    56de:	bd7d                	j	559c <__subsf3+0x240>
    56e0:	4705                	li	a4,1
    56e2:	bf35                	j	561e <__subsf3+0x2c2>

000056e4 <__fixsfsi>:
__fixsfsi():
    56e4:	00800637          	lui	a2,0x800
    56e8:	01755713          	srli	a4,a0,0x17
    56ec:	fff60793          	addi	a5,a2,-1 # 7fffff <_data_lma+0x7f9297>
    56f0:	0ff77713          	andi	a4,a4,255
    56f4:	07e00593          	li	a1,126
    56f8:	00a7f6b3          	and	a3,a5,a0
    56fc:	01f55793          	srli	a5,a0,0x1f
    5700:	00e5fc63          	bgeu	a1,a4,5718 <__fixsfsi+0x34>
    5704:	09d00593          	li	a1,157
    5708:	00e5fa63          	bgeu	a1,a4,571c <__fixsfsi+0x38>
    570c:	80000537          	lui	a0,0x80000
    5710:	fff54513          	not	a0,a0
    5714:	953e                	add	a0,a0,a5
    5716:	8082                	ret
    5718:	4501                	li	a0,0
    571a:	8082                	ret
    571c:	09500593          	li	a1,149
    5720:	8ed1                	or	a3,a3,a2
    5722:	00e5cd63          	blt	a1,a4,573c <__fixsfsi+0x58>
    5726:	09600613          	li	a2,150
    572a:	40e60733          	sub	a4,a2,a4
    572e:	00e6d733          	srl	a4,a3,a4
    5732:	40e00533          	neg	a0,a4
    5736:	f3f5                	bnez	a5,571a <__fixsfsi+0x36>
    5738:	853a                	mv	a0,a4
    573a:	8082                	ret
    573c:	f6a70713          	addi	a4,a4,-150 # fbffff6a <_eusrstack+0xdbffaf6a>
    5740:	00e69733          	sll	a4,a3,a4
    5744:	b7fd                	j	5732 <__fixsfsi+0x4e>

00005746 <__floatsisf>:
__floatsisf():
    5746:	1141                	addi	sp,sp,-16
    5748:	c606                	sw	ra,12(sp)
    574a:	c422                	sw	s0,8(sp)
    574c:	c226                	sw	s1,4(sp)
    574e:	cd0d                	beqz	a0,5788 <__floatsisf+0x42>
    5750:	41f55793          	srai	a5,a0,0x1f
    5754:	00a7c433          	xor	s0,a5,a0
    5758:	8c1d                	sub	s0,s0,a5
    575a:	84aa                	mv	s1,a0
    575c:	8522                	mv	a0,s0
    575e:	207d                	jal	580c <__clzsi2>
    5760:	09e00793          	li	a5,158
    5764:	40a78733          	sub	a4,a5,a0
    5768:	09600793          	li	a5,150
    576c:	80fd                	srli	s1,s1,0x1f
    576e:	02e7cc63          	blt	a5,a4,57a6 <__floatsisf+0x60>
    5772:	46a1                	li	a3,8
    5774:	0ff77793          	andi	a5,a4,255
    5778:	00a6d563          	bge	a3,a0,5782 <__floatsisf+0x3c>
    577c:	1561                	addi	a0,a0,-8
    577e:	00a41433          	sll	s0,s0,a0
    5782:	0426                	slli	s0,s0,0x9
    5784:	8025                	srli	s0,s0,0x9
    5786:	a021                	j	578e <__floatsisf+0x48>
    5788:	4481                	li	s1,0
    578a:	4781                	li	a5,0
    578c:	4401                	li	s0,0
    578e:	0426                	slli	s0,s0,0x9
    5790:	00945513          	srli	a0,s0,0x9
    5794:	40b2                	lw	ra,12(sp)
    5796:	4422                	lw	s0,8(sp)
    5798:	07de                	slli	a5,a5,0x17
    579a:	04fe                	slli	s1,s1,0x1f
    579c:	8d5d                	or	a0,a0,a5
    579e:	8d45                	or	a0,a0,s1
    57a0:	4492                	lw	s1,4(sp)
    57a2:	0141                	addi	sp,sp,16
    57a4:	8082                	ret
    57a6:	09900793          	li	a5,153
    57aa:	00e7dd63          	bge	a5,a4,57c4 <__floatsisf+0x7e>
    57ae:	01b50793          	addi	a5,a0,27 # 8000001b <_eusrstack+0x5fffb01b>
    57b2:	4695                	li	a3,5
    57b4:	00f417b3          	sll	a5,s0,a5
    57b8:	8e89                	sub	a3,a3,a0
    57ba:	00d45433          	srl	s0,s0,a3
    57be:	00f037b3          	snez	a5,a5
    57c2:	8c5d                	or	s0,s0,a5
    57c4:	4795                	li	a5,5
    57c6:	00a7d663          	bge	a5,a0,57d2 <__floatsisf+0x8c>
    57ca:	ffb50793          	addi	a5,a0,-5
    57ce:	00f41433          	sll	s0,s0,a5
    57d2:	fc0006b7          	lui	a3,0xfc000
    57d6:	16fd                	addi	a3,a3,-1
    57d8:	00747793          	andi	a5,s0,7
    57dc:	00d47633          	and	a2,s0,a3
    57e0:	c385                	beqz	a5,5800 <__floatsisf+0xba>
    57e2:	00f47793          	andi	a5,s0,15
    57e6:	4591                	li	a1,4
    57e8:	00b78c63          	beq	a5,a1,5800 <__floatsisf+0xba>
    57ec:	0611                	addi	a2,a2,4
    57ee:	00561793          	slli	a5,a2,0x5
    57f2:	0007d763          	bgez	a5,5800 <__floatsisf+0xba>
    57f6:	09f00793          	li	a5,159
    57fa:	8e75                	and	a2,a2,a3
    57fc:	40a78733          	sub	a4,a5,a0
    5800:	00661413          	slli	s0,a2,0x6
    5804:	8025                	srli	s0,s0,0x9
    5806:	0ff77793          	andi	a5,a4,255
    580a:	b751                	j	578e <__floatsisf+0x48>

0000580c <__clzsi2>:
__clzsi2():
    580c:	67c1                	lui	a5,0x10
    580e:	02f57e63          	bgeu	a0,a5,584a <__clzsi2+0x3e>
    5812:	0ff00793          	li	a5,255
    5816:	02000713          	li	a4,32
    581a:	00a7ec63          	bltu	a5,a0,5832 <__clzsi2+0x26>
    581e:	00001797          	auipc	a5,0x1
    5822:	36e78793          	addi	a5,a5,878 # 6b8c <__clz_tab>
    5826:	97aa                	add	a5,a5,a0
    5828:	0007c503          	lbu	a0,0(a5)
    582c:	40a70533          	sub	a0,a4,a0
    5830:	8082                	ret
    5832:	8121                	srli	a0,a0,0x8
    5834:	00001797          	auipc	a5,0x1
    5838:	35878793          	addi	a5,a5,856 # 6b8c <__clz_tab>
    583c:	97aa                	add	a5,a5,a0
    583e:	0007c503          	lbu	a0,0(a5)
    5842:	4761                	li	a4,24
    5844:	40a70533          	sub	a0,a4,a0
    5848:	8082                	ret
    584a:	010007b7          	lui	a5,0x1000
    584e:	00f56e63          	bltu	a0,a5,586a <__clzsi2+0x5e>
    5852:	8161                	srli	a0,a0,0x18
    5854:	00001797          	auipc	a5,0x1
    5858:	33878793          	addi	a5,a5,824 # 6b8c <__clz_tab>
    585c:	97aa                	add	a5,a5,a0
    585e:	0007c503          	lbu	a0,0(a5)
    5862:	4721                	li	a4,8
    5864:	40a70533          	sub	a0,a4,a0
    5868:	8082                	ret
    586a:	8141                	srli	a0,a0,0x10
    586c:	00001797          	auipc	a5,0x1
    5870:	32078793          	addi	a5,a5,800 # 6b8c <__clz_tab>
    5874:	97aa                	add	a5,a5,a0
    5876:	0007c503          	lbu	a0,0(a5)
    587a:	4741                	li	a4,16
    587c:	40a70533          	sub	a0,a4,a0
    5880:	8082                	ret

00005882 <__assert_func>:
__assert_func():
    5882:	80818793          	addi	a5,gp,-2040 # 20000078 <_impure_ptr>
    5886:	439c                	lw	a5,0(a5)
    5888:	1141                	addi	sp,sp,-16
    588a:	8832                	mv	a6,a2
    588c:	c606                	sw	ra,12(sp)
    588e:	88aa                	mv	a7,a0
    5890:	872e                	mv	a4,a1
    5892:	47c8                	lw	a0,12(a5)
    5894:	8636                	mv	a2,a3
    5896:	00001797          	auipc	a5,0x1
    589a:	3f678793          	addi	a5,a5,1014 # 6c8c <__clz_tab+0x100>
    589e:	00081763          	bnez	a6,58ac <__assert_func+0x2a>
    58a2:	00001797          	auipc	a5,0x1
    58a6:	3f678793          	addi	a5,a5,1014 # 6c98 <__clz_tab+0x10c>
    58aa:	883e                	mv	a6,a5
    58ac:	86c6                	mv	a3,a7
    58ae:	00001597          	auipc	a1,0x1
    58b2:	3ee58593          	addi	a1,a1,1006 # 6c9c <__clz_tab+0x110>
    58b6:	2019                	jal	58bc <fiprintf>
    58b8:	0b3000ef          	jal	ra,616a <abort>

000058bc <fiprintf>:
fprintf():
    58bc:	7139                	addi	sp,sp,-64
    58be:	d432                	sw	a2,40(sp)
    58c0:	d636                	sw	a3,44(sp)
    58c2:	da3e                	sw	a5,52(sp)
    58c4:	d83a                	sw	a4,48(sp)
    58c6:	dc42                	sw	a6,56(sp)
    58c8:	de46                	sw	a7,60(sp)
    58ca:	80818793          	addi	a5,gp,-2040 # 20000078 <_impure_ptr>
    58ce:	862e                	mv	a2,a1
    58d0:	85aa                	mv	a1,a0
    58d2:	4388                	lw	a0,0(a5)
    58d4:	1034                	addi	a3,sp,40
    58d6:	ce06                	sw	ra,28(sp)
    58d8:	c636                	sw	a3,12(sp)
    58da:	2895                	jal	594e <_vfiprintf_r>
    58dc:	40f2                	lw	ra,28(sp)
    58de:	6121                	addi	sp,sp,64
    58e0:	8082                	ret

000058e2 <__sfputc_r>:
__sfputc_r():
    58e2:	461c                	lw	a5,8(a2)
    58e4:	17fd                	addi	a5,a5,-1
    58e6:	c61c                	sw	a5,8(a2)
    58e8:	0007d963          	bgez	a5,58fa <__sfputc_r+0x18>
    58ec:	4e18                	lw	a4,24(a2)
    58ee:	00e7c563          	blt	a5,a4,58f8 <__sfputc_r+0x16>
    58f2:	47a9                	li	a5,10
    58f4:	00f59363          	bne	a1,a5,58fa <__sfputc_r+0x18>
    58f8:	a55d                	j	5f9e <__swbuf_r>
    58fa:	421c                	lw	a5,0(a2)
    58fc:	852e                	mv	a0,a1
    58fe:	00178713          	addi	a4,a5,1
    5902:	c218                	sw	a4,0(a2)
    5904:	00b78023          	sb	a1,0(a5)
    5908:	8082                	ret

0000590a <__sfputs_r>:
__sfputs_r():
    590a:	1101                	addi	sp,sp,-32
    590c:	cc22                	sw	s0,24(sp)
    590e:	ca26                	sw	s1,20(sp)
    5910:	c84a                	sw	s2,16(sp)
    5912:	c64e                	sw	s3,12(sp)
    5914:	c452                	sw	s4,8(sp)
    5916:	ce06                	sw	ra,28(sp)
    5918:	892a                	mv	s2,a0
    591a:	89ae                	mv	s3,a1
    591c:	8432                	mv	s0,a2
    591e:	00d604b3          	add	s1,a2,a3
    5922:	5a7d                	li	s4,-1
    5924:	00941463          	bne	s0,s1,592c <__sfputs_r+0x22>
    5928:	4501                	li	a0,0
    592a:	a811                	j	593e <__sfputs_r+0x34>
    592c:	00044583          	lbu	a1,0(s0) # 4000000 <_data_lma+0x3ff9298>
    5930:	864e                	mv	a2,s3
    5932:	854a                	mv	a0,s2
    5934:	fafff0ef          	jal	ra,58e2 <__sfputc_r>
    5938:	0405                	addi	s0,s0,1
    593a:	ff4515e3          	bne	a0,s4,5924 <__sfputs_r+0x1a>
    593e:	40f2                	lw	ra,28(sp)
    5940:	4462                	lw	s0,24(sp)
    5942:	44d2                	lw	s1,20(sp)
    5944:	4942                	lw	s2,16(sp)
    5946:	49b2                	lw	s3,12(sp)
    5948:	4a22                	lw	s4,8(sp)
    594a:	6105                	addi	sp,sp,32
    594c:	8082                	ret

0000594e <_vfiprintf_r>:
_vfiprintf_r():
    594e:	7135                	addi	sp,sp,-160
    5950:	cd22                	sw	s0,152(sp)
    5952:	cb26                	sw	s1,148(sp)
    5954:	c94a                	sw	s2,144(sp)
    5956:	c74e                	sw	s3,140(sp)
    5958:	cf06                	sw	ra,156(sp)
    595a:	c552                	sw	s4,136(sp)
    595c:	c356                	sw	s5,132(sp)
    595e:	c15a                	sw	s6,128(sp)
    5960:	dede                	sw	s7,124(sp)
    5962:	dce2                	sw	s8,120(sp)
    5964:	dae6                	sw	s9,116(sp)
    5966:	89aa                	mv	s3,a0
    5968:	84ae                	mv	s1,a1
    596a:	8932                	mv	s2,a2
    596c:	8436                	mv	s0,a3
    596e:	c509                	beqz	a0,5978 <_vfiprintf_r+0x2a>
    5970:	4d1c                	lw	a5,24(a0)
    5972:	e399                	bnez	a5,5978 <_vfiprintf_r+0x2a>
    5974:	261000ef          	jal	ra,63d4 <__sinit>
    5978:	00001797          	auipc	a5,0x1
    597c:	3b078793          	addi	a5,a5,944 # 6d28 <__sf_fake_stdin>
    5980:	0cf49d63          	bne	s1,a5,5a5a <_vfiprintf_r+0x10c>
    5984:	0049a483          	lw	s1,4(s3)
    5988:	00c4d783          	lhu	a5,12(s1)
    598c:	8ba1                	andi	a5,a5,8
    598e:	cbe5                	beqz	a5,5a7e <_vfiprintf_r+0x130>
    5990:	489c                	lw	a5,16(s1)
    5992:	c7f5                	beqz	a5,5a7e <_vfiprintf_r+0x130>
    5994:	02000793          	li	a5,32
    5998:	02f104a3          	sb	a5,41(sp)
    599c:	03000793          	li	a5,48
    59a0:	d202                	sw	zero,36(sp)
    59a2:	02f10523          	sb	a5,42(sp)
    59a6:	c622                	sw	s0,12(sp)
    59a8:	02500b93          	li	s7,37
    59ac:	00001a97          	auipc	s5,0x1
    59b0:	320a8a93          	addi	s5,s5,800 # 6ccc <__clz_tab+0x140>
    59b4:	4c05                	li	s8,1
    59b6:	4b29                	li	s6,10
    59b8:	844a                	mv	s0,s2
    59ba:	00044783          	lbu	a5,0(s0)
    59be:	c399                	beqz	a5,59c4 <_vfiprintf_r+0x76>
    59c0:	0f779163          	bne	a5,s7,5aa2 <_vfiprintf_r+0x154>
    59c4:	41240cb3          	sub	s9,s0,s2
    59c8:	000c8e63          	beqz	s9,59e4 <_vfiprintf_r+0x96>
    59cc:	86e6                	mv	a3,s9
    59ce:	864a                	mv	a2,s2
    59d0:	85a6                	mv	a1,s1
    59d2:	854e                	mv	a0,s3
    59d4:	f37ff0ef          	jal	ra,590a <__sfputs_r>
    59d8:	57fd                	li	a5,-1
    59da:	1ef50863          	beq	a0,a5,5bca <_vfiprintf_r+0x27c>
    59de:	5692                	lw	a3,36(sp)
    59e0:	96e6                	add	a3,a3,s9
    59e2:	d236                	sw	a3,36(sp)
    59e4:	00044783          	lbu	a5,0(s0)
    59e8:	1e078163          	beqz	a5,5bca <_vfiprintf_r+0x27c>
    59ec:	57fd                	li	a5,-1
    59ee:	00140913          	addi	s2,s0,1
    59f2:	c802                	sw	zero,16(sp)
    59f4:	ce02                	sw	zero,28(sp)
    59f6:	ca3e                	sw	a5,20(sp)
    59f8:	cc02                	sw	zero,24(sp)
    59fa:	040109a3          	sb	zero,83(sp)
    59fe:	d482                	sw	zero,104(sp)
    5a00:	00094583          	lbu	a1,0(s2)
    5a04:	4615                	li	a2,5
    5a06:	8556                	mv	a0,s5
    5a08:	43b000ef          	jal	ra,6642 <memchr>
    5a0c:	00190413          	addi	s0,s2,1
    5a10:	47c2                	lw	a5,16(sp)
    5a12:	e951                	bnez	a0,5aa6 <_vfiprintf_r+0x158>
    5a14:	0107f713          	andi	a4,a5,16
    5a18:	c709                	beqz	a4,5a22 <_vfiprintf_r+0xd4>
    5a1a:	02000713          	li	a4,32
    5a1e:	04e109a3          	sb	a4,83(sp)
    5a22:	0087f713          	andi	a4,a5,8
    5a26:	c709                	beqz	a4,5a30 <_vfiprintf_r+0xe2>
    5a28:	02b00713          	li	a4,43
    5a2c:	04e109a3          	sb	a4,83(sp)
    5a30:	00094683          	lbu	a3,0(s2)
    5a34:	02a00713          	li	a4,42
    5a38:	06e68f63          	beq	a3,a4,5ab6 <_vfiprintf_r+0x168>
    5a3c:	47f2                	lw	a5,28(sp)
    5a3e:	844a                	mv	s0,s2
    5a40:	4681                	li	a3,0
    5a42:	4625                	li	a2,9
    5a44:	00044703          	lbu	a4,0(s0)
    5a48:	00140593          	addi	a1,s0,1
    5a4c:	fd070713          	addi	a4,a4,-48
    5a50:	0ae67863          	bgeu	a2,a4,5b00 <_vfiprintf_r+0x1b2>
    5a54:	caad                	beqz	a3,5ac6 <_vfiprintf_r+0x178>
    5a56:	ce3e                	sw	a5,28(sp)
    5a58:	a0bd                	j	5ac6 <_vfiprintf_r+0x178>
    5a5a:	00001797          	auipc	a5,0x1
    5a5e:	2ee78793          	addi	a5,a5,750 # 6d48 <__sf_fake_stdout>
    5a62:	00f49563          	bne	s1,a5,5a6c <_vfiprintf_r+0x11e>
    5a66:	0089a483          	lw	s1,8(s3)
    5a6a:	bf39                	j	5988 <_vfiprintf_r+0x3a>
    5a6c:	00001797          	auipc	a5,0x1
    5a70:	29c78793          	addi	a5,a5,668 # 6d08 <__sf_fake_stderr>
    5a74:	f0f49ae3          	bne	s1,a5,5988 <_vfiprintf_r+0x3a>
    5a78:	00c9a483          	lw	s1,12(s3)
    5a7c:	b731                	j	5988 <_vfiprintf_r+0x3a>
    5a7e:	85a6                	mv	a1,s1
    5a80:	854e                	mv	a0,s3
    5a82:	2bf1                	jal	605e <__swsetup_r>
    5a84:	d901                	beqz	a0,5994 <_vfiprintf_r+0x46>
    5a86:	557d                	li	a0,-1
    5a88:	40fa                	lw	ra,156(sp)
    5a8a:	446a                	lw	s0,152(sp)
    5a8c:	44da                	lw	s1,148(sp)
    5a8e:	494a                	lw	s2,144(sp)
    5a90:	49ba                	lw	s3,140(sp)
    5a92:	4a2a                	lw	s4,136(sp)
    5a94:	4a9a                	lw	s5,132(sp)
    5a96:	4b0a                	lw	s6,128(sp)
    5a98:	5bf6                	lw	s7,124(sp)
    5a9a:	5c66                	lw	s8,120(sp)
    5a9c:	5cd6                	lw	s9,116(sp)
    5a9e:	610d                	addi	sp,sp,160
    5aa0:	8082                	ret
    5aa2:	0405                	addi	s0,s0,1
    5aa4:	bf19                	j	59ba <_vfiprintf_r+0x6c>
    5aa6:	41550533          	sub	a0,a0,s5
    5aaa:	00ac1533          	sll	a0,s8,a0
    5aae:	8fc9                	or	a5,a5,a0
    5ab0:	c83e                	sw	a5,16(sp)
    5ab2:	8922                	mv	s2,s0
    5ab4:	b7b1                	j	5a00 <_vfiprintf_r+0xb2>
    5ab6:	4732                	lw	a4,12(sp)
    5ab8:	00470693          	addi	a3,a4,4
    5abc:	4318                	lw	a4,0(a4)
    5abe:	c636                	sw	a3,12(sp)
    5ac0:	02074963          	bltz	a4,5af2 <_vfiprintf_r+0x1a4>
    5ac4:	ce3a                	sw	a4,28(sp)
    5ac6:	00044703          	lbu	a4,0(s0)
    5aca:	02e00793          	li	a5,46
    5ace:	04f71f63          	bne	a4,a5,5b2c <_vfiprintf_r+0x1de>
    5ad2:	00144703          	lbu	a4,1(s0)
    5ad6:	02a00793          	li	a5,42
    5ada:	02f71b63          	bne	a4,a5,5b10 <_vfiprintf_r+0x1c2>
    5ade:	47b2                	lw	a5,12(sp)
    5ae0:	0409                	addi	s0,s0,2
    5ae2:	00478713          	addi	a4,a5,4
    5ae6:	439c                	lw	a5,0(a5)
    5ae8:	c63a                	sw	a4,12(sp)
    5aea:	0207c163          	bltz	a5,5b0c <_vfiprintf_r+0x1be>
    5aee:	ca3e                	sw	a5,20(sp)
    5af0:	a835                	j	5b2c <_vfiprintf_r+0x1de>
    5af2:	40e00733          	neg	a4,a4
    5af6:	0027e793          	ori	a5,a5,2
    5afa:	ce3a                	sw	a4,28(sp)
    5afc:	c83e                	sw	a5,16(sp)
    5afe:	b7e1                	j	5ac6 <_vfiprintf_r+0x178>
    5b00:	036787b3          	mul	a5,a5,s6
    5b04:	4685                	li	a3,1
    5b06:	842e                	mv	s0,a1
    5b08:	97ba                	add	a5,a5,a4
    5b0a:	bf2d                	j	5a44 <_vfiprintf_r+0xf6>
    5b0c:	57fd                	li	a5,-1
    5b0e:	b7c5                	j	5aee <_vfiprintf_r+0x1a0>
    5b10:	0405                	addi	s0,s0,1
    5b12:	ca02                	sw	zero,20(sp)
    5b14:	4681                	li	a3,0
    5b16:	4781                	li	a5,0
    5b18:	4625                	li	a2,9
    5b1a:	00044703          	lbu	a4,0(s0)
    5b1e:	00140593          	addi	a1,s0,1
    5b22:	fd070713          	addi	a4,a4,-48
    5b26:	06e67863          	bgeu	a2,a4,5b96 <_vfiprintf_r+0x248>
    5b2a:	f2f1                	bnez	a3,5aee <_vfiprintf_r+0x1a0>
    5b2c:	00044583          	lbu	a1,0(s0)
    5b30:	460d                	li	a2,3
    5b32:	00001517          	auipc	a0,0x1
    5b36:	1a250513          	addi	a0,a0,418 # 6cd4 <__clz_tab+0x148>
    5b3a:	309000ef          	jal	ra,6642 <memchr>
    5b3e:	cd11                	beqz	a0,5b5a <_vfiprintf_r+0x20c>
    5b40:	00001797          	auipc	a5,0x1
    5b44:	19478793          	addi	a5,a5,404 # 6cd4 <__clz_tab+0x148>
    5b48:	8d1d                	sub	a0,a0,a5
    5b4a:	04000793          	li	a5,64
    5b4e:	00a797b3          	sll	a5,a5,a0
    5b52:	4542                	lw	a0,16(sp)
    5b54:	0405                	addi	s0,s0,1
    5b56:	8d5d                	or	a0,a0,a5
    5b58:	c82a                	sw	a0,16(sp)
    5b5a:	00044583          	lbu	a1,0(s0)
    5b5e:	4619                	li	a2,6
    5b60:	00001517          	auipc	a0,0x1
    5b64:	17850513          	addi	a0,a0,376 # 6cd8 <__clz_tab+0x14c>
    5b68:	00140913          	addi	s2,s0,1
    5b6c:	02b10423          	sb	a1,40(sp)
    5b70:	2d3000ef          	jal	ra,6642 <memchr>
    5b74:	c13d                	beqz	a0,5bda <_vfiprintf_r+0x28c>
    5b76:	ffffa797          	auipc	a5,0xffffa
    5b7a:	48a78793          	addi	a5,a5,1162 # 0 <_sinit>
    5b7e:	e795                	bnez	a5,5baa <_vfiprintf_r+0x25c>
    5b80:	4742                	lw	a4,16(sp)
    5b82:	47b2                	lw	a5,12(sp)
    5b84:	10077713          	andi	a4,a4,256
    5b88:	cf09                	beqz	a4,5ba2 <_vfiprintf_r+0x254>
    5b8a:	0791                	addi	a5,a5,4
    5b8c:	c63e                	sw	a5,12(sp)
    5b8e:	5792                	lw	a5,36(sp)
    5b90:	97d2                	add	a5,a5,s4
    5b92:	d23e                	sw	a5,36(sp)
    5b94:	b515                	j	59b8 <_vfiprintf_r+0x6a>
    5b96:	036787b3          	mul	a5,a5,s6
    5b9a:	4685                	li	a3,1
    5b9c:	842e                	mv	s0,a1
    5b9e:	97ba                	add	a5,a5,a4
    5ba0:	bfad                	j	5b1a <_vfiprintf_r+0x1cc>
    5ba2:	079d                	addi	a5,a5,7
    5ba4:	9be1                	andi	a5,a5,-8
    5ba6:	07a1                	addi	a5,a5,8
    5ba8:	b7d5                	j	5b8c <_vfiprintf_r+0x23e>
    5baa:	0078                	addi	a4,sp,12
    5bac:	00000697          	auipc	a3,0x0
    5bb0:	d5e68693          	addi	a3,a3,-674 # 590a <__sfputs_r>
    5bb4:	8626                	mv	a2,s1
    5bb6:	080c                	addi	a1,sp,16
    5bb8:	854e                	mv	a0,s3
    5bba:	00000097          	auipc	ra,0x0
    5bbe:	000000e7          	jalr	zero # 0 <_sinit>
    5bc2:	57fd                	li	a5,-1
    5bc4:	8a2a                	mv	s4,a0
    5bc6:	fcf514e3          	bne	a0,a5,5b8e <_vfiprintf_r+0x240>
    5bca:	00c4d783          	lhu	a5,12(s1)
    5bce:	0407f793          	andi	a5,a5,64
    5bd2:	ea079ae3          	bnez	a5,5a86 <_vfiprintf_r+0x138>
    5bd6:	5512                	lw	a0,36(sp)
    5bd8:	bd45                	j	5a88 <_vfiprintf_r+0x13a>
    5bda:	0078                	addi	a4,sp,12
    5bdc:	00000697          	auipc	a3,0x0
    5be0:	d2e68693          	addi	a3,a3,-722 # 590a <__sfputs_r>
    5be4:	8626                	mv	a2,s1
    5be6:	080c                	addi	a1,sp,16
    5be8:	854e                	mv	a0,s3
    5bea:	2a01                	jal	5cfa <_printf_i>
    5bec:	bfd9                	j	5bc2 <_vfiprintf_r+0x274>

00005bee <_printf_common>:
_printf_common():
    5bee:	7179                	addi	sp,sp,-48
    5bf0:	ca56                	sw	s5,20(sp)
    5bf2:	499c                	lw	a5,16(a1)
    5bf4:	8aba                	mv	s5,a4
    5bf6:	4598                	lw	a4,8(a1)
    5bf8:	d422                	sw	s0,40(sp)
    5bfa:	d226                	sw	s1,36(sp)
    5bfc:	ce4e                	sw	s3,28(sp)
    5bfe:	cc52                	sw	s4,24(sp)
    5c00:	d606                	sw	ra,44(sp)
    5c02:	d04a                	sw	s2,32(sp)
    5c04:	c85a                	sw	s6,16(sp)
    5c06:	c65e                	sw	s7,12(sp)
    5c08:	89aa                	mv	s3,a0
    5c0a:	842e                	mv	s0,a1
    5c0c:	84b2                	mv	s1,a2
    5c0e:	8a36                	mv	s4,a3
    5c10:	00e7d363          	bge	a5,a4,5c16 <_printf_common+0x28>
    5c14:	87ba                	mv	a5,a4
    5c16:	c09c                	sw	a5,0(s1)
    5c18:	04344703          	lbu	a4,67(s0)
    5c1c:	c319                	beqz	a4,5c22 <_printf_common+0x34>
    5c1e:	0785                	addi	a5,a5,1
    5c20:	c09c                	sw	a5,0(s1)
    5c22:	401c                	lw	a5,0(s0)
    5c24:	0207f793          	andi	a5,a5,32
    5c28:	c781                	beqz	a5,5c30 <_printf_common+0x42>
    5c2a:	409c                	lw	a5,0(s1)
    5c2c:	0789                	addi	a5,a5,2
    5c2e:	c09c                	sw	a5,0(s1)
    5c30:	00042903          	lw	s2,0(s0)
    5c34:	00697913          	andi	s2,s2,6
    5c38:	00091a63          	bnez	s2,5c4c <_printf_common+0x5e>
    5c3c:	01940b13          	addi	s6,s0,25
    5c40:	5bfd                	li	s7,-1
    5c42:	445c                	lw	a5,12(s0)
    5c44:	4098                	lw	a4,0(s1)
    5c46:	8f99                	sub	a5,a5,a4
    5c48:	04f94c63          	blt	s2,a5,5ca0 <_printf_common+0xb2>
    5c4c:	401c                	lw	a5,0(s0)
    5c4e:	04344683          	lbu	a3,67(s0)
    5c52:	0207f793          	andi	a5,a5,32
    5c56:	00d036b3          	snez	a3,a3
    5c5a:	eba5                	bnez	a5,5cca <_printf_common+0xdc>
    5c5c:	04340613          	addi	a2,s0,67
    5c60:	85d2                	mv	a1,s4
    5c62:	854e                	mv	a0,s3
    5c64:	9a82                	jalr	s5
    5c66:	57fd                	li	a5,-1
    5c68:	04f50363          	beq	a0,a5,5cae <_printf_common+0xc0>
    5c6c:	401c                	lw	a5,0(s0)
    5c6e:	4611                	li	a2,4
    5c70:	4098                	lw	a4,0(s1)
    5c72:	8b99                	andi	a5,a5,6
    5c74:	4454                	lw	a3,12(s0)
    5c76:	4481                	li	s1,0
    5c78:	00c79763          	bne	a5,a2,5c86 <_printf_common+0x98>
    5c7c:	40e684b3          	sub	s1,a3,a4
    5c80:	0004d363          	bgez	s1,5c86 <_printf_common+0x98>
    5c84:	4481                	li	s1,0
    5c86:	441c                	lw	a5,8(s0)
    5c88:	4818                	lw	a4,16(s0)
    5c8a:	00f75463          	bge	a4,a5,5c92 <_printf_common+0xa4>
    5c8e:	8f99                	sub	a5,a5,a4
    5c90:	94be                	add	s1,s1,a5
    5c92:	4901                	li	s2,0
    5c94:	0469                	addi	s0,s0,26
    5c96:	5b7d                	li	s6,-1
    5c98:	05249863          	bne	s1,s2,5ce8 <_printf_common+0xfa>
    5c9c:	4501                	li	a0,0
    5c9e:	a809                	j	5cb0 <_printf_common+0xc2>
    5ca0:	4685                	li	a3,1
    5ca2:	865a                	mv	a2,s6
    5ca4:	85d2                	mv	a1,s4
    5ca6:	854e                	mv	a0,s3
    5ca8:	9a82                	jalr	s5
    5caa:	01751e63          	bne	a0,s7,5cc6 <_printf_common+0xd8>
    5cae:	557d                	li	a0,-1
    5cb0:	50b2                	lw	ra,44(sp)
    5cb2:	5422                	lw	s0,40(sp)
    5cb4:	5492                	lw	s1,36(sp)
    5cb6:	5902                	lw	s2,32(sp)
    5cb8:	49f2                	lw	s3,28(sp)
    5cba:	4a62                	lw	s4,24(sp)
    5cbc:	4ad2                	lw	s5,20(sp)
    5cbe:	4b42                	lw	s6,16(sp)
    5cc0:	4bb2                	lw	s7,12(sp)
    5cc2:	6145                	addi	sp,sp,48
    5cc4:	8082                	ret
    5cc6:	0905                	addi	s2,s2,1
    5cc8:	bfad                	j	5c42 <_printf_common+0x54>
    5cca:	00d40733          	add	a4,s0,a3
    5cce:	03000613          	li	a2,48
    5cd2:	04c701a3          	sb	a2,67(a4)
    5cd6:	04544703          	lbu	a4,69(s0)
    5cda:	00168793          	addi	a5,a3,1
    5cde:	97a2                	add	a5,a5,s0
    5ce0:	0689                	addi	a3,a3,2
    5ce2:	04e781a3          	sb	a4,67(a5)
    5ce6:	bf9d                	j	5c5c <_printf_common+0x6e>
    5ce8:	4685                	li	a3,1
    5cea:	8622                	mv	a2,s0
    5cec:	85d2                	mv	a1,s4
    5cee:	854e                	mv	a0,s3
    5cf0:	9a82                	jalr	s5
    5cf2:	fb650ee3          	beq	a0,s6,5cae <_printf_common+0xc0>
    5cf6:	0905                	addi	s2,s2,1
    5cf8:	b745                	j	5c98 <_printf_common+0xaa>

00005cfa <_printf_i>:
_printf_i():
    5cfa:	7179                	addi	sp,sp,-48
    5cfc:	d422                	sw	s0,40(sp)
    5cfe:	d226                	sw	s1,36(sp)
    5d00:	d04a                	sw	s2,32(sp)
    5d02:	ce4e                	sw	s3,28(sp)
    5d04:	d606                	sw	ra,44(sp)
    5d06:	cc52                	sw	s4,24(sp)
    5d08:	ca56                	sw	s5,20(sp)
    5d0a:	c85a                	sw	s6,16(sp)
    5d0c:	89b6                	mv	s3,a3
    5d0e:	0185c683          	lbu	a3,24(a1)
    5d12:	06e00793          	li	a5,110
    5d16:	8932                	mv	s2,a2
    5d18:	84aa                	mv	s1,a0
    5d1a:	842e                	mv	s0,a1
    5d1c:	04358613          	addi	a2,a1,67
    5d20:	1ef68163          	beq	a3,a5,5f02 <_printf_i+0x208>
    5d24:	06d7e263          	bltu	a5,a3,5d88 <_printf_i+0x8e>
    5d28:	06300793          	li	a5,99
    5d2c:	0af68263          	beq	a3,a5,5dd0 <_printf_i+0xd6>
    5d30:	00d7ed63          	bltu	a5,a3,5d4a <_printf_i+0x50>
    5d34:	1e068b63          	beqz	a3,5f2a <_printf_i+0x230>
    5d38:	05800793          	li	a5,88
    5d3c:	16f68763          	beq	a3,a5,5eaa <_printf_i+0x1b0>
    5d40:	04240a93          	addi	s5,s0,66
    5d44:	04d40123          	sb	a3,66(s0)
    5d48:	a869                	j	5de2 <_printf_i+0xe8>
    5d4a:	06400793          	li	a5,100
    5d4e:	00f68663          	beq	a3,a5,5d5a <_printf_i+0x60>
    5d52:	06900793          	li	a5,105
    5d56:	fef695e3          	bne	a3,a5,5d40 <_printf_i+0x46>
    5d5a:	401c                	lw	a5,0(s0)
    5d5c:	4308                	lw	a0,0(a4)
    5d5e:	0807f693          	andi	a3,a5,128
    5d62:	00450593          	addi	a1,a0,4
    5d66:	c2c1                	beqz	a3,5de6 <_printf_i+0xec>
    5d68:	411c                	lw	a5,0(a0)
    5d6a:	c30c                	sw	a1,0(a4)
    5d6c:	0007d863          	bgez	a5,5d7c <_printf_i+0x82>
    5d70:	02d00713          	li	a4,45
    5d74:	40f007b3          	neg	a5,a5
    5d78:	04e401a3          	sb	a4,67(s0)
    5d7c:	00001697          	auipc	a3,0x1
    5d80:	f6468693          	addi	a3,a3,-156 # 6ce0 <__clz_tab+0x154>
    5d84:	4729                	li	a4,10
    5d86:	a065                	j	5e2e <_printf_i+0x134>
    5d88:	07300793          	li	a5,115
    5d8c:	1af68363          	beq	a3,a5,5f32 <_printf_i+0x238>
    5d90:	00d7ef63          	bltu	a5,a3,5dae <_printf_i+0xb4>
    5d94:	06f00793          	li	a5,111
    5d98:	04f68f63          	beq	a3,a5,5df6 <_printf_i+0xfc>
    5d9c:	07000793          	li	a5,112
    5da0:	faf690e3          	bne	a3,a5,5d40 <_printf_i+0x46>
    5da4:	419c                	lw	a5,0(a1)
    5da6:	0207e793          	ori	a5,a5,32
    5daa:	c19c                	sw	a5,0(a1)
    5dac:	a809                	j	5dbe <_printf_i+0xc4>
    5dae:	07500793          	li	a5,117
    5db2:	04f68263          	beq	a3,a5,5df6 <_printf_i+0xfc>
    5db6:	07800793          	li	a5,120
    5dba:	f8f693e3          	bne	a3,a5,5d40 <_printf_i+0x46>
    5dbe:	07800793          	li	a5,120
    5dc2:	04f402a3          	sb	a5,69(s0)
    5dc6:	00001697          	auipc	a3,0x1
    5dca:	f2e68693          	addi	a3,a3,-210 # 6cf4 <__clz_tab+0x168>
    5dce:	a0e5                	j	5eb6 <_printf_i+0x1bc>
    5dd0:	431c                	lw	a5,0(a4)
    5dd2:	04258a93          	addi	s5,a1,66
    5dd6:	00478693          	addi	a3,a5,4
    5dda:	439c                	lw	a5,0(a5)
    5ddc:	c314                	sw	a3,0(a4)
    5dde:	04f58123          	sb	a5,66(a1)
    5de2:	4785                	li	a5,1
    5de4:	a2b5                	j	5f50 <_printf_i+0x256>
    5de6:	0407f693          	andi	a3,a5,64
    5dea:	411c                	lw	a5,0(a0)
    5dec:	c30c                	sw	a1,0(a4)
    5dee:	debd                	beqz	a3,5d6c <_printf_i+0x72>
    5df0:	07c2                	slli	a5,a5,0x10
    5df2:	87c1                	srai	a5,a5,0x10
    5df4:	bfa5                	j	5d6c <_printf_i+0x72>
    5df6:	400c                	lw	a1,0(s0)
    5df8:	431c                	lw	a5,0(a4)
    5dfa:	0805f813          	andi	a6,a1,128
    5dfe:	00478513          	addi	a0,a5,4
    5e02:	00080563          	beqz	a6,5e0c <_printf_i+0x112>
    5e06:	c308                	sw	a0,0(a4)
    5e08:	439c                	lw	a5,0(a5)
    5e0a:	a039                	j	5e18 <_printf_i+0x11e>
    5e0c:	0405f593          	andi	a1,a1,64
    5e10:	c308                	sw	a0,0(a4)
    5e12:	d9fd                	beqz	a1,5e08 <_printf_i+0x10e>
    5e14:	0007d783          	lhu	a5,0(a5)
    5e18:	06f00713          	li	a4,111
    5e1c:	0ce68b63          	beq	a3,a4,5ef2 <_printf_i+0x1f8>
    5e20:	00001697          	auipc	a3,0x1
    5e24:	ec068693          	addi	a3,a3,-320 # 6ce0 <__clz_tab+0x154>
    5e28:	4729                	li	a4,10
    5e2a:	040401a3          	sb	zero,67(s0)
    5e2e:	404c                	lw	a1,4(s0)
    5e30:	c40c                	sw	a1,8(s0)
    5e32:	0005c563          	bltz	a1,5e3c <_printf_i+0x142>
    5e36:	4008                	lw	a0,0(s0)
    5e38:	996d                	andi	a0,a0,-5
    5e3a:	c008                	sw	a0,0(s0)
    5e3c:	e399                	bnez	a5,5e42 <_printf_i+0x148>
    5e3e:	8ab2                	mv	s5,a2
    5e40:	cd91                	beqz	a1,5e5c <_printf_i+0x162>
    5e42:	8ab2                	mv	s5,a2
    5e44:	02e7f5b3          	remu	a1,a5,a4
    5e48:	1afd                	addi	s5,s5,-1
    5e4a:	95b6                	add	a1,a1,a3
    5e4c:	0005c583          	lbu	a1,0(a1)
    5e50:	00ba8023          	sb	a1,0(s5)
    5e54:	02e7d5b3          	divu	a1,a5,a4
    5e58:	0ae7f363          	bgeu	a5,a4,5efe <_printf_i+0x204>
    5e5c:	47a1                	li	a5,8
    5e5e:	00f71e63          	bne	a4,a5,5e7a <_printf_i+0x180>
    5e62:	401c                	lw	a5,0(s0)
    5e64:	8b85                	andi	a5,a5,1
    5e66:	cb91                	beqz	a5,5e7a <_printf_i+0x180>
    5e68:	4058                	lw	a4,4(s0)
    5e6a:	481c                	lw	a5,16(s0)
    5e6c:	00e7c763          	blt	a5,a4,5e7a <_printf_i+0x180>
    5e70:	03000793          	li	a5,48
    5e74:	fefa8fa3          	sb	a5,-1(s5)
    5e78:	1afd                	addi	s5,s5,-1
    5e7a:	41560633          	sub	a2,a2,s5
    5e7e:	c810                	sw	a2,16(s0)
    5e80:	874e                	mv	a4,s3
    5e82:	86ca                	mv	a3,s2
    5e84:	0070                	addi	a2,sp,12
    5e86:	85a2                	mv	a1,s0
    5e88:	8526                	mv	a0,s1
    5e8a:	d65ff0ef          	jal	ra,5bee <_printf_common>
    5e8e:	5a7d                	li	s4,-1
    5e90:	0d451463          	bne	a0,s4,5f58 <_printf_i+0x25e>
    5e94:	557d                	li	a0,-1
    5e96:	50b2                	lw	ra,44(sp)
    5e98:	5422                	lw	s0,40(sp)
    5e9a:	5492                	lw	s1,36(sp)
    5e9c:	5902                	lw	s2,32(sp)
    5e9e:	49f2                	lw	s3,28(sp)
    5ea0:	4a62                	lw	s4,24(sp)
    5ea2:	4ad2                	lw	s5,20(sp)
    5ea4:	4b42                	lw	s6,16(sp)
    5ea6:	6145                	addi	sp,sp,48
    5ea8:	8082                	ret
    5eaa:	04d582a3          	sb	a3,69(a1)
    5eae:	00001697          	auipc	a3,0x1
    5eb2:	e3268693          	addi	a3,a3,-462 # 6ce0 <__clz_tab+0x154>
    5eb6:	400c                	lw	a1,0(s0)
    5eb8:	4308                	lw	a0,0(a4)
    5eba:	0805f813          	andi	a6,a1,128
    5ebe:	411c                	lw	a5,0(a0)
    5ec0:	0511                	addi	a0,a0,4
    5ec2:	02080063          	beqz	a6,5ee2 <_printf_i+0x1e8>
    5ec6:	c308                	sw	a0,0(a4)
    5ec8:	0015f713          	andi	a4,a1,1
    5ecc:	c701                	beqz	a4,5ed4 <_printf_i+0x1da>
    5ece:	0205e593          	ori	a1,a1,32
    5ed2:	c00c                	sw	a1,0(s0)
    5ed4:	4741                	li	a4,16
    5ed6:	fbb1                	bnez	a5,5e2a <_printf_i+0x130>
    5ed8:	400c                	lw	a1,0(s0)
    5eda:	fdf5f593          	andi	a1,a1,-33
    5ede:	c00c                	sw	a1,0(s0)
    5ee0:	b7a9                	j	5e2a <_printf_i+0x130>
    5ee2:	0405f813          	andi	a6,a1,64
    5ee6:	c308                	sw	a0,0(a4)
    5ee8:	fe0800e3          	beqz	a6,5ec8 <_printf_i+0x1ce>
    5eec:	07c2                	slli	a5,a5,0x10
    5eee:	83c1                	srli	a5,a5,0x10
    5ef0:	bfe1                	j	5ec8 <_printf_i+0x1ce>
    5ef2:	00001697          	auipc	a3,0x1
    5ef6:	dee68693          	addi	a3,a3,-530 # 6ce0 <__clz_tab+0x154>
    5efa:	4721                	li	a4,8
    5efc:	b73d                	j	5e2a <_printf_i+0x130>
    5efe:	87ae                	mv	a5,a1
    5f00:	b791                	j	5e44 <_printf_i+0x14a>
    5f02:	4194                	lw	a3,0(a1)
    5f04:	431c                	lw	a5,0(a4)
    5f06:	49cc                	lw	a1,20(a1)
    5f08:	0806f813          	andi	a6,a3,128
    5f0c:	00478513          	addi	a0,a5,4
    5f10:	00080663          	beqz	a6,5f1c <_printf_i+0x222>
    5f14:	c308                	sw	a0,0(a4)
    5f16:	439c                	lw	a5,0(a5)
    5f18:	c38c                	sw	a1,0(a5)
    5f1a:	a801                	j	5f2a <_printf_i+0x230>
    5f1c:	c308                	sw	a0,0(a4)
    5f1e:	0406f693          	andi	a3,a3,64
    5f22:	439c                	lw	a5,0(a5)
    5f24:	daf5                	beqz	a3,5f18 <_printf_i+0x21e>
    5f26:	00b79023          	sh	a1,0(a5)
    5f2a:	00042823          	sw	zero,16(s0)
    5f2e:	8ab2                	mv	s5,a2
    5f30:	bf81                	j	5e80 <_printf_i+0x186>
    5f32:	431c                	lw	a5,0(a4)
    5f34:	41d0                	lw	a2,4(a1)
    5f36:	4581                	li	a1,0
    5f38:	00478693          	addi	a3,a5,4
    5f3c:	c314                	sw	a3,0(a4)
    5f3e:	0007aa83          	lw	s5,0(a5)
    5f42:	8556                	mv	a0,s5
    5f44:	2dfd                	jal	6642 <memchr>
    5f46:	c501                	beqz	a0,5f4e <_printf_i+0x254>
    5f48:	41550533          	sub	a0,a0,s5
    5f4c:	c048                	sw	a0,4(s0)
    5f4e:	405c                	lw	a5,4(s0)
    5f50:	c81c                	sw	a5,16(s0)
    5f52:	040401a3          	sb	zero,67(s0)
    5f56:	b72d                	j	5e80 <_printf_i+0x186>
    5f58:	4814                	lw	a3,16(s0)
    5f5a:	8656                	mv	a2,s5
    5f5c:	85ca                	mv	a1,s2
    5f5e:	8526                	mv	a0,s1
    5f60:	9982                	jalr	s3
    5f62:	f34509e3          	beq	a0,s4,5e94 <_printf_i+0x19a>
    5f66:	401c                	lw	a5,0(s0)
    5f68:	8b89                	andi	a5,a5,2
    5f6a:	e78d                	bnez	a5,5f94 <_printf_i+0x29a>
    5f6c:	47b2                	lw	a5,12(sp)
    5f6e:	4448                	lw	a0,12(s0)
    5f70:	f2f553e3          	bge	a0,a5,5e96 <_printf_i+0x19c>
    5f74:	853e                	mv	a0,a5
    5f76:	b705                	j	5e96 <_printf_i+0x19c>
    5f78:	4685                	li	a3,1
    5f7a:	8656                	mv	a2,s5
    5f7c:	85ca                	mv	a1,s2
    5f7e:	8526                	mv	a0,s1
    5f80:	9982                	jalr	s3
    5f82:	f16509e3          	beq	a0,s6,5e94 <_printf_i+0x19a>
    5f86:	0a05                	addi	s4,s4,1
    5f88:	445c                	lw	a5,12(s0)
    5f8a:	4732                	lw	a4,12(sp)
    5f8c:	8f99                	sub	a5,a5,a4
    5f8e:	fefa45e3          	blt	s4,a5,5f78 <_printf_i+0x27e>
    5f92:	bfe9                	j	5f6c <_printf_i+0x272>
    5f94:	4a01                	li	s4,0
    5f96:	01940a93          	addi	s5,s0,25
    5f9a:	5b7d                	li	s6,-1
    5f9c:	b7f5                	j	5f88 <_printf_i+0x28e>

00005f9e <__swbuf_r>:
__swbuf_r():
    5f9e:	1101                	addi	sp,sp,-32
    5fa0:	cc22                	sw	s0,24(sp)
    5fa2:	ca26                	sw	s1,20(sp)
    5fa4:	c84a                	sw	s2,16(sp)
    5fa6:	ce06                	sw	ra,28(sp)
    5fa8:	c64e                	sw	s3,12(sp)
    5faa:	84aa                	mv	s1,a0
    5fac:	892e                	mv	s2,a1
    5fae:	8432                	mv	s0,a2
    5fb0:	c501                	beqz	a0,5fb8 <__swbuf_r+0x1a>
    5fb2:	4d1c                	lw	a5,24(a0)
    5fb4:	e391                	bnez	a5,5fb8 <__swbuf_r+0x1a>
    5fb6:	2939                	jal	63d4 <__sinit>
    5fb8:	00001797          	auipc	a5,0x1
    5fbc:	d7078793          	addi	a5,a5,-656 # 6d28 <__sf_fake_stdin>
    5fc0:	06f41963          	bne	s0,a5,6032 <__swbuf_r+0x94>
    5fc4:	40c0                	lw	s0,4(s1)
    5fc6:	4c1c                	lw	a5,24(s0)
    5fc8:	c41c                	sw	a5,8(s0)
    5fca:	00c45783          	lhu	a5,12(s0)
    5fce:	8ba1                	andi	a5,a5,8
    5fd0:	c3c9                	beqz	a5,6052 <__swbuf_r+0xb4>
    5fd2:	481c                	lw	a5,16(s0)
    5fd4:	cfbd                	beqz	a5,6052 <__swbuf_r+0xb4>
    5fd6:	481c                	lw	a5,16(s0)
    5fd8:	4008                	lw	a0,0(s0)
    5fda:	0ff97993          	andi	s3,s2,255
    5fde:	0ff97913          	andi	s2,s2,255
    5fe2:	8d1d                	sub	a0,a0,a5
    5fe4:	485c                	lw	a5,20(s0)
    5fe6:	00f54663          	blt	a0,a5,5ff2 <__swbuf_r+0x54>
    5fea:	85a2                	mv	a1,s0
    5fec:	8526                	mv	a0,s1
    5fee:	24d9                	jal	62b4 <_fflush_r>
    5ff0:	e52d                	bnez	a0,605a <__swbuf_r+0xbc>
    5ff2:	441c                	lw	a5,8(s0)
    5ff4:	0505                	addi	a0,a0,1
    5ff6:	17fd                	addi	a5,a5,-1
    5ff8:	c41c                	sw	a5,8(s0)
    5ffa:	401c                	lw	a5,0(s0)
    5ffc:	00178713          	addi	a4,a5,1
    6000:	c018                	sw	a4,0(s0)
    6002:	01378023          	sb	s3,0(a5)
    6006:	485c                	lw	a5,20(s0)
    6008:	00a78963          	beq	a5,a0,601a <__swbuf_r+0x7c>
    600c:	00c45783          	lhu	a5,12(s0)
    6010:	8b85                	andi	a5,a5,1
    6012:	cb81                	beqz	a5,6022 <__swbuf_r+0x84>
    6014:	47a9                	li	a5,10
    6016:	00f91663          	bne	s2,a5,6022 <__swbuf_r+0x84>
    601a:	85a2                	mv	a1,s0
    601c:	8526                	mv	a0,s1
    601e:	2c59                	jal	62b4 <_fflush_r>
    6020:	ed0d                	bnez	a0,605a <__swbuf_r+0xbc>
    6022:	40f2                	lw	ra,28(sp)
    6024:	4462                	lw	s0,24(sp)
    6026:	854a                	mv	a0,s2
    6028:	44d2                	lw	s1,20(sp)
    602a:	4942                	lw	s2,16(sp)
    602c:	49b2                	lw	s3,12(sp)
    602e:	6105                	addi	sp,sp,32
    6030:	8082                	ret
    6032:	00001797          	auipc	a5,0x1
    6036:	d1678793          	addi	a5,a5,-746 # 6d48 <__sf_fake_stdout>
    603a:	00f41463          	bne	s0,a5,6042 <__swbuf_r+0xa4>
    603e:	4480                	lw	s0,8(s1)
    6040:	b759                	j	5fc6 <__swbuf_r+0x28>
    6042:	00001797          	auipc	a5,0x1
    6046:	cc678793          	addi	a5,a5,-826 # 6d08 <__sf_fake_stderr>
    604a:	f6f41ee3          	bne	s0,a5,5fc6 <__swbuf_r+0x28>
    604e:	44c0                	lw	s0,12(s1)
    6050:	bf9d                	j	5fc6 <__swbuf_r+0x28>
    6052:	85a2                	mv	a1,s0
    6054:	8526                	mv	a0,s1
    6056:	2021                	jal	605e <__swsetup_r>
    6058:	dd3d                	beqz	a0,5fd6 <__swbuf_r+0x38>
    605a:	597d                	li	s2,-1
    605c:	b7d9                	j	6022 <__swbuf_r+0x84>

0000605e <__swsetup_r>:
__swsetup_r():
    605e:	1141                	addi	sp,sp,-16
    6060:	80818793          	addi	a5,gp,-2040 # 20000078 <_impure_ptr>
    6064:	c226                	sw	s1,4(sp)
    6066:	4384                	lw	s1,0(a5)
    6068:	c422                	sw	s0,8(sp)
    606a:	c04a                	sw	s2,0(sp)
    606c:	c606                	sw	ra,12(sp)
    606e:	892a                	mv	s2,a0
    6070:	842e                	mv	s0,a1
    6072:	c489                	beqz	s1,607c <__swsetup_r+0x1e>
    6074:	4c9c                	lw	a5,24(s1)
    6076:	e399                	bnez	a5,607c <__swsetup_r+0x1e>
    6078:	8526                	mv	a0,s1
    607a:	2ea9                	jal	63d4 <__sinit>
    607c:	00001797          	auipc	a5,0x1
    6080:	cac78793          	addi	a5,a5,-852 # 6d28 <__sf_fake_stdin>
    6084:	02f41c63          	bne	s0,a5,60bc <__swsetup_r+0x5e>
    6088:	40c0                	lw	s0,4(s1)
    608a:	00c41703          	lh	a4,12(s0)
    608e:	01071793          	slli	a5,a4,0x10
    6092:	83c1                	srli	a5,a5,0x10
    6094:	0087f693          	andi	a3,a5,8
    6098:	eeb5                	bnez	a3,6114 <__swsetup_r+0xb6>
    609a:	0107f693          	andi	a3,a5,16
    609e:	ee9d                	bnez	a3,60dc <__swsetup_r+0x7e>
    60a0:	47a5                	li	a5,9
    60a2:	00f92023          	sw	a5,0(s2)
    60a6:	04076713          	ori	a4,a4,64
    60aa:	00e41623          	sh	a4,12(s0)
    60ae:	557d                	li	a0,-1
    60b0:	40b2                	lw	ra,12(sp)
    60b2:	4422                	lw	s0,8(sp)
    60b4:	4492                	lw	s1,4(sp)
    60b6:	4902                	lw	s2,0(sp)
    60b8:	0141                	addi	sp,sp,16
    60ba:	8082                	ret
    60bc:	00001797          	auipc	a5,0x1
    60c0:	c8c78793          	addi	a5,a5,-884 # 6d48 <__sf_fake_stdout>
    60c4:	00f41463          	bne	s0,a5,60cc <__swsetup_r+0x6e>
    60c8:	4480                	lw	s0,8(s1)
    60ca:	b7c1                	j	608a <__swsetup_r+0x2c>
    60cc:	00001797          	auipc	a5,0x1
    60d0:	c3c78793          	addi	a5,a5,-964 # 6d08 <__sf_fake_stderr>
    60d4:	faf41be3          	bne	s0,a5,608a <__swsetup_r+0x2c>
    60d8:	44c0                	lw	s0,12(s1)
    60da:	bf45                	j	608a <__swsetup_r+0x2c>
    60dc:	8b91                	andi	a5,a5,4
    60de:	c78d                	beqz	a5,6108 <__swsetup_r+0xaa>
    60e0:	584c                	lw	a1,52(s0)
    60e2:	c989                	beqz	a1,60f4 <__swsetup_r+0x96>
    60e4:	04440793          	addi	a5,s0,68
    60e8:	00f58463          	beq	a1,a5,60f0 <__swsetup_r+0x92>
    60ec:	854a                	mv	a0,s2
    60ee:	23bd                	jal	665c <_free_r>
    60f0:	02042a23          	sw	zero,52(s0)
    60f4:	00c45783          	lhu	a5,12(s0)
    60f8:	00042223          	sw	zero,4(s0)
    60fc:	fdb7f793          	andi	a5,a5,-37
    6100:	00f41623          	sh	a5,12(s0)
    6104:	481c                	lw	a5,16(s0)
    6106:	c01c                	sw	a5,0(s0)
    6108:	00c45783          	lhu	a5,12(s0)
    610c:	0087e793          	ori	a5,a5,8
    6110:	00f41623          	sh	a5,12(s0)
    6114:	481c                	lw	a5,16(s0)
    6116:	ef81                	bnez	a5,612e <__swsetup_r+0xd0>
    6118:	00c45783          	lhu	a5,12(s0)
    611c:	20000713          	li	a4,512
    6120:	2807f793          	andi	a5,a5,640
    6124:	00e78563          	beq	a5,a4,612e <__swsetup_r+0xd0>
    6128:	85a2                	mv	a1,s0
    612a:	854a                	mv	a0,s2
    612c:	29a5                	jal	65a4 <__smakebuf_r>
    612e:	00c45783          	lhu	a5,12(s0)
    6132:	0017f713          	andi	a4,a5,1
    6136:	c705                	beqz	a4,615e <__swsetup_r+0x100>
    6138:	485c                	lw	a5,20(s0)
    613a:	00042423          	sw	zero,8(s0)
    613e:	40f007b3          	neg	a5,a5
    6142:	cc1c                	sw	a5,24(s0)
    6144:	481c                	lw	a5,16(s0)
    6146:	4501                	li	a0,0
    6148:	f7a5                	bnez	a5,60b0 <__swsetup_r+0x52>
    614a:	00c41783          	lh	a5,12(s0)
    614e:	0807f713          	andi	a4,a5,128
    6152:	df39                	beqz	a4,60b0 <__swsetup_r+0x52>
    6154:	0407e793          	ori	a5,a5,64
    6158:	00f41623          	sh	a5,12(s0)
    615c:	bf89                	j	60ae <__swsetup_r+0x50>
    615e:	8b89                	andi	a5,a5,2
    6160:	4701                	li	a4,0
    6162:	e391                	bnez	a5,6166 <__swsetup_r+0x108>
    6164:	4858                	lw	a4,20(s0)
    6166:	c418                	sw	a4,8(s0)
    6168:	bff1                	j	6144 <__swsetup_r+0xe6>

0000616a <abort>:
abort():
    616a:	1141                	addi	sp,sp,-16
    616c:	4519                	li	a0,6
    616e:	c606                	sw	ra,12(sp)
    6170:	25e5                	jal	6858 <raise>
    6172:	4505                	li	a0,1
    6174:	14f000ef          	jal	ra,6ac2 <_exit>

00006178 <__sflush_r>:
__sflush_r():
    6178:	00c5d783          	lhu	a5,12(a1)
    617c:	1101                	addi	sp,sp,-32
    617e:	cc22                	sw	s0,24(sp)
    6180:	ca26                	sw	s1,20(sp)
    6182:	ce06                	sw	ra,28(sp)
    6184:	c84a                	sw	s2,16(sp)
    6186:	c64e                	sw	s3,12(sp)
    6188:	0087f713          	andi	a4,a5,8
    618c:	84aa                	mv	s1,a0
    618e:	842e                	mv	s0,a1
    6190:	ef71                	bnez	a4,626c <__sflush_r+0xf4>
    6192:	41d8                	lw	a4,4(a1)
    6194:	00e04d63          	bgtz	a4,61ae <__sflush_r+0x36>
    6198:	41b8                	lw	a4,64(a1)
    619a:	00e04a63          	bgtz	a4,61ae <__sflush_r+0x36>
    619e:	4501                	li	a0,0
    61a0:	40f2                	lw	ra,28(sp)
    61a2:	4462                	lw	s0,24(sp)
    61a4:	44d2                	lw	s1,20(sp)
    61a6:	4942                	lw	s2,16(sp)
    61a8:	49b2                	lw	s3,12(sp)
    61aa:	6105                	addi	sp,sp,32
    61ac:	8082                	ret
    61ae:	5458                	lw	a4,44(s0)
    61b0:	d77d                	beqz	a4,619e <__sflush_r+0x26>
    61b2:	0004a903          	lw	s2,0(s1)
    61b6:	01379693          	slli	a3,a5,0x13
    61ba:	0004a023          	sw	zero,0(s1)
    61be:	0606dd63          	bgez	a3,6238 <__sflush_r+0xc0>
    61c2:	4870                	lw	a2,84(s0)
    61c4:	00c45783          	lhu	a5,12(s0)
    61c8:	8b91                	andi	a5,a5,4
    61ca:	c799                	beqz	a5,61d8 <__sflush_r+0x60>
    61cc:	405c                	lw	a5,4(s0)
    61ce:	8e1d                	sub	a2,a2,a5
    61d0:	585c                	lw	a5,52(s0)
    61d2:	c399                	beqz	a5,61d8 <__sflush_r+0x60>
    61d4:	403c                	lw	a5,64(s0)
    61d6:	8e1d                	sub	a2,a2,a5
    61d8:	545c                	lw	a5,44(s0)
    61da:	500c                	lw	a1,32(s0)
    61dc:	4681                	li	a3,0
    61de:	8526                	mv	a0,s1
    61e0:	9782                	jalr	a5
    61e2:	57fd                	li	a5,-1
    61e4:	00c45703          	lhu	a4,12(s0)
    61e8:	00f51d63          	bne	a0,a5,6202 <__sflush_r+0x8a>
    61ec:	4094                	lw	a3,0(s1)
    61ee:	47f5                	li	a5,29
    61f0:	06d7e863          	bltu	a5,a3,6260 <__sflush_r+0xe8>
    61f4:	204007b7          	lui	a5,0x20400
    61f8:	0785                	addi	a5,a5,1
    61fa:	00d7d7b3          	srl	a5,a5,a3
    61fe:	8b85                	andi	a5,a5,1
    6200:	c3a5                	beqz	a5,6260 <__sflush_r+0xe8>
    6202:	481c                	lw	a5,16(s0)
    6204:	00042223          	sw	zero,4(s0)
    6208:	c01c                	sw	a5,0(s0)
    620a:	01371793          	slli	a5,a4,0x13
    620e:	0007d863          	bgez	a5,621e <__sflush_r+0xa6>
    6212:	57fd                	li	a5,-1
    6214:	00f51463          	bne	a0,a5,621c <__sflush_r+0xa4>
    6218:	409c                	lw	a5,0(s1)
    621a:	e391                	bnez	a5,621e <__sflush_r+0xa6>
    621c:	c868                	sw	a0,84(s0)
    621e:	584c                	lw	a1,52(s0)
    6220:	0124a023          	sw	s2,0(s1)
    6224:	ddad                	beqz	a1,619e <__sflush_r+0x26>
    6226:	04440793          	addi	a5,s0,68
    622a:	00f58463          	beq	a1,a5,6232 <__sflush_r+0xba>
    622e:	8526                	mv	a0,s1
    6230:	2135                	jal	665c <_free_r>
    6232:	02042a23          	sw	zero,52(s0)
    6236:	b7a5                	j	619e <__sflush_r+0x26>
    6238:	500c                	lw	a1,32(s0)
    623a:	4601                	li	a2,0
    623c:	4685                	li	a3,1
    623e:	8526                	mv	a0,s1
    6240:	9702                	jalr	a4
    6242:	57fd                	li	a5,-1
    6244:	862a                	mv	a2,a0
    6246:	f6f51fe3          	bne	a0,a5,61c4 <__sflush_r+0x4c>
    624a:	409c                	lw	a5,0(s1)
    624c:	dfa5                	beqz	a5,61c4 <__sflush_r+0x4c>
    624e:	4775                	li	a4,29
    6250:	00e78563          	beq	a5,a4,625a <__sflush_r+0xe2>
    6254:	4759                	li	a4,22
    6256:	04e79463          	bne	a5,a4,629e <__sflush_r+0x126>
    625a:	0124a023          	sw	s2,0(s1)
    625e:	b781                	j	619e <__sflush_r+0x26>
    6260:	04076713          	ori	a4,a4,64
    6264:	00e41623          	sh	a4,12(s0)
    6268:	557d                	li	a0,-1
    626a:	bf1d                	j	61a0 <__sflush_r+0x28>
    626c:	0105a983          	lw	s3,16(a1)
    6270:	f20987e3          	beqz	s3,619e <__sflush_r+0x26>
    6274:	0005a903          	lw	s2,0(a1)
    6278:	8b8d                	andi	a5,a5,3
    627a:	0135a023          	sw	s3,0(a1)
    627e:	41390933          	sub	s2,s2,s3
    6282:	4701                	li	a4,0
    6284:	e391                	bnez	a5,6288 <__sflush_r+0x110>
    6286:	49d8                	lw	a4,20(a1)
    6288:	c418                	sw	a4,8(s0)
    628a:	f1205ae3          	blez	s2,619e <__sflush_r+0x26>
    628e:	541c                	lw	a5,40(s0)
    6290:	500c                	lw	a1,32(s0)
    6292:	86ca                	mv	a3,s2
    6294:	864e                	mv	a2,s3
    6296:	8526                	mv	a0,s1
    6298:	9782                	jalr	a5
    629a:	00a04963          	bgtz	a0,62ac <__sflush_r+0x134>
    629e:	00c45783          	lhu	a5,12(s0)
    62a2:	0407e793          	ori	a5,a5,64
    62a6:	00f41623          	sh	a5,12(s0)
    62aa:	bf7d                	j	6268 <__sflush_r+0xf0>
    62ac:	99aa                	add	s3,s3,a0
    62ae:	40a90933          	sub	s2,s2,a0
    62b2:	bfe1                	j	628a <__sflush_r+0x112>

000062b4 <_fflush_r>:
_fflush_r():
    62b4:	499c                	lw	a5,16(a1)
    62b6:	c3a5                	beqz	a5,6316 <_fflush_r+0x62>
    62b8:	1101                	addi	sp,sp,-32
    62ba:	cc22                	sw	s0,24(sp)
    62bc:	ce06                	sw	ra,28(sp)
    62be:	842a                	mv	s0,a0
    62c0:	c511                	beqz	a0,62cc <_fflush_r+0x18>
    62c2:	4d1c                	lw	a5,24(a0)
    62c4:	e781                	bnez	a5,62cc <_fflush_r+0x18>
    62c6:	c62e                	sw	a1,12(sp)
    62c8:	2231                	jal	63d4 <__sinit>
    62ca:	45b2                	lw	a1,12(sp)
    62cc:	00001797          	auipc	a5,0x1
    62d0:	a5c78793          	addi	a5,a5,-1444 # 6d28 <__sf_fake_stdin>
    62d4:	00f59c63          	bne	a1,a5,62ec <_fflush_r+0x38>
    62d8:	404c                	lw	a1,4(s0)
    62da:	00c59783          	lh	a5,12(a1)
    62de:	c79d                	beqz	a5,630c <_fflush_r+0x58>
    62e0:	8522                	mv	a0,s0
    62e2:	4462                	lw	s0,24(sp)
    62e4:	40f2                	lw	ra,28(sp)
    62e6:	6105                	addi	sp,sp,32
    62e8:	e91ff06f          	j	6178 <__sflush_r>
    62ec:	00001797          	auipc	a5,0x1
    62f0:	a5c78793          	addi	a5,a5,-1444 # 6d48 <__sf_fake_stdout>
    62f4:	00f59463          	bne	a1,a5,62fc <_fflush_r+0x48>
    62f8:	440c                	lw	a1,8(s0)
    62fa:	b7c5                	j	62da <_fflush_r+0x26>
    62fc:	00001797          	auipc	a5,0x1
    6300:	a0c78793          	addi	a5,a5,-1524 # 6d08 <__sf_fake_stderr>
    6304:	fcf59be3          	bne	a1,a5,62da <_fflush_r+0x26>
    6308:	444c                	lw	a1,12(s0)
    630a:	bfc1                	j	62da <_fflush_r+0x26>
    630c:	40f2                	lw	ra,28(sp)
    630e:	4462                	lw	s0,24(sp)
    6310:	4501                	li	a0,0
    6312:	6105                	addi	sp,sp,32
    6314:	8082                	ret
    6316:	4501                	li	a0,0
    6318:	8082                	ret

0000631a <std>:
std():
    631a:	1141                	addi	sp,sp,-16
    631c:	c422                	sw	s0,8(sp)
    631e:	c606                	sw	ra,12(sp)
    6320:	842a                	mv	s0,a0
    6322:	00b51623          	sh	a1,12(a0)
    6326:	00c51723          	sh	a2,14(a0)
    632a:	00052023          	sw	zero,0(a0)
    632e:	00052223          	sw	zero,4(a0)
    6332:	00052423          	sw	zero,8(a0)
    6336:	06052223          	sw	zero,100(a0)
    633a:	00052823          	sw	zero,16(a0)
    633e:	00052a23          	sw	zero,20(a0)
    6342:	00052c23          	sw	zero,24(a0)
    6346:	4621                	li	a2,8
    6348:	4581                	li	a1,0
    634a:	05c50513          	addi	a0,a0,92
    634e:	df3f90ef          	jal	ra,140 <memset>
    6352:	00000797          	auipc	a5,0x0
    6356:	53e78793          	addi	a5,a5,1342 # 6890 <__sread>
    635a:	d05c                	sw	a5,36(s0)
    635c:	00000797          	auipc	a5,0x0
    6360:	56478793          	addi	a5,a5,1380 # 68c0 <__swrite>
    6364:	d41c                	sw	a5,40(s0)
    6366:	00000797          	auipc	a5,0x0
    636a:	5a878793          	addi	a5,a5,1448 # 690e <__sseek>
    636e:	d45c                	sw	a5,44(s0)
    6370:	00000797          	auipc	a5,0x0
    6374:	5d478793          	addi	a5,a5,1492 # 6944 <__sclose>
    6378:	d000                	sw	s0,32(s0)
    637a:	d81c                	sw	a5,48(s0)
    637c:	40b2                	lw	ra,12(sp)
    637e:	4422                	lw	s0,8(sp)
    6380:	0141                	addi	sp,sp,16
    6382:	8082                	ret

00006384 <_cleanup_r>:
_cleanup_r():
    6384:	00000597          	auipc	a1,0x0
    6388:	f3058593          	addi	a1,a1,-208 # 62b4 <_fflush_r>
    638c:	aa91                	j	64e0 <_fwalk_reent>

0000638e <__sfmoreglue>:
__sfmoreglue():
    638e:	1141                	addi	sp,sp,-16
    6390:	c226                	sw	s1,4(sp)
    6392:	06800613          	li	a2,104
    6396:	fff58493          	addi	s1,a1,-1
    639a:	02c484b3          	mul	s1,s1,a2
    639e:	c04a                	sw	s2,0(sp)
    63a0:	892e                	mv	s2,a1
    63a2:	c422                	sw	s0,8(sp)
    63a4:	c606                	sw	ra,12(sp)
    63a6:	07448593          	addi	a1,s1,116
    63aa:	2e99                	jal	6700 <_malloc_r>
    63ac:	842a                	mv	s0,a0
    63ae:	cd01                	beqz	a0,63c6 <__sfmoreglue+0x38>
    63b0:	00052023          	sw	zero,0(a0)
    63b4:	01252223          	sw	s2,4(a0)
    63b8:	0531                	addi	a0,a0,12
    63ba:	c408                	sw	a0,8(s0)
    63bc:	06848613          	addi	a2,s1,104
    63c0:	4581                	li	a1,0
    63c2:	d7ff90ef          	jal	ra,140 <memset>
    63c6:	8522                	mv	a0,s0
    63c8:	40b2                	lw	ra,12(sp)
    63ca:	4422                	lw	s0,8(sp)
    63cc:	4492                	lw	s1,4(sp)
    63ce:	4902                	lw	s2,0(sp)
    63d0:	0141                	addi	sp,sp,16
    63d2:	8082                	ret

000063d4 <__sinit>:
__sinit():
    63d4:	4d1c                	lw	a5,24(a0)
    63d6:	e7a5                	bnez	a5,643e <__sinit+0x6a>
    63d8:	1141                	addi	sp,sp,-16
    63da:	c606                	sw	ra,12(sp)
    63dc:	c422                	sw	s0,8(sp)
    63de:	00000797          	auipc	a5,0x0
    63e2:	fa678793          	addi	a5,a5,-90 # 6384 <_cleanup_r>
    63e6:	d51c                	sw	a5,40(a0)
    63e8:	81418793          	addi	a5,gp,-2028 # 20000084 <_global_impure_ptr>
    63ec:	439c                	lw	a5,0(a5)
    63ee:	04052423          	sw	zero,72(a0)
    63f2:	04052623          	sw	zero,76(a0)
    63f6:	04052823          	sw	zero,80(a0)
    63fa:	00f51463          	bne	a0,a5,6402 <__sinit+0x2e>
    63fe:	4785                	li	a5,1
    6400:	cd1c                	sw	a5,24(a0)
    6402:	842a                	mv	s0,a0
    6404:	2835                	jal	6440 <__sfp>
    6406:	c048                	sw	a0,4(s0)
    6408:	8522                	mv	a0,s0
    640a:	281d                	jal	6440 <__sfp>
    640c:	c408                	sw	a0,8(s0)
    640e:	8522                	mv	a0,s0
    6410:	2805                	jal	6440 <__sfp>
    6412:	c448                	sw	a0,12(s0)
    6414:	4048                	lw	a0,4(s0)
    6416:	4601                	li	a2,0
    6418:	4591                	li	a1,4
    641a:	f01ff0ef          	jal	ra,631a <std>
    641e:	4408                	lw	a0,8(s0)
    6420:	4605                	li	a2,1
    6422:	45a5                	li	a1,9
    6424:	ef7ff0ef          	jal	ra,631a <std>
    6428:	4448                	lw	a0,12(s0)
    642a:	4609                	li	a2,2
    642c:	45c9                	li	a1,18
    642e:	eedff0ef          	jal	ra,631a <std>
    6432:	4785                	li	a5,1
    6434:	cc1c                	sw	a5,24(s0)
    6436:	40b2                	lw	ra,12(sp)
    6438:	4422                	lw	s0,8(sp)
    643a:	0141                	addi	sp,sp,16
    643c:	8082                	ret
    643e:	8082                	ret

00006440 <__sfp>:
__sfp():
    6440:	1141                	addi	sp,sp,-16
    6442:	81418793          	addi	a5,gp,-2028 # 20000084 <_global_impure_ptr>
    6446:	c226                	sw	s1,4(sp)
    6448:	4384                	lw	s1,0(a5)
    644a:	c04a                	sw	s2,0(sp)
    644c:	c606                	sw	ra,12(sp)
    644e:	4c9c                	lw	a5,24(s1)
    6450:	c422                	sw	s0,8(sp)
    6452:	892a                	mv	s2,a0
    6454:	e781                	bnez	a5,645c <__sfp+0x1c>
    6456:	8526                	mv	a0,s1
    6458:	f7dff0ef          	jal	ra,63d4 <__sinit>
    645c:	04848493          	addi	s1,s1,72
    6460:	4480                	lw	s0,8(s1)
    6462:	40dc                	lw	a5,4(s1)
    6464:	17fd                	addi	a5,a5,-1
    6466:	0007d663          	bgez	a5,6472 <__sfp+0x32>
    646a:	409c                	lw	a5,0(s1)
    646c:	cfb9                	beqz	a5,64ca <__sfp+0x8a>
    646e:	4084                	lw	s1,0(s1)
    6470:	bfc5                	j	6460 <__sfp+0x20>
    6472:	00c41703          	lh	a4,12(s0)
    6476:	e739                	bnez	a4,64c4 <__sfp+0x84>
    6478:	77c1                	lui	a5,0xffff0
    647a:	0785                	addi	a5,a5,1
    647c:	06042223          	sw	zero,100(s0)
    6480:	00042023          	sw	zero,0(s0)
    6484:	00042223          	sw	zero,4(s0)
    6488:	00042423          	sw	zero,8(s0)
    648c:	c45c                	sw	a5,12(s0)
    648e:	00042823          	sw	zero,16(s0)
    6492:	00042a23          	sw	zero,20(s0)
    6496:	00042c23          	sw	zero,24(s0)
    649a:	4621                	li	a2,8
    649c:	4581                	li	a1,0
    649e:	05c40513          	addi	a0,s0,92
    64a2:	c9ff90ef          	jal	ra,140 <memset>
    64a6:	02042a23          	sw	zero,52(s0)
    64aa:	02042c23          	sw	zero,56(s0)
    64ae:	04042423          	sw	zero,72(s0)
    64b2:	04042623          	sw	zero,76(s0)
    64b6:	8522                	mv	a0,s0
    64b8:	40b2                	lw	ra,12(sp)
    64ba:	4422                	lw	s0,8(sp)
    64bc:	4492                	lw	s1,4(sp)
    64be:	4902                	lw	s2,0(sp)
    64c0:	0141                	addi	sp,sp,16
    64c2:	8082                	ret
    64c4:	06840413          	addi	s0,s0,104
    64c8:	bf71                	j	6464 <__sfp+0x24>
    64ca:	4591                	li	a1,4
    64cc:	854a                	mv	a0,s2
    64ce:	ec1ff0ef          	jal	ra,638e <__sfmoreglue>
    64d2:	c088                	sw	a0,0(s1)
    64d4:	fd49                	bnez	a0,646e <__sfp+0x2e>
    64d6:	47b1                	li	a5,12
    64d8:	00f92023          	sw	a5,0(s2)
    64dc:	4401                	li	s0,0
    64de:	bfe1                	j	64b6 <__sfp+0x76>

000064e0 <_fwalk_reent>:
_fwalk_reent():
    64e0:	7179                	addi	sp,sp,-48
    64e2:	d422                	sw	s0,40(sp)
    64e4:	d04a                	sw	s2,32(sp)
    64e6:	cc52                	sw	s4,24(sp)
    64e8:	ca56                	sw	s5,20(sp)
    64ea:	c85a                	sw	s6,16(sp)
    64ec:	c65e                	sw	s7,12(sp)
    64ee:	d606                	sw	ra,44(sp)
    64f0:	d226                	sw	s1,36(sp)
    64f2:	ce4e                	sw	s3,28(sp)
    64f4:	8a2a                	mv	s4,a0
    64f6:	8aae                	mv	s5,a1
    64f8:	04850413          	addi	s0,a0,72
    64fc:	4901                	li	s2,0
    64fe:	4b05                	li	s6,1
    6500:	5bfd                	li	s7,-1
    6502:	ec09                	bnez	s0,651c <_fwalk_reent+0x3c>
    6504:	50b2                	lw	ra,44(sp)
    6506:	5422                	lw	s0,40(sp)
    6508:	854a                	mv	a0,s2
    650a:	5492                	lw	s1,36(sp)
    650c:	5902                	lw	s2,32(sp)
    650e:	49f2                	lw	s3,28(sp)
    6510:	4a62                	lw	s4,24(sp)
    6512:	4ad2                	lw	s5,20(sp)
    6514:	4b42                	lw	s6,16(sp)
    6516:	4bb2                	lw	s7,12(sp)
    6518:	6145                	addi	sp,sp,48
    651a:	8082                	ret
    651c:	4404                	lw	s1,8(s0)
    651e:	00442983          	lw	s3,4(s0)
    6522:	19fd                	addi	s3,s3,-1
    6524:	0009d463          	bgez	s3,652c <_fwalk_reent+0x4c>
    6528:	4000                	lw	s0,0(s0)
    652a:	bfe1                	j	6502 <_fwalk_reent+0x22>
    652c:	00c4d783          	lhu	a5,12(s1)
    6530:	00fb7b63          	bgeu	s6,a5,6546 <_fwalk_reent+0x66>
    6534:	00e49783          	lh	a5,14(s1)
    6538:	01778763          	beq	a5,s7,6546 <_fwalk_reent+0x66>
    653c:	85a6                	mv	a1,s1
    653e:	8552                	mv	a0,s4
    6540:	9a82                	jalr	s5
    6542:	00a96933          	or	s2,s2,a0
    6546:	06848493          	addi	s1,s1,104
    654a:	bfe1                	j	6522 <_fwalk_reent+0x42>

0000654c <__swhatbuf_r>:
__swhatbuf_r():
    654c:	7119                	addi	sp,sp,-128
    654e:	daa6                	sw	s1,116(sp)
    6550:	84ae                	mv	s1,a1
    6552:	00e59583          	lh	a1,14(a1)
    6556:	dca2                	sw	s0,120(sp)
    6558:	de86                	sw	ra,124(sp)
    655a:	8432                	mv	s0,a2
    655c:	0005dc63          	bgez	a1,6574 <__swhatbuf_r+0x28>
    6560:	00c4d783          	lhu	a5,12(s1)
    6564:	0006a023          	sw	zero,0(a3)
    6568:	0807f793          	andi	a5,a5,128
    656c:	e39d                	bnez	a5,6592 <__swhatbuf_r+0x46>
    656e:	40000793          	li	a5,1024
    6572:	a015                	j	6596 <__swhatbuf_r+0x4a>
    6574:	0830                	addi	a2,sp,24
    6576:	c636                	sw	a3,12(sp)
    6578:	2125                	jal	69a0 <_fstat_r>
    657a:	46b2                	lw	a3,12(sp)
    657c:	fe0542e3          	bltz	a0,6560 <__swhatbuf_r+0x14>
    6580:	4772                	lw	a4,28(sp)
    6582:	67bd                	lui	a5,0xf
    6584:	8ff9                	and	a5,a5,a4
    6586:	7779                	lui	a4,0xffffe
    6588:	97ba                	add	a5,a5,a4
    658a:	0017b793          	seqz	a5,a5
    658e:	c29c                	sw	a5,0(a3)
    6590:	bff9                	j	656e <__swhatbuf_r+0x22>
    6592:	04000793          	li	a5,64
    6596:	c01c                	sw	a5,0(s0)
    6598:	50f6                	lw	ra,124(sp)
    659a:	5466                	lw	s0,120(sp)
    659c:	54d6                	lw	s1,116(sp)
    659e:	4501                	li	a0,0
    65a0:	6109                	addi	sp,sp,128
    65a2:	8082                	ret

000065a4 <__smakebuf_r>:
__smakebuf_r():
    65a4:	00c5d783          	lhu	a5,12(a1)
    65a8:	1101                	addi	sp,sp,-32
    65aa:	cc22                	sw	s0,24(sp)
    65ac:	ce06                	sw	ra,28(sp)
    65ae:	ca26                	sw	s1,20(sp)
    65b0:	c84a                	sw	s2,16(sp)
    65b2:	8b89                	andi	a5,a5,2
    65b4:	842e                	mv	s0,a1
    65b6:	cf89                	beqz	a5,65d0 <__smakebuf_r+0x2c>
    65b8:	04740793          	addi	a5,s0,71
    65bc:	c01c                	sw	a5,0(s0)
    65be:	c81c                	sw	a5,16(s0)
    65c0:	4785                	li	a5,1
    65c2:	c85c                	sw	a5,20(s0)
    65c4:	40f2                	lw	ra,28(sp)
    65c6:	4462                	lw	s0,24(sp)
    65c8:	44d2                	lw	s1,20(sp)
    65ca:	4942                	lw	s2,16(sp)
    65cc:	6105                	addi	sp,sp,32
    65ce:	8082                	ret
    65d0:	0074                	addi	a3,sp,12
    65d2:	0030                	addi	a2,sp,8
    65d4:	84aa                	mv	s1,a0
    65d6:	f77ff0ef          	jal	ra,654c <__swhatbuf_r>
    65da:	45a2                	lw	a1,8(sp)
    65dc:	892a                	mv	s2,a0
    65de:	8526                	mv	a0,s1
    65e0:	2205                	jal	6700 <_malloc_r>
    65e2:	ed01                	bnez	a0,65fa <__smakebuf_r+0x56>
    65e4:	00c41783          	lh	a5,12(s0)
    65e8:	2007f713          	andi	a4,a5,512
    65ec:	ff61                	bnez	a4,65c4 <__smakebuf_r+0x20>
    65ee:	9bf1                	andi	a5,a5,-4
    65f0:	0027e793          	ori	a5,a5,2
    65f4:	00f41623          	sh	a5,12(s0)
    65f8:	b7c1                	j	65b8 <__smakebuf_r+0x14>
    65fa:	00000797          	auipc	a5,0x0
    65fe:	d8a78793          	addi	a5,a5,-630 # 6384 <_cleanup_r>
    6602:	d49c                	sw	a5,40(s1)
    6604:	00c45783          	lhu	a5,12(s0)
    6608:	c008                	sw	a0,0(s0)
    660a:	c808                	sw	a0,16(s0)
    660c:	0807e793          	ori	a5,a5,128
    6610:	00f41623          	sh	a5,12(s0)
    6614:	47a2                	lw	a5,8(sp)
    6616:	c85c                	sw	a5,20(s0)
    6618:	47b2                	lw	a5,12(sp)
    661a:	cf89                	beqz	a5,6634 <__smakebuf_r+0x90>
    661c:	00e41583          	lh	a1,14(s0)
    6620:	8526                	mv	a0,s1
    6622:	2665                	jal	69ca <_isatty_r>
    6624:	c901                	beqz	a0,6634 <__smakebuf_r+0x90>
    6626:	00c45783          	lhu	a5,12(s0)
    662a:	9bf1                	andi	a5,a5,-4
    662c:	0017e793          	ori	a5,a5,1
    6630:	00f41623          	sh	a5,12(s0)
    6634:	00c45783          	lhu	a5,12(s0)
    6638:	00f96933          	or	s2,s2,a5
    663c:	01241623          	sh	s2,12(s0)
    6640:	b751                	j	65c4 <__smakebuf_r+0x20>

00006642 <memchr>:
memchr():
    6642:	0ff5f593          	andi	a1,a1,255
    6646:	962a                	add	a2,a2,a0
    6648:	00c51463          	bne	a0,a2,6650 <memchr+0xe>
    664c:	4501                	li	a0,0
    664e:	8082                	ret
    6650:	00054783          	lbu	a5,0(a0)
    6654:	feb78de3          	beq	a5,a1,664e <memchr+0xc>
    6658:	0505                	addi	a0,a0,1
    665a:	b7fd                	j	6648 <memchr+0x6>

0000665c <_free_r>:
_free_r():
    665c:	c1cd                	beqz	a1,66fe <_free_r+0xa2>
    665e:	ffc5a783          	lw	a5,-4(a1)
    6662:	1141                	addi	sp,sp,-16
    6664:	c422                	sw	s0,8(sp)
    6666:	c606                	sw	ra,12(sp)
    6668:	c226                	sw	s1,4(sp)
    666a:	ffc58413          	addi	s0,a1,-4
    666e:	0007d363          	bgez	a5,6674 <_free_r+0x18>
    6672:	943e                	add	s0,s0,a5
    6674:	84aa                	mv	s1,a0
    6676:	2665                	jal	6a1e <__malloc_lock>
    6678:	84818793          	addi	a5,gp,-1976 # 200000b8 <__malloc_free_list>
    667c:	439c                	lw	a5,0(a5)
    667e:	eb99                	bnez	a5,6694 <_free_r+0x38>
    6680:	00042223          	sw	zero,4(s0)
    6684:	8481a423          	sw	s0,-1976(gp) # 200000b8 <__malloc_free_list>
    6688:	4422                	lw	s0,8(sp)
    668a:	40b2                	lw	ra,12(sp)
    668c:	8526                	mv	a0,s1
    668e:	4492                	lw	s1,4(sp)
    6690:	0141                	addi	sp,sp,16
    6692:	a679                	j	6a20 <__malloc_unlock>
    6694:	00f47e63          	bgeu	s0,a5,66b0 <_free_r+0x54>
    6698:	4014                	lw	a3,0(s0)
    669a:	00d40733          	add	a4,s0,a3
    669e:	00e79663          	bne	a5,a4,66aa <_free_r+0x4e>
    66a2:	4398                	lw	a4,0(a5)
    66a4:	43dc                	lw	a5,4(a5)
    66a6:	9736                	add	a4,a4,a3
    66a8:	c018                	sw	a4,0(s0)
    66aa:	c05c                	sw	a5,4(s0)
    66ac:	bfe1                	j	6684 <_free_r+0x28>
    66ae:	87ba                	mv	a5,a4
    66b0:	43d8                	lw	a4,4(a5)
    66b2:	c319                	beqz	a4,66b8 <_free_r+0x5c>
    66b4:	fee47de3          	bgeu	s0,a4,66ae <_free_r+0x52>
    66b8:	4394                	lw	a3,0(a5)
    66ba:	00d78633          	add	a2,a5,a3
    66be:	00861f63          	bne	a2,s0,66dc <_free_r+0x80>
    66c2:	4010                	lw	a2,0(s0)
    66c4:	96b2                	add	a3,a3,a2
    66c6:	c394                	sw	a3,0(a5)
    66c8:	00d78633          	add	a2,a5,a3
    66cc:	fac71ee3          	bne	a4,a2,6688 <_free_r+0x2c>
    66d0:	4310                	lw	a2,0(a4)
    66d2:	4358                	lw	a4,4(a4)
    66d4:	96b2                	add	a3,a3,a2
    66d6:	c394                	sw	a3,0(a5)
    66d8:	c3d8                	sw	a4,4(a5)
    66da:	b77d                	j	6688 <_free_r+0x2c>
    66dc:	00c47563          	bgeu	s0,a2,66e6 <_free_r+0x8a>
    66e0:	47b1                	li	a5,12
    66e2:	c09c                	sw	a5,0(s1)
    66e4:	b755                	j	6688 <_free_r+0x2c>
    66e6:	4010                	lw	a2,0(s0)
    66e8:	00c406b3          	add	a3,s0,a2
    66ec:	00d71663          	bne	a4,a3,66f8 <_free_r+0x9c>
    66f0:	4314                	lw	a3,0(a4)
    66f2:	4358                	lw	a4,4(a4)
    66f4:	96b2                	add	a3,a3,a2
    66f6:	c014                	sw	a3,0(s0)
    66f8:	c058                	sw	a4,4(s0)
    66fa:	c3c0                	sw	s0,4(a5)
    66fc:	b771                	j	6688 <_free_r+0x2c>
    66fe:	8082                	ret

00006700 <_malloc_r>:
_malloc_r():
    6700:	1101                	addi	sp,sp,-32
    6702:	ca26                	sw	s1,20(sp)
    6704:	00358493          	addi	s1,a1,3
    6708:	98f1                	andi	s1,s1,-4
    670a:	ce06                	sw	ra,28(sp)
    670c:	cc22                	sw	s0,24(sp)
    670e:	c84a                	sw	s2,16(sp)
    6710:	c64e                	sw	s3,12(sp)
    6712:	04a1                	addi	s1,s1,8
    6714:	47b1                	li	a5,12
    6716:	04f4f163          	bgeu	s1,a5,6758 <_malloc_r+0x58>
    671a:	44b1                	li	s1,12
    671c:	04b4e063          	bltu	s1,a1,675c <_malloc_r+0x5c>
    6720:	892a                	mv	s2,a0
    6722:	2cf5                	jal	6a1e <__malloc_lock>
    6724:	84818793          	addi	a5,gp,-1976 # 200000b8 <__malloc_free_list>
    6728:	4398                	lw	a4,0(a5)
    672a:	843a                	mv	s0,a4
    672c:	e031                	bnez	s0,6770 <_malloc_r+0x70>
    672e:	84c18793          	addi	a5,gp,-1972 # 200000bc <__malloc_sbrk_start>
    6732:	439c                	lw	a5,0(a5)
    6734:	e791                	bnez	a5,6740 <_malloc_r+0x40>
    6736:	4581                	li	a1,0
    6738:	854a                	mv	a0,s2
    673a:	2851                	jal	67ce <_sbrk_r>
    673c:	84a1a623          	sw	a0,-1972(gp) # 200000bc <__malloc_sbrk_start>
    6740:	85a6                	mv	a1,s1
    6742:	854a                	mv	a0,s2
    6744:	2069                	jal	67ce <_sbrk_r>
    6746:	59fd                	li	s3,-1
    6748:	07351763          	bne	a0,s3,67b6 <_malloc_r+0xb6>
    674c:	47b1                	li	a5,12
    674e:	00f92023          	sw	a5,0(s2)
    6752:	854a                	mv	a0,s2
    6754:	24f1                	jal	6a20 <__malloc_unlock>
    6756:	a029                	j	6760 <_malloc_r+0x60>
    6758:	fc04d2e3          	bgez	s1,671c <_malloc_r+0x1c>
    675c:	47b1                	li	a5,12
    675e:	c11c                	sw	a5,0(a0)
    6760:	4501                	li	a0,0
    6762:	40f2                	lw	ra,28(sp)
    6764:	4462                	lw	s0,24(sp)
    6766:	44d2                	lw	s1,20(sp)
    6768:	4942                	lw	s2,16(sp)
    676a:	49b2                	lw	s3,12(sp)
    676c:	6105                	addi	sp,sp,32
    676e:	8082                	ret
    6770:	401c                	lw	a5,0(s0)
    6772:	8f85                	sub	a5,a5,s1
    6774:	0207ce63          	bltz	a5,67b0 <_malloc_r+0xb0>
    6778:	46ad                	li	a3,11
    677a:	00f6f663          	bgeu	a3,a5,6786 <_malloc_r+0x86>
    677e:	c01c                	sw	a5,0(s0)
    6780:	943e                	add	s0,s0,a5
    6782:	c004                	sw	s1,0(s0)
    6784:	a031                	j	6790 <_malloc_r+0x90>
    6786:	405c                	lw	a5,4(s0)
    6788:	02871263          	bne	a4,s0,67ac <_malloc_r+0xac>
    678c:	84f1a423          	sw	a5,-1976(gp) # 200000b8 <__malloc_free_list>
    6790:	854a                	mv	a0,s2
    6792:	2479                	jal	6a20 <__malloc_unlock>
    6794:	00b40513          	addi	a0,s0,11
    6798:	00440793          	addi	a5,s0,4
    679c:	9961                	andi	a0,a0,-8
    679e:	40f50733          	sub	a4,a0,a5
    67a2:	d361                	beqz	a4,6762 <_malloc_r+0x62>
    67a4:	943a                	add	s0,s0,a4
    67a6:	8f89                	sub	a5,a5,a0
    67a8:	c01c                	sw	a5,0(s0)
    67aa:	bf65                	j	6762 <_malloc_r+0x62>
    67ac:	c35c                	sw	a5,4(a4)
    67ae:	b7cd                	j	6790 <_malloc_r+0x90>
    67b0:	8722                	mv	a4,s0
    67b2:	4040                	lw	s0,4(s0)
    67b4:	bfa5                	j	672c <_malloc_r+0x2c>
    67b6:	00350413          	addi	s0,a0,3
    67ba:	9871                	andi	s0,s0,-4
    67bc:	fc8503e3          	beq	a0,s0,6782 <_malloc_r+0x82>
    67c0:	40a405b3          	sub	a1,s0,a0
    67c4:	854a                	mv	a0,s2
    67c6:	2021                	jal	67ce <_sbrk_r>
    67c8:	fb351de3          	bne	a0,s3,6782 <_malloc_r+0x82>
    67cc:	b741                	j	674c <_malloc_r+0x4c>

000067ce <_sbrk_r>:
_sbrk_r():
    67ce:	1141                	addi	sp,sp,-16
    67d0:	c422                	sw	s0,8(sp)
    67d2:	842a                	mv	s0,a0
    67d4:	852e                	mv	a0,a1
    67d6:	9201a823          	sw	zero,-1744(gp) # 200001a0 <errno>
    67da:	c606                	sw	ra,12(sp)
    67dc:	24d9                	jal	6aa2 <_sbrk>
    67de:	57fd                	li	a5,-1
    67e0:	00f51763          	bne	a0,a5,67ee <_sbrk_r+0x20>
    67e4:	93018793          	addi	a5,gp,-1744 # 200001a0 <errno>
    67e8:	439c                	lw	a5,0(a5)
    67ea:	c391                	beqz	a5,67ee <_sbrk_r+0x20>
    67ec:	c01c                	sw	a5,0(s0)
    67ee:	40b2                	lw	ra,12(sp)
    67f0:	4422                	lw	s0,8(sp)
    67f2:	0141                	addi	sp,sp,16
    67f4:	8082                	ret

000067f6 <_raise_r>:
_raise_r():
    67f6:	47fd                	li	a5,31
    67f8:	00b7f663          	bgeu	a5,a1,6804 <_raise_r+0xe>
    67fc:	47d9                	li	a5,22
    67fe:	c11c                	sw	a5,0(a0)
    6800:	557d                	li	a0,-1
    6802:	8082                	ret
    6804:	417c                	lw	a5,68(a0)
    6806:	1101                	addi	sp,sp,-32
    6808:	cc22                	sw	s0,24(sp)
    680a:	ce06                	sw	ra,28(sp)
    680c:	862e                	mv	a2,a1
    680e:	842a                	mv	s0,a0
    6810:	c791                	beqz	a5,681c <_raise_r+0x26>
    6812:	00259713          	slli	a4,a1,0x2
    6816:	97ba                	add	a5,a5,a4
    6818:	4398                	lw	a4,0(a5)
    681a:	eb19                	bnez	a4,6830 <_raise_r+0x3a>
    681c:	8522                	mv	a0,s0
    681e:	c632                	sw	a2,12(sp)
    6820:	20bd                	jal	688e <_getpid_r>
    6822:	85aa                	mv	a1,a0
    6824:	8522                	mv	a0,s0
    6826:	4462                	lw	s0,24(sp)
    6828:	4632                	lw	a2,12(sp)
    682a:	40f2                	lw	ra,28(sp)
    682c:	6105                	addi	sp,sp,32
    682e:	a81d                	j	6864 <_kill_r>
    6830:	4685                	li	a3,1
    6832:	4501                	li	a0,0
    6834:	00d70863          	beq	a4,a3,6844 <_raise_r+0x4e>
    6838:	56fd                	li	a3,-1
    683a:	00d71963          	bne	a4,a3,684c <_raise_r+0x56>
    683e:	47d9                	li	a5,22
    6840:	c01c                	sw	a5,0(s0)
    6842:	4505                	li	a0,1
    6844:	40f2                	lw	ra,28(sp)
    6846:	4462                	lw	s0,24(sp)
    6848:	6105                	addi	sp,sp,32
    684a:	8082                	ret
    684c:	852e                	mv	a0,a1
    684e:	0007a023          	sw	zero,0(a5)
    6852:	9702                	jalr	a4
    6854:	4501                	li	a0,0
    6856:	b7fd                	j	6844 <_raise_r+0x4e>

00006858 <raise>:
raise():
    6858:	80818793          	addi	a5,gp,-2040 # 20000078 <_impure_ptr>
    685c:	85aa                	mv	a1,a0
    685e:	4388                	lw	a0,0(a5)
    6860:	f97ff06f          	j	67f6 <_raise_r>

00006864 <_kill_r>:
_kill_r():
    6864:	1141                	addi	sp,sp,-16
    6866:	c422                	sw	s0,8(sp)
    6868:	842a                	mv	s0,a0
    686a:	852e                	mv	a0,a1
    686c:	85b2                	mv	a1,a2
    686e:	9201a823          	sw	zero,-1744(gp) # 200001a0 <errno>
    6872:	c606                	sw	ra,12(sp)
    6874:	2429                	jal	6a7e <_kill>
    6876:	57fd                	li	a5,-1
    6878:	00f51763          	bne	a0,a5,6886 <_kill_r+0x22>
    687c:	93018793          	addi	a5,gp,-1744 # 200001a0 <errno>
    6880:	439c                	lw	a5,0(a5)
    6882:	c391                	beqz	a5,6886 <_kill_r+0x22>
    6884:	c01c                	sw	a5,0(s0)
    6886:	40b2                	lw	ra,12(sp)
    6888:	4422                	lw	s0,8(sp)
    688a:	0141                	addi	sp,sp,16
    688c:	8082                	ret

0000688e <_getpid_r>:
_getpid_r():
    688e:	aae1                	j	6a66 <_getpid>

00006890 <__sread>:
__sread():
    6890:	1141                	addi	sp,sp,-16
    6892:	c422                	sw	s0,8(sp)
    6894:	842e                	mv	s0,a1
    6896:	00e59583          	lh	a1,14(a1)
    689a:	c606                	sw	ra,12(sp)
    689c:	2259                	jal	6a22 <_read_r>
    689e:	00054963          	bltz	a0,68b0 <__sread+0x20>
    68a2:	487c                	lw	a5,84(s0)
    68a4:	97aa                	add	a5,a5,a0
    68a6:	c87c                	sw	a5,84(s0)
    68a8:	40b2                	lw	ra,12(sp)
    68aa:	4422                	lw	s0,8(sp)
    68ac:	0141                	addi	sp,sp,16
    68ae:	8082                	ret
    68b0:	00c45783          	lhu	a5,12(s0)
    68b4:	777d                	lui	a4,0xfffff
    68b6:	177d                	addi	a4,a4,-1
    68b8:	8ff9                	and	a5,a5,a4
    68ba:	00f41623          	sh	a5,12(s0)
    68be:	b7ed                	j	68a8 <__sread+0x18>

000068c0 <__swrite>:
__swrite():
    68c0:	00c5d783          	lhu	a5,12(a1)
    68c4:	1101                	addi	sp,sp,-32
    68c6:	cc22                	sw	s0,24(sp)
    68c8:	ca26                	sw	s1,20(sp)
    68ca:	c84a                	sw	s2,16(sp)
    68cc:	c64e                	sw	s3,12(sp)
    68ce:	ce06                	sw	ra,28(sp)
    68d0:	1007f793          	andi	a5,a5,256
    68d4:	84aa                	mv	s1,a0
    68d6:	842e                	mv	s0,a1
    68d8:	8932                	mv	s2,a2
    68da:	89b6                	mv	s3,a3
    68dc:	c791                	beqz	a5,68e8 <__swrite+0x28>
    68de:	00e59583          	lh	a1,14(a1)
    68e2:	4689                	li	a3,2
    68e4:	4601                	li	a2,0
    68e6:	2231                	jal	69f2 <_lseek_r>
    68e8:	00c45783          	lhu	a5,12(s0)
    68ec:	777d                	lui	a4,0xfffff
    68ee:	177d                	addi	a4,a4,-1
    68f0:	8ff9                	and	a5,a5,a4
    68f2:	00f41623          	sh	a5,12(s0)
    68f6:	00e41583          	lh	a1,14(s0)
    68fa:	4462                	lw	s0,24(sp)
    68fc:	40f2                	lw	ra,28(sp)
    68fe:	86ce                	mv	a3,s3
    6900:	864a                	mv	a2,s2
    6902:	49b2                	lw	s3,12(sp)
    6904:	4942                	lw	s2,16(sp)
    6906:	8526                	mv	a0,s1
    6908:	44d2                	lw	s1,20(sp)
    690a:	6105                	addi	sp,sp,32
    690c:	a83d                	j	694a <_write_r>

0000690e <__sseek>:
__sseek():
    690e:	1141                	addi	sp,sp,-16
    6910:	c422                	sw	s0,8(sp)
    6912:	842e                	mv	s0,a1
    6914:	00e59583          	lh	a1,14(a1)
    6918:	c606                	sw	ra,12(sp)
    691a:	28e1                	jal	69f2 <_lseek_r>
    691c:	57fd                	li	a5,-1
    691e:	00c45703          	lhu	a4,12(s0)
    6922:	00f51b63          	bne	a0,a5,6938 <__sseek+0x2a>
    6926:	77fd                	lui	a5,0xfffff
    6928:	17fd                	addi	a5,a5,-1
    692a:	8ff9                	and	a5,a5,a4
    692c:	00f41623          	sh	a5,12(s0)
    6930:	40b2                	lw	ra,12(sp)
    6932:	4422                	lw	s0,8(sp)
    6934:	0141                	addi	sp,sp,16
    6936:	8082                	ret
    6938:	6785                	lui	a5,0x1
    693a:	8fd9                	or	a5,a5,a4
    693c:	00f41623          	sh	a5,12(s0)
    6940:	c868                	sw	a0,84(s0)
    6942:	b7fd                	j	6930 <__sseek+0x22>

00006944 <__sclose>:
__sclose():
    6944:	00e59583          	lh	a1,14(a1)
    6948:	a805                	j	6978 <_close_r>

0000694a <_write_r>:
_write_r():
    694a:	1141                	addi	sp,sp,-16
    694c:	c422                	sw	s0,8(sp)
    694e:	842a                	mv	s0,a0
    6950:	852e                	mv	a0,a1
    6952:	85b2                	mv	a1,a2
    6954:	8636                	mv	a2,a3
    6956:	9201a823          	sw	zero,-1744(gp) # 200001a0 <errno>
    695a:	c606                	sw	ra,12(sp)
    695c:	b7ffd0ef          	jal	ra,44da <_write>
    6960:	57fd                	li	a5,-1
    6962:	00f51763          	bne	a0,a5,6970 <_write_r+0x26>
    6966:	93018793          	addi	a5,gp,-1744 # 200001a0 <errno>
    696a:	439c                	lw	a5,0(a5)
    696c:	c391                	beqz	a5,6970 <_write_r+0x26>
    696e:	c01c                	sw	a5,0(s0)
    6970:	40b2                	lw	ra,12(sp)
    6972:	4422                	lw	s0,8(sp)
    6974:	0141                	addi	sp,sp,16
    6976:	8082                	ret

00006978 <_close_r>:
_close_r():
    6978:	1141                	addi	sp,sp,-16
    697a:	c422                	sw	s0,8(sp)
    697c:	842a                	mv	s0,a0
    697e:	852e                	mv	a0,a1
    6980:	9201a823          	sw	zero,-1744(gp) # 200001a0 <errno>
    6984:	c606                	sw	ra,12(sp)
    6986:	20e1                	jal	6a4e <_close>
    6988:	57fd                	li	a5,-1
    698a:	00f51763          	bne	a0,a5,6998 <_close_r+0x20>
    698e:	93018793          	addi	a5,gp,-1744 # 200001a0 <errno>
    6992:	439c                	lw	a5,0(a5)
    6994:	c391                	beqz	a5,6998 <_close_r+0x20>
    6996:	c01c                	sw	a5,0(s0)
    6998:	40b2                	lw	ra,12(sp)
    699a:	4422                	lw	s0,8(sp)
    699c:	0141                	addi	sp,sp,16
    699e:	8082                	ret

000069a0 <_fstat_r>:
_fstat_r():
    69a0:	1141                	addi	sp,sp,-16
    69a2:	c422                	sw	s0,8(sp)
    69a4:	842a                	mv	s0,a0
    69a6:	852e                	mv	a0,a1
    69a8:	85b2                	mv	a1,a2
    69aa:	9201a823          	sw	zero,-1744(gp) # 200001a0 <errno>
    69ae:	c606                	sw	ra,12(sp)
    69b0:	206d                	jal	6a5a <_fstat>
    69b2:	57fd                	li	a5,-1
    69b4:	00f51763          	bne	a0,a5,69c2 <_fstat_r+0x22>
    69b8:	93018793          	addi	a5,gp,-1744 # 200001a0 <errno>
    69bc:	439c                	lw	a5,0(a5)
    69be:	c391                	beqz	a5,69c2 <_fstat_r+0x22>
    69c0:	c01c                	sw	a5,0(s0)
    69c2:	40b2                	lw	ra,12(sp)
    69c4:	4422                	lw	s0,8(sp)
    69c6:	0141                	addi	sp,sp,16
    69c8:	8082                	ret

000069ca <_isatty_r>:
_isatty_r():
    69ca:	1141                	addi	sp,sp,-16
    69cc:	c422                	sw	s0,8(sp)
    69ce:	842a                	mv	s0,a0
    69d0:	852e                	mv	a0,a1
    69d2:	9201a823          	sw	zero,-1744(gp) # 200001a0 <errno>
    69d6:	c606                	sw	ra,12(sp)
    69d8:	2869                	jal	6a72 <_isatty>
    69da:	57fd                	li	a5,-1
    69dc:	00f51763          	bne	a0,a5,69ea <_isatty_r+0x20>
    69e0:	93018793          	addi	a5,gp,-1744 # 200001a0 <errno>
    69e4:	439c                	lw	a5,0(a5)
    69e6:	c391                	beqz	a5,69ea <_isatty_r+0x20>
    69e8:	c01c                	sw	a5,0(s0)
    69ea:	40b2                	lw	ra,12(sp)
    69ec:	4422                	lw	s0,8(sp)
    69ee:	0141                	addi	sp,sp,16
    69f0:	8082                	ret

000069f2 <_lseek_r>:
_lseek_r():
    69f2:	1141                	addi	sp,sp,-16
    69f4:	c422                	sw	s0,8(sp)
    69f6:	842a                	mv	s0,a0
    69f8:	852e                	mv	a0,a1
    69fa:	85b2                	mv	a1,a2
    69fc:	8636                	mv	a2,a3
    69fe:	9201a823          	sw	zero,-1744(gp) # 200001a0 <errno>
    6a02:	c606                	sw	ra,12(sp)
    6a04:	2059                	jal	6a8a <_lseek>
    6a06:	57fd                	li	a5,-1
    6a08:	00f51763          	bne	a0,a5,6a16 <_lseek_r+0x24>
    6a0c:	93018793          	addi	a5,gp,-1744 # 200001a0 <errno>
    6a10:	439c                	lw	a5,0(a5)
    6a12:	c391                	beqz	a5,6a16 <_lseek_r+0x24>
    6a14:	c01c                	sw	a5,0(s0)
    6a16:	40b2                	lw	ra,12(sp)
    6a18:	4422                	lw	s0,8(sp)
    6a1a:	0141                	addi	sp,sp,16
    6a1c:	8082                	ret

00006a1e <__malloc_lock>:
__malloc_lock():
    6a1e:	8082                	ret

00006a20 <__malloc_unlock>:
__malloc_unlock():
    6a20:	8082                	ret

00006a22 <_read_r>:
_read_r():
    6a22:	1141                	addi	sp,sp,-16
    6a24:	c422                	sw	s0,8(sp)
    6a26:	842a                	mv	s0,a0
    6a28:	852e                	mv	a0,a1
    6a2a:	85b2                	mv	a1,a2
    6a2c:	8636                	mv	a2,a3
    6a2e:	9201a823          	sw	zero,-1744(gp) # 200001a0 <errno>
    6a32:	c606                	sw	ra,12(sp)
    6a34:	208d                	jal	6a96 <_read>
    6a36:	57fd                	li	a5,-1
    6a38:	00f51763          	bne	a0,a5,6a46 <_read_r+0x24>
    6a3c:	93018793          	addi	a5,gp,-1744 # 200001a0 <errno>
    6a40:	439c                	lw	a5,0(a5)
    6a42:	c391                	beqz	a5,6a46 <_read_r+0x24>
    6a44:	c01c                	sw	a5,0(s0)
    6a46:	40b2                	lw	ra,12(sp)
    6a48:	4422                	lw	s0,8(sp)
    6a4a:	0141                	addi	sp,sp,16
    6a4c:	8082                	ret

00006a4e <_close>:
_close():
    6a4e:	05800793          	li	a5,88
    6a52:	92f1a823          	sw	a5,-1744(gp) # 200001a0 <errno>
    6a56:	557d                	li	a0,-1
    6a58:	8082                	ret

00006a5a <_fstat>:
_fstat():
    6a5a:	05800793          	li	a5,88
    6a5e:	92f1a823          	sw	a5,-1744(gp) # 200001a0 <errno>
    6a62:	557d                	li	a0,-1
    6a64:	8082                	ret

00006a66 <_getpid>:
_getpid():
    6a66:	05800793          	li	a5,88
    6a6a:	92f1a823          	sw	a5,-1744(gp) # 200001a0 <errno>
    6a6e:	557d                	li	a0,-1
    6a70:	8082                	ret

00006a72 <_isatty>:
_isatty():
    6a72:	05800793          	li	a5,88
    6a76:	92f1a823          	sw	a5,-1744(gp) # 200001a0 <errno>
    6a7a:	4501                	li	a0,0
    6a7c:	8082                	ret

00006a7e <_kill>:
_kill():
    6a7e:	05800793          	li	a5,88
    6a82:	92f1a823          	sw	a5,-1744(gp) # 200001a0 <errno>
    6a86:	557d                	li	a0,-1
    6a88:	8082                	ret

00006a8a <_lseek>:
_lseek():
    6a8a:	05800793          	li	a5,88
    6a8e:	92f1a823          	sw	a5,-1744(gp) # 200001a0 <errno>
    6a92:	557d                	li	a0,-1
    6a94:	8082                	ret

00006a96 <_read>:
_read():
    6a96:	05800793          	li	a5,88
    6a9a:	92f1a823          	sw	a5,-1744(gp) # 200001a0 <errno>
    6a9e:	557d                	li	a0,-1
    6aa0:	8082                	ret

00006aa2 <_sbrk>:
_sbrk():
    6aa2:	85018793          	addi	a5,gp,-1968 # 200000c0 <heap_end.1518>
    6aa6:	439c                	lw	a5,0(a5)
    6aa8:	c791                	beqz	a5,6ab4 <_sbrk+0x12>
    6aaa:	953e                	add	a0,a0,a5
    6aac:	84a1a823          	sw	a0,-1968(gp) # 200000c0 <heap_end.1518>
    6ab0:	853e                	mv	a0,a5
    6ab2:	8082                	ret
    6ab4:	93418793          	addi	a5,gp,-1740 # 200001a4 <_ebss>
    6ab8:	953e                	add	a0,a0,a5
    6aba:	84a1a823          	sw	a0,-1968(gp) # 200000c0 <heap_end.1518>
    6abe:	853e                	mv	a0,a5
    6ac0:	8082                	ret

00006ac2 <_exit>:
_exit():
    6ac2:	a001                	j	6ac2 <_exit>
    6ac4:	0000                	unimp
    6ac6:	3f00                	fld	fs0,56(a4)
    6ac8:	0030                	addi	a2,sp,8
    6aca:	0000                	unimp
    6acc:	2e2e                	fld	ft8,200(sp)
    6ace:	62694c2f          	0x62694c2f
    6ad2:	6172                	flw	ft2,28(sp)
    6ad4:	6972                	flw	fs2,28(sp)
    6ad6:	7365                	lui	t1,0xffff9
    6ad8:	6565732f          	0x6565732f
    6adc:	6572666b          	0x6572666b
    6ae0:	5f65                	li	t5,-7
    6ae2:	696c                	flw	fa1,84(a0)
    6ae4:	7262                	flw	ft4,56(sp)
    6ae6:	7261                	lui	tp,0xffff8
    6ae8:	6569                	lui	a0,0x1a
    6aea:	667a2f73          	csrrs	t5,0x667,s4
    6aee:	735f 6970 632e      	0x632e6970735f
    6af4:	0000                	unimp
    6af6:	0000                	unimp
    6af8:	0000                	unimp
    6afa:	4150                	lw	a2,4(a0)
    6afc:	0000                	unimp
    6afe:	40a0                	lw	s0,64(s1)
    6b00:	0000                	unimp
    6b02:	41a0                	lw	s0,64(a1)
    6b04:	8000                	0x8000
    6b06:	800045bb          	0x800045bb
    6b0a:	          	0xc5bb

00006b0c <GPION>:
    6b0c:	40010800 40010c00 40011000 40011400     ...@...@...@...@

00006b1c <TIMERN>:
    6b1c:	40012c00 40000000 40000400 40000800     .,.@...@...@...@

00006b2c <__func__.3348>:
    6b2c:	5f697073 6f697067 696e695f 00000074     spi_gpio_init...

00006b3c <UARTN>:
    6b3c:	40013800 40004400 40004800 40004c00     .8.@.D.@.H.@.L.@
    6b4c:	ffffe700 ffffe652 ffffe652 ffffe650     ....R...R...P...
    6b5c:	ffffe656 ffffe656 ffffe626 ffffe650     V...V...&...P...
    6b6c:	ffffe656 ffffe626 ffffe656 ffffe650     V...&...V...P...
    6b7c:	ffffe6ee ffffe6ee ffffe6ee ffffe626     ............&...

00006b8c <__clz_tab>:
    6b8c:	02020100 03030303 04040404 04040404     ................
    6b9c:	05050505 05050505 05050505 05050505     ................
    6bac:	06060606 06060606 06060606 06060606     ................
    6bbc:	06060606 06060606 06060606 06060606     ................
    6bcc:	07070707 07070707 07070707 07070707     ................
    6bdc:	07070707 07070707 07070707 07070707     ................
    6bec:	07070707 07070707 07070707 07070707     ................
    6bfc:	07070707 07070707 07070707 07070707     ................
    6c0c:	08080808 08080808 08080808 08080808     ................
    6c1c:	08080808 08080808 08080808 08080808     ................
    6c2c:	08080808 08080808 08080808 08080808     ................
    6c3c:	08080808 08080808 08080808 08080808     ................
    6c4c:	08080808 08080808 08080808 08080808     ................
    6c5c:	08080808 08080808 08080808 08080808     ................
    6c6c:	08080808 08080808 08080808 08080808     ................
    6c7c:	08080808 08080808 08080808 08080808     ................
    6c8c:	7566202c 6974636e 203a6e6f 00000000     , function: ....
    6c9c:	65737361 6f697472 2522206e 66202273     assertion "%s" f
    6cac:	656c6961 66203a64 20656c69 22732522     ailed: file "%s"
    6cbc:	696c202c 2520656e 25732564 00000a73     , line %d%s%s...
    6ccc:	2b302d23 00000020 004c6c68 45676665     #-0+ ...hlL.efgE
    6cdc:	00004746 33323130 37363534 42413938     FG..0123456789AB
    6cec:	46454443 00000000 33323130 37363534     CDEF....01234567
    6cfc:	62613938 66656463 00000000              89abcdef....

00006d08 <__sf_fake_stderr>:
	...

00006d28 <__sf_fake_stdin>:
	...

00006d48 <__sf_fake_stdout>:
	...
