
MASTER.elf:     file format elf32-littleriscv
MASTER.elf
architecture: riscv:rv32, flags 0x00000112:
EXEC_P, HAS_SYMS, D_PAGED
start address 0x00000000

Program Header:
    LOAD off    0x00001000 vaddr 0x00000000 paddr 0x00000000 align 2**12
         filesz 0x000096ec memsz 0x000096ec flags r-x
    LOAD off    0x0000b000 vaddr 0x20000000 paddr 0x000096ec align 2**12
         filesz 0x00000088 memsz 0x00000194 flags rw-
    LOAD off    0x0000b800 vaddr 0x20004800 paddr 0x20004800 align 2**12
         filesz 0x00000000 memsz 0x00000800 flags rw-

Sections:
Idx Name           Size      VMA       LMA       File off  Algn  Flags
  0 .init          00000038  00000000  00000000  00001000  2**1  CONTENTS, ALLOC, LOAD, READONLY, CODE
  1 .vector        00000108  00000038  00000038  00001038  2**1  CONTENTS, ALLOC, LOAD, READONLY, CODE
  2 .text          000095ac  00000140  00000140  00001140  2**3  CONTENTS, ALLOC, LOAD, READONLY, CODE
  3 .fini          00000000  000096ec  000096ec  0000b088  2**0  CONTENTS, ALLOC, LOAD, CODE
  4 .dalign        00000000  20000000  20000000  0000b088  2**0  CONTENTS
  5 .dlalign       00000000  000096ec  000096ec  0000b088  2**0  CONTENTS
  6 .data          00000088  20000000  000096ec  0000b000  2**2  CONTENTS, ALLOC, LOAD, DATA
  7 .bss           0000010c  20000088  00009774  0000b088  2**2  ALLOC
  8 .stack         00000800  20004800  20004800  0000b800  2**0  ALLOC
  9 .debug_info    00018c68  00000000  00000000  0000b088  2**0  CONTENTS, READONLY, DEBUGGING
 10 .debug_abbrev  00003e85  00000000  00000000  00023cf0  2**0  CONTENTS, READONLY, DEBUGGING
 11 .debug_aranges 00000d28  00000000  00000000  00027b78  2**3  CONTENTS, READONLY, DEBUGGING
 12 .debug_ranges  00000b60  00000000  00000000  000288a0  2**3  CONTENTS, READONLY, DEBUGGING
 13 .debug_line    0000dae1  00000000  00000000  00029400  2**0  CONTENTS, READONLY, DEBUGGING
 14 .debug_str     0000412e  00000000  00000000  00036ee1  2**0  CONTENTS, READONLY, DEBUGGING
 15 .comment       00000033  00000000  00000000  0003b00f  2**0  CONTENTS, READONLY
 16 .debug_frame   00003bd4  00000000  00000000  0003b044  2**2  CONTENTS, READONLY, DEBUGGING
 17 .stab          000000b4  00000000  00000000  0003ec18  2**2  CONTENTS, READONLY, DEBUGGING
 18 .stabstr       00000183  00000000  00000000  0003eccc  2**0  CONTENTS, READONLY, DEBUGGING
SYMBOL TABLE:
00000000 l    d  .init	00000000 .init
00000038 l    d  .vector	00000000 .vector
00000140 l    d  .text	00000000 .text
000096ec l    d  .fini	00000000 .fini
20000000 l    d  .dalign	00000000 .dalign
000096ec l    d  .dlalign	00000000 .dlalign
20000000 l    d  .data	00000000 .data
20000088 l    d  .bss	00000000 .bss
20004800 l    d  .stack	00000000 .stack
00000000 l    d  .debug_info	00000000 .debug_info
00000000 l    d  .debug_abbrev	00000000 .debug_abbrev
00000000 l    d  .debug_aranges	00000000 .debug_aranges
00000000 l    d  .debug_ranges	00000000 .debug_ranges
00000000 l    d  .debug_line	00000000 .debug_line
00000000 l    d  .debug_str	00000000 .debug_str
00000000 l    d  .comment	00000000 .comment
00000000 l    d  .debug_frame	00000000 .debug_frame
00000000 l    d  .stab	00000000 .stab
00000000 l    d  .stabstr	00000000 .stabstr
00000000 l    df *ABS*	00000000 ./Libraries/wch_libraries/Startup/startup_ch32v10x.o
00000038 l       .vector	00000000 _vector_base
00000000 l    df *ABS*	00000000 isr.c
00000000 l    df *ABS*	00000000 main.c
20000095 l     O .bss	00000001 uart_num.5961
00000000 l    df *ABS*	00000000 ch32v10x_dma.c
00000000 l    df *ABS*	00000000 ch32v10x_exti.c
00000000 l    df *ABS*	00000000 ch32v10x_gpio.c
00000000 l    df *ABS*	00000000 ch32v10x_misc.c
00001216 l     F .text	00000032 NVIC_EnableIRQ
00001248 l     F .text	00000032 NVIC_DisableIRQ
0000127a l     F .text	0000002a NVIC_SetPriority
00000000 l    df *ABS*	00000000 ch32v10x_rcc.c
20000000 l     O .data	00000010 APBAHBPrescTable
20000070 l     O .data	00000004 ADCPrescTable
00000000 l    df *ABS*	00000000 ch32v10x_spi.c
00000000 l    df *ABS*	00000000 ch32v10x_tim.c
00000000 l    df *ABS*	00000000 ch32v10x_usart.c
00000000 l    df *ABS*	00000000 SEEKFREE_18TFT.c
00008d00 l     O .text	0000000f __func__.3212
00000000 l    df *ABS*	00000000 SEEKFREE_MT9V03X.c
00000000 l    df *ABS*	00000000 SEEKFREE_PRINTF.c
00000000 l    df *ABS*	00000000 SEEKFREE_UART_7725.c
00000000 l    df *ABS*	00000000 zf_gpio.c
00000000 l    df *ABS*	00000000 zf_nvic.c
00000000 l    df *ABS*	00000000 zf_pwm.c
00000000 l    df *ABS*	00000000 zf_qtimer.c
00000000 l    df *ABS*	00000000 zf_spi.c
00009470 l     O .text	0000000e __func__.3348
00000000 l    df *ABS*	00000000 zf_systick.c
00000000 l    df *ABS*	00000000 zf_uart.c
00000000 l    df *ABS*	00000000 board.c
00000000 l    df *ABS*	00000000 clock_config.c
00005178 l     F .text	00000140 SetSysClock
00000000 l    df *ABS*	00000000 Motor.c
00000000 l    df *ABS*	00000000 PID.c
00000000 l    df *ABS*	00000000 adddf3.c
00000000 l    df *ABS*	00000000 eqdf2.c
00000000 l    df *ABS*	00000000 ledf2.c
00000000 l    df *ABS*	00000000 muldf3.c
00000000 l    df *ABS*	00000000 subdf3.c
00000000 l    df *ABS*	00000000 fixdfsi.c
00000000 l    df *ABS*	00000000 floatsidf.c
00000000 l    df *ABS*	00000000 addsf3.c
00000000 l    df *ABS*	00000000 gesf2.c
00000000 l    df *ABS*	00000000 lesf2.c
00000000 l    df *ABS*	00000000 mulsf3.c
00000000 l    df *ABS*	00000000 subsf3.c
00000000 l    df *ABS*	00000000 fixsfsi.c
00000000 l    df *ABS*	00000000 floatsisf.c
00000000 l    df *ABS*	00000000 extendsfdf2.c
00000000 l    df *ABS*	00000000 libgcc2.c
00000000 l    df *ABS*	00000000 assert.c
00000000 l    df *ABS*	00000000 fprintf.c
00000000 l    df *ABS*	00000000 memcpy.c
00000000 l    df *ABS*	00000000 nano-vfprintf.c
00007a40 l     F .text	00000028 __sfputc_r
00000000 l    df *ABS*	00000000 nano-vfprintf_i.c
00000000 l    df *ABS*	00000000 wbuf.c
00000000 l    df *ABS*	00000000 wsetup.c
00000000 l    df *ABS*	00000000 abort.c
00000000 l    df *ABS*	00000000 fflush.c
00000000 l    df *ABS*	00000000 findfp.c
00008478 l     F .text	0000006a std
00000000 l    df *ABS*	00000000 fwalk.c
00000000 l    df *ABS*	00000000 makebuf.c
00000000 l    df *ABS*	00000000 memchr.c
00000000 l    df *ABS*	00000000 nano-mallocr.c
00000000 l    df *ABS*	00000000 nano-mallocr.c
00000000 l    df *ABS*	00000000 sbrkr.c
00000000 l    df *ABS*	00000000 signal.c
00000000 l    df *ABS*	00000000 signalr.c
00000000 l    df *ABS*	00000000 stdio.c
00000000 l    df *ABS*	00000000 writer.c
00000000 l    df *ABS*	00000000 closer.c
00000000 l    df *ABS*	00000000 fstatr.c
00000000 l    df *ABS*	00000000 isattyr.c
00000000 l    df *ABS*	00000000 lseekr.c
00000000 l    df *ABS*	00000000 mlock.c
00000000 l    df *ABS*	00000000 readr.c
00000000 l    df *ABS*	00000000 close.c
00000000 l    df *ABS*	00000000 fstat.c
00000000 l    df *ABS*	00000000 getpid.c
00000000 l    df *ABS*	00000000 isatty.c
00000000 l    df *ABS*	00000000 kill.c
00000000 l    df *ABS*	00000000 lseek.c
00000000 l    df *ABS*	00000000 read.c
00000000 l    df *ABS*	00000000 sbrk.c
200000b4 l     O .bss	00000004 heap_end.1518
00000000 l    df *ABS*	00000000 _exit.c
00000000 l    df *ABS*	00000000 SEEKFREE_FONT.c
00000000 l    df *ABS*	00000000 libgcc2.c
00000000 l    df *ABS*	00000000 impure.c
20000010 l     O .data	00000060 impure_data
00000000 l    df *ABS*	00000000 common.c
00000000 l    df *ABS*	00000000 reent.c
00001e7a g     F .text	0000003c TIM_TimeBaseStructInit
00000232 g     F .text	00000016 EXTI2_IRQHandler
00008b28 g     F .text	00000028 _isatty_r
00008bc4 g     F .text	0000000c _getpid
00008b50 g     F .text	0000002c _lseek_r
2000008a g     O .bss	00000002 slave_encoder_left
00003d54 g     F .text	00000082 gpio_interrupt_init
00005e5c g     F .text	0000006a .hidden __eqdf2
000089c2 g     F .text	0000002a _kill_r
20000870 g       .data	00000000 __global_pointer$
00000354 g     F .text	00000090 TIM1_CC_IRQHandler
00008a6c g     F .text	00000036 __sseek
00008532 g     F .text	0000006c __sinit
000080fc g     F .text	000000c0 __swbuf_r
00000530 g     F .text	00000008 HardFault_Handler
000084ec g     F .text	00000046 __sfmoreglue
00008b7e g     F .text	00000002 __malloc_unlock
000053c6 g     F .text	0000014a Duty_Single
00002046 g     F .text	0000004c TIM_OC1PreloadConfig
000012a4 g     F .text	000000c4 NVIC_Init
200000a8 g     O .bss	00000004 sys_clk
00005510 g     F .text	0000004a Duty_All
00000520 g     F .text	00000010 NMI_Handler
000076e0 g     F .text	00000062 .hidden __fixsfsi
20000124 g     O .bss	00000030 Pid_rl
00000248 g     F .text	00000010 EXTI3_IRQHandler
20000074 g     O .data	00000004 camera_type
0000295e g     F .text	00000074 lcd_writedata_16bit
0000347e g     F .text	00000088 printf_reverse_order
00002720 g     F .text	00000046 USART_GetFlagStatus
00008afe g     F .text	0000002a _fstat_r
00009460 g     O .text	00000010 TIMERN
200000f4 g     O .bss	00000030 Pid_fr
20000190 g     O .bss	00000004 errno
20000088 g       .bss	00000000 _sbss
00000800 g       *ABS*	00000000 __stack_size
200000b8 g     O .bss	0000000b temp_buff
00007358 g     F .text	00000388 .hidden __subsf3
20000088 g     O .bss	00000001 uart_flag
200000a5 g     O .bss	00000001 ov7725_uart_finish_flag
0000098a g     F .text	00000026 Encoder_Init_Master
00001f0e g     F .text	00000060 TIM_CtrlPWMOutputs
0000798a g     F .text	000000b6 memcpy
000084e2 g     F .text	0000000a _cleanup_r
00001038 g     F .text	0000013c GPIO_PinRemapConfig
00006bda g     F .text	00000072 .hidden __floatsidf
00005ec6 g     F .text	000000b6 .hidden __ltdf2
000006d8 g     F .text	000002b2 EXTI0_IRQHandler
00000538 g     F .text	00000086 get_slave_data
00001eb6 g     F .text	00000058 TIM_Cmd
00002138 g     F .text	0000005a TIM_OC4PreloadConfig
000026fa g     F .text	00000026 USART_ReceiveData
2000008c g     O .bss	00000002 slave_encoder_right
00008954 g     F .text	00000062 _raise_r
00008bb8 g     F .text	0000000c _fstat
00004bea g     F .text	00000136 spi_init
0000792a g     F .text	0000003a __assert_func
00000038 g       .init	00000000 _einit
00003e90 g     F .text	00000028 sys_recover_irq
00002346 g     F .text	0000002e TIM_ClearITPendingBit
0000703c g     F .text	0000008c .hidden __lesf2
00001582 g     F .text	00000046 RCC_APB2PeriphClockCmd
000032fc g     F .text	00000036 mt9v03x_vsync
00008d10 g     O .text	000005f0 tft_ascii
00000288 g     F .text	00000010 ADC1_2_IRQHandler
000089ec g     F .text	00000002 _getpid_r
00000dd6 g     F .text	0000022a GPIO_Init
00003dd6 g     F .text	00000098 nvic_init
000030f8 g     F .text	00000194 lcd_showfloat
000025a8 g     F .text	00000060 USART_Cmd
00002e38 g     F .text	000000cc lcd_showchar
0000892c g     F .text	00000028 _sbrk_r
00001b80 g     F .text	000001b0 TIM_OC3Init
00008b80 g     F .text	0000002c _read_r
00002868 g     F .text	0000004e USART_ClearITPendingBit
00007808 g     F .text	000000ac .hidden __extendsfdf2
2000007c g     O .data	00000008 SPIN
000029d2 g     F .text	00000124 lcd_set_region
000015c8 g     F .text	00000046 RCC_APB1PeriphClockCmd
0000572c g     F .text	00000730 .hidden __adddf3
00008bd0 g     F .text	0000000c _isatty
00004736 g     F .text	00000170 timer_gpio_quad_init
20000084 g     O .data	00000004 _global_impure_ptr
00003360 g     F .text	0000011e number_conversion_ascii
000005be g     F .text	000000cc data_analysis
000004d6 g     F .text	0000004a DMA1_Channel4_IRQHandler
2000008e g     O .bss	00000002 slave_position
00002af6 g     F .text	00000062 lcd_clear
00002234 g     F .text	0000004c TIM_OC3FastConfig
000082c8 g     F .text	0000000e abort
00008c00 g     F .text	00000020 _sbrk
20000094 g     O .bss	00000001 show_flag
00000b5c g     F .text	0000005c DMA_GetFlagStatus
0000068a g     F .text	0000004e USART3_IRQHandler
00000db6 g     F .text	00000020 EXTI_ClearITPendingBit
20000194 g       .bss	00000000 _ebss
00002766 g     F .text	00000102 USART_GetITStatus
0000185a g     F .text	00000170 TIM_OC1Init
000020ec g     F .text	0000004c TIM_OC3PreloadConfig
0000555a g     F .text	00000078 PID_Init
00006b72 g     F .text	00000068 .hidden __fixdfsi
00004de2 g     F .text	00000094 systick_delay
00006fb6 g     F .text	00000086 .hidden __gtsf2
00003a5e g     F .text	00000070 ov7725_cof_uart_interrupt
00009480 g     O .text	00000010 UARTN
00004280 g     F .text	000003c4 pwm_init
00007964 g     F .text	00000026 fprintf
0000043c g     F .text	00000030 TIM4_IRQHandler
00005ec6 g     F .text	000000b6 .hidden __ledf2
00001000 g     F .text	00000038 GPIO_WriteBit
200000a3 g     O .bss	00000001 ov7725_uart_receive_num
00005336 g     F .text	00000090 Duty_Init
0000968c g     O .text	00000020 __sf_fake_stderr
20000194 g       .bss	00000000 end
000048a6 g     F .text	0000015e timer_quad_init
000022d6 g     F .text	00000070 TIM_GetITStatus
00001368 g     F .text	0000021a RCC_GetClocksFreq
000028b6 g     F .text	00000052 lcd_writeIndex
000078b4 g     F .text	00000076 .hidden __clzsi2
00007a68 g     F .text	00000044 __sfputs_r
00004f62 g     F .text	00000106 uart_init
000087a0 g     F .text	0000001a memchr
00002374 g     F .text	00000234 USART_Init
000087ba g     F .text	000000a4 _free_r
0000040c g     F .text	00000030 TIM3_IRQHandler
00003ef4 g     F .text	00000028 EnableGlobalIRQ
00004e76 g     F .text	000000ec uart_gpio_init
000002fc g     F .text	00000058 TIM1_TRG_COM_IRQHandler
00002192 g     F .text	0000004c TIM_OC1FastConfig
00003b04 g     F .text	0000002e ov7725_uart_dma
00000000 g       .init	00000000 _start
20000092 g     O .bss	00000002 master_encoder_right
00008be8 g     F .text	0000000c _lseek
200000a4 g     O .bss	00000001 ov7725_uart_receive_flag
00002092 g     F .text	0000005a TIM_OC2PreloadConfig
00003e6e g     F .text	00000022 close_all_irq
00007742 g     F .text	000000c6 .hidden __floatsisf
00000278 g     F .text	00000010 EXTI15_10_IRQHandler
00009450 g     O .text	00000010 GPION
000019ca g     F .text	000001b6 TIM_OC2Init
00002608 g     F .text	000000c4 USART_ITConfig
00000bf0 g     F .text	00000170 EXTI_Init
00008ad6 g     F .text	00000028 _close_r
20000000 g       .dalign	00000000 _data_vma
00001d30 g     F .text	0000014a TIM_OC4Init
000081bc g     F .text	0000010c __swsetup_r
00000268 g     F .text	00000010 EXTI9_5_IRQHandler
0000859e g     F .text	000000a0 __sfp
00001174 g     F .text	000000a2 GPIO_EXTILineConfig
000050b8 g     F .text	00000048 board_init
00005f7c g     F .text	000004b8 .hidden __muldf3
000089ee g     F .text	00000030 __sread
00008b7c g     F .text	00000002 __malloc_lock
00008412 g     F .text	00000066 _fflush_r
00000d60 g     F .text	00000056 EXTI_GetITStatus
000096ac g     O .text	00000020 __sf_fake_stdin
00003332 g     F .text	0000002e mt9v03x_dma
00000140 g     F .text	000000a8 memset
00002b58 g     F .text	000002e0 lcd_init
000009b0 g     F .text	00000132 main
0000703c g     F .text	0000008c .hidden __ltsf2
00003506 g     F .text	00000558 zf_sprintf
00008aa2 g     F .text	00000006 __sclose
0000885e g     F .text	000000ce _malloc_r
000021de g     F .text	00000056 TIM_OC2FastConfig
00000258 g     F .text	00000010 EXTI4_IRQHandler
000070c8 g     F .text	00000290 .hidden __mulsf3
00001706 g     F .text	0000005a SPI_Cmd
00003eb8 g     F .text	0000003c DisableGlobalIRQ
000052b8 g     F .text	0000007e SystemInit
00005e5c g     F .text	0000006a .hidden __nedf2
00009510 g     O .text	00000100 .hidden __clz_tab
00000000 g       .init	00000000 _sinit
00006fb6 g     F .text	00000086 .hidden __gesf2
00008aa8 g     F .text	0000002e _write_r
2000009b g     O .bss	00000001 receive_num
20000184 g     O .bss	0000000c irq_status
00007d4c g     F .text	0000010c _printf_common
20000078 g     O .data	00000004 _impure_ptr
000002cc g     F .text	00000030 TIM1_UP_IRQHandler
20000098 g     O .bss	00000003 receive
000082d6 g     F .text	0000013c __sflush_r
00003ace g     F .text	00000036 ov7725_uart_vsync
20000090 g     O .bss	00000002 master_encoder_left
000055d2 g     F .text	0000015a PID_incCtrl
000003e4 g     F .text	00000028 TIM2_IRQHandler
20005000 g       .stack	00000000 _eusrstack
200000c4 g     O .bss	00000030 Pid_fl
00002f80 g     F .text	00000178 lcd_showint16
2000009c g     O .bss	00000001 uart_receive_flag
00004644 g     F .text	000000f2 pwm_duty
0000328c g     F .text	00000070 mt9v03x_uart_callback
2000009d g     O .bss	00000001 mt9v03x_finish_flag
00000298 g     F .text	00000034 TIM1_BRK_IRQHandler
000086aa g     F .text	00000058 __swhatbuf_r
000026cc g     F .text	0000002e USART_SendData
000001e8 g     F .text	0000004a EXTI1_IRQHandler
00005100 g     F .text	00000078 _write
20000088 g       .data	00000000 _edata
00002908 g     F .text	00000056 lcd_writeData
00001760 g     F .text	000000fa TIM_TimeBaseInit
000096ec g       .dlalign	00000000 _data_lma
00002f04 g     F .text	0000007c lcd_showstr
0000047c g     F .text	0000005a USART2_IRQHandler
00008a1e g     F .text	0000004e __swrite
00007964 g     F .text	00000026 fiprintf
00007aac g     F .text	000002a0 _vfiprintf_r
00004d20 g     F .text	000000c2 spi_mosi
0000863e g     F .text	0000006c _fwalk_reent
00008bdc g     F .text	0000000c _kill
000096cc g     O .text	00000020 __sf_fake_stdout
00000bb8 g     F .text	00000038 DMA_ClearFlag
00008bf4 g     F .text	0000000c _read
00000ae2  w      .text	00000000 handle_reset
00003f1c g     F .text	00000364 pwm_gpio_init
00008c20 g     F .text	00000002 _exit
00004a04 g     F .text	00000032 timer_quad_get
20000154 g     O .bss	00000030 Pid_rr
0000046c g     F .text	00000010 USART1_IRQHandler
00008702 g     F .text	0000009e __smakebuf_r
00007e58 g     F .text	000002a4 _printf_i
200000b0 g     O .bss	00000004 __malloc_sbrk_start
00005068 g     F .text	00000050 uart_rx_irq
00003cd6 g     F .text	0000007e gpio_set
0000160e g     F .text	000000f8 SPI_Init
00004a5c g     F .text	0000018e spi_gpio_init
00004a36 g     F .text	00000026 timer_quad_clear
00003b32 g     F .text	000001a4 gpio_init
200000ac g     O .bss	00000004 __malloc_free_list
00001f6e g     F .text	000000d8 TIM_EncoderInterfaceConfig
00006434 g     F .text	0000073e .hidden __subdf3
00007aac g     F .text	000002a0 _vfprintf_r
00002280 g     F .text	00000056 TIM_OC4FastConfig
00006c4c g     F .text	0000036a .hidden __addsf3
200000a0 g     O .bss	00000003 ov7725_uart_receive
00008bac g     F .text	0000000c _close
000089b6 g     F .text	0000000c raise



Disassembly of section .init:

00000000 <_sinit>:
_start():
C:\Users\windows\Desktop\A_Dual\A_Dual1\Dual-core_Communication_Demo\Dual-core_Communication_Demo\MASTER\obj/../Libraries/wch_libraries/Startup/startup_ch32v10x.S:13

	.section	.init,"ax",@progbits
	.global	_start
	.align	1
_start:
	j	handle_reset
   0:	2e30006f          	j	ae2 <handle_reset>
   4:	00000013          	nop
   8:	00000013          	nop
   c:	00000013          	nop
  10:	00000013          	nop
  14:	00000013          	nop
  18:	00000013          	nop
  1c:	00000013          	nop
  20:	00000013          	nop
  24:	00000013          	nop
  28:	00000013          	nop
  2c:	00000013          	nop
  30:	00000013          	nop
  34:	00100073          	ebreak

Disassembly of section .vector:

00000038 <_vector_base>:
_vector_base():
C:\Users\windows\Desktop\A_Dual\A_Dual1\Dual-core_Communication_Demo\Dual-core_Communication_Demo\MASTER\obj/../Libraries/wch_libraries/Startup/startup_ch32v10x.S:31
	.word 0x00100073
    .section    .vector,"ax",@progbits
    .align  1
_vector_base:
    .option norvc;
        j   _start
  38:	fc9ff06f          	j	0 <_sinit>
  3c:	0000                	unimp
  3e:	0000                	unimp
C:\Users\windows\Desktop\A_Dual\A_Dual1\Dual-core_Communication_Demo\Dual-core_Communication_Demo\MASTER\obj/../Libraries/wch_libraries/Startup/startup_ch32v10x.S:33
    .word   0
        j   NMI_Handler                 /* NMI Handler */
  40:	4e00006f          	j	520 <NMI_Handler>
C:\Users\windows\Desktop\A_Dual\A_Dual1\Dual-core_Communication_Demo\Dual-core_Communication_Demo\MASTER\obj/../Libraries/wch_libraries/Startup/startup_ch32v10x.S:34
        j   HardFault_Handler           /* Hard Fault Handler */
  44:	4ec0006f          	j	530 <HardFault_Handler>
	...
C:\Users\windows\Desktop\A_Dual\A_Dual1\Dual-core_Communication_Demo\Dual-core_Communication_Demo\MASTER\obj/../Libraries/wch_libraries/Startup/startup_ch32v10x.S:43
    .word   0
    .word   0
    .word   0
    .word   0
    .word   0
        j   SysTick_Handler            /* SysTick Handler */
  68:	f99ff06f          	j	0 <_sinit>
  6c:	0000                	unimp
  6e:	0000                	unimp
C:\Users\windows\Desktop\A_Dual\A_Dual1\Dual-core_Communication_Demo\Dual-core_Communication_Demo\MASTER\obj/../Libraries/wch_libraries/Startup/startup_ch32v10x.S:45
    .word   0
        j   SW_handler                 /* SW Handler */
  70:	f91ff06f          	j	0 <_sinit>
  74:	0000                	unimp
  76:	0000                	unimp
C:\Users\windows\Desktop\A_Dual\A_Dual1\Dual-core_Communication_Demo\Dual-core_Communication_Demo\MASTER\obj/../Libraries/wch_libraries/Startup/startup_ch32v10x.S:48
    .word   0
    /* External Interrupts */
        j   WWDG_IRQHandler            /* Window Watchdog */
  78:	f89ff06f          	j	0 <_sinit>
C:\Users\windows\Desktop\A_Dual\A_Dual1\Dual-core_Communication_Demo\Dual-core_Communication_Demo\MASTER\obj/../Libraries/wch_libraries/Startup/startup_ch32v10x.S:49
        j   PVD_IRQHandler             /* PVD through EXTI Line detect */
  7c:	f85ff06f          	j	0 <_sinit>
C:\Users\windows\Desktop\A_Dual\A_Dual1\Dual-core_Communication_Demo\Dual-core_Communication_Demo\MASTER\obj/../Libraries/wch_libraries/Startup/startup_ch32v10x.S:50
        j   TAMPER_IRQHandler          /* TAMPER */
  80:	f81ff06f          	j	0 <_sinit>
C:\Users\windows\Desktop\A_Dual\A_Dual1\Dual-core_Communication_Demo\Dual-core_Communication_Demo\MASTER\obj/../Libraries/wch_libraries/Startup/startup_ch32v10x.S:51
        j   RTC_IRQHandler             /* RTC */
  84:	f7dff06f          	j	0 <_sinit>
C:\Users\windows\Desktop\A_Dual\A_Dual1\Dual-core_Communication_Demo\Dual-core_Communication_Demo\MASTER\obj/../Libraries/wch_libraries/Startup/startup_ch32v10x.S:52
        j   FLASH_IRQHandler           /* Flash */
  88:	f79ff06f          	j	0 <_sinit>
C:\Users\windows\Desktop\A_Dual\A_Dual1\Dual-core_Communication_Demo\Dual-core_Communication_Demo\MASTER\obj/../Libraries/wch_libraries/Startup/startup_ch32v10x.S:53
        j   RCC_IRQHandler             /* RCC */
  8c:	f75ff06f          	j	0 <_sinit>
C:\Users\windows\Desktop\A_Dual\A_Dual1\Dual-core_Communication_Demo\Dual-core_Communication_Demo\MASTER\obj/../Libraries/wch_libraries/Startup/startup_ch32v10x.S:54
        j   EXTI0_IRQHandler           /* EXTI Line 0 */
  90:	6480006f          	j	6d8 <EXTI0_IRQHandler>
C:\Users\windows\Desktop\A_Dual\A_Dual1\Dual-core_Communication_Demo\Dual-core_Communication_Demo\MASTER\obj/../Libraries/wch_libraries/Startup/startup_ch32v10x.S:55
        j   EXTI1_IRQHandler           /* EXTI Line 1 */
  94:	1540006f          	j	1e8 <EXTI1_IRQHandler>
C:\Users\windows\Desktop\A_Dual\A_Dual1\Dual-core_Communication_Demo\Dual-core_Communication_Demo\MASTER\obj/../Libraries/wch_libraries/Startup/startup_ch32v10x.S:56
        j   EXTI2_IRQHandler           /* EXTI Line 2 */
  98:	19a0006f          	j	232 <EXTI2_IRQHandler>
C:\Users\windows\Desktop\A_Dual\A_Dual1\Dual-core_Communication_Demo\Dual-core_Communication_Demo\MASTER\obj/../Libraries/wch_libraries/Startup/startup_ch32v10x.S:57
        j   EXTI3_IRQHandler           /* EXTI Line 3 */
  9c:	1ac0006f          	j	248 <EXTI3_IRQHandler>
C:\Users\windows\Desktop\A_Dual\A_Dual1\Dual-core_Communication_Demo\Dual-core_Communication_Demo\MASTER\obj/../Libraries/wch_libraries/Startup/startup_ch32v10x.S:58
        j   EXTI4_IRQHandler           /* EXTI Line 4 */
  a0:	1b80006f          	j	258 <EXTI4_IRQHandler>
C:\Users\windows\Desktop\A_Dual\A_Dual1\Dual-core_Communication_Demo\Dual-core_Communication_Demo\MASTER\obj/../Libraries/wch_libraries/Startup/startup_ch32v10x.S:59
        j   DMA1_Channel1_IRQHandler   /* DMA1 Channel 1 */
  a4:	f5dff06f          	j	0 <_sinit>
C:\Users\windows\Desktop\A_Dual\A_Dual1\Dual-core_Communication_Demo\Dual-core_Communication_Demo\MASTER\obj/../Libraries/wch_libraries/Startup/startup_ch32v10x.S:60
        j   DMA1_Channel2_IRQHandler   /* DMA1 Channel 2 */
  a8:	f59ff06f          	j	0 <_sinit>
C:\Users\windows\Desktop\A_Dual\A_Dual1\Dual-core_Communication_Demo\Dual-core_Communication_Demo\MASTER\obj/../Libraries/wch_libraries/Startup/startup_ch32v10x.S:61
        j   DMA1_Channel3_IRQHandler   /* DMA1 Channel 3 */
  ac:	f55ff06f          	j	0 <_sinit>
C:\Users\windows\Desktop\A_Dual\A_Dual1\Dual-core_Communication_Demo\Dual-core_Communication_Demo\MASTER\obj/../Libraries/wch_libraries/Startup/startup_ch32v10x.S:62
        j   DMA1_Channel4_IRQHandler   /* DMA1 Channel 4 */
  b0:	4260006f          	j	4d6 <DMA1_Channel4_IRQHandler>
C:\Users\windows\Desktop\A_Dual\A_Dual1\Dual-core_Communication_Demo\Dual-core_Communication_Demo\MASTER\obj/../Libraries/wch_libraries/Startup/startup_ch32v10x.S:63
        j   DMA1_Channel5_IRQHandler   /* DMA1 Channel 5 */
  b4:	f4dff06f          	j	0 <_sinit>
C:\Users\windows\Desktop\A_Dual\A_Dual1\Dual-core_Communication_Demo\Dual-core_Communication_Demo\MASTER\obj/../Libraries/wch_libraries/Startup/startup_ch32v10x.S:64
        j   DMA1_Channel6_IRQHandler   /* DMA1 Channel 6 */
  b8:	f49ff06f          	j	0 <_sinit>
C:\Users\windows\Desktop\A_Dual\A_Dual1\Dual-core_Communication_Demo\Dual-core_Communication_Demo\MASTER\obj/../Libraries/wch_libraries/Startup/startup_ch32v10x.S:65
        j   DMA1_Channel7_IRQHandler   /* DMA1 Channel 7 */
  bc:	f45ff06f          	j	0 <_sinit>
C:\Users\windows\Desktop\A_Dual\A_Dual1\Dual-core_Communication_Demo\Dual-core_Communication_Demo\MASTER\obj/../Libraries/wch_libraries/Startup/startup_ch32v10x.S:66
        j   ADC1_2_IRQHandler          /* ADC1_2 */
  c0:	1c80006f          	j	288 <ADC1_2_IRQHandler>
	...
C:\Users\windows\Desktop\A_Dual\A_Dual1\Dual-core_Communication_Demo\Dual-core_Communication_Demo\MASTER\obj/../Libraries/wch_libraries/Startup/startup_ch32v10x.S:71
        .word   0
        .word   0
        .word   0
        .word   0
        j   EXTI9_5_IRQHandler         /* EXTI Line 9..5 */
  d4:	1940006f          	j	268 <EXTI9_5_IRQHandler>
C:\Users\windows\Desktop\A_Dual\A_Dual1\Dual-core_Communication_Demo\Dual-core_Communication_Demo\MASTER\obj/../Libraries/wch_libraries/Startup/startup_ch32v10x.S:72
        j   TIM1_BRK_IRQHandler        /* TIM1 Break */
  d8:	1c00006f          	j	298 <TIM1_BRK_IRQHandler>
C:\Users\windows\Desktop\A_Dual\A_Dual1\Dual-core_Communication_Demo\Dual-core_Communication_Demo\MASTER\obj/../Libraries/wch_libraries/Startup/startup_ch32v10x.S:73
        j   TIM1_UP_IRQHandler         /* TIM1 Update */
  dc:	1f00006f          	j	2cc <TIM1_UP_IRQHandler>
C:\Users\windows\Desktop\A_Dual\A_Dual1\Dual-core_Communication_Demo\Dual-core_Communication_Demo\MASTER\obj/../Libraries/wch_libraries/Startup/startup_ch32v10x.S:74
        j   TIM1_TRG_COM_IRQHandler    /* TIM1 Trigger and Commutation */
  e0:	21c0006f          	j	2fc <TIM1_TRG_COM_IRQHandler>
C:\Users\windows\Desktop\A_Dual\A_Dual1\Dual-core_Communication_Demo\Dual-core_Communication_Demo\MASTER\obj/../Libraries/wch_libraries/Startup/startup_ch32v10x.S:75
        j   TIM1_CC_IRQHandler         /* TIM1 Capture Compare */
  e4:	2700006f          	j	354 <TIM1_CC_IRQHandler>
C:\Users\windows\Desktop\A_Dual\A_Dual1\Dual-core_Communication_Demo\Dual-core_Communication_Demo\MASTER\obj/../Libraries/wch_libraries/Startup/startup_ch32v10x.S:76
        j   TIM2_IRQHandler            /* TIM2 */
  e8:	2fc0006f          	j	3e4 <TIM2_IRQHandler>
C:\Users\windows\Desktop\A_Dual\A_Dual1\Dual-core_Communication_Demo\Dual-core_Communication_Demo\MASTER\obj/../Libraries/wch_libraries/Startup/startup_ch32v10x.S:77
        j   TIM3_IRQHandler            /* TIM3 */
  ec:	3200006f          	j	40c <TIM3_IRQHandler>
C:\Users\windows\Desktop\A_Dual\A_Dual1\Dual-core_Communication_Demo\Dual-core_Communication_Demo\MASTER\obj/../Libraries/wch_libraries/Startup/startup_ch32v10x.S:78
        j   TIM4_IRQHandler            /* TIM4 */
  f0:	34c0006f          	j	43c <TIM4_IRQHandler>
C:\Users\windows\Desktop\A_Dual\A_Dual1\Dual-core_Communication_Demo\Dual-core_Communication_Demo\MASTER\obj/../Libraries/wch_libraries/Startup/startup_ch32v10x.S:79
        j   I2C1_EV_IRQHandler         /* I2C1 Event */
  f4:	f0dff06f          	j	0 <_sinit>
C:\Users\windows\Desktop\A_Dual\A_Dual1\Dual-core_Communication_Demo\Dual-core_Communication_Demo\MASTER\obj/../Libraries/wch_libraries/Startup/startup_ch32v10x.S:80
        j   I2C1_ER_IRQHandler         /* I2C1 Error */
  f8:	f09ff06f          	j	0 <_sinit>
C:\Users\windows\Desktop\A_Dual\A_Dual1\Dual-core_Communication_Demo\Dual-core_Communication_Demo\MASTER\obj/../Libraries/wch_libraries/Startup/startup_ch32v10x.S:81
        j   I2C2_EV_IRQHandler         /* I2C2 Event */
  fc:	f05ff06f          	j	0 <_sinit>
C:\Users\windows\Desktop\A_Dual\A_Dual1\Dual-core_Communication_Demo\Dual-core_Communication_Demo\MASTER\obj/../Libraries/wch_libraries/Startup/startup_ch32v10x.S:82
        j   I2C2_ER_IRQHandler         /* I2C2 Error */
 100:	f01ff06f          	j	0 <_sinit>
C:\Users\windows\Desktop\A_Dual\A_Dual1\Dual-core_Communication_Demo\Dual-core_Communication_Demo\MASTER\obj/../Libraries/wch_libraries/Startup/startup_ch32v10x.S:83
        j   SPI1_IRQHandler            /* SPI1 */
 104:	efdff06f          	j	0 <_sinit>
C:\Users\windows\Desktop\A_Dual\A_Dual1\Dual-core_Communication_Demo\Dual-core_Communication_Demo\MASTER\obj/../Libraries/wch_libraries/Startup/startup_ch32v10x.S:84
        j   SPI2_IRQHandler            /* SPI2 */
 108:	ef9ff06f          	j	0 <_sinit>
C:\Users\windows\Desktop\A_Dual\A_Dual1\Dual-core_Communication_Demo\Dual-core_Communication_Demo\MASTER\obj/../Libraries/wch_libraries/Startup/startup_ch32v10x.S:85
        j   USART1_IRQHandler          /* USART1 */
 10c:	3600006f          	j	46c <USART1_IRQHandler>
C:\Users\windows\Desktop\A_Dual\A_Dual1\Dual-core_Communication_Demo\Dual-core_Communication_Demo\MASTER\obj/../Libraries/wch_libraries/Startup/startup_ch32v10x.S:86
        j   USART2_IRQHandler          /* USART2 */
 110:	36c0006f          	j	47c <USART2_IRQHandler>
C:\Users\windows\Desktop\A_Dual\A_Dual1\Dual-core_Communication_Demo\Dual-core_Communication_Demo\MASTER\obj/../Libraries/wch_libraries/Startup/startup_ch32v10x.S:87
        j   USART3_IRQHandler          /* USART3 */
 114:	5760006f          	j	68a <USART3_IRQHandler>
C:\Users\windows\Desktop\A_Dual\A_Dual1\Dual-core_Communication_Demo\Dual-core_Communication_Demo\MASTER\obj/../Libraries/wch_libraries/Startup/startup_ch32v10x.S:88
        j   EXTI15_10_IRQHandler       /* EXTI Line 15..10 */
 118:	1600006f          	j	278 <EXTI15_10_IRQHandler>
C:\Users\windows\Desktop\A_Dual\A_Dual1\Dual-core_Communication_Demo\Dual-core_Communication_Demo\MASTER\obj/../Libraries/wch_libraries/Startup/startup_ch32v10x.S:89
        j   RTCAlarm_IRQHandler        /* RTC Alarm through EXTI Line */
 11c:	ee5ff06f          	j	0 <_sinit>
C:\Users\windows\Desktop\A_Dual\A_Dual1\Dual-core_Communication_Demo\Dual-core_Communication_Demo\MASTER\obj/../Libraries/wch_libraries/Startup/startup_ch32v10x.S:90
        j   USBWakeUp_IRQHandler       /* USB Wakeup from suspend */
 120:	ee1ff06f          	j	0 <_sinit>
C:\Users\windows\Desktop\A_Dual\A_Dual1\Dual-core_Communication_Demo\Dual-core_Communication_Demo\MASTER\obj/../Libraries/wch_libraries/Startup/startup_ch32v10x.S:91
        j   USBHD_IRQHandler           /* USBHD */
 124:	eddff06f          	j	0 <_sinit>
	...

Disassembly of section .text:

00000140 <memset>:
memset():
     140:	433d                	li	t1,15
     142:	872a                	mv	a4,a0
     144:	02c37363          	bgeu	t1,a2,16a <memset+0x2a>
     148:	00f77793          	andi	a5,a4,15
     14c:	efbd                	bnez	a5,1ca <memset+0x8a>
     14e:	e5ad                	bnez	a1,1b8 <memset+0x78>
     150:	ff067693          	andi	a3,a2,-16
     154:	8a3d                	andi	a2,a2,15
     156:	96ba                	add	a3,a3,a4
     158:	c30c                	sw	a1,0(a4)
     15a:	c34c                	sw	a1,4(a4)
     15c:	c70c                	sw	a1,8(a4)
     15e:	c74c                	sw	a1,12(a4)
     160:	0741                	addi	a4,a4,16
     162:	fed76be3          	bltu	a4,a3,158 <memset+0x18>
     166:	e211                	bnez	a2,16a <memset+0x2a>
     168:	8082                	ret
     16a:	40c306b3          	sub	a3,t1,a2
     16e:	068a                	slli	a3,a3,0x2
     170:	00000297          	auipc	t0,0x0
     174:	9696                	add	a3,a3,t0
     176:	00a68067          	jr	10(a3)
     17a:	00b70723          	sb	a1,14(a4)
     17e:	00b706a3          	sb	a1,13(a4)
     182:	00b70623          	sb	a1,12(a4)
     186:	00b705a3          	sb	a1,11(a4)
     18a:	00b70523          	sb	a1,10(a4)
     18e:	00b704a3          	sb	a1,9(a4)
     192:	00b70423          	sb	a1,8(a4)
     196:	00b703a3          	sb	a1,7(a4)
     19a:	00b70323          	sb	a1,6(a4)
     19e:	00b702a3          	sb	a1,5(a4)
     1a2:	00b70223          	sb	a1,4(a4)
     1a6:	00b701a3          	sb	a1,3(a4)
     1aa:	00b70123          	sb	a1,2(a4)
     1ae:	00b700a3          	sb	a1,1(a4)
     1b2:	00b70023          	sb	a1,0(a4)
     1b6:	8082                	ret
     1b8:	0ff5f593          	andi	a1,a1,255
     1bc:	00859693          	slli	a3,a1,0x8
     1c0:	8dd5                	or	a1,a1,a3
     1c2:	01059693          	slli	a3,a1,0x10
     1c6:	8dd5                	or	a1,a1,a3
     1c8:	b761                	j	150 <memset+0x10>
     1ca:	00279693          	slli	a3,a5,0x2
     1ce:	00000297          	auipc	t0,0x0
     1d2:	9696                	add	a3,a3,t0
     1d4:	8286                	mv	t0,ra
     1d6:	fa8680e7          	jalr	-88(a3)
     1da:	8096                	mv	ra,t0
     1dc:	17c1                	addi	a5,a5,-16
     1de:	8f1d                	sub	a4,a4,a5
     1e0:	963e                	add	a2,a2,a5
     1e2:	f8c374e3          	bgeu	t1,a2,16a <memset+0x2a>
     1e6:	b7a5                	j	14e <memset+0xe>

000001e8 <EXTI1_IRQHandler>:
EXTI1_IRQHandler():
C:\Users\windows\Desktop\A_Dual\A_Dual1\Dual-core_Communication_Demo\Dual-core_Communication_Demo\MASTER\obj/../USER/isr.c:69
//
//
//}

void EXTI1_IRQHandler(void)
{
     1e8:	1141                	addi	sp,sp,-16
     1ea:	c622                	sw	s0,12(sp)
     1ec:	0800                	addi	s0,sp,16
C:\Users\windows\Desktop\A_Dual\A_Dual1\Dual-core_Communication_Demo\Dual-core_Communication_Demo\MASTER\obj/../USER/isr.c:70
    if(SET == EXTI_GetITStatus(EXTI_Line1))
     1ee:	4509                	li	a0,2
     1f0:	371000ef          	jal	ra,d60 <EXTI_GetITStatus>
     1f4:	872a                	mv	a4,a0
     1f6:	4785                	li	a5,1
     1f8:	02f71863          	bne	a4,a5,228 <EXTI1_IRQHandler+0x40>
C:\Users\windows\Desktop\A_Dual\A_Dual1\Dual-core_Communication_Demo\Dual-core_Communication_Demo\MASTER\obj/../USER/isr.c:72
    {
        if(camera_type == CAMERA_BIN_UART)
     1fc:	200007b7          	lui	a5,0x20000
     200:	0747a703          	lw	a4,116(a5) # 20000074 <camera_type>
     204:	4789                	li	a5,2
     206:	00f71563          	bne	a4,a5,210 <EXTI1_IRQHandler+0x28>
C:\Users\windows\Desktop\A_Dual\A_Dual1\Dual-core_Communication_Demo\Dual-core_Communication_Demo\MASTER\obj/../USER/isr.c:73
            ov7725_uart_vsync();
     20a:	0c5030ef          	jal	ra,3ace <ov7725_uart_vsync>
     20e:	a811                	j	222 <EXTI1_IRQHandler+0x3a>
C:\Users\windows\Desktop\A_Dual\A_Dual1\Dual-core_Communication_Demo\Dual-core_Communication_Demo\MASTER\obj/../USER/isr.c:74
        else if(camera_type == CAMERA_GRAYSCALE)
     210:	200007b7          	lui	a5,0x20000
     214:	0747a703          	lw	a4,116(a5) # 20000074 <camera_type>
     218:	4785                	li	a5,1
     21a:	00f71463          	bne	a4,a5,222 <EXTI1_IRQHandler+0x3a>
C:\Users\windows\Desktop\A_Dual\A_Dual1\Dual-core_Communication_Demo\Dual-core_Communication_Demo\MASTER\obj/../USER/isr.c:75
            mt9v03x_vsync();
     21e:	0de030ef          	jal	ra,32fc <mt9v03x_vsync>
C:\Users\windows\Desktop\A_Dual\A_Dual1\Dual-core_Communication_Demo\Dual-core_Communication_Demo\MASTER\obj/../USER/isr.c:76
        EXTI_ClearITPendingBit(EXTI_Line1);
     222:	4509                	li	a0,2
     224:	393000ef          	jal	ra,db6 <EXTI_ClearITPendingBit>
C:\Users\windows\Desktop\A_Dual\A_Dual1\Dual-core_Communication_Demo\Dual-core_Communication_Demo\MASTER\obj/../USER/isr.c:79
    }

}
     228:	0001                	nop
     22a:	4432                	lw	s0,12(sp)
     22c:	0141                	addi	sp,sp,16
     22e:	30200073          	mret

00000232 <EXTI2_IRQHandler>:
EXTI2_IRQHandler():
C:\Users\windows\Desktop\A_Dual\A_Dual1\Dual-core_Communication_Demo\Dual-core_Communication_Demo\MASTER\obj/../USER/isr.c:82

void EXTI2_IRQHandler(void)
{
     232:	1141                	addi	sp,sp,-16
     234:	c622                	sw	s0,12(sp)
     236:	0800                	addi	s0,sp,16
C:\Users\windows\Desktop\A_Dual\A_Dual1\Dual-core_Communication_Demo\Dual-core_Communication_Demo\MASTER\obj/../USER/isr.c:83
    EXTI_ClearITPendingBit(EXTI_Line2);
     238:	4511                	li	a0,4
     23a:	37d000ef          	jal	ra,db6 <EXTI_ClearITPendingBit>
C:\Users\windows\Desktop\A_Dual\A_Dual1\Dual-core_Communication_Demo\Dual-core_Communication_Demo\MASTER\obj/../USER/isr.c:84
}
     23e:	0001                	nop
     240:	4432                	lw	s0,12(sp)
     242:	0141                	addi	sp,sp,16
     244:	30200073          	mret

00000248 <EXTI3_IRQHandler>:
EXTI3_IRQHandler():
C:\Users\windows\Desktop\A_Dual\A_Dual1\Dual-core_Communication_Demo\Dual-core_Communication_Demo\MASTER\obj/../USER/isr.c:87

void EXTI3_IRQHandler(void)
{
     248:	1141                	addi	sp,sp,-16
     24a:	c622                	sw	s0,12(sp)
     24c:	0800                	addi	s0,sp,16
C:\Users\windows\Desktop\A_Dual\A_Dual1\Dual-core_Communication_Demo\Dual-core_Communication_Demo\MASTER\obj/../USER/isr.c:90


}
     24e:	0001                	nop
     250:	4432                	lw	s0,12(sp)
     252:	0141                	addi	sp,sp,16
     254:	30200073          	mret

00000258 <EXTI4_IRQHandler>:
EXTI4_IRQHandler():
C:\Users\windows\Desktop\A_Dual\A_Dual1\Dual-core_Communication_Demo\Dual-core_Communication_Demo\MASTER\obj/../USER/isr.c:93

void EXTI4_IRQHandler(void)
{
     258:	1141                	addi	sp,sp,-16
     25a:	c622                	sw	s0,12(sp)
     25c:	0800                	addi	s0,sp,16
C:\Users\windows\Desktop\A_Dual\A_Dual1\Dual-core_Communication_Demo\Dual-core_Communication_Demo\MASTER\obj/../USER/isr.c:96


}
     25e:	0001                	nop
     260:	4432                	lw	s0,12(sp)
     262:	0141                	addi	sp,sp,16
     264:	30200073          	mret

00000268 <EXTI9_5_IRQHandler>:
EXTI9_5_IRQHandler():
C:\Users\windows\Desktop\A_Dual\A_Dual1\Dual-core_Communication_Demo\Dual-core_Communication_Demo\MASTER\obj/../USER/isr.c:99

void EXTI9_5_IRQHandler(void)
{
     268:	1141                	addi	sp,sp,-16
     26a:	c622                	sw	s0,12(sp)
     26c:	0800                	addi	s0,sp,16
C:\Users\windows\Desktop\A_Dual\A_Dual1\Dual-core_Communication_Demo\Dual-core_Communication_Demo\MASTER\obj/../USER/isr.c:102


}
     26e:	0001                	nop
     270:	4432                	lw	s0,12(sp)
     272:	0141                	addi	sp,sp,16
     274:	30200073          	mret

00000278 <EXTI15_10_IRQHandler>:
EXTI15_10_IRQHandler():
C:\Users\windows\Desktop\A_Dual\A_Dual1\Dual-core_Communication_Demo\Dual-core_Communication_Demo\MASTER\obj/../USER/isr.c:105

void EXTI15_10_IRQHandler(void)
{
     278:	1141                	addi	sp,sp,-16
     27a:	c622                	sw	s0,12(sp)
     27c:	0800                	addi	s0,sp,16
C:\Users\windows\Desktop\A_Dual\A_Dual1\Dual-core_Communication_Demo\Dual-core_Communication_Demo\MASTER\obj/../USER/isr.c:107

}
     27e:	0001                	nop
     280:	4432                	lw	s0,12(sp)
     282:	0141                	addi	sp,sp,16
     284:	30200073          	mret

00000288 <ADC1_2_IRQHandler>:
ADC1_2_IRQHandler():
C:\Users\windows\Desktop\A_Dual\A_Dual1\Dual-core_Communication_Demo\Dual-core_Communication_Demo\MASTER\obj/../USER/isr.c:110

void ADC1_2_IRQHandler(void)
{
     288:	1141                	addi	sp,sp,-16
     28a:	c622                	sw	s0,12(sp)
     28c:	0800                	addi	s0,sp,16
C:\Users\windows\Desktop\A_Dual\A_Dual1\Dual-core_Communication_Demo\Dual-core_Communication_Demo\MASTER\obj/../USER/isr.c:113


}
     28e:	0001                	nop
     290:	4432                	lw	s0,12(sp)
     292:	0141                	addi	sp,sp,16
     294:	30200073          	mret

00000298 <TIM1_BRK_IRQHandler>:
TIM1_BRK_IRQHandler():
C:\Users\windows\Desktop\A_Dual\A_Dual1\Dual-core_Communication_Demo\Dual-core_Communication_Demo\MASTER\obj/../USER/isr.c:116

void TIM1_BRK_IRQHandler(void)
{
     298:	1141                	addi	sp,sp,-16
     29a:	c622                	sw	s0,12(sp)
     29c:	0800                	addi	s0,sp,16
C:\Users\windows\Desktop\A_Dual\A_Dual1\Dual-core_Communication_Demo\Dual-core_Communication_Demo\MASTER\obj/../USER/isr.c:117
    if(TIM_GetITStatus(TIM1, TIM_IT_Break) != RESET)
     29e:	08000593          	li	a1,128
     2a2:	400137b7          	lui	a5,0x40013
     2a6:	c0078513          	addi	a0,a5,-1024 # 40012c00 <_eusrstack+0x2000dc00>
     2aa:	02c020ef          	jal	ra,22d6 <TIM_GetITStatus>
     2ae:	87aa                	mv	a5,a0
     2b0:	cb89                	beqz	a5,2c2 <TIM1_BRK_IRQHandler+0x2a>
C:\Users\windows\Desktop\A_Dual\A_Dual1\Dual-core_Communication_Demo\Dual-core_Communication_Demo\MASTER\obj/../USER/isr.c:119
    {
        TIM_ClearITPendingBit(TIM1, TIM_IT_Break);
     2b2:	08000593          	li	a1,128
     2b6:	400137b7          	lui	a5,0x40013
     2ba:	c0078513          	addi	a0,a5,-1024 # 40012c00 <_eusrstack+0x2000dc00>
     2be:	088020ef          	jal	ra,2346 <TIM_ClearITPendingBit>
C:\Users\windows\Desktop\A_Dual\A_Dual1\Dual-core_Communication_Demo\Dual-core_Communication_Demo\MASTER\obj/../USER/isr.c:122

    }
}
     2c2:	0001                	nop
     2c4:	4432                	lw	s0,12(sp)
     2c6:	0141                	addi	sp,sp,16
     2c8:	30200073          	mret

000002cc <TIM1_UP_IRQHandler>:
TIM1_UP_IRQHandler():
C:\Users\windows\Desktop\A_Dual\A_Dual1\Dual-core_Communication_Demo\Dual-core_Communication_Demo\MASTER\obj/../USER/isr.c:125

void TIM1_UP_IRQHandler(void)
{
     2cc:	1141                	addi	sp,sp,-16
     2ce:	c622                	sw	s0,12(sp)
     2d0:	0800                	addi	s0,sp,16
C:\Users\windows\Desktop\A_Dual\A_Dual1\Dual-core_Communication_Demo\Dual-core_Communication_Demo\MASTER\obj/../USER/isr.c:126
    if(TIM_GetITStatus(TIM1, TIM_IT_Update) != RESET)
     2d2:	4585                	li	a1,1
     2d4:	400137b7          	lui	a5,0x40013
     2d8:	c0078513          	addi	a0,a5,-1024 # 40012c00 <_eusrstack+0x2000dc00>
     2dc:	7fb010ef          	jal	ra,22d6 <TIM_GetITStatus>
     2e0:	87aa                	mv	a5,a0
     2e2:	cb81                	beqz	a5,2f2 <TIM1_UP_IRQHandler+0x26>
C:\Users\windows\Desktop\A_Dual\A_Dual1\Dual-core_Communication_Demo\Dual-core_Communication_Demo\MASTER\obj/../USER/isr.c:128
    {
        TIM_ClearITPendingBit(TIM1, TIM_IT_Update);
     2e4:	4585                	li	a1,1
     2e6:	400137b7          	lui	a5,0x40013
     2ea:	c0078513          	addi	a0,a5,-1024 # 40012c00 <_eusrstack+0x2000dc00>
     2ee:	058020ef          	jal	ra,2346 <TIM_ClearITPendingBit>
C:\Users\windows\Desktop\A_Dual\A_Dual1\Dual-core_Communication_Demo\Dual-core_Communication_Demo\MASTER\obj/../USER/isr.c:131

    }
}
     2f2:	0001                	nop
     2f4:	4432                	lw	s0,12(sp)
     2f6:	0141                	addi	sp,sp,16
     2f8:	30200073          	mret

000002fc <TIM1_TRG_COM_IRQHandler>:
TIM1_TRG_COM_IRQHandler():
C:\Users\windows\Desktop\A_Dual\A_Dual1\Dual-core_Communication_Demo\Dual-core_Communication_Demo\MASTER\obj/../USER/isr.c:134

void TIM1_TRG_COM_IRQHandler(void)
{
     2fc:	1141                	addi	sp,sp,-16
     2fe:	c622                	sw	s0,12(sp)
     300:	0800                	addi	s0,sp,16
C:\Users\windows\Desktop\A_Dual\A_Dual1\Dual-core_Communication_Demo\Dual-core_Communication_Demo\MASTER\obj/../USER/isr.c:135
    if(TIM_GetITStatus(TIM1, TIM_IT_Trigger) != RESET)
     302:	04000593          	li	a1,64
     306:	400137b7          	lui	a5,0x40013
     30a:	c0078513          	addi	a0,a5,-1024 # 40012c00 <_eusrstack+0x2000dc00>
     30e:	7c9010ef          	jal	ra,22d6 <TIM_GetITStatus>
     312:	87aa                	mv	a5,a0
     314:	cb89                	beqz	a5,326 <TIM1_TRG_COM_IRQHandler+0x2a>
C:\Users\windows\Desktop\A_Dual\A_Dual1\Dual-core_Communication_Demo\Dual-core_Communication_Demo\MASTER\obj/../USER/isr.c:137
    {
        TIM_ClearITPendingBit(TIM1, TIM_IT_Trigger);
     316:	04000593          	li	a1,64
     31a:	400137b7          	lui	a5,0x40013
     31e:	c0078513          	addi	a0,a5,-1024 # 40012c00 <_eusrstack+0x2000dc00>
     322:	024020ef          	jal	ra,2346 <TIM_ClearITPendingBit>
C:\Users\windows\Desktop\A_Dual\A_Dual1\Dual-core_Communication_Demo\Dual-core_Communication_Demo\MASTER\obj/../USER/isr.c:140

    }
    if(TIM_GetITStatus(TIM1, TIM_IT_COM) != RESET)
     326:	02000593          	li	a1,32
     32a:	400137b7          	lui	a5,0x40013
     32e:	c0078513          	addi	a0,a5,-1024 # 40012c00 <_eusrstack+0x2000dc00>
     332:	7a5010ef          	jal	ra,22d6 <TIM_GetITStatus>
     336:	87aa                	mv	a5,a0
     338:	cb89                	beqz	a5,34a <TIM1_TRG_COM_IRQHandler+0x4e>
C:\Users\windows\Desktop\A_Dual\A_Dual1\Dual-core_Communication_Demo\Dual-core_Communication_Demo\MASTER\obj/../USER/isr.c:142
    {
        TIM_ClearITPendingBit(TIM1, TIM_IT_COM);
     33a:	02000593          	li	a1,32
     33e:	400137b7          	lui	a5,0x40013
     342:	c0078513          	addi	a0,a5,-1024 # 40012c00 <_eusrstack+0x2000dc00>
     346:	000020ef          	jal	ra,2346 <TIM_ClearITPendingBit>
C:\Users\windows\Desktop\A_Dual\A_Dual1\Dual-core_Communication_Demo\Dual-core_Communication_Demo\MASTER\obj/../USER/isr.c:145

    }
}
     34a:	0001                	nop
     34c:	4432                	lw	s0,12(sp)
     34e:	0141                	addi	sp,sp,16
     350:	30200073          	mret

00000354 <TIM1_CC_IRQHandler>:
TIM1_CC_IRQHandler():
C:\Users\windows\Desktop\A_Dual\A_Dual1\Dual-core_Communication_Demo\Dual-core_Communication_Demo\MASTER\obj/../USER/isr.c:148

void TIM1_CC_IRQHandler(void)
{
     354:	1141                	addi	sp,sp,-16
     356:	c622                	sw	s0,12(sp)
     358:	0800                	addi	s0,sp,16
C:\Users\windows\Desktop\A_Dual\A_Dual1\Dual-core_Communication_Demo\Dual-core_Communication_Demo\MASTER\obj/../USER/isr.c:149
    if(TIM_GetITStatus(TIM1, TIM_IT_CC1) != RESET)
     35a:	4589                	li	a1,2
     35c:	400137b7          	lui	a5,0x40013
     360:	c0078513          	addi	a0,a5,-1024 # 40012c00 <_eusrstack+0x2000dc00>
     364:	773010ef          	jal	ra,22d6 <TIM_GetITStatus>
     368:	87aa                	mv	a5,a0
     36a:	cb81                	beqz	a5,37a <TIM1_CC_IRQHandler+0x26>
C:\Users\windows\Desktop\A_Dual\A_Dual1\Dual-core_Communication_Demo\Dual-core_Communication_Demo\MASTER\obj/../USER/isr.c:151
    {
        TIM_ClearITPendingBit(TIM1, TIM_IT_CC1);
     36c:	4589                	li	a1,2
     36e:	400137b7          	lui	a5,0x40013
     372:	c0078513          	addi	a0,a5,-1024 # 40012c00 <_eusrstack+0x2000dc00>
     376:	7d1010ef          	jal	ra,2346 <TIM_ClearITPendingBit>
C:\Users\windows\Desktop\A_Dual\A_Dual1\Dual-core_Communication_Demo\Dual-core_Communication_Demo\MASTER\obj/../USER/isr.c:154

    }
    if(TIM_GetITStatus(TIM1, TIM_IT_CC2) != RESET)
     37a:	4591                	li	a1,4
     37c:	400137b7          	lui	a5,0x40013
     380:	c0078513          	addi	a0,a5,-1024 # 40012c00 <_eusrstack+0x2000dc00>
     384:	753010ef          	jal	ra,22d6 <TIM_GetITStatus>
     388:	87aa                	mv	a5,a0
     38a:	cb81                	beqz	a5,39a <TIM1_CC_IRQHandler+0x46>
C:\Users\windows\Desktop\A_Dual\A_Dual1\Dual-core_Communication_Demo\Dual-core_Communication_Demo\MASTER\obj/../USER/isr.c:156
    {
        TIM_ClearITPendingBit(TIM1, TIM_IT_CC2);
     38c:	4591                	li	a1,4
     38e:	400137b7          	lui	a5,0x40013
     392:	c0078513          	addi	a0,a5,-1024 # 40012c00 <_eusrstack+0x2000dc00>
     396:	7b1010ef          	jal	ra,2346 <TIM_ClearITPendingBit>
C:\Users\windows\Desktop\A_Dual\A_Dual1\Dual-core_Communication_Demo\Dual-core_Communication_Demo\MASTER\obj/../USER/isr.c:159

    }
    if(TIM_GetITStatus(TIM1, TIM_IT_CC3) != RESET)
     39a:	45a1                	li	a1,8
     39c:	400137b7          	lui	a5,0x40013
     3a0:	c0078513          	addi	a0,a5,-1024 # 40012c00 <_eusrstack+0x2000dc00>
     3a4:	733010ef          	jal	ra,22d6 <TIM_GetITStatus>
     3a8:	87aa                	mv	a5,a0
     3aa:	cb81                	beqz	a5,3ba <TIM1_CC_IRQHandler+0x66>
C:\Users\windows\Desktop\A_Dual\A_Dual1\Dual-core_Communication_Demo\Dual-core_Communication_Demo\MASTER\obj/../USER/isr.c:161
    {
        TIM_ClearITPendingBit(TIM1, TIM_IT_CC3);
     3ac:	45a1                	li	a1,8
     3ae:	400137b7          	lui	a5,0x40013
     3b2:	c0078513          	addi	a0,a5,-1024 # 40012c00 <_eusrstack+0x2000dc00>
     3b6:	791010ef          	jal	ra,2346 <TIM_ClearITPendingBit>
C:\Users\windows\Desktop\A_Dual\A_Dual1\Dual-core_Communication_Demo\Dual-core_Communication_Demo\MASTER\obj/../USER/isr.c:164

    }
    if(TIM_GetITStatus(TIM1, TIM_IT_CC4) != RESET)
     3ba:	45c1                	li	a1,16
     3bc:	400137b7          	lui	a5,0x40013
     3c0:	c0078513          	addi	a0,a5,-1024 # 40012c00 <_eusrstack+0x2000dc00>
     3c4:	713010ef          	jal	ra,22d6 <TIM_GetITStatus>
     3c8:	87aa                	mv	a5,a0
     3ca:	cb81                	beqz	a5,3da <TIM1_CC_IRQHandler+0x86>
C:\Users\windows\Desktop\A_Dual\A_Dual1\Dual-core_Communication_Demo\Dual-core_Communication_Demo\MASTER\obj/../USER/isr.c:166
    {
        TIM_ClearITPendingBit(TIM1, TIM_IT_CC4);
     3cc:	45c1                	li	a1,16
     3ce:	400137b7          	lui	a5,0x40013
     3d2:	c0078513          	addi	a0,a5,-1024 # 40012c00 <_eusrstack+0x2000dc00>
     3d6:	771010ef          	jal	ra,2346 <TIM_ClearITPendingBit>
C:\Users\windows\Desktop\A_Dual\A_Dual1\Dual-core_Communication_Demo\Dual-core_Communication_Demo\MASTER\obj/../USER/isr.c:169

    }
}
     3da:	0001                	nop
     3dc:	4432                	lw	s0,12(sp)
     3de:	0141                	addi	sp,sp,16
     3e0:	30200073          	mret

000003e4 <TIM2_IRQHandler>:
TIM2_IRQHandler():
C:\Users\windows\Desktop\A_Dual\A_Dual1\Dual-core_Communication_Demo\Dual-core_Communication_Demo\MASTER\obj/../USER/isr.c:172

void TIM2_IRQHandler(void)
{
     3e4:	1141                	addi	sp,sp,-16
     3e6:	c622                	sw	s0,12(sp)
     3e8:	0800                	addi	s0,sp,16
C:\Users\windows\Desktop\A_Dual\A_Dual1\Dual-core_Communication_Demo\Dual-core_Communication_Demo\MASTER\obj/../USER/isr.c:174

    if(TIM_GetITStatus(TIM2, TIM_IT_Update) != RESET)
     3ea:	4585                	li	a1,1
     3ec:	40000537          	lui	a0,0x40000
     3f0:	6e7010ef          	jal	ra,22d6 <TIM_GetITStatus>
     3f4:	87aa                	mv	a5,a0
     3f6:	c791                	beqz	a5,402 <TIM2_IRQHandler+0x1e>
C:\Users\windows\Desktop\A_Dual\A_Dual1\Dual-core_Communication_Demo\Dual-core_Communication_Demo\MASTER\obj/../USER/isr.c:176
    {
        TIM_ClearITPendingBit(TIM2, TIM_IT_Update );
     3f8:	4585                	li	a1,1
     3fa:	40000537          	lui	a0,0x40000
     3fe:	749010ef          	jal	ra,2346 <TIM_ClearITPendingBit>
C:\Users\windows\Desktop\A_Dual\A_Dual1\Dual-core_Communication_Demo\Dual-core_Communication_Demo\MASTER\obj/../USER/isr.c:182
        //ccd_collect();//CCD
        //gpio_toggle(B5);
        //GPIO_PIN_RESET(B5);
        //GPIO_PIN_SET(B5);
    }
}
     402:	0001                	nop
     404:	4432                	lw	s0,12(sp)
     406:	0141                	addi	sp,sp,16
     408:	30200073          	mret

0000040c <TIM3_IRQHandler>:
TIM3_IRQHandler():
C:\Users\windows\Desktop\A_Dual\A_Dual1\Dual-core_Communication_Demo\Dual-core_Communication_Demo\MASTER\obj/../USER/isr.c:185

void TIM3_IRQHandler(void)
{
     40c:	1141                	addi	sp,sp,-16
     40e:	c622                	sw	s0,12(sp)
     410:	0800                	addi	s0,sp,16
C:\Users\windows\Desktop\A_Dual\A_Dual1\Dual-core_Communication_Demo\Dual-core_Communication_Demo\MASTER\obj/../USER/isr.c:186
    if(TIM_GetITStatus(TIM3, TIM_IT_Update) != RESET)
     412:	4585                	li	a1,1
     414:	400007b7          	lui	a5,0x40000
     418:	40078513          	addi	a0,a5,1024 # 40000400 <_eusrstack+0x1fffb400>
     41c:	6bb010ef          	jal	ra,22d6 <TIM_GetITStatus>
     420:	87aa                	mv	a5,a0
     422:	cb81                	beqz	a5,432 <TIM3_IRQHandler+0x26>
C:\Users\windows\Desktop\A_Dual\A_Dual1\Dual-core_Communication_Demo\Dual-core_Communication_Demo\MASTER\obj/../USER/isr.c:188
    {
        TIM_ClearITPendingBit(TIM3, TIM_IT_Update );
     424:	4585                	li	a1,1
     426:	400007b7          	lui	a5,0x40000
     42a:	40078513          	addi	a0,a5,1024 # 40000400 <_eusrstack+0x1fffb400>
     42e:	719010ef          	jal	ra,2346 <TIM_ClearITPendingBit>
C:\Users\windows\Desktop\A_Dual\A_Dual1\Dual-core_Communication_Demo\Dual-core_Communication_Demo\MASTER\obj/../USER/isr.c:191

    }
}
     432:	0001                	nop
     434:	4432                	lw	s0,12(sp)
     436:	0141                	addi	sp,sp,16
     438:	30200073          	mret

0000043c <TIM4_IRQHandler>:
TIM4_IRQHandler():
C:\Users\windows\Desktop\A_Dual\A_Dual1\Dual-core_Communication_Demo\Dual-core_Communication_Demo\MASTER\obj/../USER/isr.c:194

void TIM4_IRQHandler(void)
{
     43c:	1141                	addi	sp,sp,-16
     43e:	c622                	sw	s0,12(sp)
     440:	0800                	addi	s0,sp,16
C:\Users\windows\Desktop\A_Dual\A_Dual1\Dual-core_Communication_Demo\Dual-core_Communication_Demo\MASTER\obj/../USER/isr.c:195
    if(TIM_GetITStatus(TIM4, TIM_IT_Update) != RESET)
     442:	4585                	li	a1,1
     444:	400017b7          	lui	a5,0x40001
     448:	80078513          	addi	a0,a5,-2048 # 40000800 <_eusrstack+0x1fffb800>
     44c:	68b010ef          	jal	ra,22d6 <TIM_GetITStatus>
     450:	87aa                	mv	a5,a0
     452:	cb81                	beqz	a5,462 <TIM4_IRQHandler+0x26>
C:\Users\windows\Desktop\A_Dual\A_Dual1\Dual-core_Communication_Demo\Dual-core_Communication_Demo\MASTER\obj/../USER/isr.c:197
    {
        TIM_ClearITPendingBit(TIM4, TIM_IT_Update );
     454:	4585                	li	a1,1
     456:	400017b7          	lui	a5,0x40001
     45a:	80078513          	addi	a0,a5,-2048 # 40000800 <_eusrstack+0x1fffb800>
     45e:	6e9010ef          	jal	ra,2346 <TIM_ClearITPendingBit>
C:\Users\windows\Desktop\A_Dual\A_Dual1\Dual-core_Communication_Demo\Dual-core_Communication_Demo\MASTER\obj/../USER/isr.c:200

    }
}
     462:	0001                	nop
     464:	4432                	lw	s0,12(sp)
     466:	0141                	addi	sp,sp,16
     468:	30200073          	mret

0000046c <USART1_IRQHandler>:
USART1_IRQHandler():
C:\Users\windows\Desktop\A_Dual\A_Dual1\Dual-core_Communication_Demo\Dual-core_Communication_Demo\MASTER\obj/../USER/isr.c:203

void USART1_IRQHandler(void)
{
     46c:	1141                	addi	sp,sp,-16
     46e:	c622                	sw	s0,12(sp)
     470:	0800                	addi	s0,sp,16
C:\Users\windows\Desktop\A_Dual\A_Dual1\Dual-core_Communication_Demo\Dual-core_Communication_Demo\MASTER\obj/../USER/isr.c:205

}
     472:	0001                	nop
     474:	4432                	lw	s0,12(sp)
     476:	0141                	addi	sp,sp,16
     478:	30200073          	mret

0000047c <USART2_IRQHandler>:
USART2_IRQHandler():
C:\Users\windows\Desktop\A_Dual\A_Dual1\Dual-core_Communication_Demo\Dual-core_Communication_Demo\MASTER\obj/../USER/isr.c:208

void USART2_IRQHandler(void)
{
     47c:	1141                	addi	sp,sp,-16
     47e:	c622                	sw	s0,12(sp)
     480:	0800                	addi	s0,sp,16
C:\Users\windows\Desktop\A_Dual\A_Dual1\Dual-core_Communication_Demo\Dual-core_Communication_Demo\MASTER\obj/../USER/isr.c:209
    if(USART_GetITStatus(USART2, USART_IT_RXNE) != RESET)
     482:	52500593          	li	a1,1317
     486:	400047b7          	lui	a5,0x40004
     48a:	40078513          	addi	a0,a5,1024 # 40004400 <_eusrstack+0x1ffff400>
     48e:	2d8020ef          	jal	ra,2766 <USART_GetITStatus>
     492:	87aa                	mv	a5,a0
     494:	cf85                	beqz	a5,4cc <USART2_IRQHandler+0x50>
C:\Users\windows\Desktop\A_Dual\A_Dual1\Dual-core_Communication_Demo\Dual-core_Communication_Demo\MASTER\obj/../USER/isr.c:211
    {
        USART_ClearITPendingBit(USART2, USART_IT_RXNE);
     496:	52500593          	li	a1,1317
     49a:	400047b7          	lui	a5,0x40004
     49e:	40078513          	addi	a0,a5,1024 # 40004400 <_eusrstack+0x1ffff400>
     4a2:	3c6020ef          	jal	ra,2868 <USART_ClearITPendingBit>
C:\Users\windows\Desktop\A_Dual\A_Dual1\Dual-core_Communication_Demo\Dual-core_Communication_Demo\MASTER\obj/../USER/isr.c:212
        if(camera_type == CAMERA_BIN_UART)
     4a6:	200007b7          	lui	a5,0x20000
     4aa:	0747a703          	lw	a4,116(a5) # 20000074 <camera_type>
     4ae:	4789                	li	a5,2
     4b0:	00f71563          	bne	a4,a5,4ba <USART2_IRQHandler+0x3e>
C:\Users\windows\Desktop\A_Dual\A_Dual1\Dual-core_Communication_Demo\Dual-core_Communication_Demo\MASTER\obj/../USER/isr.c:213
            ov7725_cof_uart_interrupt();
     4b4:	5aa030ef          	jal	ra,3a5e <ov7725_cof_uart_interrupt>
C:\Users\windows\Desktop\A_Dual\A_Dual1\Dual-core_Communication_Demo\Dual-core_Communication_Demo\MASTER\obj/../USER/isr.c:217
        else if(camera_type == CAMERA_GRAYSCALE)
            mt9v03x_uart_callback();
    }
}
     4b8:	a811                	j	4cc <USART2_IRQHandler+0x50>
C:\Users\windows\Desktop\A_Dual\A_Dual1\Dual-core_Communication_Demo\Dual-core_Communication_Demo\MASTER\obj/../USER/isr.c:214
        else if(camera_type == CAMERA_GRAYSCALE)
     4ba:	200007b7          	lui	a5,0x20000
     4be:	0747a703          	lw	a4,116(a5) # 20000074 <camera_type>
     4c2:	4785                	li	a5,1
     4c4:	00f71463          	bne	a4,a5,4cc <USART2_IRQHandler+0x50>
C:\Users\windows\Desktop\A_Dual\A_Dual1\Dual-core_Communication_Demo\Dual-core_Communication_Demo\MASTER\obj/../USER/isr.c:215
            mt9v03x_uart_callback();
     4c8:	5c5020ef          	jal	ra,328c <mt9v03x_uart_callback>
C:\Users\windows\Desktop\A_Dual\A_Dual1\Dual-core_Communication_Demo\Dual-core_Communication_Demo\MASTER\obj/../USER/isr.c:217
}
     4cc:	0001                	nop
     4ce:	4432                	lw	s0,12(sp)
     4d0:	0141                	addi	sp,sp,16
     4d2:	30200073          	mret

000004d6 <DMA1_Channel4_IRQHandler>:
DMA1_Channel4_IRQHandler():
C:\Users\windows\Desktop\A_Dual\A_Dual1\Dual-core_Communication_Demo\Dual-core_Communication_Demo\MASTER\obj/../USER/isr.c:225
//{
//
//}

void DMA1_Channel4_IRQHandler(void)
{
     4d6:	1141                	addi	sp,sp,-16
     4d8:	c622                	sw	s0,12(sp)
     4da:	0800                	addi	s0,sp,16
C:\Users\windows\Desktop\A_Dual\A_Dual1\Dual-core_Communication_Demo\Dual-core_Communication_Demo\MASTER\obj/../USER/isr.c:226
    if(SET == DMA_GetFlagStatus(DMA1_FLAG_TC4))
     4dc:	6509                	lui	a0,0x2
     4de:	67e000ef          	jal	ra,b5c <DMA_GetFlagStatus>
     4e2:	872a                	mv	a4,a0
     4e4:	4785                	li	a5,1
     4e6:	02f71863          	bne	a4,a5,516 <DMA1_Channel4_IRQHandler+0x40>
C:\Users\windows\Desktop\A_Dual\A_Dual1\Dual-core_Communication_Demo\Dual-core_Communication_Demo\MASTER\obj/../USER/isr.c:228
    {
        DMA_ClearFlag(DMA1_FLAG_TC4);
     4ea:	6509                	lui	a0,0x2
     4ec:	6cc000ef          	jal	ra,bb8 <DMA_ClearFlag>
C:\Users\windows\Desktop\A_Dual\A_Dual1\Dual-core_Communication_Demo\Dual-core_Communication_Demo\MASTER\obj/../USER/isr.c:229
        if(camera_type == CAMERA_BIN_UART)
     4f0:	200007b7          	lui	a5,0x20000
     4f4:	0747a703          	lw	a4,116(a5) # 20000074 <camera_type>
     4f8:	4789                	li	a5,2
     4fa:	00f71563          	bne	a4,a5,504 <DMA1_Channel4_IRQHandler+0x2e>
C:\Users\windows\Desktop\A_Dual\A_Dual1\Dual-core_Communication_Demo\Dual-core_Communication_Demo\MASTER\obj/../USER/isr.c:230
            ov7725_uart_dma();
     4fe:	606030ef          	jal	ra,3b04 <ov7725_uart_dma>
C:\Users\windows\Desktop\A_Dual\A_Dual1\Dual-core_Communication_Demo\Dual-core_Communication_Demo\MASTER\obj/../USER/isr.c:234
        else if(camera_type == CAMERA_GRAYSCALE)
            mt9v03x_dma();
    }
}
     502:	a811                	j	516 <DMA1_Channel4_IRQHandler+0x40>
C:\Users\windows\Desktop\A_Dual\A_Dual1\Dual-core_Communication_Demo\Dual-core_Communication_Demo\MASTER\obj/../USER/isr.c:231
        else if(camera_type == CAMERA_GRAYSCALE)
     504:	200007b7          	lui	a5,0x20000
     508:	0747a703          	lw	a4,116(a5) # 20000074 <camera_type>
     50c:	4785                	li	a5,1
     50e:	00f71463          	bne	a4,a5,516 <DMA1_Channel4_IRQHandler+0x40>
C:\Users\windows\Desktop\A_Dual\A_Dual1\Dual-core_Communication_Demo\Dual-core_Communication_Demo\MASTER\obj/../USER/isr.c:232
            mt9v03x_dma();
     512:	621020ef          	jal	ra,3332 <mt9v03x_dma>
C:\Users\windows\Desktop\A_Dual\A_Dual1\Dual-core_Communication_Demo\Dual-core_Communication_Demo\MASTER\obj/../USER/isr.c:234
}
     516:	0001                	nop
     518:	4432                	lw	s0,12(sp)
     51a:	0141                	addi	sp,sp,16
     51c:	30200073          	mret

00000520 <NMI_Handler>:
NMI_Handler():
C:\Users\windows\Desktop\A_Dual\A_Dual1\Dual-core_Communication_Demo\Dual-core_Communication_Demo\MASTER\obj/../USER/isr.c:243
* Description    : This function handles NMI exception.
* Input          : None
* Return         : None
*******************************************************************************/
void NMI_Handler(void)
{
     520:	1141                	addi	sp,sp,-16
     522:	c622                	sw	s0,12(sp)
     524:	0800                	addi	s0,sp,16
C:\Users\windows\Desktop\A_Dual\A_Dual1\Dual-core_Communication_Demo\Dual-core_Communication_Demo\MASTER\obj/../USER/isr.c:245

}
     526:	0001                	nop
     528:	4432                	lw	s0,12(sp)
     52a:	0141                	addi	sp,sp,16
     52c:	30200073          	mret

00000530 <HardFault_Handler>:
HardFault_Handler():
C:\Users\windows\Desktop\A_Dual\A_Dual1\Dual-core_Communication_Demo\Dual-core_Communication_Demo\MASTER\obj/../USER/isr.c:254
* Description    : This function handles Hard Fault exception.
* Input          : None
* Return         : None
*******************************************************************************/
void HardFault_Handler(void)
{
     530:	1141                	addi	sp,sp,-16
     532:	c622                	sw	s0,12(sp)
     534:	0800                	addi	s0,sp,16
C:\Users\windows\Desktop\A_Dual\A_Dual1\Dual-core_Communication_Demo\Dual-core_Communication_Demo\MASTER\obj/../USER/isr.c:256 (discriminator 1)

  while (1)
     536:	a001                	j	536 <HardFault_Handler+0x6>

00000538 <get_slave_data>:
get_slave_data():
C:\Users\windows\Desktop\A_Dual\A_Dual1\Dual-core_Communication_Demo\Dual-core_Communication_Demo\MASTER\obj/../USER/main.c:55
//  @return     void
//  @since      v1.0
//  Sample usage:
//-------------------------------------------------------------------------------------------------------------------
void get_slave_data(uint8 data)
{
     538:	1101                	addi	sp,sp,-32
     53a:	ce22                	sw	s0,28(sp)
     53c:	1000                	addi	s0,sp,32
     53e:	87aa                	mv	a5,a0
     540:	fef407a3          	sb	a5,-17(s0)
C:\Users\windows\Desktop\A_Dual\A_Dual1\Dual-core_Communication_Demo\Dual-core_Communication_Demo\MASTER\obj/../USER/main.c:57
    static uint8 uart_num = 0;
    temp_buff[uart_num++] = data;
     544:	8251c783          	lbu	a5,-2011(gp) # 20000095 <uart_num.5961>
     548:	00178713          	addi	a4,a5,1
     54c:	0ff77693          	andi	a3,a4,255
     550:	82d182a3          	sb	a3,-2011(gp) # 20000095 <uart_num.5961>
     554:	873e                	mv	a4,a5
     556:	84818793          	addi	a5,gp,-1976 # 200000b8 <temp_buff>
     55a:	97ba                	add	a5,a5,a4
     55c:	fef44703          	lbu	a4,-17(s0)
     560:	00e78023          	sb	a4,0(a5)
C:\Users\windows\Desktop\A_Dual\A_Dual1\Dual-core_Communication_Demo\Dual-core_Communication_Demo\MASTER\obj/../USER/main.c:59

    if(1 == uart_num)
     564:	8251c703          	lbu	a4,-2011(gp) # 20000095 <uart_num.5961>
     568:	4785                	li	a5,1
     56a:	00f71d63          	bne	a4,a5,584 <get_slave_data+0x4c>
C:\Users\windows\Desktop\A_Dual\A_Dual1\Dual-core_Communication_Demo\Dual-core_Communication_Demo\MASTER\obj/../USER/main.c:62
    {
        //0xD8
        if(0xD8 != temp_buff[0])
     56e:	8481c703          	lbu	a4,-1976(gp) # 200000b8 <temp_buff>
     572:	0d800793          	li	a5,216
     576:	00f70763          	beq	a4,a5,584 <get_slave_data+0x4c>
C:\Users\windows\Desktop\A_Dual\A_Dual1\Dual-core_Communication_Demo\Dual-core_Communication_Demo\MASTER\obj/../USER/main.c:64
        {
            uart_num = 0;
     57a:	820182a3          	sb	zero,-2011(gp) # 20000095 <uart_num.5961>
C:\Users\windows\Desktop\A_Dual\A_Dual1\Dual-core_Communication_Demo\Dual-core_Communication_Demo\MASTER\obj/../USER/main.c:65
            uart_flag = E_FRAME_HEADER_ERROR;
     57e:	4709                	li	a4,2
     580:	80e18c23          	sb	a4,-2024(gp) # 20000088 <_edata>
C:\Users\windows\Desktop\A_Dual\A_Dual1\Dual-core_Communication_Demo\Dual-core_Communication_Demo\MASTER\obj/../USER/main.c:69
        }
    }

    if(LINE_LEN == uart_num)
     584:	8251c703          	lbu	a4,-2011(gp) # 20000095 <uart_num.5961>
     588:	47ad                	li	a5,11
     58a:	02f71663          	bne	a4,a5,5b6 <get_slave_data+0x7e>
C:\Users\windows\Desktop\A_Dual\A_Dual1\Dual-core_Communication_Demo\Dual-core_Communication_Demo\MASTER\obj/../USER/main.c:71
    {
        uart_flag = E_OK;
     58e:	4705                	li	a4,1
     590:	80e18c23          	sb	a4,-2024(gp) # 20000088 <_edata>
C:\Users\windows\Desktop\A_Dual\A_Dual1\Dual-core_Communication_Demo\Dual-core_Communication_Demo\MASTER\obj/../USER/main.c:73
        //0xEE
        if(0xEE == temp_buff[LINE_LEN - 1])
     594:	84818793          	addi	a5,gp,-1976 # 200000b8 <temp_buff>
     598:	00a7c703          	lbu	a4,10(a5)
     59c:	0ee00793          	li	a5,238
     5a0:	00f71663          	bne	a4,a5,5ac <get_slave_data+0x74>
C:\Users\windows\Desktop\A_Dual\A_Dual1\Dual-core_Communication_Demo\Dual-core_Communication_Demo\MASTER\obj/../USER/main.c:75
        {
            uart_flag = E_OK;
     5a4:	4705                	li	a4,1
     5a6:	80e18c23          	sb	a4,-2024(gp) # 20000088 <_edata>
     5aa:	a021                	j	5b2 <get_slave_data+0x7a>
C:\Users\windows\Desktop\A_Dual\A_Dual1\Dual-core_Communication_Demo\Dual-core_Communication_Demo\MASTER\obj/../USER/main.c:79
        }
        else    //0xEE
        {
            uart_flag = E_FRAME_RTAIL_ERROR;
     5ac:	470d                	li	a4,3
     5ae:	80e18c23          	sb	a4,-2024(gp) # 20000088 <_edata>
C:\Users\windows\Desktop\A_Dual\A_Dual1\Dual-core_Communication_Demo\Dual-core_Communication_Demo\MASTER\obj/../USER/main.c:81
        }
        uart_num = 0;
     5b2:	820182a3          	sb	zero,-2011(gp) # 20000095 <uart_num.5961>
C:\Users\windows\Desktop\A_Dual\A_Dual1\Dual-core_Communication_Demo\Dual-core_Communication_Demo\MASTER\obj/../USER/main.c:83
    }
}
     5b6:	0001                	nop
     5b8:	4472                	lw	s0,28(sp)
     5ba:	6105                	addi	sp,sp,32
     5bc:	8082                	ret

000005be <data_analysis>:
data_analysis():
C:\Users\windows\Desktop\A_Dual\A_Dual1\Dual-core_Communication_Demo\Dual-core_Communication_Demo\MASTER\obj/../USER/main.c:93
//  @return     void
//  @since      v1.0
//  Sample usage:
//-------------------------------------------------------------------------------------------------------------------
void data_analysis(uint8 *line)
{
     5be:	1101                	addi	sp,sp,-32
     5c0:	ce22                	sw	s0,28(sp)
     5c2:	1000                	addi	s0,sp,32
     5c4:	fea42623          	sw	a0,-20(s0)
C:\Users\windows\Desktop\A_Dual\A_Dual1\Dual-core_Communication_Demo\Dual-core_Communication_Demo\MASTER\obj/../USER/main.c:94
    if(line[1] == 0xB0)    slave_encoder_left  = ((int16)line[2] << 8) | line[3];
     5c8:	fec42783          	lw	a5,-20(s0)
     5cc:	0785                	addi	a5,a5,1
     5ce:	0007c703          	lbu	a4,0(a5)
     5d2:	0b000793          	li	a5,176
     5d6:	02f71863          	bne	a4,a5,606 <data_analysis+0x48>
C:\Users\windows\Desktop\A_Dual\A_Dual1\Dual-core_Communication_Demo\Dual-core_Communication_Demo\MASTER\obj/../USER/main.c:94 (discriminator 1)
     5da:	fec42783          	lw	a5,-20(s0)
     5de:	0789                	addi	a5,a5,2
     5e0:	0007c783          	lbu	a5,0(a5)
     5e4:	07a2                	slli	a5,a5,0x8
     5e6:	01079713          	slli	a4,a5,0x10
     5ea:	8741                	srai	a4,a4,0x10
     5ec:	fec42783          	lw	a5,-20(s0)
     5f0:	078d                	addi	a5,a5,3
     5f2:	0007c783          	lbu	a5,0(a5)
     5f6:	07c2                	slli	a5,a5,0x10
     5f8:	87c1                	srai	a5,a5,0x10
     5fa:	8fd9                	or	a5,a5,a4
     5fc:	01079713          	slli	a4,a5,0x10
     600:	8741                	srai	a4,a4,0x10
     602:	80e19d23          	sh	a4,-2022(gp) # 2000008a <slave_encoder_left>
C:\Users\windows\Desktop\A_Dual\A_Dual1\Dual-core_Communication_Demo\Dual-core_Communication_Demo\MASTER\obj/../USER/main.c:95
    if(line[4] == 0xB1)    slave_encoder_right = ((int16)line[5] << 8) | line[6];
     606:	fec42783          	lw	a5,-20(s0)
     60a:	0791                	addi	a5,a5,4
     60c:	0007c703          	lbu	a4,0(a5)
     610:	0b100793          	li	a5,177
     614:	02f71863          	bne	a4,a5,644 <data_analysis+0x86>
C:\Users\windows\Desktop\A_Dual\A_Dual1\Dual-core_Communication_Demo\Dual-core_Communication_Demo\MASTER\obj/../USER/main.c:95 (discriminator 1)
     618:	fec42783          	lw	a5,-20(s0)
     61c:	0795                	addi	a5,a5,5
     61e:	0007c783          	lbu	a5,0(a5)
     622:	07a2                	slli	a5,a5,0x8
     624:	01079713          	slli	a4,a5,0x10
     628:	8741                	srai	a4,a4,0x10
     62a:	fec42783          	lw	a5,-20(s0)
     62e:	0799                	addi	a5,a5,6
     630:	0007c783          	lbu	a5,0(a5)
     634:	07c2                	slli	a5,a5,0x10
     636:	87c1                	srai	a5,a5,0x10
     638:	8fd9                	or	a5,a5,a4
     63a:	01079713          	slli	a4,a5,0x10
     63e:	8741                	srai	a4,a4,0x10
     640:	80e19e23          	sh	a4,-2020(gp) # 2000008c <slave_encoder_right>
C:\Users\windows\Desktop\A_Dual\A_Dual1\Dual-core_Communication_Demo\Dual-core_Communication_Demo\MASTER\obj/../USER/main.c:96
    if(line[7] == 0xB2)    slave_position      = ((int16)line[8] << 8) | line[9];
     644:	fec42783          	lw	a5,-20(s0)
     648:	079d                	addi	a5,a5,7
     64a:	0007c703          	lbu	a4,0(a5)
     64e:	0b200793          	li	a5,178
     652:	02f71863          	bne	a4,a5,682 <data_analysis+0xc4>
C:\Users\windows\Desktop\A_Dual\A_Dual1\Dual-core_Communication_Demo\Dual-core_Communication_Demo\MASTER\obj/../USER/main.c:96 (discriminator 1)
     656:	fec42783          	lw	a5,-20(s0)
     65a:	07a1                	addi	a5,a5,8
     65c:	0007c783          	lbu	a5,0(a5)
     660:	07a2                	slli	a5,a5,0x8
     662:	01079713          	slli	a4,a5,0x10
     666:	8741                	srai	a4,a4,0x10
     668:	fec42783          	lw	a5,-20(s0)
     66c:	07a5                	addi	a5,a5,9
     66e:	0007c783          	lbu	a5,0(a5)
     672:	07c2                	slli	a5,a5,0x10
     674:	87c1                	srai	a5,a5,0x10
     676:	8fd9                	or	a5,a5,a4
     678:	01079713          	slli	a4,a5,0x10
     67c:	8741                	srai	a4,a4,0x10
     67e:	80e19f23          	sh	a4,-2018(gp) # 2000008e <slave_position>
C:\Users\windows\Desktop\A_Dual\A_Dual1\Dual-core_Communication_Demo\Dual-core_Communication_Demo\MASTER\obj/../USER/main.c:97
}
     682:	0001                	nop
     684:	4472                	lw	s0,28(sp)
     686:	6105                	addi	sp,sp,32
     688:	8082                	ret

0000068a <USART3_IRQHandler>:
USART3_IRQHandler():
C:\Users\windows\Desktop\A_Dual\A_Dual1\Dual-core_Communication_Demo\Dual-core_Communication_Demo\MASTER\obj/../USER/main.c:108
//  @since      v1.0
//  Sample usage:
//-------------------------------------------------------------------------------------------------------------------
void USART3_IRQHandler(void) __attribute__((interrupt("WCH-Interrupt-fast")));
void USART3_IRQHandler(void)
{
     68a:	1101                	addi	sp,sp,-32
     68c:	ce22                	sw	s0,28(sp)
     68e:	1000                	addi	s0,sp,32
C:\Users\windows\Desktop\A_Dual\A_Dual1\Dual-core_Communication_Demo\Dual-core_Communication_Demo\MASTER\obj/../USER/main.c:110
    uint8 dat;
    if(USART_GetITStatus(USART3, USART_IT_RXNE) != RESET)
     690:	52500593          	li	a1,1317
     694:	400057b7          	lui	a5,0x40005
     698:	80078513          	addi	a0,a5,-2048 # 40004800 <_eusrstack+0x1ffff800>
     69c:	0ca020ef          	jal	ra,2766 <USART_GetITStatus>
     6a0:	87aa                	mv	a5,a0
     6a2:	c795                	beqz	a5,6ce <USART3_IRQHandler+0x44>
C:\Users\windows\Desktop\A_Dual\A_Dual1\Dual-core_Communication_Demo\Dual-core_Communication_Demo\MASTER\obj/../USER/main.c:112
    {
        USART_ClearITPendingBit(USART3, USART_IT_RXNE); //
     6a4:	52500593          	li	a1,1317
     6a8:	400057b7          	lui	a5,0x40005
     6ac:	80078513          	addi	a0,a5,-2048 # 40004800 <_eusrstack+0x1ffff800>
     6b0:	1b8020ef          	jal	ra,2868 <USART_ClearITPendingBit>
C:\Users\windows\Desktop\A_Dual\A_Dual1\Dual-core_Communication_Demo\Dual-core_Communication_Demo\MASTER\obj/../USER/main.c:113
        dat = USART_ReceiveData(USART3);                //
     6b4:	400057b7          	lui	a5,0x40005
     6b8:	80078513          	addi	a0,a5,-2048 # 40004800 <_eusrstack+0x1ffff800>
     6bc:	03e020ef          	jal	ra,26fa <USART_ReceiveData>
     6c0:	87aa                	mv	a5,a0
     6c2:	fef407a3          	sb	a5,-17(s0)
C:\Users\windows\Desktop\A_Dual\A_Dual1\Dual-core_Communication_Demo\Dual-core_Communication_Demo\MASTER\obj/../USER/main.c:114
        get_slave_data(dat);                            //temp_buff
     6c6:	fef44783          	lbu	a5,-17(s0)
     6ca:	853e                	mv	a0,a5
     6cc:	35b5                	jal	538 <get_slave_data>
C:\Users\windows\Desktop\A_Dual\A_Dual1\Dual-core_Communication_Demo\Dual-core_Communication_Demo\MASTER\obj/../USER/main.c:116
    }
}
     6ce:	0001                	nop
     6d0:	4472                	lw	s0,28(sp)
     6d2:	6105                	addi	sp,sp,32
     6d4:	30200073          	mret

000006d8 <EXTI0_IRQHandler>:
EXTI0_IRQHandler():
C:\Users\windows\Desktop\A_Dual\A_Dual1\Dual-core_Communication_Demo\Dual-core_Communication_Demo\MASTER\obj/../USER/main.c:127
//  @since      v1.0
//  Sample usage:
//-------------------------------------------------------------------------------------------------------------------
void EXTI0_IRQHandler(void) __attribute__((interrupt("WCH-Interrupt-fast")));
void EXTI0_IRQHandler(void)
{
     6d8:	1101                	addi	sp,sp,-32
     6da:	ce22                	sw	s0,28(sp)
     6dc:	cc26                	sw	s1,24(sp)
     6de:	ca4a                	sw	s2,20(sp)
     6e0:	c84e                	sw	s3,16(sp)
     6e2:	1000                	addi	s0,sp,32
C:\Users\windows\Desktop\A_Dual\A_Dual1\Dual-core_Communication_Demo\Dual-core_Communication_Demo\MASTER\obj/../USER/main.c:128
    if(SET == EXTI_GetITStatus(EXTI_Line0))
     6e4:	4505                	li	a0,1
     6e6:	67a000ef          	jal	ra,d60 <EXTI_GetITStatus>
     6ea:	872a                	mv	a4,a0
     6ec:	4785                	li	a5,1
     6ee:	28f71663          	bne	a4,a5,97a <__stack_size+0x17a>
C:\Users\windows\Desktop\A_Dual\A_Dual1\Dual-core_Communication_Demo\Dual-core_Communication_Demo\MASTER\obj/../USER/main.c:130
    {
        EXTI_ClearITPendingBit(EXTI_Line0);
     6f2:	4505                	li	a0,1
     6f4:	6c2000ef          	jal	ra,db6 <EXTI_ClearITPendingBit>
C:\Users\windows\Desktop\A_Dual\A_Dual1\Dual-core_Communication_Demo\Dual-core_Communication_Demo\MASTER\obj/../USER/main.c:131
        while(uart_flag != E_OK);                       //
     6f8:	0001                	nop
C:\Users\windows\Desktop\A_Dual\A_Dual1\Dual-core_Communication_Demo\Dual-core_Communication_Demo\MASTER\obj/../USER/main.c:131 (discriminator 1)
     6fa:	8181c783          	lbu	a5,-2024(gp) # 20000088 <_edata>
     6fe:	0ff7f713          	andi	a4,a5,255
     702:	4785                	li	a5,1
     704:	fef71be3          	bne	a4,a5,6fa <EXTI0_IRQHandler+0x22>
C:\Users\windows\Desktop\A_Dual\A_Dual1\Dual-core_Communication_Demo\Dual-core_Communication_Demo\MASTER\obj/../USER/main.c:132
        uart_flag = E_START;                            //
     708:	80018c23          	sb	zero,-2024(gp) # 20000088 <_edata>
C:\Users\windows\Desktop\A_Dual\A_Dual1\Dual-core_Communication_Demo\Dual-core_Communication_Demo\MASTER\obj/../USER/main.c:133
        data_analysis(temp_buff);                       //
     70c:	84818513          	addi	a0,gp,-1976 # 200000b8 <temp_buff>
     710:	357d                	jal	5be <data_analysis>
C:\Users\windows\Desktop\A_Dual\A_Dual1\Dual-core_Communication_Demo\Dual-core_Communication_Demo\MASTER\obj/../USER/main.c:135

        slave_encoder_right=-slave_encoder_right;
     712:	81c19783          	lh	a5,-2020(gp) # 2000008c <slave_encoder_right>
     716:	07c2                	slli	a5,a5,0x10
     718:	83c1                	srli	a5,a5,0x10
     71a:	40f007b3          	neg	a5,a5
     71e:	07c2                	slli	a5,a5,0x10
     720:	83c1                	srli	a5,a5,0x10
     722:	01079713          	slli	a4,a5,0x10
     726:	8741                	srai	a4,a4,0x10
     728:	80e19e23          	sh	a4,-2020(gp) # 2000008c <slave_encoder_right>
C:\Users\windows\Desktop\A_Dual\A_Dual1\Dual-core_Communication_Demo\Dual-core_Communication_Demo\MASTER\obj/../USER/main.c:136
        master_encoder_left=timer_quad_get(TIMER_2);//
     72c:	4505                	li	a0,1
     72e:	2d6040ef          	jal	ra,4a04 <timer_quad_get>
     732:	87aa                	mv	a5,a0
     734:	873e                	mv	a4,a5
     736:	82e19023          	sh	a4,-2016(gp) # 20000090 <master_encoder_left>
C:\Users\windows\Desktop\A_Dual\A_Dual1\Dual-core_Communication_Demo\Dual-core_Communication_Demo\MASTER\obj/../USER/main.c:137
        master_encoder_right=-timer_quad_get(TIMER_3);//
     73a:	4509                	li	a0,2
     73c:	2c8040ef          	jal	ra,4a04 <timer_quad_get>
     740:	87aa                	mv	a5,a0
     742:	07c2                	slli	a5,a5,0x10
     744:	83c1                	srli	a5,a5,0x10
     746:	40f007b3          	neg	a5,a5
     74a:	07c2                	slli	a5,a5,0x10
     74c:	83c1                	srli	a5,a5,0x10
     74e:	01079713          	slli	a4,a5,0x10
     752:	8741                	srai	a4,a4,0x10
     754:	82e19123          	sh	a4,-2014(gp) # 20000092 <master_encoder_right>
C:\Users\windows\Desktop\A_Dual\A_Dual1\Dual-core_Communication_Demo\Dual-core_Communication_Demo\MASTER\obj/../USER/main.c:138
        timer_quad_clear(TIMER_2);
     758:	4505                	li	a0,1
     75a:	2dc040ef          	jal	ra,4a36 <timer_quad_clear>
C:\Users\windows\Desktop\A_Dual\A_Dual1\Dual-core_Communication_Demo\Dual-core_Communication_Demo\MASTER\obj/../USER/main.c:139
        timer_quad_clear(TIMER_3);
     75e:	4509                	li	a0,2
     760:	2d6040ef          	jal	ra,4a36 <timer_quad_clear>
C:\Users\windows\Desktop\A_Dual\A_Dual1\Dual-core_Communication_Demo\Dual-core_Communication_Demo\MASTER\obj/../USER/main.c:140
        int16 target=25;
     764:	47e5                	li	a5,25
     766:	fef41323          	sh	a5,-26(s0)
C:\Users\windows\Desktop\A_Dual\A_Dual1\Dual-core_Communication_Demo\Dual-core_Communication_Demo\MASTER\obj/../USER/main.c:144
        int16 target_fl,target_fr,target_rl,target_rr;
        //float
        //k=0.2target=25
        if(slave_position>2||slave_position<-2)
     76a:	81e19703          	lh	a4,-2018(gp) # 2000008e <slave_position>
     76e:	4789                	li	a5,2
     770:	00e7c763          	blt	a5,a4,77e <EXTI0_IRQHandler+0xa6>
C:\Users\windows\Desktop\A_Dual\A_Dual1\Dual-core_Communication_Demo\Dual-core_Communication_Demo\MASTER\obj/../USER/main.c:144 (discriminator 1)
     774:	81e19703          	lh	a4,-2018(gp) # 2000008e <slave_position>
     778:	57f9                	li	a5,-2
     77a:	12f75363          	bge	a4,a5,8a0 <__stack_size+0xa0>
C:\Users\windows\Desktop\A_Dual\A_Dual1\Dual-core_Communication_Demo\Dual-core_Communication_Demo\MASTER\obj/../USER/main.c:146
        {
            target_fl=target+0.23*slave_position;//0.2*slave_position;
     77e:	fe641783          	lh	a5,-26(s0)
     782:	853e                	mv	a0,a5
     784:	456060ef          	jal	ra,6bda <__floatsidf>
     788:	892a                	mv	s2,a0
     78a:	89ae                	mv	s3,a1
     78c:	81e19783          	lh	a5,-2018(gp) # 2000008e <slave_position>
     790:	853e                	mv	a0,a5
     792:	448060ef          	jal	ra,6bda <__floatsidf>
     796:	67a5                	lui	a5,0x9
     798:	c287a603          	lw	a2,-984(a5) # 8c28 <_exit+0x8>
     79c:	c2c7a683          	lw	a3,-980(a5)
     7a0:	7dc050ef          	jal	ra,5f7c <__muldf3>
     7a4:	87aa                	mv	a5,a0
     7a6:	882e                	mv	a6,a1
     7a8:	863e                	mv	a2,a5
     7aa:	86c2                	mv	a3,a6
     7ac:	854a                	mv	a0,s2
     7ae:	85ce                	mv	a1,s3
     7b0:	77d040ef          	jal	ra,572c <__adddf3>
     7b4:	87aa                	mv	a5,a0
     7b6:	882e                	mv	a6,a1
     7b8:	853e                	mv	a0,a5
     7ba:	85c2                	mv	a1,a6
     7bc:	3b6060ef          	jal	ra,6b72 <__fixdfsi>
     7c0:	87aa                	mv	a5,a0
     7c2:	fef41723          	sh	a5,-18(s0)
C:\Users\windows\Desktop\A_Dual\A_Dual1\Dual-core_Communication_Demo\Dual-core_Communication_Demo\MASTER\obj/../USER/main.c:147
            target_fr=target-0.23*slave_position;//0.2*slave_position;
     7c6:	fe641783          	lh	a5,-26(s0)
     7ca:	853e                	mv	a0,a5
     7cc:	40e060ef          	jal	ra,6bda <__floatsidf>
     7d0:	892a                	mv	s2,a0
     7d2:	89ae                	mv	s3,a1
     7d4:	81e19783          	lh	a5,-2018(gp) # 2000008e <slave_position>
     7d8:	853e                	mv	a0,a5
     7da:	400060ef          	jal	ra,6bda <__floatsidf>
     7de:	67a5                	lui	a5,0x9
     7e0:	c287a603          	lw	a2,-984(a5) # 8c28 <_exit+0x8>
     7e4:	c2c7a683          	lw	a3,-980(a5)
     7e8:	794050ef          	jal	ra,5f7c <__muldf3>
     7ec:	87aa                	mv	a5,a0
     7ee:	882e                	mv	a6,a1
     7f0:	863e                	mv	a2,a5
     7f2:	86c2                	mv	a3,a6
     7f4:	854a                	mv	a0,s2
     7f6:	85ce                	mv	a1,s3
     7f8:	43d050ef          	jal	ra,6434 <__subdf3>
     7fc:	87aa                	mv	a5,a0
     7fe:	882e                	mv	a6,a1
     800:	853e                	mv	a0,a5
     802:	85c2                	mv	a1,a6
     804:	36e060ef          	jal	ra,6b72 <__fixdfsi>
     808:	87aa                	mv	a5,a0
     80a:	fef41623          	sh	a5,-20(s0)
C:\Users\windows\Desktop\A_Dual\A_Dual1\Dual-core_Communication_Demo\Dual-core_Communication_Demo\MASTER\obj/../USER/main.c:148
            target_rl=target+0.23*slave_position;//0.2*slave_position;
     80e:	fe641783          	lh	a5,-26(s0)
     812:	853e                	mv	a0,a5
     814:	3c6060ef          	jal	ra,6bda <__floatsidf>
     818:	892a                	mv	s2,a0
     81a:	89ae                	mv	s3,a1
     81c:	81e19783          	lh	a5,-2018(gp) # 2000008e <slave_position>
     820:	853e                	mv	a0,a5
     822:	3b8060ef          	jal	ra,6bda <__floatsidf>
     826:	67a5                	lui	a5,0x9
     828:	c287a603          	lw	a2,-984(a5) # 8c28 <_exit+0x8>
     82c:	c2c7a683          	lw	a3,-980(a5)
     830:	74c050ef          	jal	ra,5f7c <__muldf3>
     834:	87aa                	mv	a5,a0
     836:	882e                	mv	a6,a1
     838:	863e                	mv	a2,a5
     83a:	86c2                	mv	a3,a6
     83c:	854a                	mv	a0,s2
     83e:	85ce                	mv	a1,s3
     840:	6ed040ef          	jal	ra,572c <__adddf3>
     844:	87aa                	mv	a5,a0
     846:	882e                	mv	a6,a1
     848:	853e                	mv	a0,a5
     84a:	85c2                	mv	a1,a6
     84c:	326060ef          	jal	ra,6b72 <__fixdfsi>
     850:	87aa                	mv	a5,a0
     852:	fef41523          	sh	a5,-22(s0)
C:\Users\windows\Desktop\A_Dual\A_Dual1\Dual-core_Communication_Demo\Dual-core_Communication_Demo\MASTER\obj/../USER/main.c:149
            target_rr=target-0.23*slave_position;//0.2*slave_position;
     856:	fe641783          	lh	a5,-26(s0)
     85a:	853e                	mv	a0,a5
     85c:	37e060ef          	jal	ra,6bda <__floatsidf>
     860:	892a                	mv	s2,a0
     862:	89ae                	mv	s3,a1
     864:	81e19783          	lh	a5,-2018(gp) # 2000008e <slave_position>
     868:	853e                	mv	a0,a5
     86a:	370060ef          	jal	ra,6bda <__floatsidf>
     86e:	67a5                	lui	a5,0x9
     870:	c287a603          	lw	a2,-984(a5) # 8c28 <_exit+0x8>
     874:	c2c7a683          	lw	a3,-980(a5)
     878:	704050ef          	jal	ra,5f7c <__muldf3>
     87c:	87aa                	mv	a5,a0
     87e:	882e                	mv	a6,a1
     880:	863e                	mv	a2,a5
     882:	86c2                	mv	a3,a6
     884:	854a                	mv	a0,s2
     886:	85ce                	mv	a1,s3
     888:	3ad050ef          	jal	ra,6434 <__subdf3>
     88c:	87aa                	mv	a5,a0
     88e:	882e                	mv	a6,a1
     890:	853e                	mv	a0,a5
     892:	85c2                	mv	a1,a6
     894:	2de060ef          	jal	ra,6b72 <__fixdfsi>
     898:	87aa                	mv	a5,a0
     89a:	fef41423          	sh	a5,-24(s0)
     89e:	a00d                	j	8c0 <__stack_size+0xc0>
C:\Users\windows\Desktop\A_Dual\A_Dual1\Dual-core_Communication_Demo\Dual-core_Communication_Demo\MASTER\obj/../USER/main.c:152
        }
        else
            target_fl=target_fr=target_rl=target_rr=target;
     8a0:	fe645783          	lhu	a5,-26(s0)
     8a4:	fef41423          	sh	a5,-24(s0)
     8a8:	fe845783          	lhu	a5,-24(s0)
     8ac:	fef41523          	sh	a5,-22(s0)
     8b0:	fea45783          	lhu	a5,-22(s0)
     8b4:	fef41623          	sh	a5,-20(s0)
     8b8:	fec45783          	lhu	a5,-20(s0)
     8bc:	fef41723          	sh	a5,-18(s0)
C:\Users\windows\Desktop\A_Dual\A_Dual1\Dual-core_Communication_Demo\Dual-core_Communication_Demo\MASTER\obj/../USER/main.c:153
        PID_incCtrl(&Pid_fl,(float)(target_fl-slave_encoder_left));
     8c0:	fee41783          	lh	a5,-18(s0)
     8c4:	81a19703          	lh	a4,-2022(gp) # 2000008a <slave_encoder_left>
     8c8:	8f99                	sub	a5,a5,a4
     8ca:	853e                	mv	a0,a5
     8cc:	677060ef          	jal	ra,7742 <__floatsisf>
     8d0:	87aa                	mv	a5,a0
     8d2:	85be                	mv	a1,a5
     8d4:	85418513          	addi	a0,gp,-1964 # 200000c4 <Pid_fl>
     8d8:	4fb040ef          	jal	ra,55d2 <PID_incCtrl>
C:\Users\windows\Desktop\A_Dual\A_Dual1\Dual-core_Communication_Demo\Dual-core_Communication_Demo\MASTER\obj/../USER/main.c:154
        PID_incCtrl(&Pid_fr,(float)(target_fr-slave_encoder_right));
     8dc:	fec41783          	lh	a5,-20(s0)
     8e0:	81c19703          	lh	a4,-2020(gp) # 2000008c <slave_encoder_right>
     8e4:	8f99                	sub	a5,a5,a4
     8e6:	853e                	mv	a0,a5
     8e8:	65b060ef          	jal	ra,7742 <__floatsisf>
     8ec:	87aa                	mv	a5,a0
     8ee:	85be                	mv	a1,a5
     8f0:	88418513          	addi	a0,gp,-1916 # 200000f4 <Pid_fr>
     8f4:	4df040ef          	jal	ra,55d2 <PID_incCtrl>
C:\Users\windows\Desktop\A_Dual\A_Dual1\Dual-core_Communication_Demo\Dual-core_Communication_Demo\MASTER\obj/../USER/main.c:155
        PID_incCtrl(&Pid_rl,(float)(target_rl-master_encoder_left));
     8f8:	fea41783          	lh	a5,-22(s0)
     8fc:	82019703          	lh	a4,-2016(gp) # 20000090 <master_encoder_left>
     900:	8f99                	sub	a5,a5,a4
     902:	853e                	mv	a0,a5
     904:	63f060ef          	jal	ra,7742 <__floatsisf>
     908:	87aa                	mv	a5,a0
     90a:	85be                	mv	a1,a5
     90c:	8b418513          	addi	a0,gp,-1868 # 20000124 <Pid_rl>
     910:	4c3040ef          	jal	ra,55d2 <PID_incCtrl>
C:\Users\windows\Desktop\A_Dual\A_Dual1\Dual-core_Communication_Demo\Dual-core_Communication_Demo\MASTER\obj/../USER/main.c:156
        PID_incCtrl(&Pid_rr,(float)(target_rr-master_encoder_right));
     914:	fe841783          	lh	a5,-24(s0)
     918:	82219703          	lh	a4,-2014(gp) # 20000092 <master_encoder_right>
     91c:	8f99                	sub	a5,a5,a4
     91e:	853e                	mv	a0,a5
     920:	623060ef          	jal	ra,7742 <__floatsisf>
     924:	87aa                	mv	a5,a0
     926:	85be                	mv	a1,a5
     928:	8e418513          	addi	a0,gp,-1820 # 20000154 <Pid_rr>
     92c:	4a7040ef          	jal	ra,55d2 <PID_incCtrl>
C:\Users\windows\Desktop\A_Dual\A_Dual1\Dual-core_Communication_Demo\Dual-core_Communication_Demo\MASTER\obj/../USER/main.c:157
        Duty_All((int32)Pid_fl.out,(int32)Pid_fr.out,(int32)Pid_rl.out,(int32)Pid_rr.out);
     930:	85418793          	addi	a5,gp,-1964 # 200000c4 <Pid_fl>
     934:	4fdc                	lw	a5,28(a5)
     936:	853e                	mv	a0,a5
     938:	5a9060ef          	jal	ra,76e0 <__fixsfsi>
     93c:	84aa                	mv	s1,a0
     93e:	88418793          	addi	a5,gp,-1916 # 200000f4 <Pid_fr>
     942:	4fdc                	lw	a5,28(a5)
     944:	853e                	mv	a0,a5
     946:	59b060ef          	jal	ra,76e0 <__fixsfsi>
     94a:	892a                	mv	s2,a0
     94c:	8b418793          	addi	a5,gp,-1868 # 20000124 <Pid_rl>
     950:	4fdc                	lw	a5,28(a5)
     952:	853e                	mv	a0,a5
     954:	58d060ef          	jal	ra,76e0 <__fixsfsi>
     958:	89aa                	mv	s3,a0
     95a:	8e418793          	addi	a5,gp,-1820 # 20000154 <Pid_rr>
     95e:	4fdc                	lw	a5,28(a5)
     960:	853e                	mv	a0,a5
     962:	57f060ef          	jal	ra,76e0 <__fixsfsi>
     966:	87aa                	mv	a5,a0
     968:	86be                	mv	a3,a5
     96a:	864e                	mv	a2,s3
     96c:	85ca                	mv	a1,s2
     96e:	8526                	mv	a0,s1
     970:	3a1040ef          	jal	ra,5510 <Duty_All>
C:\Users\windows\Desktop\A_Dual\A_Dual1\Dual-core_Communication_Demo\Dual-core_Communication_Demo\MASTER\obj/../USER/main.c:159

        show_flag = 1;                                  //
     974:	4705                	li	a4,1
     976:	82e18223          	sb	a4,-2012(gp) # 20000094 <show_flag>
C:\Users\windows\Desktop\A_Dual\A_Dual1\Dual-core_Communication_Demo\Dual-core_Communication_Demo\MASTER\obj/../USER/main.c:161
    }
}
     97a:	0001                	nop
     97c:	4472                	lw	s0,28(sp)
     97e:	44e2                	lw	s1,24(sp)
     980:	4952                	lw	s2,20(sp)
     982:	49c2                	lw	s3,16(sp)
     984:	6105                	addi	sp,sp,32
     986:	30200073          	mret

0000098a <Encoder_Init_Master>:
Encoder_Init_Master():
C:\Users\windows\Desktop\A_Dual\A_Dual1\Dual-core_Communication_Demo\Dual-core_Communication_Demo\MASTER\obj/../USER/main.c:164

void Encoder_Init_Master()//
{
     98a:	1141                	addi	sp,sp,-16
     98c:	c606                	sw	ra,12(sp)
     98e:	c422                	sw	s0,8(sp)
     990:	0800                	addi	s0,sp,16
C:\Users\windows\Desktop\A_Dual\A_Dual1\Dual-core_Communication_Demo\Dual-core_Communication_Demo\MASTER\obj/../USER/main.c:165
    timer_quad_init(TIMER_2,TIMER2_CHA_A15,TIMER2_CHB_B3);//32
     992:	4615                	li	a2,5
     994:	4591                	li	a1,4
     996:	4505                	li	a0,1
     998:	70f030ef          	jal	ra,48a6 <timer_quad_init>
C:\Users\windows\Desktop\A_Dual\A_Dual1\Dual-core_Communication_Demo\Dual-core_Communication_Demo\MASTER\obj/../USER/main.c:166
    timer_quad_init(TIMER_3,TIMER3_CHA_B4,TIMER3_CHB_B5);//43
     99c:	462d                	li	a2,11
     99e:	45a9                	li	a1,10
     9a0:	4509                	li	a0,2
     9a2:	705030ef          	jal	ra,48a6 <timer_quad_init>
C:\Users\windows\Desktop\A_Dual\A_Dual1\Dual-core_Communication_Demo\Dual-core_Communication_Demo\MASTER\obj/../USER/main.c:167
    return;
     9a6:	0001                	nop
C:\Users\windows\Desktop\A_Dual\A_Dual1\Dual-core_Communication_Demo\Dual-core_Communication_Demo\MASTER\obj/../USER/main.c:168
}
     9a8:	40b2                	lw	ra,12(sp)
     9aa:	4422                	lw	s0,8(sp)
     9ac:	0141                	addi	sp,sp,16
     9ae:	8082                	ret

000009b0 <main>:
main():
C:\Users\windows\Desktop\A_Dual\A_Dual1\Dual-core_Communication_Demo\Dual-core_Communication_Demo\MASTER\obj/../USER/main.c:171

int main(void)
{
     9b0:	1141                	addi	sp,sp,-16
     9b2:	c606                	sw	ra,12(sp)
     9b4:	c422                	sw	s0,8(sp)
     9b6:	0800                	addi	s0,sp,16
C:\Users\windows\Desktop\A_Dual\A_Dual1\Dual-core_Communication_Demo\Dual-core_Communication_Demo\MASTER\obj/../USER/main.c:172
    DisableGlobalIRQ();
     9b8:	500030ef          	jal	ra,3eb8 <DisableGlobalIRQ>
C:\Users\windows\Desktop\A_Dual\A_Dual1\Dual-core_Communication_Demo\Dual-core_Communication_Demo\MASTER\obj/../USER/main.c:173
    board_init();           //MPU  
     9bc:	6fc040ef          	jal	ra,50b8 <board_init>
C:\Users\windows\Desktop\A_Dual\A_Dual1\Dual-core_Communication_Demo\Dual-core_Communication_Demo\MASTER\obj/../USER/main.c:175

    lcd_init();
     9c0:	198020ef          	jal	ra,2b58 <lcd_init>
C:\Users\windows\Desktop\A_Dual\A_Dual1\Dual-core_Communication_Demo\Dual-core_Communication_Demo\MASTER\obj/../USER/main.c:181

    //
    //
    //

    uart_init(UART_3, 460800, UART3_TX_B10, UART3_RX_B11);  //3460800
     9c4:	02100693          	li	a3,33
     9c8:	02000613          	li	a2,32
     9cc:	000717b7          	lui	a5,0x71
     9d0:	80078593          	addi	a1,a5,-2048 # 70800 <_data_lma+0x67114>
     9d4:	4509                	li	a0,2
     9d6:	58c040ef          	jal	ra,4f62 <uart_init>
C:\Users\windows\Desktop\A_Dual\A_Dual1\Dual-core_Communication_Demo\Dual-core_Communication_Demo\MASTER\obj/../USER/main.c:182
    uart_rx_irq(UART_3, ENABLE);                            //0 0
     9da:	4585                	li	a1,1
     9dc:	4509                	li	a0,2
     9de:	68a040ef          	jal	ra,5068 <uart_rx_irq>
C:\Users\windows\Desktop\A_Dual\A_Dual1\Dual-core_Communication_Demo\Dual-core_Communication_Demo\MASTER\obj/../USER/main.c:183
    gpio_interrupt_init(A0, RISING, GPIO_INT_CONFIG);       //A0GPIO 
     9e2:	04800613          	li	a2,72
     9e6:	45a1                	li	a1,8
     9e8:	4501                	li	a0,0
     9ea:	36a030ef          	jal	ra,3d54 <gpio_interrupt_init>
C:\Users\windows\Desktop\A_Dual\A_Dual1\Dual-core_Communication_Demo\Dual-core_Communication_Demo\MASTER\obj/../USER/main.c:184
    nvic_init(EXTI0_IRQn, 1, 1, ENABLE);                    //EXTI011
     9ee:	4685                	li	a3,1
     9f0:	4605                	li	a2,1
     9f2:	4585                	li	a1,1
     9f4:	4559                	li	a0,22
     9f6:	3e0030ef          	jal	ra,3dd6 <nvic_init>
C:\Users\windows\Desktop\A_Dual\A_Dual1\Dual-core_Communication_Demo\Dual-core_Communication_Demo\MASTER\obj/../USER/main.c:186

    PID_Init(&Pid_fl);
     9fa:	85418513          	addi	a0,gp,-1964 # 200000c4 <Pid_fl>
     9fe:	35d040ef          	jal	ra,555a <PID_Init>
C:\Users\windows\Desktop\A_Dual\A_Dual1\Dual-core_Communication_Demo\Dual-core_Communication_Demo\MASTER\obj/../USER/main.c:187
    PID_Init(&Pid_fr);
     a02:	88418513          	addi	a0,gp,-1916 # 200000f4 <Pid_fr>
     a06:	355040ef          	jal	ra,555a <PID_Init>
C:\Users\windows\Desktop\A_Dual\A_Dual1\Dual-core_Communication_Demo\Dual-core_Communication_Demo\MASTER\obj/../USER/main.c:188
    PID_Init(&Pid_rl);
     a0a:	8b418513          	addi	a0,gp,-1868 # 20000124 <Pid_rl>
     a0e:	34d040ef          	jal	ra,555a <PID_Init>
C:\Users\windows\Desktop\A_Dual\A_Dual1\Dual-core_Communication_Demo\Dual-core_Communication_Demo\MASTER\obj/../USER/main.c:189
    PID_Init(&Pid_rr);
     a12:	8e418513          	addi	a0,gp,-1820 # 20000154 <Pid_rr>
     a16:	345040ef          	jal	ra,555a <PID_Init>
C:\Users\windows\Desktop\A_Dual\A_Dual1\Dual-core_Communication_Demo\Dual-core_Communication_Demo\MASTER\obj/../USER/main.c:190
    Duty_Init();
     a1a:	11d040ef          	jal	ra,5336 <Duty_Init>
C:\Users\windows\Desktop\A_Dual\A_Dual1\Dual-core_Communication_Demo\Dual-core_Communication_Demo\MASTER\obj/../USER/main.c:191
    Encoder_Init_Master();
     a1e:	37b5                	jal	98a <Encoder_Init_Master>
C:\Users\windows\Desktop\A_Dual\A_Dual1\Dual-core_Communication_Demo\Dual-core_Communication_Demo\MASTER\obj/../USER/main.c:197

    //systick_delay_ms(300);

    //()
    //
    EnableGlobalIRQ(0);
     a20:	4501                	li	a0,0
     a22:	4d2030ef          	jal	ra,3ef4 <EnableGlobalIRQ>
C:\Users\windows\Desktop\A_Dual\A_Dual1\Dual-core_Communication_Demo\Dual-core_Communication_Demo\MASTER\obj/../USER/main.c:200
    while(1)
    {
        if(show_flag)
     a26:	8241c783          	lbu	a5,-2012(gp) # 20000094 <show_flag>
     a2a:	dff5                	beqz	a5,a26 <main+0x76>
C:\Users\windows\Desktop\A_Dual\A_Dual1\Dual-core_Communication_Demo\Dual-core_Communication_Demo\MASTER\obj/../USER/main.c:204
        {
            //

            lcd_showint16(0, 0, slave_encoder_left);
     a2c:	81a19783          	lh	a5,-2022(gp) # 2000008a <slave_encoder_left>
     a30:	863e                	mv	a2,a5
     a32:	4581                	li	a1,0
     a34:	4501                	li	a0,0
     a36:	54a020ef          	jal	ra,2f80 <lcd_showint16>
C:\Users\windows\Desktop\A_Dual\A_Dual1\Dual-core_Communication_Demo\Dual-core_Communication_Demo\MASTER\obj/../USER/main.c:205
            lcd_showint16(80, 0, slave_encoder_right);
     a3a:	81c19783          	lh	a5,-2020(gp) # 2000008c <slave_encoder_right>
     a3e:	863e                	mv	a2,a5
     a40:	4581                	li	a1,0
     a42:	05000513          	li	a0,80
     a46:	53a020ef          	jal	ra,2f80 <lcd_showint16>
C:\Users\windows\Desktop\A_Dual\A_Dual1\Dual-core_Communication_Demo\Dual-core_Communication_Demo\MASTER\obj/../USER/main.c:206
            lcd_showint16(0, 1, master_encoder_left);
     a4a:	82019783          	lh	a5,-2016(gp) # 20000090 <master_encoder_left>
     a4e:	863e                	mv	a2,a5
     a50:	4585                	li	a1,1
     a52:	4501                	li	a0,0
     a54:	52c020ef          	jal	ra,2f80 <lcd_showint16>
C:\Users\windows\Desktop\A_Dual\A_Dual1\Dual-core_Communication_Demo\Dual-core_Communication_Demo\MASTER\obj/../USER/main.c:207
            lcd_showint16(80, 1, master_encoder_right);
     a58:	82219783          	lh	a5,-2014(gp) # 20000092 <master_encoder_right>
     a5c:	863e                	mv	a2,a5
     a5e:	4585                	li	a1,1
     a60:	05000513          	li	a0,80
     a64:	51c020ef          	jal	ra,2f80 <lcd_showint16>
C:\Users\windows\Desktop\A_Dual\A_Dual1\Dual-core_Communication_Demo\Dual-core_Communication_Demo\MASTER\obj/../USER/main.c:209

            lcd_showfloat(0,2,Pid_fl.out,4,2);
     a68:	85418793          	addi	a5,gp,-1964 # 200000c4 <Pid_fl>
     a6c:	4fdc                	lw	a5,28(a5)
     a6e:	853e                	mv	a0,a5
     a70:	599060ef          	jal	ra,7808 <__extendsfdf2>
     a74:	862a                	mv	a2,a0
     a76:	86ae                	mv	a3,a1
     a78:	4789                	li	a5,2
     a7a:	4711                	li	a4,4
     a7c:	4589                	li	a1,2
     a7e:	4501                	li	a0,0
     a80:	678020ef          	jal	ra,30f8 <lcd_showfloat>
C:\Users\windows\Desktop\A_Dual\A_Dual1\Dual-core_Communication_Demo\Dual-core_Communication_Demo\MASTER\obj/../USER/main.c:210
            lcd_showfloat(80,2,Pid_fr.out,4,2);
     a84:	88418793          	addi	a5,gp,-1916 # 200000f4 <Pid_fr>
     a88:	4fdc                	lw	a5,28(a5)
     a8a:	853e                	mv	a0,a5
     a8c:	57d060ef          	jal	ra,7808 <__extendsfdf2>
     a90:	862a                	mv	a2,a0
     a92:	86ae                	mv	a3,a1
     a94:	4789                	li	a5,2
     a96:	4711                	li	a4,4
     a98:	4589                	li	a1,2
     a9a:	05000513          	li	a0,80
     a9e:	65a020ef          	jal	ra,30f8 <lcd_showfloat>
C:\Users\windows\Desktop\A_Dual\A_Dual1\Dual-core_Communication_Demo\Dual-core_Communication_Demo\MASTER\obj/../USER/main.c:211
            lcd_showfloat(0,3,Pid_rl.out,4,2);
     aa2:	8b418793          	addi	a5,gp,-1868 # 20000124 <Pid_rl>
     aa6:	4fdc                	lw	a5,28(a5)
     aa8:	853e                	mv	a0,a5
     aaa:	55f060ef          	jal	ra,7808 <__extendsfdf2>
     aae:	862a                	mv	a2,a0
     ab0:	86ae                	mv	a3,a1
     ab2:	4789                	li	a5,2
     ab4:	4711                	li	a4,4
     ab6:	458d                	li	a1,3
     ab8:	4501                	li	a0,0
     aba:	63e020ef          	jal	ra,30f8 <lcd_showfloat>
C:\Users\windows\Desktop\A_Dual\A_Dual1\Dual-core_Communication_Demo\Dual-core_Communication_Demo\MASTER\obj/../USER/main.c:212
            lcd_showfloat(80,3,Pid_rr.out,4,2);
     abe:	8e418793          	addi	a5,gp,-1820 # 20000154 <Pid_rr>
     ac2:	4fdc                	lw	a5,28(a5)
     ac4:	853e                	mv	a0,a5
     ac6:	543060ef          	jal	ra,7808 <__extendsfdf2>
     aca:	862a                	mv	a2,a0
     acc:	86ae                	mv	a3,a1
     ace:	4789                	li	a5,2
     ad0:	4711                	li	a4,4
     ad2:	458d                	li	a1,3
     ad4:	05000513          	li	a0,80
     ad8:	620020ef          	jal	ra,30f8 <lcd_showfloat>
C:\Users\windows\Desktop\A_Dual\A_Dual1\Dual-core_Communication_Demo\Dual-core_Communication_Demo\MASTER\obj/../USER/main.c:214

            show_flag = 0;
     adc:	82018223          	sb	zero,-2012(gp) # 20000094 <show_flag>
C:\Users\windows\Desktop\A_Dual\A_Dual1\Dual-core_Communication_Demo\Dual-core_Communication_Demo\MASTER\obj/../USER/main.c:200
        if(show_flag)
     ae0:	b799                	j	a26 <main+0x76>

00000ae2 <handle_reset>:
handle_reset():
C:\Users\windows\Desktop\A_Dual\A_Dual1\Dual-core_Communication_Demo\Dual-core_Communication_Demo\MASTER\obj/../Libraries/wch_libraries/Startup/startup_ch32v10x.S:147
	.weak	handle_reset
	.align	1
handle_reset:
.option push 
.option	norelax 
	la gp, __global_pointer$
     ae2:	20000197          	auipc	gp,0x20000
     ae6:	d8e18193          	addi	gp,gp,-626 # 20000870 <__global_pointer$>
C:\Users\windows\Desktop\A_Dual\A_Dual1\Dual-core_Communication_Demo\Dual-core_Communication_Demo\MASTER\obj/../Libraries/wch_libraries/Startup/startup_ch32v10x.S:150
.option	pop 
1:
	la sp, _eusrstack 
     aea:	20004117          	auipc	sp,0x20004
     aee:	51610113          	addi	sp,sp,1302 # 20005000 <_eusrstack>
C:\Users\windows\Desktop\A_Dual\A_Dual1\Dual-core_Communication_Demo\Dual-core_Communication_Demo\MASTER\obj/../Libraries/wch_libraries/Startup/startup_ch32v10x.S:153
2:
	/* Load data section from flash to RAM */
	la a0, _data_lma
     af2:	00009517          	auipc	a0,0x9
     af6:	bfa50513          	addi	a0,a0,-1030 # 96ec <_data_lma>
C:\Users\windows\Desktop\A_Dual\A_Dual1\Dual-core_Communication_Demo\Dual-core_Communication_Demo\MASTER\obj/../Libraries/wch_libraries/Startup/startup_ch32v10x.S:154
	la a1, _data_vma
     afa:	1ffff597          	auipc	a1,0x1ffff
     afe:	50658593          	addi	a1,a1,1286 # 20000000 <_data_vma>
C:\Users\windows\Desktop\A_Dual\A_Dual1\Dual-core_Communication_Demo\Dual-core_Communication_Demo\MASTER\obj/../Libraries/wch_libraries/Startup/startup_ch32v10x.S:155
	la a2, _edata
     b02:	81818613          	addi	a2,gp,-2024 # 20000088 <_edata>
C:\Users\windows\Desktop\A_Dual\A_Dual1\Dual-core_Communication_Demo\Dual-core_Communication_Demo\MASTER\obj/../Libraries/wch_libraries/Startup/startup_ch32v10x.S:156
	bgeu a1, a2, 2f
     b06:	00c5fa63          	bgeu	a1,a2,b1a <handle_reset+0x38>
C:\Users\windows\Desktop\A_Dual\A_Dual1\Dual-core_Communication_Demo\Dual-core_Communication_Demo\MASTER\obj/../Libraries/wch_libraries/Startup/startup_ch32v10x.S:158
1:
	lw t0, (a0)
     b0a:	00052283          	lw	t0,0(a0)
C:\Users\windows\Desktop\A_Dual\A_Dual1\Dual-core_Communication_Demo\Dual-core_Communication_Demo\MASTER\obj/../Libraries/wch_libraries/Startup/startup_ch32v10x.S:159
	sw t0, (a1)
     b0e:	0055a023          	sw	t0,0(a1)
C:\Users\windows\Desktop\A_Dual\A_Dual1\Dual-core_Communication_Demo\Dual-core_Communication_Demo\MASTER\obj/../Libraries/wch_libraries/Startup/startup_ch32v10x.S:160
	addi a0, a0, 4
     b12:	0511                	addi	a0,a0,4
C:\Users\windows\Desktop\A_Dual\A_Dual1\Dual-core_Communication_Demo\Dual-core_Communication_Demo\MASTER\obj/../Libraries/wch_libraries/Startup/startup_ch32v10x.S:161
	addi a1, a1, 4
     b14:	0591                	addi	a1,a1,4
C:\Users\windows\Desktop\A_Dual\A_Dual1\Dual-core_Communication_Demo\Dual-core_Communication_Demo\MASTER\obj/../Libraries/wch_libraries/Startup/startup_ch32v10x.S:162
	bltu a1, a2, 1b
     b16:	fec5eae3          	bltu	a1,a2,b0a <handle_reset+0x28>
C:\Users\windows\Desktop\A_Dual\A_Dual1\Dual-core_Communication_Demo\Dual-core_Communication_Demo\MASTER\obj/../Libraries/wch_libraries/Startup/startup_ch32v10x.S:165
2:
	/* clear bss section */
	la a0, _sbss
     b1a:	81818513          	addi	a0,gp,-2024 # 20000088 <_edata>
C:\Users\windows\Desktop\A_Dual\A_Dual1\Dual-core_Communication_Demo\Dual-core_Communication_Demo\MASTER\obj/../Libraries/wch_libraries/Startup/startup_ch32v10x.S:166
	la a1, _ebss
     b1e:	92418593          	addi	a1,gp,-1756 # 20000194 <_ebss>
C:\Users\windows\Desktop\A_Dual\A_Dual1\Dual-core_Communication_Demo\Dual-core_Communication_Demo\MASTER\obj/../Libraries/wch_libraries/Startup/startup_ch32v10x.S:167
	bgeu a0, a1, 2f
     b22:	00b57763          	bgeu	a0,a1,b30 <handle_reset+0x4e>
C:\Users\windows\Desktop\A_Dual\A_Dual1\Dual-core_Communication_Demo\Dual-core_Communication_Demo\MASTER\obj/../Libraries/wch_libraries/Startup/startup_ch32v10x.S:169
1:
	sw zero, (a0)
     b26:	00052023          	sw	zero,0(a0)
C:\Users\windows\Desktop\A_Dual\A_Dual1\Dual-core_Communication_Demo\Dual-core_Communication_Demo\MASTER\obj/../Libraries/wch_libraries/Startup/startup_ch32v10x.S:170
	addi a0, a0, 4
     b2a:	0511                	addi	a0,a0,4
C:\Users\windows\Desktop\A_Dual\A_Dual1\Dual-core_Communication_Demo\Dual-core_Communication_Demo\MASTER\obj/../Libraries/wch_libraries/Startup/startup_ch32v10x.S:171
	bltu a0, a1, 1b
     b2c:	feb56de3          	bltu	a0,a1,b26 <handle_reset+0x44>
C:\Users\windows\Desktop\A_Dual\A_Dual1\Dual-core_Communication_Demo\Dual-core_Communication_Demo\MASTER\obj/../Libraries/wch_libraries/Startup/startup_ch32v10x.S:174
2:
	/* enable all interrupt */
  li t0, 0x88
     b30:	08800293          	li	t0,136
C:\Users\windows\Desktop\A_Dual\A_Dual1\Dual-core_Communication_Demo\Dual-core_Communication_Demo\MASTER\obj/../Libraries/wch_libraries/Startup/startup_ch32v10x.S:175
  csrs mstatus, t0
     b34:	3002a073          	csrs	mstatus,t0
C:\Users\windows\Desktop\A_Dual\A_Dual1\Dual-core_Communication_Demo\Dual-core_Communication_Demo\MASTER\obj/../Libraries/wch_libraries/Startup/startup_ch32v10x.S:176
	la t0, _vector_base
     b38:	fffff297          	auipc	t0,0xfffff
     b3c:	50028293          	addi	t0,t0,1280 # 38 <_einit>
C:\Users\windows\Desktop\A_Dual\A_Dual1\Dual-core_Communication_Demo\Dual-core_Communication_Demo\MASTER\obj/../Libraries/wch_libraries/Startup/startup_ch32v10x.S:177
  ori t0, t0, 1
     b40:	0012e293          	ori	t0,t0,1
C:\Users\windows\Desktop\A_Dual\A_Dual1\Dual-core_Communication_Demo\Dual-core_Communication_Demo\MASTER\obj/../Libraries/wch_libraries/Startup/startup_ch32v10x.S:178
	csrw mtvec, t0
     b44:	30529073          	csrw	mtvec,t0
C:\Users\windows\Desktop\A_Dual\A_Dual1\Dual-core_Communication_Demo\Dual-core_Communication_Demo\MASTER\obj/../Libraries/wch_libraries/Startup/startup_ch32v10x.S:180

  jal  SystemInit
     b48:	770040ef          	jal	ra,52b8 <SystemInit>
C:\Users\windows\Desktop\A_Dual\A_Dual1\Dual-core_Communication_Demo\Dual-core_Communication_Demo\MASTER\obj/../Libraries/wch_libraries/Startup/startup_ch32v10x.S:181
	la t0, main
     b4c:	00000297          	auipc	t0,0x0
     b50:	e6428293          	addi	t0,t0,-412 # 9b0 <main>
C:\Users\windows\Desktop\A_Dual\A_Dual1\Dual-core_Communication_Demo\Dual-core_Communication_Demo\MASTER\obj/../Libraries/wch_libraries/Startup/startup_ch32v10x.S:182
	csrw mepc, t0
     b54:	34129073          	csrw	mepc,t0
C:\Users\windows\Desktop\A_Dual\A_Dual1\Dual-core_Communication_Demo\Dual-core_Communication_Demo\MASTER\obj/../Libraries/wch_libraries/Startup/startup_ch32v10x.S:183
	mret
     b58:	30200073          	mret

00000b5c <DMA_GetFlagStatus>:
DMA_GetFlagStatus():
C:\Users\windows\Desktop\A_Dual\A_Dual1\Dual-core_Communication_Demo\Dual-core_Communication_Demo\MASTER\obj/../Libraries/wch_libraries/Peripheral/ch32v10x_dma.c:290
*                      DMA2_FLAG_HT5: DMA2 Channel5 half transfer flag.
*                      DMA2_FLAG_TE5: DMA2 Channel5 transfer error flag.
* Return         : The new state of DMAy_FLAG (SET or RESET). 
*********************************************************************************/
FlagStatus DMA_GetFlagStatus(uint32_t DMAy_FLAG)
{
     b5c:	7179                	addi	sp,sp,-48
     b5e:	d622                	sw	s0,44(sp)
     b60:	1800                	addi	s0,sp,48
     b62:	fca42e23          	sw	a0,-36(s0)
C:\Users\windows\Desktop\A_Dual\A_Dual1\Dual-core_Communication_Demo\Dual-core_Communication_Demo\MASTER\obj/../Libraries/wch_libraries/Peripheral/ch32v10x_dma.c:291
  FlagStatus bitstatus = RESET;
     b66:	fe042623          	sw	zero,-20(s0)
C:\Users\windows\Desktop\A_Dual\A_Dual1\Dual-core_Communication_Demo\Dual-core_Communication_Demo\MASTER\obj/../Libraries/wch_libraries/Peripheral/ch32v10x_dma.c:292
  uint32_t tmpreg = 0;
     b6a:	fe042423          	sw	zero,-24(s0)
C:\Users\windows\Desktop\A_Dual\A_Dual1\Dual-core_Communication_Demo\Dual-core_Communication_Demo\MASTER\obj/../Libraries/wch_libraries/Peripheral/ch32v10x_dma.c:294
  
  if ((DMAy_FLAG & FLAG_Mask) != (uint32_t)RESET)
     b6e:	fdc42703          	lw	a4,-36(s0)
     b72:	100007b7          	lui	a5,0x10000
     b76:	8ff9                	and	a5,a5,a4
     b78:	cb89                	beqz	a5,b8a <DMA_GetFlagStatus+0x2e>
C:\Users\windows\Desktop\A_Dual\A_Dual1\Dual-core_Communication_Demo\Dual-core_Communication_Demo\MASTER\obj/../Libraries/wch_libraries/Peripheral/ch32v10x_dma.c:296
  {
    tmpreg = DMA2->INTFR ;
     b7a:	400207b7          	lui	a5,0x40020
     b7e:	40078793          	addi	a5,a5,1024 # 40020400 <_eusrstack+0x2001b400>
     b82:	439c                	lw	a5,0(a5)
     b84:	fef42423          	sw	a5,-24(s0)
     b88:	a031                	j	b94 <DMA_GetFlagStatus+0x38>
C:\Users\windows\Desktop\A_Dual\A_Dual1\Dual-core_Communication_Demo\Dual-core_Communication_Demo\MASTER\obj/../Libraries/wch_libraries/Peripheral/ch32v10x_dma.c:300
  }
  else
  {
    tmpreg = DMA1->INTFR ;
     b8a:	400207b7          	lui	a5,0x40020
     b8e:	439c                	lw	a5,0(a5)
     b90:	fef42423          	sw	a5,-24(s0)
C:\Users\windows\Desktop\A_Dual\A_Dual1\Dual-core_Communication_Demo\Dual-core_Communication_Demo\MASTER\obj/../Libraries/wch_libraries/Peripheral/ch32v10x_dma.c:303
  }

  if ((tmpreg & DMAy_FLAG) != (uint32_t)RESET)
     b94:	fe842703          	lw	a4,-24(s0)
     b98:	fdc42783          	lw	a5,-36(s0)
     b9c:	8ff9                	and	a5,a5,a4
     b9e:	c789                	beqz	a5,ba8 <DMA_GetFlagStatus+0x4c>
C:\Users\windows\Desktop\A_Dual\A_Dual1\Dual-core_Communication_Demo\Dual-core_Communication_Demo\MASTER\obj/../Libraries/wch_libraries/Peripheral/ch32v10x_dma.c:305
  {
    bitstatus = SET;
     ba0:	4785                	li	a5,1
     ba2:	fef42623          	sw	a5,-20(s0)
     ba6:	a019                	j	bac <DMA_GetFlagStatus+0x50>
C:\Users\windows\Desktop\A_Dual\A_Dual1\Dual-core_Communication_Demo\Dual-core_Communication_Demo\MASTER\obj/../Libraries/wch_libraries/Peripheral/ch32v10x_dma.c:309
  }
  else
  {
    bitstatus = RESET;
     ba8:	fe042623          	sw	zero,-20(s0)
C:\Users\windows\Desktop\A_Dual\A_Dual1\Dual-core_Communication_Demo\Dual-core_Communication_Demo\MASTER\obj/../Libraries/wch_libraries/Peripheral/ch32v10x_dma.c:312
  }
  
  return  bitstatus;
     bac:	fec42783          	lw	a5,-20(s0)
C:\Users\windows\Desktop\A_Dual\A_Dual1\Dual-core_Communication_Demo\Dual-core_Communication_Demo\MASTER\obj/../Libraries/wch_libraries/Peripheral/ch32v10x_dma.c:313
}
     bb0:	853e                	mv	a0,a5
     bb2:	5432                	lw	s0,44(sp)
     bb4:	6145                	addi	sp,sp,48
     bb6:	8082                	ret

00000bb8 <DMA_ClearFlag>:
DMA_ClearFlag():
C:\Users\windows\Desktop\A_Dual\A_Dual1\Dual-core_Communication_Demo\Dual-core_Communication_Demo\MASTER\obj/../Libraries/wch_libraries/Peripheral/ch32v10x_dma.c:371
*                      DMA2_FLAG_HT5: DMA2 Channel5 half transfer flag.
*                      DMA2_FLAG_TE5: DMA2 Channel5 transfer error flag.
* Return         : None 
*********************************************************************************/
void DMA_ClearFlag(uint32_t DMAy_FLAG)
{
     bb8:	1101                	addi	sp,sp,-32
     bba:	ce22                	sw	s0,28(sp)
     bbc:	1000                	addi	s0,sp,32
     bbe:	fea42623          	sw	a0,-20(s0)
C:\Users\windows\Desktop\A_Dual\A_Dual1\Dual-core_Communication_Demo\Dual-core_Communication_Demo\MASTER\obj/../Libraries/wch_libraries/Peripheral/ch32v10x_dma.c:372
  if ((DMAy_FLAG & FLAG_Mask) != (uint32_t)RESET)
     bc2:	fec42703          	lw	a4,-20(s0)
     bc6:	100007b7          	lui	a5,0x10000
     bca:	8ff9                	and	a5,a5,a4
     bcc:	cb89                	beqz	a5,bde <DMA_ClearFlag+0x26>
C:\Users\windows\Desktop\A_Dual\A_Dual1\Dual-core_Communication_Demo\Dual-core_Communication_Demo\MASTER\obj/../Libraries/wch_libraries/Peripheral/ch32v10x_dma.c:374
  {
    DMA2->INTFCR = DMAy_FLAG;
     bce:	400207b7          	lui	a5,0x40020
     bd2:	40078793          	addi	a5,a5,1024 # 40020400 <_eusrstack+0x2001b400>
     bd6:	fec42703          	lw	a4,-20(s0)
     bda:	c3d8                	sw	a4,4(a5)
C:\Users\windows\Desktop\A_Dual\A_Dual1\Dual-core_Communication_Demo\Dual-core_Communication_Demo\MASTER\obj/../Libraries/wch_libraries/Peripheral/ch32v10x_dma.c:380
  }
  else
  {
    DMA1->INTFCR = DMAy_FLAG;
  }
}
     bdc:	a031                	j	be8 <DMA_ClearFlag+0x30>
C:\Users\windows\Desktop\A_Dual\A_Dual1\Dual-core_Communication_Demo\Dual-core_Communication_Demo\MASTER\obj/../Libraries/wch_libraries/Peripheral/ch32v10x_dma.c:378
    DMA1->INTFCR = DMAy_FLAG;
     bde:	400207b7          	lui	a5,0x40020
     be2:	fec42703          	lw	a4,-20(s0)
     be6:	c3d8                	sw	a4,4(a5)
C:\Users\windows\Desktop\A_Dual\A_Dual1\Dual-core_Communication_Demo\Dual-core_Communication_Demo\MASTER\obj/../Libraries/wch_libraries/Peripheral/ch32v10x_dma.c:380
}
     be8:	0001                	nop
     bea:	4472                	lw	s0,28(sp)
     bec:	6105                	addi	sp,sp,32
     bee:	8082                	ret

00000bf0 <EXTI_Init>:
EXTI_Init():
C:\Users\windows\Desktop\A_Dual\A_Dual1\Dual-core_Communication_Demo\Dual-core_Communication_Demo\MASTER\obj/../Libraries/wch_libraries/Peripheral/ch32v10x_exti.c:37
*                  parameters in the EXTI_InitStruct.
* Input          : EXTI_InitStruct: pointer to a EXTI_InitTypeDef structure
* Return         : None
*********************************************************************************/	
void EXTI_Init(EXTI_InitTypeDef* EXTI_InitStruct)
{
     bf0:	7179                	addi	sp,sp,-48
     bf2:	d622                	sw	s0,44(sp)
     bf4:	1800                	addi	s0,sp,48
     bf6:	fca42e23          	sw	a0,-36(s0)
C:\Users\windows\Desktop\A_Dual\A_Dual1\Dual-core_Communication_Demo\Dual-core_Communication_Demo\MASTER\obj/../Libraries/wch_libraries/Peripheral/ch32v10x_exti.c:38
  uint32_t tmp = 0;
     bfa:	fe042623          	sw	zero,-20(s0)
C:\Users\windows\Desktop\A_Dual\A_Dual1\Dual-core_Communication_Demo\Dual-core_Communication_Demo\MASTER\obj/../Libraries/wch_libraries/Peripheral/ch32v10x_exti.c:40

  tmp = (uint32_t)EXTI_BASE;
     bfe:	400107b7          	lui	a5,0x40010
     c02:	40078793          	addi	a5,a5,1024 # 40010400 <_eusrstack+0x2000b400>
     c06:	fef42623          	sw	a5,-20(s0)
C:\Users\windows\Desktop\A_Dual\A_Dual1\Dual-core_Communication_Demo\Dual-core_Communication_Demo\MASTER\obj/../Libraries/wch_libraries/Peripheral/ch32v10x_exti.c:41
  if (EXTI_InitStruct->EXTI_LineCmd != DISABLE)
     c0a:	fdc42783          	lw	a5,-36(s0)
     c0e:	47dc                	lw	a5,12(a5)
     c10:	12078063          	beqz	a5,d30 <EXTI_Init+0x140>
C:\Users\windows\Desktop\A_Dual\A_Dual1\Dual-core_Communication_Demo\Dual-core_Communication_Demo\MASTER\obj/../Libraries/wch_libraries/Peripheral/ch32v10x_exti.c:43
  {
    EXTI->INTENR &= ~EXTI_InitStruct->EXTI_Line;
     c14:	400107b7          	lui	a5,0x40010
     c18:	40078793          	addi	a5,a5,1024 # 40010400 <_eusrstack+0x2000b400>
     c1c:	4394                	lw	a3,0(a5)
     c1e:	fdc42783          	lw	a5,-36(s0)
     c22:	439c                	lw	a5,0(a5)
     c24:	fff7c713          	not	a4,a5
     c28:	400107b7          	lui	a5,0x40010
     c2c:	40078793          	addi	a5,a5,1024 # 40010400 <_eusrstack+0x2000b400>
     c30:	8f75                	and	a4,a4,a3
     c32:	c398                	sw	a4,0(a5)
C:\Users\windows\Desktop\A_Dual\A_Dual1\Dual-core_Communication_Demo\Dual-core_Communication_Demo\MASTER\obj/../Libraries/wch_libraries/Peripheral/ch32v10x_exti.c:44
    EXTI->EVENR &= ~EXTI_InitStruct->EXTI_Line;
     c34:	400107b7          	lui	a5,0x40010
     c38:	40078793          	addi	a5,a5,1024 # 40010400 <_eusrstack+0x2000b400>
     c3c:	43d4                	lw	a3,4(a5)
     c3e:	fdc42783          	lw	a5,-36(s0)
     c42:	439c                	lw	a5,0(a5)
     c44:	fff7c713          	not	a4,a5
     c48:	400107b7          	lui	a5,0x40010
     c4c:	40078793          	addi	a5,a5,1024 # 40010400 <_eusrstack+0x2000b400>
     c50:	8f75                	and	a4,a4,a3
     c52:	c3d8                	sw	a4,4(a5)
C:\Users\windows\Desktop\A_Dual\A_Dual1\Dual-core_Communication_Demo\Dual-core_Communication_Demo\MASTER\obj/../Libraries/wch_libraries/Peripheral/ch32v10x_exti.c:45
    tmp += EXTI_InitStruct->EXTI_Mode;
     c54:	fdc42783          	lw	a5,-36(s0)
     c58:	43dc                	lw	a5,4(a5)
     c5a:	fec42703          	lw	a4,-20(s0)
     c5e:	97ba                	add	a5,a5,a4
     c60:	fef42623          	sw	a5,-20(s0)
C:\Users\windows\Desktop\A_Dual\A_Dual1\Dual-core_Communication_Demo\Dual-core_Communication_Demo\MASTER\obj/../Libraries/wch_libraries/Peripheral/ch32v10x_exti.c:46
    *(__IO uint32_t *) tmp |= EXTI_InitStruct->EXTI_Line;
     c64:	fec42783          	lw	a5,-20(s0)
     c68:	4394                	lw	a3,0(a5)
     c6a:	fdc42783          	lw	a5,-36(s0)
     c6e:	4398                	lw	a4,0(a5)
     c70:	fec42783          	lw	a5,-20(s0)
     c74:	8f55                	or	a4,a4,a3
     c76:	c398                	sw	a4,0(a5)
C:\Users\windows\Desktop\A_Dual\A_Dual1\Dual-core_Communication_Demo\Dual-core_Communication_Demo\MASTER\obj/../Libraries/wch_libraries/Peripheral/ch32v10x_exti.c:47
    EXTI->RTENR &= ~EXTI_InitStruct->EXTI_Line;
     c78:	400107b7          	lui	a5,0x40010
     c7c:	40078793          	addi	a5,a5,1024 # 40010400 <_eusrstack+0x2000b400>
     c80:	4794                	lw	a3,8(a5)
     c82:	fdc42783          	lw	a5,-36(s0)
     c86:	439c                	lw	a5,0(a5)
     c88:	fff7c713          	not	a4,a5
     c8c:	400107b7          	lui	a5,0x40010
     c90:	40078793          	addi	a5,a5,1024 # 40010400 <_eusrstack+0x2000b400>
     c94:	8f75                	and	a4,a4,a3
     c96:	c798                	sw	a4,8(a5)
C:\Users\windows\Desktop\A_Dual\A_Dual1\Dual-core_Communication_Demo\Dual-core_Communication_Demo\MASTER\obj/../Libraries/wch_libraries/Peripheral/ch32v10x_exti.c:48
    EXTI->FTENR &= ~EXTI_InitStruct->EXTI_Line;
     c98:	400107b7          	lui	a5,0x40010
     c9c:	40078793          	addi	a5,a5,1024 # 40010400 <_eusrstack+0x2000b400>
     ca0:	47d4                	lw	a3,12(a5)
     ca2:	fdc42783          	lw	a5,-36(s0)
     ca6:	439c                	lw	a5,0(a5)
     ca8:	fff7c713          	not	a4,a5
     cac:	400107b7          	lui	a5,0x40010
     cb0:	40078793          	addi	a5,a5,1024 # 40010400 <_eusrstack+0x2000b400>
     cb4:	8f75                	and	a4,a4,a3
     cb6:	c7d8                	sw	a4,12(a5)
C:\Users\windows\Desktop\A_Dual\A_Dual1\Dual-core_Communication_Demo\Dual-core_Communication_Demo\MASTER\obj/../Libraries/wch_libraries/Peripheral/ch32v10x_exti.c:49
    if (EXTI_InitStruct->EXTI_Trigger == EXTI_Trigger_Rising_Falling)
     cb8:	fdc42783          	lw	a5,-36(s0)
     cbc:	4798                	lw	a4,8(a5)
     cbe:	47c1                	li	a5,16
     cc0:	02f71f63          	bne	a4,a5,cfe <EXTI_Init+0x10e>
C:\Users\windows\Desktop\A_Dual\A_Dual1\Dual-core_Communication_Demo\Dual-core_Communication_Demo\MASTER\obj/../Libraries/wch_libraries/Peripheral/ch32v10x_exti.c:51
    {
      EXTI->RTENR |= EXTI_InitStruct->EXTI_Line;
     cc4:	400107b7          	lui	a5,0x40010
     cc8:	40078793          	addi	a5,a5,1024 # 40010400 <_eusrstack+0x2000b400>
     ccc:	4794                	lw	a3,8(a5)
     cce:	fdc42783          	lw	a5,-36(s0)
     cd2:	4398                	lw	a4,0(a5)
     cd4:	400107b7          	lui	a5,0x40010
     cd8:	40078793          	addi	a5,a5,1024 # 40010400 <_eusrstack+0x2000b400>
     cdc:	8f55                	or	a4,a4,a3
     cde:	c798                	sw	a4,8(a5)
C:\Users\windows\Desktop\A_Dual\A_Dual1\Dual-core_Communication_Demo\Dual-core_Communication_Demo\MASTER\obj/../Libraries/wch_libraries/Peripheral/ch32v10x_exti.c:52
      EXTI->FTENR |= EXTI_InitStruct->EXTI_Line;
     ce0:	400107b7          	lui	a5,0x40010
     ce4:	40078793          	addi	a5,a5,1024 # 40010400 <_eusrstack+0x2000b400>
     ce8:	47d4                	lw	a3,12(a5)
     cea:	fdc42783          	lw	a5,-36(s0)
     cee:	4398                	lw	a4,0(a5)
     cf0:	400107b7          	lui	a5,0x40010
     cf4:	40078793          	addi	a5,a5,1024 # 40010400 <_eusrstack+0x2000b400>
     cf8:	8f55                	or	a4,a4,a3
     cfa:	c7d8                	sw	a4,12(a5)
C:\Users\windows\Desktop\A_Dual\A_Dual1\Dual-core_Communication_Demo\Dual-core_Communication_Demo\MASTER\obj/../Libraries/wch_libraries/Peripheral/ch32v10x_exti.c:66
  else
  {
    tmp += EXTI_InitStruct->EXTI_Mode;
    *(__IO uint32_t *) tmp &= ~EXTI_InitStruct->EXTI_Line;
  }
}
     cfc:	a8b1                	j	d58 <EXTI_Init+0x168>
C:\Users\windows\Desktop\A_Dual\A_Dual1\Dual-core_Communication_Demo\Dual-core_Communication_Demo\MASTER\obj/../Libraries/wch_libraries/Peripheral/ch32v10x_exti.c:56
      tmp = (uint32_t)EXTI_BASE;
     cfe:	400107b7          	lui	a5,0x40010
     d02:	40078793          	addi	a5,a5,1024 # 40010400 <_eusrstack+0x2000b400>
     d06:	fef42623          	sw	a5,-20(s0)
C:\Users\windows\Desktop\A_Dual\A_Dual1\Dual-core_Communication_Demo\Dual-core_Communication_Demo\MASTER\obj/../Libraries/wch_libraries/Peripheral/ch32v10x_exti.c:57
      tmp += EXTI_InitStruct->EXTI_Trigger;
     d0a:	fdc42783          	lw	a5,-36(s0)
     d0e:	479c                	lw	a5,8(a5)
     d10:	fec42703          	lw	a4,-20(s0)
     d14:	97ba                	add	a5,a5,a4
     d16:	fef42623          	sw	a5,-20(s0)
C:\Users\windows\Desktop\A_Dual\A_Dual1\Dual-core_Communication_Demo\Dual-core_Communication_Demo\MASTER\obj/../Libraries/wch_libraries/Peripheral/ch32v10x_exti.c:58
      *(__IO uint32_t *) tmp |= EXTI_InitStruct->EXTI_Line;
     d1a:	fec42783          	lw	a5,-20(s0)
     d1e:	4394                	lw	a3,0(a5)
     d20:	fdc42783          	lw	a5,-36(s0)
     d24:	4398                	lw	a4,0(a5)
     d26:	fec42783          	lw	a5,-20(s0)
     d2a:	8f55                	or	a4,a4,a3
     d2c:	c398                	sw	a4,0(a5)
C:\Users\windows\Desktop\A_Dual\A_Dual1\Dual-core_Communication_Demo\Dual-core_Communication_Demo\MASTER\obj/../Libraries/wch_libraries/Peripheral/ch32v10x_exti.c:66
}
     d2e:	a02d                	j	d58 <EXTI_Init+0x168>
C:\Users\windows\Desktop\A_Dual\A_Dual1\Dual-core_Communication_Demo\Dual-core_Communication_Demo\MASTER\obj/../Libraries/wch_libraries/Peripheral/ch32v10x_exti.c:63
    tmp += EXTI_InitStruct->EXTI_Mode;
     d30:	fdc42783          	lw	a5,-36(s0)
     d34:	43dc                	lw	a5,4(a5)
     d36:	fec42703          	lw	a4,-20(s0)
     d3a:	97ba                	add	a5,a5,a4
     d3c:	fef42623          	sw	a5,-20(s0)
C:\Users\windows\Desktop\A_Dual\A_Dual1\Dual-core_Communication_Demo\Dual-core_Communication_Demo\MASTER\obj/../Libraries/wch_libraries/Peripheral/ch32v10x_exti.c:64
    *(__IO uint32_t *) tmp &= ~EXTI_InitStruct->EXTI_Line;
     d40:	fec42783          	lw	a5,-20(s0)
     d44:	4394                	lw	a3,0(a5)
     d46:	fdc42783          	lw	a5,-36(s0)
     d4a:	439c                	lw	a5,0(a5)
     d4c:	fff7c713          	not	a4,a5
     d50:	fec42783          	lw	a5,-20(s0)
     d54:	8f75                	and	a4,a4,a3
     d56:	c398                	sw	a4,0(a5)
C:\Users\windows\Desktop\A_Dual\A_Dual1\Dual-core_Communication_Demo\Dual-core_Communication_Demo\MASTER\obj/../Libraries/wch_libraries/Peripheral/ch32v10x_exti.c:66
}
     d58:	0001                	nop
     d5a:	5432                	lw	s0,44(sp)
     d5c:	6145                	addi	sp,sp,48
     d5e:	8082                	ret

00000d60 <EXTI_GetITStatus>:
EXTI_GetITStatus():
C:\Users\windows\Desktop\A_Dual\A_Dual1\Dual-core_Communication_Demo\Dual-core_Communication_Demo\MASTER\obj/../Libraries/wch_libraries/Peripheral/ch32v10x_exti.c:131
* Description    : Checks whether the specified EXTI line is asserted or not.
* Input          : EXTI_Line: specifies the EXTI lines to be enabled or disabled.
* Return         : The new state of EXTI_Line (SET or RESET).
*********************************************************************************/	
ITStatus EXTI_GetITStatus(uint32_t EXTI_Line)
{
     d60:	7179                	addi	sp,sp,-48
     d62:	d622                	sw	s0,44(sp)
     d64:	1800                	addi	s0,sp,48
     d66:	fca42e23          	sw	a0,-36(s0)
C:\Users\windows\Desktop\A_Dual\A_Dual1\Dual-core_Communication_Demo\Dual-core_Communication_Demo\MASTER\obj/../Libraries/wch_libraries/Peripheral/ch32v10x_exti.c:132
  ITStatus bitstatus = RESET;
     d6a:	fe042623          	sw	zero,-20(s0)
C:\Users\windows\Desktop\A_Dual\A_Dual1\Dual-core_Communication_Demo\Dual-core_Communication_Demo\MASTER\obj/../Libraries/wch_libraries/Peripheral/ch32v10x_exti.c:133
  uint32_t enablestatus = 0;
     d6e:	fe042423          	sw	zero,-24(s0)
C:\Users\windows\Desktop\A_Dual\A_Dual1\Dual-core_Communication_Demo\Dual-core_Communication_Demo\MASTER\obj/../Libraries/wch_libraries/Peripheral/ch32v10x_exti.c:135
  
  enablestatus =  EXTI->INTENR & EXTI_Line;
     d72:	400107b7          	lui	a5,0x40010
     d76:	40078793          	addi	a5,a5,1024 # 40010400 <_eusrstack+0x2000b400>
     d7a:	439c                	lw	a5,0(a5)
     d7c:	fdc42703          	lw	a4,-36(s0)
     d80:	8ff9                	and	a5,a5,a4
     d82:	fef42423          	sw	a5,-24(s0)
C:\Users\windows\Desktop\A_Dual\A_Dual1\Dual-core_Communication_Demo\Dual-core_Communication_Demo\MASTER\obj/../Libraries/wch_libraries/Peripheral/ch32v10x_exti.c:136
  if (((EXTI->INTFR & EXTI_Line) != (uint32_t)RESET) && (enablestatus != (uint32_t)RESET))
     d86:	400107b7          	lui	a5,0x40010
     d8a:	40078793          	addi	a5,a5,1024 # 40010400 <_eusrstack+0x2000b400>
     d8e:	4bd8                	lw	a4,20(a5)
     d90:	fdc42783          	lw	a5,-36(s0)
     d94:	8ff9                	and	a5,a5,a4
     d96:	cb81                	beqz	a5,da6 <EXTI_GetITStatus+0x46>
C:\Users\windows\Desktop\A_Dual\A_Dual1\Dual-core_Communication_Demo\Dual-core_Communication_Demo\MASTER\obj/../Libraries/wch_libraries/Peripheral/ch32v10x_exti.c:136 (discriminator 1)
     d98:	fe842783          	lw	a5,-24(s0)
     d9c:	c789                	beqz	a5,da6 <EXTI_GetITStatus+0x46>
C:\Users\windows\Desktop\A_Dual\A_Dual1\Dual-core_Communication_Demo\Dual-core_Communication_Demo\MASTER\obj/../Libraries/wch_libraries/Peripheral/ch32v10x_exti.c:138
  {
    bitstatus = SET;
     d9e:	4785                	li	a5,1
     da0:	fef42623          	sw	a5,-20(s0)
     da4:	a019                	j	daa <EXTI_GetITStatus+0x4a>
C:\Users\windows\Desktop\A_Dual\A_Dual1\Dual-core_Communication_Demo\Dual-core_Communication_Demo\MASTER\obj/../Libraries/wch_libraries/Peripheral/ch32v10x_exti.c:142
  }
  else
  {
    bitstatus = RESET;
     da6:	fe042623          	sw	zero,-20(s0)
C:\Users\windows\Desktop\A_Dual\A_Dual1\Dual-core_Communication_Demo\Dual-core_Communication_Demo\MASTER\obj/../Libraries/wch_libraries/Peripheral/ch32v10x_exti.c:144
  }
  return bitstatus;
     daa:	fec42783          	lw	a5,-20(s0)
C:\Users\windows\Desktop\A_Dual\A_Dual1\Dual-core_Communication_Demo\Dual-core_Communication_Demo\MASTER\obj/../Libraries/wch_libraries/Peripheral/ch32v10x_exti.c:145
}
     dae:	853e                	mv	a0,a5
     db0:	5432                	lw	s0,44(sp)
     db2:	6145                	addi	sp,sp,48
     db4:	8082                	ret

00000db6 <EXTI_ClearITPendingBit>:
EXTI_ClearITPendingBit():
C:\Users\windows\Desktop\A_Dual\A_Dual1\Dual-core_Communication_Demo\Dual-core_Communication_Demo\MASTER\obj/../Libraries/wch_libraries/Peripheral/ch32v10x_exti.c:154
* Description    : Clears the EXTI's line pending bits.
* Input          : EXTI_Line: specifies the EXTI lines to be enabled or disabled.
* Return         : None
*********************************************************************************/
void EXTI_ClearITPendingBit(uint32_t EXTI_Line)
{  
     db6:	1101                	addi	sp,sp,-32
     db8:	ce22                	sw	s0,28(sp)
     dba:	1000                	addi	s0,sp,32
     dbc:	fea42623          	sw	a0,-20(s0)
C:\Users\windows\Desktop\A_Dual\A_Dual1\Dual-core_Communication_Demo\Dual-core_Communication_Demo\MASTER\obj/../Libraries/wch_libraries/Peripheral/ch32v10x_exti.c:155
  EXTI->INTFR = EXTI_Line;
     dc0:	400107b7          	lui	a5,0x40010
     dc4:	40078793          	addi	a5,a5,1024 # 40010400 <_eusrstack+0x2000b400>
     dc8:	fec42703          	lw	a4,-20(s0)
     dcc:	cbd8                	sw	a4,20(a5)
C:\Users\windows\Desktop\A_Dual\A_Dual1\Dual-core_Communication_Demo\Dual-core_Communication_Demo\MASTER\obj/../Libraries/wch_libraries/Peripheral/ch32v10x_exti.c:156
}
     dce:	0001                	nop
     dd0:	4472                	lw	s0,28(sp)
     dd2:	6105                	addi	sp,sp,32
     dd4:	8082                	ret

00000dd6 <GPIO_Init>:
GPIO_Init():
C:\Users\windows\Desktop\A_Dual\A_Dual1\Dual-core_Communication_Demo\Dual-core_Communication_Demo\MASTER\obj/../Libraries/wch_libraries/Peripheral/ch32v10x_gpio.c:88
* Input          : GPIO_InitStruct: pointer to a GPIO_InitTypeDef structure that
*      contains the configuration information for the specified GPIO peripheral.
* Return         : None
*******************************************************************************/
void GPIO_Init(GPIO_TypeDef* GPIOx, GPIO_InitTypeDef* GPIO_InitStruct)
{
     dd6:	7139                	addi	sp,sp,-64
     dd8:	de22                	sw	s0,60(sp)
     dda:	0080                	addi	s0,sp,64
     ddc:	fca42623          	sw	a0,-52(s0)
     de0:	fcb42423          	sw	a1,-56(s0)
C:\Users\windows\Desktop\A_Dual\A_Dual1\Dual-core_Communication_Demo\Dual-core_Communication_Demo\MASTER\obj/../Libraries/wch_libraries/Peripheral/ch32v10x_gpio.c:89
  uint32_t currentmode = 0x00, currentpin = 0x00, pinpos = 0x00, pos = 0x00;
     de4:	fe042623          	sw	zero,-20(s0)
     de8:	fe042023          	sw	zero,-32(s0)
     dec:	fe042423          	sw	zero,-24(s0)
     df0:	fc042e23          	sw	zero,-36(s0)
C:\Users\windows\Desktop\A_Dual\A_Dual1\Dual-core_Communication_Demo\Dual-core_Communication_Demo\MASTER\obj/../Libraries/wch_libraries/Peripheral/ch32v10x_gpio.c:90
  uint32_t tmpreg = 0x00, pinmask = 0x00;
     df4:	fe042223          	sw	zero,-28(s0)
     df8:	fc042c23          	sw	zero,-40(s0)
C:\Users\windows\Desktop\A_Dual\A_Dual1\Dual-core_Communication_Demo\Dual-core_Communication_Demo\MASTER\obj/../Libraries/wch_libraries/Peripheral/ch32v10x_gpio.c:92

  currentmode = ((uint32_t)GPIO_InitStruct->GPIO_Mode) & ((uint32_t)0x0F);
     dfc:	fc842783          	lw	a5,-56(s0)
     e00:	479c                	lw	a5,8(a5)
     e02:	8bbd                	andi	a5,a5,15
     e04:	fef42623          	sw	a5,-20(s0)
C:\Users\windows\Desktop\A_Dual\A_Dual1\Dual-core_Communication_Demo\Dual-core_Communication_Demo\MASTER\obj/../Libraries/wch_libraries/Peripheral/ch32v10x_gpio.c:94
	
  if ((((uint32_t)GPIO_InitStruct->GPIO_Mode) & ((uint32_t)0x10)) != 0x00)
     e08:	fc842783          	lw	a5,-56(s0)
     e0c:	479c                	lw	a5,8(a5)
     e0e:	8bc1                	andi	a5,a5,16
     e10:	cb89                	beqz	a5,e22 <GPIO_Init+0x4c>
C:\Users\windows\Desktop\A_Dual\A_Dual1\Dual-core_Communication_Demo\Dual-core_Communication_Demo\MASTER\obj/../Libraries/wch_libraries/Peripheral/ch32v10x_gpio.c:96
  { 
    currentmode |= (uint32_t)GPIO_InitStruct->GPIO_Speed;
     e12:	fc842783          	lw	a5,-56(s0)
     e16:	43dc                	lw	a5,4(a5)
     e18:	fec42703          	lw	a4,-20(s0)
     e1c:	8fd9                	or	a5,a5,a4
     e1e:	fef42623          	sw	a5,-20(s0)
C:\Users\windows\Desktop\A_Dual\A_Dual1\Dual-core_Communication_Demo\Dual-core_Communication_Demo\MASTER\obj/../Libraries/wch_libraries/Peripheral/ch32v10x_gpio.c:99
  }

  if (((uint32_t)GPIO_InitStruct->GPIO_Pin & ((uint32_t)0x00FF)) != 0x00)
     e22:	fc842783          	lw	a5,-56(s0)
     e26:	0007d783          	lhu	a5,0(a5)
     e2a:	0ff7f793          	andi	a5,a5,255
     e2e:	cff1                	beqz	a5,f0a <GPIO_Init+0x134>
C:\Users\windows\Desktop\A_Dual\A_Dual1\Dual-core_Communication_Demo\Dual-core_Communication_Demo\MASTER\obj/../Libraries/wch_libraries/Peripheral/ch32v10x_gpio.c:101
  {
    tmpreg = GPIOx->CFGLR;
     e30:	fcc42783          	lw	a5,-52(s0)
     e34:	439c                	lw	a5,0(a5)
     e36:	fef42223          	sw	a5,-28(s0)
C:\Users\windows\Desktop\A_Dual\A_Dual1\Dual-core_Communication_Demo\Dual-core_Communication_Demo\MASTER\obj/../Libraries/wch_libraries/Peripheral/ch32v10x_gpio.c:103
		
    for (pinpos = 0x00; pinpos < 0x08; pinpos++)
     e3a:	fe042423          	sw	zero,-24(s0)
     e3e:	a865                	j	ef6 <GPIO_Init+0x120>
C:\Users\windows\Desktop\A_Dual\A_Dual1\Dual-core_Communication_Demo\Dual-core_Communication_Demo\MASTER\obj/../Libraries/wch_libraries/Peripheral/ch32v10x_gpio.c:105
    {
      pos = ((uint32_t)0x01) << pinpos;
     e40:	fe842783          	lw	a5,-24(s0)
     e44:	4705                	li	a4,1
     e46:	00f717b3          	sll	a5,a4,a5
     e4a:	fcf42e23          	sw	a5,-36(s0)
C:\Users\windows\Desktop\A_Dual\A_Dual1\Dual-core_Communication_Demo\Dual-core_Communication_Demo\MASTER\obj/../Libraries/wch_libraries/Peripheral/ch32v10x_gpio.c:106
      currentpin = (GPIO_InitStruct->GPIO_Pin) & pos;
     e4e:	fc842783          	lw	a5,-56(s0)
     e52:	0007d783          	lhu	a5,0(a5)
     e56:	873e                	mv	a4,a5
     e58:	fdc42783          	lw	a5,-36(s0)
     e5c:	8ff9                	and	a5,a5,a4
     e5e:	fef42023          	sw	a5,-32(s0)
C:\Users\windows\Desktop\A_Dual\A_Dual1\Dual-core_Communication_Demo\Dual-core_Communication_Demo\MASTER\obj/../Libraries/wch_libraries/Peripheral/ch32v10x_gpio.c:108
			
      if (currentpin == pos)
     e62:	fe042703          	lw	a4,-32(s0)
     e66:	fdc42783          	lw	a5,-36(s0)
     e6a:	08f71163          	bne	a4,a5,eec <GPIO_Init+0x116>
C:\Users\windows\Desktop\A_Dual\A_Dual1\Dual-core_Communication_Demo\Dual-core_Communication_Demo\MASTER\obj/../Libraries/wch_libraries/Peripheral/ch32v10x_gpio.c:110
      {
        pos = pinpos << 2;
     e6e:	fe842783          	lw	a5,-24(s0)
     e72:	078a                	slli	a5,a5,0x2
     e74:	fcf42e23          	sw	a5,-36(s0)
C:\Users\windows\Desktop\A_Dual\A_Dual1\Dual-core_Communication_Demo\Dual-core_Communication_Demo\MASTER\obj/../Libraries/wch_libraries/Peripheral/ch32v10x_gpio.c:111
        pinmask = ((uint32_t)0x0F) << pos;
     e78:	fdc42783          	lw	a5,-36(s0)
     e7c:	473d                	li	a4,15
     e7e:	00f717b3          	sll	a5,a4,a5
     e82:	fcf42c23          	sw	a5,-40(s0)
C:\Users\windows\Desktop\A_Dual\A_Dual1\Dual-core_Communication_Demo\Dual-core_Communication_Demo\MASTER\obj/../Libraries/wch_libraries/Peripheral/ch32v10x_gpio.c:112
        tmpreg &= ~pinmask;
     e86:	fd842783          	lw	a5,-40(s0)
     e8a:	fff7c793          	not	a5,a5
     e8e:	fe442703          	lw	a4,-28(s0)
     e92:	8ff9                	and	a5,a5,a4
     e94:	fef42223          	sw	a5,-28(s0)
C:\Users\windows\Desktop\A_Dual\A_Dual1\Dual-core_Communication_Demo\Dual-core_Communication_Demo\MASTER\obj/../Libraries/wch_libraries/Peripheral/ch32v10x_gpio.c:113
        tmpreg |= (currentmode << pos);
     e98:	fdc42783          	lw	a5,-36(s0)
     e9c:	fec42703          	lw	a4,-20(s0)
     ea0:	00f717b3          	sll	a5,a4,a5
     ea4:	fe442703          	lw	a4,-28(s0)
     ea8:	8fd9                	or	a5,a5,a4
     eaa:	fef42223          	sw	a5,-28(s0)
C:\Users\windows\Desktop\A_Dual\A_Dual1\Dual-core_Communication_Demo\Dual-core_Communication_Demo\MASTER\obj/../Libraries/wch_libraries/Peripheral/ch32v10x_gpio.c:115

        if (GPIO_InitStruct->GPIO_Mode == GPIO_Mode_IPD)
     eae:	fc842783          	lw	a5,-56(s0)
     eb2:	4798                	lw	a4,8(a5)
     eb4:	02800793          	li	a5,40
     eb8:	00f71b63          	bne	a4,a5,ece <GPIO_Init+0xf8>
C:\Users\windows\Desktop\A_Dual\A_Dual1\Dual-core_Communication_Demo\Dual-core_Communication_Demo\MASTER\obj/../Libraries/wch_libraries/Peripheral/ch32v10x_gpio.c:117
        {
          GPIOx->BCR = (((uint32_t)0x01) << pinpos);
     ebc:	fe842783          	lw	a5,-24(s0)
     ec0:	4705                	li	a4,1
     ec2:	00f71733          	sll	a4,a4,a5
     ec6:	fcc42783          	lw	a5,-52(s0)
     eca:	cbd8                	sw	a4,20(a5)
     ecc:	a005                	j	eec <GPIO_Init+0x116>
C:\Users\windows\Desktop\A_Dual\A_Dual1\Dual-core_Communication_Demo\Dual-core_Communication_Demo\MASTER\obj/../Libraries/wch_libraries/Peripheral/ch32v10x_gpio.c:121
        }
        else
        {
          if (GPIO_InitStruct->GPIO_Mode == GPIO_Mode_IPU)
     ece:	fc842783          	lw	a5,-56(s0)
     ed2:	4798                	lw	a4,8(a5)
     ed4:	04800793          	li	a5,72
     ed8:	00f71a63          	bne	a4,a5,eec <GPIO_Init+0x116>
C:\Users\windows\Desktop\A_Dual\A_Dual1\Dual-core_Communication_Demo\Dual-core_Communication_Demo\MASTER\obj/../Libraries/wch_libraries/Peripheral/ch32v10x_gpio.c:123
          {
            GPIOx->BSHR = (((uint32_t)0x01) << pinpos);
     edc:	fe842783          	lw	a5,-24(s0)
     ee0:	4705                	li	a4,1
     ee2:	00f71733          	sll	a4,a4,a5
     ee6:	fcc42783          	lw	a5,-52(s0)
     eea:	cb98                	sw	a4,16(a5)
C:\Users\windows\Desktop\A_Dual\A_Dual1\Dual-core_Communication_Demo\Dual-core_Communication_Demo\MASTER\obj/../Libraries/wch_libraries/Peripheral/ch32v10x_gpio.c:103 (discriminator 2)
    for (pinpos = 0x00; pinpos < 0x08; pinpos++)
     eec:	fe842783          	lw	a5,-24(s0)
     ef0:	0785                	addi	a5,a5,1
     ef2:	fef42423          	sw	a5,-24(s0)
C:\Users\windows\Desktop\A_Dual\A_Dual1\Dual-core_Communication_Demo\Dual-core_Communication_Demo\MASTER\obj/../Libraries/wch_libraries/Peripheral/ch32v10x_gpio.c:103 (discriminator 1)
     ef6:	fe842703          	lw	a4,-24(s0)
     efa:	479d                	li	a5,7
     efc:	f4e7f2e3          	bgeu	a5,a4,e40 <GPIO_Init+0x6a>
C:\Users\windows\Desktop\A_Dual\A_Dual1\Dual-core_Communication_Demo\Dual-core_Communication_Demo\MASTER\obj/../Libraries/wch_libraries/Peripheral/ch32v10x_gpio.c:128
          }
        }
      }
    }
    GPIOx->CFGLR = tmpreg;
     f00:	fcc42783          	lw	a5,-52(s0)
     f04:	fe442703          	lw	a4,-28(s0)
     f08:	c398                	sw	a4,0(a5)
C:\Users\windows\Desktop\A_Dual\A_Dual1\Dual-core_Communication_Demo\Dual-core_Communication_Demo\MASTER\obj/../Libraries/wch_libraries/Peripheral/ch32v10x_gpio.c:131
  }

  if (GPIO_InitStruct->GPIO_Pin > 0x00FF)
     f0a:	fc842783          	lw	a5,-56(s0)
     f0e:	0007d703          	lhu	a4,0(a5)
     f12:	0ff00793          	li	a5,255
     f16:	0ee7f163          	bgeu	a5,a4,ff8 <GPIO_Init+0x222>
C:\Users\windows\Desktop\A_Dual\A_Dual1\Dual-core_Communication_Demo\Dual-core_Communication_Demo\MASTER\obj/../Libraries/wch_libraries/Peripheral/ch32v10x_gpio.c:133
  {
    tmpreg = GPIOx->CFGHR;
     f1a:	fcc42783          	lw	a5,-52(s0)
     f1e:	43dc                	lw	a5,4(a5)
     f20:	fef42223          	sw	a5,-28(s0)
C:\Users\windows\Desktop\A_Dual\A_Dual1\Dual-core_Communication_Demo\Dual-core_Communication_Demo\MASTER\obj/../Libraries/wch_libraries/Peripheral/ch32v10x_gpio.c:135
		
    for (pinpos = 0x00; pinpos < 0x08; pinpos++)
     f24:	fe042423          	sw	zero,-24(s0)
     f28:	a875                	j	fe4 <GPIO_Init+0x20e>
C:\Users\windows\Desktop\A_Dual\A_Dual1\Dual-core_Communication_Demo\Dual-core_Communication_Demo\MASTER\obj/../Libraries/wch_libraries/Peripheral/ch32v10x_gpio.c:137
    {
      pos = (((uint32_t)0x01) << (pinpos + 0x08));
     f2a:	fe842783          	lw	a5,-24(s0)
     f2e:	07a1                	addi	a5,a5,8
     f30:	4705                	li	a4,1
     f32:	00f717b3          	sll	a5,a4,a5
     f36:	fcf42e23          	sw	a5,-36(s0)
C:\Users\windows\Desktop\A_Dual\A_Dual1\Dual-core_Communication_Demo\Dual-core_Communication_Demo\MASTER\obj/../Libraries/wch_libraries/Peripheral/ch32v10x_gpio.c:138
      currentpin = ((GPIO_InitStruct->GPIO_Pin) & pos);
     f3a:	fc842783          	lw	a5,-56(s0)
     f3e:	0007d783          	lhu	a5,0(a5)
     f42:	873e                	mv	a4,a5
     f44:	fdc42783          	lw	a5,-36(s0)
     f48:	8ff9                	and	a5,a5,a4
     f4a:	fef42023          	sw	a5,-32(s0)
C:\Users\windows\Desktop\A_Dual\A_Dual1\Dual-core_Communication_Demo\Dual-core_Communication_Demo\MASTER\obj/../Libraries/wch_libraries/Peripheral/ch32v10x_gpio.c:140
			
      if (currentpin == pos)
     f4e:	fe042703          	lw	a4,-32(s0)
     f52:	fdc42783          	lw	a5,-36(s0)
     f56:	08f71263          	bne	a4,a5,fda <GPIO_Init+0x204>
C:\Users\windows\Desktop\A_Dual\A_Dual1\Dual-core_Communication_Demo\Dual-core_Communication_Demo\MASTER\obj/../Libraries/wch_libraries/Peripheral/ch32v10x_gpio.c:142
      {
        pos = pinpos << 2;
     f5a:	fe842783          	lw	a5,-24(s0)
     f5e:	078a                	slli	a5,a5,0x2
     f60:	fcf42e23          	sw	a5,-36(s0)
C:\Users\windows\Desktop\A_Dual\A_Dual1\Dual-core_Communication_Demo\Dual-core_Communication_Demo\MASTER\obj/../Libraries/wch_libraries/Peripheral/ch32v10x_gpio.c:143
        pinmask = ((uint32_t)0x0F) << pos;
     f64:	fdc42783          	lw	a5,-36(s0)
     f68:	473d                	li	a4,15
     f6a:	00f717b3          	sll	a5,a4,a5
     f6e:	fcf42c23          	sw	a5,-40(s0)
C:\Users\windows\Desktop\A_Dual\A_Dual1\Dual-core_Communication_Demo\Dual-core_Communication_Demo\MASTER\obj/../Libraries/wch_libraries/Peripheral/ch32v10x_gpio.c:144
        tmpreg &= ~pinmask;
     f72:	fd842783          	lw	a5,-40(s0)
     f76:	fff7c793          	not	a5,a5
     f7a:	fe442703          	lw	a4,-28(s0)
     f7e:	8ff9                	and	a5,a5,a4
     f80:	fef42223          	sw	a5,-28(s0)
C:\Users\windows\Desktop\A_Dual\A_Dual1\Dual-core_Communication_Demo\Dual-core_Communication_Demo\MASTER\obj/../Libraries/wch_libraries/Peripheral/ch32v10x_gpio.c:145
        tmpreg |= (currentmode << pos);
     f84:	fdc42783          	lw	a5,-36(s0)
     f88:	fec42703          	lw	a4,-20(s0)
     f8c:	00f717b3          	sll	a5,a4,a5
     f90:	fe442703          	lw	a4,-28(s0)
     f94:	8fd9                	or	a5,a5,a4
     f96:	fef42223          	sw	a5,-28(s0)
C:\Users\windows\Desktop\A_Dual\A_Dual1\Dual-core_Communication_Demo\Dual-core_Communication_Demo\MASTER\obj/../Libraries/wch_libraries/Peripheral/ch32v10x_gpio.c:147

        if (GPIO_InitStruct->GPIO_Mode == GPIO_Mode_IPD)
     f9a:	fc842783          	lw	a5,-56(s0)
     f9e:	4798                	lw	a4,8(a5)
     fa0:	02800793          	li	a5,40
     fa4:	00f71b63          	bne	a4,a5,fba <GPIO_Init+0x1e4>
C:\Users\windows\Desktop\A_Dual\A_Dual1\Dual-core_Communication_Demo\Dual-core_Communication_Demo\MASTER\obj/../Libraries/wch_libraries/Peripheral/ch32v10x_gpio.c:149
        {
          GPIOx->BCR = (((uint32_t)0x01) << (pinpos + 0x08));
     fa8:	fe842783          	lw	a5,-24(s0)
     fac:	07a1                	addi	a5,a5,8
     fae:	4705                	li	a4,1
     fb0:	00f71733          	sll	a4,a4,a5
     fb4:	fcc42783          	lw	a5,-52(s0)
     fb8:	cbd8                	sw	a4,20(a5)
C:\Users\windows\Desktop\A_Dual\A_Dual1\Dual-core_Communication_Demo\Dual-core_Communication_Demo\MASTER\obj/../Libraries/wch_libraries/Peripheral/ch32v10x_gpio.c:152
        }

        if (GPIO_InitStruct->GPIO_Mode == GPIO_Mode_IPU)
     fba:	fc842783          	lw	a5,-56(s0)
     fbe:	4798                	lw	a4,8(a5)
     fc0:	04800793          	li	a5,72
     fc4:	00f71b63          	bne	a4,a5,fda <GPIO_Init+0x204>
C:\Users\windows\Desktop\A_Dual\A_Dual1\Dual-core_Communication_Demo\Dual-core_Communication_Demo\MASTER\obj/../Libraries/wch_libraries/Peripheral/ch32v10x_gpio.c:154
        {
          GPIOx->BSHR = (((uint32_t)0x01) << (pinpos + 0x08));
     fc8:	fe842783          	lw	a5,-24(s0)
     fcc:	07a1                	addi	a5,a5,8
     fce:	4705                	li	a4,1
     fd0:	00f71733          	sll	a4,a4,a5
     fd4:	fcc42783          	lw	a5,-52(s0)
     fd8:	cb98                	sw	a4,16(a5)
C:\Users\windows\Desktop\A_Dual\A_Dual1\Dual-core_Communication_Demo\Dual-core_Communication_Demo\MASTER\obj/../Libraries/wch_libraries/Peripheral/ch32v10x_gpio.c:135 (discriminator 2)
    for (pinpos = 0x00; pinpos < 0x08; pinpos++)
     fda:	fe842783          	lw	a5,-24(s0)
     fde:	0785                	addi	a5,a5,1
     fe0:	fef42423          	sw	a5,-24(s0)
C:\Users\windows\Desktop\A_Dual\A_Dual1\Dual-core_Communication_Demo\Dual-core_Communication_Demo\MASTER\obj/../Libraries/wch_libraries/Peripheral/ch32v10x_gpio.c:135 (discriminator 1)
     fe4:	fe842703          	lw	a4,-24(s0)
     fe8:	479d                	li	a5,7
     fea:	f4e7f0e3          	bgeu	a5,a4,f2a <GPIO_Init+0x154>
C:\Users\windows\Desktop\A_Dual\A_Dual1\Dual-core_Communication_Demo\Dual-core_Communication_Demo\MASTER\obj/../Libraries/wch_libraries/Peripheral/ch32v10x_gpio.c:158
        }
      }
    }
    GPIOx->CFGHR = tmpreg;
     fee:	fcc42783          	lw	a5,-52(s0)
     ff2:	fe442703          	lw	a4,-28(s0)
     ff6:	c3d8                	sw	a4,4(a5)
C:\Users\windows\Desktop\A_Dual\A_Dual1\Dual-core_Communication_Demo\Dual-core_Communication_Demo\MASTER\obj/../Libraries/wch_libraries/Peripheral/ch32v10x_gpio.c:160
  }
}
     ff8:	0001                	nop
     ffa:	5472                	lw	s0,60(sp)
     ffc:	6121                	addi	sp,sp,64
     ffe:	8082                	ret

00001000 <GPIO_WriteBit>:
GPIO_WriteBit():
C:\Users\windows\Desktop\A_Dual\A_Dual1\Dual-core_Communication_Demo\Dual-core_Communication_Demo\MASTER\obj/../Libraries/wch_libraries/Peripheral/ch32v10x_gpio.c:282
*                    Bit_SetL: to clear the port pin.
*                    Bit_SetH: to set the port pin.                  
* Return         : None
*******************************************************************************/
void GPIO_WriteBit(GPIO_TypeDef* GPIOx, uint16_t GPIO_Pin, BitAction BitVal)
{
    1000:	1101                	addi	sp,sp,-32
    1002:	ce22                	sw	s0,28(sp)
    1004:	1000                	addi	s0,sp,32
    1006:	fea42623          	sw	a0,-20(s0)
    100a:	87ae                	mv	a5,a1
    100c:	fec42223          	sw	a2,-28(s0)
    1010:	fef41523          	sh	a5,-22(s0)
C:\Users\windows\Desktop\A_Dual\A_Dual1\Dual-core_Communication_Demo\Dual-core_Communication_Demo\MASTER\obj/../Libraries/wch_libraries/Peripheral/ch32v10x_gpio.c:283
  if (BitVal != Bit_RESET)
    1014:	fe442783          	lw	a5,-28(s0)
    1018:	c799                	beqz	a5,1026 <GPIO_WriteBit+0x26>
C:\Users\windows\Desktop\A_Dual\A_Dual1\Dual-core_Communication_Demo\Dual-core_Communication_Demo\MASTER\obj/../Libraries/wch_libraries/Peripheral/ch32v10x_gpio.c:285
  {
    GPIOx->BSHR = GPIO_Pin;
    101a:	fea45703          	lhu	a4,-22(s0)
    101e:	fec42783          	lw	a5,-20(s0)
    1022:	cb98                	sw	a4,16(a5)
C:\Users\windows\Desktop\A_Dual\A_Dual1\Dual-core_Communication_Demo\Dual-core_Communication_Demo\MASTER\obj/../Libraries/wch_libraries/Peripheral/ch32v10x_gpio.c:291
  }
  else
  {
    GPIOx->BCR = GPIO_Pin;
  }
}
    1024:	a031                	j	1030 <GPIO_WriteBit+0x30>
C:\Users\windows\Desktop\A_Dual\A_Dual1\Dual-core_Communication_Demo\Dual-core_Communication_Demo\MASTER\obj/../Libraries/wch_libraries/Peripheral/ch32v10x_gpio.c:289
    GPIOx->BCR = GPIO_Pin;
    1026:	fea45703          	lhu	a4,-22(s0)
    102a:	fec42783          	lw	a5,-20(s0)
    102e:	cbd8                	sw	a4,20(a5)
C:\Users\windows\Desktop\A_Dual\A_Dual1\Dual-core_Communication_Demo\Dual-core_Communication_Demo\MASTER\obj/../Libraries/wch_libraries/Peripheral/ch32v10x_gpio.c:291
}
    1030:	0001                	nop
    1032:	4472                	lw	s0,28(sp)
    1034:	6105                	addi	sp,sp,32
    1036:	8082                	ret

00001038 <GPIO_PinRemapConfig>:
GPIO_PinRemapConfig():
C:\Users\windows\Desktop\A_Dual\A_Dual1\Dual-core_Communication_Demo\Dual-core_Communication_Demo\MASTER\obj/../Libraries/wch_libraries/Peripheral/ch32v10x_gpio.c:402
*      only for High density Value line devices)     
*                  NewState: ENABLE or DISABLE.             
* Return         : None
*******************************************************************************/
void GPIO_PinRemapConfig(uint32_t GPIO_Remap, FunctionalState NewState)
{
    1038:	7179                	addi	sp,sp,-48
    103a:	d622                	sw	s0,44(sp)
    103c:	1800                	addi	s0,sp,48
    103e:	fca42e23          	sw	a0,-36(s0)
    1042:	fcb42c23          	sw	a1,-40(s0)
C:\Users\windows\Desktop\A_Dual\A_Dual1\Dual-core_Communication_Demo\Dual-core_Communication_Demo\MASTER\obj/../Libraries/wch_libraries/Peripheral/ch32v10x_gpio.c:403
  uint32_t tmp = 0x00, tmp1 = 0x00, tmpreg = 0x00, tmpmask = 0x00;
    1046:	fe042423          	sw	zero,-24(s0)
    104a:	fe042223          	sw	zero,-28(s0)
    104e:	fe042623          	sw	zero,-20(s0)
    1052:	fe042023          	sw	zero,-32(s0)
C:\Users\windows\Desktop\A_Dual\A_Dual1\Dual-core_Communication_Demo\Dual-core_Communication_Demo\MASTER\obj/../Libraries/wch_libraries/Peripheral/ch32v10x_gpio.c:405

  if((GPIO_Remap & 0x80000000) == 0x80000000)
    1056:	fdc42783          	lw	a5,-36(s0)
    105a:	0007d863          	bgez	a5,106a <GPIO_PinRemapConfig+0x32>
C:\Users\windows\Desktop\A_Dual\A_Dual1\Dual-core_Communication_Demo\Dual-core_Communication_Demo\MASTER\obj/../Libraries/wch_libraries/Peripheral/ch32v10x_gpio.c:407
  {
    tmpreg = AFIO->PCFR2;
    105e:	400107b7          	lui	a5,0x40010
    1062:	4fdc                	lw	a5,28(a5)
    1064:	fef42623          	sw	a5,-20(s0)
    1068:	a031                	j	1074 <GPIO_PinRemapConfig+0x3c>
C:\Users\windows\Desktop\A_Dual\A_Dual1\Dual-core_Communication_Demo\Dual-core_Communication_Demo\MASTER\obj/../Libraries/wch_libraries/Peripheral/ch32v10x_gpio.c:411
  }
  else
  {
    tmpreg = AFIO->PCFR1;
    106a:	400107b7          	lui	a5,0x40010
    106e:	43dc                	lw	a5,4(a5)
    1070:	fef42623          	sw	a5,-20(s0)
C:\Users\windows\Desktop\A_Dual\A_Dual1\Dual-core_Communication_Demo\Dual-core_Communication_Demo\MASTER\obj/../Libraries/wch_libraries/Peripheral/ch32v10x_gpio.c:414
  }

  tmpmask = (GPIO_Remap & DBGAFR_POSITION_MASK) >> 0x10;
    1074:	fdc42783          	lw	a5,-36(s0)
    1078:	83c1                	srli	a5,a5,0x10
    107a:	8bbd                	andi	a5,a5,15
    107c:	fef42023          	sw	a5,-32(s0)
C:\Users\windows\Desktop\A_Dual\A_Dual1\Dual-core_Communication_Demo\Dual-core_Communication_Demo\MASTER\obj/../Libraries/wch_libraries/Peripheral/ch32v10x_gpio.c:415
  tmp = GPIO_Remap & LSB_MASK;
    1080:	fdc42703          	lw	a4,-36(s0)
    1084:	67c1                	lui	a5,0x10
    1086:	17fd                	addi	a5,a5,-1
    1088:	8ff9                	and	a5,a5,a4
    108a:	fef42423          	sw	a5,-24(s0)
C:\Users\windows\Desktop\A_Dual\A_Dual1\Dual-core_Communication_Demo\Dual-core_Communication_Demo\MASTER\obj/../Libraries/wch_libraries/Peripheral/ch32v10x_gpio.c:417

  if ((GPIO_Remap & (DBGAFR_LOCATION_MASK | DBGAFR_NUMBITS_MASK)) == (DBGAFR_LOCATION_MASK | DBGAFR_NUMBITS_MASK))
    108e:	fdc42703          	lw	a4,-36(s0)
    1092:	003007b7          	lui	a5,0x300
    1096:	8f7d                	and	a4,a4,a5
    1098:	003007b7          	lui	a5,0x300
    109c:	02f71563          	bne	a4,a5,10c6 <GPIO_PinRemapConfig+0x8e>
C:\Users\windows\Desktop\A_Dual\A_Dual1\Dual-core_Communication_Demo\Dual-core_Communication_Demo\MASTER\obj/../Libraries/wch_libraries/Peripheral/ch32v10x_gpio.c:419
  {
    tmpreg &= DBGAFR_SWJCFG_MASK;
    10a0:	fec42703          	lw	a4,-20(s0)
    10a4:	f10007b7          	lui	a5,0xf1000
    10a8:	17fd                	addi	a5,a5,-1
    10aa:	8ff9                	and	a5,a5,a4
    10ac:	fef42623          	sw	a5,-20(s0)
C:\Users\windows\Desktop\A_Dual\A_Dual1\Dual-core_Communication_Demo\Dual-core_Communication_Demo\MASTER\obj/../Libraries/wch_libraries/Peripheral/ch32v10x_gpio.c:420
    AFIO->PCFR1 &= DBGAFR_SWJCFG_MASK;
    10b0:	400107b7          	lui	a5,0x40010
    10b4:	43d4                	lw	a3,4(a5)
    10b6:	400107b7          	lui	a5,0x40010
    10ba:	f1000737          	lui	a4,0xf1000
    10be:	177d                	addi	a4,a4,-1
    10c0:	8f75                	and	a4,a4,a3
    10c2:	c3d8                	sw	a4,4(a5)
    10c4:	a0ad                	j	112e <GPIO_PinRemapConfig+0xf6>
C:\Users\windows\Desktop\A_Dual\A_Dual1\Dual-core_Communication_Demo\Dual-core_Communication_Demo\MASTER\obj/../Libraries/wch_libraries/Peripheral/ch32v10x_gpio.c:422
  }
  else if ((GPIO_Remap & DBGAFR_NUMBITS_MASK) == DBGAFR_NUMBITS_MASK)
    10c6:	fdc42703          	lw	a4,-36(s0)
    10ca:	001007b7          	lui	a5,0x100
    10ce:	8ff9                	and	a5,a5,a4
    10d0:	cb8d                	beqz	a5,1102 <GPIO_PinRemapConfig+0xca>
C:\Users\windows\Desktop\A_Dual\A_Dual1\Dual-core_Communication_Demo\Dual-core_Communication_Demo\MASTER\obj/../Libraries/wch_libraries/Peripheral/ch32v10x_gpio.c:424
  {
    tmp1 = ((uint32_t)0x03) << tmpmask;
    10d2:	fe042783          	lw	a5,-32(s0)
    10d6:	470d                	li	a4,3
    10d8:	00f717b3          	sll	a5,a4,a5
    10dc:	fef42223          	sw	a5,-28(s0)
C:\Users\windows\Desktop\A_Dual\A_Dual1\Dual-core_Communication_Demo\Dual-core_Communication_Demo\MASTER\obj/../Libraries/wch_libraries/Peripheral/ch32v10x_gpio.c:425
    tmpreg &= ~tmp1;
    10e0:	fe442783          	lw	a5,-28(s0)
    10e4:	fff7c793          	not	a5,a5
    10e8:	fec42703          	lw	a4,-20(s0)
    10ec:	8ff9                	and	a5,a5,a4
    10ee:	fef42623          	sw	a5,-20(s0)
C:\Users\windows\Desktop\A_Dual\A_Dual1\Dual-core_Communication_Demo\Dual-core_Communication_Demo\MASTER\obj/../Libraries/wch_libraries/Peripheral/ch32v10x_gpio.c:426
    tmpreg |= ~DBGAFR_SWJCFG_MASK;
    10f2:	fec42703          	lw	a4,-20(s0)
    10f6:	0f0007b7          	lui	a5,0xf000
    10fa:	8fd9                	or	a5,a5,a4
    10fc:	fef42623          	sw	a5,-20(s0)
    1100:	a03d                	j	112e <GPIO_PinRemapConfig+0xf6>
C:\Users\windows\Desktop\A_Dual\A_Dual1\Dual-core_Communication_Demo\Dual-core_Communication_Demo\MASTER\obj/../Libraries/wch_libraries/Peripheral/ch32v10x_gpio.c:430
  }
  else
  {
    tmpreg &= ~(tmp << ((GPIO_Remap >> 0x15)*0x10));
    1102:	fdc42783          	lw	a5,-36(s0)
    1106:	83d5                	srli	a5,a5,0x15
    1108:	0792                	slli	a5,a5,0x4
    110a:	fe842703          	lw	a4,-24(s0)
    110e:	00f717b3          	sll	a5,a4,a5
    1112:	fff7c793          	not	a5,a5
    1116:	fec42703          	lw	a4,-20(s0)
    111a:	8ff9                	and	a5,a5,a4
    111c:	fef42623          	sw	a5,-20(s0)
C:\Users\windows\Desktop\A_Dual\A_Dual1\Dual-core_Communication_Demo\Dual-core_Communication_Demo\MASTER\obj/../Libraries/wch_libraries/Peripheral/ch32v10x_gpio.c:431
    tmpreg |= ~DBGAFR_SWJCFG_MASK;
    1120:	fec42703          	lw	a4,-20(s0)
    1124:	0f0007b7          	lui	a5,0xf000
    1128:	8fd9                	or	a5,a5,a4
    112a:	fef42623          	sw	a5,-20(s0)
C:\Users\windows\Desktop\A_Dual\A_Dual1\Dual-core_Communication_Demo\Dual-core_Communication_Demo\MASTER\obj/../Libraries/wch_libraries/Peripheral/ch32v10x_gpio.c:434
  }

  if (NewState != DISABLE)
    112e:	fd842783          	lw	a5,-40(s0)
    1132:	cf91                	beqz	a5,114e <GPIO_PinRemapConfig+0x116>
C:\Users\windows\Desktop\A_Dual\A_Dual1\Dual-core_Communication_Demo\Dual-core_Communication_Demo\MASTER\obj/../Libraries/wch_libraries/Peripheral/ch32v10x_gpio.c:436
  {
    tmpreg |= (tmp << ((GPIO_Remap >> 0x15)*0x10));
    1134:	fdc42783          	lw	a5,-36(s0)
    1138:	83d5                	srli	a5,a5,0x15
    113a:	0792                	slli	a5,a5,0x4
    113c:	fe842703          	lw	a4,-24(s0)
    1140:	00f717b3          	sll	a5,a4,a5
    1144:	fec42703          	lw	a4,-20(s0)
    1148:	8fd9                	or	a5,a5,a4
    114a:	fef42623          	sw	a5,-20(s0)
C:\Users\windows\Desktop\A_Dual\A_Dual1\Dual-core_Communication_Demo\Dual-core_Communication_Demo\MASTER\obj/../Libraries/wch_libraries/Peripheral/ch32v10x_gpio.c:439
  }

  if((GPIO_Remap & 0x80000000) == 0x80000000)
    114e:	fdc42783          	lw	a5,-36(s0)
    1152:	0007d863          	bgez	a5,1162 <GPIO_PinRemapConfig+0x12a>
C:\Users\windows\Desktop\A_Dual\A_Dual1\Dual-core_Communication_Demo\Dual-core_Communication_Demo\MASTER\obj/../Libraries/wch_libraries/Peripheral/ch32v10x_gpio.c:441
  {
    AFIO->PCFR2 = tmpreg;
    1156:	400107b7          	lui	a5,0x40010
    115a:	fec42703          	lw	a4,-20(s0)
    115e:	cfd8                	sw	a4,28(a5)
C:\Users\windows\Desktop\A_Dual\A_Dual1\Dual-core_Communication_Demo\Dual-core_Communication_Demo\MASTER\obj/../Libraries/wch_libraries/Peripheral/ch32v10x_gpio.c:447
  }
  else
  {
    AFIO->PCFR1 = tmpreg;
  }  
}
    1160:	a031                	j	116c <GPIO_PinRemapConfig+0x134>
C:\Users\windows\Desktop\A_Dual\A_Dual1\Dual-core_Communication_Demo\Dual-core_Communication_Demo\MASTER\obj/../Libraries/wch_libraries/Peripheral/ch32v10x_gpio.c:445
    AFIO->PCFR1 = tmpreg;
    1162:	400107b7          	lui	a5,0x40010
    1166:	fec42703          	lw	a4,-20(s0)
    116a:	c3d8                	sw	a4,4(a5)
C:\Users\windows\Desktop\A_Dual\A_Dual1\Dual-core_Communication_Demo\Dual-core_Communication_Demo\MASTER\obj/../Libraries/wch_libraries/Peripheral/ch32v10x_gpio.c:447
}
    116c:	0001                	nop
    116e:	5432                	lw	s0,44(sp)
    1170:	6145                	addi	sp,sp,48
    1172:	8082                	ret

00001174 <GPIO_EXTILineConfig>:
GPIO_EXTILineConfig():
C:\Users\windows\Desktop\A_Dual\A_Dual1\Dual-core_Communication_Demo\Dual-core_Communication_Demo\MASTER\obj/../Libraries/wch_libraries/Peripheral/ch32v10x_gpio.c:459
*                  GPIO_PinSource: specifies the EXTI line to be configured.
*                    This parameter can be GPIO_PinSourcex where x can be (0..15).
* Return         : None
*******************************************************************************/
void GPIO_EXTILineConfig(uint8_t GPIO_PortSource, uint8_t GPIO_PinSource)
{
    1174:	7179                	addi	sp,sp,-48
    1176:	d622                	sw	s0,44(sp)
    1178:	1800                	addi	s0,sp,48
    117a:	87aa                	mv	a5,a0
    117c:	872e                	mv	a4,a1
    117e:	fcf40fa3          	sb	a5,-33(s0)
    1182:	87ba                	mv	a5,a4
    1184:	fcf40f23          	sb	a5,-34(s0)
C:\Users\windows\Desktop\A_Dual\A_Dual1\Dual-core_Communication_Demo\Dual-core_Communication_Demo\MASTER\obj/../Libraries/wch_libraries/Peripheral/ch32v10x_gpio.c:460
  uint32_t tmp = 0x00;
    1188:	fe042623          	sw	zero,-20(s0)
C:\Users\windows\Desktop\A_Dual\A_Dual1\Dual-core_Communication_Demo\Dual-core_Communication_Demo\MASTER\obj/../Libraries/wch_libraries/Peripheral/ch32v10x_gpio.c:462

  tmp = ((uint32_t)0x0F) << (0x04 * (GPIO_PinSource & (uint8_t)0x03));
    118c:	fde44783          	lbu	a5,-34(s0)
    1190:	8b8d                	andi	a5,a5,3
    1192:	078a                	slli	a5,a5,0x2
    1194:	473d                	li	a4,15
    1196:	00f717b3          	sll	a5,a4,a5
    119a:	fef42623          	sw	a5,-20(s0)
C:\Users\windows\Desktop\A_Dual\A_Dual1\Dual-core_Communication_Demo\Dual-core_Communication_Demo\MASTER\obj/../Libraries/wch_libraries/Peripheral/ch32v10x_gpio.c:463
  AFIO->EXTICR[GPIO_PinSource >> 0x02] &= ~tmp;
    119e:	40010737          	lui	a4,0x40010
    11a2:	fde44783          	lbu	a5,-34(s0)
    11a6:	8389                	srli	a5,a5,0x2
    11a8:	0ff7f793          	andi	a5,a5,255
    11ac:	078a                	slli	a5,a5,0x2
    11ae:	97ba                	add	a5,a5,a4
    11b0:	4798                	lw	a4,8(a5)
    11b2:	fec42783          	lw	a5,-20(s0)
    11b6:	fff7c793          	not	a5,a5
    11ba:	400106b7          	lui	a3,0x40010
    11be:	fde44603          	lbu	a2,-34(s0)
    11c2:	8209                	srli	a2,a2,0x2
    11c4:	0ff67613          	andi	a2,a2,255
    11c8:	8f7d                	and	a4,a4,a5
    11ca:	00261793          	slli	a5,a2,0x2
    11ce:	97b6                	add	a5,a5,a3
    11d0:	c798                	sw	a4,8(a5)
C:\Users\windows\Desktop\A_Dual\A_Dual1\Dual-core_Communication_Demo\Dual-core_Communication_Demo\MASTER\obj/../Libraries/wch_libraries/Peripheral/ch32v10x_gpio.c:464
  AFIO->EXTICR[GPIO_PinSource >> 0x02] |= (((uint32_t)GPIO_PortSource) << (0x04 * (GPIO_PinSource & (uint8_t)0x03)));
    11d2:	40010737          	lui	a4,0x40010
    11d6:	fde44783          	lbu	a5,-34(s0)
    11da:	8389                	srli	a5,a5,0x2
    11dc:	0ff7f793          	andi	a5,a5,255
    11e0:	078a                	slli	a5,a5,0x2
    11e2:	97ba                	add	a5,a5,a4
    11e4:	4798                	lw	a4,8(a5)
    11e6:	fdf44683          	lbu	a3,-33(s0)
    11ea:	fde44783          	lbu	a5,-34(s0)
    11ee:	8b8d                	andi	a5,a5,3
    11f0:	078a                	slli	a5,a5,0x2
    11f2:	00f697b3          	sll	a5,a3,a5
    11f6:	400106b7          	lui	a3,0x40010
    11fa:	fde44603          	lbu	a2,-34(s0)
    11fe:	8209                	srli	a2,a2,0x2
    1200:	0ff67613          	andi	a2,a2,255
    1204:	8f5d                	or	a4,a4,a5
    1206:	00261793          	slli	a5,a2,0x2
    120a:	97b6                	add	a5,a5,a3
    120c:	c798                	sw	a4,8(a5)
C:\Users\windows\Desktop\A_Dual\A_Dual1\Dual-core_Communication_Demo\Dual-core_Communication_Demo\MASTER\obj/../Libraries/wch_libraries/Peripheral/ch32v10x_gpio.c:465
}
    120e:	0001                	nop
    1210:	5432                	lw	s0,44(sp)
    1212:	6145                	addi	sp,sp,48
    1214:	8082                	ret

00001216 <NVIC_EnableIRQ>:
NVIC_EnableIRQ():
C:\Users\windows\Desktop\A_Dual\A_Dual1\Dual-core_Communication_Demo\Dual-core_Communication_Demo\MASTER\obj/../Libraries/wch_libraries/Core/core_riscv.h:126
* Function Name  : NVIC_EnableIRQ
* Description    : Enable Interrupt
* Input          : IRQn: Interrupt Numbers
* Return         : None
*******************************************************************************/
RV_STATIC_INLINE void NVIC_EnableIRQ(IRQn_Type IRQn){
    1216:	1101                	addi	sp,sp,-32
    1218:	ce22                	sw	s0,28(sp)
    121a:	1000                	addi	s0,sp,32
    121c:	fea42623          	sw	a0,-20(s0)
C:\Users\windows\Desktop\A_Dual\A_Dual1\Dual-core_Communication_Demo\Dual-core_Communication_Demo\MASTER\obj/../Libraries/wch_libraries/Core/core_riscv.h:127
  NVIC->IENR[((uint32_t)(IRQn) >> 5)] = (1 << ((uint32_t)(IRQn) & 0x1F));
    1220:	fec42783          	lw	a5,-20(s0)
    1224:	8bfd                	andi	a5,a5,31
    1226:	4705                	li	a4,1
    1228:	00f716b3          	sll	a3,a4,a5
    122c:	e000e737          	lui	a4,0xe000e
    1230:	fec42783          	lw	a5,-20(s0)
    1234:	8395                	srli	a5,a5,0x5
    1236:	04078793          	addi	a5,a5,64 # 40010040 <_eusrstack+0x2000b040>
    123a:	078a                	slli	a5,a5,0x2
    123c:	97ba                	add	a5,a5,a4
    123e:	c394                	sw	a3,0(a5)
C:\Users\windows\Desktop\A_Dual\A_Dual1\Dual-core_Communication_Demo\Dual-core_Communication_Demo\MASTER\obj/../Libraries/wch_libraries/Core/core_riscv.h:128
}
    1240:	0001                	nop
    1242:	4472                	lw	s0,28(sp)
    1244:	6105                	addi	sp,sp,32
    1246:	8082                	ret

00001248 <NVIC_DisableIRQ>:
NVIC_DisableIRQ():
C:\Users\windows\Desktop\A_Dual\A_Dual1\Dual-core_Communication_Demo\Dual-core_Communication_Demo\MASTER\obj/../Libraries/wch_libraries/Core/core_riscv.h:137
* Description    : Disable Interrupt
* Input          : IRQn: Interrupt Numbers
* Return         : None
*******************************************************************************/
RV_STATIC_INLINE void NVIC_DisableIRQ(IRQn_Type IRQn)
{
    1248:	1101                	addi	sp,sp,-32
    124a:	ce22                	sw	s0,28(sp)
    124c:	1000                	addi	s0,sp,32
    124e:	fea42623          	sw	a0,-20(s0)
C:\Users\windows\Desktop\A_Dual\A_Dual1\Dual-core_Communication_Demo\Dual-core_Communication_Demo\MASTER\obj/../Libraries/wch_libraries/Core/core_riscv.h:138
  NVIC->IRER[((uint32_t)(IRQn) >> 5)] = (1 << ((uint32_t)(IRQn) & 0x1F));
    1252:	fec42783          	lw	a5,-20(s0)
    1256:	8bfd                	andi	a5,a5,31
    1258:	4705                	li	a4,1
    125a:	00f716b3          	sll	a3,a4,a5
    125e:	e000e737          	lui	a4,0xe000e
    1262:	fec42783          	lw	a5,-20(s0)
    1266:	8395                	srli	a5,a5,0x5
    1268:	06078793          	addi	a5,a5,96
    126c:	078a                	slli	a5,a5,0x2
    126e:	97ba                	add	a5,a5,a4
    1270:	c394                	sw	a3,0(a5)
C:\Users\windows\Desktop\A_Dual\A_Dual1\Dual-core_Communication_Demo\Dual-core_Communication_Demo\MASTER\obj/../Libraries/wch_libraries/Core/core_riscv.h:139
}
    1272:	0001                	nop
    1274:	4472                	lw	s0,28(sp)
    1276:	6105                	addi	sp,sp,32
    1278:	8082                	ret

0000127a <NVIC_SetPriority>:
NVIC_SetPriority():
C:\Users\windows\Desktop\A_Dual\A_Dual1\Dual-core_Communication_Demo\Dual-core_Communication_Demo\MASTER\obj/../Libraries/wch_libraries/Core/core_riscv.h:208
*                  priority: bit7:pre-emption priority
*                            bit6-bit4: subpriority
* Return         : None
*******************************************************************************/
RV_STATIC_INLINE void NVIC_SetPriority(IRQn_Type IRQn, uint8_t priority)
{
    127a:	1101                	addi	sp,sp,-32
    127c:	ce22                	sw	s0,28(sp)
    127e:	1000                	addi	s0,sp,32
    1280:	fea42623          	sw	a0,-20(s0)
    1284:	87ae                	mv	a5,a1
    1286:	fef405a3          	sb	a5,-21(s0)
C:\Users\windows\Desktop\A_Dual\A_Dual1\Dual-core_Communication_Demo\Dual-core_Communication_Demo\MASTER\obj/../Libraries/wch_libraries/Core/core_riscv.h:209
  NVIC->IPRIOR[(uint32_t)(IRQn)] = priority;
    128a:	e000e737          	lui	a4,0xe000e
    128e:	fec42783          	lw	a5,-20(s0)
    1292:	97ba                	add	a5,a5,a4
    1294:	feb44703          	lbu	a4,-21(s0)
    1298:	40e78023          	sb	a4,1024(a5)
C:\Users\windows\Desktop\A_Dual\A_Dual1\Dual-core_Communication_Demo\Dual-core_Communication_Demo\MASTER\obj/../Libraries/wch_libraries/Core/core_riscv.h:210
}
    129c:	0001                	nop
    129e:	4472                	lw	s0,28(sp)
    12a0:	6105                	addi	sp,sp,32
    12a2:	8082                	ret

000012a4 <NVIC_Init>:
NVIC_Init():
C:\Users\windows\Desktop\A_Dual\A_Dual1\Dual-core_Communication_Demo\Dual-core_Communication_Demo\MASTER\obj/../Libraries/wch_libraries/Peripheral/ch32v10x_misc.c:44
* Input          : NVIC_InitStruct: pointer to a NVIC_InitTypeDef structure that contains the
*                                   configuration information for the specified NVIC peripheral.                 
* Return         : None
*******************************************************************************************/
void NVIC_Init(NVIC_InitTypeDef* NVIC_InitStruct)
{
    12a4:	1101                	addi	sp,sp,-32
    12a6:	ce06                	sw	ra,28(sp)
    12a8:	cc22                	sw	s0,24(sp)
    12aa:	1000                	addi	s0,sp,32
    12ac:	fea42623          	sw	a0,-20(s0)
C:\Users\windows\Desktop\A_Dual\A_Dual1\Dual-core_Communication_Demo\Dual-core_Communication_Demo\MASTER\obj/../Libraries/wch_libraries/Peripheral/ch32v10x_misc.c:47
	//uint8_t tmppre = 0;

	if((PFIC->CFGR&(1<<1)) != 0)                    //1
    12b0:	e000e7b7          	lui	a5,0xe000e
    12b4:	47bc                	lw	a5,72(a5)
    12b6:	8b89                	andi	a5,a5,2
    12b8:	c38d                	beqz	a5,12da <NVIC_Init+0x36>
C:\Users\windows\Desktop\A_Dual\A_Dual1\Dual-core_Communication_Demo\Dual-core_Communication_Demo\MASTER\obj/../Libraries/wch_libraries/Peripheral/ch32v10x_misc.c:49
	{
		NVIC_SetPriority( NVIC_InitStruct->NVIC_IRQChannel, NVIC_InitStruct->NVIC_IRQChannelSubPriority<<4);
    12ba:	fec42783          	lw	a5,-20(s0)
    12be:	0007c783          	lbu	a5,0(a5) # e000e000 <_eusrstack+0xc0009000>
    12c2:	873e                	mv	a4,a5
    12c4:	fec42783          	lw	a5,-20(s0)
    12c8:	0027c783          	lbu	a5,2(a5)
    12cc:	0792                	slli	a5,a5,0x4
    12ce:	0ff7f793          	andi	a5,a5,255
    12d2:	85be                	mv	a1,a5
    12d4:	853a                	mv	a0,a4
    12d6:	3755                	jal	127a <NVIC_SetPriority>
    12d8:	a095                	j	133c <NVIC_Init+0x98>
C:\Users\windows\Desktop\A_Dual\A_Dual1\Dual-core_Communication_Demo\Dual-core_Communication_Demo\MASTER\obj/../Libraries/wch_libraries/Peripheral/ch32v10x_misc.c:51
	}
	else if((PFIC->CFGR&(1<<1)) == 0)               //0
    12da:	e000e7b7          	lui	a5,0xe000e
    12de:	47bc                	lw	a5,72(a5)
    12e0:	8b89                	andi	a5,a5,2
    12e2:	efa9                	bnez	a5,133c <NVIC_Init+0x98>
C:\Users\windows\Desktop\A_Dual\A_Dual1\Dual-core_Communication_Demo\Dual-core_Communication_Demo\MASTER\obj/../Libraries/wch_libraries/Peripheral/ch32v10x_misc.c:53
	{
        if(NVIC_InitStruct->NVIC_IRQChannelPreemptionPriority == 1)
    12e4:	fec42783          	lw	a5,-20(s0)
    12e8:	0017c703          	lbu	a4,1(a5) # e000e001 <_eusrstack+0xc0009001>
    12ec:	4785                	li	a5,1
    12ee:	02f71863          	bne	a4,a5,131e <NVIC_Init+0x7a>
C:\Users\windows\Desktop\A_Dual\A_Dual1\Dual-core_Communication_Demo\Dual-core_Communication_Demo\MASTER\obj/../Libraries/wch_libraries/Peripheral/ch32v10x_misc.c:55
        {
            NVIC_SetPriority( NVIC_InitStruct->NVIC_IRQChannel, (1<<7)|(NVIC_InitStruct->NVIC_IRQChannelSubPriority<<4));
    12f2:	fec42783          	lw	a5,-20(s0)
    12f6:	0007c783          	lbu	a5,0(a5)
    12fa:	873e                	mv	a4,a5
    12fc:	fec42783          	lw	a5,-20(s0)
    1300:	0027c783          	lbu	a5,2(a5)
    1304:	0792                	slli	a5,a5,0x4
    1306:	07e2                	slli	a5,a5,0x18
    1308:	87e1                	srai	a5,a5,0x18
    130a:	f807e793          	ori	a5,a5,-128
    130e:	07e2                	slli	a5,a5,0x18
    1310:	87e1                	srai	a5,a5,0x18
    1312:	0ff7f793          	andi	a5,a5,255
    1316:	85be                	mv	a1,a5
    1318:	853a                	mv	a0,a4
    131a:	3785                	jal	127a <NVIC_SetPriority>
    131c:	a005                	j	133c <NVIC_Init+0x98>
C:\Users\windows\Desktop\A_Dual\A_Dual1\Dual-core_Communication_Demo\Dual-core_Communication_Demo\MASTER\obj/../Libraries/wch_libraries/Peripheral/ch32v10x_misc.c:59
        }
        else
        {
            NVIC_SetPriority( NVIC_InitStruct->NVIC_IRQChannel, (0<<7)|(NVIC_InitStruct->NVIC_IRQChannelSubPriority<<4));
    131e:	fec42783          	lw	a5,-20(s0)
    1322:	0007c783          	lbu	a5,0(a5)
    1326:	873e                	mv	a4,a5
    1328:	fec42783          	lw	a5,-20(s0)
    132c:	0027c783          	lbu	a5,2(a5)
    1330:	0792                	slli	a5,a5,0x4
    1332:	0ff7f793          	andi	a5,a5,255
    1336:	85be                	mv	a1,a5
    1338:	853a                	mv	a0,a4
    133a:	3781                	jal	127a <NVIC_SetPriority>
C:\Users\windows\Desktop\A_Dual\A_Dual1\Dual-core_Communication_Demo\Dual-core_Communication_Demo\MASTER\obj/../Libraries/wch_libraries/Peripheral/ch32v10x_misc.c:93
//	else if(NVIC_Priority_Group == NVIC_PriorityGroup_4)
//	{
//		NVIC_SetPriority( NVIC_InitStruct->NVIC_IRQChannel, NVIC_InitStruct->NVIC_IRQChannelPreemptionPriority<<4);
//	}

  if (NVIC_InitStruct->NVIC_IRQChannelCmd != DISABLE)
    133c:	fec42783          	lw	a5,-20(s0)
    1340:	43dc                	lw	a5,4(a5)
    1342:	cb81                	beqz	a5,1352 <NVIC_Init+0xae>
C:\Users\windows\Desktop\A_Dual\A_Dual1\Dual-core_Communication_Demo\Dual-core_Communication_Demo\MASTER\obj/../Libraries/wch_libraries/Peripheral/ch32v10x_misc.c:95
  {
  	NVIC_EnableIRQ(NVIC_InitStruct->NVIC_IRQChannel);
    1344:	fec42783          	lw	a5,-20(s0)
    1348:	0007c783          	lbu	a5,0(a5)
    134c:	853e                	mv	a0,a5
    134e:	35e1                	jal	1216 <NVIC_EnableIRQ>
C:\Users\windows\Desktop\A_Dual\A_Dual1\Dual-core_Communication_Demo\Dual-core_Communication_Demo\MASTER\obj/../Libraries/wch_libraries/Peripheral/ch32v10x_misc.c:101
  }
  else
  {
  	NVIC_DisableIRQ(NVIC_InitStruct->NVIC_IRQChannel);
  }
}
    1350:	a039                	j	135e <NVIC_Init+0xba>
C:\Users\windows\Desktop\A_Dual\A_Dual1\Dual-core_Communication_Demo\Dual-core_Communication_Demo\MASTER\obj/../Libraries/wch_libraries/Peripheral/ch32v10x_misc.c:99
  	NVIC_DisableIRQ(NVIC_InitStruct->NVIC_IRQChannel);
    1352:	fec42783          	lw	a5,-20(s0)
    1356:	0007c783          	lbu	a5,0(a5)
    135a:	853e                	mv	a0,a5
    135c:	35f5                	jal	1248 <NVIC_DisableIRQ>
C:\Users\windows\Desktop\A_Dual\A_Dual1\Dual-core_Communication_Demo\Dual-core_Communication_Demo\MASTER\obj/../Libraries/wch_libraries/Peripheral/ch32v10x_misc.c:101
}
    135e:	0001                	nop
    1360:	40f2                	lw	ra,28(sp)
    1362:	4462                	lw	s0,24(sp)
    1364:	6105                	addi	sp,sp,32
    1366:	8082                	ret

00001368 <RCC_GetClocksFreq>:
RCC_GetClocksFreq():
C:\Users\windows\Desktop\A_Dual\A_Dual1\Dual-core_Communication_Demo\Dual-core_Communication_Demo\MASTER\obj/../Libraries/wch_libraries/Peripheral/ch32v10x_rcc.c:469
* Input          : The result of this function could be not correct when using
*      fractional value for HSE crystal.
* Return         : None
********************************************************************************/
void RCC_GetClocksFreq(RCC_ClocksTypeDef* RCC_Clocks)
{
    1368:	7179                	addi	sp,sp,-48
    136a:	d622                	sw	s0,44(sp)
    136c:	1800                	addi	s0,sp,48
    136e:	fca42e23          	sw	a0,-36(s0)
C:\Users\windows\Desktop\A_Dual\A_Dual1\Dual-core_Communication_Demo\Dual-core_Communication_Demo\MASTER\obj/../Libraries/wch_libraries/Peripheral/ch32v10x_rcc.c:470
  uint32_t tmp = 0, pllmull = 0, pllsource = 0, presc = 0;
    1372:	fe042623          	sw	zero,-20(s0)
    1376:	fe042423          	sw	zero,-24(s0)
    137a:	fe042223          	sw	zero,-28(s0)
    137e:	fe042023          	sw	zero,-32(s0)
C:\Users\windows\Desktop\A_Dual\A_Dual1\Dual-core_Communication_Demo\Dual-core_Communication_Demo\MASTER\obj/../Libraries/wch_libraries/Peripheral/ch32v10x_rcc.c:472
  
  tmp = RCC->CFGR0 & CFGR0_SWS_Mask;
    1382:	400217b7          	lui	a5,0x40021
    1386:	43dc                	lw	a5,4(a5)
    1388:	8bb1                	andi	a5,a5,12
    138a:	fef42623          	sw	a5,-20(s0)
    138e:	fec42703          	lw	a4,-20(s0)
    1392:	4791                	li	a5,4
    1394:	02f70263          	beq	a4,a5,13b8 <RCC_GetClocksFreq+0x50>
    1398:	fec42703          	lw	a4,-20(s0)
    139c:	47a1                	li	a5,8
    139e:	02f70563          	beq	a4,a5,13c8 <RCC_GetClocksFreq+0x60>
    13a2:	fec42783          	lw	a5,-20(s0)
    13a6:	e7c5                	bnez	a5,144e <RCC_GetClocksFreq+0xe6>
C:\Users\windows\Desktop\A_Dual\A_Dual1\Dual-core_Communication_Demo\Dual-core_Communication_Demo\MASTER\obj/../Libraries/wch_libraries/Peripheral/ch32v10x_rcc.c:477
  
  switch (tmp)
  {
    case 0x00: 
      RCC_Clocks->SYSCLK_Frequency = HSI_VALUE;
    13a8:	fdc42783          	lw	a5,-36(s0)
    13ac:	007a1737          	lui	a4,0x7a1
    13b0:	20070713          	addi	a4,a4,512 # 7a1200 <_data_lma+0x797b14>
    13b4:	c398                	sw	a4,0(a5)
C:\Users\windows\Desktop\A_Dual\A_Dual1\Dual-core_Communication_Demo\Dual-core_Communication_Demo\MASTER\obj/../Libraries/wch_libraries/Peripheral/ch32v10x_rcc.c:478
      break;
    13b6:	a065                	j	145e <RCC_GetClocksFreq+0xf6>
C:\Users\windows\Desktop\A_Dual\A_Dual1\Dual-core_Communication_Demo\Dual-core_Communication_Demo\MASTER\obj/../Libraries/wch_libraries/Peripheral/ch32v10x_rcc.c:481
		
    case 0x04:
      RCC_Clocks->SYSCLK_Frequency = HSE_VALUE;
    13b8:	fdc42783          	lw	a5,-36(s0)
    13bc:	007a1737          	lui	a4,0x7a1
    13c0:	20070713          	addi	a4,a4,512 # 7a1200 <_data_lma+0x797b14>
    13c4:	c398                	sw	a4,0(a5)
C:\Users\windows\Desktop\A_Dual\A_Dual1\Dual-core_Communication_Demo\Dual-core_Communication_Demo\MASTER\obj/../Libraries/wch_libraries/Peripheral/ch32v10x_rcc.c:482
      break;
    13c6:	a861                	j	145e <RCC_GetClocksFreq+0xf6>
C:\Users\windows\Desktop\A_Dual\A_Dual1\Dual-core_Communication_Demo\Dual-core_Communication_Demo\MASTER\obj/../Libraries/wch_libraries/Peripheral/ch32v10x_rcc.c:485
		
    case 0x08:
      pllmull = RCC->CFGR0 & CFGR0_PLLMull_Mask;
    13c8:	400217b7          	lui	a5,0x40021
    13cc:	43d8                	lw	a4,4(a5)
    13ce:	003c07b7          	lui	a5,0x3c0
    13d2:	8ff9                	and	a5,a5,a4
    13d4:	fef42423          	sw	a5,-24(s0)
C:\Users\windows\Desktop\A_Dual\A_Dual1\Dual-core_Communication_Demo\Dual-core_Communication_Demo\MASTER\obj/../Libraries/wch_libraries/Peripheral/ch32v10x_rcc.c:486
      pllsource = RCC->CFGR0 & CFGR0_PLLSRC_Mask;    
    13d8:	400217b7          	lui	a5,0x40021
    13dc:	43d8                	lw	a4,4(a5)
    13de:	67c1                	lui	a5,0x10
    13e0:	8ff9                	and	a5,a5,a4
    13e2:	fef42223          	sw	a5,-28(s0)
C:\Users\windows\Desktop\A_Dual\A_Dual1\Dual-core_Communication_Demo\Dual-core_Communication_Demo\MASTER\obj/../Libraries/wch_libraries/Peripheral/ch32v10x_rcc.c:487
      pllmull = ( pllmull >> 18) + 2;
    13e6:	fe842783          	lw	a5,-24(s0)
    13ea:	83c9                	srli	a5,a5,0x12
    13ec:	0789                	addi	a5,a5,2
    13ee:	fef42423          	sw	a5,-24(s0)
C:\Users\windows\Desktop\A_Dual\A_Dual1\Dual-core_Communication_Demo\Dual-core_Communication_Demo\MASTER\obj/../Libraries/wch_libraries/Peripheral/ch32v10x_rcc.c:489
      
      if (pllsource == 0x00)
    13f2:	fe442783          	lw	a5,-28(s0)
    13f6:	ef89                	bnez	a5,1410 <RCC_GetClocksFreq+0xa8>
C:\Users\windows\Desktop\A_Dual\A_Dual1\Dual-core_Communication_Demo\Dual-core_Communication_Demo\MASTER\obj/../Libraries/wch_libraries/Peripheral/ch32v10x_rcc.c:491
      {
        RCC_Clocks->SYSCLK_Frequency = (HSI_VALUE >> 1) * pllmull;
    13f8:	fe842703          	lw	a4,-24(s0)
    13fc:	003d17b7          	lui	a5,0x3d1
    1400:	90078793          	addi	a5,a5,-1792 # 3d0900 <_data_lma+0x3c7214>
    1404:	02f70733          	mul	a4,a4,a5
    1408:	fdc42783          	lw	a5,-36(s0)
    140c:	c398                	sw	a4,0(a5)
C:\Users\windows\Desktop\A_Dual\A_Dual1\Dual-core_Communication_Demo\Dual-core_Communication_Demo\MASTER\obj/../Libraries/wch_libraries/Peripheral/ch32v10x_rcc.c:504
        else
        {
          RCC_Clocks->SYSCLK_Frequency = HSE_VALUE * pllmull;
        }
      } 
      break;
    140e:	a881                	j	145e <RCC_GetClocksFreq+0xf6>
C:\Users\windows\Desktop\A_Dual\A_Dual1\Dual-core_Communication_Demo\Dual-core_Communication_Demo\MASTER\obj/../Libraries/wch_libraries/Peripheral/ch32v10x_rcc.c:495
        if ((RCC->CFGR0 & CFGR0_PLLXTPRE_Mask) != (uint32_t)RESET)
    1410:	400217b7          	lui	a5,0x40021
    1414:	43d8                	lw	a4,4(a5)
    1416:	000207b7          	lui	a5,0x20
    141a:	8ff9                	and	a5,a5,a4
    141c:	cf89                	beqz	a5,1436 <RCC_GetClocksFreq+0xce>
C:\Users\windows\Desktop\A_Dual\A_Dual1\Dual-core_Communication_Demo\Dual-core_Communication_Demo\MASTER\obj/../Libraries/wch_libraries/Peripheral/ch32v10x_rcc.c:497
          RCC_Clocks->SYSCLK_Frequency = (HSE_VALUE >> 1) * pllmull;
    141e:	fe842703          	lw	a4,-24(s0)
    1422:	003d17b7          	lui	a5,0x3d1
    1426:	90078793          	addi	a5,a5,-1792 # 3d0900 <_data_lma+0x3c7214>
    142a:	02f70733          	mul	a4,a4,a5
    142e:	fdc42783          	lw	a5,-36(s0)
    1432:	c398                	sw	a4,0(a5)
C:\Users\windows\Desktop\A_Dual\A_Dual1\Dual-core_Communication_Demo\Dual-core_Communication_Demo\MASTER\obj/../Libraries/wch_libraries/Peripheral/ch32v10x_rcc.c:504
      break;
    1434:	a02d                	j	145e <RCC_GetClocksFreq+0xf6>
C:\Users\windows\Desktop\A_Dual\A_Dual1\Dual-core_Communication_Demo\Dual-core_Communication_Demo\MASTER\obj/../Libraries/wch_libraries/Peripheral/ch32v10x_rcc.c:501
          RCC_Clocks->SYSCLK_Frequency = HSE_VALUE * pllmull;
    1436:	fe842703          	lw	a4,-24(s0)
    143a:	007a17b7          	lui	a5,0x7a1
    143e:	20078793          	addi	a5,a5,512 # 7a1200 <_data_lma+0x797b14>
    1442:	02f70733          	mul	a4,a4,a5
    1446:	fdc42783          	lw	a5,-36(s0)
    144a:	c398                	sw	a4,0(a5)
C:\Users\windows\Desktop\A_Dual\A_Dual1\Dual-core_Communication_Demo\Dual-core_Communication_Demo\MASTER\obj/../Libraries/wch_libraries/Peripheral/ch32v10x_rcc.c:504
      break;
    144c:	a809                	j	145e <RCC_GetClocksFreq+0xf6>
C:\Users\windows\Desktop\A_Dual\A_Dual1\Dual-core_Communication_Demo\Dual-core_Communication_Demo\MASTER\obj/../Libraries/wch_libraries/Peripheral/ch32v10x_rcc.c:507

    default:
      RCC_Clocks->SYSCLK_Frequency = HSI_VALUE;
    144e:	fdc42783          	lw	a5,-36(s0)
    1452:	007a1737          	lui	a4,0x7a1
    1456:	20070713          	addi	a4,a4,512 # 7a1200 <_data_lma+0x797b14>
    145a:	c398                	sw	a4,0(a5)
C:\Users\windows\Desktop\A_Dual\A_Dual1\Dual-core_Communication_Demo\Dual-core_Communication_Demo\MASTER\obj/../Libraries/wch_libraries/Peripheral/ch32v10x_rcc.c:508
      break;
    145c:	0001                	nop
C:\Users\windows\Desktop\A_Dual\A_Dual1\Dual-core_Communication_Demo\Dual-core_Communication_Demo\MASTER\obj/../Libraries/wch_libraries/Peripheral/ch32v10x_rcc.c:511
  }

  tmp = RCC->CFGR0 & CFGR0_HPRE_Set_Mask;
    145e:	400217b7          	lui	a5,0x40021
    1462:	43dc                	lw	a5,4(a5)
    1464:	0f07f793          	andi	a5,a5,240
    1468:	fef42623          	sw	a5,-20(s0)
C:\Users\windows\Desktop\A_Dual\A_Dual1\Dual-core_Communication_Demo\Dual-core_Communication_Demo\MASTER\obj/../Libraries/wch_libraries/Peripheral/ch32v10x_rcc.c:512
  tmp = tmp >> 4;
    146c:	fec42783          	lw	a5,-20(s0)
    1470:	8391                	srli	a5,a5,0x4
    1472:	fef42623          	sw	a5,-20(s0)
C:\Users\windows\Desktop\A_Dual\A_Dual1\Dual-core_Communication_Demo\Dual-core_Communication_Demo\MASTER\obj/../Libraries/wch_libraries/Peripheral/ch32v10x_rcc.c:513
  presc = APBAHBPrescTable[tmp];
    1476:	200007b7          	lui	a5,0x20000
    147a:	00078713          	mv	a4,a5
    147e:	fec42783          	lw	a5,-20(s0)
    1482:	97ba                	add	a5,a5,a4
    1484:	0007c783          	lbu	a5,0(a5) # 20000000 <_data_vma>
    1488:	0ff7f793          	andi	a5,a5,255
    148c:	fef42023          	sw	a5,-32(s0)
C:\Users\windows\Desktop\A_Dual\A_Dual1\Dual-core_Communication_Demo\Dual-core_Communication_Demo\MASTER\obj/../Libraries/wch_libraries/Peripheral/ch32v10x_rcc.c:514
  RCC_Clocks->HCLK_Frequency = RCC_Clocks->SYSCLK_Frequency >> presc;
    1490:	fdc42783          	lw	a5,-36(s0)
    1494:	4398                	lw	a4,0(a5)
    1496:	fe042783          	lw	a5,-32(s0)
    149a:	00f75733          	srl	a4,a4,a5
    149e:	fdc42783          	lw	a5,-36(s0)
    14a2:	c3d8                	sw	a4,4(a5)
C:\Users\windows\Desktop\A_Dual\A_Dual1\Dual-core_Communication_Demo\Dual-core_Communication_Demo\MASTER\obj/../Libraries/wch_libraries/Peripheral/ch32v10x_rcc.c:515
  tmp = RCC->CFGR0 & CFGR0_PPRE1_Set_Mask;
    14a4:	400217b7          	lui	a5,0x40021
    14a8:	43dc                	lw	a5,4(a5)
    14aa:	7007f793          	andi	a5,a5,1792
    14ae:	fef42623          	sw	a5,-20(s0)
C:\Users\windows\Desktop\A_Dual\A_Dual1\Dual-core_Communication_Demo\Dual-core_Communication_Demo\MASTER\obj/../Libraries/wch_libraries/Peripheral/ch32v10x_rcc.c:516
  tmp = tmp >> 8;
    14b2:	fec42783          	lw	a5,-20(s0)
    14b6:	83a1                	srli	a5,a5,0x8
    14b8:	fef42623          	sw	a5,-20(s0)
C:\Users\windows\Desktop\A_Dual\A_Dual1\Dual-core_Communication_Demo\Dual-core_Communication_Demo\MASTER\obj/../Libraries/wch_libraries/Peripheral/ch32v10x_rcc.c:517
  presc = APBAHBPrescTable[tmp];
    14bc:	200007b7          	lui	a5,0x20000
    14c0:	00078713          	mv	a4,a5
    14c4:	fec42783          	lw	a5,-20(s0)
    14c8:	97ba                	add	a5,a5,a4
    14ca:	0007c783          	lbu	a5,0(a5) # 20000000 <_data_vma>
    14ce:	0ff7f793          	andi	a5,a5,255
    14d2:	fef42023          	sw	a5,-32(s0)
C:\Users\windows\Desktop\A_Dual\A_Dual1\Dual-core_Communication_Demo\Dual-core_Communication_Demo\MASTER\obj/../Libraries/wch_libraries/Peripheral/ch32v10x_rcc.c:518
  RCC_Clocks->PCLK1_Frequency = RCC_Clocks->HCLK_Frequency >> presc;
    14d6:	fdc42783          	lw	a5,-36(s0)
    14da:	43d8                	lw	a4,4(a5)
    14dc:	fe042783          	lw	a5,-32(s0)
    14e0:	00f75733          	srl	a4,a4,a5
    14e4:	fdc42783          	lw	a5,-36(s0)
    14e8:	c798                	sw	a4,8(a5)
C:\Users\windows\Desktop\A_Dual\A_Dual1\Dual-core_Communication_Demo\Dual-core_Communication_Demo\MASTER\obj/../Libraries/wch_libraries/Peripheral/ch32v10x_rcc.c:519
  tmp = RCC->CFGR0 & CFGR0_PPRE2_Set_Mask;
    14ea:	400217b7          	lui	a5,0x40021
    14ee:	43d8                	lw	a4,4(a5)
    14f0:	6791                	lui	a5,0x4
    14f2:	80078793          	addi	a5,a5,-2048 # 3800 <zf_sprintf+0x2fa>
    14f6:	8ff9                	and	a5,a5,a4
    14f8:	fef42623          	sw	a5,-20(s0)
C:\Users\windows\Desktop\A_Dual\A_Dual1\Dual-core_Communication_Demo\Dual-core_Communication_Demo\MASTER\obj/../Libraries/wch_libraries/Peripheral/ch32v10x_rcc.c:520
  tmp = tmp >> 11;
    14fc:	fec42783          	lw	a5,-20(s0)
    1500:	83ad                	srli	a5,a5,0xb
    1502:	fef42623          	sw	a5,-20(s0)
C:\Users\windows\Desktop\A_Dual\A_Dual1\Dual-core_Communication_Demo\Dual-core_Communication_Demo\MASTER\obj/../Libraries/wch_libraries/Peripheral/ch32v10x_rcc.c:521
  presc = APBAHBPrescTable[tmp];
    1506:	200007b7          	lui	a5,0x20000
    150a:	00078713          	mv	a4,a5
    150e:	fec42783          	lw	a5,-20(s0)
    1512:	97ba                	add	a5,a5,a4
    1514:	0007c783          	lbu	a5,0(a5) # 20000000 <_data_vma>
    1518:	0ff7f793          	andi	a5,a5,255
    151c:	fef42023          	sw	a5,-32(s0)
C:\Users\windows\Desktop\A_Dual\A_Dual1\Dual-core_Communication_Demo\Dual-core_Communication_Demo\MASTER\obj/../Libraries/wch_libraries/Peripheral/ch32v10x_rcc.c:522
  RCC_Clocks->PCLK2_Frequency = RCC_Clocks->HCLK_Frequency >> presc;
    1520:	fdc42783          	lw	a5,-36(s0)
    1524:	43d8                	lw	a4,4(a5)
    1526:	fe042783          	lw	a5,-32(s0)
    152a:	00f75733          	srl	a4,a4,a5
    152e:	fdc42783          	lw	a5,-36(s0)
    1532:	c7d8                	sw	a4,12(a5)
C:\Users\windows\Desktop\A_Dual\A_Dual1\Dual-core_Communication_Demo\Dual-core_Communication_Demo\MASTER\obj/../Libraries/wch_libraries/Peripheral/ch32v10x_rcc.c:523
  tmp = RCC->CFGR0 & CFGR0_ADCPRE_Set_Mask;
    1534:	400217b7          	lui	a5,0x40021
    1538:	43d8                	lw	a4,4(a5)
    153a:	67b1                	lui	a5,0xc
    153c:	8ff9                	and	a5,a5,a4
    153e:	fef42623          	sw	a5,-20(s0)
C:\Users\windows\Desktop\A_Dual\A_Dual1\Dual-core_Communication_Demo\Dual-core_Communication_Demo\MASTER\obj/../Libraries/wch_libraries/Peripheral/ch32v10x_rcc.c:524
  tmp = tmp >> 14;
    1542:	fec42783          	lw	a5,-20(s0)
    1546:	83b9                	srli	a5,a5,0xe
    1548:	fef42623          	sw	a5,-20(s0)
C:\Users\windows\Desktop\A_Dual\A_Dual1\Dual-core_Communication_Demo\Dual-core_Communication_Demo\MASTER\obj/../Libraries/wch_libraries/Peripheral/ch32v10x_rcc.c:525
  presc = ADCPrescTable[tmp];
    154c:	200007b7          	lui	a5,0x20000
    1550:	07078713          	addi	a4,a5,112 # 20000070 <ADCPrescTable>
    1554:	fec42783          	lw	a5,-20(s0)
    1558:	97ba                	add	a5,a5,a4
    155a:	0007c783          	lbu	a5,0(a5)
    155e:	0ff7f793          	andi	a5,a5,255
    1562:	fef42023          	sw	a5,-32(s0)
C:\Users\windows\Desktop\A_Dual\A_Dual1\Dual-core_Communication_Demo\Dual-core_Communication_Demo\MASTER\obj/../Libraries/wch_libraries/Peripheral/ch32v10x_rcc.c:526
  RCC_Clocks->ADCCLK_Frequency = RCC_Clocks->PCLK2_Frequency / presc;
    1566:	fdc42783          	lw	a5,-36(s0)
    156a:	47d8                	lw	a4,12(a5)
    156c:	fe042783          	lw	a5,-32(s0)
    1570:	02f75733          	divu	a4,a4,a5
    1574:	fdc42783          	lw	a5,-36(s0)
    1578:	cb98                	sw	a4,16(a5)
C:\Users\windows\Desktop\A_Dual\A_Dual1\Dual-core_Communication_Demo\Dual-core_Communication_Demo\MASTER\obj/../Libraries/wch_libraries/Peripheral/ch32v10x_rcc.c:527
}
    157a:	0001                	nop
    157c:	5432                	lw	s0,44(sp)
    157e:	6145                	addi	sp,sp,48
    1580:	8082                	ret

00001582 <RCC_APB2PeriphClockCmd>:
RCC_APB2PeriphClockCmd():
C:\Users\windows\Desktop\A_Dual\A_Dual1\Dual-core_Communication_Demo\Dual-core_Communication_Demo\MASTER\obj/../Libraries/wch_libraries/Peripheral/ch32v10x_rcc.c:570
*                    RCC_APB2Periph_USART1.
*                  NewState: ENABLE or DISABLE
* Return         : None
*******************************************************************************/	
void RCC_APB2PeriphClockCmd(uint32_t RCC_APB2Periph, FunctionalState NewState)
{
    1582:	1101                	addi	sp,sp,-32
    1584:	ce22                	sw	s0,28(sp)
    1586:	1000                	addi	s0,sp,32
    1588:	fea42623          	sw	a0,-20(s0)
    158c:	feb42423          	sw	a1,-24(s0)
C:\Users\windows\Desktop\A_Dual\A_Dual1\Dual-core_Communication_Demo\Dual-core_Communication_Demo\MASTER\obj/../Libraries/wch_libraries/Peripheral/ch32v10x_rcc.c:571
  if (NewState != DISABLE)
    1590:	fe842783          	lw	a5,-24(s0)
    1594:	cb99                	beqz	a5,15aa <RCC_APB2PeriphClockCmd+0x28>
C:\Users\windows\Desktop\A_Dual\A_Dual1\Dual-core_Communication_Demo\Dual-core_Communication_Demo\MASTER\obj/../Libraries/wch_libraries/Peripheral/ch32v10x_rcc.c:573
  {
    RCC->APB2PCENR |= RCC_APB2Periph;
    1596:	400217b7          	lui	a5,0x40021
    159a:	4f94                	lw	a3,24(a5)
    159c:	400217b7          	lui	a5,0x40021
    15a0:	fec42703          	lw	a4,-20(s0)
    15a4:	8f55                	or	a4,a4,a3
    15a6:	cf98                	sw	a4,24(a5)
C:\Users\windows\Desktop\A_Dual\A_Dual1\Dual-core_Communication_Demo\Dual-core_Communication_Demo\MASTER\obj/../Libraries/wch_libraries/Peripheral/ch32v10x_rcc.c:579
  }
  else
  {
    RCC->APB2PCENR &= ~RCC_APB2Periph;
  }
}
    15a8:	a821                	j	15c0 <RCC_APB2PeriphClockCmd+0x3e>
C:\Users\windows\Desktop\A_Dual\A_Dual1\Dual-core_Communication_Demo\Dual-core_Communication_Demo\MASTER\obj/../Libraries/wch_libraries/Peripheral/ch32v10x_rcc.c:577
    RCC->APB2PCENR &= ~RCC_APB2Periph;
    15aa:	400217b7          	lui	a5,0x40021
    15ae:	4f94                	lw	a3,24(a5)
    15b0:	fec42783          	lw	a5,-20(s0)
    15b4:	fff7c713          	not	a4,a5
    15b8:	400217b7          	lui	a5,0x40021
    15bc:	8f75                	and	a4,a4,a3
    15be:	cf98                	sw	a4,24(a5)
C:\Users\windows\Desktop\A_Dual\A_Dual1\Dual-core_Communication_Demo\Dual-core_Communication_Demo\MASTER\obj/../Libraries/wch_libraries/Peripheral/ch32v10x_rcc.c:579
}
    15c0:	0001                	nop
    15c2:	4472                	lw	s0,28(sp)
    15c4:	6105                	addi	sp,sp,32
    15c6:	8082                	ret

000015c8 <RCC_APB1PeriphClockCmd>:
RCC_APB1PeriphClockCmd():
C:\Users\windows\Desktop\A_Dual\A_Dual1\Dual-core_Communication_Demo\Dual-core_Communication_Demo\MASTER\obj/../Libraries/wch_libraries/Peripheral/ch32v10x_rcc.c:603
*                    RCC_APB1Periph_DAC.                
*                  NewState: ENABLE or DISABLE.
* Return         : None
*******************************************************************************/	
void RCC_APB1PeriphClockCmd(uint32_t RCC_APB1Periph, FunctionalState NewState)
{
    15c8:	1101                	addi	sp,sp,-32
    15ca:	ce22                	sw	s0,28(sp)
    15cc:	1000                	addi	s0,sp,32
    15ce:	fea42623          	sw	a0,-20(s0)
    15d2:	feb42423          	sw	a1,-24(s0)
C:\Users\windows\Desktop\A_Dual\A_Dual1\Dual-core_Communication_Demo\Dual-core_Communication_Demo\MASTER\obj/../Libraries/wch_libraries/Peripheral/ch32v10x_rcc.c:604
  if (NewState != DISABLE)
    15d6:	fe842783          	lw	a5,-24(s0)
    15da:	cb99                	beqz	a5,15f0 <RCC_APB1PeriphClockCmd+0x28>
C:\Users\windows\Desktop\A_Dual\A_Dual1\Dual-core_Communication_Demo\Dual-core_Communication_Demo\MASTER\obj/../Libraries/wch_libraries/Peripheral/ch32v10x_rcc.c:606
  {
    RCC->APB1PCENR |= RCC_APB1Periph;
    15dc:	400217b7          	lui	a5,0x40021
    15e0:	4fd4                	lw	a3,28(a5)
    15e2:	400217b7          	lui	a5,0x40021
    15e6:	fec42703          	lw	a4,-20(s0)
    15ea:	8f55                	or	a4,a4,a3
    15ec:	cfd8                	sw	a4,28(a5)
C:\Users\windows\Desktop\A_Dual\A_Dual1\Dual-core_Communication_Demo\Dual-core_Communication_Demo\MASTER\obj/../Libraries/wch_libraries/Peripheral/ch32v10x_rcc.c:612
  }
  else
  {
    RCC->APB1PCENR &= ~RCC_APB1Periph;
  }
}
    15ee:	a821                	j	1606 <RCC_APB1PeriphClockCmd+0x3e>
C:\Users\windows\Desktop\A_Dual\A_Dual1\Dual-core_Communication_Demo\Dual-core_Communication_Demo\MASTER\obj/../Libraries/wch_libraries/Peripheral/ch32v10x_rcc.c:610
    RCC->APB1PCENR &= ~RCC_APB1Periph;
    15f0:	400217b7          	lui	a5,0x40021
    15f4:	4fd4                	lw	a3,28(a5)
    15f6:	fec42783          	lw	a5,-20(s0)
    15fa:	fff7c713          	not	a4,a5
    15fe:	400217b7          	lui	a5,0x40021
    1602:	8f75                	and	a4,a4,a3
    1604:	cfd8                	sw	a4,28(a5)
C:\Users\windows\Desktop\A_Dual\A_Dual1\Dual-core_Communication_Demo\Dual-core_Communication_Demo\MASTER\obj/../Libraries/wch_libraries/Peripheral/ch32v10x_rcc.c:612
}
    1606:	0001                	nop
    1608:	4472                	lw	s0,28(sp)
    160a:	6105                	addi	sp,sp,32
    160c:	8082                	ret

0000160e <SPI_Init>:
SPI_Init():
C:\Users\windows\Desktop\A_Dual\A_Dual1\Dual-core_Communication_Demo\Dual-core_Communication_Demo\MASTER\obj/../Libraries/wch_libraries/Peripheral/ch32v10x_spi.c:83
*                  SPI_InitStruct: pointer to a SPI_InitTypeDef structure that
*      contains the configuration information for the specified SPI peripheral.
* Return         : None
*******************************************************************************/
void SPI_Init(SPI_TypeDef* SPIx, SPI_InitTypeDef* SPI_InitStruct)
{
    160e:	7179                	addi	sp,sp,-48
    1610:	d622                	sw	s0,44(sp)
    1612:	1800                	addi	s0,sp,48
    1614:	fca42e23          	sw	a0,-36(s0)
    1618:	fcb42c23          	sw	a1,-40(s0)
C:\Users\windows\Desktop\A_Dual\A_Dual1\Dual-core_Communication_Demo\Dual-core_Communication_Demo\MASTER\obj/../Libraries/wch_libraries/Peripheral/ch32v10x_spi.c:84
  uint16_t tmpreg = 0;
    161c:	fe041723          	sh	zero,-18(s0)
C:\Users\windows\Desktop\A_Dual\A_Dual1\Dual-core_Communication_Demo\Dual-core_Communication_Demo\MASTER\obj/../Libraries/wch_libraries/Peripheral/ch32v10x_spi.c:86
  
  tmpreg = SPIx->CTLR1;
    1620:	fdc42783          	lw	a5,-36(s0)
    1624:	0007d783          	lhu	a5,0(a5) # 40021000 <_eusrstack+0x2001c000>
    1628:	fef41723          	sh	a5,-18(s0)
C:\Users\windows\Desktop\A_Dual\A_Dual1\Dual-core_Communication_Demo\Dual-core_Communication_Demo\MASTER\obj/../Libraries/wch_libraries/Peripheral/ch32v10x_spi.c:87
  tmpreg &= CTLR1_CLEAR_Mask;
    162c:	fee45703          	lhu	a4,-18(s0)
    1630:	678d                	lui	a5,0x3
    1632:	04078793          	addi	a5,a5,64 # 3040 <lcd_showint16+0xc0>
    1636:	8ff9                	and	a5,a5,a4
    1638:	fef41723          	sh	a5,-18(s0)
C:\Users\windows\Desktop\A_Dual\A_Dual1\Dual-core_Communication_Demo\Dual-core_Communication_Demo\MASTER\obj/../Libraries/wch_libraries/Peripheral/ch32v10x_spi.c:88
  tmpreg |= (uint16_t)((uint32_t)SPI_InitStruct->SPI_Direction | SPI_InitStruct->SPI_Mode |
    163c:	fd842783          	lw	a5,-40(s0)
    1640:	0007d703          	lhu	a4,0(a5)
    1644:	fd842783          	lw	a5,-40(s0)
    1648:	0027d783          	lhu	a5,2(a5)
    164c:	8fd9                	or	a5,a5,a4
    164e:	01079713          	slli	a4,a5,0x10
    1652:	8341                	srli	a4,a4,0x10
C:\Users\windows\Desktop\A_Dual\A_Dual1\Dual-core_Communication_Demo\Dual-core_Communication_Demo\MASTER\obj/../Libraries/wch_libraries/Peripheral/ch32v10x_spi.c:89
                  SPI_InitStruct->SPI_DataSize | SPI_InitStruct->SPI_CPOL |  
    1654:	fd842783          	lw	a5,-40(s0)
    1658:	0047d783          	lhu	a5,4(a5)
C:\Users\windows\Desktop\A_Dual\A_Dual1\Dual-core_Communication_Demo\Dual-core_Communication_Demo\MASTER\obj/../Libraries/wch_libraries/Peripheral/ch32v10x_spi.c:88
  tmpreg |= (uint16_t)((uint32_t)SPI_InitStruct->SPI_Direction | SPI_InitStruct->SPI_Mode |
    165c:	8fd9                	or	a5,a5,a4
    165e:	01079713          	slli	a4,a5,0x10
    1662:	8341                	srli	a4,a4,0x10
C:\Users\windows\Desktop\A_Dual\A_Dual1\Dual-core_Communication_Demo\Dual-core_Communication_Demo\MASTER\obj/../Libraries/wch_libraries/Peripheral/ch32v10x_spi.c:89
                  SPI_InitStruct->SPI_DataSize | SPI_InitStruct->SPI_CPOL |  
    1664:	fd842783          	lw	a5,-40(s0)
    1668:	0067d783          	lhu	a5,6(a5)
C:\Users\windows\Desktop\A_Dual\A_Dual1\Dual-core_Communication_Demo\Dual-core_Communication_Demo\MASTER\obj/../Libraries/wch_libraries/Peripheral/ch32v10x_spi.c:88
  tmpreg |= (uint16_t)((uint32_t)SPI_InitStruct->SPI_Direction | SPI_InitStruct->SPI_Mode |
    166c:	8fd9                	or	a5,a5,a4
    166e:	01079713          	slli	a4,a5,0x10
    1672:	8341                	srli	a4,a4,0x10
C:\Users\windows\Desktop\A_Dual\A_Dual1\Dual-core_Communication_Demo\Dual-core_Communication_Demo\MASTER\obj/../Libraries/wch_libraries/Peripheral/ch32v10x_spi.c:90
                  SPI_InitStruct->SPI_CPHA | SPI_InitStruct->SPI_NSS |  
    1674:	fd842783          	lw	a5,-40(s0)
    1678:	0087d783          	lhu	a5,8(a5)
C:\Users\windows\Desktop\A_Dual\A_Dual1\Dual-core_Communication_Demo\Dual-core_Communication_Demo\MASTER\obj/../Libraries/wch_libraries/Peripheral/ch32v10x_spi.c:88
  tmpreg |= (uint16_t)((uint32_t)SPI_InitStruct->SPI_Direction | SPI_InitStruct->SPI_Mode |
    167c:	8fd9                	or	a5,a5,a4
    167e:	01079713          	slli	a4,a5,0x10
    1682:	8341                	srli	a4,a4,0x10
C:\Users\windows\Desktop\A_Dual\A_Dual1\Dual-core_Communication_Demo\Dual-core_Communication_Demo\MASTER\obj/../Libraries/wch_libraries/Peripheral/ch32v10x_spi.c:90
                  SPI_InitStruct->SPI_CPHA | SPI_InitStruct->SPI_NSS |  
    1684:	fd842783          	lw	a5,-40(s0)
    1688:	00a7d783          	lhu	a5,10(a5)
C:\Users\windows\Desktop\A_Dual\A_Dual1\Dual-core_Communication_Demo\Dual-core_Communication_Demo\MASTER\obj/../Libraries/wch_libraries/Peripheral/ch32v10x_spi.c:88
  tmpreg |= (uint16_t)((uint32_t)SPI_InitStruct->SPI_Direction | SPI_InitStruct->SPI_Mode |
    168c:	8fd9                	or	a5,a5,a4
    168e:	01079713          	slli	a4,a5,0x10
    1692:	8341                	srli	a4,a4,0x10
C:\Users\windows\Desktop\A_Dual\A_Dual1\Dual-core_Communication_Demo\Dual-core_Communication_Demo\MASTER\obj/../Libraries/wch_libraries/Peripheral/ch32v10x_spi.c:91
                  SPI_InitStruct->SPI_BaudRatePrescaler | SPI_InitStruct->SPI_FirstBit);
    1694:	fd842783          	lw	a5,-40(s0)
    1698:	00c7d783          	lhu	a5,12(a5)
C:\Users\windows\Desktop\A_Dual\A_Dual1\Dual-core_Communication_Demo\Dual-core_Communication_Demo\MASTER\obj/../Libraries/wch_libraries/Peripheral/ch32v10x_spi.c:88
  tmpreg |= (uint16_t)((uint32_t)SPI_InitStruct->SPI_Direction | SPI_InitStruct->SPI_Mode |
    169c:	8fd9                	or	a5,a5,a4
    169e:	01079713          	slli	a4,a5,0x10
    16a2:	8341                	srli	a4,a4,0x10
C:\Users\windows\Desktop\A_Dual\A_Dual1\Dual-core_Communication_Demo\Dual-core_Communication_Demo\MASTER\obj/../Libraries/wch_libraries/Peripheral/ch32v10x_spi.c:91
                  SPI_InitStruct->SPI_BaudRatePrescaler | SPI_InitStruct->SPI_FirstBit);
    16a4:	fd842783          	lw	a5,-40(s0)
    16a8:	00e7d783          	lhu	a5,14(a5)
C:\Users\windows\Desktop\A_Dual\A_Dual1\Dual-core_Communication_Demo\Dual-core_Communication_Demo\MASTER\obj/../Libraries/wch_libraries/Peripheral/ch32v10x_spi.c:88
  tmpreg |= (uint16_t)((uint32_t)SPI_InitStruct->SPI_Direction | SPI_InitStruct->SPI_Mode |
    16ac:	8fd9                	or	a5,a5,a4
    16ae:	01079713          	slli	a4,a5,0x10
    16b2:	8341                	srli	a4,a4,0x10
    16b4:	fee45783          	lhu	a5,-18(s0)
    16b8:	8fd9                	or	a5,a5,a4
    16ba:	fef41723          	sh	a5,-18(s0)
C:\Users\windows\Desktop\A_Dual\A_Dual1\Dual-core_Communication_Demo\Dual-core_Communication_Demo\MASTER\obj/../Libraries/wch_libraries/Peripheral/ch32v10x_spi.c:93

  SPIx->CTLR1 = tmpreg;
    16be:	fdc42783          	lw	a5,-36(s0)
    16c2:	fee45703          	lhu	a4,-18(s0)
    16c6:	00e79023          	sh	a4,0(a5)
C:\Users\windows\Desktop\A_Dual\A_Dual1\Dual-core_Communication_Demo\Dual-core_Communication_Demo\MASTER\obj/../Libraries/wch_libraries/Peripheral/ch32v10x_spi.c:94
  SPIx->I2SCFGR &= SPI_Mode_Select;		
    16ca:	fdc42783          	lw	a5,-36(s0)
    16ce:	01c7d783          	lhu	a5,28(a5)
    16d2:	01079713          	slli	a4,a5,0x10
    16d6:	8341                	srli	a4,a4,0x10
    16d8:	77fd                	lui	a5,0xfffff
    16da:	7ff78793          	addi	a5,a5,2047 # fffff7ff <_eusrstack+0xdfffa7ff>
    16de:	8ff9                	and	a5,a5,a4
    16e0:	01079713          	slli	a4,a5,0x10
    16e4:	8341                	srli	a4,a4,0x10
    16e6:	fdc42783          	lw	a5,-36(s0)
    16ea:	00e79e23          	sh	a4,28(a5)
C:\Users\windows\Desktop\A_Dual\A_Dual1\Dual-core_Communication_Demo\Dual-core_Communication_Demo\MASTER\obj/../Libraries/wch_libraries/Peripheral/ch32v10x_spi.c:95
  SPIx->CRCR = SPI_InitStruct->SPI_CRCPolynomial;
    16ee:	fd842783          	lw	a5,-40(s0)
    16f2:	0107d703          	lhu	a4,16(a5)
    16f6:	fdc42783          	lw	a5,-36(s0)
    16fa:	00e79823          	sh	a4,16(a5)
C:\Users\windows\Desktop\A_Dual\A_Dual1\Dual-core_Communication_Demo\Dual-core_Communication_Demo\MASTER\obj/../Libraries/wch_libraries/Peripheral/ch32v10x_spi.c:96
}
    16fe:	0001                	nop
    1700:	5432                	lw	s0,44(sp)
    1702:	6145                	addi	sp,sp,48
    1704:	8082                	ret

00001706 <SPI_Cmd>:
SPI_Cmd():
C:\Users\windows\Desktop\A_Dual\A_Dual1\Dual-core_Communication_Demo\Dual-core_Communication_Demo\MASTER\obj/../Libraries/wch_libraries/Peripheral/ch32v10x_spi.c:221
* Input          : SPIx: where x can be 1, 2 or 3 to select the SPI peripheral.
*                  NewState: ENABLE or DISABLE.
* Return         : None
*******************************************************************************/
void SPI_Cmd(SPI_TypeDef* SPIx, FunctionalState NewState)
{
    1706:	1101                	addi	sp,sp,-32
    1708:	ce22                	sw	s0,28(sp)
    170a:	1000                	addi	s0,sp,32
    170c:	fea42623          	sw	a0,-20(s0)
    1710:	feb42423          	sw	a1,-24(s0)
C:\Users\windows\Desktop\A_Dual\A_Dual1\Dual-core_Communication_Demo\Dual-core_Communication_Demo\MASTER\obj/../Libraries/wch_libraries/Peripheral/ch32v10x_spi.c:222
  if (NewState != DISABLE)
    1714:	fe842783          	lw	a5,-24(s0)
    1718:	c38d                	beqz	a5,173a <SPI_Cmd+0x34>
C:\Users\windows\Desktop\A_Dual\A_Dual1\Dual-core_Communication_Demo\Dual-core_Communication_Demo\MASTER\obj/../Libraries/wch_libraries/Peripheral/ch32v10x_spi.c:224
  {
    SPIx->CTLR1 |= CTLR1_SPE_Set;
    171a:	fec42783          	lw	a5,-20(s0)
    171e:	0007d783          	lhu	a5,0(a5)
    1722:	07c2                	slli	a5,a5,0x10
    1724:	83c1                	srli	a5,a5,0x10
    1726:	0407e793          	ori	a5,a5,64
    172a:	01079713          	slli	a4,a5,0x10
    172e:	8341                	srli	a4,a4,0x10
    1730:	fec42783          	lw	a5,-20(s0)
    1734:	00e79023          	sh	a4,0(a5)
C:\Users\windows\Desktop\A_Dual\A_Dual1\Dual-core_Communication_Demo\Dual-core_Communication_Demo\MASTER\obj/../Libraries/wch_libraries/Peripheral/ch32v10x_spi.c:230
  }
  else
  {
    SPIx->CTLR1 &= CTLR1_SPE_Reset;
  }
}
    1738:	a005                	j	1758 <SPI_Cmd+0x52>
C:\Users\windows\Desktop\A_Dual\A_Dual1\Dual-core_Communication_Demo\Dual-core_Communication_Demo\MASTER\obj/../Libraries/wch_libraries/Peripheral/ch32v10x_spi.c:228
    SPIx->CTLR1 &= CTLR1_SPE_Reset;
    173a:	fec42783          	lw	a5,-20(s0)
    173e:	0007d783          	lhu	a5,0(a5)
    1742:	07c2                	slli	a5,a5,0x10
    1744:	83c1                	srli	a5,a5,0x10
    1746:	fbf7f793          	andi	a5,a5,-65
    174a:	01079713          	slli	a4,a5,0x10
    174e:	8341                	srli	a4,a4,0x10
    1750:	fec42783          	lw	a5,-20(s0)
    1754:	00e79023          	sh	a4,0(a5)
C:\Users\windows\Desktop\A_Dual\A_Dual1\Dual-core_Communication_Demo\Dual-core_Communication_Demo\MASTER\obj/../Libraries/wch_libraries/Peripheral/ch32v10x_spi.c:230
}
    1758:	0001                	nop
    175a:	4472                	lw	s0,28(sp)
    175c:	6105                	addi	sp,sp,32
    175e:	8082                	ret

00001760 <TIM_TimeBaseInit>:
TIM_TimeBaseInit():
C:\Users\windows\Desktop\A_Dual\A_Dual1\Dual-core_Communication_Demo\Dual-core_Communication_Demo\MASTER\obj/../Libraries/wch_libraries/Peripheral/ch32v10x_tim.c:67
*                  TIM_TimeBaseInitStruct: pointer to a TIM_TimeBaseInitTypeDef
*      structure.
* Return         : None
*******************************************************************************/
void TIM_TimeBaseInit(TIM_TypeDef* TIMx, TIM_TimeBaseInitTypeDef* TIM_TimeBaseInitStruct)
{
    1760:	7179                	addi	sp,sp,-48
    1762:	d622                	sw	s0,44(sp)
    1764:	1800                	addi	s0,sp,48
    1766:	fca42e23          	sw	a0,-36(s0)
    176a:	fcb42c23          	sw	a1,-40(s0)
C:\Users\windows\Desktop\A_Dual\A_Dual1\Dual-core_Communication_Demo\Dual-core_Communication_Demo\MASTER\obj/../Libraries/wch_libraries/Peripheral/ch32v10x_tim.c:68
  uint16_t tmpcr1 = 0;
    176e:	fe041723          	sh	zero,-18(s0)
C:\Users\windows\Desktop\A_Dual\A_Dual1\Dual-core_Communication_Demo\Dual-core_Communication_Demo\MASTER\obj/../Libraries/wch_libraries/Peripheral/ch32v10x_tim.c:70

  tmpcr1 = TIMx->CTLR1;  
    1772:	fdc42783          	lw	a5,-36(s0)
    1776:	0007d783          	lhu	a5,0(a5)
    177a:	fef41723          	sh	a5,-18(s0)
C:\Users\windows\Desktop\A_Dual\A_Dual1\Dual-core_Communication_Demo\Dual-core_Communication_Demo\MASTER\obj/../Libraries/wch_libraries/Peripheral/ch32v10x_tim.c:72

  if((TIMx == TIM1) || (TIMx == TIM2) || (TIMx == TIM3)|| (TIMx == TIM4)) 
    177e:	fdc42703          	lw	a4,-36(s0)
    1782:	400137b7          	lui	a5,0x40013
    1786:	c0078793          	addi	a5,a5,-1024 # 40012c00 <_eusrstack+0x2000dc00>
    178a:	02f70863          	beq	a4,a5,17ba <TIM_TimeBaseInit+0x5a>
C:\Users\windows\Desktop\A_Dual\A_Dual1\Dual-core_Communication_Demo\Dual-core_Communication_Demo\MASTER\obj/../Libraries/wch_libraries/Peripheral/ch32v10x_tim.c:72 (discriminator 1)
    178e:	fdc42703          	lw	a4,-36(s0)
    1792:	400007b7          	lui	a5,0x40000
    1796:	02f70263          	beq	a4,a5,17ba <TIM_TimeBaseInit+0x5a>
C:\Users\windows\Desktop\A_Dual\A_Dual1\Dual-core_Communication_Demo\Dual-core_Communication_Demo\MASTER\obj/../Libraries/wch_libraries/Peripheral/ch32v10x_tim.c:72 (discriminator 2)
    179a:	fdc42703          	lw	a4,-36(s0)
    179e:	400007b7          	lui	a5,0x40000
    17a2:	40078793          	addi	a5,a5,1024 # 40000400 <_eusrstack+0x1fffb400>
    17a6:	00f70a63          	beq	a4,a5,17ba <TIM_TimeBaseInit+0x5a>
C:\Users\windows\Desktop\A_Dual\A_Dual1\Dual-core_Communication_Demo\Dual-core_Communication_Demo\MASTER\obj/../Libraries/wch_libraries/Peripheral/ch32v10x_tim.c:72 (discriminator 3)
    17aa:	fdc42703          	lw	a4,-36(s0)
    17ae:	400017b7          	lui	a5,0x40001
    17b2:	80078793          	addi	a5,a5,-2048 # 40000800 <_eusrstack+0x1fffb800>
    17b6:	02f71163          	bne	a4,a5,17d8 <TIM_TimeBaseInit+0x78>
C:\Users\windows\Desktop\A_Dual\A_Dual1\Dual-core_Communication_Demo\Dual-core_Communication_Demo\MASTER\obj/../Libraries/wch_libraries/Peripheral/ch32v10x_tim.c:74
  {
    tmpcr1 &= (uint16_t)(~((uint16_t)(TIM_DIR | TIM_CMS)));
    17ba:	fee45783          	lhu	a5,-18(s0)
    17be:	f8f7f793          	andi	a5,a5,-113
    17c2:	fef41723          	sh	a5,-18(s0)
C:\Users\windows\Desktop\A_Dual\A_Dual1\Dual-core_Communication_Demo\Dual-core_Communication_Demo\MASTER\obj/../Libraries/wch_libraries/Peripheral/ch32v10x_tim.c:75
    tmpcr1 |= (uint32_t)TIM_TimeBaseInitStruct->TIM_CounterMode;
    17c6:	fd842783          	lw	a5,-40(s0)
    17ca:	0027d703          	lhu	a4,2(a5)
    17ce:	fee45783          	lhu	a5,-18(s0)
    17d2:	8fd9                	or	a5,a5,a4
    17d4:	fef41723          	sh	a5,-18(s0)
C:\Users\windows\Desktop\A_Dual\A_Dual1\Dual-core_Communication_Demo\Dual-core_Communication_Demo\MASTER\obj/../Libraries/wch_libraries/Peripheral/ch32v10x_tim.c:78
  }

  tmpcr1 &= (uint16_t)(~((uint16_t)TIM_CTLR1_CKD));
    17d8:	fee45783          	lhu	a5,-18(s0)
    17dc:	cff7f793          	andi	a5,a5,-769
    17e0:	fef41723          	sh	a5,-18(s0)
C:\Users\windows\Desktop\A_Dual\A_Dual1\Dual-core_Communication_Demo\Dual-core_Communication_Demo\MASTER\obj/../Libraries/wch_libraries/Peripheral/ch32v10x_tim.c:79
  tmpcr1 |= (uint32_t)TIM_TimeBaseInitStruct->TIM_ClockDivision;
    17e4:	fd842783          	lw	a5,-40(s0)
    17e8:	0067d703          	lhu	a4,6(a5)
    17ec:	fee45783          	lhu	a5,-18(s0)
    17f0:	8fd9                	or	a5,a5,a4
    17f2:	fef41723          	sh	a5,-18(s0)
C:\Users\windows\Desktop\A_Dual\A_Dual1\Dual-core_Communication_Demo\Dual-core_Communication_Demo\MASTER\obj/../Libraries/wch_libraries/Peripheral/ch32v10x_tim.c:81

  TIMx->CTLR1 = tmpcr1;
    17f6:	fdc42783          	lw	a5,-36(s0)
    17fa:	fee45703          	lhu	a4,-18(s0)
    17fe:	00e79023          	sh	a4,0(a5)
C:\Users\windows\Desktop\A_Dual\A_Dual1\Dual-core_Communication_Demo\Dual-core_Communication_Demo\MASTER\obj/../Libraries/wch_libraries/Peripheral/ch32v10x_tim.c:82
  TIMx->ATRLR = TIM_TimeBaseInitStruct->TIM_Period ;
    1802:	fd842783          	lw	a5,-40(s0)
    1806:	0047d703          	lhu	a4,4(a5)
    180a:	fdc42783          	lw	a5,-36(s0)
    180e:	02e79623          	sh	a4,44(a5)
C:\Users\windows\Desktop\A_Dual\A_Dual1\Dual-core_Communication_Demo\Dual-core_Communication_Demo\MASTER\obj/../Libraries/wch_libraries/Peripheral/ch32v10x_tim.c:83
  TIMx->PSC = TIM_TimeBaseInitStruct->TIM_Prescaler;
    1812:	fd842783          	lw	a5,-40(s0)
    1816:	0007d703          	lhu	a4,0(a5)
    181a:	fdc42783          	lw	a5,-36(s0)
    181e:	02e79423          	sh	a4,40(a5)
C:\Users\windows\Desktop\A_Dual\A_Dual1\Dual-core_Communication_Demo\Dual-core_Communication_Demo\MASTER\obj/../Libraries/wch_libraries/Peripheral/ch32v10x_tim.c:85
    
  if (TIMx == TIM1)  
    1822:	fdc42703          	lw	a4,-36(s0)
    1826:	400137b7          	lui	a5,0x40013
    182a:	c0078793          	addi	a5,a5,-1024 # 40012c00 <_eusrstack+0x2000dc00>
    182e:	00f71d63          	bne	a4,a5,1848 <TIM_TimeBaseInit+0xe8>
C:\Users\windows\Desktop\A_Dual\A_Dual1\Dual-core_Communication_Demo\Dual-core_Communication_Demo\MASTER\obj/../Libraries/wch_libraries/Peripheral/ch32v10x_tim.c:87
  {
    TIMx->RPTCR = TIM_TimeBaseInitStruct->TIM_RepetitionCounter;
    1832:	fd842783          	lw	a5,-40(s0)
    1836:	0087c783          	lbu	a5,8(a5)
    183a:	01079713          	slli	a4,a5,0x10
    183e:	8341                	srli	a4,a4,0x10
    1840:	fdc42783          	lw	a5,-36(s0)
    1844:	02e79823          	sh	a4,48(a5)
C:\Users\windows\Desktop\A_Dual\A_Dual1\Dual-core_Communication_Demo\Dual-core_Communication_Demo\MASTER\obj/../Libraries/wch_libraries/Peripheral/ch32v10x_tim.c:90
  }

  TIMx->SWEVGR = TIM_PSCReloadMode_Immediate;           
    1848:	fdc42783          	lw	a5,-36(s0)
    184c:	4705                	li	a4,1
    184e:	00e79a23          	sh	a4,20(a5)
C:\Users\windows\Desktop\A_Dual\A_Dual1\Dual-core_Communication_Demo\Dual-core_Communication_Demo\MASTER\obj/../Libraries/wch_libraries/Peripheral/ch32v10x_tim.c:91
}
    1852:	0001                	nop
    1854:	5432                	lw	s0,44(sp)
    1856:	6145                	addi	sp,sp,48
    1858:	8082                	ret

0000185a <TIM_OC1Init>:
TIM_OC1Init():
C:\Users\windows\Desktop\A_Dual\A_Dual1\Dual-core_Communication_Demo\Dual-core_Communication_Demo\MASTER\obj/../Libraries/wch_libraries/Peripheral/ch32v10x_tim.c:102
* Input          : TIMx: where x can be 1 to 4 to select the TIM peripheral.
*                  TIM_OCInitStruct: pointer to a TIM_OCInitTypeDef structure.
* Return         : None
*******************************************************************************/
void TIM_OC1Init(TIM_TypeDef* TIMx, TIM_OCInitTypeDef* TIM_OCInitStruct)
{
    185a:	7179                	addi	sp,sp,-48
    185c:	d622                	sw	s0,44(sp)
    185e:	1800                	addi	s0,sp,48
    1860:	fca42e23          	sw	a0,-36(s0)
    1864:	fcb42c23          	sw	a1,-40(s0)
C:\Users\windows\Desktop\A_Dual\A_Dual1\Dual-core_Communication_Demo\Dual-core_Communication_Demo\MASTER\obj/../Libraries/wch_libraries/Peripheral/ch32v10x_tim.c:103
  uint16_t tmpccmrx = 0, tmpccer = 0, tmpcr2 = 0;
    1868:	fe041523          	sh	zero,-22(s0)
    186c:	fe041723          	sh	zero,-18(s0)
    1870:	fe041623          	sh	zero,-20(s0)
C:\Users\windows\Desktop\A_Dual\A_Dual1\Dual-core_Communication_Demo\Dual-core_Communication_Demo\MASTER\obj/../Libraries/wch_libraries/Peripheral/ch32v10x_tim.c:105
     
  TIMx->CCER &= (uint16_t)(~(uint16_t)TIM_CC1E);
    1874:	fdc42783          	lw	a5,-36(s0)
    1878:	0207d783          	lhu	a5,32(a5)
    187c:	07c2                	slli	a5,a5,0x10
    187e:	83c1                	srli	a5,a5,0x10
    1880:	9bf9                	andi	a5,a5,-2
    1882:	01079713          	slli	a4,a5,0x10
    1886:	8341                	srli	a4,a4,0x10
    1888:	fdc42783          	lw	a5,-36(s0)
    188c:	02e79023          	sh	a4,32(a5)
C:\Users\windows\Desktop\A_Dual\A_Dual1\Dual-core_Communication_Demo\Dual-core_Communication_Demo\MASTER\obj/../Libraries/wch_libraries/Peripheral/ch32v10x_tim.c:106
  tmpccer = TIMx->CCER;
    1890:	fdc42783          	lw	a5,-36(s0)
    1894:	0207d783          	lhu	a5,32(a5)
    1898:	fef41723          	sh	a5,-18(s0)
C:\Users\windows\Desktop\A_Dual\A_Dual1\Dual-core_Communication_Demo\Dual-core_Communication_Demo\MASTER\obj/../Libraries/wch_libraries/Peripheral/ch32v10x_tim.c:107
  tmpcr2 =  TIMx->CTLR2;
    189c:	fdc42783          	lw	a5,-36(s0)
    18a0:	0047d783          	lhu	a5,4(a5)
    18a4:	fef41623          	sh	a5,-20(s0)
C:\Users\windows\Desktop\A_Dual\A_Dual1\Dual-core_Communication_Demo\Dual-core_Communication_Demo\MASTER\obj/../Libraries/wch_libraries/Peripheral/ch32v10x_tim.c:108
  tmpccmrx = TIMx->CHCTLR1;
    18a8:	fdc42783          	lw	a5,-36(s0)
    18ac:	0187d783          	lhu	a5,24(a5)
    18b0:	fef41523          	sh	a5,-22(s0)
C:\Users\windows\Desktop\A_Dual\A_Dual1\Dual-core_Communication_Demo\Dual-core_Communication_Demo\MASTER\obj/../Libraries/wch_libraries/Peripheral/ch32v10x_tim.c:109
  tmpccmrx &= (uint16_t)(~((uint16_t)TIM_OC1M));
    18b4:	fea45783          	lhu	a5,-22(s0)
    18b8:	f8f7f793          	andi	a5,a5,-113
    18bc:	fef41523          	sh	a5,-22(s0)
C:\Users\windows\Desktop\A_Dual\A_Dual1\Dual-core_Communication_Demo\Dual-core_Communication_Demo\MASTER\obj/../Libraries/wch_libraries/Peripheral/ch32v10x_tim.c:110
  tmpccmrx &= (uint16_t)(~((uint16_t)TIM_CC1S));
    18c0:	fea45783          	lhu	a5,-22(s0)
    18c4:	9bf1                	andi	a5,a5,-4
    18c6:	fef41523          	sh	a5,-22(s0)
C:\Users\windows\Desktop\A_Dual\A_Dual1\Dual-core_Communication_Demo\Dual-core_Communication_Demo\MASTER\obj/../Libraries/wch_libraries/Peripheral/ch32v10x_tim.c:111
  tmpccmrx |= TIM_OCInitStruct->TIM_OCMode;
    18ca:	fd842783          	lw	a5,-40(s0)
    18ce:	0007d703          	lhu	a4,0(a5)
    18d2:	fea45783          	lhu	a5,-22(s0)
    18d6:	8fd9                	or	a5,a5,a4
    18d8:	fef41523          	sh	a5,-22(s0)
C:\Users\windows\Desktop\A_Dual\A_Dual1\Dual-core_Communication_Demo\Dual-core_Communication_Demo\MASTER\obj/../Libraries/wch_libraries/Peripheral/ch32v10x_tim.c:112
  tmpccer &= (uint16_t)(~((uint16_t)TIM_CC1P));
    18dc:	fee45783          	lhu	a5,-18(s0)
    18e0:	9bf5                	andi	a5,a5,-3
    18e2:	fef41723          	sh	a5,-18(s0)
C:\Users\windows\Desktop\A_Dual\A_Dual1\Dual-core_Communication_Demo\Dual-core_Communication_Demo\MASTER\obj/../Libraries/wch_libraries/Peripheral/ch32v10x_tim.c:113
  tmpccer |= TIM_OCInitStruct->TIM_OCPolarity;
    18e6:	fd842783          	lw	a5,-40(s0)
    18ea:	0087d703          	lhu	a4,8(a5)
    18ee:	fee45783          	lhu	a5,-18(s0)
    18f2:	8fd9                	or	a5,a5,a4
    18f4:	fef41723          	sh	a5,-18(s0)
C:\Users\windows\Desktop\A_Dual\A_Dual1\Dual-core_Communication_Demo\Dual-core_Communication_Demo\MASTER\obj/../Libraries/wch_libraries/Peripheral/ch32v10x_tim.c:114
  tmpccer |= TIM_OCInitStruct->TIM_OutputState;
    18f8:	fd842783          	lw	a5,-40(s0)
    18fc:	0027d703          	lhu	a4,2(a5)
    1900:	fee45783          	lhu	a5,-18(s0)
    1904:	8fd9                	or	a5,a5,a4
    1906:	fef41723          	sh	a5,-18(s0)
C:\Users\windows\Desktop\A_Dual\A_Dual1\Dual-core_Communication_Demo\Dual-core_Communication_Demo\MASTER\obj/../Libraries/wch_libraries/Peripheral/ch32v10x_tim.c:116
    
  if(TIMx == TIM1)
    190a:	fdc42703          	lw	a4,-36(s0)
    190e:	400137b7          	lui	a5,0x40013
    1912:	c0078793          	addi	a5,a5,-1024 # 40012c00 <_eusrstack+0x2000dc00>
    1916:	06f71c63          	bne	a4,a5,198e <TIM_OC1Init+0x134>
C:\Users\windows\Desktop\A_Dual\A_Dual1\Dual-core_Communication_Demo\Dual-core_Communication_Demo\MASTER\obj/../Libraries/wch_libraries/Peripheral/ch32v10x_tim.c:118
  {
    tmpccer &= (uint16_t)(~((uint16_t)TIM_CC1NP));
    191a:	fee45783          	lhu	a5,-18(s0)
    191e:	9bdd                	andi	a5,a5,-9
    1920:	fef41723          	sh	a5,-18(s0)
C:\Users\windows\Desktop\A_Dual\A_Dual1\Dual-core_Communication_Demo\Dual-core_Communication_Demo\MASTER\obj/../Libraries/wch_libraries/Peripheral/ch32v10x_tim.c:119
    tmpccer |= TIM_OCInitStruct->TIM_OCNPolarity;
    1924:	fd842783          	lw	a5,-40(s0)
    1928:	00a7d703          	lhu	a4,10(a5)
    192c:	fee45783          	lhu	a5,-18(s0)
    1930:	8fd9                	or	a5,a5,a4
    1932:	fef41723          	sh	a5,-18(s0)
C:\Users\windows\Desktop\A_Dual\A_Dual1\Dual-core_Communication_Demo\Dual-core_Communication_Demo\MASTER\obj/../Libraries/wch_libraries/Peripheral/ch32v10x_tim.c:121
 
    tmpccer &= (uint16_t)(~((uint16_t)TIM_CC1NE));    
    1936:	fee45783          	lhu	a5,-18(s0)
    193a:	9bed                	andi	a5,a5,-5
    193c:	fef41723          	sh	a5,-18(s0)
C:\Users\windows\Desktop\A_Dual\A_Dual1\Dual-core_Communication_Demo\Dual-core_Communication_Demo\MASTER\obj/../Libraries/wch_libraries/Peripheral/ch32v10x_tim.c:122
    tmpccer |= TIM_OCInitStruct->TIM_OutputNState;
    1940:	fd842783          	lw	a5,-40(s0)
    1944:	0047d703          	lhu	a4,4(a5)
    1948:	fee45783          	lhu	a5,-18(s0)
    194c:	8fd9                	or	a5,a5,a4
    194e:	fef41723          	sh	a5,-18(s0)
C:\Users\windows\Desktop\A_Dual\A_Dual1\Dual-core_Communication_Demo\Dual-core_Communication_Demo\MASTER\obj/../Libraries/wch_libraries/Peripheral/ch32v10x_tim.c:124
    
    tmpcr2 &= (uint16_t)(~((uint16_t)TIM_OIS1));
    1952:	fec45783          	lhu	a5,-20(s0)
    1956:	eff7f793          	andi	a5,a5,-257
    195a:	fef41623          	sh	a5,-20(s0)
C:\Users\windows\Desktop\A_Dual\A_Dual1\Dual-core_Communication_Demo\Dual-core_Communication_Demo\MASTER\obj/../Libraries/wch_libraries/Peripheral/ch32v10x_tim.c:125
    tmpcr2 &= (uint16_t)(~((uint16_t)TIM_OIS1N));
    195e:	fec45783          	lhu	a5,-20(s0)
    1962:	dff7f793          	andi	a5,a5,-513
    1966:	fef41623          	sh	a5,-20(s0)
C:\Users\windows\Desktop\A_Dual\A_Dual1\Dual-core_Communication_Demo\Dual-core_Communication_Demo\MASTER\obj/../Libraries/wch_libraries/Peripheral/ch32v10x_tim.c:127
    
    tmpcr2 |= TIM_OCInitStruct->TIM_OCIdleState;
    196a:	fd842783          	lw	a5,-40(s0)
    196e:	00c7d703          	lhu	a4,12(a5)
    1972:	fec45783          	lhu	a5,-20(s0)
    1976:	8fd9                	or	a5,a5,a4
    1978:	fef41623          	sh	a5,-20(s0)
C:\Users\windows\Desktop\A_Dual\A_Dual1\Dual-core_Communication_Demo\Dual-core_Communication_Demo\MASTER\obj/../Libraries/wch_libraries/Peripheral/ch32v10x_tim.c:128
    tmpcr2 |= TIM_OCInitStruct->TIM_OCNIdleState;
    197c:	fd842783          	lw	a5,-40(s0)
    1980:	00e7d703          	lhu	a4,14(a5)
    1984:	fec45783          	lhu	a5,-20(s0)
    1988:	8fd9                	or	a5,a5,a4
    198a:	fef41623          	sh	a5,-20(s0)
C:\Users\windows\Desktop\A_Dual\A_Dual1\Dual-core_Communication_Demo\Dual-core_Communication_Demo\MASTER\obj/../Libraries/wch_libraries/Peripheral/ch32v10x_tim.c:131
  }

  TIMx->CTLR2 = tmpcr2;
    198e:	fdc42783          	lw	a5,-36(s0)
    1992:	fec45703          	lhu	a4,-20(s0)
    1996:	00e79223          	sh	a4,4(a5)
C:\Users\windows\Desktop\A_Dual\A_Dual1\Dual-core_Communication_Demo\Dual-core_Communication_Demo\MASTER\obj/../Libraries/wch_libraries/Peripheral/ch32v10x_tim.c:132
  TIMx->CHCTLR1 = tmpccmrx;
    199a:	fdc42783          	lw	a5,-36(s0)
    199e:	fea45703          	lhu	a4,-22(s0)
    19a2:	00e79c23          	sh	a4,24(a5)
C:\Users\windows\Desktop\A_Dual\A_Dual1\Dual-core_Communication_Demo\Dual-core_Communication_Demo\MASTER\obj/../Libraries/wch_libraries/Peripheral/ch32v10x_tim.c:133
  TIMx->CH1CVR = TIM_OCInitStruct->TIM_Pulse; 
    19a6:	fd842783          	lw	a5,-40(s0)
    19aa:	0067d703          	lhu	a4,6(a5)
    19ae:	fdc42783          	lw	a5,-36(s0)
    19b2:	02e79a23          	sh	a4,52(a5)
C:\Users\windows\Desktop\A_Dual\A_Dual1\Dual-core_Communication_Demo\Dual-core_Communication_Demo\MASTER\obj/../Libraries/wch_libraries/Peripheral/ch32v10x_tim.c:134
  TIMx->CCER = tmpccer;
    19b6:	fdc42783          	lw	a5,-36(s0)
    19ba:	fee45703          	lhu	a4,-18(s0)
    19be:	02e79023          	sh	a4,32(a5)
C:\Users\windows\Desktop\A_Dual\A_Dual1\Dual-core_Communication_Demo\Dual-core_Communication_Demo\MASTER\obj/../Libraries/wch_libraries/Peripheral/ch32v10x_tim.c:135
}
    19c2:	0001                	nop
    19c4:	5432                	lw	s0,44(sp)
    19c6:	6145                	addi	sp,sp,48
    19c8:	8082                	ret

000019ca <TIM_OC2Init>:
TIM_OC2Init():
C:\Users\windows\Desktop\A_Dual\A_Dual1\Dual-core_Communication_Demo\Dual-core_Communication_Demo\MASTER\obj/../Libraries/wch_libraries/Peripheral/ch32v10x_tim.c:146
* Input          : TIMx: where x can be 1 to 4 to select the TIM peripheral.
*                  TIM_OCInitStruct: pointer to a TIM_OCInitTypeDef structure.
* Return         : None
*******************************************************************************/
void TIM_OC2Init(TIM_TypeDef* TIMx, TIM_OCInitTypeDef* TIM_OCInitStruct)
{
    19ca:	7179                	addi	sp,sp,-48
    19cc:	d622                	sw	s0,44(sp)
    19ce:	1800                	addi	s0,sp,48
    19d0:	fca42e23          	sw	a0,-36(s0)
    19d4:	fcb42c23          	sw	a1,-40(s0)
C:\Users\windows\Desktop\A_Dual\A_Dual1\Dual-core_Communication_Demo\Dual-core_Communication_Demo\MASTER\obj/../Libraries/wch_libraries/Peripheral/ch32v10x_tim.c:147
  uint16_t tmpccmrx = 0, tmpccer = 0, tmpcr2 = 0;
    19d8:	fe041523          	sh	zero,-22(s0)
    19dc:	fe041723          	sh	zero,-18(s0)
    19e0:	fe041623          	sh	zero,-20(s0)
C:\Users\windows\Desktop\A_Dual\A_Dual1\Dual-core_Communication_Demo\Dual-core_Communication_Demo\MASTER\obj/../Libraries/wch_libraries/Peripheral/ch32v10x_tim.c:149
   
  TIMx->CCER &= (uint16_t)(~((uint16_t)TIM_CC2E)); 
    19e4:	fdc42783          	lw	a5,-36(s0)
    19e8:	0207d783          	lhu	a5,32(a5)
    19ec:	07c2                	slli	a5,a5,0x10
    19ee:	83c1                	srli	a5,a5,0x10
    19f0:	9bbd                	andi	a5,a5,-17
    19f2:	01079713          	slli	a4,a5,0x10
    19f6:	8341                	srli	a4,a4,0x10
    19f8:	fdc42783          	lw	a5,-36(s0)
    19fc:	02e79023          	sh	a4,32(a5)
C:\Users\windows\Desktop\A_Dual\A_Dual1\Dual-core_Communication_Demo\Dual-core_Communication_Demo\MASTER\obj/../Libraries/wch_libraries/Peripheral/ch32v10x_tim.c:150
  tmpccer = TIMx->CCER;
    1a00:	fdc42783          	lw	a5,-36(s0)
    1a04:	0207d783          	lhu	a5,32(a5)
    1a08:	fef41723          	sh	a5,-18(s0)
C:\Users\windows\Desktop\A_Dual\A_Dual1\Dual-core_Communication_Demo\Dual-core_Communication_Demo\MASTER\obj/../Libraries/wch_libraries/Peripheral/ch32v10x_tim.c:151
  tmpcr2 =  TIMx->CTLR2;
    1a0c:	fdc42783          	lw	a5,-36(s0)
    1a10:	0047d783          	lhu	a5,4(a5)
    1a14:	fef41623          	sh	a5,-20(s0)
C:\Users\windows\Desktop\A_Dual\A_Dual1\Dual-core_Communication_Demo\Dual-core_Communication_Demo\MASTER\obj/../Libraries/wch_libraries/Peripheral/ch32v10x_tim.c:152
  tmpccmrx = TIMx->CHCTLR1;
    1a18:	fdc42783          	lw	a5,-36(s0)
    1a1c:	0187d783          	lhu	a5,24(a5)
    1a20:	fef41523          	sh	a5,-22(s0)
C:\Users\windows\Desktop\A_Dual\A_Dual1\Dual-core_Communication_Demo\Dual-core_Communication_Demo\MASTER\obj/../Libraries/wch_libraries/Peripheral/ch32v10x_tim.c:153
  tmpccmrx &= (uint16_t)(~((uint16_t)TIM_OC2M));
    1a24:	fea45703          	lhu	a4,-22(s0)
    1a28:	77e5                	lui	a5,0xffff9
    1a2a:	17fd                	addi	a5,a5,-1
    1a2c:	8ff9                	and	a5,a5,a4
    1a2e:	fef41523          	sh	a5,-22(s0)
C:\Users\windows\Desktop\A_Dual\A_Dual1\Dual-core_Communication_Demo\Dual-core_Communication_Demo\MASTER\obj/../Libraries/wch_libraries/Peripheral/ch32v10x_tim.c:154
  tmpccmrx &= (uint16_t)(~((uint16_t)TIM_CC2S));
    1a32:	fea45783          	lhu	a5,-22(s0)
    1a36:	cff7f793          	andi	a5,a5,-769
    1a3a:	fef41523          	sh	a5,-22(s0)
C:\Users\windows\Desktop\A_Dual\A_Dual1\Dual-core_Communication_Demo\Dual-core_Communication_Demo\MASTER\obj/../Libraries/wch_libraries/Peripheral/ch32v10x_tim.c:155
  tmpccmrx |= (uint16_t)(TIM_OCInitStruct->TIM_OCMode << 8);
    1a3e:	fd842783          	lw	a5,-40(s0)
    1a42:	0007d783          	lhu	a5,0(a5) # ffff9000 <_eusrstack+0xdfff4000>
    1a46:	07a2                	slli	a5,a5,0x8
    1a48:	01079713          	slli	a4,a5,0x10
    1a4c:	8341                	srli	a4,a4,0x10
    1a4e:	fea45783          	lhu	a5,-22(s0)
    1a52:	8fd9                	or	a5,a5,a4
    1a54:	fef41523          	sh	a5,-22(s0)
C:\Users\windows\Desktop\A_Dual\A_Dual1\Dual-core_Communication_Demo\Dual-core_Communication_Demo\MASTER\obj/../Libraries/wch_libraries/Peripheral/ch32v10x_tim.c:156
  tmpccer &= (uint16_t)(~((uint16_t)TIM_CC2P));
    1a58:	fee45783          	lhu	a5,-18(s0)
    1a5c:	fdf7f793          	andi	a5,a5,-33
    1a60:	fef41723          	sh	a5,-18(s0)
C:\Users\windows\Desktop\A_Dual\A_Dual1\Dual-core_Communication_Demo\Dual-core_Communication_Demo\MASTER\obj/../Libraries/wch_libraries/Peripheral/ch32v10x_tim.c:157
  tmpccer |= (uint16_t)(TIM_OCInitStruct->TIM_OCPolarity << 4);
    1a64:	fd842783          	lw	a5,-40(s0)
    1a68:	0087d783          	lhu	a5,8(a5)
    1a6c:	0792                	slli	a5,a5,0x4
    1a6e:	01079713          	slli	a4,a5,0x10
    1a72:	8341                	srli	a4,a4,0x10
    1a74:	fee45783          	lhu	a5,-18(s0)
    1a78:	8fd9                	or	a5,a5,a4
    1a7a:	fef41723          	sh	a5,-18(s0)
C:\Users\windows\Desktop\A_Dual\A_Dual1\Dual-core_Communication_Demo\Dual-core_Communication_Demo\MASTER\obj/../Libraries/wch_libraries/Peripheral/ch32v10x_tim.c:158
  tmpccer |= (uint16_t)(TIM_OCInitStruct->TIM_OutputState << 4);
    1a7e:	fd842783          	lw	a5,-40(s0)
    1a82:	0027d783          	lhu	a5,2(a5)
    1a86:	0792                	slli	a5,a5,0x4
    1a88:	01079713          	slli	a4,a5,0x10
    1a8c:	8341                	srli	a4,a4,0x10
    1a8e:	fee45783          	lhu	a5,-18(s0)
    1a92:	8fd9                	or	a5,a5,a4
    1a94:	fef41723          	sh	a5,-18(s0)
C:\Users\windows\Desktop\A_Dual\A_Dual1\Dual-core_Communication_Demo\Dual-core_Communication_Demo\MASTER\obj/../Libraries/wch_libraries/Peripheral/ch32v10x_tim.c:160
    
  if(TIMx == TIM1)
    1a98:	fdc42703          	lw	a4,-36(s0)
    1a9c:	400137b7          	lui	a5,0x40013
    1aa0:	c0078793          	addi	a5,a5,-1024 # 40012c00 <_eusrstack+0x2000dc00>
    1aa4:	0af71063          	bne	a4,a5,1b44 <TIM_OC2Init+0x17a>
C:\Users\windows\Desktop\A_Dual\A_Dual1\Dual-core_Communication_Demo\Dual-core_Communication_Demo\MASTER\obj/../Libraries/wch_libraries/Peripheral/ch32v10x_tim.c:162
  {
    tmpccer &= (uint16_t)(~((uint16_t)TIM_CC2NP));
    1aa8:	fee45783          	lhu	a5,-18(s0)
    1aac:	f7f7f793          	andi	a5,a5,-129
    1ab0:	fef41723          	sh	a5,-18(s0)
C:\Users\windows\Desktop\A_Dual\A_Dual1\Dual-core_Communication_Demo\Dual-core_Communication_Demo\MASTER\obj/../Libraries/wch_libraries/Peripheral/ch32v10x_tim.c:163
    tmpccer |= (uint16_t)(TIM_OCInitStruct->TIM_OCNPolarity << 4);
    1ab4:	fd842783          	lw	a5,-40(s0)
    1ab8:	00a7d783          	lhu	a5,10(a5)
    1abc:	0792                	slli	a5,a5,0x4
    1abe:	01079713          	slli	a4,a5,0x10
    1ac2:	8341                	srli	a4,a4,0x10
    1ac4:	fee45783          	lhu	a5,-18(s0)
    1ac8:	8fd9                	or	a5,a5,a4
    1aca:	fef41723          	sh	a5,-18(s0)
C:\Users\windows\Desktop\A_Dual\A_Dual1\Dual-core_Communication_Demo\Dual-core_Communication_Demo\MASTER\obj/../Libraries/wch_libraries/Peripheral/ch32v10x_tim.c:164
    tmpccer &= (uint16_t)(~((uint16_t)TIM_CC2NE));    
    1ace:	fee45783          	lhu	a5,-18(s0)
    1ad2:	fbf7f793          	andi	a5,a5,-65
    1ad6:	fef41723          	sh	a5,-18(s0)
C:\Users\windows\Desktop\A_Dual\A_Dual1\Dual-core_Communication_Demo\Dual-core_Communication_Demo\MASTER\obj/../Libraries/wch_libraries/Peripheral/ch32v10x_tim.c:165
    tmpccer |= (uint16_t)(TIM_OCInitStruct->TIM_OutputNState << 4);
    1ada:	fd842783          	lw	a5,-40(s0)
    1ade:	0047d783          	lhu	a5,4(a5)
    1ae2:	0792                	slli	a5,a5,0x4
    1ae4:	01079713          	slli	a4,a5,0x10
    1ae8:	8341                	srli	a4,a4,0x10
    1aea:	fee45783          	lhu	a5,-18(s0)
    1aee:	8fd9                	or	a5,a5,a4
    1af0:	fef41723          	sh	a5,-18(s0)
C:\Users\windows\Desktop\A_Dual\A_Dual1\Dual-core_Communication_Demo\Dual-core_Communication_Demo\MASTER\obj/../Libraries/wch_libraries/Peripheral/ch32v10x_tim.c:167
    
    tmpcr2 &= (uint16_t)(~((uint16_t)TIM_OIS2));
    1af4:	fec45783          	lhu	a5,-20(s0)
    1af8:	bff7f793          	andi	a5,a5,-1025
    1afc:	fef41623          	sh	a5,-20(s0)
C:\Users\windows\Desktop\A_Dual\A_Dual1\Dual-core_Communication_Demo\Dual-core_Communication_Demo\MASTER\obj/../Libraries/wch_libraries/Peripheral/ch32v10x_tim.c:168
    tmpcr2 &= (uint16_t)(~((uint16_t)TIM_OIS2N));
    1b00:	fec45703          	lhu	a4,-20(s0)
    1b04:	77fd                	lui	a5,0xfffff
    1b06:	7ff78793          	addi	a5,a5,2047 # fffff7ff <_eusrstack+0xdfffa7ff>
    1b0a:	8ff9                	and	a5,a5,a4
    1b0c:	fef41623          	sh	a5,-20(s0)
C:\Users\windows\Desktop\A_Dual\A_Dual1\Dual-core_Communication_Demo\Dual-core_Communication_Demo\MASTER\obj/../Libraries/wch_libraries/Peripheral/ch32v10x_tim.c:169
    tmpcr2 |= (uint16_t)(TIM_OCInitStruct->TIM_OCIdleState << 2);
    1b10:	fd842783          	lw	a5,-40(s0)
    1b14:	00c7d783          	lhu	a5,12(a5)
    1b18:	078a                	slli	a5,a5,0x2
    1b1a:	01079713          	slli	a4,a5,0x10
    1b1e:	8341                	srli	a4,a4,0x10
    1b20:	fec45783          	lhu	a5,-20(s0)
    1b24:	8fd9                	or	a5,a5,a4
    1b26:	fef41623          	sh	a5,-20(s0)
C:\Users\windows\Desktop\A_Dual\A_Dual1\Dual-core_Communication_Demo\Dual-core_Communication_Demo\MASTER\obj/../Libraries/wch_libraries/Peripheral/ch32v10x_tim.c:170
    tmpcr2 |= (uint16_t)(TIM_OCInitStruct->TIM_OCNIdleState << 2);
    1b2a:	fd842783          	lw	a5,-40(s0)
    1b2e:	00e7d783          	lhu	a5,14(a5)
    1b32:	078a                	slli	a5,a5,0x2
    1b34:	01079713          	slli	a4,a5,0x10
    1b38:	8341                	srli	a4,a4,0x10
    1b3a:	fec45783          	lhu	a5,-20(s0)
    1b3e:	8fd9                	or	a5,a5,a4
    1b40:	fef41623          	sh	a5,-20(s0)
C:\Users\windows\Desktop\A_Dual\A_Dual1\Dual-core_Communication_Demo\Dual-core_Communication_Demo\MASTER\obj/../Libraries/wch_libraries/Peripheral/ch32v10x_tim.c:173
  }

  TIMx->CTLR2 = tmpcr2;
    1b44:	fdc42783          	lw	a5,-36(s0)
    1b48:	fec45703          	lhu	a4,-20(s0)
    1b4c:	00e79223          	sh	a4,4(a5)
C:\Users\windows\Desktop\A_Dual\A_Dual1\Dual-core_Communication_Demo\Dual-core_Communication_Demo\MASTER\obj/../Libraries/wch_libraries/Peripheral/ch32v10x_tim.c:174
  TIMx->CHCTLR1 = tmpccmrx;
    1b50:	fdc42783          	lw	a5,-36(s0)
    1b54:	fea45703          	lhu	a4,-22(s0)
    1b58:	00e79c23          	sh	a4,24(a5)
C:\Users\windows\Desktop\A_Dual\A_Dual1\Dual-core_Communication_Demo\Dual-core_Communication_Demo\MASTER\obj/../Libraries/wch_libraries/Peripheral/ch32v10x_tim.c:175
  TIMx->CH2CVR = TIM_OCInitStruct->TIM_Pulse;
    1b5c:	fd842783          	lw	a5,-40(s0)
    1b60:	0067d703          	lhu	a4,6(a5)
    1b64:	fdc42783          	lw	a5,-36(s0)
    1b68:	02e79c23          	sh	a4,56(a5)
C:\Users\windows\Desktop\A_Dual\A_Dual1\Dual-core_Communication_Demo\Dual-core_Communication_Demo\MASTER\obj/../Libraries/wch_libraries/Peripheral/ch32v10x_tim.c:176
  TIMx->CCER = tmpccer;
    1b6c:	fdc42783          	lw	a5,-36(s0)
    1b70:	fee45703          	lhu	a4,-18(s0)
    1b74:	02e79023          	sh	a4,32(a5)
C:\Users\windows\Desktop\A_Dual\A_Dual1\Dual-core_Communication_Demo\Dual-core_Communication_Demo\MASTER\obj/../Libraries/wch_libraries/Peripheral/ch32v10x_tim.c:177
}
    1b78:	0001                	nop
    1b7a:	5432                	lw	s0,44(sp)
    1b7c:	6145                	addi	sp,sp,48
    1b7e:	8082                	ret

00001b80 <TIM_OC3Init>:
TIM_OC3Init():
C:\Users\windows\Desktop\A_Dual\A_Dual1\Dual-core_Communication_Demo\Dual-core_Communication_Demo\MASTER\obj/../Libraries/wch_libraries/Peripheral/ch32v10x_tim.c:188
* Input          : TIMx: where x can be 1 to 4 to select the TIM peripheral.
*                  TIM_OCInitStruct: pointer to a TIM_OCInitTypeDef structure.
* Return         : None
*******************************************************************************/
void TIM_OC3Init(TIM_TypeDef* TIMx, TIM_OCInitTypeDef* TIM_OCInitStruct)
{
    1b80:	7179                	addi	sp,sp,-48
    1b82:	d622                	sw	s0,44(sp)
    1b84:	1800                	addi	s0,sp,48
    1b86:	fca42e23          	sw	a0,-36(s0)
    1b8a:	fcb42c23          	sw	a1,-40(s0)
C:\Users\windows\Desktop\A_Dual\A_Dual1\Dual-core_Communication_Demo\Dual-core_Communication_Demo\MASTER\obj/../Libraries/wch_libraries/Peripheral/ch32v10x_tim.c:189
  uint16_t tmpccmrx = 0, tmpccer = 0, tmpcr2 = 0;
    1b8e:	fe041523          	sh	zero,-22(s0)
    1b92:	fe041723          	sh	zero,-18(s0)
    1b96:	fe041623          	sh	zero,-20(s0)
C:\Users\windows\Desktop\A_Dual\A_Dual1\Dual-core_Communication_Demo\Dual-core_Communication_Demo\MASTER\obj/../Libraries/wch_libraries/Peripheral/ch32v10x_tim.c:191
   
  TIMx->CCER &= (uint16_t)(~((uint16_t)TIM_CC3E));
    1b9a:	fdc42783          	lw	a5,-36(s0)
    1b9e:	0207d783          	lhu	a5,32(a5)
    1ba2:	07c2                	slli	a5,a5,0x10
    1ba4:	83c1                	srli	a5,a5,0x10
    1ba6:	eff7f793          	andi	a5,a5,-257
    1baa:	01079713          	slli	a4,a5,0x10
    1bae:	8341                	srli	a4,a4,0x10
    1bb0:	fdc42783          	lw	a5,-36(s0)
    1bb4:	02e79023          	sh	a4,32(a5)
C:\Users\windows\Desktop\A_Dual\A_Dual1\Dual-core_Communication_Demo\Dual-core_Communication_Demo\MASTER\obj/../Libraries/wch_libraries/Peripheral/ch32v10x_tim.c:192
  tmpccer = TIMx->CCER;
    1bb8:	fdc42783          	lw	a5,-36(s0)
    1bbc:	0207d783          	lhu	a5,32(a5)
    1bc0:	fef41723          	sh	a5,-18(s0)
C:\Users\windows\Desktop\A_Dual\A_Dual1\Dual-core_Communication_Demo\Dual-core_Communication_Demo\MASTER\obj/../Libraries/wch_libraries/Peripheral/ch32v10x_tim.c:193
  tmpcr2 =  TIMx->CTLR2;
    1bc4:	fdc42783          	lw	a5,-36(s0)
    1bc8:	0047d783          	lhu	a5,4(a5)
    1bcc:	fef41623          	sh	a5,-20(s0)
C:\Users\windows\Desktop\A_Dual\A_Dual1\Dual-core_Communication_Demo\Dual-core_Communication_Demo\MASTER\obj/../Libraries/wch_libraries/Peripheral/ch32v10x_tim.c:194
  tmpccmrx = TIMx->CHCTLR2;
    1bd0:	fdc42783          	lw	a5,-36(s0)
    1bd4:	01c7d783          	lhu	a5,28(a5)
    1bd8:	fef41523          	sh	a5,-22(s0)
C:\Users\windows\Desktop\A_Dual\A_Dual1\Dual-core_Communication_Demo\Dual-core_Communication_Demo\MASTER\obj/../Libraries/wch_libraries/Peripheral/ch32v10x_tim.c:195
  tmpccmrx &= (uint16_t)(~((uint16_t)TIM_OC3M));
    1bdc:	fea45783          	lhu	a5,-22(s0)
    1be0:	f8f7f793          	andi	a5,a5,-113
    1be4:	fef41523          	sh	a5,-22(s0)
C:\Users\windows\Desktop\A_Dual\A_Dual1\Dual-core_Communication_Demo\Dual-core_Communication_Demo\MASTER\obj/../Libraries/wch_libraries/Peripheral/ch32v10x_tim.c:196
  tmpccmrx &= (uint16_t)(~((uint16_t)TIM_CC3S));  
    1be8:	fea45783          	lhu	a5,-22(s0)
    1bec:	9bf1                	andi	a5,a5,-4
    1bee:	fef41523          	sh	a5,-22(s0)
C:\Users\windows\Desktop\A_Dual\A_Dual1\Dual-core_Communication_Demo\Dual-core_Communication_Demo\MASTER\obj/../Libraries/wch_libraries/Peripheral/ch32v10x_tim.c:197
  tmpccmrx |= TIM_OCInitStruct->TIM_OCMode;
    1bf2:	fd842783          	lw	a5,-40(s0)
    1bf6:	0007d703          	lhu	a4,0(a5)
    1bfa:	fea45783          	lhu	a5,-22(s0)
    1bfe:	8fd9                	or	a5,a5,a4
    1c00:	fef41523          	sh	a5,-22(s0)
C:\Users\windows\Desktop\A_Dual\A_Dual1\Dual-core_Communication_Demo\Dual-core_Communication_Demo\MASTER\obj/../Libraries/wch_libraries/Peripheral/ch32v10x_tim.c:198
  tmpccer &= (uint16_t)(~((uint16_t)TIM_CC3P));
    1c04:	fee45783          	lhu	a5,-18(s0)
    1c08:	dff7f793          	andi	a5,a5,-513
    1c0c:	fef41723          	sh	a5,-18(s0)
C:\Users\windows\Desktop\A_Dual\A_Dual1\Dual-core_Communication_Demo\Dual-core_Communication_Demo\MASTER\obj/../Libraries/wch_libraries/Peripheral/ch32v10x_tim.c:199
  tmpccer |= (uint16_t)(TIM_OCInitStruct->TIM_OCPolarity << 8);
    1c10:	fd842783          	lw	a5,-40(s0)
    1c14:	0087d783          	lhu	a5,8(a5)
    1c18:	07a2                	slli	a5,a5,0x8
    1c1a:	01079713          	slli	a4,a5,0x10
    1c1e:	8341                	srli	a4,a4,0x10
    1c20:	fee45783          	lhu	a5,-18(s0)
    1c24:	8fd9                	or	a5,a5,a4
    1c26:	fef41723          	sh	a5,-18(s0)
C:\Users\windows\Desktop\A_Dual\A_Dual1\Dual-core_Communication_Demo\Dual-core_Communication_Demo\MASTER\obj/../Libraries/wch_libraries/Peripheral/ch32v10x_tim.c:200
  tmpccer |= (uint16_t)(TIM_OCInitStruct->TIM_OutputState << 8);
    1c2a:	fd842783          	lw	a5,-40(s0)
    1c2e:	0027d783          	lhu	a5,2(a5)
    1c32:	07a2                	slli	a5,a5,0x8
    1c34:	01079713          	slli	a4,a5,0x10
    1c38:	8341                	srli	a4,a4,0x10
    1c3a:	fee45783          	lhu	a5,-18(s0)
    1c3e:	8fd9                	or	a5,a5,a4
    1c40:	fef41723          	sh	a5,-18(s0)
C:\Users\windows\Desktop\A_Dual\A_Dual1\Dual-core_Communication_Demo\Dual-core_Communication_Demo\MASTER\obj/../Libraries/wch_libraries/Peripheral/ch32v10x_tim.c:202
    
  if(TIMx == TIM1)
    1c44:	fdc42703          	lw	a4,-36(s0)
    1c48:	400137b7          	lui	a5,0x40013
    1c4c:	c0078793          	addi	a5,a5,-1024 # 40012c00 <_eusrstack+0x2000dc00>
    1c50:	0af71263          	bne	a4,a5,1cf4 <TIM_OC3Init+0x174>
C:\Users\windows\Desktop\A_Dual\A_Dual1\Dual-core_Communication_Demo\Dual-core_Communication_Demo\MASTER\obj/../Libraries/wch_libraries/Peripheral/ch32v10x_tim.c:204
  {
    tmpccer &= (uint16_t)(~((uint16_t)TIM_CC3NP));
    1c54:	fee45703          	lhu	a4,-18(s0)
    1c58:	77fd                	lui	a5,0xfffff
    1c5a:	7ff78793          	addi	a5,a5,2047 # fffff7ff <_eusrstack+0xdfffa7ff>
    1c5e:	8ff9                	and	a5,a5,a4
    1c60:	fef41723          	sh	a5,-18(s0)
C:\Users\windows\Desktop\A_Dual\A_Dual1\Dual-core_Communication_Demo\Dual-core_Communication_Demo\MASTER\obj/../Libraries/wch_libraries/Peripheral/ch32v10x_tim.c:205
    tmpccer |= (uint16_t)(TIM_OCInitStruct->TIM_OCNPolarity << 8);
    1c64:	fd842783          	lw	a5,-40(s0)
    1c68:	00a7d783          	lhu	a5,10(a5)
    1c6c:	07a2                	slli	a5,a5,0x8
    1c6e:	01079713          	slli	a4,a5,0x10
    1c72:	8341                	srli	a4,a4,0x10
    1c74:	fee45783          	lhu	a5,-18(s0)
    1c78:	8fd9                	or	a5,a5,a4
    1c7a:	fef41723          	sh	a5,-18(s0)
C:\Users\windows\Desktop\A_Dual\A_Dual1\Dual-core_Communication_Demo\Dual-core_Communication_Demo\MASTER\obj/../Libraries/wch_libraries/Peripheral/ch32v10x_tim.c:206
    tmpccer &= (uint16_t)(~((uint16_t)TIM_CC3NE));
    1c7e:	fee45783          	lhu	a5,-18(s0)
    1c82:	bff7f793          	andi	a5,a5,-1025
    1c86:	fef41723          	sh	a5,-18(s0)
C:\Users\windows\Desktop\A_Dual\A_Dual1\Dual-core_Communication_Demo\Dual-core_Communication_Demo\MASTER\obj/../Libraries/wch_libraries/Peripheral/ch32v10x_tim.c:207
    tmpccer |= (uint16_t)(TIM_OCInitStruct->TIM_OutputNState << 8);
    1c8a:	fd842783          	lw	a5,-40(s0)
    1c8e:	0047d783          	lhu	a5,4(a5)
    1c92:	07a2                	slli	a5,a5,0x8
    1c94:	01079713          	slli	a4,a5,0x10
    1c98:	8341                	srli	a4,a4,0x10
    1c9a:	fee45783          	lhu	a5,-18(s0)
    1c9e:	8fd9                	or	a5,a5,a4
    1ca0:	fef41723          	sh	a5,-18(s0)
C:\Users\windows\Desktop\A_Dual\A_Dual1\Dual-core_Communication_Demo\Dual-core_Communication_Demo\MASTER\obj/../Libraries/wch_libraries/Peripheral/ch32v10x_tim.c:208
    tmpcr2 &= (uint16_t)(~((uint16_t)TIM_OIS3));
    1ca4:	fec45703          	lhu	a4,-20(s0)
    1ca8:	77fd                	lui	a5,0xfffff
    1caa:	17fd                	addi	a5,a5,-1
    1cac:	8ff9                	and	a5,a5,a4
    1cae:	fef41623          	sh	a5,-20(s0)
C:\Users\windows\Desktop\A_Dual\A_Dual1\Dual-core_Communication_Demo\Dual-core_Communication_Demo\MASTER\obj/../Libraries/wch_libraries/Peripheral/ch32v10x_tim.c:209
    tmpcr2 &= (uint16_t)(~((uint16_t)TIM_OIS3N));
    1cb2:	fec45703          	lhu	a4,-20(s0)
    1cb6:	77f9                	lui	a5,0xffffe
    1cb8:	17fd                	addi	a5,a5,-1
    1cba:	8ff9                	and	a5,a5,a4
    1cbc:	fef41623          	sh	a5,-20(s0)
C:\Users\windows\Desktop\A_Dual\A_Dual1\Dual-core_Communication_Demo\Dual-core_Communication_Demo\MASTER\obj/../Libraries/wch_libraries/Peripheral/ch32v10x_tim.c:210
    tmpcr2 |= (uint16_t)(TIM_OCInitStruct->TIM_OCIdleState << 4);
    1cc0:	fd842783          	lw	a5,-40(s0)
    1cc4:	00c7d783          	lhu	a5,12(a5) # ffffe00c <_eusrstack+0xdfff900c>
    1cc8:	0792                	slli	a5,a5,0x4
    1cca:	01079713          	slli	a4,a5,0x10
    1cce:	8341                	srli	a4,a4,0x10
    1cd0:	fec45783          	lhu	a5,-20(s0)
    1cd4:	8fd9                	or	a5,a5,a4
    1cd6:	fef41623          	sh	a5,-20(s0)
C:\Users\windows\Desktop\A_Dual\A_Dual1\Dual-core_Communication_Demo\Dual-core_Communication_Demo\MASTER\obj/../Libraries/wch_libraries/Peripheral/ch32v10x_tim.c:211
    tmpcr2 |= (uint16_t)(TIM_OCInitStruct->TIM_OCNIdleState << 4);
    1cda:	fd842783          	lw	a5,-40(s0)
    1cde:	00e7d783          	lhu	a5,14(a5)
    1ce2:	0792                	slli	a5,a5,0x4
    1ce4:	01079713          	slli	a4,a5,0x10
    1ce8:	8341                	srli	a4,a4,0x10
    1cea:	fec45783          	lhu	a5,-20(s0)
    1cee:	8fd9                	or	a5,a5,a4
    1cf0:	fef41623          	sh	a5,-20(s0)
C:\Users\windows\Desktop\A_Dual\A_Dual1\Dual-core_Communication_Demo\Dual-core_Communication_Demo\MASTER\obj/../Libraries/wch_libraries/Peripheral/ch32v10x_tim.c:214
  }

  TIMx->CTLR2 = tmpcr2;
    1cf4:	fdc42783          	lw	a5,-36(s0)
    1cf8:	fec45703          	lhu	a4,-20(s0)
    1cfc:	00e79223          	sh	a4,4(a5)
C:\Users\windows\Desktop\A_Dual\A_Dual1\Dual-core_Communication_Demo\Dual-core_Communication_Demo\MASTER\obj/../Libraries/wch_libraries/Peripheral/ch32v10x_tim.c:215
  TIMx->CHCTLR2 = tmpccmrx;
    1d00:	fdc42783          	lw	a5,-36(s0)
    1d04:	fea45703          	lhu	a4,-22(s0)
    1d08:	00e79e23          	sh	a4,28(a5)
C:\Users\windows\Desktop\A_Dual\A_Dual1\Dual-core_Communication_Demo\Dual-core_Communication_Demo\MASTER\obj/../Libraries/wch_libraries/Peripheral/ch32v10x_tim.c:216
  TIMx->CH3CVR = TIM_OCInitStruct->TIM_Pulse;
    1d0c:	fd842783          	lw	a5,-40(s0)
    1d10:	0067d703          	lhu	a4,6(a5)
    1d14:	fdc42783          	lw	a5,-36(s0)
    1d18:	02e79e23          	sh	a4,60(a5)
C:\Users\windows\Desktop\A_Dual\A_Dual1\Dual-core_Communication_Demo\Dual-core_Communication_Demo\MASTER\obj/../Libraries/wch_libraries/Peripheral/ch32v10x_tim.c:217
  TIMx->CCER = tmpccer;
    1d1c:	fdc42783          	lw	a5,-36(s0)
    1d20:	fee45703          	lhu	a4,-18(s0)
    1d24:	02e79023          	sh	a4,32(a5)
C:\Users\windows\Desktop\A_Dual\A_Dual1\Dual-core_Communication_Demo\Dual-core_Communication_Demo\MASTER\obj/../Libraries/wch_libraries/Peripheral/ch32v10x_tim.c:218
}
    1d28:	0001                	nop
    1d2a:	5432                	lw	s0,44(sp)
    1d2c:	6145                	addi	sp,sp,48
    1d2e:	8082                	ret

00001d30 <TIM_OC4Init>:
TIM_OC4Init():
C:\Users\windows\Desktop\A_Dual\A_Dual1\Dual-core_Communication_Demo\Dual-core_Communication_Demo\MASTER\obj/../Libraries/wch_libraries/Peripheral/ch32v10x_tim.c:229
* Input          : TIMx: where x can be 1 to 4 to select the TIM peripheral.
*                  TIM_OCInitStruct: pointer to a TIM_OCInitTypeDef structure.
* Return         : None
*******************************************************************************/
void TIM_OC4Init(TIM_TypeDef* TIMx, TIM_OCInitTypeDef* TIM_OCInitStruct)
{
    1d30:	7179                	addi	sp,sp,-48
    1d32:	d622                	sw	s0,44(sp)
    1d34:	1800                	addi	s0,sp,48
    1d36:	fca42e23          	sw	a0,-36(s0)
    1d3a:	fcb42c23          	sw	a1,-40(s0)
C:\Users\windows\Desktop\A_Dual\A_Dual1\Dual-core_Communication_Demo\Dual-core_Communication_Demo\MASTER\obj/../Libraries/wch_libraries/Peripheral/ch32v10x_tim.c:230
  uint16_t tmpccmrx = 0, tmpccer = 0, tmpcr2 = 0;
    1d3e:	fe041623          	sh	zero,-20(s0)
    1d42:	fe041523          	sh	zero,-22(s0)
    1d46:	fe041723          	sh	zero,-18(s0)
C:\Users\windows\Desktop\A_Dual\A_Dual1\Dual-core_Communication_Demo\Dual-core_Communication_Demo\MASTER\obj/../Libraries/wch_libraries/Peripheral/ch32v10x_tim.c:232

  TIMx->CCER &= (uint16_t)(~((uint16_t)TIM_CC4E));
    1d4a:	fdc42783          	lw	a5,-36(s0)
    1d4e:	0207d783          	lhu	a5,32(a5)
    1d52:	01079713          	slli	a4,a5,0x10
    1d56:	8341                	srli	a4,a4,0x10
    1d58:	77fd                	lui	a5,0xfffff
    1d5a:	17fd                	addi	a5,a5,-1
    1d5c:	8ff9                	and	a5,a5,a4
    1d5e:	01079713          	slli	a4,a5,0x10
    1d62:	8341                	srli	a4,a4,0x10
    1d64:	fdc42783          	lw	a5,-36(s0)
    1d68:	02e79023          	sh	a4,32(a5) # fffff020 <_eusrstack+0xdfffa020>
C:\Users\windows\Desktop\A_Dual\A_Dual1\Dual-core_Communication_Demo\Dual-core_Communication_Demo\MASTER\obj/../Libraries/wch_libraries/Peripheral/ch32v10x_tim.c:233
  tmpccer = TIMx->CCER;
    1d6c:	fdc42783          	lw	a5,-36(s0)
    1d70:	0207d783          	lhu	a5,32(a5)
    1d74:	fef41523          	sh	a5,-22(s0)
C:\Users\windows\Desktop\A_Dual\A_Dual1\Dual-core_Communication_Demo\Dual-core_Communication_Demo\MASTER\obj/../Libraries/wch_libraries/Peripheral/ch32v10x_tim.c:234
  tmpcr2 =  TIMx->CTLR2;
    1d78:	fdc42783          	lw	a5,-36(s0)
    1d7c:	0047d783          	lhu	a5,4(a5)
    1d80:	fef41723          	sh	a5,-18(s0)
C:\Users\windows\Desktop\A_Dual\A_Dual1\Dual-core_Communication_Demo\Dual-core_Communication_Demo\MASTER\obj/../Libraries/wch_libraries/Peripheral/ch32v10x_tim.c:235
  tmpccmrx = TIMx->CHCTLR2;
    1d84:	fdc42783          	lw	a5,-36(s0)
    1d88:	01c7d783          	lhu	a5,28(a5)
    1d8c:	fef41623          	sh	a5,-20(s0)
C:\Users\windows\Desktop\A_Dual\A_Dual1\Dual-core_Communication_Demo\Dual-core_Communication_Demo\MASTER\obj/../Libraries/wch_libraries/Peripheral/ch32v10x_tim.c:236
  tmpccmrx &= (uint16_t)(~((uint16_t)TIM_OC4M));
    1d90:	fec45703          	lhu	a4,-20(s0)
    1d94:	77e5                	lui	a5,0xffff9
    1d96:	17fd                	addi	a5,a5,-1
    1d98:	8ff9                	and	a5,a5,a4
    1d9a:	fef41623          	sh	a5,-20(s0)
C:\Users\windows\Desktop\A_Dual\A_Dual1\Dual-core_Communication_Demo\Dual-core_Communication_Demo\MASTER\obj/../Libraries/wch_libraries/Peripheral/ch32v10x_tim.c:237
  tmpccmrx &= (uint16_t)(~((uint16_t)TIM_CC4S));
    1d9e:	fec45783          	lhu	a5,-20(s0)
    1da2:	cff7f793          	andi	a5,a5,-769
    1da6:	fef41623          	sh	a5,-20(s0)
C:\Users\windows\Desktop\A_Dual\A_Dual1\Dual-core_Communication_Demo\Dual-core_Communication_Demo\MASTER\obj/../Libraries/wch_libraries/Peripheral/ch32v10x_tim.c:238
  tmpccmrx |= (uint16_t)(TIM_OCInitStruct->TIM_OCMode << 8);
    1daa:	fd842783          	lw	a5,-40(s0)
    1dae:	0007d783          	lhu	a5,0(a5) # ffff9000 <_eusrstack+0xdfff4000>
    1db2:	07a2                	slli	a5,a5,0x8
    1db4:	01079713          	slli	a4,a5,0x10
    1db8:	8341                	srli	a4,a4,0x10
    1dba:	fec45783          	lhu	a5,-20(s0)
    1dbe:	8fd9                	or	a5,a5,a4
    1dc0:	fef41623          	sh	a5,-20(s0)
C:\Users\windows\Desktop\A_Dual\A_Dual1\Dual-core_Communication_Demo\Dual-core_Communication_Demo\MASTER\obj/../Libraries/wch_libraries/Peripheral/ch32v10x_tim.c:239
  tmpccer &= (uint16_t)(~((uint16_t)TIM_CC4P));
    1dc4:	fea45703          	lhu	a4,-22(s0)
    1dc8:	77f9                	lui	a5,0xffffe
    1dca:	17fd                	addi	a5,a5,-1
    1dcc:	8ff9                	and	a5,a5,a4
    1dce:	fef41523          	sh	a5,-22(s0)
C:\Users\windows\Desktop\A_Dual\A_Dual1\Dual-core_Communication_Demo\Dual-core_Communication_Demo\MASTER\obj/../Libraries/wch_libraries/Peripheral/ch32v10x_tim.c:240
  tmpccer |= (uint16_t)(TIM_OCInitStruct->TIM_OCPolarity << 12);
    1dd2:	fd842783          	lw	a5,-40(s0)
    1dd6:	0087d783          	lhu	a5,8(a5) # ffffe008 <_eusrstack+0xdfff9008>
    1dda:	07b2                	slli	a5,a5,0xc
    1ddc:	01079713          	slli	a4,a5,0x10
    1de0:	8341                	srli	a4,a4,0x10
    1de2:	fea45783          	lhu	a5,-22(s0)
    1de6:	8fd9                	or	a5,a5,a4
    1de8:	fef41523          	sh	a5,-22(s0)
C:\Users\windows\Desktop\A_Dual\A_Dual1\Dual-core_Communication_Demo\Dual-core_Communication_Demo\MASTER\obj/../Libraries/wch_libraries/Peripheral/ch32v10x_tim.c:241
  tmpccer |= (uint16_t)(TIM_OCInitStruct->TIM_OutputState << 12);
    1dec:	fd842783          	lw	a5,-40(s0)
    1df0:	0027d783          	lhu	a5,2(a5)
    1df4:	07b2                	slli	a5,a5,0xc
    1df6:	01079713          	slli	a4,a5,0x10
    1dfa:	8341                	srli	a4,a4,0x10
    1dfc:	fea45783          	lhu	a5,-22(s0)
    1e00:	8fd9                	or	a5,a5,a4
    1e02:	fef41523          	sh	a5,-22(s0)
C:\Users\windows\Desktop\A_Dual\A_Dual1\Dual-core_Communication_Demo\Dual-core_Communication_Demo\MASTER\obj/../Libraries/wch_libraries/Peripheral/ch32v10x_tim.c:243
    
  if(TIMx == TIM1)
    1e06:	fdc42703          	lw	a4,-36(s0)
    1e0a:	400137b7          	lui	a5,0x40013
    1e0e:	c0078793          	addi	a5,a5,-1024 # 40012c00 <_eusrstack+0x2000dc00>
    1e12:	02f71663          	bne	a4,a5,1e3e <TIM_OC4Init+0x10e>
C:\Users\windows\Desktop\A_Dual\A_Dual1\Dual-core_Communication_Demo\Dual-core_Communication_Demo\MASTER\obj/../Libraries/wch_libraries/Peripheral/ch32v10x_tim.c:245
  {
    tmpcr2 &= (uint16_t)(~((uint16_t)TIM_OIS4));
    1e16:	fee45703          	lhu	a4,-18(s0)
    1e1a:	77f1                	lui	a5,0xffffc
    1e1c:	17fd                	addi	a5,a5,-1
    1e1e:	8ff9                	and	a5,a5,a4
    1e20:	fef41723          	sh	a5,-18(s0)
C:\Users\windows\Desktop\A_Dual\A_Dual1\Dual-core_Communication_Demo\Dual-core_Communication_Demo\MASTER\obj/../Libraries/wch_libraries/Peripheral/ch32v10x_tim.c:246
    tmpcr2 |= (uint16_t)(TIM_OCInitStruct->TIM_OCIdleState << 6);
    1e24:	fd842783          	lw	a5,-40(s0)
    1e28:	00c7d783          	lhu	a5,12(a5) # ffffc00c <_eusrstack+0xdfff700c>
    1e2c:	079a                	slli	a5,a5,0x6
    1e2e:	01079713          	slli	a4,a5,0x10
    1e32:	8341                	srli	a4,a4,0x10
    1e34:	fee45783          	lhu	a5,-18(s0)
    1e38:	8fd9                	or	a5,a5,a4
    1e3a:	fef41723          	sh	a5,-18(s0)
C:\Users\windows\Desktop\A_Dual\A_Dual1\Dual-core_Communication_Demo\Dual-core_Communication_Demo\MASTER\obj/../Libraries/wch_libraries/Peripheral/ch32v10x_tim.c:249
  }

  TIMx->CTLR2 = tmpcr2; 
    1e3e:	fdc42783          	lw	a5,-36(s0)
    1e42:	fee45703          	lhu	a4,-18(s0)
    1e46:	00e79223          	sh	a4,4(a5)
C:\Users\windows\Desktop\A_Dual\A_Dual1\Dual-core_Communication_Demo\Dual-core_Communication_Demo\MASTER\obj/../Libraries/wch_libraries/Peripheral/ch32v10x_tim.c:250
  TIMx->CHCTLR2 = tmpccmrx;
    1e4a:	fdc42783          	lw	a5,-36(s0)
    1e4e:	fec45703          	lhu	a4,-20(s0)
    1e52:	00e79e23          	sh	a4,28(a5)
C:\Users\windows\Desktop\A_Dual\A_Dual1\Dual-core_Communication_Demo\Dual-core_Communication_Demo\MASTER\obj/../Libraries/wch_libraries/Peripheral/ch32v10x_tim.c:251
  TIMx->CH4CVR = TIM_OCInitStruct->TIM_Pulse;
    1e56:	fd842783          	lw	a5,-40(s0)
    1e5a:	0067d703          	lhu	a4,6(a5)
    1e5e:	fdc42783          	lw	a5,-36(s0)
    1e62:	04e79023          	sh	a4,64(a5)
C:\Users\windows\Desktop\A_Dual\A_Dual1\Dual-core_Communication_Demo\Dual-core_Communication_Demo\MASTER\obj/../Libraries/wch_libraries/Peripheral/ch32v10x_tim.c:252
  TIMx->CCER = tmpccer;
    1e66:	fdc42783          	lw	a5,-36(s0)
    1e6a:	fea45703          	lhu	a4,-22(s0)
    1e6e:	02e79023          	sh	a4,32(a5)
C:\Users\windows\Desktop\A_Dual\A_Dual1\Dual-core_Communication_Demo\Dual-core_Communication_Demo\MASTER\obj/../Libraries/wch_libraries/Peripheral/ch32v10x_tim.c:253
}
    1e72:	0001                	nop
    1e74:	5432                	lw	s0,44(sp)
    1e76:	6145                	addi	sp,sp,48
    1e78:	8082                	ret

00001e7a <TIM_TimeBaseStructInit>:
TIM_TimeBaseStructInit():
C:\Users\windows\Desktop\A_Dual\A_Dual1\Dual-core_Communication_Demo\Dual-core_Communication_Demo\MASTER\obj/../Libraries/wch_libraries/Peripheral/ch32v10x_tim.c:367
* Description    : Fills each TIM_TimeBaseInitStruct member with its default value.
* Input          : TIM_TimeBaseInitStruct : pointer to a TIM_TimeBaseInitTypeDef structure.                 
* Return         : None
*******************************************************************************/
void TIM_TimeBaseStructInit(TIM_TimeBaseInitTypeDef* TIM_TimeBaseInitStruct)
{
    1e7a:	1101                	addi	sp,sp,-32
    1e7c:	ce22                	sw	s0,28(sp)
    1e7e:	1000                	addi	s0,sp,32
    1e80:	fea42623          	sw	a0,-20(s0)
C:\Users\windows\Desktop\A_Dual\A_Dual1\Dual-core_Communication_Demo\Dual-core_Communication_Demo\MASTER\obj/../Libraries/wch_libraries/Peripheral/ch32v10x_tim.c:368
  TIM_TimeBaseInitStruct->TIM_Period = 0xFFFF;
    1e84:	fec42783          	lw	a5,-20(s0)
    1e88:	577d                	li	a4,-1
    1e8a:	00e79223          	sh	a4,4(a5)
C:\Users\windows\Desktop\A_Dual\A_Dual1\Dual-core_Communication_Demo\Dual-core_Communication_Demo\MASTER\obj/../Libraries/wch_libraries/Peripheral/ch32v10x_tim.c:369
  TIM_TimeBaseInitStruct->TIM_Prescaler = 0x0000;
    1e8e:	fec42783          	lw	a5,-20(s0)
    1e92:	00079023          	sh	zero,0(a5)
C:\Users\windows\Desktop\A_Dual\A_Dual1\Dual-core_Communication_Demo\Dual-core_Communication_Demo\MASTER\obj/../Libraries/wch_libraries/Peripheral/ch32v10x_tim.c:370
  TIM_TimeBaseInitStruct->TIM_ClockDivision = TIM_CKD_DIV1;
    1e96:	fec42783          	lw	a5,-20(s0)
    1e9a:	00079323          	sh	zero,6(a5)
C:\Users\windows\Desktop\A_Dual\A_Dual1\Dual-core_Communication_Demo\Dual-core_Communication_Demo\MASTER\obj/../Libraries/wch_libraries/Peripheral/ch32v10x_tim.c:371
  TIM_TimeBaseInitStruct->TIM_CounterMode = TIM_CounterMode_Up;
    1e9e:	fec42783          	lw	a5,-20(s0)
    1ea2:	00079123          	sh	zero,2(a5)
C:\Users\windows\Desktop\A_Dual\A_Dual1\Dual-core_Communication_Demo\Dual-core_Communication_Demo\MASTER\obj/../Libraries/wch_libraries/Peripheral/ch32v10x_tim.c:372
  TIM_TimeBaseInitStruct->TIM_RepetitionCounter = 0x0000;
    1ea6:	fec42783          	lw	a5,-20(s0)
    1eaa:	00078423          	sb	zero,8(a5)
C:\Users\windows\Desktop\A_Dual\A_Dual1\Dual-core_Communication_Demo\Dual-core_Communication_Demo\MASTER\obj/../Libraries/wch_libraries/Peripheral/ch32v10x_tim.c:373
}
    1eae:	0001                	nop
    1eb0:	4472                	lw	s0,28(sp)
    1eb2:	6105                	addi	sp,sp,32
    1eb4:	8082                	ret

00001eb6 <TIM_Cmd>:
TIM_Cmd():
C:\Users\windows\Desktop\A_Dual\A_Dual1\Dual-core_Communication_Demo\Dual-core_Communication_Demo\MASTER\obj/../Libraries/wch_libraries/Peripheral/ch32v10x_tim.c:433
* Input          : TIMx: where x can be 1 to 4 to select the TIM peripheral.
*                  NewState: ENABLE or DISABLE.
* Return         : None
*******************************************************************************/
void TIM_Cmd(TIM_TypeDef* TIMx, FunctionalState NewState)
{ 
    1eb6:	1101                	addi	sp,sp,-32
    1eb8:	ce22                	sw	s0,28(sp)
    1eba:	1000                	addi	s0,sp,32
    1ebc:	fea42623          	sw	a0,-20(s0)
    1ec0:	feb42423          	sw	a1,-24(s0)
C:\Users\windows\Desktop\A_Dual\A_Dual1\Dual-core_Communication_Demo\Dual-core_Communication_Demo\MASTER\obj/../Libraries/wch_libraries/Peripheral/ch32v10x_tim.c:434
  if (NewState != DISABLE)
    1ec4:	fe842783          	lw	a5,-24(s0)
    1ec8:	c38d                	beqz	a5,1eea <TIM_Cmd+0x34>
C:\Users\windows\Desktop\A_Dual\A_Dual1\Dual-core_Communication_Demo\Dual-core_Communication_Demo\MASTER\obj/../Libraries/wch_libraries/Peripheral/ch32v10x_tim.c:436
  {
    TIMx->CTLR1 |= TIM_CEN;
    1eca:	fec42783          	lw	a5,-20(s0)
    1ece:	0007d783          	lhu	a5,0(a5)
    1ed2:	07c2                	slli	a5,a5,0x10
    1ed4:	83c1                	srli	a5,a5,0x10
    1ed6:	0017e793          	ori	a5,a5,1
    1eda:	01079713          	slli	a4,a5,0x10
    1ede:	8341                	srli	a4,a4,0x10
    1ee0:	fec42783          	lw	a5,-20(s0)
    1ee4:	00e79023          	sh	a4,0(a5)
C:\Users\windows\Desktop\A_Dual\A_Dual1\Dual-core_Communication_Demo\Dual-core_Communication_Demo\MASTER\obj/../Libraries/wch_libraries/Peripheral/ch32v10x_tim.c:442
  }
  else
  {
    TIMx->CTLR1 &= (uint16_t)(~((uint16_t)TIM_CEN));
  }
}
    1ee8:	a839                	j	1f06 <TIM_Cmd+0x50>
C:\Users\windows\Desktop\A_Dual\A_Dual1\Dual-core_Communication_Demo\Dual-core_Communication_Demo\MASTER\obj/../Libraries/wch_libraries/Peripheral/ch32v10x_tim.c:440
    TIMx->CTLR1 &= (uint16_t)(~((uint16_t)TIM_CEN));
    1eea:	fec42783          	lw	a5,-20(s0)
    1eee:	0007d783          	lhu	a5,0(a5)
    1ef2:	07c2                	slli	a5,a5,0x10
    1ef4:	83c1                	srli	a5,a5,0x10
    1ef6:	9bf9                	andi	a5,a5,-2
    1ef8:	01079713          	slli	a4,a5,0x10
    1efc:	8341                	srli	a4,a4,0x10
    1efe:	fec42783          	lw	a5,-20(s0)
    1f02:	00e79023          	sh	a4,0(a5)
C:\Users\windows\Desktop\A_Dual\A_Dual1\Dual-core_Communication_Demo\Dual-core_Communication_Demo\MASTER\obj/../Libraries/wch_libraries/Peripheral/ch32v10x_tim.c:442
}
    1f06:	0001                	nop
    1f08:	4472                	lw	s0,28(sp)
    1f0a:	6105                	addi	sp,sp,32
    1f0c:	8082                	ret

00001f0e <TIM_CtrlPWMOutputs>:
TIM_CtrlPWMOutputs():
C:\Users\windows\Desktop\A_Dual\A_Dual1\Dual-core_Communication_Demo\Dual-core_Communication_Demo\MASTER\obj/../Libraries/wch_libraries/Peripheral/ch32v10x_tim.c:452
* Input          : TIMx: where x can be 1 to 4 to select the TIM peripheral.
*                  NewState: ENABLE or DISABLE.
* Return         : None
*******************************************************************************/
void TIM_CtrlPWMOutputs(TIM_TypeDef* TIMx, FunctionalState NewState)
{
    1f0e:	1101                	addi	sp,sp,-32
    1f10:	ce22                	sw	s0,28(sp)
    1f12:	1000                	addi	s0,sp,32
    1f14:	fea42623          	sw	a0,-20(s0)
    1f18:	feb42423          	sw	a1,-24(s0)
C:\Users\windows\Desktop\A_Dual\A_Dual1\Dual-core_Communication_Demo\Dual-core_Communication_Demo\MASTER\obj/../Libraries/wch_libraries/Peripheral/ch32v10x_tim.c:453
  if (NewState != DISABLE)
    1f1c:	fe842783          	lw	a5,-24(s0)
    1f20:	c395                	beqz	a5,1f44 <TIM_CtrlPWMOutputs+0x36>
C:\Users\windows\Desktop\A_Dual\A_Dual1\Dual-core_Communication_Demo\Dual-core_Communication_Demo\MASTER\obj/../Libraries/wch_libraries/Peripheral/ch32v10x_tim.c:455
  {
    TIMx->BDTR |= TIM_MOE;
    1f22:	fec42783          	lw	a5,-20(s0)
    1f26:	0447d783          	lhu	a5,68(a5)
    1f2a:	01079713          	slli	a4,a5,0x10
    1f2e:	8341                	srli	a4,a4,0x10
    1f30:	77e1                	lui	a5,0xffff8
    1f32:	8fd9                	or	a5,a5,a4
    1f34:	01079713          	slli	a4,a5,0x10
    1f38:	8341                	srli	a4,a4,0x10
    1f3a:	fec42783          	lw	a5,-20(s0)
    1f3e:	04e79223          	sh	a4,68(a5) # ffff8044 <_eusrstack+0xdfff3044>
C:\Users\windows\Desktop\A_Dual\A_Dual1\Dual-core_Communication_Demo\Dual-core_Communication_Demo\MASTER\obj/../Libraries/wch_libraries/Peripheral/ch32v10x_tim.c:461
  }
  else
  {
    TIMx->BDTR &= (uint16_t)(~((uint16_t)TIM_MOE));
  }  
}
    1f42:	a015                	j	1f66 <TIM_CtrlPWMOutputs+0x58>
C:\Users\windows\Desktop\A_Dual\A_Dual1\Dual-core_Communication_Demo\Dual-core_Communication_Demo\MASTER\obj/../Libraries/wch_libraries/Peripheral/ch32v10x_tim.c:459
    TIMx->BDTR &= (uint16_t)(~((uint16_t)TIM_MOE));
    1f44:	fec42783          	lw	a5,-20(s0)
    1f48:	0447d783          	lhu	a5,68(a5)
    1f4c:	01079713          	slli	a4,a5,0x10
    1f50:	8341                	srli	a4,a4,0x10
    1f52:	67a1                	lui	a5,0x8
    1f54:	17fd                	addi	a5,a5,-1
    1f56:	8ff9                	and	a5,a5,a4
    1f58:	01079713          	slli	a4,a5,0x10
    1f5c:	8341                	srli	a4,a4,0x10
    1f5e:	fec42783          	lw	a5,-20(s0)
    1f62:	04e79223          	sh	a4,68(a5) # 8044 <_printf_i+0x1ec>
C:\Users\windows\Desktop\A_Dual\A_Dual1\Dual-core_Communication_Demo\Dual-core_Communication_Demo\MASTER\obj/../Libraries/wch_libraries/Peripheral/ch32v10x_tim.c:461
}
    1f66:	0001                	nop
    1f68:	4472                	lw	s0,28(sp)
    1f6a:	6105                	addi	sp,sp,32
    1f6c:	8082                	ret

00001f6e <TIM_EncoderInterfaceConfig>:
TIM_EncoderInterfaceConfig():
C:\Users\windows\Desktop\A_Dual\A_Dual1\Dual-core_Communication_Demo\Dual-core_Communication_Demo\MASTER\obj/../Libraries/wch_libraries/Peripheral/ch32v10x_tim.c:796
*                    TIM_ICPolarity_Rising: IC Rising edge.
* Return         : None
*******************************************************************************/
void TIM_EncoderInterfaceConfig(TIM_TypeDef* TIMx, uint16_t TIM_EncoderMode,
                                uint16_t TIM_IC1Polarity, uint16_t TIM_IC2Polarity)
{
    1f6e:	7179                	addi	sp,sp,-48
    1f70:	d622                	sw	s0,44(sp)
    1f72:	1800                	addi	s0,sp,48
    1f74:	fca42e23          	sw	a0,-36(s0)
    1f78:	87ae                	mv	a5,a1
    1f7a:	8736                	mv	a4,a3
    1f7c:	fcf41d23          	sh	a5,-38(s0)
    1f80:	87b2                	mv	a5,a2
    1f82:	fcf41c23          	sh	a5,-40(s0)
    1f86:	87ba                	mv	a5,a4
    1f88:	fcf41b23          	sh	a5,-42(s0)
C:\Users\windows\Desktop\A_Dual\A_Dual1\Dual-core_Communication_Demo\Dual-core_Communication_Demo\MASTER\obj/../Libraries/wch_libraries/Peripheral/ch32v10x_tim.c:797
  uint16_t tmpsmcr = 0;
    1f8c:	fe041723          	sh	zero,-18(s0)
C:\Users\windows\Desktop\A_Dual\A_Dual1\Dual-core_Communication_Demo\Dual-core_Communication_Demo\MASTER\obj/../Libraries/wch_libraries/Peripheral/ch32v10x_tim.c:798
  uint16_t tmpccmr1 = 0;
    1f90:	fe041623          	sh	zero,-20(s0)
C:\Users\windows\Desktop\A_Dual\A_Dual1\Dual-core_Communication_Demo\Dual-core_Communication_Demo\MASTER\obj/../Libraries/wch_libraries/Peripheral/ch32v10x_tim.c:799
  uint16_t tmpccer = 0;
    1f94:	fe041523          	sh	zero,-22(s0)
C:\Users\windows\Desktop\A_Dual\A_Dual1\Dual-core_Communication_Demo\Dual-core_Communication_Demo\MASTER\obj/../Libraries/wch_libraries/Peripheral/ch32v10x_tim.c:801
    
  tmpsmcr = TIMx->SMCFGR;
    1f98:	fdc42783          	lw	a5,-36(s0)
    1f9c:	0087d783          	lhu	a5,8(a5)
    1fa0:	fef41723          	sh	a5,-18(s0)
C:\Users\windows\Desktop\A_Dual\A_Dual1\Dual-core_Communication_Demo\Dual-core_Communication_Demo\MASTER\obj/../Libraries/wch_libraries/Peripheral/ch32v10x_tim.c:802
  tmpccmr1 = TIMx->CHCTLR1;
    1fa4:	fdc42783          	lw	a5,-36(s0)
    1fa8:	0187d783          	lhu	a5,24(a5)
    1fac:	fef41623          	sh	a5,-20(s0)
C:\Users\windows\Desktop\A_Dual\A_Dual1\Dual-core_Communication_Demo\Dual-core_Communication_Demo\MASTER\obj/../Libraries/wch_libraries/Peripheral/ch32v10x_tim.c:803
  tmpccer = TIMx->CCER;
    1fb0:	fdc42783          	lw	a5,-36(s0)
    1fb4:	0207d783          	lhu	a5,32(a5)
    1fb8:	fef41523          	sh	a5,-22(s0)
C:\Users\windows\Desktop\A_Dual\A_Dual1\Dual-core_Communication_Demo\Dual-core_Communication_Demo\MASTER\obj/../Libraries/wch_libraries/Peripheral/ch32v10x_tim.c:804
  tmpsmcr &= (uint16_t)(~((uint16_t)TIM_SMS));
    1fbc:	fee45783          	lhu	a5,-18(s0)
    1fc0:	9be1                	andi	a5,a5,-8
    1fc2:	fef41723          	sh	a5,-18(s0)
C:\Users\windows\Desktop\A_Dual\A_Dual1\Dual-core_Communication_Demo\Dual-core_Communication_Demo\MASTER\obj/../Libraries/wch_libraries/Peripheral/ch32v10x_tim.c:805
  tmpsmcr |= TIM_EncoderMode;
    1fc6:	fee45703          	lhu	a4,-18(s0)
    1fca:	fda45783          	lhu	a5,-38(s0)
    1fce:	8fd9                	or	a5,a5,a4
    1fd0:	fef41723          	sh	a5,-18(s0)
C:\Users\windows\Desktop\A_Dual\A_Dual1\Dual-core_Communication_Demo\Dual-core_Communication_Demo\MASTER\obj/../Libraries/wch_libraries/Peripheral/ch32v10x_tim.c:806
  tmpccmr1 &= (uint16_t)(((uint16_t)~((uint16_t)TIM_CC1S)) & (uint16_t)(~((uint16_t)TIM_CC2S)));
    1fd4:	fec45783          	lhu	a5,-20(s0)
    1fd8:	cfc7f793          	andi	a5,a5,-772
    1fdc:	fef41623          	sh	a5,-20(s0)
C:\Users\windows\Desktop\A_Dual\A_Dual1\Dual-core_Communication_Demo\Dual-core_Communication_Demo\MASTER\obj/../Libraries/wch_libraries/Peripheral/ch32v10x_tim.c:807
  tmpccmr1 |= TIM_CC1S_0 | TIM_CC2S_0;
    1fe0:	fec45783          	lhu	a5,-20(s0)
    1fe4:	1017e793          	ori	a5,a5,257
    1fe8:	fef41623          	sh	a5,-20(s0)
C:\Users\windows\Desktop\A_Dual\A_Dual1\Dual-core_Communication_Demo\Dual-core_Communication_Demo\MASTER\obj/../Libraries/wch_libraries/Peripheral/ch32v10x_tim.c:808
  tmpccer &= (uint16_t)(((uint16_t)~((uint16_t)TIM_CC1P)) & ((uint16_t)~((uint16_t)TIM_CC2P)));
    1fec:	fea45783          	lhu	a5,-22(s0)
    1ff0:	fdd7f793          	andi	a5,a5,-35
    1ff4:	fef41523          	sh	a5,-22(s0)
C:\Users\windows\Desktop\A_Dual\A_Dual1\Dual-core_Communication_Demo\Dual-core_Communication_Demo\MASTER\obj/../Libraries/wch_libraries/Peripheral/ch32v10x_tim.c:809
  tmpccer |= (uint16_t)(TIM_IC1Polarity | (uint16_t)(TIM_IC2Polarity << (uint16_t)4)); 
    1ff8:	fd645783          	lhu	a5,-42(s0)
    1ffc:	0792                	slli	a5,a5,0x4
    1ffe:	01079713          	slli	a4,a5,0x10
    2002:	8341                	srli	a4,a4,0x10
    2004:	fd845783          	lhu	a5,-40(s0)
    2008:	8fd9                	or	a5,a5,a4
    200a:	01079713          	slli	a4,a5,0x10
    200e:	8341                	srli	a4,a4,0x10
    2010:	fea45783          	lhu	a5,-22(s0)
    2014:	8fd9                	or	a5,a5,a4
    2016:	fef41523          	sh	a5,-22(s0)
C:\Users\windows\Desktop\A_Dual\A_Dual1\Dual-core_Communication_Demo\Dual-core_Communication_Demo\MASTER\obj/../Libraries/wch_libraries/Peripheral/ch32v10x_tim.c:810
  TIMx->SMCFGR = tmpsmcr;
    201a:	fdc42783          	lw	a5,-36(s0)
    201e:	fee45703          	lhu	a4,-18(s0)
    2022:	00e79423          	sh	a4,8(a5)
C:\Users\windows\Desktop\A_Dual\A_Dual1\Dual-core_Communication_Demo\Dual-core_Communication_Demo\MASTER\obj/../Libraries/wch_libraries/Peripheral/ch32v10x_tim.c:811
  TIMx->CHCTLR1 = tmpccmr1;
    2026:	fdc42783          	lw	a5,-36(s0)
    202a:	fec45703          	lhu	a4,-20(s0)
    202e:	00e79c23          	sh	a4,24(a5)
C:\Users\windows\Desktop\A_Dual\A_Dual1\Dual-core_Communication_Demo\Dual-core_Communication_Demo\MASTER\obj/../Libraries/wch_libraries/Peripheral/ch32v10x_tim.c:812
  TIMx->CCER = tmpccer;
    2032:	fdc42783          	lw	a5,-36(s0)
    2036:	fea45703          	lhu	a4,-22(s0)
    203a:	02e79023          	sh	a4,32(a5)
C:\Users\windows\Desktop\A_Dual\A_Dual1\Dual-core_Communication_Demo\Dual-core_Communication_Demo\MASTER\obj/../Libraries/wch_libraries/Peripheral/ch32v10x_tim.c:813
}
    203e:	0001                	nop
    2040:	5432                	lw	s0,44(sp)
    2042:	6145                	addi	sp,sp,48
    2044:	8082                	ret

00002046 <TIM_OC1PreloadConfig>:
TIM_OC1PreloadConfig():
C:\Users\windows\Desktop\A_Dual\A_Dual1\Dual-core_Communication_Demo\Dual-core_Communication_Demo\MASTER\obj/../Libraries/wch_libraries/Peripheral/ch32v10x_tim.c:981
*                    TIM_OCPreload_Enable.
*                    TIM_OCPreload_Disable.
* Return         : None
*******************************************************************************/
void TIM_OC1PreloadConfig(TIM_TypeDef* TIMx, uint16_t TIM_OCPreload)
{
    2046:	7179                	addi	sp,sp,-48
    2048:	d622                	sw	s0,44(sp)
    204a:	1800                	addi	s0,sp,48
    204c:	fca42e23          	sw	a0,-36(s0)
    2050:	87ae                	mv	a5,a1
    2052:	fcf41d23          	sh	a5,-38(s0)
C:\Users\windows\Desktop\A_Dual\A_Dual1\Dual-core_Communication_Demo\Dual-core_Communication_Demo\MASTER\obj/../Libraries/wch_libraries/Peripheral/ch32v10x_tim.c:982
  uint16_t tmpccmr1 = 0;
    2056:	fe041723          	sh	zero,-18(s0)
C:\Users\windows\Desktop\A_Dual\A_Dual1\Dual-core_Communication_Demo\Dual-core_Communication_Demo\MASTER\obj/../Libraries/wch_libraries/Peripheral/ch32v10x_tim.c:984

  tmpccmr1 = TIMx->CHCTLR1;
    205a:	fdc42783          	lw	a5,-36(s0)
    205e:	0187d783          	lhu	a5,24(a5)
    2062:	fef41723          	sh	a5,-18(s0)
C:\Users\windows\Desktop\A_Dual\A_Dual1\Dual-core_Communication_Demo\Dual-core_Communication_Demo\MASTER\obj/../Libraries/wch_libraries/Peripheral/ch32v10x_tim.c:985
  tmpccmr1 &= (uint16_t)~((uint16_t)TIM_OC1PE);
    2066:	fee45783          	lhu	a5,-18(s0)
    206a:	9bdd                	andi	a5,a5,-9
    206c:	fef41723          	sh	a5,-18(s0)
C:\Users\windows\Desktop\A_Dual\A_Dual1\Dual-core_Communication_Demo\Dual-core_Communication_Demo\MASTER\obj/../Libraries/wch_libraries/Peripheral/ch32v10x_tim.c:986
  tmpccmr1 |= TIM_OCPreload;
    2070:	fee45703          	lhu	a4,-18(s0)
    2074:	fda45783          	lhu	a5,-38(s0)
    2078:	8fd9                	or	a5,a5,a4
    207a:	fef41723          	sh	a5,-18(s0)
C:\Users\windows\Desktop\A_Dual\A_Dual1\Dual-core_Communication_Demo\Dual-core_Communication_Demo\MASTER\obj/../Libraries/wch_libraries/Peripheral/ch32v10x_tim.c:987
  TIMx->CHCTLR1 = tmpccmr1;
    207e:	fdc42783          	lw	a5,-36(s0)
    2082:	fee45703          	lhu	a4,-18(s0)
    2086:	00e79c23          	sh	a4,24(a5)
C:\Users\windows\Desktop\A_Dual\A_Dual1\Dual-core_Communication_Demo\Dual-core_Communication_Demo\MASTER\obj/../Libraries/wch_libraries/Peripheral/ch32v10x_tim.c:988
}
    208a:	0001                	nop
    208c:	5432                	lw	s0,44(sp)
    208e:	6145                	addi	sp,sp,48
    2090:	8082                	ret

00002092 <TIM_OC2PreloadConfig>:
TIM_OC2PreloadConfig():
C:\Users\windows\Desktop\A_Dual\A_Dual1\Dual-core_Communication_Demo\Dual-core_Communication_Demo\MASTER\obj/../Libraries/wch_libraries/Peripheral/ch32v10x_tim.c:1000
*                    TIM_OCPreload_Enable.
*                    TIM_OCPreload_Disable.
* Return         : None
*******************************************************************************/
void TIM_OC2PreloadConfig(TIM_TypeDef* TIMx, uint16_t TIM_OCPreload)
{
    2092:	7179                	addi	sp,sp,-48
    2094:	d622                	sw	s0,44(sp)
    2096:	1800                	addi	s0,sp,48
    2098:	fca42e23          	sw	a0,-36(s0)
    209c:	87ae                	mv	a5,a1
    209e:	fcf41d23          	sh	a5,-38(s0)
C:\Users\windows\Desktop\A_Dual\A_Dual1\Dual-core_Communication_Demo\Dual-core_Communication_Demo\MASTER\obj/../Libraries/wch_libraries/Peripheral/ch32v10x_tim.c:1001
  uint16_t tmpccmr1 = 0;
    20a2:	fe041723          	sh	zero,-18(s0)
C:\Users\windows\Desktop\A_Dual\A_Dual1\Dual-core_Communication_Demo\Dual-core_Communication_Demo\MASTER\obj/../Libraries/wch_libraries/Peripheral/ch32v10x_tim.c:1003

  tmpccmr1 = TIMx->CHCTLR1;
    20a6:	fdc42783          	lw	a5,-36(s0)
    20aa:	0187d783          	lhu	a5,24(a5)
    20ae:	fef41723          	sh	a5,-18(s0)
C:\Users\windows\Desktop\A_Dual\A_Dual1\Dual-core_Communication_Demo\Dual-core_Communication_Demo\MASTER\obj/../Libraries/wch_libraries/Peripheral/ch32v10x_tim.c:1004
  tmpccmr1 &= (uint16_t)~((uint16_t)TIM_OC2PE);
    20b2:	fee45703          	lhu	a4,-18(s0)
    20b6:	77fd                	lui	a5,0xfffff
    20b8:	7ff78793          	addi	a5,a5,2047 # fffff7ff <_eusrstack+0xdfffa7ff>
    20bc:	8ff9                	and	a5,a5,a4
    20be:	fef41723          	sh	a5,-18(s0)
C:\Users\windows\Desktop\A_Dual\A_Dual1\Dual-core_Communication_Demo\Dual-core_Communication_Demo\MASTER\obj/../Libraries/wch_libraries/Peripheral/ch32v10x_tim.c:1005
  tmpccmr1 |= (uint16_t)(TIM_OCPreload << 8);	
    20c2:	fda45783          	lhu	a5,-38(s0)
    20c6:	07a2                	slli	a5,a5,0x8
    20c8:	01079713          	slli	a4,a5,0x10
    20cc:	8341                	srli	a4,a4,0x10
    20ce:	fee45783          	lhu	a5,-18(s0)
    20d2:	8fd9                	or	a5,a5,a4
    20d4:	fef41723          	sh	a5,-18(s0)
C:\Users\windows\Desktop\A_Dual\A_Dual1\Dual-core_Communication_Demo\Dual-core_Communication_Demo\MASTER\obj/../Libraries/wch_libraries/Peripheral/ch32v10x_tim.c:1006
  TIMx->CHCTLR1 = tmpccmr1;
    20d8:	fdc42783          	lw	a5,-36(s0)
    20dc:	fee45703          	lhu	a4,-18(s0)
    20e0:	00e79c23          	sh	a4,24(a5)
C:\Users\windows\Desktop\A_Dual\A_Dual1\Dual-core_Communication_Demo\Dual-core_Communication_Demo\MASTER\obj/../Libraries/wch_libraries/Peripheral/ch32v10x_tim.c:1007
}
    20e4:	0001                	nop
    20e6:	5432                	lw	s0,44(sp)
    20e8:	6145                	addi	sp,sp,48
    20ea:	8082                	ret

000020ec <TIM_OC3PreloadConfig>:
TIM_OC3PreloadConfig():
C:\Users\windows\Desktop\A_Dual\A_Dual1\Dual-core_Communication_Demo\Dual-core_Communication_Demo\MASTER\obj/../Libraries/wch_libraries/Peripheral/ch32v10x_tim.c:1019
*                    TIM_OCPreload_Enable.
*                    TIM_OCPreload_Disable.
* Return         : None
*******************************************************************************/
void TIM_OC3PreloadConfig(TIM_TypeDef* TIMx, uint16_t TIM_OCPreload)
{
    20ec:	7179                	addi	sp,sp,-48
    20ee:	d622                	sw	s0,44(sp)
    20f0:	1800                	addi	s0,sp,48
    20f2:	fca42e23          	sw	a0,-36(s0)
    20f6:	87ae                	mv	a5,a1
    20f8:	fcf41d23          	sh	a5,-38(s0)
C:\Users\windows\Desktop\A_Dual\A_Dual1\Dual-core_Communication_Demo\Dual-core_Communication_Demo\MASTER\obj/../Libraries/wch_libraries/Peripheral/ch32v10x_tim.c:1020
  uint16_t tmpccmr2 = 0;
    20fc:	fe041723          	sh	zero,-18(s0)
C:\Users\windows\Desktop\A_Dual\A_Dual1\Dual-core_Communication_Demo\Dual-core_Communication_Demo\MASTER\obj/../Libraries/wch_libraries/Peripheral/ch32v10x_tim.c:1022

  tmpccmr2 = TIMx->CHCTLR2;
    2100:	fdc42783          	lw	a5,-36(s0)
    2104:	01c7d783          	lhu	a5,28(a5)
    2108:	fef41723          	sh	a5,-18(s0)
C:\Users\windows\Desktop\A_Dual\A_Dual1\Dual-core_Communication_Demo\Dual-core_Communication_Demo\MASTER\obj/../Libraries/wch_libraries/Peripheral/ch32v10x_tim.c:1023
  tmpccmr2 &= (uint16_t)~((uint16_t)TIM_OC3PE);
    210c:	fee45783          	lhu	a5,-18(s0)
    2110:	9bdd                	andi	a5,a5,-9
    2112:	fef41723          	sh	a5,-18(s0)
C:\Users\windows\Desktop\A_Dual\A_Dual1\Dual-core_Communication_Demo\Dual-core_Communication_Demo\MASTER\obj/../Libraries/wch_libraries/Peripheral/ch32v10x_tim.c:1024
  tmpccmr2 |= TIM_OCPreload;
    2116:	fee45703          	lhu	a4,-18(s0)
    211a:	fda45783          	lhu	a5,-38(s0)
    211e:	8fd9                	or	a5,a5,a4
    2120:	fef41723          	sh	a5,-18(s0)
C:\Users\windows\Desktop\A_Dual\A_Dual1\Dual-core_Communication_Demo\Dual-core_Communication_Demo\MASTER\obj/../Libraries/wch_libraries/Peripheral/ch32v10x_tim.c:1025
  TIMx->CHCTLR2 = tmpccmr2;
    2124:	fdc42783          	lw	a5,-36(s0)
    2128:	fee45703          	lhu	a4,-18(s0)
    212c:	00e79e23          	sh	a4,28(a5)
C:\Users\windows\Desktop\A_Dual\A_Dual1\Dual-core_Communication_Demo\Dual-core_Communication_Demo\MASTER\obj/../Libraries/wch_libraries/Peripheral/ch32v10x_tim.c:1026
}
    2130:	0001                	nop
    2132:	5432                	lw	s0,44(sp)
    2134:	6145                	addi	sp,sp,48
    2136:	8082                	ret

00002138 <TIM_OC4PreloadConfig>:
TIM_OC4PreloadConfig():
C:\Users\windows\Desktop\A_Dual\A_Dual1\Dual-core_Communication_Demo\Dual-core_Communication_Demo\MASTER\obj/../Libraries/wch_libraries/Peripheral/ch32v10x_tim.c:1038
*                    TIM_OCPreload_Enable.
*                    TIM_OCPreload_Disable.
* Return         : None
*******************************************************************************/
void TIM_OC4PreloadConfig(TIM_TypeDef* TIMx, uint16_t TIM_OCPreload)
{
    2138:	7179                	addi	sp,sp,-48
    213a:	d622                	sw	s0,44(sp)
    213c:	1800                	addi	s0,sp,48
    213e:	fca42e23          	sw	a0,-36(s0)
    2142:	87ae                	mv	a5,a1
    2144:	fcf41d23          	sh	a5,-38(s0)
C:\Users\windows\Desktop\A_Dual\A_Dual1\Dual-core_Communication_Demo\Dual-core_Communication_Demo\MASTER\obj/../Libraries/wch_libraries/Peripheral/ch32v10x_tim.c:1039
  uint16_t tmpccmr2 = 0;
    2148:	fe041723          	sh	zero,-18(s0)
C:\Users\windows\Desktop\A_Dual\A_Dual1\Dual-core_Communication_Demo\Dual-core_Communication_Demo\MASTER\obj/../Libraries/wch_libraries/Peripheral/ch32v10x_tim.c:1041

  tmpccmr2 = TIMx->CHCTLR2;
    214c:	fdc42783          	lw	a5,-36(s0)
    2150:	01c7d783          	lhu	a5,28(a5)
    2154:	fef41723          	sh	a5,-18(s0)
C:\Users\windows\Desktop\A_Dual\A_Dual1\Dual-core_Communication_Demo\Dual-core_Communication_Demo\MASTER\obj/../Libraries/wch_libraries/Peripheral/ch32v10x_tim.c:1042
  tmpccmr2 &= (uint16_t)~((uint16_t)TIM_OC4PE);
    2158:	fee45703          	lhu	a4,-18(s0)
    215c:	77fd                	lui	a5,0xfffff
    215e:	7ff78793          	addi	a5,a5,2047 # fffff7ff <_eusrstack+0xdfffa7ff>
    2162:	8ff9                	and	a5,a5,a4
    2164:	fef41723          	sh	a5,-18(s0)
C:\Users\windows\Desktop\A_Dual\A_Dual1\Dual-core_Communication_Demo\Dual-core_Communication_Demo\MASTER\obj/../Libraries/wch_libraries/Peripheral/ch32v10x_tim.c:1043
  tmpccmr2 |= (uint16_t)(TIM_OCPreload << 8);
    2168:	fda45783          	lhu	a5,-38(s0)
    216c:	07a2                	slli	a5,a5,0x8
    216e:	01079713          	slli	a4,a5,0x10
    2172:	8341                	srli	a4,a4,0x10
    2174:	fee45783          	lhu	a5,-18(s0)
    2178:	8fd9                	or	a5,a5,a4
    217a:	fef41723          	sh	a5,-18(s0)
C:\Users\windows\Desktop\A_Dual\A_Dual1\Dual-core_Communication_Demo\Dual-core_Communication_Demo\MASTER\obj/../Libraries/wch_libraries/Peripheral/ch32v10x_tim.c:1044
  TIMx->CHCTLR2 = tmpccmr2;
    217e:	fdc42783          	lw	a5,-36(s0)
    2182:	fee45703          	lhu	a4,-18(s0)
    2186:	00e79e23          	sh	a4,28(a5)
C:\Users\windows\Desktop\A_Dual\A_Dual1\Dual-core_Communication_Demo\Dual-core_Communication_Demo\MASTER\obj/../Libraries/wch_libraries/Peripheral/ch32v10x_tim.c:1045
}
    218a:	0001                	nop
    218c:	5432                	lw	s0,44(sp)
    218e:	6145                	addi	sp,sp,48
    2190:	8082                	ret

00002192 <TIM_OC1FastConfig>:
TIM_OC1FastConfig():
C:\Users\windows\Desktop\A_Dual\A_Dual1\Dual-core_Communication_Demo\Dual-core_Communication_Demo\MASTER\obj/../Libraries/wch_libraries/Peripheral/ch32v10x_tim.c:1057
*                    TIM_OCFast_Enable: TIM output compare fast enable.
*                    TIM_OCFast_Disable: TIM output compare fast disable.
* Return         : None
*******************************************************************************/
void TIM_OC1FastConfig(TIM_TypeDef* TIMx, uint16_t TIM_OCFast)
{
    2192:	7179                	addi	sp,sp,-48
    2194:	d622                	sw	s0,44(sp)
    2196:	1800                	addi	s0,sp,48
    2198:	fca42e23          	sw	a0,-36(s0)
    219c:	87ae                	mv	a5,a1
    219e:	fcf41d23          	sh	a5,-38(s0)
C:\Users\windows\Desktop\A_Dual\A_Dual1\Dual-core_Communication_Demo\Dual-core_Communication_Demo\MASTER\obj/../Libraries/wch_libraries/Peripheral/ch32v10x_tim.c:1058
  uint16_t tmpccmr1 = 0;
    21a2:	fe041723          	sh	zero,-18(s0)
C:\Users\windows\Desktop\A_Dual\A_Dual1\Dual-core_Communication_Demo\Dual-core_Communication_Demo\MASTER\obj/../Libraries/wch_libraries/Peripheral/ch32v10x_tim.c:1060

  tmpccmr1 = TIMx->CHCTLR1;
    21a6:	fdc42783          	lw	a5,-36(s0)
    21aa:	0187d783          	lhu	a5,24(a5)
    21ae:	fef41723          	sh	a5,-18(s0)
C:\Users\windows\Desktop\A_Dual\A_Dual1\Dual-core_Communication_Demo\Dual-core_Communication_Demo\MASTER\obj/../Libraries/wch_libraries/Peripheral/ch32v10x_tim.c:1061
  tmpccmr1 &= (uint16_t)~((uint16_t)TIM_OC1FE);
    21b2:	fee45783          	lhu	a5,-18(s0)
    21b6:	9bed                	andi	a5,a5,-5
    21b8:	fef41723          	sh	a5,-18(s0)
C:\Users\windows\Desktop\A_Dual\A_Dual1\Dual-core_Communication_Demo\Dual-core_Communication_Demo\MASTER\obj/../Libraries/wch_libraries/Peripheral/ch32v10x_tim.c:1062
  tmpccmr1 |= TIM_OCFast;
    21bc:	fee45703          	lhu	a4,-18(s0)
    21c0:	fda45783          	lhu	a5,-38(s0)
    21c4:	8fd9                	or	a5,a5,a4
    21c6:	fef41723          	sh	a5,-18(s0)
C:\Users\windows\Desktop\A_Dual\A_Dual1\Dual-core_Communication_Demo\Dual-core_Communication_Demo\MASTER\obj/../Libraries/wch_libraries/Peripheral/ch32v10x_tim.c:1063
  TIMx->CHCTLR1 = tmpccmr1;
    21ca:	fdc42783          	lw	a5,-36(s0)
    21ce:	fee45703          	lhu	a4,-18(s0)
    21d2:	00e79c23          	sh	a4,24(a5)
C:\Users\windows\Desktop\A_Dual\A_Dual1\Dual-core_Communication_Demo\Dual-core_Communication_Demo\MASTER\obj/../Libraries/wch_libraries/Peripheral/ch32v10x_tim.c:1064
}
    21d6:	0001                	nop
    21d8:	5432                	lw	s0,44(sp)
    21da:	6145                	addi	sp,sp,48
    21dc:	8082                	ret

000021de <TIM_OC2FastConfig>:
TIM_OC2FastConfig():
C:\Users\windows\Desktop\A_Dual\A_Dual1\Dual-core_Communication_Demo\Dual-core_Communication_Demo\MASTER\obj/../Libraries/wch_libraries/Peripheral/ch32v10x_tim.c:1076
*                    TIM_OCFast_Enable: TIM output compare fast enable.
*                    TIM_OCFast_Disable: TIM output compare fast disable.
* Return         : None
*******************************************************************************/
void TIM_OC2FastConfig(TIM_TypeDef* TIMx, uint16_t TIM_OCFast)
{
    21de:	7179                	addi	sp,sp,-48
    21e0:	d622                	sw	s0,44(sp)
    21e2:	1800                	addi	s0,sp,48
    21e4:	fca42e23          	sw	a0,-36(s0)
    21e8:	87ae                	mv	a5,a1
    21ea:	fcf41d23          	sh	a5,-38(s0)
C:\Users\windows\Desktop\A_Dual\A_Dual1\Dual-core_Communication_Demo\Dual-core_Communication_Demo\MASTER\obj/../Libraries/wch_libraries/Peripheral/ch32v10x_tim.c:1077
  uint16_t tmpccmr1 = 0;
    21ee:	fe041723          	sh	zero,-18(s0)
C:\Users\windows\Desktop\A_Dual\A_Dual1\Dual-core_Communication_Demo\Dual-core_Communication_Demo\MASTER\obj/../Libraries/wch_libraries/Peripheral/ch32v10x_tim.c:1079

  tmpccmr1 = TIMx->CHCTLR1;
    21f2:	fdc42783          	lw	a5,-36(s0)
    21f6:	0187d783          	lhu	a5,24(a5)
    21fa:	fef41723          	sh	a5,-18(s0)
C:\Users\windows\Desktop\A_Dual\A_Dual1\Dual-core_Communication_Demo\Dual-core_Communication_Demo\MASTER\obj/../Libraries/wch_libraries/Peripheral/ch32v10x_tim.c:1080
  tmpccmr1 &= (uint16_t)~((uint16_t)TIM_OC2FE);
    21fe:	fee45783          	lhu	a5,-18(s0)
    2202:	bff7f793          	andi	a5,a5,-1025
    2206:	fef41723          	sh	a5,-18(s0)
C:\Users\windows\Desktop\A_Dual\A_Dual1\Dual-core_Communication_Demo\Dual-core_Communication_Demo\MASTER\obj/../Libraries/wch_libraries/Peripheral/ch32v10x_tim.c:1081
  tmpccmr1 |= (uint16_t)(TIM_OCFast << 8);
    220a:	fda45783          	lhu	a5,-38(s0)
    220e:	07a2                	slli	a5,a5,0x8
    2210:	01079713          	slli	a4,a5,0x10
    2214:	8341                	srli	a4,a4,0x10
    2216:	fee45783          	lhu	a5,-18(s0)
    221a:	8fd9                	or	a5,a5,a4
    221c:	fef41723          	sh	a5,-18(s0)
C:\Users\windows\Desktop\A_Dual\A_Dual1\Dual-core_Communication_Demo\Dual-core_Communication_Demo\MASTER\obj/../Libraries/wch_libraries/Peripheral/ch32v10x_tim.c:1082
  TIMx->CHCTLR1 = tmpccmr1;
    2220:	fdc42783          	lw	a5,-36(s0)
    2224:	fee45703          	lhu	a4,-18(s0)
    2228:	00e79c23          	sh	a4,24(a5)
C:\Users\windows\Desktop\A_Dual\A_Dual1\Dual-core_Communication_Demo\Dual-core_Communication_Demo\MASTER\obj/../Libraries/wch_libraries/Peripheral/ch32v10x_tim.c:1083
}
    222c:	0001                	nop
    222e:	5432                	lw	s0,44(sp)
    2230:	6145                	addi	sp,sp,48
    2232:	8082                	ret

00002234 <TIM_OC3FastConfig>:
TIM_OC3FastConfig():
C:\Users\windows\Desktop\A_Dual\A_Dual1\Dual-core_Communication_Demo\Dual-core_Communication_Demo\MASTER\obj/../Libraries/wch_libraries/Peripheral/ch32v10x_tim.c:1095
*                    TIM_OCFast_Enable: TIM output compare fast enable.
*                    TIM_OCFast_Disable: TIM output compare fast disable.
* Return         : None
*******************************************************************************/
void TIM_OC3FastConfig(TIM_TypeDef* TIMx, uint16_t TIM_OCFast)
{
    2234:	7179                	addi	sp,sp,-48
    2236:	d622                	sw	s0,44(sp)
    2238:	1800                	addi	s0,sp,48
    223a:	fca42e23          	sw	a0,-36(s0)
    223e:	87ae                	mv	a5,a1
    2240:	fcf41d23          	sh	a5,-38(s0)
C:\Users\windows\Desktop\A_Dual\A_Dual1\Dual-core_Communication_Demo\Dual-core_Communication_Demo\MASTER\obj/../Libraries/wch_libraries/Peripheral/ch32v10x_tim.c:1096
  uint16_t tmpccmr2 = 0;
    2244:	fe041723          	sh	zero,-18(s0)
C:\Users\windows\Desktop\A_Dual\A_Dual1\Dual-core_Communication_Demo\Dual-core_Communication_Demo\MASTER\obj/../Libraries/wch_libraries/Peripheral/ch32v10x_tim.c:1098

  tmpccmr2 = TIMx->CHCTLR2;
    2248:	fdc42783          	lw	a5,-36(s0)
    224c:	01c7d783          	lhu	a5,28(a5)
    2250:	fef41723          	sh	a5,-18(s0)
C:\Users\windows\Desktop\A_Dual\A_Dual1\Dual-core_Communication_Demo\Dual-core_Communication_Demo\MASTER\obj/../Libraries/wch_libraries/Peripheral/ch32v10x_tim.c:1099
  tmpccmr2 &= (uint16_t)~((uint16_t)TIM_OC3FE);
    2254:	fee45783          	lhu	a5,-18(s0)
    2258:	9bed                	andi	a5,a5,-5
    225a:	fef41723          	sh	a5,-18(s0)
C:\Users\windows\Desktop\A_Dual\A_Dual1\Dual-core_Communication_Demo\Dual-core_Communication_Demo\MASTER\obj/../Libraries/wch_libraries/Peripheral/ch32v10x_tim.c:1100
  tmpccmr2 |= TIM_OCFast;	
    225e:	fee45703          	lhu	a4,-18(s0)
    2262:	fda45783          	lhu	a5,-38(s0)
    2266:	8fd9                	or	a5,a5,a4
    2268:	fef41723          	sh	a5,-18(s0)
C:\Users\windows\Desktop\A_Dual\A_Dual1\Dual-core_Communication_Demo\Dual-core_Communication_Demo\MASTER\obj/../Libraries/wch_libraries/Peripheral/ch32v10x_tim.c:1101
  TIMx->CHCTLR2 = tmpccmr2;
    226c:	fdc42783          	lw	a5,-36(s0)
    2270:	fee45703          	lhu	a4,-18(s0)
    2274:	00e79e23          	sh	a4,28(a5)
C:\Users\windows\Desktop\A_Dual\A_Dual1\Dual-core_Communication_Demo\Dual-core_Communication_Demo\MASTER\obj/../Libraries/wch_libraries/Peripheral/ch32v10x_tim.c:1102
}
    2278:	0001                	nop
    227a:	5432                	lw	s0,44(sp)
    227c:	6145                	addi	sp,sp,48
    227e:	8082                	ret

00002280 <TIM_OC4FastConfig>:
TIM_OC4FastConfig():
C:\Users\windows\Desktop\A_Dual\A_Dual1\Dual-core_Communication_Demo\Dual-core_Communication_Demo\MASTER\obj/../Libraries/wch_libraries/Peripheral/ch32v10x_tim.c:1114
*                    TIM_OCFast_Enable: TIM output compare fast enable.
*                    TIM_OCFast_Disable: TIM output compare fast disable.
* Return         : None
*******************************************************************************/
void TIM_OC4FastConfig(TIM_TypeDef* TIMx, uint16_t TIM_OCFast)
{
    2280:	7179                	addi	sp,sp,-48
    2282:	d622                	sw	s0,44(sp)
    2284:	1800                	addi	s0,sp,48
    2286:	fca42e23          	sw	a0,-36(s0)
    228a:	87ae                	mv	a5,a1
    228c:	fcf41d23          	sh	a5,-38(s0)
C:\Users\windows\Desktop\A_Dual\A_Dual1\Dual-core_Communication_Demo\Dual-core_Communication_Demo\MASTER\obj/../Libraries/wch_libraries/Peripheral/ch32v10x_tim.c:1115
  uint16_t tmpccmr2 = 0;
    2290:	fe041723          	sh	zero,-18(s0)
C:\Users\windows\Desktop\A_Dual\A_Dual1\Dual-core_Communication_Demo\Dual-core_Communication_Demo\MASTER\obj/../Libraries/wch_libraries/Peripheral/ch32v10x_tim.c:1117

  tmpccmr2 = TIMx->CHCTLR2;
    2294:	fdc42783          	lw	a5,-36(s0)
    2298:	01c7d783          	lhu	a5,28(a5)
    229c:	fef41723          	sh	a5,-18(s0)
C:\Users\windows\Desktop\A_Dual\A_Dual1\Dual-core_Communication_Demo\Dual-core_Communication_Demo\MASTER\obj/../Libraries/wch_libraries/Peripheral/ch32v10x_tim.c:1118
  tmpccmr2 &= (uint16_t)~((uint16_t)TIM_OC4FE);
    22a0:	fee45783          	lhu	a5,-18(s0)
    22a4:	bff7f793          	andi	a5,a5,-1025
    22a8:	fef41723          	sh	a5,-18(s0)
C:\Users\windows\Desktop\A_Dual\A_Dual1\Dual-core_Communication_Demo\Dual-core_Communication_Demo\MASTER\obj/../Libraries/wch_libraries/Peripheral/ch32v10x_tim.c:1119
  tmpccmr2 |= (uint16_t)(TIM_OCFast << 8);
    22ac:	fda45783          	lhu	a5,-38(s0)
    22b0:	07a2                	slli	a5,a5,0x8
    22b2:	01079713          	slli	a4,a5,0x10
    22b6:	8341                	srli	a4,a4,0x10
    22b8:	fee45783          	lhu	a5,-18(s0)
    22bc:	8fd9                	or	a5,a5,a4
    22be:	fef41723          	sh	a5,-18(s0)
C:\Users\windows\Desktop\A_Dual\A_Dual1\Dual-core_Communication_Demo\Dual-core_Communication_Demo\MASTER\obj/../Libraries/wch_libraries/Peripheral/ch32v10x_tim.c:1120
  TIMx->CHCTLR2 = tmpccmr2;
    22c2:	fdc42783          	lw	a5,-36(s0)
    22c6:	fee45703          	lhu	a4,-18(s0)
    22ca:	00e79e23          	sh	a4,28(a5)
C:\Users\windows\Desktop\A_Dual\A_Dual1\Dual-core_Communication_Demo\Dual-core_Communication_Demo\MASTER\obj/../Libraries/wch_libraries/Peripheral/ch32v10x_tim.c:1121
}
    22ce:	0001                	nop
    22d0:	5432                	lw	s0,44(sp)
    22d2:	6145                	addi	sp,sp,48
    22d4:	8082                	ret

000022d6 <TIM_GetITStatus>:
TIM_GetITStatus():
C:\Users\windows\Desktop\A_Dual\A_Dual1\Dual-core_Communication_Demo\Dual-core_Communication_Demo\MASTER\obj/../Libraries/wch_libraries/Peripheral/ch32v10x_tim.c:1853
*                    TIM_IT_Trigger: TIM Trigger Interrupt source.
*                    TIM_IT_Break: TIM Break Interrupt source.
* Return         : bitstatus: SET or RESET.
*******************************************************************************/
ITStatus TIM_GetITStatus(TIM_TypeDef* TIMx, uint16_t TIM_IT)
{
    22d6:	7179                	addi	sp,sp,-48
    22d8:	d622                	sw	s0,44(sp)
    22da:	1800                	addi	s0,sp,48
    22dc:	fca42e23          	sw	a0,-36(s0)
    22e0:	87ae                	mv	a5,a1
    22e2:	fcf41d23          	sh	a5,-38(s0)
C:\Users\windows\Desktop\A_Dual\A_Dual1\Dual-core_Communication_Demo\Dual-core_Communication_Demo\MASTER\obj/../Libraries/wch_libraries/Peripheral/ch32v10x_tim.c:1854
  ITStatus bitstatus = RESET;  
    22e6:	fe042623          	sw	zero,-20(s0)
C:\Users\windows\Desktop\A_Dual\A_Dual1\Dual-core_Communication_Demo\Dual-core_Communication_Demo\MASTER\obj/../Libraries/wch_libraries/Peripheral/ch32v10x_tim.c:1855
  uint16_t itstatus = 0x0, itenable = 0x0;
    22ea:	fe041523          	sh	zero,-22(s0)
    22ee:	fe041423          	sh	zero,-24(s0)
C:\Users\windows\Desktop\A_Dual\A_Dual1\Dual-core_Communication_Demo\Dual-core_Communication_Demo\MASTER\obj/../Libraries/wch_libraries/Peripheral/ch32v10x_tim.c:1857
   
  itstatus = TIMx->INTFR & TIM_IT;
    22f2:	fdc42783          	lw	a5,-36(s0)
    22f6:	0107d783          	lhu	a5,16(a5)
    22fa:	01079713          	slli	a4,a5,0x10
    22fe:	8341                	srli	a4,a4,0x10
    2300:	fda45783          	lhu	a5,-38(s0)
    2304:	8ff9                	and	a5,a5,a4
    2306:	fef41523          	sh	a5,-22(s0)
C:\Users\windows\Desktop\A_Dual\A_Dual1\Dual-core_Communication_Demo\Dual-core_Communication_Demo\MASTER\obj/../Libraries/wch_libraries/Peripheral/ch32v10x_tim.c:1859
  
  itenable = TIMx->DMAINTENR & TIM_IT;
    230a:	fdc42783          	lw	a5,-36(s0)
    230e:	00c7d783          	lhu	a5,12(a5)
    2312:	01079713          	slli	a4,a5,0x10
    2316:	8341                	srli	a4,a4,0x10
    2318:	fda45783          	lhu	a5,-38(s0)
    231c:	8ff9                	and	a5,a5,a4
    231e:	fef41423          	sh	a5,-24(s0)
C:\Users\windows\Desktop\A_Dual\A_Dual1\Dual-core_Communication_Demo\Dual-core_Communication_Demo\MASTER\obj/../Libraries/wch_libraries/Peripheral/ch32v10x_tim.c:1860
  if ((itstatus != (uint16_t)RESET) && (itenable != (uint16_t)RESET))
    2322:	fea45783          	lhu	a5,-22(s0)
    2326:	cb81                	beqz	a5,2336 <TIM_GetITStatus+0x60>
C:\Users\windows\Desktop\A_Dual\A_Dual1\Dual-core_Communication_Demo\Dual-core_Communication_Demo\MASTER\obj/../Libraries/wch_libraries/Peripheral/ch32v10x_tim.c:1860 (discriminator 1)
    2328:	fe845783          	lhu	a5,-24(s0)
    232c:	c789                	beqz	a5,2336 <TIM_GetITStatus+0x60>
C:\Users\windows\Desktop\A_Dual\A_Dual1\Dual-core_Communication_Demo\Dual-core_Communication_Demo\MASTER\obj/../Libraries/wch_libraries/Peripheral/ch32v10x_tim.c:1862
  {
    bitstatus = SET;
    232e:	4785                	li	a5,1
    2330:	fef42623          	sw	a5,-20(s0)
    2334:	a019                	j	233a <TIM_GetITStatus+0x64>
C:\Users\windows\Desktop\A_Dual\A_Dual1\Dual-core_Communication_Demo\Dual-core_Communication_Demo\MASTER\obj/../Libraries/wch_libraries/Peripheral/ch32v10x_tim.c:1866
  }
  else
  {
    bitstatus = RESET;
    2336:	fe042623          	sw	zero,-20(s0)
C:\Users\windows\Desktop\A_Dual\A_Dual1\Dual-core_Communication_Demo\Dual-core_Communication_Demo\MASTER\obj/../Libraries/wch_libraries/Peripheral/ch32v10x_tim.c:1869
  }
	
  return bitstatus;
    233a:	fec42783          	lw	a5,-20(s0)
C:\Users\windows\Desktop\A_Dual\A_Dual1\Dual-core_Communication_Demo\Dual-core_Communication_Demo\MASTER\obj/../Libraries/wch_libraries/Peripheral/ch32v10x_tim.c:1870
}
    233e:	853e                	mv	a0,a5
    2340:	5432                	lw	s0,44(sp)
    2342:	6145                	addi	sp,sp,48
    2344:	8082                	ret

00002346 <TIM_ClearITPendingBit>:
TIM_ClearITPendingBit():
C:\Users\windows\Desktop\A_Dual\A_Dual1\Dual-core_Communication_Demo\Dual-core_Communication_Demo\MASTER\obj/../Libraries/wch_libraries/Peripheral/ch32v10x_tim.c:1888
*                    TIM_IT_Trigger: TIM Trigger Interrupt source.
*                    TIM_IT_Break: TIM Break Interrupt source.
* Return         : None
*******************************************************************************/
void TIM_ClearITPendingBit(TIM_TypeDef* TIMx, uint16_t TIM_IT)
{
    2346:	1101                	addi	sp,sp,-32
    2348:	ce22                	sw	s0,28(sp)
    234a:	1000                	addi	s0,sp,32
    234c:	fea42623          	sw	a0,-20(s0)
    2350:	87ae                	mv	a5,a1
    2352:	fef41523          	sh	a5,-22(s0)
C:\Users\windows\Desktop\A_Dual\A_Dual1\Dual-core_Communication_Demo\Dual-core_Communication_Demo\MASTER\obj/../Libraries/wch_libraries/Peripheral/ch32v10x_tim.c:1889
  TIMx->INTFR = (uint16_t)~TIM_IT;
    2356:	fea45783          	lhu	a5,-22(s0)
    235a:	fff7c793          	not	a5,a5
    235e:	01079713          	slli	a4,a5,0x10
    2362:	8341                	srli	a4,a4,0x10
    2364:	fec42783          	lw	a5,-20(s0)
    2368:	00e79823          	sh	a4,16(a5)
C:\Users\windows\Desktop\A_Dual\A_Dual1\Dual-core_Communication_Demo\Dual-core_Communication_Demo\MASTER\obj/../Libraries/wch_libraries/Peripheral/ch32v10x_tim.c:1890
}
    236c:	0001                	nop
    236e:	4472                	lw	s0,28(sp)
    2370:	6105                	addi	sp,sp,32
    2372:	8082                	ret

00002374 <USART_Init>:
USART_Init():
C:\Users\windows\Desktop\A_Dual\A_Dual1\Dual-core_Communication_Demo\Dual-core_Communication_Demo\MASTER\obj/../Libraries/wch_libraries/Peripheral/ch32v10x_usart.c:105
*                  USART_InitStruct: pointer to a USART_InitTypeDef structure
*      that contains the configuration information for the specified USART peripheral. 
* Return         : None
*******************************************************************************/
void USART_Init(USART_TypeDef* USARTx, USART_InitTypeDef* USART_InitStruct)
{
    2374:	715d                	addi	sp,sp,-80
    2376:	c686                	sw	ra,76(sp)
    2378:	c4a2                	sw	s0,72(sp)
    237a:	0880                	addi	s0,sp,80
    237c:	faa42e23          	sw	a0,-68(s0)
    2380:	fab42c23          	sw	a1,-72(s0)
C:\Users\windows\Desktop\A_Dual\A_Dual1\Dual-core_Communication_Demo\Dual-core_Communication_Demo\MASTER\obj/../Libraries/wch_libraries/Peripheral/ch32v10x_usart.c:106
  uint32_t tmpreg = 0x00, apbclock = 0x00;
    2384:	fe042623          	sw	zero,-20(s0)
    2388:	fe042423          	sw	zero,-24(s0)
C:\Users\windows\Desktop\A_Dual\A_Dual1\Dual-core_Communication_Demo\Dual-core_Communication_Demo\MASTER\obj/../Libraries/wch_libraries/Peripheral/ch32v10x_usart.c:107
  uint32_t integerdivider = 0x00;
    238c:	fe042223          	sw	zero,-28(s0)
C:\Users\windows\Desktop\A_Dual\A_Dual1\Dual-core_Communication_Demo\Dual-core_Communication_Demo\MASTER\obj/../Libraries/wch_libraries/Peripheral/ch32v10x_usart.c:108
  uint32_t fractionaldivider = 0x00;
    2390:	fe042023          	sw	zero,-32(s0)
C:\Users\windows\Desktop\A_Dual\A_Dual1\Dual-core_Communication_Demo\Dual-core_Communication_Demo\MASTER\obj/../Libraries/wch_libraries/Peripheral/ch32v10x_usart.c:109
  uint32_t usartxbase = 0;
    2394:	fc042e23          	sw	zero,-36(s0)
C:\Users\windows\Desktop\A_Dual\A_Dual1\Dual-core_Communication_Demo\Dual-core_Communication_Demo\MASTER\obj/../Libraries/wch_libraries/Peripheral/ch32v10x_usart.c:116

  if (USART_InitStruct->USART_HardwareFlowControl != USART_HardwareFlowControl_None)
  {
  }

  usartxbase = (uint32_t)USARTx;
    2398:	fbc42783          	lw	a5,-68(s0)
    239c:	fcf42e23          	sw	a5,-36(s0)
C:\Users\windows\Desktop\A_Dual\A_Dual1\Dual-core_Communication_Demo\Dual-core_Communication_Demo\MASTER\obj/../Libraries/wch_libraries/Peripheral/ch32v10x_usart.c:117
  tmpreg = USARTx->CTLR2;
    23a0:	fbc42783          	lw	a5,-68(s0)
    23a4:	0107d783          	lhu	a5,16(a5)
    23a8:	07c2                	slli	a5,a5,0x10
    23aa:	83c1                	srli	a5,a5,0x10
    23ac:	fef42623          	sw	a5,-20(s0)
C:\Users\windows\Desktop\A_Dual\A_Dual1\Dual-core_Communication_Demo\Dual-core_Communication_Demo\MASTER\obj/../Libraries/wch_libraries/Peripheral/ch32v10x_usart.c:118
  tmpreg &= CTLR2_STOP_CLEAR_Mask;
    23b0:	fec42703          	lw	a4,-20(s0)
    23b4:	67b5                	lui	a5,0xd
    23b6:	17fd                	addi	a5,a5,-1
    23b8:	8ff9                	and	a5,a5,a4
    23ba:	fef42623          	sw	a5,-20(s0)
C:\Users\windows\Desktop\A_Dual\A_Dual1\Dual-core_Communication_Demo\Dual-core_Communication_Demo\MASTER\obj/../Libraries/wch_libraries/Peripheral/ch32v10x_usart.c:119
  tmpreg |= (uint32_t)USART_InitStruct->USART_StopBits;  
    23be:	fb842783          	lw	a5,-72(s0)
    23c2:	0067d783          	lhu	a5,6(a5) # d006 <_data_lma+0x391a>
    23c6:	873e                	mv	a4,a5
    23c8:	fec42783          	lw	a5,-20(s0)
    23cc:	8fd9                	or	a5,a5,a4
    23ce:	fef42623          	sw	a5,-20(s0)
C:\Users\windows\Desktop\A_Dual\A_Dual1\Dual-core_Communication_Demo\Dual-core_Communication_Demo\MASTER\obj/../Libraries/wch_libraries/Peripheral/ch32v10x_usart.c:121
	
  USARTx->CTLR2 = (uint16_t)tmpreg;
    23d2:	fec42783          	lw	a5,-20(s0)
    23d6:	01079713          	slli	a4,a5,0x10
    23da:	8341                	srli	a4,a4,0x10
    23dc:	fbc42783          	lw	a5,-68(s0)
    23e0:	00e79823          	sh	a4,16(a5)
C:\Users\windows\Desktop\A_Dual\A_Dual1\Dual-core_Communication_Demo\Dual-core_Communication_Demo\MASTER\obj/../Libraries/wch_libraries/Peripheral/ch32v10x_usart.c:122
  tmpreg = USARTx->CTLR1;
    23e4:	fbc42783          	lw	a5,-68(s0)
    23e8:	00c7d783          	lhu	a5,12(a5)
    23ec:	07c2                	slli	a5,a5,0x10
    23ee:	83c1                	srli	a5,a5,0x10
    23f0:	fef42623          	sw	a5,-20(s0)
C:\Users\windows\Desktop\A_Dual\A_Dual1\Dual-core_Communication_Demo\Dual-core_Communication_Demo\MASTER\obj/../Libraries/wch_libraries/Peripheral/ch32v10x_usart.c:123
  tmpreg &= CTLR1_CLEAR_Mask;
    23f4:	fec42703          	lw	a4,-20(s0)
    23f8:	67bd                	lui	a5,0xf
    23fa:	9f378793          	addi	a5,a5,-1549 # e9f3 <_data_lma+0x5307>
    23fe:	8ff9                	and	a5,a5,a4
    2400:	fef42623          	sw	a5,-20(s0)
C:\Users\windows\Desktop\A_Dual\A_Dual1\Dual-core_Communication_Demo\Dual-core_Communication_Demo\MASTER\obj/../Libraries/wch_libraries/Peripheral/ch32v10x_usart.c:124
  tmpreg |= (uint32_t)USART_InitStruct->USART_WordLength | USART_InitStruct->USART_Parity |
    2404:	fb842783          	lw	a5,-72(s0)
    2408:	0047d703          	lhu	a4,4(a5)
    240c:	fb842783          	lw	a5,-72(s0)
    2410:	0087d783          	lhu	a5,8(a5)
    2414:	8fd9                	or	a5,a5,a4
    2416:	01079713          	slli	a4,a5,0x10
    241a:	8341                	srli	a4,a4,0x10
C:\Users\windows\Desktop\A_Dual\A_Dual1\Dual-core_Communication_Demo\Dual-core_Communication_Demo\MASTER\obj/../Libraries/wch_libraries/Peripheral/ch32v10x_usart.c:125
            USART_InitStruct->USART_Mode;
    241c:	fb842783          	lw	a5,-72(s0)
    2420:	00a7d783          	lhu	a5,10(a5)
C:\Users\windows\Desktop\A_Dual\A_Dual1\Dual-core_Communication_Demo\Dual-core_Communication_Demo\MASTER\obj/../Libraries/wch_libraries/Peripheral/ch32v10x_usart.c:124
  tmpreg |= (uint32_t)USART_InitStruct->USART_WordLength | USART_InitStruct->USART_Parity |
    2424:	8fd9                	or	a5,a5,a4
    2426:	07c2                	slli	a5,a5,0x10
    2428:	83c1                	srli	a5,a5,0x10
    242a:	873e                	mv	a4,a5
    242c:	fec42783          	lw	a5,-20(s0)
    2430:	8fd9                	or	a5,a5,a4
    2432:	fef42623          	sw	a5,-20(s0)
C:\Users\windows\Desktop\A_Dual\A_Dual1\Dual-core_Communication_Demo\Dual-core_Communication_Demo\MASTER\obj/../Libraries/wch_libraries/Peripheral/ch32v10x_usart.c:126
  USARTx->CTLR1 = (uint16_t)tmpreg;
    2436:	fec42783          	lw	a5,-20(s0)
    243a:	01079713          	slli	a4,a5,0x10
    243e:	8341                	srli	a4,a4,0x10
    2440:	fbc42783          	lw	a5,-68(s0)
    2444:	00e79623          	sh	a4,12(a5)
C:\Users\windows\Desktop\A_Dual\A_Dual1\Dual-core_Communication_Demo\Dual-core_Communication_Demo\MASTER\obj/../Libraries/wch_libraries/Peripheral/ch32v10x_usart.c:128
 
  tmpreg = USARTx->CTLR3;
    2448:	fbc42783          	lw	a5,-68(s0)
    244c:	0147d783          	lhu	a5,20(a5)
    2450:	07c2                	slli	a5,a5,0x10
    2452:	83c1                	srli	a5,a5,0x10
    2454:	fef42623          	sw	a5,-20(s0)
C:\Users\windows\Desktop\A_Dual\A_Dual1\Dual-core_Communication_Demo\Dual-core_Communication_Demo\MASTER\obj/../Libraries/wch_libraries/Peripheral/ch32v10x_usart.c:129
  tmpreg &= CTLR3_CLEAR_Mask;
    2458:	fec42703          	lw	a4,-20(s0)
    245c:	67c1                	lui	a5,0x10
    245e:	cff78793          	addi	a5,a5,-769 # fcff <_data_lma+0x6613>
    2462:	8ff9                	and	a5,a5,a4
    2464:	fef42623          	sw	a5,-20(s0)
C:\Users\windows\Desktop\A_Dual\A_Dual1\Dual-core_Communication_Demo\Dual-core_Communication_Demo\MASTER\obj/../Libraries/wch_libraries/Peripheral/ch32v10x_usart.c:130
  tmpreg |= USART_InitStruct->USART_HardwareFlowControl;
    2468:	fb842783          	lw	a5,-72(s0)
    246c:	00c7d783          	lhu	a5,12(a5)
    2470:	873e                	mv	a4,a5
    2472:	fec42783          	lw	a5,-20(s0)
    2476:	8fd9                	or	a5,a5,a4
    2478:	fef42623          	sw	a5,-20(s0)
C:\Users\windows\Desktop\A_Dual\A_Dual1\Dual-core_Communication_Demo\Dual-core_Communication_Demo\MASTER\obj/../Libraries/wch_libraries/Peripheral/ch32v10x_usart.c:131
  USARTx->CTLR3 = (uint16_t)tmpreg;
    247c:	fec42783          	lw	a5,-20(s0)
    2480:	01079713          	slli	a4,a5,0x10
    2484:	8341                	srli	a4,a4,0x10
    2486:	fbc42783          	lw	a5,-68(s0)
    248a:	00e79a23          	sh	a4,20(a5)
C:\Users\windows\Desktop\A_Dual\A_Dual1\Dual-core_Communication_Demo\Dual-core_Communication_Demo\MASTER\obj/../Libraries/wch_libraries/Peripheral/ch32v10x_usart.c:133

  RCC_GetClocksFreq(&RCC_ClocksStatus);
    248e:	fc840793          	addi	a5,s0,-56
    2492:	853e                	mv	a0,a5
    2494:	ed5fe0ef          	jal	ra,1368 <RCC_GetClocksFreq>
C:\Users\windows\Desktop\A_Dual\A_Dual1\Dual-core_Communication_Demo\Dual-core_Communication_Demo\MASTER\obj/../Libraries/wch_libraries/Peripheral/ch32v10x_usart.c:135
	
  if (usartxbase == USART1_BASE)
    2498:	fdc42703          	lw	a4,-36(s0)
    249c:	400147b7          	lui	a5,0x40014
    24a0:	80078793          	addi	a5,a5,-2048 # 40013800 <_eusrstack+0x2000e800>
    24a4:	00f71763          	bne	a4,a5,24b2 <USART_Init+0x13e>
C:\Users\windows\Desktop\A_Dual\A_Dual1\Dual-core_Communication_Demo\Dual-core_Communication_Demo\MASTER\obj/../Libraries/wch_libraries/Peripheral/ch32v10x_usart.c:137
  {
    apbclock = RCC_ClocksStatus.PCLK2_Frequency;
    24a8:	fd442783          	lw	a5,-44(s0)
    24ac:	fef42423          	sw	a5,-24(s0)
    24b0:	a029                	j	24ba <USART_Init+0x146>
C:\Users\windows\Desktop\A_Dual\A_Dual1\Dual-core_Communication_Demo\Dual-core_Communication_Demo\MASTER\obj/../Libraries/wch_libraries/Peripheral/ch32v10x_usart.c:141
  }
  else
  {
    apbclock = RCC_ClocksStatus.PCLK1_Frequency;
    24b2:	fd042783          	lw	a5,-48(s0)
    24b6:	fef42423          	sw	a5,-24(s0)
C:\Users\windows\Desktop\A_Dual\A_Dual1\Dual-core_Communication_Demo\Dual-core_Communication_Demo\MASTER\obj/../Libraries/wch_libraries/Peripheral/ch32v10x_usart.c:144
  }
  
  if ((USARTx->CTLR1 & CTLR1_OVER8_Set) != 0)
    24ba:	fbc42783          	lw	a5,-68(s0)
    24be:	00c7d783          	lhu	a5,12(a5)
    24c2:	07c2                	slli	a5,a5,0x10
    24c4:	83c1                	srli	a5,a5,0x10
    24c6:	07c2                	slli	a5,a5,0x10
    24c8:	87c1                	srai	a5,a5,0x10
    24ca:	0207d263          	bgez	a5,24ee <USART_Init+0x17a>
C:\Users\windows\Desktop\A_Dual\A_Dual1\Dual-core_Communication_Demo\Dual-core_Communication_Demo\MASTER\obj/../Libraries/wch_libraries/Peripheral/ch32v10x_usart.c:146
  {
    integerdivider = ((25 * apbclock) / (2 * (USART_InitStruct->USART_BaudRate)));    
    24ce:	fe842703          	lw	a4,-24(s0)
    24d2:	87ba                	mv	a5,a4
    24d4:	0786                	slli	a5,a5,0x1
    24d6:	97ba                	add	a5,a5,a4
    24d8:	078e                	slli	a5,a5,0x3
    24da:	973e                	add	a4,a4,a5
    24dc:	fb842783          	lw	a5,-72(s0)
    24e0:	439c                	lw	a5,0(a5)
    24e2:	0786                	slli	a5,a5,0x1
    24e4:	02f757b3          	divu	a5,a4,a5
    24e8:	fef42223          	sw	a5,-28(s0)
    24ec:	a005                	j	250c <USART_Init+0x198>
C:\Users\windows\Desktop\A_Dual\A_Dual1\Dual-core_Communication_Demo\Dual-core_Communication_Demo\MASTER\obj/../Libraries/wch_libraries/Peripheral/ch32v10x_usart.c:150
  }
  else 
  {
    integerdivider = ((25 * apbclock) / (4 * (USART_InitStruct->USART_BaudRate)));    
    24ee:	fe842703          	lw	a4,-24(s0)
    24f2:	87ba                	mv	a5,a4
    24f4:	0786                	slli	a5,a5,0x1
    24f6:	97ba                	add	a5,a5,a4
    24f8:	078e                	slli	a5,a5,0x3
    24fa:	973e                	add	a4,a4,a5
    24fc:	fb842783          	lw	a5,-72(s0)
    2500:	439c                	lw	a5,0(a5)
    2502:	078a                	slli	a5,a5,0x2
    2504:	02f757b3          	divu	a5,a4,a5
    2508:	fef42223          	sw	a5,-28(s0)
C:\Users\windows\Desktop\A_Dual\A_Dual1\Dual-core_Communication_Demo\Dual-core_Communication_Demo\MASTER\obj/../Libraries/wch_libraries/Peripheral/ch32v10x_usart.c:152
  }
  tmpreg = (integerdivider / 100) << 4;
    250c:	fe442703          	lw	a4,-28(s0)
    2510:	06400793          	li	a5,100
    2514:	02f757b3          	divu	a5,a4,a5
    2518:	0792                	slli	a5,a5,0x4
    251a:	fef42623          	sw	a5,-20(s0)
C:\Users\windows\Desktop\A_Dual\A_Dual1\Dual-core_Communication_Demo\Dual-core_Communication_Demo\MASTER\obj/../Libraries/wch_libraries/Peripheral/ch32v10x_usart.c:154

  fractionaldivider = integerdivider - (100 * (tmpreg >> 4));
    251e:	fec42783          	lw	a5,-20(s0)
    2522:	0047d713          	srli	a4,a5,0x4
    2526:	06400793          	li	a5,100
    252a:	02f707b3          	mul	a5,a4,a5
    252e:	fe442703          	lw	a4,-28(s0)
    2532:	40f707b3          	sub	a5,a4,a5
    2536:	fef42023          	sw	a5,-32(s0)
C:\Users\windows\Desktop\A_Dual\A_Dual1\Dual-core_Communication_Demo\Dual-core_Communication_Demo\MASTER\obj/../Libraries/wch_libraries/Peripheral/ch32v10x_usart.c:156

  if ((USARTx->CTLR1 & CTLR1_OVER8_Set) != 0)
    253a:	fbc42783          	lw	a5,-68(s0)
    253e:	00c7d783          	lhu	a5,12(a5)
    2542:	07c2                	slli	a5,a5,0x10
    2544:	83c1                	srli	a5,a5,0x10
    2546:	07c2                	slli	a5,a5,0x10
    2548:	87c1                	srai	a5,a5,0x10
    254a:	0207d263          	bgez	a5,256e <USART_Init+0x1fa>
C:\Users\windows\Desktop\A_Dual\A_Dual1\Dual-core_Communication_Demo\Dual-core_Communication_Demo\MASTER\obj/../Libraries/wch_libraries/Peripheral/ch32v10x_usart.c:158
  {
    tmpreg |= ((((fractionaldivider * 8) + 50) / 100)) & ((uint8_t)0x07);
    254e:	fe042783          	lw	a5,-32(s0)
    2552:	078e                	slli	a5,a5,0x3
    2554:	03278713          	addi	a4,a5,50
    2558:	06400793          	li	a5,100
    255c:	02f757b3          	divu	a5,a4,a5
    2560:	8b9d                	andi	a5,a5,7
    2562:	fec42703          	lw	a4,-20(s0)
    2566:	8fd9                	or	a5,a5,a4
    2568:	fef42623          	sw	a5,-20(s0)
    256c:	a005                	j	258c <USART_Init+0x218>
C:\Users\windows\Desktop\A_Dual\A_Dual1\Dual-core_Communication_Demo\Dual-core_Communication_Demo\MASTER\obj/../Libraries/wch_libraries/Peripheral/ch32v10x_usart.c:162
  }
  else 
  {
    tmpreg |= ((((fractionaldivider * 16) + 50) / 100)) & ((uint8_t)0x0F);
    256e:	fe042783          	lw	a5,-32(s0)
    2572:	0792                	slli	a5,a5,0x4
    2574:	03278713          	addi	a4,a5,50
    2578:	06400793          	li	a5,100
    257c:	02f757b3          	divu	a5,a4,a5
    2580:	8bbd                	andi	a5,a5,15
    2582:	fec42703          	lw	a4,-20(s0)
    2586:	8fd9                	or	a5,a5,a4
    2588:	fef42623          	sw	a5,-20(s0)
C:\Users\windows\Desktop\A_Dual\A_Dual1\Dual-core_Communication_Demo\Dual-core_Communication_Demo\MASTER\obj/../Libraries/wch_libraries/Peripheral/ch32v10x_usart.c:165
  }
  
  USARTx->BRR = (uint16_t)tmpreg;
    258c:	fec42783          	lw	a5,-20(s0)
    2590:	01079713          	slli	a4,a5,0x10
    2594:	8341                	srli	a4,a4,0x10
    2596:	fbc42783          	lw	a5,-68(s0)
    259a:	00e79423          	sh	a4,8(a5)
C:\Users\windows\Desktop\A_Dual\A_Dual1\Dual-core_Communication_Demo\Dual-core_Communication_Demo\MASTER\obj/../Libraries/wch_libraries/Peripheral/ch32v10x_usart.c:166
}
    259e:	0001                	nop
    25a0:	40b6                	lw	ra,76(sp)
    25a2:	4426                	lw	s0,72(sp)
    25a4:	6161                	addi	sp,sp,80
    25a6:	8082                	ret

000025a8 <USART_Cmd>:
USART_Cmd():
C:\Users\windows\Desktop\A_Dual\A_Dual1\Dual-core_Communication_Demo\Dual-core_Communication_Demo\MASTER\obj/../Libraries/wch_libraries/Peripheral/ch32v10x_usart.c:229
* Input          : USARTx: where x can be 1, 2, 3 to select the USART peripheral.
*                  NewState: ENABLE or DISABLE.
* Return         : None
*******************************************************************************/
void USART_Cmd(USART_TypeDef* USARTx, FunctionalState NewState)
{
    25a8:	1101                	addi	sp,sp,-32
    25aa:	ce22                	sw	s0,28(sp)
    25ac:	1000                	addi	s0,sp,32
    25ae:	fea42623          	sw	a0,-20(s0)
    25b2:	feb42423          	sw	a1,-24(s0)
C:\Users\windows\Desktop\A_Dual\A_Dual1\Dual-core_Communication_Demo\Dual-core_Communication_Demo\MASTER\obj/../Libraries/wch_libraries/Peripheral/ch32v10x_usart.c:230
  if (NewState != DISABLE)
    25b6:	fe842783          	lw	a5,-24(s0)
    25ba:	c395                	beqz	a5,25de <USART_Cmd+0x36>
C:\Users\windows\Desktop\A_Dual\A_Dual1\Dual-core_Communication_Demo\Dual-core_Communication_Demo\MASTER\obj/../Libraries/wch_libraries/Peripheral/ch32v10x_usart.c:232
  {
    USARTx->CTLR1 |= CTLR1_UE_Set;
    25bc:	fec42783          	lw	a5,-20(s0)
    25c0:	00c7d783          	lhu	a5,12(a5)
    25c4:	01079713          	slli	a4,a5,0x10
    25c8:	8341                	srli	a4,a4,0x10
    25ca:	6789                	lui	a5,0x2
    25cc:	8fd9                	or	a5,a5,a4
    25ce:	01079713          	slli	a4,a5,0x10
    25d2:	8341                	srli	a4,a4,0x10
    25d4:	fec42783          	lw	a5,-20(s0)
    25d8:	00e79623          	sh	a4,12(a5) # 200c <TIM_EncoderInterfaceConfig+0x9e>
C:\Users\windows\Desktop\A_Dual\A_Dual1\Dual-core_Communication_Demo\Dual-core_Communication_Demo\MASTER\obj/../Libraries/wch_libraries/Peripheral/ch32v10x_usart.c:238
  }
  else
  {
    USARTx->CTLR1 &= CTLR1_UE_Reset;
  }
}
    25dc:	a015                	j	2600 <USART_Cmd+0x58>
C:\Users\windows\Desktop\A_Dual\A_Dual1\Dual-core_Communication_Demo\Dual-core_Communication_Demo\MASTER\obj/../Libraries/wch_libraries/Peripheral/ch32v10x_usart.c:236
    USARTx->CTLR1 &= CTLR1_UE_Reset;
    25de:	fec42783          	lw	a5,-20(s0)
    25e2:	00c7d783          	lhu	a5,12(a5)
    25e6:	01079713          	slli	a4,a5,0x10
    25ea:	8341                	srli	a4,a4,0x10
    25ec:	77f9                	lui	a5,0xffffe
    25ee:	17fd                	addi	a5,a5,-1
    25f0:	8ff9                	and	a5,a5,a4
    25f2:	01079713          	slli	a4,a5,0x10
    25f6:	8341                	srli	a4,a4,0x10
    25f8:	fec42783          	lw	a5,-20(s0)
    25fc:	00e79623          	sh	a4,12(a5) # ffffe00c <_eusrstack+0xdfff900c>
C:\Users\windows\Desktop\A_Dual\A_Dual1\Dual-core_Communication_Demo\Dual-core_Communication_Demo\MASTER\obj/../Libraries/wch_libraries/Peripheral/ch32v10x_usart.c:238
}
    2600:	0001                	nop
    2602:	4472                	lw	s0,28(sp)
    2604:	6105                	addi	sp,sp,32
    2606:	8082                	ret

00002608 <USART_ITConfig>:
USART_ITConfig():
C:\Users\windows\Desktop\A_Dual\A_Dual1\Dual-core_Communication_Demo\Dual-core_Communication_Demo\MASTER\obj/../Libraries/wch_libraries/Peripheral/ch32v10x_usart.c:257
*                    USART_IT_ERR:  Error interrupt.
*                  NewState: ENABLE or DISABLE.
* Return         : None
*******************************************************************************/
void USART_ITConfig(USART_TypeDef* USARTx, uint16_t USART_IT, FunctionalState NewState)
{
    2608:	7179                	addi	sp,sp,-48
    260a:	d622                	sw	s0,44(sp)
    260c:	1800                	addi	s0,sp,48
    260e:	fca42e23          	sw	a0,-36(s0)
    2612:	87ae                	mv	a5,a1
    2614:	fcc42a23          	sw	a2,-44(s0)
    2618:	fcf41d23          	sh	a5,-38(s0)
C:\Users\windows\Desktop\A_Dual\A_Dual1\Dual-core_Communication_Demo\Dual-core_Communication_Demo\MASTER\obj/../Libraries/wch_libraries/Peripheral/ch32v10x_usart.c:258
  uint32_t usartreg = 0x00, itpos = 0x00, itmask = 0x00;
    261c:	fe042423          	sw	zero,-24(s0)
    2620:	fe042223          	sw	zero,-28(s0)
    2624:	fe042023          	sw	zero,-32(s0)
C:\Users\windows\Desktop\A_Dual\A_Dual1\Dual-core_Communication_Demo\Dual-core_Communication_Demo\MASTER\obj/../Libraries/wch_libraries/Peripheral/ch32v10x_usart.c:259
  uint32_t usartxbase = 0x00;
    2628:	fe042623          	sw	zero,-20(s0)
C:\Users\windows\Desktop\A_Dual\A_Dual1\Dual-core_Communication_Demo\Dual-core_Communication_Demo\MASTER\obj/../Libraries/wch_libraries/Peripheral/ch32v10x_usart.c:265

  if (USART_IT == USART_IT_CTS)
  {
  }   
  
  usartxbase = (uint32_t)USARTx;
    262c:	fdc42783          	lw	a5,-36(s0)
    2630:	fef42623          	sw	a5,-20(s0)
C:\Users\windows\Desktop\A_Dual\A_Dual1\Dual-core_Communication_Demo\Dual-core_Communication_Demo\MASTER\obj/../Libraries/wch_libraries/Peripheral/ch32v10x_usart.c:266
  usartreg = (((uint8_t)USART_IT) >> 0x05);
    2634:	fda45783          	lhu	a5,-38(s0)
    2638:	0ff7f793          	andi	a5,a5,255
    263c:	8395                	srli	a5,a5,0x5
    263e:	0ff7f793          	andi	a5,a5,255
    2642:	fef42423          	sw	a5,-24(s0)
C:\Users\windows\Desktop\A_Dual\A_Dual1\Dual-core_Communication_Demo\Dual-core_Communication_Demo\MASTER\obj/../Libraries/wch_libraries/Peripheral/ch32v10x_usart.c:267
  itpos = USART_IT & IT_Mask;
    2646:	fda45783          	lhu	a5,-38(s0)
    264a:	8bfd                	andi	a5,a5,31
    264c:	fef42223          	sw	a5,-28(s0)
C:\Users\windows\Desktop\A_Dual\A_Dual1\Dual-core_Communication_Demo\Dual-core_Communication_Demo\MASTER\obj/../Libraries/wch_libraries/Peripheral/ch32v10x_usart.c:268
  itmask = (((uint32_t)0x01) << itpos);
    2650:	fe442783          	lw	a5,-28(s0)
    2654:	4705                	li	a4,1
    2656:	00f717b3          	sll	a5,a4,a5
    265a:	fef42023          	sw	a5,-32(s0)
C:\Users\windows\Desktop\A_Dual\A_Dual1\Dual-core_Communication_Demo\Dual-core_Communication_Demo\MASTER\obj/../Libraries/wch_libraries/Peripheral/ch32v10x_usart.c:270
    
  if (usartreg == 0x01) 
    265e:	fe842703          	lw	a4,-24(s0)
    2662:	4785                	li	a5,1
    2664:	00f71863          	bne	a4,a5,2674 <USART_ITConfig+0x6c>
C:\Users\windows\Desktop\A_Dual\A_Dual1\Dual-core_Communication_Demo\Dual-core_Communication_Demo\MASTER\obj/../Libraries/wch_libraries/Peripheral/ch32v10x_usart.c:272
  {
    usartxbase += 0x0C;
    2668:	fec42783          	lw	a5,-20(s0)
    266c:	07b1                	addi	a5,a5,12
    266e:	fef42623          	sw	a5,-20(s0)
    2672:	a00d                	j	2694 <USART_ITConfig+0x8c>
C:\Users\windows\Desktop\A_Dual\A_Dual1\Dual-core_Communication_Demo\Dual-core_Communication_Demo\MASTER\obj/../Libraries/wch_libraries/Peripheral/ch32v10x_usart.c:274
  }
  else if (usartreg == 0x02) 
    2674:	fe842703          	lw	a4,-24(s0)
    2678:	4789                	li	a5,2
    267a:	00f71863          	bne	a4,a5,268a <USART_ITConfig+0x82>
C:\Users\windows\Desktop\A_Dual\A_Dual1\Dual-core_Communication_Demo\Dual-core_Communication_Demo\MASTER\obj/../Libraries/wch_libraries/Peripheral/ch32v10x_usart.c:276
  {
    usartxbase += 0x10;
    267e:	fec42783          	lw	a5,-20(s0)
    2682:	07c1                	addi	a5,a5,16
    2684:	fef42623          	sw	a5,-20(s0)
    2688:	a031                	j	2694 <USART_ITConfig+0x8c>
C:\Users\windows\Desktop\A_Dual\A_Dual1\Dual-core_Communication_Demo\Dual-core_Communication_Demo\MASTER\obj/../Libraries/wch_libraries/Peripheral/ch32v10x_usart.c:280
  }
  else 
  {
    usartxbase += 0x14; 
    268a:	fec42783          	lw	a5,-20(s0)
    268e:	07d1                	addi	a5,a5,20
    2690:	fef42623          	sw	a5,-20(s0)
C:\Users\windows\Desktop\A_Dual\A_Dual1\Dual-core_Communication_Demo\Dual-core_Communication_Demo\MASTER\obj/../Libraries/wch_libraries/Peripheral/ch32v10x_usart.c:283
  }
	
  if (NewState != DISABLE)
    2694:	fd442783          	lw	a5,-44(s0)
    2698:	cb99                	beqz	a5,26ae <USART_ITConfig+0xa6>
C:\Users\windows\Desktop\A_Dual\A_Dual1\Dual-core_Communication_Demo\Dual-core_Communication_Demo\MASTER\obj/../Libraries/wch_libraries/Peripheral/ch32v10x_usart.c:285
  {
    *(__IO uint32_t*)usartxbase  |= itmask;
    269a:	fec42783          	lw	a5,-20(s0)
    269e:	4394                	lw	a3,0(a5)
    26a0:	fec42783          	lw	a5,-20(s0)
    26a4:	fe042703          	lw	a4,-32(s0)
    26a8:	8f55                	or	a4,a4,a3
    26aa:	c398                	sw	a4,0(a5)
C:\Users\windows\Desktop\A_Dual\A_Dual1\Dual-core_Communication_Demo\Dual-core_Communication_Demo\MASTER\obj/../Libraries/wch_libraries/Peripheral/ch32v10x_usart.c:291
  }
  else
  {
    *(__IO uint32_t*)usartxbase &= ~itmask;
  }
}
    26ac:	a821                	j	26c4 <USART_ITConfig+0xbc>
C:\Users\windows\Desktop\A_Dual\A_Dual1\Dual-core_Communication_Demo\Dual-core_Communication_Demo\MASTER\obj/../Libraries/wch_libraries/Peripheral/ch32v10x_usart.c:289
    *(__IO uint32_t*)usartxbase &= ~itmask;
    26ae:	fec42783          	lw	a5,-20(s0)
    26b2:	4394                	lw	a3,0(a5)
    26b4:	fe042783          	lw	a5,-32(s0)
    26b8:	fff7c713          	not	a4,a5
    26bc:	fec42783          	lw	a5,-20(s0)
    26c0:	8f75                	and	a4,a4,a3
    26c2:	c398                	sw	a4,0(a5)
C:\Users\windows\Desktop\A_Dual\A_Dual1\Dual-core_Communication_Demo\Dual-core_Communication_Demo\MASTER\obj/../Libraries/wch_libraries/Peripheral/ch32v10x_usart.c:291
}
    26c4:	0001                	nop
    26c6:	5432                	lw	s0,44(sp)
    26c8:	6145                	addi	sp,sp,48
    26ca:	8082                	ret

000026cc <USART_SendData>:
USART_SendData():
C:\Users\windows\Desktop\A_Dual\A_Dual1\Dual-core_Communication_Demo\Dual-core_Communication_Demo\MASTER\obj/../Libraries/wch_libraries/Peripheral/ch32v10x_usart.c:404
* Input          : USARTx: where x can be 1, 2, 3 to select the USART peripheral.
*                  Data: the data to transmit..
* Return         : None
*******************************************************************************/
void USART_SendData(USART_TypeDef* USARTx, uint16_t Data)
{
    26cc:	1101                	addi	sp,sp,-32
    26ce:	ce22                	sw	s0,28(sp)
    26d0:	1000                	addi	s0,sp,32
    26d2:	fea42623          	sw	a0,-20(s0)
    26d6:	87ae                	mv	a5,a1
    26d8:	fef41523          	sh	a5,-22(s0)
C:\Users\windows\Desktop\A_Dual\A_Dual1\Dual-core_Communication_Demo\Dual-core_Communication_Demo\MASTER\obj/../Libraries/wch_libraries/Peripheral/ch32v10x_usart.c:405
  USARTx->DATAR = (Data & (uint16_t)0x01FF);
    26dc:	fea45783          	lhu	a5,-22(s0)
    26e0:	1ff7f793          	andi	a5,a5,511
    26e4:	01079713          	slli	a4,a5,0x10
    26e8:	8341                	srli	a4,a4,0x10
    26ea:	fec42783          	lw	a5,-20(s0)
    26ee:	00e79223          	sh	a4,4(a5)
C:\Users\windows\Desktop\A_Dual\A_Dual1\Dual-core_Communication_Demo\Dual-core_Communication_Demo\MASTER\obj/../Libraries/wch_libraries/Peripheral/ch32v10x_usart.c:406
}
    26f2:	0001                	nop
    26f4:	4472                	lw	s0,28(sp)
    26f6:	6105                	addi	sp,sp,32
    26f8:	8082                	ret

000026fa <USART_ReceiveData>:
USART_ReceiveData():
C:\Users\windows\Desktop\A_Dual\A_Dual1\Dual-core_Communication_Demo\Dual-core_Communication_Demo\MASTER\obj/../Libraries/wch_libraries/Peripheral/ch32v10x_usart.c:415
* Description    : Returns the most recent received data by the USARTx peripheral.
* Input          : USARTx: where x can be 1, 2, 3 to select the USART peripheral.
* Return         : The received data.
*******************************************************************************/
uint16_t USART_ReceiveData(USART_TypeDef* USARTx)
{
    26fa:	1101                	addi	sp,sp,-32
    26fc:	ce22                	sw	s0,28(sp)
    26fe:	1000                	addi	s0,sp,32
    2700:	fea42623          	sw	a0,-20(s0)
C:\Users\windows\Desktop\A_Dual\A_Dual1\Dual-core_Communication_Demo\Dual-core_Communication_Demo\MASTER\obj/../Libraries/wch_libraries/Peripheral/ch32v10x_usart.c:416
  return (uint16_t)(USARTx->DATAR & (uint16_t)0x01FF);
    2704:	fec42783          	lw	a5,-20(s0)
    2708:	0047d783          	lhu	a5,4(a5)
    270c:	07c2                	slli	a5,a5,0x10
    270e:	83c1                	srli	a5,a5,0x10
    2710:	1ff7f793          	andi	a5,a5,511
    2714:	07c2                	slli	a5,a5,0x10
    2716:	83c1                	srli	a5,a5,0x10
C:\Users\windows\Desktop\A_Dual\A_Dual1\Dual-core_Communication_Demo\Dual-core_Communication_Demo\MASTER\obj/../Libraries/wch_libraries/Peripheral/ch32v10x_usart.c:417
}
    2718:	853e                	mv	a0,a5
    271a:	4472                	lw	s0,28(sp)
    271c:	6105                	addi	sp,sp,32
    271e:	8082                	ret

00002720 <USART_GetFlagStatus>:
USART_GetFlagStatus():
C:\Users\windows\Desktop\A_Dual\A_Dual1\Dual-core_Communication_Demo\Dual-core_Communication_Demo\MASTER\obj/../Libraries/wch_libraries/Peripheral/ch32v10x_usart.c:603
*                    USART_FLAG_FE: Framing Error flag.
*                    USART_FLAG_PE: Parity Error flag.
* Return         : bitstatus: SET or RESET.
*******************************************************************************/
FlagStatus USART_GetFlagStatus(USART_TypeDef* USARTx, uint16_t USART_FLAG)
{
    2720:	7179                	addi	sp,sp,-48
    2722:	d622                	sw	s0,44(sp)
    2724:	1800                	addi	s0,sp,48
    2726:	fca42e23          	sw	a0,-36(s0)
    272a:	87ae                	mv	a5,a1
    272c:	fcf41d23          	sh	a5,-38(s0)
C:\Users\windows\Desktop\A_Dual\A_Dual1\Dual-core_Communication_Demo\Dual-core_Communication_Demo\MASTER\obj/../Libraries/wch_libraries/Peripheral/ch32v10x_usart.c:604
  FlagStatus bitstatus = RESET;
    2730:	fe042623          	sw	zero,-20(s0)
C:\Users\windows\Desktop\A_Dual\A_Dual1\Dual-core_Communication_Demo\Dual-core_Communication_Demo\MASTER\obj/../Libraries/wch_libraries/Peripheral/ch32v10x_usart.c:610

  if (USART_FLAG == USART_FLAG_CTS)
  {
  }  
  
  if ((USARTx->STATR & USART_FLAG) != (uint16_t)RESET)
    2734:	fdc42783          	lw	a5,-36(s0)
    2738:	0007d783          	lhu	a5,0(a5)
    273c:	01079713          	slli	a4,a5,0x10
    2740:	8341                	srli	a4,a4,0x10
    2742:	fda45783          	lhu	a5,-38(s0)
    2746:	8ff9                	and	a5,a5,a4
    2748:	07c2                	slli	a5,a5,0x10
    274a:	83c1                	srli	a5,a5,0x10
    274c:	c789                	beqz	a5,2756 <USART_GetFlagStatus+0x36>
C:\Users\windows\Desktop\A_Dual\A_Dual1\Dual-core_Communication_Demo\Dual-core_Communication_Demo\MASTER\obj/../Libraries/wch_libraries/Peripheral/ch32v10x_usart.c:612
  {
    bitstatus = SET;
    274e:	4785                	li	a5,1
    2750:	fef42623          	sw	a5,-20(s0)
    2754:	a019                	j	275a <USART_GetFlagStatus+0x3a>
C:\Users\windows\Desktop\A_Dual\A_Dual1\Dual-core_Communication_Demo\Dual-core_Communication_Demo\MASTER\obj/../Libraries/wch_libraries/Peripheral/ch32v10x_usart.c:616
  }
  else
  {
    bitstatus = RESET;
    2756:	fe042623          	sw	zero,-20(s0)
C:\Users\windows\Desktop\A_Dual\A_Dual1\Dual-core_Communication_Demo\Dual-core_Communication_Demo\MASTER\obj/../Libraries/wch_libraries/Peripheral/ch32v10x_usart.c:618
  }
  return bitstatus;
    275a:	fec42783          	lw	a5,-20(s0)
C:\Users\windows\Desktop\A_Dual\A_Dual1\Dual-core_Communication_Demo\Dual-core_Communication_Demo\MASTER\obj/../Libraries/wch_libraries/Peripheral/ch32v10x_usart.c:619
}
    275e:	853e                	mv	a0,a5
    2760:	5432                	lw	s0,44(sp)
    2762:	6145                	addi	sp,sp,48
    2764:	8082                	ret

00002766 <USART_GetITStatus>:
USART_GetITStatus():
C:\Users\windows\Desktop\A_Dual\A_Dual1\Dual-core_Communication_Demo\Dual-core_Communication_Demo\MASTER\obj/../Libraries/wch_libraries/Peripheral/ch32v10x_usart.c:660
*                    USART_IT_FE: Framing Error interrupt.
*                    USART_IT_PE: Parity Error interrupt.
* Return         : bitstatus: SET or RESET.
*******************************************************************************/
ITStatus USART_GetITStatus(USART_TypeDef* USARTx, uint16_t USART_IT)
{
    2766:	7179                	addi	sp,sp,-48
    2768:	d622                	sw	s0,44(sp)
    276a:	1800                	addi	s0,sp,48
    276c:	fca42e23          	sw	a0,-36(s0)
    2770:	87ae                	mv	a5,a1
    2772:	fcf41d23          	sh	a5,-38(s0)
C:\Users\windows\Desktop\A_Dual\A_Dual1\Dual-core_Communication_Demo\Dual-core_Communication_Demo\MASTER\obj/../Libraries/wch_libraries/Peripheral/ch32v10x_usart.c:661
  uint32_t bitpos = 0x00, itmask = 0x00, usartreg = 0x00;
    2776:	fe042223          	sw	zero,-28(s0)
    277a:	fe042623          	sw	zero,-20(s0)
    277e:	fe042023          	sw	zero,-32(s0)
C:\Users\windows\Desktop\A_Dual\A_Dual1\Dual-core_Communication_Demo\Dual-core_Communication_Demo\MASTER\obj/../Libraries/wch_libraries/Peripheral/ch32v10x_usart.c:662
  ITStatus bitstatus = RESET;
    2782:	fe042423          	sw	zero,-24(s0)
C:\Users\windows\Desktop\A_Dual\A_Dual1\Dual-core_Communication_Demo\Dual-core_Communication_Demo\MASTER\obj/../Libraries/wch_libraries/Peripheral/ch32v10x_usart.c:668

  if (USART_IT == USART_IT_CTS)
  {
  }   
  
  usartreg = (((uint8_t)USART_IT) >> 0x05);
    2786:	fda45783          	lhu	a5,-38(s0)
    278a:	0ff7f793          	andi	a5,a5,255
    278e:	8395                	srli	a5,a5,0x5
    2790:	0ff7f793          	andi	a5,a5,255
    2794:	fef42023          	sw	a5,-32(s0)
C:\Users\windows\Desktop\A_Dual\A_Dual1\Dual-core_Communication_Demo\Dual-core_Communication_Demo\MASTER\obj/../Libraries/wch_libraries/Peripheral/ch32v10x_usart.c:669
  itmask = USART_IT & IT_Mask;
    2798:	fda45783          	lhu	a5,-38(s0)
    279c:	8bfd                	andi	a5,a5,31
    279e:	fef42623          	sw	a5,-20(s0)
C:\Users\windows\Desktop\A_Dual\A_Dual1\Dual-core_Communication_Demo\Dual-core_Communication_Demo\MASTER\obj/../Libraries/wch_libraries/Peripheral/ch32v10x_usart.c:670
  itmask = (uint32_t)0x01 << itmask;
    27a2:	fec42783          	lw	a5,-20(s0)
    27a6:	4705                	li	a4,1
    27a8:	00f717b3          	sll	a5,a4,a5
    27ac:	fef42623          	sw	a5,-20(s0)
C:\Users\windows\Desktop\A_Dual\A_Dual1\Dual-core_Communication_Demo\Dual-core_Communication_Demo\MASTER\obj/../Libraries/wch_libraries/Peripheral/ch32v10x_usart.c:672
  
  if (usartreg == 0x01) 
    27b0:	fe042703          	lw	a4,-32(s0)
    27b4:	4785                	li	a5,1
    27b6:	00f71f63          	bne	a4,a5,27d4 <USART_GetITStatus+0x6e>
C:\Users\windows\Desktop\A_Dual\A_Dual1\Dual-core_Communication_Demo\Dual-core_Communication_Demo\MASTER\obj/../Libraries/wch_libraries/Peripheral/ch32v10x_usart.c:674
  {
    itmask &= USARTx->CTLR1;
    27ba:	fdc42783          	lw	a5,-36(s0)
    27be:	00c7d783          	lhu	a5,12(a5)
    27c2:	07c2                	slli	a5,a5,0x10
    27c4:	83c1                	srli	a5,a5,0x10
    27c6:	873e                	mv	a4,a5
    27c8:	fec42783          	lw	a5,-20(s0)
    27cc:	8ff9                	and	a5,a5,a4
    27ce:	fef42623          	sw	a5,-20(s0)
    27d2:	a83d                	j	2810 <USART_GetITStatus+0xaa>
C:\Users\windows\Desktop\A_Dual\A_Dual1\Dual-core_Communication_Demo\Dual-core_Communication_Demo\MASTER\obj/../Libraries/wch_libraries/Peripheral/ch32v10x_usart.c:676
  }
  else if (usartreg == 0x02) 
    27d4:	fe042703          	lw	a4,-32(s0)
    27d8:	4789                	li	a5,2
    27da:	00f71f63          	bne	a4,a5,27f8 <USART_GetITStatus+0x92>
C:\Users\windows\Desktop\A_Dual\A_Dual1\Dual-core_Communication_Demo\Dual-core_Communication_Demo\MASTER\obj/../Libraries/wch_libraries/Peripheral/ch32v10x_usart.c:678
  {
    itmask &= USARTx->CTLR2;
    27de:	fdc42783          	lw	a5,-36(s0)
    27e2:	0107d783          	lhu	a5,16(a5)
    27e6:	07c2                	slli	a5,a5,0x10
    27e8:	83c1                	srli	a5,a5,0x10
    27ea:	873e                	mv	a4,a5
    27ec:	fec42783          	lw	a5,-20(s0)
    27f0:	8ff9                	and	a5,a5,a4
    27f2:	fef42623          	sw	a5,-20(s0)
    27f6:	a829                	j	2810 <USART_GetITStatus+0xaa>
C:\Users\windows\Desktop\A_Dual\A_Dual1\Dual-core_Communication_Demo\Dual-core_Communication_Demo\MASTER\obj/../Libraries/wch_libraries/Peripheral/ch32v10x_usart.c:682
  }
  else 
  {
    itmask &= USARTx->CTLR3;
    27f8:	fdc42783          	lw	a5,-36(s0)
    27fc:	0147d783          	lhu	a5,20(a5)
    2800:	07c2                	slli	a5,a5,0x10
    2802:	83c1                	srli	a5,a5,0x10
    2804:	873e                	mv	a4,a5
    2806:	fec42783          	lw	a5,-20(s0)
    280a:	8ff9                	and	a5,a5,a4
    280c:	fef42623          	sw	a5,-20(s0)
C:\Users\windows\Desktop\A_Dual\A_Dual1\Dual-core_Communication_Demo\Dual-core_Communication_Demo\MASTER\obj/../Libraries/wch_libraries/Peripheral/ch32v10x_usart.c:685
  }
  
  bitpos = USART_IT >> 0x08;
    2810:	fda45783          	lhu	a5,-38(s0)
    2814:	83a1                	srli	a5,a5,0x8
    2816:	07c2                	slli	a5,a5,0x10
    2818:	83c1                	srli	a5,a5,0x10
    281a:	fef42223          	sw	a5,-28(s0)
C:\Users\windows\Desktop\A_Dual\A_Dual1\Dual-core_Communication_Demo\Dual-core_Communication_Demo\MASTER\obj/../Libraries/wch_libraries/Peripheral/ch32v10x_usart.c:686
  bitpos = (uint32_t)0x01 << bitpos;
    281e:	fe442783          	lw	a5,-28(s0)
    2822:	4705                	li	a4,1
    2824:	00f717b3          	sll	a5,a4,a5
    2828:	fef42223          	sw	a5,-28(s0)
C:\Users\windows\Desktop\A_Dual\A_Dual1\Dual-core_Communication_Demo\Dual-core_Communication_Demo\MASTER\obj/../Libraries/wch_libraries/Peripheral/ch32v10x_usart.c:687
  bitpos &= USARTx->STATR;
    282c:	fdc42783          	lw	a5,-36(s0)
    2830:	0007d783          	lhu	a5,0(a5)
    2834:	07c2                	slli	a5,a5,0x10
    2836:	83c1                	srli	a5,a5,0x10
    2838:	873e                	mv	a4,a5
    283a:	fe442783          	lw	a5,-28(s0)
    283e:	8ff9                	and	a5,a5,a4
    2840:	fef42223          	sw	a5,-28(s0)
C:\Users\windows\Desktop\A_Dual\A_Dual1\Dual-core_Communication_Demo\Dual-core_Communication_Demo\MASTER\obj/../Libraries/wch_libraries/Peripheral/ch32v10x_usart.c:689
	
  if ((itmask != (uint16_t)RESET)&&(bitpos != (uint16_t)RESET))
    2844:	fec42783          	lw	a5,-20(s0)
    2848:	cb81                	beqz	a5,2858 <USART_GetITStatus+0xf2>
C:\Users\windows\Desktop\A_Dual\A_Dual1\Dual-core_Communication_Demo\Dual-core_Communication_Demo\MASTER\obj/../Libraries/wch_libraries/Peripheral/ch32v10x_usart.c:689 (discriminator 1)
    284a:	fe442783          	lw	a5,-28(s0)
    284e:	c789                	beqz	a5,2858 <USART_GetITStatus+0xf2>
C:\Users\windows\Desktop\A_Dual\A_Dual1\Dual-core_Communication_Demo\Dual-core_Communication_Demo\MASTER\obj/../Libraries/wch_libraries/Peripheral/ch32v10x_usart.c:691
  {
    bitstatus = SET;
    2850:	4785                	li	a5,1
    2852:	fef42423          	sw	a5,-24(s0)
    2856:	a019                	j	285c <USART_GetITStatus+0xf6>
C:\Users\windows\Desktop\A_Dual\A_Dual1\Dual-core_Communication_Demo\Dual-core_Communication_Demo\MASTER\obj/../Libraries/wch_libraries/Peripheral/ch32v10x_usart.c:695
  }
  else
  {
    bitstatus = RESET;
    2858:	fe042423          	sw	zero,-24(s0)
C:\Users\windows\Desktop\A_Dual\A_Dual1\Dual-core_Communication_Demo\Dual-core_Communication_Demo\MASTER\obj/../Libraries/wch_libraries/Peripheral/ch32v10x_usart.c:698
  }
  
  return bitstatus;  
    285c:	fe842783          	lw	a5,-24(s0)
C:\Users\windows\Desktop\A_Dual\A_Dual1\Dual-core_Communication_Demo\Dual-core_Communication_Demo\MASTER\obj/../Libraries/wch_libraries/Peripheral/ch32v10x_usart.c:699
}
    2860:	853e                	mv	a0,a5
    2862:	5432                	lw	s0,44(sp)
    2864:	6145                	addi	sp,sp,48
    2866:	8082                	ret

00002868 <USART_ClearITPendingBit>:
USART_ClearITPendingBit():
C:\Users\windows\Desktop\A_Dual\A_Dual1\Dual-core_Communication_Demo\Dual-core_Communication_Demo\MASTER\obj/../Libraries/wch_libraries/Peripheral/ch32v10x_usart.c:713
*                    USART_IT_TC:   Transmission complete interrupt.
*                    USART_IT_RXNE: Receive Data register not empty interrupt.
* Return         : None
*******************************************************************************/
void USART_ClearITPendingBit(USART_TypeDef* USARTx, uint16_t USART_IT)
{
    2868:	7179                	addi	sp,sp,-48
    286a:	d622                	sw	s0,44(sp)
    286c:	1800                	addi	s0,sp,48
    286e:	fca42e23          	sw	a0,-36(s0)
    2872:	87ae                	mv	a5,a1
    2874:	fcf41d23          	sh	a5,-38(s0)
C:\Users\windows\Desktop\A_Dual\A_Dual1\Dual-core_Communication_Demo\Dual-core_Communication_Demo\MASTER\obj/../Libraries/wch_libraries/Peripheral/ch32v10x_usart.c:714
  uint16_t bitpos = 0x00, itmask = 0x00;
    2878:	fe041723          	sh	zero,-18(s0)
    287c:	fe041623          	sh	zero,-20(s0)
C:\Users\windows\Desktop\A_Dual\A_Dual1\Dual-core_Communication_Demo\Dual-core_Communication_Demo\MASTER\obj/../Libraries/wch_libraries/Peripheral/ch32v10x_usart.c:720

  if (USART_IT == USART_IT_CTS)
  {
  }   
  
  bitpos = USART_IT >> 0x08;
    2880:	fda45783          	lhu	a5,-38(s0)
    2884:	83a1                	srli	a5,a5,0x8
    2886:	fef41723          	sh	a5,-18(s0)
C:\Users\windows\Desktop\A_Dual\A_Dual1\Dual-core_Communication_Demo\Dual-core_Communication_Demo\MASTER\obj/../Libraries/wch_libraries/Peripheral/ch32v10x_usart.c:721
  itmask = ((uint16_t)0x01 << (uint16_t)bitpos);
    288a:	fee45783          	lhu	a5,-18(s0)
    288e:	4705                	li	a4,1
    2890:	00f717b3          	sll	a5,a4,a5
    2894:	fef41623          	sh	a5,-20(s0)
C:\Users\windows\Desktop\A_Dual\A_Dual1\Dual-core_Communication_Demo\Dual-core_Communication_Demo\MASTER\obj/../Libraries/wch_libraries/Peripheral/ch32v10x_usart.c:722
  USARTx->STATR = (uint16_t)~itmask;
    2898:	fec45783          	lhu	a5,-20(s0)
    289c:	fff7c793          	not	a5,a5
    28a0:	01079713          	slli	a4,a5,0x10
    28a4:	8341                	srli	a4,a4,0x10
    28a6:	fdc42783          	lw	a5,-36(s0)
    28aa:	00e79023          	sh	a4,0(a5)
C:\Users\windows\Desktop\A_Dual\A_Dual1\Dual-core_Communication_Demo\Dual-core_Communication_Demo\MASTER\obj/../Libraries/wch_libraries/Peripheral/ch32v10x_usart.c:723
}
    28ae:	0001                	nop
    28b0:	5432                	lw	s0,44(sp)
    28b2:	6145                	addi	sp,sp,48
    28b4:	8082                	ret

000028b6 <lcd_writeIndex>:
lcd_writeIndex():
C:\Users\windows\Desktop\A_Dual\A_Dual1\Dual-core_Communication_Demo\Dual-core_Communication_Demo\MASTER\obj/../Libraries/seekfree_peripheral/SEEKFREE_18TFT.c:47
#include "SEEKFREE_18TFT.h"



void  lcd_writeIndex(uint8 dat)         //
{
    28b6:	1101                	addi	sp,sp,-32
    28b8:	ce06                	sw	ra,28(sp)
    28ba:	cc22                	sw	s0,24(sp)
    28bc:	1000                	addi	s0,sp,32
    28be:	87aa                	mv	a5,a0
    28c0:	fef407a3          	sb	a5,-17(s0)
C:\Users\windows\Desktop\A_Dual\A_Dual1\Dual-core_Communication_Demo\Dual-core_Communication_Demo\MASTER\obj/../Libraries/seekfree_peripheral/SEEKFREE_18TFT.c:48
    TFT_CS(0);
    28c4:	67a5                	lui	a5,0x9
    28c6:	45078793          	addi	a5,a5,1104 # 9450 <GPION>
    28ca:	479c                	lw	a5,8(a5)
    28cc:	873e                	mv	a4,a5
    28ce:	67a1                	lui	a5,0x8
    28d0:	cb5c                	sw	a5,20(a4)
C:\Users\windows\Desktop\A_Dual\A_Dual1\Dual-core_Communication_Demo\Dual-core_Communication_Demo\MASTER\obj/../Libraries/seekfree_peripheral/SEEKFREE_18TFT.c:49
    TFT_DC(0);
    28d2:	67a5                	lui	a5,0x9
    28d4:	45078793          	addi	a5,a5,1104 # 9450 <GPION>
    28d8:	479c                	lw	a5,8(a5)
    28da:	873e                	mv	a4,a5
    28dc:	6791                	lui	a5,0x4
    28de:	cb5c                	sw	a5,20(a4)
C:\Users\windows\Desktop\A_Dual\A_Dual1\Dual-core_Communication_Demo\Dual-core_Communication_Demo\MASTER\obj/../Libraries/seekfree_peripheral/SEEKFREE_18TFT.c:50
    spi_mosi(TFT_SPIN, &dat, NULL, 1);
    28e0:	fef40793          	addi	a5,s0,-17
    28e4:	4685                	li	a3,1
    28e6:	4601                	li	a2,0
    28e8:	85be                	mv	a1,a5
    28ea:	4501                	li	a0,0
    28ec:	434020ef          	jal	ra,4d20 <spi_mosi>
C:\Users\windows\Desktop\A_Dual\A_Dual1\Dual-core_Communication_Demo\Dual-core_Communication_Demo\MASTER\obj/../Libraries/seekfree_peripheral/SEEKFREE_18TFT.c:51
    TFT_CS(1);
    28f0:	67a5                	lui	a5,0x9
    28f2:	45078793          	addi	a5,a5,1104 # 9450 <GPION>
    28f6:	479c                	lw	a5,8(a5)
    28f8:	873e                	mv	a4,a5
    28fa:	67a1                	lui	a5,0x8
    28fc:	cb1c                	sw	a5,16(a4)
C:\Users\windows\Desktop\A_Dual\A_Dual1\Dual-core_Communication_Demo\Dual-core_Communication_Demo\MASTER\obj/../Libraries/seekfree_peripheral/SEEKFREE_18TFT.c:53

}
    28fe:	0001                	nop
    2900:	40f2                	lw	ra,28(sp)
    2902:	4462                	lw	s0,24(sp)
    2904:	6105                	addi	sp,sp,32
    2906:	8082                	ret

00002908 <lcd_writeData>:
lcd_writeData():
C:\Users\windows\Desktop\A_Dual\A_Dual1\Dual-core_Communication_Demo\Dual-core_Communication_Demo\MASTER\obj/../Libraries/seekfree_peripheral/SEEKFREE_18TFT.c:56

void lcd_writeData(uint8 dat)           //
{
    2908:	1101                	addi	sp,sp,-32
    290a:	ce06                	sw	ra,28(sp)
    290c:	cc22                	sw	s0,24(sp)
    290e:	1000                	addi	s0,sp,32
    2910:	87aa                	mv	a5,a0
    2912:	fef407a3          	sb	a5,-17(s0)
C:\Users\windows\Desktop\A_Dual\A_Dual1\Dual-core_Communication_Demo\Dual-core_Communication_Demo\MASTER\obj/../Libraries/seekfree_peripheral/SEEKFREE_18TFT.c:57
    TFT_CS(0);
    2916:	67a5                	lui	a5,0x9
    2918:	45078793          	addi	a5,a5,1104 # 9450 <GPION>
    291c:	479c                	lw	a5,8(a5)
    291e:	873e                	mv	a4,a5
    2920:	67a1                	lui	a5,0x8
    2922:	cb5c                	sw	a5,20(a4)
C:\Users\windows\Desktop\A_Dual\A_Dual1\Dual-core_Communication_Demo\Dual-core_Communication_Demo\MASTER\obj/../Libraries/seekfree_peripheral/SEEKFREE_18TFT.c:58
    TFT_DC(1);
    2924:	67a5                	lui	a5,0x9
    2926:	45078793          	addi	a5,a5,1104 # 9450 <GPION>
    292a:	479c                	lw	a5,8(a5)
    292c:	873e                	mv	a4,a5
    292e:	6791                	lui	a5,0x4
    2930:	cb1c                	sw	a5,16(a4)
C:\Users\windows\Desktop\A_Dual\A_Dual1\Dual-core_Communication_Demo\Dual-core_Communication_Demo\MASTER\obj/../Libraries/seekfree_peripheral/SEEKFREE_18TFT.c:59
    spi_mosi(TFT_SPIN, &dat, &dat, 1);
    2932:	fef40713          	addi	a4,s0,-17
    2936:	fef40793          	addi	a5,s0,-17
    293a:	4685                	li	a3,1
    293c:	863a                	mv	a2,a4
    293e:	85be                	mv	a1,a5
    2940:	4501                	li	a0,0
    2942:	3de020ef          	jal	ra,4d20 <spi_mosi>
C:\Users\windows\Desktop\A_Dual\A_Dual1\Dual-core_Communication_Demo\Dual-core_Communication_Demo\MASTER\obj/../Libraries/seekfree_peripheral/SEEKFREE_18TFT.c:60
    TFT_CS(1);
    2946:	67a5                	lui	a5,0x9
    2948:	45078793          	addi	a5,a5,1104 # 9450 <GPION>
    294c:	479c                	lw	a5,8(a5)
    294e:	873e                	mv	a4,a5
    2950:	67a1                	lui	a5,0x8
    2952:	cb1c                	sw	a5,16(a4)
C:\Users\windows\Desktop\A_Dual\A_Dual1\Dual-core_Communication_Demo\Dual-core_Communication_Demo\MASTER\obj/../Libraries/seekfree_peripheral/SEEKFREE_18TFT.c:61
}
    2954:	0001                	nop
    2956:	40f2                	lw	ra,28(sp)
    2958:	4462                	lw	s0,24(sp)
    295a:	6105                	addi	sp,sp,32
    295c:	8082                	ret

0000295e <lcd_writedata_16bit>:
lcd_writedata_16bit():
C:\Users\windows\Desktop\A_Dual\A_Dual1\Dual-core_Communication_Demo\Dual-core_Communication_Demo\MASTER\obj/../Libraries/seekfree_peripheral/SEEKFREE_18TFT.c:64

void lcd_writedata_16bit(uint16 dat)    //16
{
    295e:	7179                	addi	sp,sp,-48
    2960:	d606                	sw	ra,44(sp)
    2962:	d422                	sw	s0,40(sp)
    2964:	1800                	addi	s0,sp,48
    2966:	87aa                	mv	a5,a0
    2968:	fcf41f23          	sh	a5,-34(s0)
C:\Users\windows\Desktop\A_Dual\A_Dual1\Dual-core_Communication_Demo\Dual-core_Communication_Demo\MASTER\obj/../Libraries/seekfree_peripheral/SEEKFREE_18TFT.c:66
    uint8 dat1[2];
    TFT_CS(0);
    296c:	67a5                	lui	a5,0x9
    296e:	45078793          	addi	a5,a5,1104 # 9450 <GPION>
    2972:	479c                	lw	a5,8(a5)
    2974:	873e                	mv	a4,a5
    2976:	67a1                	lui	a5,0x8
    2978:	cb5c                	sw	a5,20(a4)
C:\Users\windows\Desktop\A_Dual\A_Dual1\Dual-core_Communication_Demo\Dual-core_Communication_Demo\MASTER\obj/../Libraries/seekfree_peripheral/SEEKFREE_18TFT.c:67
    dat1[0] = dat >> 8;
    297a:	fde45783          	lhu	a5,-34(s0)
    297e:	83a1                	srli	a5,a5,0x8
    2980:	07c2                	slli	a5,a5,0x10
    2982:	83c1                	srli	a5,a5,0x10
    2984:	0ff7f793          	andi	a5,a5,255
    2988:	fef40623          	sb	a5,-20(s0)
C:\Users\windows\Desktop\A_Dual\A_Dual1\Dual-core_Communication_Demo\Dual-core_Communication_Demo\MASTER\obj/../Libraries/seekfree_peripheral/SEEKFREE_18TFT.c:68
    dat1[1] = (uint8)dat;
    298c:	fde45783          	lhu	a5,-34(s0)
    2990:	0ff7f793          	andi	a5,a5,255
    2994:	fef406a3          	sb	a5,-19(s0)
C:\Users\windows\Desktop\A_Dual\A_Dual1\Dual-core_Communication_Demo\Dual-core_Communication_Demo\MASTER\obj/../Libraries/seekfree_peripheral/SEEKFREE_18TFT.c:70
    
    TFT_DC(1);
    2998:	67a5                	lui	a5,0x9
    299a:	45078793          	addi	a5,a5,1104 # 9450 <GPION>
    299e:	479c                	lw	a5,8(a5)
    29a0:	873e                	mv	a4,a5
    29a2:	6791                	lui	a5,0x4
    29a4:	cb1c                	sw	a5,16(a4)
C:\Users\windows\Desktop\A_Dual\A_Dual1\Dual-core_Communication_Demo\Dual-core_Communication_Demo\MASTER\obj/../Libraries/seekfree_peripheral/SEEKFREE_18TFT.c:71
    spi_mosi(TFT_SPIN, dat1, dat1, 2);  //    
    29a6:	fec40713          	addi	a4,s0,-20
    29aa:	fec40793          	addi	a5,s0,-20
    29ae:	4689                	li	a3,2
    29b0:	863a                	mv	a2,a4
    29b2:	85be                	mv	a1,a5
    29b4:	4501                	li	a0,0
    29b6:	36a020ef          	jal	ra,4d20 <spi_mosi>
C:\Users\windows\Desktop\A_Dual\A_Dual1\Dual-core_Communication_Demo\Dual-core_Communication_Demo\MASTER\obj/../Libraries/seekfree_peripheral/SEEKFREE_18TFT.c:72
    TFT_CS(1);
    29ba:	67a5                	lui	a5,0x9
    29bc:	45078793          	addi	a5,a5,1104 # 9450 <GPION>
    29c0:	479c                	lw	a5,8(a5)
    29c2:	873e                	mv	a4,a5
    29c4:	67a1                	lui	a5,0x8
    29c6:	cb1c                	sw	a5,16(a4)
C:\Users\windows\Desktop\A_Dual\A_Dual1\Dual-core_Communication_Demo\Dual-core_Communication_Demo\MASTER\obj/../Libraries/seekfree_peripheral/SEEKFREE_18TFT.c:73
}
    29c8:	0001                	nop
    29ca:	50b2                	lw	ra,44(sp)
    29cc:	5422                	lw	s0,40(sp)
    29ce:	6145                	addi	sp,sp,48
    29d0:	8082                	ret

000029d2 <lcd_set_region>:
lcd_set_region():
C:\Users\windows\Desktop\A_Dual\A_Dual1\Dual-core_Communication_Demo\Dual-core_Communication_Demo\MASTER\obj/../Libraries/seekfree_peripheral/SEEKFREE_18TFT.c:86
//  @return     void
//  @since      v1.0
//  Sample usage:               lcd_set_region(0,0,10,10);// xy010
//-------------------------------------------------------------------------------------------------------------------
void lcd_set_region(unsigned int x_start,unsigned int y_start,unsigned int x_end,unsigned int y_end)
{
    29d2:	1101                	addi	sp,sp,-32
    29d4:	ce06                	sw	ra,28(sp)
    29d6:	cc22                	sw	s0,24(sp)
    29d8:	1000                	addi	s0,sp,32
    29da:	fea42623          	sw	a0,-20(s0)
    29de:	feb42423          	sw	a1,-24(s0)
    29e2:	fec42223          	sw	a2,-28(s0)
    29e6:	fed42023          	sw	a3,-32(s0)
C:\Users\windows\Desktop\A_Dual\A_Dual1\Dual-core_Communication_Demo\Dual-core_Communication_Demo\MASTER\obj/../Libraries/seekfree_peripheral/SEEKFREE_18TFT.c:87
    assert(TFT_X_MAX>x_start);//
    29ea:	fec42703          	lw	a4,-20(s0)
    29ee:	09f00793          	li	a5,159
    29f2:	00e7ff63          	bgeu	a5,a4,2a10 <lcd_set_region+0x3e>
C:\Users\windows\Desktop\A_Dual\A_Dual1\Dual-core_Communication_Demo\Dual-core_Communication_Demo\MASTER\obj/../Libraries/seekfree_peripheral/SEEKFREE_18TFT.c:87 (discriminator 1)
    29f6:	67a5                	lui	a5,0x9
    29f8:	c3078693          	addi	a3,a5,-976 # 8c30 <_exit+0x10>
    29fc:	67a5                	lui	a5,0x9
    29fe:	d0078613          	addi	a2,a5,-768 # 8d00 <__func__.3212>
    2a02:	05700593          	li	a1,87
    2a06:	67a5                	lui	a5,0x9
    2a08:	c4478513          	addi	a0,a5,-956 # 8c44 <_exit+0x24>
    2a0c:	71f040ef          	jal	ra,792a <__assert_func>
C:\Users\windows\Desktop\A_Dual\A_Dual1\Dual-core_Communication_Demo\Dual-core_Communication_Demo\MASTER\obj/../Libraries/seekfree_peripheral/SEEKFREE_18TFT.c:88
    assert(TFT_Y_MAX>y_start);
    2a10:	fe842703          	lw	a4,-24(s0)
    2a14:	07f00793          	li	a5,127
    2a18:	00e7ff63          	bgeu	a5,a4,2a36 <lcd_set_region+0x64>
C:\Users\windows\Desktop\A_Dual\A_Dual1\Dual-core_Communication_Demo\Dual-core_Communication_Demo\MASTER\obj/../Libraries/seekfree_peripheral/SEEKFREE_18TFT.c:88 (discriminator 1)
    2a1c:	67a5                	lui	a5,0x9
    2a1e:	c7878693          	addi	a3,a5,-904 # 8c78 <_exit+0x58>
    2a22:	67a5                	lui	a5,0x9
    2a24:	d0078613          	addi	a2,a5,-768 # 8d00 <__func__.3212>
    2a28:	05800593          	li	a1,88
    2a2c:	67a5                	lui	a5,0x9
    2a2e:	c4478513          	addi	a0,a5,-956 # 8c44 <_exit+0x24>
    2a32:	6f9040ef          	jal	ra,792a <__assert_func>
C:\Users\windows\Desktop\A_Dual\A_Dual1\Dual-core_Communication_Demo\Dual-core_Communication_Demo\MASTER\obj/../Libraries/seekfree_peripheral/SEEKFREE_18TFT.c:90
    
    assert(TFT_X_MAX>x_end);
    2a36:	fe442703          	lw	a4,-28(s0)
    2a3a:	09f00793          	li	a5,159
    2a3e:	00e7ff63          	bgeu	a5,a4,2a5c <lcd_set_region+0x8a>
C:\Users\windows\Desktop\A_Dual\A_Dual1\Dual-core_Communication_Demo\Dual-core_Communication_Demo\MASTER\obj/../Libraries/seekfree_peripheral/SEEKFREE_18TFT.c:90 (discriminator 1)
    2a42:	67a5                	lui	a5,0x9
    2a44:	c8c78693          	addi	a3,a5,-884 # 8c8c <_exit+0x6c>
    2a48:	67a5                	lui	a5,0x9
    2a4a:	d0078613          	addi	a2,a5,-768 # 8d00 <__func__.3212>
    2a4e:	05a00593          	li	a1,90
    2a52:	67a5                	lui	a5,0x9
    2a54:	c4478513          	addi	a0,a5,-956 # 8c44 <_exit+0x24>
    2a58:	6d3040ef          	jal	ra,792a <__assert_func>
C:\Users\windows\Desktop\A_Dual\A_Dual1\Dual-core_Communication_Demo\Dual-core_Communication_Demo\MASTER\obj/../Libraries/seekfree_peripheral/SEEKFREE_18TFT.c:91
    assert(TFT_Y_MAX>y_end);
    2a5c:	fe042703          	lw	a4,-32(s0)
    2a60:	07f00793          	li	a5,127
    2a64:	00e7ff63          	bgeu	a5,a4,2a82 <lcd_set_region+0xb0>
C:\Users\windows\Desktop\A_Dual\A_Dual1\Dual-core_Communication_Demo\Dual-core_Communication_Demo\MASTER\obj/../Libraries/seekfree_peripheral/SEEKFREE_18TFT.c:91 (discriminator 1)
    2a68:	67a5                	lui	a5,0x9
    2a6a:	c9c78693          	addi	a3,a5,-868 # 8c9c <_exit+0x7c>
    2a6e:	67a5                	lui	a5,0x9
    2a70:	d0078613          	addi	a2,a5,-768 # 8d00 <__func__.3212>
    2a74:	05b00593          	li	a1,91
    2a78:	67a5                	lui	a5,0x9
    2a7a:	c4478513          	addi	a0,a5,-956 # 8c44 <_exit+0x24>
    2a7e:	6ad040ef          	jal	ra,792a <__assert_func>
C:\Users\windows\Desktop\A_Dual\A_Dual1\Dual-core_Communication_Demo\Dual-core_Communication_Demo\MASTER\obj/../Libraries/seekfree_peripheral/SEEKFREE_18TFT.c:107
    lcd_writeData(y_start+1);
    lcd_writeData(0x00);
    lcd_writeData(y_end+1);

#elif(2 == TFT_DISPLAY_DIR || 3 == TFT_DISPLAY_DIR)
    lcd_writeIndex(0x2a);
    2a82:	02a00513          	li	a0,42
    2a86:	3d05                	jal	28b6 <lcd_writeIndex>
C:\Users\windows\Desktop\A_Dual\A_Dual1\Dual-core_Communication_Demo\Dual-core_Communication_Demo\MASTER\obj/../Libraries/seekfree_peripheral/SEEKFREE_18TFT.c:108
    lcd_writeData(0x00);
    2a88:	4501                	li	a0,0
    2a8a:	3dbd                	jal	2908 <lcd_writeData>
C:\Users\windows\Desktop\A_Dual\A_Dual1\Dual-core_Communication_Demo\Dual-core_Communication_Demo\MASTER\obj/../Libraries/seekfree_peripheral/SEEKFREE_18TFT.c:109
    lcd_writeData(x_start+1);
    2a8c:	fec42783          	lw	a5,-20(s0)
    2a90:	0ff7f793          	andi	a5,a5,255
    2a94:	0785                	addi	a5,a5,1
    2a96:	0ff7f793          	andi	a5,a5,255
    2a9a:	853e                	mv	a0,a5
    2a9c:	35b5                	jal	2908 <lcd_writeData>
C:\Users\windows\Desktop\A_Dual\A_Dual1\Dual-core_Communication_Demo\Dual-core_Communication_Demo\MASTER\obj/../Libraries/seekfree_peripheral/SEEKFREE_18TFT.c:110
    lcd_writeData(0x0);
    2a9e:	4501                	li	a0,0
    2aa0:	35a5                	jal	2908 <lcd_writeData>
C:\Users\windows\Desktop\A_Dual\A_Dual1\Dual-core_Communication_Demo\Dual-core_Communication_Demo\MASTER\obj/../Libraries/seekfree_peripheral/SEEKFREE_18TFT.c:111
    lcd_writeData(x_end+1);
    2aa2:	fe442783          	lw	a5,-28(s0)
    2aa6:	0ff7f793          	andi	a5,a5,255
    2aaa:	0785                	addi	a5,a5,1
    2aac:	0ff7f793          	andi	a5,a5,255
    2ab0:	853e                	mv	a0,a5
    2ab2:	3d99                	jal	2908 <lcd_writeData>
C:\Users\windows\Desktop\A_Dual\A_Dual1\Dual-core_Communication_Demo\Dual-core_Communication_Demo\MASTER\obj/../Libraries/seekfree_peripheral/SEEKFREE_18TFT.c:113

    lcd_writeIndex(0x2b);
    2ab4:	02b00513          	li	a0,43
    2ab8:	3bfd                	jal	28b6 <lcd_writeIndex>
C:\Users\windows\Desktop\A_Dual\A_Dual1\Dual-core_Communication_Demo\Dual-core_Communication_Demo\MASTER\obj/../Libraries/seekfree_peripheral/SEEKFREE_18TFT.c:114
    lcd_writeData(0x00);
    2aba:	4501                	li	a0,0
    2abc:	35b1                	jal	2908 <lcd_writeData>
C:\Users\windows\Desktop\A_Dual\A_Dual1\Dual-core_Communication_Demo\Dual-core_Communication_Demo\MASTER\obj/../Libraries/seekfree_peripheral/SEEKFREE_18TFT.c:115
    lcd_writeData(y_start+2);
    2abe:	fe842783          	lw	a5,-24(s0)
    2ac2:	0ff7f793          	andi	a5,a5,255
    2ac6:	0789                	addi	a5,a5,2
    2ac8:	0ff7f793          	andi	a5,a5,255
    2acc:	853e                	mv	a0,a5
    2ace:	3d2d                	jal	2908 <lcd_writeData>
C:\Users\windows\Desktop\A_Dual\A_Dual1\Dual-core_Communication_Demo\Dual-core_Communication_Demo\MASTER\obj/../Libraries/seekfree_peripheral/SEEKFREE_18TFT.c:116
    lcd_writeData(0x00);
    2ad0:	4501                	li	a0,0
    2ad2:	3d1d                	jal	2908 <lcd_writeData>
C:\Users\windows\Desktop\A_Dual\A_Dual1\Dual-core_Communication_Demo\Dual-core_Communication_Demo\MASTER\obj/../Libraries/seekfree_peripheral/SEEKFREE_18TFT.c:117
    lcd_writeData(y_end+2);
    2ad4:	fe042783          	lw	a5,-32(s0)
    2ad8:	0ff7f793          	andi	a5,a5,255
    2adc:	0789                	addi	a5,a5,2
    2ade:	0ff7f793          	andi	a5,a5,255
    2ae2:	853e                	mv	a0,a5
    2ae4:	3515                	jal	2908 <lcd_writeData>
C:\Users\windows\Desktop\A_Dual\A_Dual1\Dual-core_Communication_Demo\Dual-core_Communication_Demo\MASTER\obj/../Libraries/seekfree_peripheral/SEEKFREE_18TFT.c:121

#endif
    
    lcd_writeIndex(0x2c);
    2ae6:	02c00513          	li	a0,44
    2aea:	33f1                	jal	28b6 <lcd_writeIndex>
C:\Users\windows\Desktop\A_Dual\A_Dual1\Dual-core_Communication_Demo\Dual-core_Communication_Demo\MASTER\obj/../Libraries/seekfree_peripheral/SEEKFREE_18TFT.c:122
}
    2aec:	0001                	nop
    2aee:	40f2                	lw	ra,28(sp)
    2af0:	4462                	lw	s0,24(sp)
    2af2:	6105                	addi	sp,sp,32
    2af4:	8082                	ret

00002af6 <lcd_clear>:
lcd_clear():
C:\Users\windows\Desktop\A_Dual\A_Dual1\Dual-core_Communication_Demo\Dual-core_Communication_Demo\MASTER\obj/../Libraries/seekfree_peripheral/SEEKFREE_18TFT.c:132
//  @return     void
//  @since      v1.0
//  Sample usage:               lcd_clear(YELLOW);// 
//-------------------------------------------------------------------------------------------------------------------
void lcd_clear(uint16 color)
{
    2af6:	7179                	addi	sp,sp,-48
    2af8:	d606                	sw	ra,44(sp)
    2afa:	d422                	sw	s0,40(sp)
    2afc:	1800                	addi	s0,sp,48
    2afe:	87aa                	mv	a5,a0
    2b00:	fcf41f23          	sh	a5,-34(s0)
C:\Users\windows\Desktop\A_Dual\A_Dual1\Dual-core_Communication_Demo\Dual-core_Communication_Demo\MASTER\obj/../Libraries/seekfree_peripheral/SEEKFREE_18TFT.c:134
    uint8 i,j;
    lcd_set_region(0,0,TFT_X_MAX-1,TFT_Y_MAX-1);
    2b04:	07f00693          	li	a3,127
    2b08:	09f00613          	li	a2,159
    2b0c:	4581                	li	a1,0
    2b0e:	4501                	li	a0,0
    2b10:	35c9                	jal	29d2 <lcd_set_region>
C:\Users\windows\Desktop\A_Dual\A_Dual1\Dual-core_Communication_Demo\Dual-core_Communication_Demo\MASTER\obj/../Libraries/seekfree_peripheral/SEEKFREE_18TFT.c:135
    for (i=0;i<TFT_Y_MAX;i++)
    2b12:	fe0407a3          	sb	zero,-17(s0)
    2b16:	a805                	j	2b46 <lcd_clear+0x50>
C:\Users\windows\Desktop\A_Dual\A_Dual1\Dual-core_Communication_Demo\Dual-core_Communication_Demo\MASTER\obj/../Libraries/seekfree_peripheral/SEEKFREE_18TFT.c:136
        for (j=0;j<TFT_X_MAX;j++)
    2b18:	fe040723          	sb	zero,-18(s0)
    2b1c:	a811                	j	2b30 <lcd_clear+0x3a>
C:\Users\windows\Desktop\A_Dual\A_Dual1\Dual-core_Communication_Demo\Dual-core_Communication_Demo\MASTER\obj/../Libraries/seekfree_peripheral/SEEKFREE_18TFT.c:137 (discriminator 3)
            lcd_writedata_16bit(color);
    2b1e:	fde45783          	lhu	a5,-34(s0)
    2b22:	853e                	mv	a0,a5
    2b24:	3d2d                	jal	295e <lcd_writedata_16bit>
C:\Users\windows\Desktop\A_Dual\A_Dual1\Dual-core_Communication_Demo\Dual-core_Communication_Demo\MASTER\obj/../Libraries/seekfree_peripheral/SEEKFREE_18TFT.c:136 (discriminator 3)
        for (j=0;j<TFT_X_MAX;j++)
    2b26:	fee44783          	lbu	a5,-18(s0)
    2b2a:	0785                	addi	a5,a5,1
    2b2c:	fef40723          	sb	a5,-18(s0)
C:\Users\windows\Desktop\A_Dual\A_Dual1\Dual-core_Communication_Demo\Dual-core_Communication_Demo\MASTER\obj/../Libraries/seekfree_peripheral/SEEKFREE_18TFT.c:136 (discriminator 1)
    2b30:	fee44703          	lbu	a4,-18(s0)
    2b34:	09f00793          	li	a5,159
    2b38:	fee7f3e3          	bgeu	a5,a4,2b1e <lcd_clear+0x28>
C:\Users\windows\Desktop\A_Dual\A_Dual1\Dual-core_Communication_Demo\Dual-core_Communication_Demo\MASTER\obj/../Libraries/seekfree_peripheral/SEEKFREE_18TFT.c:135 (discriminator 2)
    for (i=0;i<TFT_Y_MAX;i++)
    2b3c:	fef44783          	lbu	a5,-17(s0)
    2b40:	0785                	addi	a5,a5,1
    2b42:	fef407a3          	sb	a5,-17(s0)
C:\Users\windows\Desktop\A_Dual\A_Dual1\Dual-core_Communication_Demo\Dual-core_Communication_Demo\MASTER\obj/../Libraries/seekfree_peripheral/SEEKFREE_18TFT.c:135 (discriminator 1)
    2b46:	fef40783          	lb	a5,-17(s0)
    2b4a:	fc07d7e3          	bgez	a5,2b18 <lcd_clear+0x22>
C:\Users\windows\Desktop\A_Dual\A_Dual1\Dual-core_Communication_Demo\Dual-core_Communication_Demo\MASTER\obj/../Libraries/seekfree_peripheral/SEEKFREE_18TFT.c:138
}
    2b4e:	0001                	nop
    2b50:	50b2                	lw	ra,44(sp)
    2b52:	5422                	lw	s0,40(sp)
    2b54:	6145                	addi	sp,sp,48
    2b56:	8082                	ret

00002b58 <lcd_init>:
lcd_init():
C:\Users\windows\Desktop\A_Dual\A_Dual1\Dual-core_Communication_Demo\Dual-core_Communication_Demo\MASTER\obj/../Libraries/seekfree_peripheral/SEEKFREE_18TFT.c:148
//  @return     void
//  @since      v1.0
//  Sample usage:               
//-------------------------------------------------------------------------------------------------------------------
void lcd_init(void)
{
    2b58:	1101                	addi	sp,sp,-32
    2b5a:	ce06                	sw	ra,28(sp)
    2b5c:	cc22                	sw	s0,24(sp)
    2b5e:	ca4a                	sw	s2,20(sp)
    2b60:	c84e                	sw	s3,16(sp)
    2b62:	c652                	sw	s4,12(sp)
    2b64:	c456                	sw	s5,8(sp)
    2b66:	c25a                	sw	s6,4(sp)
    2b68:	c05e                	sw	s7,0(sp)
    2b6a:	1000                	addi	s0,sp,32
C:\Users\windows\Desktop\A_Dual\A_Dual1\Dual-core_Communication_Demo\Dual-core_Communication_Demo\MASTER\obj/../Libraries/seekfree_peripheral/SEEKFREE_18TFT.c:149
    spi_init(TFT_SPIN, TFT_SCL, TFT_SDA, TFT_SDA_IN, TFT_CS_PIN, 0, FPCLK_DIV_2);//SPI
    2b6c:	4801                	li	a6,0
    2b6e:	4781                	li	a5,0
    2b70:	04f00713          	li	a4,79
    2b74:	02300693          	li	a3,35
    2b78:	4605                	li	a2,1
    2b7a:	4581                	li	a1,0
    2b7c:	4501                	li	a0,0
    2b7e:	06c020ef          	jal	ra,4bea <spi_init>
C:\Users\windows\Desktop\A_Dual\A_Dual1\Dual-core_Communication_Demo\Dual-core_Communication_Demo\MASTER\obj/../Libraries/seekfree_peripheral/SEEKFREE_18TFT.c:151
    
    gpio_init(TFT_CS_PIN, GPO, 1, GPIO_PIN_CONFIG);
    2b82:	31000693          	li	a3,784
    2b86:	4605                	li	a2,1
    2b88:	4585                	li	a1,1
    2b8a:	04f00513          	li	a0,79
    2b8e:	7a5000ef          	jal	ra,3b32 <gpio_init>
C:\Users\windows\Desktop\A_Dual\A_Dual1\Dual-core_Communication_Demo\Dual-core_Communication_Demo\MASTER\obj/../Libraries/seekfree_peripheral/SEEKFREE_18TFT.c:152
    gpio_init(TFT_REST_PIN, GPO, 0, GPIO_PIN_CONFIG);
    2b92:	31000693          	li	a3,784
    2b96:	4601                	li	a2,0
    2b98:	4585                	li	a1,1
    2b9a:	04d00513          	li	a0,77
    2b9e:	795000ef          	jal	ra,3b32 <gpio_init>
C:\Users\windows\Desktop\A_Dual\A_Dual1\Dual-core_Communication_Demo\Dual-core_Communication_Demo\MASTER\obj/../Libraries/seekfree_peripheral/SEEKFREE_18TFT.c:153
    gpio_init(TFT_DC_PIN, GPO, 0, GPIO_PIN_CONFIG);
    2ba2:	31000693          	li	a3,784
    2ba6:	4601                	li	a2,0
    2ba8:	4585                	li	a1,1
    2baa:	04e00513          	li	a0,78
    2bae:	785000ef          	jal	ra,3b32 <gpio_init>
C:\Users\windows\Desktop\A_Dual\A_Dual1\Dual-core_Communication_Demo\Dual-core_Communication_Demo\MASTER\obj/../Libraries/seekfree_peripheral/SEEKFREE_18TFT.c:155
    
    TFT_REST(0);
    2bb2:	67a5                	lui	a5,0x9
    2bb4:	45078793          	addi	a5,a5,1104 # 9450 <GPION>
    2bb8:	479c                	lw	a5,8(a5)
    2bba:	873e                	mv	a4,a5
    2bbc:	6789                	lui	a5,0x2
    2bbe:	cb5c                	sw	a5,20(a4)
C:\Users\windows\Desktop\A_Dual\A_Dual1\Dual-core_Communication_Demo\Dual-core_Communication_Demo\MASTER\obj/../Libraries/seekfree_peripheral/SEEKFREE_18TFT.c:156
    systick_delay_ms(10);
    2bc0:	8381a703          	lw	a4,-1992(gp) # 200000a8 <sys_clk>
    2bc4:	6789                	lui	a5,0x2
    2bc6:	f4078793          	addi	a5,a5,-192 # 1f40 <TIM_CtrlPWMOutputs+0x32>
    2bca:	02f75733          	divu	a4,a4,a5
    2bce:	87ba                	mv	a5,a4
    2bd0:	078a                	slli	a5,a5,0x2
    2bd2:	97ba                	add	a5,a5,a4
    2bd4:	0786                	slli	a5,a5,0x1
    2bd6:	8b3e                	mv	s6,a5
    2bd8:	4b81                	li	s7,0
    2bda:	855a                	mv	a0,s6
    2bdc:	85de                	mv	a1,s7
    2bde:	204020ef          	jal	ra,4de2 <systick_delay>
C:\Users\windows\Desktop\A_Dual\A_Dual1\Dual-core_Communication_Demo\Dual-core_Communication_Demo\MASTER\obj/../Libraries/seekfree_peripheral/SEEKFREE_18TFT.c:157
    TFT_REST(1);
    2be2:	67a5                	lui	a5,0x9
    2be4:	45078793          	addi	a5,a5,1104 # 9450 <GPION>
    2be8:	479c                	lw	a5,8(a5)
    2bea:	873e                	mv	a4,a5
    2bec:	6789                	lui	a5,0x2
    2bee:	cb1c                	sw	a5,16(a4)
C:\Users\windows\Desktop\A_Dual\A_Dual1\Dual-core_Communication_Demo\Dual-core_Communication_Demo\MASTER\obj/../Libraries/seekfree_peripheral/SEEKFREE_18TFT.c:158
    systick_delay_ms(120);
    2bf0:	8381a703          	lw	a4,-1992(gp) # 200000a8 <sys_clk>
    2bf4:	6789                	lui	a5,0x2
    2bf6:	f4078793          	addi	a5,a5,-192 # 1f40 <TIM_CtrlPWMOutputs+0x32>
    2bfa:	02f75733          	divu	a4,a4,a5
    2bfe:	87ba                	mv	a5,a4
    2c00:	0792                	slli	a5,a5,0x4
    2c02:	8f99                	sub	a5,a5,a4
    2c04:	078e                	slli	a5,a5,0x3
    2c06:	8a3e                	mv	s4,a5
    2c08:	4a81                	li	s5,0
    2c0a:	8552                	mv	a0,s4
    2c0c:	85d6                	mv	a1,s5
    2c0e:	1d4020ef          	jal	ra,4de2 <systick_delay>
C:\Users\windows\Desktop\A_Dual\A_Dual1\Dual-core_Communication_Demo\Dual-core_Communication_Demo\MASTER\obj/../Libraries/seekfree_peripheral/SEEKFREE_18TFT.c:159
    lcd_writeIndex(0x11);
    2c12:	4545                	li	a0,17
    2c14:	314d                	jal	28b6 <lcd_writeIndex>
C:\Users\windows\Desktop\A_Dual\A_Dual1\Dual-core_Communication_Demo\Dual-core_Communication_Demo\MASTER\obj/../Libraries/seekfree_peripheral/SEEKFREE_18TFT.c:160
    systick_delay_ms(120);
    2c16:	8381a703          	lw	a4,-1992(gp) # 200000a8 <sys_clk>
    2c1a:	6789                	lui	a5,0x2
    2c1c:	f4078793          	addi	a5,a5,-192 # 1f40 <TIM_CtrlPWMOutputs+0x32>
    2c20:	02f75733          	divu	a4,a4,a5
    2c24:	87ba                	mv	a5,a4
    2c26:	0792                	slli	a5,a5,0x4
    2c28:	8f99                	sub	a5,a5,a4
    2c2a:	078e                	slli	a5,a5,0x3
    2c2c:	893e                	mv	s2,a5
    2c2e:	4981                	li	s3,0
    2c30:	854a                	mv	a0,s2
    2c32:	85ce                	mv	a1,s3
    2c34:	1ae020ef          	jal	ra,4de2 <systick_delay>
C:\Users\windows\Desktop\A_Dual\A_Dual1\Dual-core_Communication_Demo\Dual-core_Communication_Demo\MASTER\obj/../Libraries/seekfree_peripheral/SEEKFREE_18TFT.c:162

    lcd_writeIndex(0xB1); 
    2c38:	0b100513          	li	a0,177
    2c3c:	39ad                	jal	28b6 <lcd_writeIndex>
C:\Users\windows\Desktop\A_Dual\A_Dual1\Dual-core_Communication_Demo\Dual-core_Communication_Demo\MASTER\obj/../Libraries/seekfree_peripheral/SEEKFREE_18TFT.c:163
    lcd_writeData(0x01); 
    2c3e:	4505                	li	a0,1
    2c40:	31e1                	jal	2908 <lcd_writeData>
C:\Users\windows\Desktop\A_Dual\A_Dual1\Dual-core_Communication_Demo\Dual-core_Communication_Demo\MASTER\obj/../Libraries/seekfree_peripheral/SEEKFREE_18TFT.c:164
    lcd_writeData(0x2C); 
    2c42:	02c00513          	li	a0,44
    2c46:	31c9                	jal	2908 <lcd_writeData>
C:\Users\windows\Desktop\A_Dual\A_Dual1\Dual-core_Communication_Demo\Dual-core_Communication_Demo\MASTER\obj/../Libraries/seekfree_peripheral/SEEKFREE_18TFT.c:165
    lcd_writeData(0x2D); 
    2c48:	02d00513          	li	a0,45
    2c4c:	3975                	jal	2908 <lcd_writeData>
C:\Users\windows\Desktop\A_Dual\A_Dual1\Dual-core_Communication_Demo\Dual-core_Communication_Demo\MASTER\obj/../Libraries/seekfree_peripheral/SEEKFREE_18TFT.c:167
    
    lcd_writeIndex(0xB2); 
    2c4e:	0b200513          	li	a0,178
    2c52:	3195                	jal	28b6 <lcd_writeIndex>
C:\Users\windows\Desktop\A_Dual\A_Dual1\Dual-core_Communication_Demo\Dual-core_Communication_Demo\MASTER\obj/../Libraries/seekfree_peripheral/SEEKFREE_18TFT.c:168
    lcd_writeData(0x01); 
    2c54:	4505                	li	a0,1
    2c56:	394d                	jal	2908 <lcd_writeData>
C:\Users\windows\Desktop\A_Dual\A_Dual1\Dual-core_Communication_Demo\Dual-core_Communication_Demo\MASTER\obj/../Libraries/seekfree_peripheral/SEEKFREE_18TFT.c:169
    lcd_writeData(0x2C); 
    2c58:	02c00513          	li	a0,44
    2c5c:	3175                	jal	2908 <lcd_writeData>
C:\Users\windows\Desktop\A_Dual\A_Dual1\Dual-core_Communication_Demo\Dual-core_Communication_Demo\MASTER\obj/../Libraries/seekfree_peripheral/SEEKFREE_18TFT.c:170
    lcd_writeData(0x2D); 
    2c5e:	02d00513          	li	a0,45
    2c62:	315d                	jal	2908 <lcd_writeData>
C:\Users\windows\Desktop\A_Dual\A_Dual1\Dual-core_Communication_Demo\Dual-core_Communication_Demo\MASTER\obj/../Libraries/seekfree_peripheral/SEEKFREE_18TFT.c:172
    
    lcd_writeIndex(0xB3); 
    2c64:	0b300513          	li	a0,179
    2c68:	31b9                	jal	28b6 <lcd_writeIndex>
C:\Users\windows\Desktop\A_Dual\A_Dual1\Dual-core_Communication_Demo\Dual-core_Communication_Demo\MASTER\obj/../Libraries/seekfree_peripheral/SEEKFREE_18TFT.c:173
    lcd_writeData(0x01); 
    2c6a:	4505                	li	a0,1
    2c6c:	3971                	jal	2908 <lcd_writeData>
C:\Users\windows\Desktop\A_Dual\A_Dual1\Dual-core_Communication_Demo\Dual-core_Communication_Demo\MASTER\obj/../Libraries/seekfree_peripheral/SEEKFREE_18TFT.c:174
    lcd_writeData(0x2C); 
    2c6e:	02c00513          	li	a0,44
    2c72:	3959                	jal	2908 <lcd_writeData>
C:\Users\windows\Desktop\A_Dual\A_Dual1\Dual-core_Communication_Demo\Dual-core_Communication_Demo\MASTER\obj/../Libraries/seekfree_peripheral/SEEKFREE_18TFT.c:175
    lcd_writeData(0x2D); 
    2c74:	02d00513          	li	a0,45
    2c78:	3941                	jal	2908 <lcd_writeData>
C:\Users\windows\Desktop\A_Dual\A_Dual1\Dual-core_Communication_Demo\Dual-core_Communication_Demo\MASTER\obj/../Libraries/seekfree_peripheral/SEEKFREE_18TFT.c:176
    lcd_writeData(0x01); 
    2c7a:	4505                	li	a0,1
    2c7c:	3171                	jal	2908 <lcd_writeData>
C:\Users\windows\Desktop\A_Dual\A_Dual1\Dual-core_Communication_Demo\Dual-core_Communication_Demo\MASTER\obj/../Libraries/seekfree_peripheral/SEEKFREE_18TFT.c:177
    lcd_writeData(0x2C); 
    2c7e:	02c00513          	li	a0,44
    2c82:	3159                	jal	2908 <lcd_writeData>
C:\Users\windows\Desktop\A_Dual\A_Dual1\Dual-core_Communication_Demo\Dual-core_Communication_Demo\MASTER\obj/../Libraries/seekfree_peripheral/SEEKFREE_18TFT.c:178
    lcd_writeData(0x2D); 
    2c84:	02d00513          	li	a0,45
    2c88:	3141                	jal	2908 <lcd_writeData>
C:\Users\windows\Desktop\A_Dual\A_Dual1\Dual-core_Communication_Demo\Dual-core_Communication_Demo\MASTER\obj/../Libraries/seekfree_peripheral/SEEKFREE_18TFT.c:180
    
    lcd_writeIndex(0xB4);
    2c8a:	0b400513          	li	a0,180
    2c8e:	3125                	jal	28b6 <lcd_writeIndex>
C:\Users\windows\Desktop\A_Dual\A_Dual1\Dual-core_Communication_Demo\Dual-core_Communication_Demo\MASTER\obj/../Libraries/seekfree_peripheral/SEEKFREE_18TFT.c:181
    lcd_writeData(0x07); 
    2c90:	451d                	li	a0,7
    2c92:	399d                	jal	2908 <lcd_writeData>
C:\Users\windows\Desktop\A_Dual\A_Dual1\Dual-core_Communication_Demo\Dual-core_Communication_Demo\MASTER\obj/../Libraries/seekfree_peripheral/SEEKFREE_18TFT.c:183

    lcd_writeIndex(0xC0); 
    2c94:	0c000513          	li	a0,192
    2c98:	3939                	jal	28b6 <lcd_writeIndex>
C:\Users\windows\Desktop\A_Dual\A_Dual1\Dual-core_Communication_Demo\Dual-core_Communication_Demo\MASTER\obj/../Libraries/seekfree_peripheral/SEEKFREE_18TFT.c:184
    lcd_writeData(0xA2); 
    2c9a:	0a200513          	li	a0,162
    2c9e:	31ad                	jal	2908 <lcd_writeData>
C:\Users\windows\Desktop\A_Dual\A_Dual1\Dual-core_Communication_Demo\Dual-core_Communication_Demo\MASTER\obj/../Libraries/seekfree_peripheral/SEEKFREE_18TFT.c:185
    lcd_writeData(0x02); 
    2ca0:	4509                	li	a0,2
    2ca2:	319d                	jal	2908 <lcd_writeData>
C:\Users\windows\Desktop\A_Dual\A_Dual1\Dual-core_Communication_Demo\Dual-core_Communication_Demo\MASTER\obj/../Libraries/seekfree_peripheral/SEEKFREE_18TFT.c:186
    lcd_writeData(0x84); 
    2ca4:	08400513          	li	a0,132
    2ca8:	3185                	jal	2908 <lcd_writeData>
C:\Users\windows\Desktop\A_Dual\A_Dual1\Dual-core_Communication_Demo\Dual-core_Communication_Demo\MASTER\obj/../Libraries/seekfree_peripheral/SEEKFREE_18TFT.c:187
    lcd_writeIndex(0xC1); 
    2caa:	0c100513          	li	a0,193
    2cae:	3121                	jal	28b6 <lcd_writeIndex>
C:\Users\windows\Desktop\A_Dual\A_Dual1\Dual-core_Communication_Demo\Dual-core_Communication_Demo\MASTER\obj/../Libraries/seekfree_peripheral/SEEKFREE_18TFT.c:188
    lcd_writeData(0xC5); 
    2cb0:	0c500513          	li	a0,197
    2cb4:	3991                	jal	2908 <lcd_writeData>
C:\Users\windows\Desktop\A_Dual\A_Dual1\Dual-core_Communication_Demo\Dual-core_Communication_Demo\MASTER\obj/../Libraries/seekfree_peripheral/SEEKFREE_18TFT.c:190
    
    lcd_writeIndex(0xC2); 
    2cb6:	0c200513          	li	a0,194
    2cba:	3ef5                	jal	28b6 <lcd_writeIndex>
C:\Users\windows\Desktop\A_Dual\A_Dual1\Dual-core_Communication_Demo\Dual-core_Communication_Demo\MASTER\obj/../Libraries/seekfree_peripheral/SEEKFREE_18TFT.c:191
    lcd_writeData(0x0A); 
    2cbc:	4529                	li	a0,10
    2cbe:	31a9                	jal	2908 <lcd_writeData>
C:\Users\windows\Desktop\A_Dual\A_Dual1\Dual-core_Communication_Demo\Dual-core_Communication_Demo\MASTER\obj/../Libraries/seekfree_peripheral/SEEKFREE_18TFT.c:192
    lcd_writeData(0x00); 
    2cc0:	4501                	li	a0,0
    2cc2:	3199                	jal	2908 <lcd_writeData>
C:\Users\windows\Desktop\A_Dual\A_Dual1\Dual-core_Communication_Demo\Dual-core_Communication_Demo\MASTER\obj/../Libraries/seekfree_peripheral/SEEKFREE_18TFT.c:194
    
    lcd_writeIndex(0xC3); 
    2cc4:	0c300513          	li	a0,195
    2cc8:	36fd                	jal	28b6 <lcd_writeIndex>
C:\Users\windows\Desktop\A_Dual\A_Dual1\Dual-core_Communication_Demo\Dual-core_Communication_Demo\MASTER\obj/../Libraries/seekfree_peripheral/SEEKFREE_18TFT.c:195
    lcd_writeData(0x8A); 
    2cca:	08a00513          	li	a0,138
    2cce:	392d                	jal	2908 <lcd_writeData>
C:\Users\windows\Desktop\A_Dual\A_Dual1\Dual-core_Communication_Demo\Dual-core_Communication_Demo\MASTER\obj/../Libraries/seekfree_peripheral/SEEKFREE_18TFT.c:196
    lcd_writeData(0x2A); 
    2cd0:	02a00513          	li	a0,42
    2cd4:	3915                	jal	2908 <lcd_writeData>
C:\Users\windows\Desktop\A_Dual\A_Dual1\Dual-core_Communication_Demo\Dual-core_Communication_Demo\MASTER\obj/../Libraries/seekfree_peripheral/SEEKFREE_18TFT.c:197
    lcd_writeIndex(0xC4); 
    2cd6:	0c400513          	li	a0,196
    2cda:	3ef1                	jal	28b6 <lcd_writeIndex>
C:\Users\windows\Desktop\A_Dual\A_Dual1\Dual-core_Communication_Demo\Dual-core_Communication_Demo\MASTER\obj/../Libraries/seekfree_peripheral/SEEKFREE_18TFT.c:198
    lcd_writeData(0x8A); 
    2cdc:	08a00513          	li	a0,138
    2ce0:	3125                	jal	2908 <lcd_writeData>
C:\Users\windows\Desktop\A_Dual\A_Dual1\Dual-core_Communication_Demo\Dual-core_Communication_Demo\MASTER\obj/../Libraries/seekfree_peripheral/SEEKFREE_18TFT.c:199
    lcd_writeData(0xEE); 
    2ce2:	0ee00513          	li	a0,238
    2ce6:	310d                	jal	2908 <lcd_writeData>
C:\Users\windows\Desktop\A_Dual\A_Dual1\Dual-core_Communication_Demo\Dual-core_Communication_Demo\MASTER\obj/../Libraries/seekfree_peripheral/SEEKFREE_18TFT.c:201
    
    lcd_writeIndex(0xC5);
    2ce8:	0c500513          	li	a0,197
    2cec:	36e9                	jal	28b6 <lcd_writeIndex>
C:\Users\windows\Desktop\A_Dual\A_Dual1\Dual-core_Communication_Demo\Dual-core_Communication_Demo\MASTER\obj/../Libraries/seekfree_peripheral/SEEKFREE_18TFT.c:202
    lcd_writeData(0x0E); 
    2cee:	4539                	li	a0,14
    2cf0:	3921                	jal	2908 <lcd_writeData>
C:\Users\windows\Desktop\A_Dual\A_Dual1\Dual-core_Communication_Demo\Dual-core_Communication_Demo\MASTER\obj/../Libraries/seekfree_peripheral/SEEKFREE_18TFT.c:204
    
    lcd_writeIndex(0x36);
    2cf2:	03600513          	li	a0,54
    2cf6:	36c1                	jal	28b6 <lcd_writeIndex>
C:\Users\windows\Desktop\A_Dual\A_Dual1\Dual-core_Communication_Demo\Dual-core_Communication_Demo\MASTER\obj/../Libraries/seekfree_peripheral/SEEKFREE_18TFT.c:210
    switch(TFT_DISPLAY_DIR)//y x v
    {
        case 0: lcd_writeData(1<<7 | 1<<6 | 0<<5);  break;  //
        case 1: lcd_writeData(0<<7 | 0<<6 | 0<<5);  break;  //  180
        case 2: lcd_writeData(1<<7 | 0<<6 | 1<<5);  break;  //
        case 3: lcd_writeData(0<<7 | 1<<6 | 1<<5);  break;  //  180
    2cf8:	06000513          	li	a0,96
    2cfc:	3131                	jal	2908 <lcd_writeData>
    2cfe:	0001                	nop
C:\Users\windows\Desktop\A_Dual\A_Dual1\Dual-core_Communication_Demo\Dual-core_Communication_Demo\MASTER\obj/../Libraries/seekfree_peripheral/SEEKFREE_18TFT.c:213
    }

    lcd_writeIndex(0xe0); 
    2d00:	0e000513          	li	a0,224
    2d04:	3e4d                	jal	28b6 <lcd_writeIndex>
C:\Users\windows\Desktop\A_Dual\A_Dual1\Dual-core_Communication_Demo\Dual-core_Communication_Demo\MASTER\obj/../Libraries/seekfree_peripheral/SEEKFREE_18TFT.c:214
    lcd_writeData(0x0f); 
    2d06:	453d                	li	a0,15
    2d08:	3101                	jal	2908 <lcd_writeData>
C:\Users\windows\Desktop\A_Dual\A_Dual1\Dual-core_Communication_Demo\Dual-core_Communication_Demo\MASTER\obj/../Libraries/seekfree_peripheral/SEEKFREE_18TFT.c:215
    lcd_writeData(0x1a); 
    2d0a:	4569                	li	a0,26
    2d0c:	3ef5                	jal	2908 <lcd_writeData>
C:\Users\windows\Desktop\A_Dual\A_Dual1\Dual-core_Communication_Demo\Dual-core_Communication_Demo\MASTER\obj/../Libraries/seekfree_peripheral/SEEKFREE_18TFT.c:216
    lcd_writeData(0x0f); 
    2d0e:	453d                	li	a0,15
    2d10:	3ee5                	jal	2908 <lcd_writeData>
C:\Users\windows\Desktop\A_Dual\A_Dual1\Dual-core_Communication_Demo\Dual-core_Communication_Demo\MASTER\obj/../Libraries/seekfree_peripheral/SEEKFREE_18TFT.c:217
    lcd_writeData(0x18); 
    2d12:	4561                	li	a0,24
    2d14:	3ed5                	jal	2908 <lcd_writeData>
C:\Users\windows\Desktop\A_Dual\A_Dual1\Dual-core_Communication_Demo\Dual-core_Communication_Demo\MASTER\obj/../Libraries/seekfree_peripheral/SEEKFREE_18TFT.c:218
    lcd_writeData(0x2f); 
    2d16:	02f00513          	li	a0,47
    2d1a:	36fd                	jal	2908 <lcd_writeData>
C:\Users\windows\Desktop\A_Dual\A_Dual1\Dual-core_Communication_Demo\Dual-core_Communication_Demo\MASTER\obj/../Libraries/seekfree_peripheral/SEEKFREE_18TFT.c:219
    lcd_writeData(0x28); 
    2d1c:	02800513          	li	a0,40
    2d20:	36e5                	jal	2908 <lcd_writeData>
C:\Users\windows\Desktop\A_Dual\A_Dual1\Dual-core_Communication_Demo\Dual-core_Communication_Demo\MASTER\obj/../Libraries/seekfree_peripheral/SEEKFREE_18TFT.c:220
    lcd_writeData(0x20); 
    2d22:	02000513          	li	a0,32
    2d26:	36cd                	jal	2908 <lcd_writeData>
C:\Users\windows\Desktop\A_Dual\A_Dual1\Dual-core_Communication_Demo\Dual-core_Communication_Demo\MASTER\obj/../Libraries/seekfree_peripheral/SEEKFREE_18TFT.c:221
    lcd_writeData(0x22); 
    2d28:	02200513          	li	a0,34
    2d2c:	3ef1                	jal	2908 <lcd_writeData>
C:\Users\windows\Desktop\A_Dual\A_Dual1\Dual-core_Communication_Demo\Dual-core_Communication_Demo\MASTER\obj/../Libraries/seekfree_peripheral/SEEKFREE_18TFT.c:222
    lcd_writeData(0x1f); 
    2d2e:	457d                	li	a0,31
    2d30:	3ee1                	jal	2908 <lcd_writeData>
C:\Users\windows\Desktop\A_Dual\A_Dual1\Dual-core_Communication_Demo\Dual-core_Communication_Demo\MASTER\obj/../Libraries/seekfree_peripheral/SEEKFREE_18TFT.c:223
    lcd_writeData(0x1b); 
    2d32:	456d                	li	a0,27
    2d34:	3ed1                	jal	2908 <lcd_writeData>
C:\Users\windows\Desktop\A_Dual\A_Dual1\Dual-core_Communication_Demo\Dual-core_Communication_Demo\MASTER\obj/../Libraries/seekfree_peripheral/SEEKFREE_18TFT.c:224
    lcd_writeData(0x23); 
    2d36:	02300513          	li	a0,35
    2d3a:	36f9                	jal	2908 <lcd_writeData>
C:\Users\windows\Desktop\A_Dual\A_Dual1\Dual-core_Communication_Demo\Dual-core_Communication_Demo\MASTER\obj/../Libraries/seekfree_peripheral/SEEKFREE_18TFT.c:225
    lcd_writeData(0x37); 
    2d3c:	03700513          	li	a0,55
    2d40:	36e1                	jal	2908 <lcd_writeData>
C:\Users\windows\Desktop\A_Dual\A_Dual1\Dual-core_Communication_Demo\Dual-core_Communication_Demo\MASTER\obj/../Libraries/seekfree_peripheral/SEEKFREE_18TFT.c:226
    lcd_writeData(0x00);
    2d42:	4501                	li	a0,0
    2d44:	36d1                	jal	2908 <lcd_writeData>
C:\Users\windows\Desktop\A_Dual\A_Dual1\Dual-core_Communication_Demo\Dual-core_Communication_Demo\MASTER\obj/../Libraries/seekfree_peripheral/SEEKFREE_18TFT.c:227
    lcd_writeData(0x07); 
    2d46:	451d                	li	a0,7
    2d48:	36c1                	jal	2908 <lcd_writeData>
C:\Users\windows\Desktop\A_Dual\A_Dual1\Dual-core_Communication_Demo\Dual-core_Communication_Demo\MASTER\obj/../Libraries/seekfree_peripheral/SEEKFREE_18TFT.c:228
    lcd_writeData(0x02); 
    2d4a:	4509                	li	a0,2
    2d4c:	3e75                	jal	2908 <lcd_writeData>
C:\Users\windows\Desktop\A_Dual\A_Dual1\Dual-core_Communication_Demo\Dual-core_Communication_Demo\MASTER\obj/../Libraries/seekfree_peripheral/SEEKFREE_18TFT.c:229
    lcd_writeData(0x10); 
    2d4e:	4541                	li	a0,16
    2d50:	3e65                	jal	2908 <lcd_writeData>
C:\Users\windows\Desktop\A_Dual\A_Dual1\Dual-core_Communication_Demo\Dual-core_Communication_Demo\MASTER\obj/../Libraries/seekfree_peripheral/SEEKFREE_18TFT.c:231
    
    lcd_writeIndex(0xe1); 
    2d52:	0e100513          	li	a0,225
    2d56:	3685                	jal	28b6 <lcd_writeIndex>
C:\Users\windows\Desktop\A_Dual\A_Dual1\Dual-core_Communication_Demo\Dual-core_Communication_Demo\MASTER\obj/../Libraries/seekfree_peripheral/SEEKFREE_18TFT.c:232
    lcd_writeData(0x0f); 
    2d58:	453d                	li	a0,15
    2d5a:	367d                	jal	2908 <lcd_writeData>
C:\Users\windows\Desktop\A_Dual\A_Dual1\Dual-core_Communication_Demo\Dual-core_Communication_Demo\MASTER\obj/../Libraries/seekfree_peripheral/SEEKFREE_18TFT.c:233
    lcd_writeData(0x1b); 
    2d5c:	456d                	li	a0,27
    2d5e:	366d                	jal	2908 <lcd_writeData>
C:\Users\windows\Desktop\A_Dual\A_Dual1\Dual-core_Communication_Demo\Dual-core_Communication_Demo\MASTER\obj/../Libraries/seekfree_peripheral/SEEKFREE_18TFT.c:234
    lcd_writeData(0x0f); 
    2d60:	453d                	li	a0,15
    2d62:	365d                	jal	2908 <lcd_writeData>
C:\Users\windows\Desktop\A_Dual\A_Dual1\Dual-core_Communication_Demo\Dual-core_Communication_Demo\MASTER\obj/../Libraries/seekfree_peripheral/SEEKFREE_18TFT.c:235
    lcd_writeData(0x17); 
    2d64:	455d                	li	a0,23
    2d66:	364d                	jal	2908 <lcd_writeData>
C:\Users\windows\Desktop\A_Dual\A_Dual1\Dual-core_Communication_Demo\Dual-core_Communication_Demo\MASTER\obj/../Libraries/seekfree_peripheral/SEEKFREE_18TFT.c:236
    lcd_writeData(0x33); 
    2d68:	03300513          	li	a0,51
    2d6c:	3e71                	jal	2908 <lcd_writeData>
C:\Users\windows\Desktop\A_Dual\A_Dual1\Dual-core_Communication_Demo\Dual-core_Communication_Demo\MASTER\obj/../Libraries/seekfree_peripheral/SEEKFREE_18TFT.c:237
    lcd_writeData(0x2c); 
    2d6e:	02c00513          	li	a0,44
    2d72:	3e59                	jal	2908 <lcd_writeData>
C:\Users\windows\Desktop\A_Dual\A_Dual1\Dual-core_Communication_Demo\Dual-core_Communication_Demo\MASTER\obj/../Libraries/seekfree_peripheral/SEEKFREE_18TFT.c:238
    lcd_writeData(0x29); 
    2d74:	02900513          	li	a0,41
    2d78:	3e41                	jal	2908 <lcd_writeData>
C:\Users\windows\Desktop\A_Dual\A_Dual1\Dual-core_Communication_Demo\Dual-core_Communication_Demo\MASTER\obj/../Libraries/seekfree_peripheral/SEEKFREE_18TFT.c:239
    lcd_writeData(0x2e); 
    2d7a:	02e00513          	li	a0,46
    2d7e:	3669                	jal	2908 <lcd_writeData>
C:\Users\windows\Desktop\A_Dual\A_Dual1\Dual-core_Communication_Demo\Dual-core_Communication_Demo\MASTER\obj/../Libraries/seekfree_peripheral/SEEKFREE_18TFT.c:240
    lcd_writeData(0x30); 
    2d80:	03000513          	li	a0,48
    2d84:	3651                	jal	2908 <lcd_writeData>
C:\Users\windows\Desktop\A_Dual\A_Dual1\Dual-core_Communication_Demo\Dual-core_Communication_Demo\MASTER\obj/../Libraries/seekfree_peripheral/SEEKFREE_18TFT.c:241
    lcd_writeData(0x30); 
    2d86:	03000513          	li	a0,48
    2d8a:	3ebd                	jal	2908 <lcd_writeData>
C:\Users\windows\Desktop\A_Dual\A_Dual1\Dual-core_Communication_Demo\Dual-core_Communication_Demo\MASTER\obj/../Libraries/seekfree_peripheral/SEEKFREE_18TFT.c:242
    lcd_writeData(0x39); 
    2d8c:	03900513          	li	a0,57
    2d90:	3ea5                	jal	2908 <lcd_writeData>
C:\Users\windows\Desktop\A_Dual\A_Dual1\Dual-core_Communication_Demo\Dual-core_Communication_Demo\MASTER\obj/../Libraries/seekfree_peripheral/SEEKFREE_18TFT.c:243
    lcd_writeData(0x3f); 
    2d92:	03f00513          	li	a0,63
    2d96:	3e8d                	jal	2908 <lcd_writeData>
C:\Users\windows\Desktop\A_Dual\A_Dual1\Dual-core_Communication_Demo\Dual-core_Communication_Demo\MASTER\obj/../Libraries/seekfree_peripheral/SEEKFREE_18TFT.c:244
    lcd_writeData(0x00); 
    2d98:	4501                	li	a0,0
    2d9a:	36bd                	jal	2908 <lcd_writeData>
C:\Users\windows\Desktop\A_Dual\A_Dual1\Dual-core_Communication_Demo\Dual-core_Communication_Demo\MASTER\obj/../Libraries/seekfree_peripheral/SEEKFREE_18TFT.c:245
    lcd_writeData(0x07); 
    2d9c:	451d                	li	a0,7
    2d9e:	36ad                	jal	2908 <lcd_writeData>
C:\Users\windows\Desktop\A_Dual\A_Dual1\Dual-core_Communication_Demo\Dual-core_Communication_Demo\MASTER\obj/../Libraries/seekfree_peripheral/SEEKFREE_18TFT.c:246
    lcd_writeData(0x03); 
    2da0:	450d                	li	a0,3
    2da2:	369d                	jal	2908 <lcd_writeData>
C:\Users\windows\Desktop\A_Dual\A_Dual1\Dual-core_Communication_Demo\Dual-core_Communication_Demo\MASTER\obj/../Libraries/seekfree_peripheral/SEEKFREE_18TFT.c:247
    lcd_writeData(0x10);  
    2da4:	4541                	li	a0,16
    2da6:	368d                	jal	2908 <lcd_writeData>
C:\Users\windows\Desktop\A_Dual\A_Dual1\Dual-core_Communication_Demo\Dual-core_Communication_Demo\MASTER\obj/../Libraries/seekfree_peripheral/SEEKFREE_18TFT.c:249
    
    lcd_writeIndex(0x2a);
    2da8:	02a00513          	li	a0,42
    2dac:	b0bff0ef          	jal	ra,28b6 <lcd_writeIndex>
C:\Users\windows\Desktop\A_Dual\A_Dual1\Dual-core_Communication_Demo\Dual-core_Communication_Demo\MASTER\obj/../Libraries/seekfree_peripheral/SEEKFREE_18TFT.c:250
    lcd_writeData(0x00);
    2db0:	4501                	li	a0,0
    2db2:	3e99                	jal	2908 <lcd_writeData>
C:\Users\windows\Desktop\A_Dual\A_Dual1\Dual-core_Communication_Demo\Dual-core_Communication_Demo\MASTER\obj/../Libraries/seekfree_peripheral/SEEKFREE_18TFT.c:251
    lcd_writeData(0x00+2);
    2db4:	4509                	li	a0,2
    2db6:	3e89                	jal	2908 <lcd_writeData>
C:\Users\windows\Desktop\A_Dual\A_Dual1\Dual-core_Communication_Demo\Dual-core_Communication_Demo\MASTER\obj/../Libraries/seekfree_peripheral/SEEKFREE_18TFT.c:252
    lcd_writeData(0x00);
    2db8:	4501                	li	a0,0
    2dba:	b4fff0ef          	jal	ra,2908 <lcd_writeData>
C:\Users\windows\Desktop\A_Dual\A_Dual1\Dual-core_Communication_Demo\Dual-core_Communication_Demo\MASTER\obj/../Libraries/seekfree_peripheral/SEEKFREE_18TFT.c:253
    lcd_writeData(0x80+2);
    2dbe:	08200513          	li	a0,130
    2dc2:	b47ff0ef          	jal	ra,2908 <lcd_writeData>
C:\Users\windows\Desktop\A_Dual\A_Dual1\Dual-core_Communication_Demo\Dual-core_Communication_Demo\MASTER\obj/../Libraries/seekfree_peripheral/SEEKFREE_18TFT.c:255
    
    lcd_writeIndex(0x2b);
    2dc6:	02b00513          	li	a0,43
    2dca:	aedff0ef          	jal	ra,28b6 <lcd_writeIndex>
C:\Users\windows\Desktop\A_Dual\A_Dual1\Dual-core_Communication_Demo\Dual-core_Communication_Demo\MASTER\obj/../Libraries/seekfree_peripheral/SEEKFREE_18TFT.c:256
    lcd_writeData(0x00);
    2dce:	4501                	li	a0,0
    2dd0:	b39ff0ef          	jal	ra,2908 <lcd_writeData>
C:\Users\windows\Desktop\A_Dual\A_Dual1\Dual-core_Communication_Demo\Dual-core_Communication_Demo\MASTER\obj/../Libraries/seekfree_peripheral/SEEKFREE_18TFT.c:257
    lcd_writeData(0x00+3);
    2dd4:	450d                	li	a0,3
    2dd6:	b33ff0ef          	jal	ra,2908 <lcd_writeData>
C:\Users\windows\Desktop\A_Dual\A_Dual1\Dual-core_Communication_Demo\Dual-core_Communication_Demo\MASTER\obj/../Libraries/seekfree_peripheral/SEEKFREE_18TFT.c:258
    lcd_writeData(0x00);
    2dda:	4501                	li	a0,0
    2ddc:	b2dff0ef          	jal	ra,2908 <lcd_writeData>
C:\Users\windows\Desktop\A_Dual\A_Dual1\Dual-core_Communication_Demo\Dual-core_Communication_Demo\MASTER\obj/../Libraries/seekfree_peripheral/SEEKFREE_18TFT.c:259
    lcd_writeData(0x80+3);
    2de0:	08300513          	li	a0,131
    2de4:	b25ff0ef          	jal	ra,2908 <lcd_writeData>
C:\Users\windows\Desktop\A_Dual\A_Dual1\Dual-core_Communication_Demo\Dual-core_Communication_Demo\MASTER\obj/../Libraries/seekfree_peripheral/SEEKFREE_18TFT.c:261
    
    lcd_writeIndex(0xF0); 
    2de8:	0f000513          	li	a0,240
    2dec:	acbff0ef          	jal	ra,28b6 <lcd_writeIndex>
C:\Users\windows\Desktop\A_Dual\A_Dual1\Dual-core_Communication_Demo\Dual-core_Communication_Demo\MASTER\obj/../Libraries/seekfree_peripheral/SEEKFREE_18TFT.c:262
    lcd_writeData(0x01); 
    2df0:	4505                	li	a0,1
    2df2:	b17ff0ef          	jal	ra,2908 <lcd_writeData>
C:\Users\windows\Desktop\A_Dual\A_Dual1\Dual-core_Communication_Demo\Dual-core_Communication_Demo\MASTER\obj/../Libraries/seekfree_peripheral/SEEKFREE_18TFT.c:263
    lcd_writeIndex(0xF6);
    2df6:	0f600513          	li	a0,246
    2dfa:	abdff0ef          	jal	ra,28b6 <lcd_writeIndex>
C:\Users\windows\Desktop\A_Dual\A_Dual1\Dual-core_Communication_Demo\Dual-core_Communication_Demo\MASTER\obj/../Libraries/seekfree_peripheral/SEEKFREE_18TFT.c:264
    lcd_writeData(0x00); 
    2dfe:	4501                	li	a0,0
    2e00:	b09ff0ef          	jal	ra,2908 <lcd_writeData>
C:\Users\windows\Desktop\A_Dual\A_Dual1\Dual-core_Communication_Demo\Dual-core_Communication_Demo\MASTER\obj/../Libraries/seekfree_peripheral/SEEKFREE_18TFT.c:266
    
    lcd_writeIndex(0x3A);
    2e04:	03a00513          	li	a0,58
    2e08:	aafff0ef          	jal	ra,28b6 <lcd_writeIndex>
C:\Users\windows\Desktop\A_Dual\A_Dual1\Dual-core_Communication_Demo\Dual-core_Communication_Demo\MASTER\obj/../Libraries/seekfree_peripheral/SEEKFREE_18TFT.c:267
    lcd_writeData(0x05); 
    2e0c:	4515                	li	a0,5
    2e0e:	afbff0ef          	jal	ra,2908 <lcd_writeData>
C:\Users\windows\Desktop\A_Dual\A_Dual1\Dual-core_Communication_Demo\Dual-core_Communication_Demo\MASTER\obj/../Libraries/seekfree_peripheral/SEEKFREE_18TFT.c:268
    lcd_writeIndex(0x29);
    2e12:	02900513          	li	a0,41
    2e16:	aa1ff0ef          	jal	ra,28b6 <lcd_writeIndex>
C:\Users\windows\Desktop\A_Dual\A_Dual1\Dual-core_Communication_Demo\Dual-core_Communication_Demo\MASTER\obj/../Libraries/seekfree_peripheral/SEEKFREE_18TFT.c:270

    lcd_clear(WHITE);//
    2e1a:	67c1                	lui	a5,0x10
    2e1c:	fff78513          	addi	a0,a5,-1 # ffff <_data_lma+0x6913>
    2e20:	39d9                	jal	2af6 <lcd_clear>
C:\Users\windows\Desktop\A_Dual\A_Dual1\Dual-core_Communication_Demo\Dual-core_Communication_Demo\MASTER\obj/../Libraries/seekfree_peripheral/SEEKFREE_18TFT.c:271
}
    2e22:	0001                	nop
    2e24:	40f2                	lw	ra,28(sp)
    2e26:	4462                	lw	s0,24(sp)
    2e28:	4952                	lw	s2,20(sp)
    2e2a:	49c2                	lw	s3,16(sp)
    2e2c:	4a32                	lw	s4,12(sp)
    2e2e:	4aa2                	lw	s5,8(sp)
    2e30:	4b12                	lw	s6,4(sp)
    2e32:	4b82                	lw	s7,0(sp)
    2e34:	6105                	addi	sp,sp,32
    2e36:	8082                	ret

00002e38 <lcd_showchar>:
lcd_showchar():
C:\Users\windows\Desktop\A_Dual\A_Dual1\Dual-core_Communication_Demo\Dual-core_Communication_Demo\MASTER\obj/../Libraries/seekfree_peripheral/SEEKFREE_18TFT.c:301
//  @return     void
//  @since      v1.0
//  Sample usage:               lcd_showchar(0,0,'x');//0,0x
//-------------------------------------------------------------------------------------------------------------------
void lcd_showchar(uint16 x,uint16 y,const int8 dat)
{
    2e38:	7179                	addi	sp,sp,-48
    2e3a:	d606                	sw	ra,44(sp)
    2e3c:	d422                	sw	s0,40(sp)
    2e3e:	1800                	addi	s0,sp,48
    2e40:	87aa                	mv	a5,a0
    2e42:	86ae                	mv	a3,a1
    2e44:	8732                	mv	a4,a2
    2e46:	fcf41f23          	sh	a5,-34(s0)
    2e4a:	87b6                	mv	a5,a3
    2e4c:	fcf41e23          	sh	a5,-36(s0)
    2e50:	87ba                	mv	a5,a4
    2e52:	fcf40da3          	sb	a5,-37(s0)
C:\Users\windows\Desktop\A_Dual\A_Dual1\Dual-core_Communication_Demo\Dual-core_Communication_Demo\MASTER\obj/../Libraries/seekfree_peripheral/SEEKFREE_18TFT.c:305
    uint8 i,j;
    uint8 temp;
    
    for(i=0; i<16; i++)
    2e56:	fe0407a3          	sb	zero,-17(s0)
    2e5a:	a859                	j	2ef0 <lcd_showchar+0xb8>
C:\Users\windows\Desktop\A_Dual\A_Dual1\Dual-core_Communication_Demo\Dual-core_Communication_Demo\MASTER\obj/../Libraries/seekfree_peripheral/SEEKFREE_18TFT.c:307
    {
        lcd_set_region(x,y+i,x+7,y+i);
    2e5c:	fde45503          	lhu	a0,-34(s0)
    2e60:	fdc45703          	lhu	a4,-36(s0)
    2e64:	fef44783          	lbu	a5,-17(s0)
    2e68:	97ba                	add	a5,a5,a4
    2e6a:	85be                	mv	a1,a5
    2e6c:	fde45783          	lhu	a5,-34(s0)
    2e70:	079d                	addi	a5,a5,7
    2e72:	863e                	mv	a2,a5
    2e74:	fdc45703          	lhu	a4,-36(s0)
    2e78:	fef44783          	lbu	a5,-17(s0)
    2e7c:	97ba                	add	a5,a5,a4
    2e7e:	86be                	mv	a3,a5
    2e80:	b53ff0ef          	jal	ra,29d2 <lcd_set_region>
C:\Users\windows\Desktop\A_Dual\A_Dual1\Dual-core_Communication_Demo\Dual-core_Communication_Demo\MASTER\obj/../Libraries/seekfree_peripheral/SEEKFREE_18TFT.c:308
        temp = tft_ascii[dat-32][i];//32 ascii32
    2e84:	fdb40783          	lb	a5,-37(s0)
    2e88:	fe078693          	addi	a3,a5,-32
    2e8c:	fef44783          	lbu	a5,-17(s0)
    2e90:	6725                	lui	a4,0x9
    2e92:	0692                	slli	a3,a3,0x4
    2e94:	d1070713          	addi	a4,a4,-752 # 8d10 <tft_ascii>
    2e98:	9736                	add	a4,a4,a3
    2e9a:	97ba                	add	a5,a5,a4
    2e9c:	0007c783          	lbu	a5,0(a5)
    2ea0:	fef406a3          	sb	a5,-19(s0)
C:\Users\windows\Desktop\A_Dual\A_Dual1\Dual-core_Communication_Demo\Dual-core_Communication_Demo\MASTER\obj/../Libraries/seekfree_peripheral/SEEKFREE_18TFT.c:309
        for(j=0; j<8; j++)
    2ea4:	fe040723          	sb	zero,-18(s0)
    2ea8:	a815                	j	2edc <lcd_showchar+0xa4>
C:\Users\windows\Desktop\A_Dual\A_Dual1\Dual-core_Communication_Demo\Dual-core_Communication_Demo\MASTER\obj/../Libraries/seekfree_peripheral/SEEKFREE_18TFT.c:311
        {
            if(temp&0x01)   lcd_writedata_16bit(TFT_PENCOLOR);
    2eaa:	fed44783          	lbu	a5,-19(s0)
    2eae:	8b85                	andi	a5,a5,1
    2eb0:	c799                	beqz	a5,2ebe <lcd_showchar+0x86>
C:\Users\windows\Desktop\A_Dual\A_Dual1\Dual-core_Communication_Demo\Dual-core_Communication_Demo\MASTER\obj/../Libraries/seekfree_peripheral/SEEKFREE_18TFT.c:311 (discriminator 1)
    2eb2:	67c1                	lui	a5,0x10
    2eb4:	80078513          	addi	a0,a5,-2048 # f800 <_data_lma+0x6114>
    2eb8:	aa7ff0ef          	jal	ra,295e <lcd_writedata_16bit>
    2ebc:	a031                	j	2ec8 <lcd_showchar+0x90>
C:\Users\windows\Desktop\A_Dual\A_Dual1\Dual-core_Communication_Demo\Dual-core_Communication_Demo\MASTER\obj/../Libraries/seekfree_peripheral/SEEKFREE_18TFT.c:312
            else            lcd_writedata_16bit(TFT_BGCOLOR);
    2ebe:	67c1                	lui	a5,0x10
    2ec0:	fff78513          	addi	a0,a5,-1 # ffff <_data_lma+0x6913>
    2ec4:	a9bff0ef          	jal	ra,295e <lcd_writedata_16bit>
C:\Users\windows\Desktop\A_Dual\A_Dual1\Dual-core_Communication_Demo\Dual-core_Communication_Demo\MASTER\obj/../Libraries/seekfree_peripheral/SEEKFREE_18TFT.c:313 (discriminator 2)
            temp>>=1;
    2ec8:	fed44783          	lbu	a5,-19(s0)
    2ecc:	8385                	srli	a5,a5,0x1
    2ece:	fef406a3          	sb	a5,-19(s0)
C:\Users\windows\Desktop\A_Dual\A_Dual1\Dual-core_Communication_Demo\Dual-core_Communication_Demo\MASTER\obj/../Libraries/seekfree_peripheral/SEEKFREE_18TFT.c:309 (discriminator 2)
        for(j=0; j<8; j++)
    2ed2:	fee44783          	lbu	a5,-18(s0)
    2ed6:	0785                	addi	a5,a5,1
    2ed8:	fef40723          	sb	a5,-18(s0)
C:\Users\windows\Desktop\A_Dual\A_Dual1\Dual-core_Communication_Demo\Dual-core_Communication_Demo\MASTER\obj/../Libraries/seekfree_peripheral/SEEKFREE_18TFT.c:309 (discriminator 1)
    2edc:	fee44703          	lbu	a4,-18(s0)
    2ee0:	479d                	li	a5,7
    2ee2:	fce7f4e3          	bgeu	a5,a4,2eaa <lcd_showchar+0x72>
C:\Users\windows\Desktop\A_Dual\A_Dual1\Dual-core_Communication_Demo\Dual-core_Communication_Demo\MASTER\obj/../Libraries/seekfree_peripheral/SEEKFREE_18TFT.c:305 (discriminator 2)
    for(i=0; i<16; i++)
    2ee6:	fef44783          	lbu	a5,-17(s0)
    2eea:	0785                	addi	a5,a5,1
    2eec:	fef407a3          	sb	a5,-17(s0)
C:\Users\windows\Desktop\A_Dual\A_Dual1\Dual-core_Communication_Demo\Dual-core_Communication_Demo\MASTER\obj/../Libraries/seekfree_peripheral/SEEKFREE_18TFT.c:305 (discriminator 1)
    2ef0:	fef44703          	lbu	a4,-17(s0)
    2ef4:	47bd                	li	a5,15
    2ef6:	f6e7f3e3          	bgeu	a5,a4,2e5c <lcd_showchar+0x24>
C:\Users\windows\Desktop\A_Dual\A_Dual1\Dual-core_Communication_Demo\Dual-core_Communication_Demo\MASTER\obj/../Libraries/seekfree_peripheral/SEEKFREE_18TFT.c:316
        }
    }
}
    2efa:	0001                	nop
    2efc:	50b2                	lw	ra,44(sp)
    2efe:	5422                	lw	s0,40(sp)
    2f00:	6145                	addi	sp,sp,48
    2f02:	8082                	ret

00002f04 <lcd_showstr>:
lcd_showstr():
C:\Users\windows\Desktop\A_Dual\A_Dual1\Dual-core_Communication_Demo\Dual-core_Communication_Demo\MASTER\obj/../Libraries/seekfree_peripheral/SEEKFREE_18TFT.c:328
//  @return     void
//  @since      v1.0
//  Sample usage:               lcd_showstr(0,0,"seekfree");
//-------------------------------------------------------------------------------------------------------------------
void lcd_showstr(uint16 x,uint16 y,const int8 dat[])
{
    2f04:	7179                	addi	sp,sp,-48
    2f06:	d606                	sw	ra,44(sp)
    2f08:	d422                	sw	s0,40(sp)
    2f0a:	1800                	addi	s0,sp,48
    2f0c:	87aa                	mv	a5,a0
    2f0e:	872e                	mv	a4,a1
    2f10:	fcc42c23          	sw	a2,-40(s0)
    2f14:	fcf41f23          	sh	a5,-34(s0)
    2f18:	87ba                	mv	a5,a4
    2f1a:	fcf41e23          	sh	a5,-36(s0)
C:\Users\windows\Desktop\A_Dual\A_Dual1\Dual-core_Communication_Demo\Dual-core_Communication_Demo\MASTER\obj/../Libraries/seekfree_peripheral/SEEKFREE_18TFT.c:331
    uint16 j;

    j = 0;
    2f1e:	fe041723          	sh	zero,-18(s0)
C:\Users\windows\Desktop\A_Dual\A_Dual1\Dual-core_Communication_Demo\Dual-core_Communication_Demo\MASTER\obj/../Libraries/seekfree_peripheral/SEEKFREE_18TFT.c:332
    while(dat[j] != '\0')
    2f22:	a091                	j	2f66 <lcd_showstr+0x62>
C:\Users\windows\Desktop\A_Dual\A_Dual1\Dual-core_Communication_Demo\Dual-core_Communication_Demo\MASTER\obj/../Libraries/seekfree_peripheral/SEEKFREE_18TFT.c:334
    {
        lcd_showchar(x+8*j,y*16,dat[j]);
    2f24:	fee45783          	lhu	a5,-18(s0)
    2f28:	078e                	slli	a5,a5,0x3
    2f2a:	01079713          	slli	a4,a5,0x10
    2f2e:	8341                	srli	a4,a4,0x10
    2f30:	fde45783          	lhu	a5,-34(s0)
    2f34:	97ba                	add	a5,a5,a4
    2f36:	01079693          	slli	a3,a5,0x10
    2f3a:	82c1                	srli	a3,a3,0x10
    2f3c:	fdc45783          	lhu	a5,-36(s0)
    2f40:	0792                	slli	a5,a5,0x4
    2f42:	01079593          	slli	a1,a5,0x10
    2f46:	81c1                	srli	a1,a1,0x10
    2f48:	fee45783          	lhu	a5,-18(s0)
    2f4c:	fd842703          	lw	a4,-40(s0)
    2f50:	97ba                	add	a5,a5,a4
    2f52:	00078783          	lb	a5,0(a5)
    2f56:	863e                	mv	a2,a5
    2f58:	8536                	mv	a0,a3
    2f5a:	3df9                	jal	2e38 <lcd_showchar>
C:\Users\windows\Desktop\A_Dual\A_Dual1\Dual-core_Communication_Demo\Dual-core_Communication_Demo\MASTER\obj/../Libraries/seekfree_peripheral/SEEKFREE_18TFT.c:335
        j++;
    2f5c:	fee45783          	lhu	a5,-18(s0)
    2f60:	0785                	addi	a5,a5,1
    2f62:	fef41723          	sh	a5,-18(s0)
C:\Users\windows\Desktop\A_Dual\A_Dual1\Dual-core_Communication_Demo\Dual-core_Communication_Demo\MASTER\obj/../Libraries/seekfree_peripheral/SEEKFREE_18TFT.c:332
    while(dat[j] != '\0')
    2f66:	fee45783          	lhu	a5,-18(s0)
    2f6a:	fd842703          	lw	a4,-40(s0)
    2f6e:	97ba                	add	a5,a5,a4
    2f70:	00078783          	lb	a5,0(a5)
    2f74:	fbc5                	bnez	a5,2f24 <lcd_showstr+0x20>
C:\Users\windows\Desktop\A_Dual\A_Dual1\Dual-core_Communication_Demo\Dual-core_Communication_Demo\MASTER\obj/../Libraries/seekfree_peripheral/SEEKFREE_18TFT.c:337
    }
}
    2f76:	0001                	nop
    2f78:	50b2                	lw	ra,44(sp)
    2f7a:	5422                	lw	s0,40(sp)
    2f7c:	6145                	addi	sp,sp,48
    2f7e:	8082                	ret

00002f80 <lcd_showint16>:
lcd_showint16():
C:\Users\windows\Desktop\A_Dual\A_Dual1\Dual-core_Communication_Demo\Dual-core_Communication_Demo\MASTER\obj/../Libraries/seekfree_peripheral/SEEKFREE_18TFT.c:406
//  @return     void
//  @since      v1.0
//  Sample usage:               lcd_showint16(0,0,x);//xint16
//-------------------------------------------------------------------------------------------------------------------
void lcd_showint16(uint16 x,uint16 y,int16 dat)
{
    2f80:	7179                	addi	sp,sp,-48
    2f82:	d606                	sw	ra,44(sp)
    2f84:	d422                	sw	s0,40(sp)
    2f86:	1800                	addi	s0,sp,48
    2f88:	87aa                	mv	a5,a0
    2f8a:	86ae                	mv	a3,a1
    2f8c:	8732                	mv	a4,a2
    2f8e:	fcf41f23          	sh	a5,-34(s0)
    2f92:	87b6                	mv	a5,a3
    2f94:	fcf41e23          	sh	a5,-36(s0)
    2f98:	87ba                	mv	a5,a4
    2f9a:	fcf41d23          	sh	a5,-38(s0)
C:\Users\windows\Desktop\A_Dual\A_Dual1\Dual-core_Communication_Demo\Dual-core_Communication_Demo\MASTER\obj/../Libraries/seekfree_peripheral/SEEKFREE_18TFT.c:409
    uint8 a[5];
    uint8 i;
    if(dat<0)
    2f9e:	fda41783          	lh	a5,-38(s0)
    2fa2:	0207d863          	bgez	a5,2fd2 <lcd_showint16+0x52>
C:\Users\windows\Desktop\A_Dual\A_Dual1\Dual-core_Communication_Demo\Dual-core_Communication_Demo\MASTER\obj/../Libraries/seekfree_peripheral/SEEKFREE_18TFT.c:411
    {
        lcd_showchar(x,y*16,'-');
    2fa6:	fdc45783          	lhu	a5,-36(s0)
    2faa:	0792                	slli	a5,a5,0x4
    2fac:	01079713          	slli	a4,a5,0x10
    2fb0:	8341                	srli	a4,a4,0x10
    2fb2:	fde45783          	lhu	a5,-34(s0)
    2fb6:	02d00613          	li	a2,45
    2fba:	85ba                	mv	a1,a4
    2fbc:	853e                	mv	a0,a5
    2fbe:	3dad                	jal	2e38 <lcd_showchar>
C:\Users\windows\Desktop\A_Dual\A_Dual1\Dual-core_Communication_Demo\Dual-core_Communication_Demo\MASTER\obj/../Libraries/seekfree_peripheral/SEEKFREE_18TFT.c:412
        dat = -dat;
    2fc0:	fda45783          	lhu	a5,-38(s0)
    2fc4:	40f007b3          	neg	a5,a5
    2fc8:	07c2                	slli	a5,a5,0x10
    2fca:	83c1                	srli	a5,a5,0x10
    2fcc:	fcf41d23          	sh	a5,-38(s0)
    2fd0:	a831                	j	2fec <lcd_showint16+0x6c>
C:\Users\windows\Desktop\A_Dual\A_Dual1\Dual-core_Communication_Demo\Dual-core_Communication_Demo\MASTER\obj/../Libraries/seekfree_peripheral/SEEKFREE_18TFT.c:414
    }
    else    lcd_showchar(x,y*16,' ');
    2fd2:	fdc45783          	lhu	a5,-36(s0)
    2fd6:	0792                	slli	a5,a5,0x4
    2fd8:	01079713          	slli	a4,a5,0x10
    2fdc:	8341                	srli	a4,a4,0x10
    2fde:	fde45783          	lhu	a5,-34(s0)
    2fe2:	02000613          	li	a2,32
    2fe6:	85ba                	mv	a1,a4
    2fe8:	853e                	mv	a0,a5
    2fea:	35b9                	jal	2e38 <lcd_showchar>
C:\Users\windows\Desktop\A_Dual\A_Dual1\Dual-core_Communication_Demo\Dual-core_Communication_Demo\MASTER\obj/../Libraries/seekfree_peripheral/SEEKFREE_18TFT.c:416

    a[0] = dat/10000;
    2fec:	fda41703          	lh	a4,-38(s0)
    2ff0:	6789                	lui	a5,0x2
    2ff2:	71078793          	addi	a5,a5,1808 # 2710 <USART_ReceiveData+0x16>
    2ff6:	02f747b3          	div	a5,a4,a5
    2ffa:	07c2                	slli	a5,a5,0x10
    2ffc:	87c1                	srai	a5,a5,0x10
    2ffe:	0ff7f793          	andi	a5,a5,255
    3002:	fef40423          	sb	a5,-24(s0)
C:\Users\windows\Desktop\A_Dual\A_Dual1\Dual-core_Communication_Demo\Dual-core_Communication_Demo\MASTER\obj/../Libraries/seekfree_peripheral/SEEKFREE_18TFT.c:417
    a[1] = dat/1000%10;
    3006:	fda41703          	lh	a4,-38(s0)
    300a:	3e800793          	li	a5,1000
    300e:	02f747b3          	div	a5,a4,a5
    3012:	01079713          	slli	a4,a5,0x10
    3016:	8741                	srai	a4,a4,0x10
    3018:	47a9                	li	a5,10
    301a:	02f767b3          	rem	a5,a4,a5
    301e:	07c2                	slli	a5,a5,0x10
    3020:	87c1                	srai	a5,a5,0x10
    3022:	0ff7f793          	andi	a5,a5,255
    3026:	fef404a3          	sb	a5,-23(s0)
C:\Users\windows\Desktop\A_Dual\A_Dual1\Dual-core_Communication_Demo\Dual-core_Communication_Demo\MASTER\obj/../Libraries/seekfree_peripheral/SEEKFREE_18TFT.c:418
    a[2] = dat/100%10;
    302a:	fda41703          	lh	a4,-38(s0)
    302e:	06400793          	li	a5,100
    3032:	02f747b3          	div	a5,a4,a5
    3036:	01079713          	slli	a4,a5,0x10
    303a:	8741                	srai	a4,a4,0x10
    303c:	47a9                	li	a5,10
    303e:	02f767b3          	rem	a5,a4,a5
    3042:	07c2                	slli	a5,a5,0x10
    3044:	87c1                	srai	a5,a5,0x10
    3046:	0ff7f793          	andi	a5,a5,255
    304a:	fef40523          	sb	a5,-22(s0)
C:\Users\windows\Desktop\A_Dual\A_Dual1\Dual-core_Communication_Demo\Dual-core_Communication_Demo\MASTER\obj/../Libraries/seekfree_peripheral/SEEKFREE_18TFT.c:419
    a[3] = dat/10%10;
    304e:	fda41703          	lh	a4,-38(s0)
    3052:	47a9                	li	a5,10
    3054:	02f747b3          	div	a5,a4,a5
    3058:	01079713          	slli	a4,a5,0x10
    305c:	8741                	srai	a4,a4,0x10
    305e:	47a9                	li	a5,10
    3060:	02f767b3          	rem	a5,a4,a5
    3064:	07c2                	slli	a5,a5,0x10
    3066:	87c1                	srai	a5,a5,0x10
    3068:	0ff7f793          	andi	a5,a5,255
    306c:	fef405a3          	sb	a5,-21(s0)
C:\Users\windows\Desktop\A_Dual\A_Dual1\Dual-core_Communication_Demo\Dual-core_Communication_Demo\MASTER\obj/../Libraries/seekfree_peripheral/SEEKFREE_18TFT.c:420
    a[4] = dat%10;
    3070:	fda41703          	lh	a4,-38(s0)
    3074:	47a9                	li	a5,10
    3076:	02f767b3          	rem	a5,a4,a5
    307a:	07c2                	slli	a5,a5,0x10
    307c:	87c1                	srai	a5,a5,0x10
    307e:	0ff7f793          	andi	a5,a5,255
    3082:	fef40623          	sb	a5,-20(s0)
C:\Users\windows\Desktop\A_Dual\A_Dual1\Dual-core_Communication_Demo\Dual-core_Communication_Demo\MASTER\obj/../Libraries/seekfree_peripheral/SEEKFREE_18TFT.c:422

    i = 0;
    3086:	fe0407a3          	sb	zero,-17(s0)
C:\Users\windows\Desktop\A_Dual\A_Dual1\Dual-core_Communication_Demo\Dual-core_Communication_Demo\MASTER\obj/../Libraries/seekfree_peripheral/SEEKFREE_18TFT.c:423
    while(i<5)
    308a:	a8a9                	j	30e4 <lcd_showint16+0x164>
C:\Users\windows\Desktop\A_Dual\A_Dual1\Dual-core_Communication_Demo\Dual-core_Communication_Demo\MASTER\obj/../Libraries/seekfree_peripheral/SEEKFREE_18TFT.c:425
    {
        lcd_showchar(x+(8*(i+1)),y*16,'0' + a[i]);
    308c:	fef44783          	lbu	a5,-17(s0)
    3090:	0785                	addi	a5,a5,1
    3092:	07c2                	slli	a5,a5,0x10
    3094:	83c1                	srli	a5,a5,0x10
    3096:	078e                	slli	a5,a5,0x3
    3098:	01079713          	slli	a4,a5,0x10
    309c:	8341                	srli	a4,a4,0x10
    309e:	fde45783          	lhu	a5,-34(s0)
    30a2:	97ba                	add	a5,a5,a4
    30a4:	01079713          	slli	a4,a5,0x10
    30a8:	8341                	srli	a4,a4,0x10
    30aa:	fdc45783          	lhu	a5,-36(s0)
    30ae:	0792                	slli	a5,a5,0x4
    30b0:	01079693          	slli	a3,a5,0x10
    30b4:	82c1                	srli	a3,a3,0x10
    30b6:	fef44783          	lbu	a5,-17(s0)
    30ba:	ff040613          	addi	a2,s0,-16
    30be:	97b2                	add	a5,a5,a2
    30c0:	ff87c783          	lbu	a5,-8(a5)
    30c4:	03078793          	addi	a5,a5,48
    30c8:	0ff7f793          	andi	a5,a5,255
    30cc:	07e2                	slli	a5,a5,0x18
    30ce:	87e1                	srai	a5,a5,0x18
    30d0:	863e                	mv	a2,a5
    30d2:	85b6                	mv	a1,a3
    30d4:	853a                	mv	a0,a4
    30d6:	d63ff0ef          	jal	ra,2e38 <lcd_showchar>
C:\Users\windows\Desktop\A_Dual\A_Dual1\Dual-core_Communication_Demo\Dual-core_Communication_Demo\MASTER\obj/../Libraries/seekfree_peripheral/SEEKFREE_18TFT.c:426
        i++;
    30da:	fef44783          	lbu	a5,-17(s0)
    30de:	0785                	addi	a5,a5,1
    30e0:	fef407a3          	sb	a5,-17(s0)
C:\Users\windows\Desktop\A_Dual\A_Dual1\Dual-core_Communication_Demo\Dual-core_Communication_Demo\MASTER\obj/../Libraries/seekfree_peripheral/SEEKFREE_18TFT.c:423
    while(i<5)
    30e4:	fef44703          	lbu	a4,-17(s0)
    30e8:	4791                	li	a5,4
    30ea:	fae7f1e3          	bgeu	a5,a4,308c <lcd_showint16+0x10c>
C:\Users\windows\Desktop\A_Dual\A_Dual1\Dual-core_Communication_Demo\Dual-core_Communication_Demo\MASTER\obj/../Libraries/seekfree_peripheral/SEEKFREE_18TFT.c:428
    }
}
    30ee:	0001                	nop
    30f0:	50b2                	lw	ra,44(sp)
    30f2:	5422                	lw	s0,40(sp)
    30f4:	6145                	addi	sp,sp,48
    30f6:	8082                	ret

000030f8 <lcd_showfloat>:
lcd_showfloat():
C:\Users\windows\Desktop\A_Dual\A_Dual1\Dual-core_Communication_Demo\Dual-core_Communication_Demo\MASTER\obj/../Libraries/seekfree_peripheral/SEEKFREE_18TFT.c:511
//                              
//                                 
//                               -   
//-------------------------------------------------------------------------------------------------------------------
void lcd_showfloat(uint16 x,uint16 y,double dat,uint8 num,uint8 pointnum)
{
    30f8:	715d                	addi	sp,sp,-80
    30fa:	c686                	sw	ra,76(sp)
    30fc:	c4a2                	sw	s0,72(sp)
    30fe:	0880                	addi	s0,sp,80
    3100:	fac42823          	sw	a2,-80(s0)
    3104:	fad42a23          	sw	a3,-76(s0)
    3108:	86ba                	mv	a3,a4
    310a:	873e                	mv	a4,a5
    310c:	87aa                	mv	a5,a0
    310e:	faf41f23          	sh	a5,-66(s0)
    3112:	87ae                	mv	a5,a1
    3114:	faf41e23          	sh	a5,-68(s0)
    3118:	87b6                	mv	a5,a3
    311a:	faf40da3          	sb	a5,-69(s0)
    311e:	87ba                	mv	a5,a4
    3120:	faf40d23          	sb	a5,-70(s0)
C:\Users\windows\Desktop\A_Dual\A_Dual1\Dual-core_Communication_Demo\Dual-core_Communication_Demo\MASTER\obj/../Libraries/seekfree_peripheral/SEEKFREE_18TFT.c:516
    uint8   length;
    int8    buff[34];
    int8    start,end,point;

    if(6<pointnum)  pointnum = 6;
    3124:	fba44703          	lbu	a4,-70(s0)
    3128:	4799                	li	a5,6
    312a:	00e7f563          	bgeu	a5,a4,3134 <lcd_showfloat+0x3c>
C:\Users\windows\Desktop\A_Dual\A_Dual1\Dual-core_Communication_Demo\Dual-core_Communication_Demo\MASTER\obj/../Libraries/seekfree_peripheral/SEEKFREE_18TFT.c:516 (discriminator 1)
    312e:	4799                	li	a5,6
    3130:	faf40d23          	sb	a5,-70(s0)
C:\Users\windows\Desktop\A_Dual\A_Dual1\Dual-core_Communication_Demo\Dual-core_Communication_Demo\MASTER\obj/../Libraries/seekfree_peripheral/SEEKFREE_18TFT.c:517
    if(10<num)      num = 10;
    3134:	fbb44703          	lbu	a4,-69(s0)
    3138:	47a9                	li	a5,10
    313a:	00e7f563          	bgeu	a5,a4,3144 <lcd_showfloat+0x4c>
C:\Users\windows\Desktop\A_Dual\A_Dual1\Dual-core_Communication_Demo\Dual-core_Communication_Demo\MASTER\obj/../Libraries/seekfree_peripheral/SEEKFREE_18TFT.c:517 (discriminator 1)
    313e:	47a9                	li	a5,10
    3140:	faf40da3          	sb	a5,-69(s0)
C:\Users\windows\Desktop\A_Dual\A_Dual1\Dual-core_Communication_Demo\Dual-core_Communication_Demo\MASTER\obj/../Libraries/seekfree_peripheral/SEEKFREE_18TFT.c:519
        
    if(0>dat)   length = zf_sprintf( &buff[0],"%f",dat);//
    3144:	4601                	li	a2,0
    3146:	4681                	li	a3,0
    3148:	fb042503          	lw	a0,-80(s0)
    314c:	fb442583          	lw	a1,-76(s0)
    3150:	577020ef          	jal	ra,5ec6 <__ledf2>
    3154:	87aa                	mv	a5,a0
    3156:	0207d163          	bgez	a5,3178 <lcd_showfloat+0x80>
C:\Users\windows\Desktop\A_Dual\A_Dual1\Dual-core_Communication_Demo\Dual-core_Communication_Demo\MASTER\obj/../Libraries/seekfree_peripheral/SEEKFREE_18TFT.c:519 (discriminator 1)
    315a:	fc840713          	addi	a4,s0,-56
    315e:	fb042603          	lw	a2,-80(s0)
    3162:	fb442683          	lw	a3,-76(s0)
    3166:	67a5                	lui	a5,0x9
    3168:	cb078593          	addi	a1,a5,-848 # 8cb0 <_exit+0x90>
    316c:	853a                	mv	a0,a4
    316e:	2e61                	jal	3506 <zf_sprintf>
    3170:	87aa                	mv	a5,a0
    3172:	fef407a3          	sb	a5,-17(s0)
    3176:	a035                	j	31a2 <lcd_showfloat+0xaa>
C:\Users\windows\Desktop\A_Dual\A_Dual1\Dual-core_Communication_Demo\Dual-core_Communication_Demo\MASTER\obj/../Libraries/seekfree_peripheral/SEEKFREE_18TFT.c:522
    else
    {
        length = zf_sprintf( &buff[1],"%f",dat);
    3178:	fc840793          	addi	a5,s0,-56
    317c:	00178713          	addi	a4,a5,1
    3180:	fb042603          	lw	a2,-80(s0)
    3184:	fb442683          	lw	a3,-76(s0)
    3188:	67a5                	lui	a5,0x9
    318a:	cb078593          	addi	a1,a5,-848 # 8cb0 <_exit+0x90>
    318e:	853a                	mv	a0,a4
    3190:	2e9d                	jal	3506 <zf_sprintf>
    3192:	87aa                	mv	a5,a0
    3194:	fef407a3          	sb	a5,-17(s0)
C:\Users\windows\Desktop\A_Dual\A_Dual1\Dual-core_Communication_Demo\Dual-core_Communication_Demo\MASTER\obj/../Libraries/seekfree_peripheral/SEEKFREE_18TFT.c:523
        length++;
    3198:	fef44783          	lbu	a5,-17(s0)
    319c:	0785                	addi	a5,a5,1
    319e:	fef407a3          	sb	a5,-17(s0)
C:\Users\windows\Desktop\A_Dual\A_Dual1\Dual-core_Communication_Demo\Dual-core_Communication_Demo\MASTER\obj/../Libraries/seekfree_peripheral/SEEKFREE_18TFT.c:525
    }
    point = length - 7;         //
    31a2:	fef44783          	lbu	a5,-17(s0)
    31a6:	17e5                	addi	a5,a5,-7
    31a8:	0ff7f793          	andi	a5,a5,255
    31ac:	fef40623          	sb	a5,-20(s0)
C:\Users\windows\Desktop\A_Dual\A_Dual1\Dual-core_Communication_Demo\Dual-core_Communication_Demo\MASTER\obj/../Libraries/seekfree_peripheral/SEEKFREE_18TFT.c:526
    start = point - num - 1;    //
    31b0:	fec44703          	lbu	a4,-20(s0)
    31b4:	fbb44783          	lbu	a5,-69(s0)
    31b8:	40f707b3          	sub	a5,a4,a5
    31bc:	0ff7f793          	andi	a5,a5,255
    31c0:	17fd                	addi	a5,a5,-1
    31c2:	0ff7f793          	andi	a5,a5,255
    31c6:	fef40723          	sb	a5,-18(s0)
C:\Users\windows\Desktop\A_Dual\A_Dual1\Dual-core_Communication_Demo\Dual-core_Communication_Demo\MASTER\obj/../Libraries/seekfree_peripheral/SEEKFREE_18TFT.c:527
    end = point + pointnum + 1; //
    31ca:	fec44703          	lbu	a4,-20(s0)
    31ce:	fba44783          	lbu	a5,-70(s0)
    31d2:	97ba                	add	a5,a5,a4
    31d4:	0ff7f793          	andi	a5,a5,255
    31d8:	0785                	addi	a5,a5,1
    31da:	0ff7f793          	andi	a5,a5,255
    31de:	fef406a3          	sb	a5,-19(s0)
C:\Users\windows\Desktop\A_Dual\A_Dual1\Dual-core_Communication_Demo\Dual-core_Communication_Demo\MASTER\obj/../Libraries/seekfree_peripheral/SEEKFREE_18TFT.c:528
    while(0>start)//  
    31e2:	a825                	j	321a <lcd_showfloat+0x122>
C:\Users\windows\Desktop\A_Dual\A_Dual1\Dual-core_Communication_Demo\Dual-core_Communication_Demo\MASTER\obj/../Libraries/seekfree_peripheral/SEEKFREE_18TFT.c:530
    {
        buff[end] = ' ';
    31e4:	fed40783          	lb	a5,-19(s0)
    31e8:	ff040713          	addi	a4,s0,-16
    31ec:	97ba                	add	a5,a5,a4
    31ee:	02000713          	li	a4,32
    31f2:	fce78c23          	sb	a4,-40(a5)
C:\Users\windows\Desktop\A_Dual\A_Dual1\Dual-core_Communication_Demo\Dual-core_Communication_Demo\MASTER\obj/../Libraries/seekfree_peripheral/SEEKFREE_18TFT.c:531
        end++;
    31f6:	fed40783          	lb	a5,-19(s0)
    31fa:	0ff7f793          	andi	a5,a5,255
    31fe:	0785                	addi	a5,a5,1
    3200:	0ff7f793          	andi	a5,a5,255
    3204:	fef406a3          	sb	a5,-19(s0)
C:\Users\windows\Desktop\A_Dual\A_Dual1\Dual-core_Communication_Demo\Dual-core_Communication_Demo\MASTER\obj/../Libraries/seekfree_peripheral/SEEKFREE_18TFT.c:532
        start++;
    3208:	fee40783          	lb	a5,-18(s0)
    320c:	0ff7f793          	andi	a5,a5,255
    3210:	0785                	addi	a5,a5,1
    3212:	0ff7f793          	andi	a5,a5,255
    3216:	fef40723          	sb	a5,-18(s0)
C:\Users\windows\Desktop\A_Dual\A_Dual1\Dual-core_Communication_Demo\Dual-core_Communication_Demo\MASTER\obj/../Libraries/seekfree_peripheral/SEEKFREE_18TFT.c:528
    while(0>start)//  
    321a:	fee40783          	lb	a5,-18(s0)
    321e:	fc07c3e3          	bltz	a5,31e4 <lcd_showfloat+0xec>
C:\Users\windows\Desktop\A_Dual\A_Dual1\Dual-core_Communication_Demo\Dual-core_Communication_Demo\MASTER\obj/../Libraries/seekfree_peripheral/SEEKFREE_18TFT.c:535
    }
    
    if(0>dat)   buff[start] = '-';
    3222:	4601                	li	a2,0
    3224:	4681                	li	a3,0
    3226:	fb042503          	lw	a0,-80(s0)
    322a:	fb442583          	lw	a1,-76(s0)
    322e:	499020ef          	jal	ra,5ec6 <__ledf2>
    3232:	87aa                	mv	a5,a0
    3234:	0007dc63          	bgez	a5,324c <lcd_showfloat+0x154>
C:\Users\windows\Desktop\A_Dual\A_Dual1\Dual-core_Communication_Demo\Dual-core_Communication_Demo\MASTER\obj/../Libraries/seekfree_peripheral/SEEKFREE_18TFT.c:535 (discriminator 1)
    3238:	fee40783          	lb	a5,-18(s0)
    323c:	ff040713          	addi	a4,s0,-16
    3240:	97ba                	add	a5,a5,a4
    3242:	02d00713          	li	a4,45
    3246:	fce78c23          	sb	a4,-40(a5)
    324a:	a811                	j	325e <lcd_showfloat+0x166>
C:\Users\windows\Desktop\A_Dual\A_Dual1\Dual-core_Communication_Demo\Dual-core_Communication_Demo\MASTER\obj/../Libraries/seekfree_peripheral/SEEKFREE_18TFT.c:536
    else        buff[start] = ' ';
    324c:	fee40783          	lb	a5,-18(s0)
    3250:	ff040713          	addi	a4,s0,-16
    3254:	97ba                	add	a5,a5,a4
    3256:	02000713          	li	a4,32
    325a:	fce78c23          	sb	a4,-40(a5)
C:\Users\windows\Desktop\A_Dual\A_Dual1\Dual-core_Communication_Demo\Dual-core_Communication_Demo\MASTER\obj/../Libraries/seekfree_peripheral/SEEKFREE_18TFT.c:538
    
    buff[end] = '\0';
    325e:	fed40783          	lb	a5,-19(s0)
    3262:	ff040713          	addi	a4,s0,-16
    3266:	97ba                	add	a5,a5,a4
    3268:	fc078c23          	sb	zero,-40(a5)
C:\Users\windows\Desktop\A_Dual\A_Dual1\Dual-core_Communication_Demo\Dual-core_Communication_Demo\MASTER\obj/../Libraries/seekfree_peripheral/SEEKFREE_18TFT.c:540

    lcd_showstr(x, y, buff);    //
    326c:	fc840693          	addi	a3,s0,-56
    3270:	fbc45703          	lhu	a4,-68(s0)
    3274:	fbe45783          	lhu	a5,-66(s0)
    3278:	8636                	mv	a2,a3
    327a:	85ba                	mv	a1,a4
    327c:	853e                	mv	a0,a5
    327e:	c87ff0ef          	jal	ra,2f04 <lcd_showstr>
C:\Users\windows\Desktop\A_Dual\A_Dual1\Dual-core_Communication_Demo\Dual-core_Communication_Demo\MASTER\obj/../Libraries/seekfree_peripheral/SEEKFREE_18TFT.c:541
}
    3282:	0001                	nop
    3284:	40b6                	lw	ra,76(sp)
    3286:	4426                	lw	s0,72(sp)
    3288:	6161                	addi	sp,sp,80
    328a:	8082                	ret

0000328c <mt9v03x_uart_callback>:
mt9v03x_uart_callback():
C:\Users\windows\Desktop\A_Dual\A_Dual1\Dual-core_Communication_Demo\Dual-core_Communication_Demo\MASTER\obj/../Libraries/seekfree_peripheral/SEEKFREE_MT9V03X.c:90
//  @since      v1.0
//  Sample usage:
//  @note       
//-------------------------------------------------------------------------------------------------------------------
void mt9v03x_uart_callback(void)
{
    328c:	1141                	addi	sp,sp,-16
    328e:	c622                	sw	s0,12(sp)
    3290:	0800                	addi	s0,sp,16
C:\Users\windows\Desktop\A_Dual\A_Dual1\Dual-core_Communication_Demo\Dual-core_Communication_Demo\MASTER\obj/../Libraries/seekfree_peripheral/SEEKFREE_MT9V03X.c:91
    receive[receive_num] = ((USART_TypeDef*)UARTN[MT9V03X_COF_UART])->DATAR & 0x01FF;;
    3292:	67a5                	lui	a5,0x9
    3294:	48078793          	addi	a5,a5,1152 # 9480 <UARTN>
    3298:	43dc                	lw	a5,4(a5)
    329a:	0047d783          	lhu	a5,4(a5)
    329e:	01079713          	slli	a4,a5,0x10
    32a2:	8341                	srli	a4,a4,0x10
    32a4:	82b1c783          	lbu	a5,-2005(gp) # 2000009b <receive_num>
    32a8:	86be                	mv	a3,a5
    32aa:	0ff77713          	andi	a4,a4,255
    32ae:	82818793          	addi	a5,gp,-2008 # 20000098 <receive>
    32b2:	97b6                	add	a5,a5,a3
    32b4:	00e78023          	sb	a4,0(a5)
C:\Users\windows\Desktop\A_Dual\A_Dual1\Dual-core_Communication_Demo\Dual-core_Communication_Demo\MASTER\obj/../Libraries/seekfree_peripheral/SEEKFREE_MT9V03X.c:92
    receive_num++;
    32b8:	82b1c783          	lbu	a5,-2005(gp) # 2000009b <receive_num>
    32bc:	0785                	addi	a5,a5,1
    32be:	0ff7f713          	andi	a4,a5,255
    32c2:	82e185a3          	sb	a4,-2005(gp) # 2000009b <receive_num>
C:\Users\windows\Desktop\A_Dual\A_Dual1\Dual-core_Communication_Demo\Dual-core_Communication_Demo\MASTER\obj/../Libraries/seekfree_peripheral/SEEKFREE_MT9V03X.c:94

    if(1==receive_num && 0XA5!=receive[0])  receive_num = 0;
    32c6:	82b1c703          	lbu	a4,-2005(gp) # 2000009b <receive_num>
    32ca:	4785                	li	a5,1
    32cc:	00f71a63          	bne	a4,a5,32e0 <mt9v03x_uart_callback+0x54>
C:\Users\windows\Desktop\A_Dual\A_Dual1\Dual-core_Communication_Demo\Dual-core_Communication_Demo\MASTER\obj/../Libraries/seekfree_peripheral/SEEKFREE_MT9V03X.c:94 (discriminator 1)
    32d0:	8281c703          	lbu	a4,-2008(gp) # 20000098 <receive>
    32d4:	0a500793          	li	a5,165
    32d8:	00f70463          	beq	a4,a5,32e0 <mt9v03x_uart_callback+0x54>
C:\Users\windows\Desktop\A_Dual\A_Dual1\Dual-core_Communication_Demo\Dual-core_Communication_Demo\MASTER\obj/../Libraries/seekfree_peripheral/SEEKFREE_MT9V03X.c:94 (discriminator 2)
    32dc:	820185a3          	sb	zero,-2005(gp) # 2000009b <receive_num>
C:\Users\windows\Desktop\A_Dual\A_Dual1\Dual-core_Communication_Demo\Dual-core_Communication_Demo\MASTER\obj/../Libraries/seekfree_peripheral/SEEKFREE_MT9V03X.c:95
    if(3 == receive_num)
    32e0:	82b1c703          	lbu	a4,-2005(gp) # 2000009b <receive_num>
    32e4:	478d                	li	a5,3
    32e6:	00f71763          	bne	a4,a5,32f4 <mt9v03x_uart_callback+0x68>
C:\Users\windows\Desktop\A_Dual\A_Dual1\Dual-core_Communication_Demo\Dual-core_Communication_Demo\MASTER\obj/../Libraries/seekfree_peripheral/SEEKFREE_MT9V03X.c:97
    {
        receive_num = 0;
    32ea:	820185a3          	sb	zero,-2005(gp) # 2000009b <receive_num>
C:\Users\windows\Desktop\A_Dual\A_Dual1\Dual-core_Communication_Demo\Dual-core_Communication_Demo\MASTER\obj/../Libraries/seekfree_peripheral/SEEKFREE_MT9V03X.c:98
        uart_receive_flag = 1;
    32ee:	4705                	li	a4,1
    32f0:	82e18623          	sb	a4,-2004(gp) # 2000009c <uart_receive_flag>
C:\Users\windows\Desktop\A_Dual\A_Dual1\Dual-core_Communication_Demo\Dual-core_Communication_Demo\MASTER\obj/../Libraries/seekfree_peripheral/SEEKFREE_MT9V03X.c:101
    }
    
}
    32f4:	0001                	nop
    32f6:	4432                	lw	s0,12(sp)
    32f8:	0141                	addi	sp,sp,16
    32fa:	8082                	ret

000032fc <mt9v03x_vsync>:
mt9v03x_vsync():
C:\Users\windows\Desktop\A_Dual\A_Dual1\Dual-core_Communication_Demo\Dual-core_Communication_Demo\MASTER\obj/../Libraries/seekfree_peripheral/SEEKFREE_MT9V03X.c:376
//  @return     void
//  @since      v1.0
//  Sample usage:               isr.c()
//-------------------------------------------------------------------------------------------------------------------
void mt9v03x_vsync(void)
{
    32fc:	1141                	addi	sp,sp,-16
    32fe:	c622                	sw	s0,12(sp)
    3300:	0800                	addi	s0,sp,16
C:\Users\windows\Desktop\A_Dual\A_Dual1\Dual-core_Communication_Demo\Dual-core_Communication_Demo\MASTER\obj/../Libraries/seekfree_peripheral/SEEKFREE_MT9V03X.c:377
    MT9V03X_DMA_CH->CNTR = MT9V03X_H*MT9V03X_W;             //DMADMA
    3302:	400207b7          	lui	a5,0x40020
    3306:	04478793          	addi	a5,a5,68 # 40020044 <_eusrstack+0x2001b044>
    330a:	6709                	lui	a4,0x2
    330c:	4b870713          	addi	a4,a4,1208 # 24b8 <USART_Init+0x144>
    3310:	c3d8                	sw	a4,4(a5)
C:\Users\windows\Desktop\A_Dual\A_Dual1\Dual-core_Communication_Demo\Dual-core_Communication_Demo\MASTER\obj/../Libraries/seekfree_peripheral/SEEKFREE_MT9V03X.c:378
    MT9V03X_DMA_CH->CFGR |= DMA_CFGR1_EN;
    3312:	400207b7          	lui	a5,0x40020
    3316:	04478793          	addi	a5,a5,68 # 40020044 <_eusrstack+0x2001b044>
    331a:	4398                	lw	a4,0(a5)
    331c:	400207b7          	lui	a5,0x40020
    3320:	04478793          	addi	a5,a5,68 # 40020044 <_eusrstack+0x2001b044>
    3324:	00176713          	ori	a4,a4,1
    3328:	c398                	sw	a4,0(a5)
C:\Users\windows\Desktop\A_Dual\A_Dual1\Dual-core_Communication_Demo\Dual-core_Communication_Demo\MASTER\obj/../Libraries/seekfree_peripheral/SEEKFREE_MT9V03X.c:379
}
    332a:	0001                	nop
    332c:	4432                	lw	s0,12(sp)
    332e:	0141                	addi	sp,sp,16
    3330:	8082                	ret

00003332 <mt9v03x_dma>:
mt9v03x_dma():
C:\Users\windows\Desktop\A_Dual\A_Dual1\Dual-core_Communication_Demo\Dual-core_Communication_Demo\MASTER\obj/../Libraries/seekfree_peripheral/SEEKFREE_MT9V03X.c:389
//  @return     void
//  @since      v1.0
//  Sample usage:
//-------------------------------------------------------------------------------------------------------------------
void mt9v03x_dma(void)
{
    3332:	1141                	addi	sp,sp,-16
    3334:	c622                	sw	s0,12(sp)
    3336:	0800                	addi	s0,sp,16
C:\Users\windows\Desktop\A_Dual\A_Dual1\Dual-core_Communication_Demo\Dual-core_Communication_Demo\MASTER\obj/../Libraries/seekfree_peripheral/SEEKFREE_MT9V03X.c:390
    mt9v03x_finish_flag = 1;//3.8MS(50FPS188*120)
    3338:	4705                	li	a4,1
    333a:	82e186a3          	sb	a4,-2003(gp) # 2000009d <mt9v03x_finish_flag>
C:\Users\windows\Desktop\A_Dual\A_Dual1\Dual-core_Communication_Demo\Dual-core_Communication_Demo\MASTER\obj/../Libraries/seekfree_peripheral/SEEKFREE_MT9V03X.c:391
    MT9V03X_DMA_CH->CFGR &= (uint16)(~DMA_CFGR1_EN);   //DMA1
    333e:	400207b7          	lui	a5,0x40020
    3342:	04478793          	addi	a5,a5,68 # 40020044 <_eusrstack+0x2001b044>
    3346:	4394                	lw	a3,0(a5)
    3348:	400207b7          	lui	a5,0x40020
    334c:	04478793          	addi	a5,a5,68 # 40020044 <_eusrstack+0x2001b044>
    3350:	6741                	lui	a4,0x10
    3352:	1779                	addi	a4,a4,-2
    3354:	8f75                	and	a4,a4,a3
    3356:	c398                	sw	a4,0(a5)
C:\Users\windows\Desktop\A_Dual\A_Dual1\Dual-core_Communication_Demo\Dual-core_Communication_Demo\MASTER\obj/../Libraries/seekfree_peripheral/SEEKFREE_MT9V03X.c:392
}
    3358:	0001                	nop
    335a:	4432                	lw	s0,12(sp)
    335c:	0141                	addi	sp,sp,16
    335e:	8082                	ret

00003360 <number_conversion_ascii>:
number_conversion_ascii():
C:\Users\windows\Desktop\A_Dual\A_Dual1\Dual-core_Communication_Demo\Dual-core_Communication_Demo\MASTER\obj/../Libraries/seekfree_peripheral/SEEKFREE_PRINTF.c:9
#include "zf_uart.h"
#include "SEEKFREE_PRINTF.h"


uint8 number_conversion_ascii(uint32 dat, int8 *p, uint8 neg_type, uint8 radix)
{
    3360:	7179                	addi	sp,sp,-48
    3362:	d622                	sw	s0,44(sp)
    3364:	1800                	addi	s0,sp,48
    3366:	fca42e23          	sw	a0,-36(s0)
    336a:	fcb42c23          	sw	a1,-40(s0)
    336e:	87b2                	mv	a5,a2
    3370:	8736                	mv	a4,a3
    3372:	fcf40ba3          	sb	a5,-41(s0)
    3376:	87ba                	mv	a5,a4
    3378:	fcf40b23          	sb	a5,-42(s0)
C:\Users\windows\Desktop\A_Dual\A_Dual1\Dual-core_Communication_Demo\Dual-core_Communication_Demo\MASTER\obj/../Libraries/seekfree_peripheral/SEEKFREE_PRINTF.c:12
    int32   neg_dat;
    uint32  pos_dat;
    uint8   temp_data = 0;
    337c:	fe0403a3          	sb	zero,-25(s0)
C:\Users\windows\Desktop\A_Dual\A_Dual1\Dual-core_Communication_Demo\Dual-core_Communication_Demo\MASTER\obj/../Libraries/seekfree_peripheral/SEEKFREE_PRINTF.c:13
    uint8   valid_num = 0;
    3380:	fe040323          	sb	zero,-26(s0)
C:\Users\windows\Desktop\A_Dual\A_Dual1\Dual-core_Communication_Demo\Dual-core_Communication_Demo\MASTER\obj/../Libraries/seekfree_peripheral/SEEKFREE_PRINTF.c:15
    
    if(neg_type)
    3384:	fd744783          	lbu	a5,-41(s0)
    3388:	cba5                	beqz	a5,33f8 <number_conversion_ascii+0x98>
C:\Users\windows\Desktop\A_Dual\A_Dual1\Dual-core_Communication_Demo\Dual-core_Communication_Demo\MASTER\obj/../Libraries/seekfree_peripheral/SEEKFREE_PRINTF.c:17
    {
        neg_dat = (int32)dat;
    338a:	fdc42783          	lw	a5,-36(s0)
    338e:	fef42623          	sw	a5,-20(s0)
C:\Users\windows\Desktop\A_Dual\A_Dual1\Dual-core_Communication_Demo\Dual-core_Communication_Demo\MASTER\obj/../Libraries/seekfree_peripheral/SEEKFREE_PRINTF.c:18
        if(neg_dat<0)   neg_dat = -neg_dat;
    3392:	fec42783          	lw	a5,-20(s0)
    3396:	0007d863          	bgez	a5,33a6 <number_conversion_ascii+0x46>
C:\Users\windows\Desktop\A_Dual\A_Dual1\Dual-core_Communication_Demo\Dual-core_Communication_Demo\MASTER\obj/../Libraries/seekfree_peripheral/SEEKFREE_PRINTF.c:18 (discriminator 1)
    339a:	fec42783          	lw	a5,-20(s0)
    339e:	40f007b3          	neg	a5,a5
    33a2:	fef42623          	sw	a5,-20(s0)
C:\Users\windows\Desktop\A_Dual\A_Dual1\Dual-core_Communication_Demo\Dual-core_Communication_Demo\MASTER\obj/../Libraries/seekfree_peripheral/SEEKFREE_PRINTF.c:21
        while(1)
        {
            *p = neg_dat%radix + '0';
    33a6:	fd644783          	lbu	a5,-42(s0)
    33aa:	fec42703          	lw	a4,-20(s0)
    33ae:	02f767b3          	rem	a5,a4,a5
    33b2:	0ff7f793          	andi	a5,a5,255
    33b6:	03078793          	addi	a5,a5,48
    33ba:	0ff7f793          	andi	a5,a5,255
    33be:	01879713          	slli	a4,a5,0x18
    33c2:	8761                	srai	a4,a4,0x18
    33c4:	fd842783          	lw	a5,-40(s0)
    33c8:	00e78023          	sb	a4,0(a5)
C:\Users\windows\Desktop\A_Dual\A_Dual1\Dual-core_Communication_Demo\Dual-core_Communication_Demo\MASTER\obj/../Libraries/seekfree_peripheral/SEEKFREE_PRINTF.c:22
            neg_dat = neg_dat/radix;
    33cc:	fd644783          	lbu	a5,-42(s0)
    33d0:	fec42703          	lw	a4,-20(s0)
    33d4:	02f747b3          	div	a5,a4,a5
    33d8:	fef42623          	sw	a5,-20(s0)
C:\Users\windows\Desktop\A_Dual\A_Dual1\Dual-core_Communication_Demo\Dual-core_Communication_Demo\MASTER\obj/../Libraries/seekfree_peripheral/SEEKFREE_PRINTF.c:23
            valid_num++;
    33dc:	fe644783          	lbu	a5,-26(s0)
    33e0:	0785                	addi	a5,a5,1
    33e2:	fef40323          	sb	a5,-26(s0)
C:\Users\windows\Desktop\A_Dual\A_Dual1\Dual-core_Communication_Demo\Dual-core_Communication_Demo\MASTER\obj/../Libraries/seekfree_peripheral/SEEKFREE_PRINTF.c:25
            
            if(!neg_dat) break;
    33e6:	fec42783          	lw	a5,-20(s0)
    33ea:	c3c9                	beqz	a5,346c <number_conversion_ascii+0x10c>
C:\Users\windows\Desktop\A_Dual\A_Dual1\Dual-core_Communication_Demo\Dual-core_Communication_Demo\MASTER\obj/../Libraries/seekfree_peripheral/SEEKFREE_PRINTF.c:26
            p++;
    33ec:	fd842783          	lw	a5,-40(s0)
    33f0:	0785                	addi	a5,a5,1
    33f2:	fcf42c23          	sw	a5,-40(s0)
C:\Users\windows\Desktop\A_Dual\A_Dual1\Dual-core_Communication_Demo\Dual-core_Communication_Demo\MASTER\obj/../Libraries/seekfree_peripheral/SEEKFREE_PRINTF.c:21
            *p = neg_dat%radix + '0';
    33f6:	bf45                	j	33a6 <number_conversion_ascii+0x46>
C:\Users\windows\Desktop\A_Dual\A_Dual1\Dual-core_Communication_Demo\Dual-core_Communication_Demo\MASTER\obj/../Libraries/seekfree_peripheral/SEEKFREE_PRINTF.c:31
        }
    }
    else
    {
        pos_dat = dat;
    33f8:	fdc42783          	lw	a5,-36(s0)
    33fc:	fef42423          	sw	a5,-24(s0)
C:\Users\windows\Desktop\A_Dual\A_Dual1\Dual-core_Communication_Demo\Dual-core_Communication_Demo\MASTER\obj/../Libraries/seekfree_peripheral/SEEKFREE_PRINTF.c:34
        while(1)
        {
            temp_data = pos_dat%radix;
    3400:	fd644783          	lbu	a5,-42(s0)
    3404:	fe842703          	lw	a4,-24(s0)
    3408:	02f777b3          	remu	a5,a4,a5
    340c:	fef403a3          	sb	a5,-25(s0)
C:\Users\windows\Desktop\A_Dual\A_Dual1\Dual-core_Communication_Demo\Dual-core_Communication_Demo\MASTER\obj/../Libraries/seekfree_peripheral/SEEKFREE_PRINTF.c:35
            if(10 <= temp_data) temp_data += 'A'-10;
    3410:	fe744703          	lbu	a4,-25(s0)
    3414:	47a5                	li	a5,9
    3416:	00e7f963          	bgeu	a5,a4,3428 <number_conversion_ascii+0xc8>
C:\Users\windows\Desktop\A_Dual\A_Dual1\Dual-core_Communication_Demo\Dual-core_Communication_Demo\MASTER\obj/../Libraries/seekfree_peripheral/SEEKFREE_PRINTF.c:35 (discriminator 1)
    341a:	fe744783          	lbu	a5,-25(s0)
    341e:	03778793          	addi	a5,a5,55
    3422:	fef403a3          	sb	a5,-25(s0)
    3426:	a039                	j	3434 <number_conversion_ascii+0xd4>
C:\Users\windows\Desktop\A_Dual\A_Dual1\Dual-core_Communication_Demo\Dual-core_Communication_Demo\MASTER\obj/../Libraries/seekfree_peripheral/SEEKFREE_PRINTF.c:36
            else                temp_data += '0';
    3428:	fe744783          	lbu	a5,-25(s0)
    342c:	03078793          	addi	a5,a5,48
    3430:	fef403a3          	sb	a5,-25(s0)
C:\Users\windows\Desktop\A_Dual\A_Dual1\Dual-core_Communication_Demo\Dual-core_Communication_Demo\MASTER\obj/../Libraries/seekfree_peripheral/SEEKFREE_PRINTF.c:38
            
            *p = temp_data;
    3434:	fe740703          	lb	a4,-25(s0)
    3438:	fd842783          	lw	a5,-40(s0)
    343c:	00e78023          	sb	a4,0(a5)
C:\Users\windows\Desktop\A_Dual\A_Dual1\Dual-core_Communication_Demo\Dual-core_Communication_Demo\MASTER\obj/../Libraries/seekfree_peripheral/SEEKFREE_PRINTF.c:40
            
            pos_dat = pos_dat/radix;
    3440:	fd644783          	lbu	a5,-42(s0)
    3444:	fe842703          	lw	a4,-24(s0)
    3448:	02f757b3          	divu	a5,a4,a5
    344c:	fef42423          	sw	a5,-24(s0)
C:\Users\windows\Desktop\A_Dual\A_Dual1\Dual-core_Communication_Demo\Dual-core_Communication_Demo\MASTER\obj/../Libraries/seekfree_peripheral/SEEKFREE_PRINTF.c:41
            valid_num++;
    3450:	fe644783          	lbu	a5,-26(s0)
    3454:	0785                	addi	a5,a5,1
    3456:	fef40323          	sb	a5,-26(s0)
C:\Users\windows\Desktop\A_Dual\A_Dual1\Dual-core_Communication_Demo\Dual-core_Communication_Demo\MASTER\obj/../Libraries/seekfree_peripheral/SEEKFREE_PRINTF.c:43
            
            if(!pos_dat) break;
    345a:	fe842783          	lw	a5,-24(s0)
    345e:	cb89                	beqz	a5,3470 <number_conversion_ascii+0x110>
C:\Users\windows\Desktop\A_Dual\A_Dual1\Dual-core_Communication_Demo\Dual-core_Communication_Demo\MASTER\obj/../Libraries/seekfree_peripheral/SEEKFREE_PRINTF.c:44
            p++;
    3460:	fd842783          	lw	a5,-40(s0)
    3464:	0785                	addi	a5,a5,1
    3466:	fcf42c23          	sw	a5,-40(s0)
C:\Users\windows\Desktop\A_Dual\A_Dual1\Dual-core_Communication_Demo\Dual-core_Communication_Demo\MASTER\obj/../Libraries/seekfree_peripheral/SEEKFREE_PRINTF.c:34
            temp_data = pos_dat%radix;
    346a:	bf59                	j	3400 <number_conversion_ascii+0xa0>
C:\Users\windows\Desktop\A_Dual\A_Dual1\Dual-core_Communication_Demo\Dual-core_Communication_Demo\MASTER\obj/../Libraries/seekfree_peripheral/SEEKFREE_PRINTF.c:25
            if(!neg_dat) break;
    346c:	0001                	nop
    346e:	a011                	j	3472 <number_conversion_ascii+0x112>
C:\Users\windows\Desktop\A_Dual\A_Dual1\Dual-core_Communication_Demo\Dual-core_Communication_Demo\MASTER\obj/../Libraries/seekfree_peripheral/SEEKFREE_PRINTF.c:43
            if(!pos_dat) break;
    3470:	0001                	nop
C:\Users\windows\Desktop\A_Dual\A_Dual1\Dual-core_Communication_Demo\Dual-core_Communication_Demo\MASTER\obj/../Libraries/seekfree_peripheral/SEEKFREE_PRINTF.c:47
        }
    }
    return valid_num;
    3472:	fe644783          	lbu	a5,-26(s0)
C:\Users\windows\Desktop\A_Dual\A_Dual1\Dual-core_Communication_Demo\Dual-core_Communication_Demo\MASTER\obj/../Libraries/seekfree_peripheral/SEEKFREE_PRINTF.c:48
}
    3476:	853e                	mv	a0,a5
    3478:	5432                	lw	s0,44(sp)
    347a:	6145                	addi	sp,sp,48
    347c:	8082                	ret

0000347e <printf_reverse_order>:
printf_reverse_order():
C:\Users\windows\Desktop\A_Dual\A_Dual1\Dual-core_Communication_Demo\Dual-core_Communication_Demo\MASTER\obj/../Libraries/seekfree_peripheral/SEEKFREE_PRINTF.c:51

void printf_reverse_order(int8 *d_buff, uint32 len)
{
    347e:	7179                	addi	sp,sp,-48
    3480:	d622                	sw	s0,44(sp)
    3482:	1800                	addi	s0,sp,48
    3484:	fca42e23          	sw	a0,-36(s0)
    3488:	fcb42c23          	sw	a1,-40(s0)
C:\Users\windows\Desktop\A_Dual\A_Dual1\Dual-core_Communication_Demo\Dual-core_Communication_Demo\MASTER\obj/../Libraries/seekfree_peripheral/SEEKFREE_PRINTF.c:54
    uint32 i;
    int8  temp_data;
    for(i=0;i<len/2;i++)
    348c:	fe042623          	sw	zero,-20(s0)
    3490:	a085                	j	34f0 <printf_reverse_order+0x72>
C:\Users\windows\Desktop\A_Dual\A_Dual1\Dual-core_Communication_Demo\Dual-core_Communication_Demo\MASTER\obj/../Libraries/seekfree_peripheral/SEEKFREE_PRINTF.c:56 (discriminator 3)
    {
        temp_data = d_buff[len-1-i];
    3492:	fd842703          	lw	a4,-40(s0)
    3496:	fec42783          	lw	a5,-20(s0)
    349a:	40f707b3          	sub	a5,a4,a5
    349e:	17fd                	addi	a5,a5,-1
    34a0:	fdc42703          	lw	a4,-36(s0)
    34a4:	97ba                	add	a5,a5,a4
    34a6:	0007c783          	lbu	a5,0(a5)
    34aa:	fef405a3          	sb	a5,-21(s0)
C:\Users\windows\Desktop\A_Dual\A_Dual1\Dual-core_Communication_Demo\Dual-core_Communication_Demo\MASTER\obj/../Libraries/seekfree_peripheral/SEEKFREE_PRINTF.c:57 (discriminator 3)
        d_buff[len-1-i] = d_buff[i];
    34ae:	fdc42703          	lw	a4,-36(s0)
    34b2:	fec42783          	lw	a5,-20(s0)
    34b6:	973e                	add	a4,a4,a5
    34b8:	fd842683          	lw	a3,-40(s0)
    34bc:	fec42783          	lw	a5,-20(s0)
    34c0:	40f687b3          	sub	a5,a3,a5
    34c4:	17fd                	addi	a5,a5,-1
    34c6:	fdc42683          	lw	a3,-36(s0)
    34ca:	97b6                	add	a5,a5,a3
    34cc:	00070703          	lb	a4,0(a4) # 10000 <_data_lma+0x6914>
    34d0:	00e78023          	sb	a4,0(a5)
C:\Users\windows\Desktop\A_Dual\A_Dual1\Dual-core_Communication_Demo\Dual-core_Communication_Demo\MASTER\obj/../Libraries/seekfree_peripheral/SEEKFREE_PRINTF.c:58 (discriminator 3)
        d_buff[i] = temp_data; 
    34d4:	fdc42703          	lw	a4,-36(s0)
    34d8:	fec42783          	lw	a5,-20(s0)
    34dc:	97ba                	add	a5,a5,a4
    34de:	feb44703          	lbu	a4,-21(s0)
    34e2:	00e78023          	sb	a4,0(a5)
C:\Users\windows\Desktop\A_Dual\A_Dual1\Dual-core_Communication_Demo\Dual-core_Communication_Demo\MASTER\obj/../Libraries/seekfree_peripheral/SEEKFREE_PRINTF.c:54 (discriminator 3)
    for(i=0;i<len/2;i++)
    34e6:	fec42783          	lw	a5,-20(s0)
    34ea:	0785                	addi	a5,a5,1
    34ec:	fef42623          	sw	a5,-20(s0)
C:\Users\windows\Desktop\A_Dual\A_Dual1\Dual-core_Communication_Demo\Dual-core_Communication_Demo\MASTER\obj/../Libraries/seekfree_peripheral/SEEKFREE_PRINTF.c:54 (discriminator 1)
    34f0:	fd842783          	lw	a5,-40(s0)
    34f4:	8385                	srli	a5,a5,0x1
    34f6:	fec42703          	lw	a4,-20(s0)
    34fa:	f8f76ce3          	bltu	a4,a5,3492 <printf_reverse_order+0x14>
C:\Users\windows\Desktop\A_Dual\A_Dual1\Dual-core_Communication_Demo\Dual-core_Communication_Demo\MASTER\obj/../Libraries/seekfree_peripheral/SEEKFREE_PRINTF.c:60
    }
}
    34fe:	0001                	nop
    3500:	5432                	lw	s0,44(sp)
    3502:	6145                	addi	sp,sp,48
    3504:	8082                	ret

00003506 <zf_sprintf>:
zf_sprintf():
C:\Users\windows\Desktop\A_Dual\A_Dual1\Dual-core_Communication_Demo\Dual-core_Communication_Demo\MASTER\obj/../Libraries/seekfree_peripheral/SEEKFREE_PRINTF.c:196
//#endif
//}


uint32 zf_sprintf(int8 *buff, const int8 *format, ...)
{
    3506:	7135                	addi	sp,sp,-160
    3508:	de86                	sw	ra,124(sp)
    350a:	dca2                	sw	s0,120(sp)
    350c:	0100                	addi	s0,sp,128
    350e:	f8a42623          	sw	a0,-116(s0)
    3512:	f8b42423          	sw	a1,-120(s0)
    3516:	c410                	sw	a2,8(s0)
    3518:	c454                	sw	a3,12(s0)
    351a:	c818                	sw	a4,16(s0)
    351c:	c85c                	sw	a5,20(s0)
    351e:	01042c23          	sw	a6,24(s0)
    3522:	01142e23          	sw	a7,28(s0)
C:\Users\windows\Desktop\A_Dual\A_Dual1\Dual-core_Communication_Demo\Dual-core_Communication_Demo\MASTER\obj/../Libraries/seekfree_peripheral/SEEKFREE_PRINTF.c:197
    uint32 buff_len=0;
    3526:	fe042623          	sw	zero,-20(s0)
C:\Users\windows\Desktop\A_Dual\A_Dual1\Dual-core_Communication_Demo\Dual-core_Communication_Demo\MASTER\obj/../Libraries/seekfree_peripheral/SEEKFREE_PRINTF.c:199
    va_list arg;
	va_start(arg, format);
    352a:	02040793          	addi	a5,s0,32
    352e:	17a1                	addi	a5,a5,-24
    3530:	faf42a23          	sw	a5,-76(s0)
C:\Users\windows\Desktop\A_Dual\A_Dual1\Dual-core_Communication_Demo\Dual-core_Communication_Demo\MASTER\obj/../Libraries/seekfree_peripheral/SEEKFREE_PRINTF.c:201
 
	while (*format)
    3534:	ab01                	j	3a44 <zf_sprintf+0x53e>
C:\Users\windows\Desktop\A_Dual\A_Dual1\Dual-core_Communication_Demo\Dual-core_Communication_Demo\MASTER\obj/../Libraries/seekfree_peripheral/SEEKFREE_PRINTF.c:203
	{
		int8 ret = *format;
    3536:	f8842783          	lw	a5,-120(s0)
    353a:	0007c783          	lbu	a5,0(a5)
    353e:	fef401a3          	sb	a5,-29(s0)
C:\Users\windows\Desktop\A_Dual\A_Dual1\Dual-core_Communication_Demo\Dual-core_Communication_Demo\MASTER\obj/../Libraries/seekfree_peripheral/SEEKFREE_PRINTF.c:204
		if (ret == '%')
    3542:	fe340703          	lb	a4,-29(s0)
    3546:	02500793          	li	a5,37
    354a:	4cf71463          	bne	a4,a5,3a12 <zf_sprintf+0x50c>
C:\Users\windows\Desktop\A_Dual\A_Dual1\Dual-core_Communication_Demo\Dual-core_Communication_Demo\MASTER\obj/../Libraries/seekfree_peripheral/SEEKFREE_PRINTF.c:206
		{
			switch (*++format)
    354e:	f8842783          	lw	a5,-120(s0)
    3552:	0785                	addi	a5,a5,1
    3554:	f8f42423          	sw	a5,-120(s0)
    3558:	f8842783          	lw	a5,-120(s0)
    355c:	00078783          	lb	a5,0(a5)
    3560:	fdb78793          	addi	a5,a5,-37
    3564:	05300713          	li	a4,83
    3568:	4cf76863          	bltu	a4,a5,3a38 <zf_sprintf+0x532>
    356c:	00279713          	slli	a4,a5,0x2
    3570:	67a5                	lui	a5,0x9
    3572:	30078793          	addi	a5,a5,768 # 9300 <tft_ascii+0x5f0>
    3576:	97ba                	add	a5,a5,a4
    3578:	439c                	lw	a5,0(a5)
    357a:	8782                	jr	a5
C:\Users\windows\Desktop\A_Dual\A_Dual1\Dual-core_Communication_Demo\Dual-core_Communication_Demo\MASTER\obj/../Libraries/seekfree_peripheral/SEEKFREE_PRINTF.c:217
                }break;
                
                
                case 'c':// 
                {
                    int8 ch = (int8)va_arg(arg, uint32);
    357c:	fb442783          	lw	a5,-76(s0)
    3580:	00478713          	addi	a4,a5,4
    3584:	fae42a23          	sw	a4,-76(s0)
    3588:	439c                	lw	a5,0(a5)
    358a:	fef40123          	sb	a5,-30(s0)
C:\Users\windows\Desktop\A_Dual\A_Dual1\Dual-core_Communication_Demo\Dual-core_Communication_Demo\MASTER\obj/../Libraries/seekfree_peripheral/SEEKFREE_PRINTF.c:218
                    *buff = ch;
    358e:	f8c42783          	lw	a5,-116(s0)
    3592:	fe244703          	lbu	a4,-30(s0)
    3596:	00e78023          	sb	a4,0(a5)
C:\Users\windows\Desktop\A_Dual\A_Dual1\Dual-core_Communication_Demo\Dual-core_Communication_Demo\MASTER\obj/../Libraries/seekfree_peripheral/SEEKFREE_PRINTF.c:219
                    buff++;
    359a:	f8c42783          	lw	a5,-116(s0)
    359e:	0785                	addi	a5,a5,1
    35a0:	f8f42623          	sw	a5,-116(s0)
C:\Users\windows\Desktop\A_Dual\A_Dual1\Dual-core_Communication_Demo\Dual-core_Communication_Demo\MASTER\obj/../Libraries/seekfree_peripheral/SEEKFREE_PRINTF.c:220
                    buff_len++;
    35a4:	fec42783          	lw	a5,-20(s0)
    35a8:	0785                	addi	a5,a5,1
    35aa:	fef42623          	sw	a5,-20(s0)
C:\Users\windows\Desktop\A_Dual\A_Dual1\Dual-core_Communication_Demo\Dual-core_Communication_Demo\MASTER\obj/../Libraries/seekfree_peripheral/SEEKFREE_PRINTF.c:222
                            
                }break;
    35ae:	a171                	j	3a3a <zf_sprintf+0x534>
C:\Users\windows\Desktop\A_Dual\A_Dual1\Dual-core_Communication_Demo\Dual-core_Communication_Demo\MASTER\obj/../Libraries/seekfree_peripheral/SEEKFREE_PRINTF.c:229
                
                case 'd':
                case 'i':// 
                {
                    int8 vstr[33];
                    int32 ival = (int32)va_arg(arg, int32);
    35b0:	fb442783          	lw	a5,-76(s0)
    35b4:	00478713          	addi	a4,a5,4
    35b8:	fae42a23          	sw	a4,-76(s0)
    35bc:	439c                	lw	a5,0(a5)
    35be:	fcf42e23          	sw	a5,-36(s0)
C:\Users\windows\Desktop\A_Dual\A_Dual1\Dual-core_Communication_Demo\Dual-core_Communication_Demo\MASTER\obj/../Libraries/seekfree_peripheral/SEEKFREE_PRINTF.c:230
                    uint8 vlen = number_conversion_ascii((uint32)ival, vstr, 1, 10);
    35c2:	fdc42783          	lw	a5,-36(s0)
    35c6:	f9040713          	addi	a4,s0,-112
    35ca:	46a9                	li	a3,10
    35cc:	4605                	li	a2,1
    35ce:	85ba                	mv	a1,a4
    35d0:	853e                	mv	a0,a5
    35d2:	d8fff0ef          	jal	ra,3360 <number_conversion_ascii>
    35d6:	87aa                	mv	a5,a0
    35d8:	fef405a3          	sb	a5,-21(s0)
C:\Users\windows\Desktop\A_Dual\A_Dual1\Dual-core_Communication_Demo\Dual-core_Communication_Demo\MASTER\obj/../Libraries/seekfree_peripheral/SEEKFREE_PRINTF.c:232
                    
                    if(ival<0)  
    35dc:	fdc42783          	lw	a5,-36(s0)
    35e0:	0207d063          	bgez	a5,3600 <zf_sprintf+0xfa>
C:\Users\windows\Desktop\A_Dual\A_Dual1\Dual-core_Communication_Demo\Dual-core_Communication_Demo\MASTER\obj/../Libraries/seekfree_peripheral/SEEKFREE_PRINTF.c:234
                    {
                        vstr[vlen] = '-';
    35e4:	feb44783          	lbu	a5,-21(s0)
    35e8:	ff040713          	addi	a4,s0,-16
    35ec:	97ba                	add	a5,a5,a4
    35ee:	02d00713          	li	a4,45
    35f2:	fae78023          	sb	a4,-96(a5)
C:\Users\windows\Desktop\A_Dual\A_Dual1\Dual-core_Communication_Demo\Dual-core_Communication_Demo\MASTER\obj/../Libraries/seekfree_peripheral/SEEKFREE_PRINTF.c:235
                        vlen++;
    35f6:	feb44783          	lbu	a5,-21(s0)
    35fa:	0785                	addi	a5,a5,1
    35fc:	fef405a3          	sb	a5,-21(s0)
C:\Users\windows\Desktop\A_Dual\A_Dual1\Dual-core_Communication_Demo\Dual-core_Communication_Demo\MASTER\obj/../Libraries/seekfree_peripheral/SEEKFREE_PRINTF.c:237
                    }
                    printf_reverse_order(vstr,vlen);
    3600:	feb44703          	lbu	a4,-21(s0)
    3604:	f9040793          	addi	a5,s0,-112
    3608:	85ba                	mv	a1,a4
    360a:	853e                	mv	a0,a5
    360c:	3d8d                	jal	347e <printf_reverse_order>
C:\Users\windows\Desktop\A_Dual\A_Dual1\Dual-core_Communication_Demo\Dual-core_Communication_Demo\MASTER\obj/../Libraries/seekfree_peripheral/SEEKFREE_PRINTF.c:238
                    memcpy(buff,vstr,vlen);
    360e:	feb44703          	lbu	a4,-21(s0)
    3612:	f9040793          	addi	a5,s0,-112
    3616:	863a                	mv	a2,a4
    3618:	85be                	mv	a1,a5
    361a:	f8c42503          	lw	a0,-116(s0)
    361e:	36c040ef          	jal	ra,798a <memcpy>
C:\Users\windows\Desktop\A_Dual\A_Dual1\Dual-core_Communication_Demo\Dual-core_Communication_Demo\MASTER\obj/../Libraries/seekfree_peripheral/SEEKFREE_PRINTF.c:239
                    buff += vlen;
    3622:	feb44783          	lbu	a5,-21(s0)
    3626:	f8c42703          	lw	a4,-116(s0)
    362a:	97ba                	add	a5,a5,a4
    362c:	f8f42623          	sw	a5,-116(s0)
C:\Users\windows\Desktop\A_Dual\A_Dual1\Dual-core_Communication_Demo\Dual-core_Communication_Demo\MASTER\obj/../Libraries/seekfree_peripheral/SEEKFREE_PRINTF.c:240
                    buff_len += vlen;
    3630:	feb44783          	lbu	a5,-21(s0)
    3634:	fec42703          	lw	a4,-20(s0)
    3638:	97ba                	add	a5,a5,a4
    363a:	fef42623          	sw	a5,-20(s0)
C:\Users\windows\Desktop\A_Dual\A_Dual1\Dual-core_Communication_Demo\Dual-core_Communication_Demo\MASTER\obj/../Libraries/seekfree_peripheral/SEEKFREE_PRINTF.c:243
                    
                    
                }break;
    363e:	aef5                	j	3a3a <zf_sprintf+0x534>
C:\Users\windows\Desktop\A_Dual\A_Dual1\Dual-core_Communication_Demo\Dual-core_Communication_Demo\MASTER\obj/../Libraries/seekfree_peripheral/SEEKFREE_PRINTF.c:249
                
                case 'f'://   
                case 'F'://   
                {
                    int8 vstr[33];
                    double ival = (double)va_arg(arg, double);
    3640:	fb442783          	lw	a5,-76(s0)
    3644:	079d                	addi	a5,a5,7
    3646:	9be1                	andi	a5,a5,-8
    3648:	00878713          	addi	a4,a5,8
    364c:	fae42a23          	sw	a4,-76(s0)
    3650:	0047a803          	lw	a6,4(a5)
    3654:	439c                	lw	a5,0(a5)
    3656:	fcf42823          	sw	a5,-48(s0)
    365a:	fd042a23          	sw	a6,-44(s0)
C:\Users\windows\Desktop\A_Dual\A_Dual1\Dual-core_Communication_Demo\Dual-core_Communication_Demo\MASTER\obj/../Libraries/seekfree_peripheral/SEEKFREE_PRINTF.c:250
                    uint8 vlen = number_conversion_ascii((uint32)(int32)ival, vstr, 1, 10);
    365e:	fd042503          	lw	a0,-48(s0)
    3662:	fd442583          	lw	a1,-44(s0)
    3666:	50c030ef          	jal	ra,6b72 <__fixdfsi>
    366a:	87aa                	mv	a5,a0
    366c:	873e                	mv	a4,a5
    366e:	f9040793          	addi	a5,s0,-112
    3672:	46a9                	li	a3,10
    3674:	4605                	li	a2,1
    3676:	85be                	mv	a1,a5
    3678:	853a                	mv	a0,a4
    367a:	ce7ff0ef          	jal	ra,3360 <number_conversion_ascii>
    367e:	87aa                	mv	a5,a0
    3680:	fef40523          	sb	a5,-22(s0)
C:\Users\windows\Desktop\A_Dual\A_Dual1\Dual-core_Communication_Demo\Dual-core_Communication_Demo\MASTER\obj/../Libraries/seekfree_peripheral/SEEKFREE_PRINTF.c:252
                    
                    if(ival<0)  
    3684:	4601                	li	a2,0
    3686:	4681                	li	a3,0
    3688:	fd042503          	lw	a0,-48(s0)
    368c:	fd442583          	lw	a1,-44(s0)
    3690:	037020ef          	jal	ra,5ec6 <__ledf2>
    3694:	87aa                	mv	a5,a0
    3696:	0207d063          	bgez	a5,36b6 <zf_sprintf+0x1b0>
C:\Users\windows\Desktop\A_Dual\A_Dual1\Dual-core_Communication_Demo\Dual-core_Communication_Demo\MASTER\obj/../Libraries/seekfree_peripheral/SEEKFREE_PRINTF.c:254
                    {
                        vstr[vlen] = '-';
    369a:	fea44783          	lbu	a5,-22(s0)
    369e:	ff040713          	addi	a4,s0,-16
    36a2:	97ba                	add	a5,a5,a4
    36a4:	02d00713          	li	a4,45
    36a8:	fae78023          	sb	a4,-96(a5)
C:\Users\windows\Desktop\A_Dual\A_Dual1\Dual-core_Communication_Demo\Dual-core_Communication_Demo\MASTER\obj/../Libraries/seekfree_peripheral/SEEKFREE_PRINTF.c:255
                        vlen++;
    36ac:	fea44783          	lbu	a5,-22(s0)
    36b0:	0785                	addi	a5,a5,1
    36b2:	fef40523          	sb	a5,-22(s0)
C:\Users\windows\Desktop\A_Dual\A_Dual1\Dual-core_Communication_Demo\Dual-core_Communication_Demo\MASTER\obj/../Libraries/seekfree_peripheral/SEEKFREE_PRINTF.c:257
                    }
                    printf_reverse_order(vstr,vlen);
    36b6:	fea44703          	lbu	a4,-22(s0)
    36ba:	f9040793          	addi	a5,s0,-112
    36be:	85ba                	mv	a1,a4
    36c0:	853e                	mv	a0,a5
    36c2:	dbdff0ef          	jal	ra,347e <printf_reverse_order>
C:\Users\windows\Desktop\A_Dual\A_Dual1\Dual-core_Communication_Demo\Dual-core_Communication_Demo\MASTER\obj/../Libraries/seekfree_peripheral/SEEKFREE_PRINTF.c:258
                    memcpy(buff,vstr,vlen);
    36c6:	fea44703          	lbu	a4,-22(s0)
    36ca:	f9040793          	addi	a5,s0,-112
    36ce:	863a                	mv	a2,a4
    36d0:	85be                	mv	a1,a5
    36d2:	f8c42503          	lw	a0,-116(s0)
    36d6:	2b4040ef          	jal	ra,798a <memcpy>
C:\Users\windows\Desktop\A_Dual\A_Dual1\Dual-core_Communication_Demo\Dual-core_Communication_Demo\MASTER\obj/../Libraries/seekfree_peripheral/SEEKFREE_PRINTF.c:259
                    buff += vlen;
    36da:	fea44783          	lbu	a5,-22(s0)
    36de:	f8c42703          	lw	a4,-116(s0)
    36e2:	97ba                	add	a5,a5,a4
    36e4:	f8f42623          	sw	a5,-116(s0)
C:\Users\windows\Desktop\A_Dual\A_Dual1\Dual-core_Communication_Demo\Dual-core_Communication_Demo\MASTER\obj/../Libraries/seekfree_peripheral/SEEKFREE_PRINTF.c:260
                    buff_len += vlen;
    36e8:	fea44783          	lbu	a5,-22(s0)
    36ec:	fec42703          	lw	a4,-20(s0)
    36f0:	97ba                	add	a5,a5,a4
    36f2:	fef42623          	sw	a5,-20(s0)
C:\Users\windows\Desktop\A_Dual\A_Dual1\Dual-core_Communication_Demo\Dual-core_Communication_Demo\MASTER\obj/../Libraries/seekfree_peripheral/SEEKFREE_PRINTF.c:262

                    ival = ((double)ival - (int32)ival)*1000000;
    36f6:	fd042503          	lw	a0,-48(s0)
    36fa:	fd442583          	lw	a1,-44(s0)
    36fe:	474030ef          	jal	ra,6b72 <__fixdfsi>
    3702:	87aa                	mv	a5,a0
    3704:	853e                	mv	a0,a5
    3706:	4d4030ef          	jal	ra,6bda <__floatsidf>
    370a:	87aa                	mv	a5,a0
    370c:	882e                	mv	a6,a1
    370e:	863e                	mv	a2,a5
    3710:	86c2                	mv	a3,a6
    3712:	fd042503          	lw	a0,-48(s0)
    3716:	fd442583          	lw	a1,-44(s0)
    371a:	51b020ef          	jal	ra,6434 <__subdf3>
    371e:	87aa                	mv	a5,a0
    3720:	882e                	mv	a6,a1
    3722:	853e                	mv	a0,a5
    3724:	85c2                	mv	a1,a6
    3726:	67a5                	lui	a5,0x9
    3728:	cb87a603          	lw	a2,-840(a5) # 8cb8 <_exit+0x98>
    372c:	cbc7a683          	lw	a3,-836(a5)
    3730:	04d020ef          	jal	ra,5f7c <__muldf3>
    3734:	87aa                	mv	a5,a0
    3736:	882e                	mv	a6,a1
    3738:	fcf42823          	sw	a5,-48(s0)
    373c:	fd042a23          	sw	a6,-44(s0)
C:\Users\windows\Desktop\A_Dual\A_Dual1\Dual-core_Communication_Demo\Dual-core_Communication_Demo\MASTER\obj/../Libraries/seekfree_peripheral/SEEKFREE_PRINTF.c:263
                    if(ival)
    3740:	4601                	li	a2,0
    3742:	4681                	li	a3,0
    3744:	fd042503          	lw	a0,-48(s0)
    3748:	fd442583          	lw	a1,-44(s0)
    374c:	710020ef          	jal	ra,5e5c <__eqdf2>
    3750:	87aa                	mv	a5,a0
    3752:	c78d                	beqz	a5,377c <zf_sprintf+0x276>
C:\Users\windows\Desktop\A_Dual\A_Dual1\Dual-core_Communication_Demo\Dual-core_Communication_Demo\MASTER\obj/../Libraries/seekfree_peripheral/SEEKFREE_PRINTF.c:265
                    {
                        vlen = number_conversion_ascii((uint32)(int32)ival, vstr, 1, 10);
    3754:	fd042503          	lw	a0,-48(s0)
    3758:	fd442583          	lw	a1,-44(s0)
    375c:	416030ef          	jal	ra,6b72 <__fixdfsi>
    3760:	87aa                	mv	a5,a0
    3762:	873e                	mv	a4,a5
    3764:	f9040793          	addi	a5,s0,-112
    3768:	46a9                	li	a3,10
    376a:	4605                	li	a2,1
    376c:	85be                	mv	a1,a5
    376e:	853a                	mv	a0,a4
    3770:	bf1ff0ef          	jal	ra,3360 <number_conversion_ascii>
    3774:	87aa                	mv	a5,a0
    3776:	fef40523          	sb	a5,-22(s0)
    377a:	a899                	j	37d0 <zf_sprintf+0x2ca>
C:\Users\windows\Desktop\A_Dual\A_Dual1\Dual-core_Communication_Demo\Dual-core_Communication_Demo\MASTER\obj/../Libraries/seekfree_peripheral/SEEKFREE_PRINTF.c:269
                    }
                    else
                    {
                        vstr[0] = vstr[1] = vstr[2] = vstr[3] = vstr[4] = vstr[5] = '0';
    377c:	03000793          	li	a5,48
    3780:	f8f40aa3          	sb	a5,-107(s0)
    3784:	f9540783          	lb	a5,-107(s0)
    3788:	f8f40a23          	sb	a5,-108(s0)
    378c:	f9440783          	lb	a5,-108(s0)
    3790:	f8f409a3          	sb	a5,-109(s0)
    3794:	f9340783          	lb	a5,-109(s0)
    3798:	f8f40923          	sb	a5,-110(s0)
    379c:	f9240783          	lb	a5,-110(s0)
    37a0:	f8f408a3          	sb	a5,-111(s0)
    37a4:	f9140783          	lb	a5,-111(s0)
    37a8:	f8f40823          	sb	a5,-112(s0)
C:\Users\windows\Desktop\A_Dual\A_Dual1\Dual-core_Communication_Demo\Dual-core_Communication_Demo\MASTER\obj/../Libraries/seekfree_peripheral/SEEKFREE_PRINTF.c:270
                        vlen = 6;
    37ac:	4799                	li	a5,6
    37ae:	fef40523          	sb	a5,-22(s0)
C:\Users\windows\Desktop\A_Dual\A_Dual1\Dual-core_Communication_Demo\Dual-core_Communication_Demo\MASTER\obj/../Libraries/seekfree_peripheral/SEEKFREE_PRINTF.c:273
                    }
					
                    while(6>vlen)
    37b2:	a839                	j	37d0 <zf_sprintf+0x2ca>
C:\Users\windows\Desktop\A_Dual\A_Dual1\Dual-core_Communication_Demo\Dual-core_Communication_Demo\MASTER\obj/../Libraries/seekfree_peripheral/SEEKFREE_PRINTF.c:275
                    {
                        vstr[vlen] = '0';
    37b4:	fea44783          	lbu	a5,-22(s0)
    37b8:	ff040713          	addi	a4,s0,-16
    37bc:	97ba                	add	a5,a5,a4
    37be:	03000713          	li	a4,48
    37c2:	fae78023          	sb	a4,-96(a5)
C:\Users\windows\Desktop\A_Dual\A_Dual1\Dual-core_Communication_Demo\Dual-core_Communication_Demo\MASTER\obj/../Libraries/seekfree_peripheral/SEEKFREE_PRINTF.c:276
                        vlen++;
    37c6:	fea44783          	lbu	a5,-22(s0)
    37ca:	0785                	addi	a5,a5,1
    37cc:	fef40523          	sb	a5,-22(s0)
C:\Users\windows\Desktop\A_Dual\A_Dual1\Dual-core_Communication_Demo\Dual-core_Communication_Demo\MASTER\obj/../Libraries/seekfree_peripheral/SEEKFREE_PRINTF.c:273
                    while(6>vlen)
    37d0:	fea44703          	lbu	a4,-22(s0)
    37d4:	4795                	li	a5,5
    37d6:	fce7ffe3          	bgeu	a5,a4,37b4 <zf_sprintf+0x2ae>
C:\Users\windows\Desktop\A_Dual\A_Dual1\Dual-core_Communication_Demo\Dual-core_Communication_Demo\MASTER\obj/../Libraries/seekfree_peripheral/SEEKFREE_PRINTF.c:279
                    }
					
                    vstr[vlen] = '.';
    37da:	fea44783          	lbu	a5,-22(s0)
    37de:	ff040713          	addi	a4,s0,-16
    37e2:	97ba                	add	a5,a5,a4
    37e4:	02e00713          	li	a4,46
    37e8:	fae78023          	sb	a4,-96(a5)
C:\Users\windows\Desktop\A_Dual\A_Dual1\Dual-core_Communication_Demo\Dual-core_Communication_Demo\MASTER\obj/../Libraries/seekfree_peripheral/SEEKFREE_PRINTF.c:280
                    vlen++;
    37ec:	fea44783          	lbu	a5,-22(s0)
    37f0:	0785                	addi	a5,a5,1
    37f2:	fef40523          	sb	a5,-22(s0)
C:\Users\windows\Desktop\A_Dual\A_Dual1\Dual-core_Communication_Demo\Dual-core_Communication_Demo\MASTER\obj/../Libraries/seekfree_peripheral/SEEKFREE_PRINTF.c:282
                    
                    printf_reverse_order(vstr,vlen);
    37f6:	fea44703          	lbu	a4,-22(s0)
    37fa:	f9040793          	addi	a5,s0,-112
    37fe:	85ba                	mv	a1,a4
    3800:	853e                	mv	a0,a5
    3802:	c7dff0ef          	jal	ra,347e <printf_reverse_order>
C:\Users\windows\Desktop\A_Dual\A_Dual1\Dual-core_Communication_Demo\Dual-core_Communication_Demo\MASTER\obj/../Libraries/seekfree_peripheral/SEEKFREE_PRINTF.c:283
                    memcpy(buff,vstr,vlen);
    3806:	fea44703          	lbu	a4,-22(s0)
    380a:	f9040793          	addi	a5,s0,-112
    380e:	863a                	mv	a2,a4
    3810:	85be                	mv	a1,a5
    3812:	f8c42503          	lw	a0,-116(s0)
    3816:	174040ef          	jal	ra,798a <memcpy>
C:\Users\windows\Desktop\A_Dual\A_Dual1\Dual-core_Communication_Demo\Dual-core_Communication_Demo\MASTER\obj/../Libraries/seekfree_peripheral/SEEKFREE_PRINTF.c:284
                    buff_len += vlen;
    381a:	fea44783          	lbu	a5,-22(s0)
    381e:	fec42703          	lw	a4,-20(s0)
    3822:	97ba                	add	a5,a5,a4
    3824:	fef42623          	sw	a5,-20(s0)
C:\Users\windows\Desktop\A_Dual\A_Dual1\Dual-core_Communication_Demo\Dual-core_Communication_Demo\MASTER\obj/../Libraries/seekfree_peripheral/SEEKFREE_PRINTF.c:286

                    break;
    3828:	0001                	nop
    382a:	ac01                	j	3a3a <zf_sprintf+0x534>
C:\Users\windows\Desktop\A_Dual\A_Dual1\Dual-core_Communication_Demo\Dual-core_Communication_Demo\MASTER\obj/../Libraries/seekfree_peripheral/SEEKFREE_PRINTF.c:292
                }
                
                case 'u':// 
                {
                    int8 vstr[33];
                    uint32 ival = (uint32)va_arg(arg, uint32);
    382c:	fb442783          	lw	a5,-76(s0)
    3830:	00478713          	addi	a4,a5,4
    3834:	fae42a23          	sw	a4,-76(s0)
    3838:	439c                	lw	a5,0(a5)
    383a:	fcf42623          	sw	a5,-52(s0)
C:\Users\windows\Desktop\A_Dual\A_Dual1\Dual-core_Communication_Demo\Dual-core_Communication_Demo\MASTER\obj/../Libraries/seekfree_peripheral/SEEKFREE_PRINTF.c:293
                    uint8 vlen = number_conversion_ascii(ival, vstr, 0, 10);
    383e:	f9040793          	addi	a5,s0,-112
    3842:	46a9                	li	a3,10
    3844:	4601                	li	a2,0
    3846:	85be                	mv	a1,a5
    3848:	fcc42503          	lw	a0,-52(s0)
    384c:	b15ff0ef          	jal	ra,3360 <number_conversion_ascii>
    3850:	87aa                	mv	a5,a0
    3852:	fcf405a3          	sb	a5,-53(s0)
C:\Users\windows\Desktop\A_Dual\A_Dual1\Dual-core_Communication_Demo\Dual-core_Communication_Demo\MASTER\obj/../Libraries/seekfree_peripheral/SEEKFREE_PRINTF.c:295
                    
                    printf_reverse_order(vstr,vlen);
    3856:	fcb44703          	lbu	a4,-53(s0)
    385a:	f9040793          	addi	a5,s0,-112
    385e:	85ba                	mv	a1,a4
    3860:	853e                	mv	a0,a5
    3862:	c1dff0ef          	jal	ra,347e <printf_reverse_order>
C:\Users\windows\Desktop\A_Dual\A_Dual1\Dual-core_Communication_Demo\Dual-core_Communication_Demo\MASTER\obj/../Libraries/seekfree_peripheral/SEEKFREE_PRINTF.c:296
                    memcpy(buff,vstr,vlen);
    3866:	fcb44703          	lbu	a4,-53(s0)
    386a:	f9040793          	addi	a5,s0,-112
    386e:	863a                	mv	a2,a4
    3870:	85be                	mv	a1,a5
    3872:	f8c42503          	lw	a0,-116(s0)
    3876:	114040ef          	jal	ra,798a <memcpy>
C:\Users\windows\Desktop\A_Dual\A_Dual1\Dual-core_Communication_Demo\Dual-core_Communication_Demo\MASTER\obj/../Libraries/seekfree_peripheral/SEEKFREE_PRINTF.c:297
                    buff += vlen;
    387a:	fcb44783          	lbu	a5,-53(s0)
    387e:	f8c42703          	lw	a4,-116(s0)
    3882:	97ba                	add	a5,a5,a4
    3884:	f8f42623          	sw	a5,-116(s0)
C:\Users\windows\Desktop\A_Dual\A_Dual1\Dual-core_Communication_Demo\Dual-core_Communication_Demo\MASTER\obj/../Libraries/seekfree_peripheral/SEEKFREE_PRINTF.c:298
                    buff_len += vlen;
    3888:	fcb44783          	lbu	a5,-53(s0)
    388c:	fec42703          	lw	a4,-20(s0)
    3890:	97ba                	add	a5,a5,a4
    3892:	fef42623          	sw	a5,-20(s0)
C:\Users\windows\Desktop\A_Dual\A_Dual1\Dual-core_Communication_Demo\Dual-core_Communication_Demo\MASTER\obj/../Libraries/seekfree_peripheral/SEEKFREE_PRINTF.c:299
                }break;
    3896:	a255                	j	3a3a <zf_sprintf+0x534>
C:\Users\windows\Desktop\A_Dual\A_Dual1\Dual-core_Communication_Demo\Dual-core_Communication_Demo\MASTER\obj/../Libraries/seekfree_peripheral/SEEKFREE_PRINTF.c:304
                
                case 'o'://  
                {
                    int8 vstr[33];
                    uint32 ival = (uint32)va_arg(arg, uint32);
    3898:	fb442783          	lw	a5,-76(s0)
    389c:	00478713          	addi	a4,a5,4
    38a0:	fae42a23          	sw	a4,-76(s0)
    38a4:	439c                	lw	a5,0(a5)
    38a6:	fcf42223          	sw	a5,-60(s0)
C:\Users\windows\Desktop\A_Dual\A_Dual1\Dual-core_Communication_Demo\Dual-core_Communication_Demo\MASTER\obj/../Libraries/seekfree_peripheral/SEEKFREE_PRINTF.c:305
                    uint8 vlen = number_conversion_ascii(ival, vstr, 0, 8);
    38aa:	f9040793          	addi	a5,s0,-112
    38ae:	46a1                	li	a3,8
    38b0:	4601                	li	a2,0
    38b2:	85be                	mv	a1,a5
    38b4:	fc442503          	lw	a0,-60(s0)
    38b8:	aa9ff0ef          	jal	ra,3360 <number_conversion_ascii>
    38bc:	87aa                	mv	a5,a0
    38be:	fcf401a3          	sb	a5,-61(s0)
C:\Users\windows\Desktop\A_Dual\A_Dual1\Dual-core_Communication_Demo\Dual-core_Communication_Demo\MASTER\obj/../Libraries/seekfree_peripheral/SEEKFREE_PRINTF.c:307
                    
                    printf_reverse_order(vstr,vlen);
    38c2:	fc344703          	lbu	a4,-61(s0)
    38c6:	f9040793          	addi	a5,s0,-112
    38ca:	85ba                	mv	a1,a4
    38cc:	853e                	mv	a0,a5
    38ce:	bb1ff0ef          	jal	ra,347e <printf_reverse_order>
C:\Users\windows\Desktop\A_Dual\A_Dual1\Dual-core_Communication_Demo\Dual-core_Communication_Demo\MASTER\obj/../Libraries/seekfree_peripheral/SEEKFREE_PRINTF.c:308
                    memcpy(buff,vstr,vlen);
    38d2:	fc344703          	lbu	a4,-61(s0)
    38d6:	f9040793          	addi	a5,s0,-112
    38da:	863a                	mv	a2,a4
    38dc:	85be                	mv	a1,a5
    38de:	f8c42503          	lw	a0,-116(s0)
    38e2:	0a8040ef          	jal	ra,798a <memcpy>
C:\Users\windows\Desktop\A_Dual\A_Dual1\Dual-core_Communication_Demo\Dual-core_Communication_Demo\MASTER\obj/../Libraries/seekfree_peripheral/SEEKFREE_PRINTF.c:309
                    buff += vlen;
    38e6:	fc344783          	lbu	a5,-61(s0)
    38ea:	f8c42703          	lw	a4,-116(s0)
    38ee:	97ba                	add	a5,a5,a4
    38f0:	f8f42623          	sw	a5,-116(s0)
C:\Users\windows\Desktop\A_Dual\A_Dual1\Dual-core_Communication_Demo\Dual-core_Communication_Demo\MASTER\obj/../Libraries/seekfree_peripheral/SEEKFREE_PRINTF.c:310
                    buff_len += vlen;
    38f4:	fc344783          	lbu	a5,-61(s0)
    38f8:	fec42703          	lw	a4,-20(s0)
    38fc:	97ba                	add	a5,a5,a4
    38fe:	fef42623          	sw	a5,-20(s0)
C:\Users\windows\Desktop\A_Dual\A_Dual1\Dual-core_Communication_Demo\Dual-core_Communication_Demo\MASTER\obj/../Libraries/seekfree_peripheral/SEEKFREE_PRINTF.c:312
                    
                }break;
    3902:	aa25                	j	3a3a <zf_sprintf+0x534>
C:\Users\windows\Desktop\A_Dual\A_Dual1\Dual-core_Communication_Demo\Dual-core_Communication_Demo\MASTER\obj/../Libraries/seekfree_peripheral/SEEKFREE_PRINTF.c:318
                
                case 'x':// 
                case 'X':// 
                {
                    int8 vstr[33];
                    uint32 ival = (uint32)va_arg(arg, uint32);
    3904:	fb442783          	lw	a5,-76(s0)
    3908:	00478713          	addi	a4,a5,4
    390c:	fae42a23          	sw	a4,-76(s0)
    3910:	439c                	lw	a5,0(a5)
    3912:	faf42e23          	sw	a5,-68(s0)
C:\Users\windows\Desktop\A_Dual\A_Dual1\Dual-core_Communication_Demo\Dual-core_Communication_Demo\MASTER\obj/../Libraries/seekfree_peripheral/SEEKFREE_PRINTF.c:319
                    uint8 vlen = number_conversion_ascii(ival, vstr, 0, 16);
    3916:	f9040793          	addi	a5,s0,-112
    391a:	46c1                	li	a3,16
    391c:	4601                	li	a2,0
    391e:	85be                	mv	a1,a5
    3920:	fbc42503          	lw	a0,-68(s0)
    3924:	a3dff0ef          	jal	ra,3360 <number_conversion_ascii>
    3928:	87aa                	mv	a5,a0
    392a:	faf40da3          	sb	a5,-69(s0)
C:\Users\windows\Desktop\A_Dual\A_Dual1\Dual-core_Communication_Demo\Dual-core_Communication_Demo\MASTER\obj/../Libraries/seekfree_peripheral/SEEKFREE_PRINTF.c:321
                    
                    printf_reverse_order(vstr,vlen);
    392e:	fbb44703          	lbu	a4,-69(s0)
    3932:	f9040793          	addi	a5,s0,-112
    3936:	85ba                	mv	a1,a4
    3938:	853e                	mv	a0,a5
    393a:	b45ff0ef          	jal	ra,347e <printf_reverse_order>
C:\Users\windows\Desktop\A_Dual\A_Dual1\Dual-core_Communication_Demo\Dual-core_Communication_Demo\MASTER\obj/../Libraries/seekfree_peripheral/SEEKFREE_PRINTF.c:322
                    memcpy(buff,vstr,vlen);
    393e:	fbb44703          	lbu	a4,-69(s0)
    3942:	f9040793          	addi	a5,s0,-112
    3946:	863a                	mv	a2,a4
    3948:	85be                	mv	a1,a5
    394a:	f8c42503          	lw	a0,-116(s0)
    394e:	03c040ef          	jal	ra,798a <memcpy>
C:\Users\windows\Desktop\A_Dual\A_Dual1\Dual-core_Communication_Demo\Dual-core_Communication_Demo\MASTER\obj/../Libraries/seekfree_peripheral/SEEKFREE_PRINTF.c:323
                    buff += vlen;
    3952:	fbb44783          	lbu	a5,-69(s0)
    3956:	f8c42703          	lw	a4,-116(s0)
    395a:	97ba                	add	a5,a5,a4
    395c:	f8f42623          	sw	a5,-116(s0)
C:\Users\windows\Desktop\A_Dual\A_Dual1\Dual-core_Communication_Demo\Dual-core_Communication_Demo\MASTER\obj/../Libraries/seekfree_peripheral/SEEKFREE_PRINTF.c:324
                    buff_len += vlen;
    3960:	fbb44783          	lbu	a5,-69(s0)
    3964:	fec42703          	lw	a4,-20(s0)
    3968:	97ba                	add	a5,a5,a4
    396a:	fef42623          	sw	a5,-20(s0)
C:\Users\windows\Desktop\A_Dual\A_Dual1\Dual-core_Communication_Demo\Dual-core_Communication_Demo\MASTER\obj/../Libraries/seekfree_peripheral/SEEKFREE_PRINTF.c:325
                }break;
    396e:	a0f1                	j	3a3a <zf_sprintf+0x534>
C:\Users\windows\Desktop\A_Dual\A_Dual1\Dual-core_Communication_Demo\Dual-core_Communication_Demo\MASTER\obj/../Libraries/seekfree_peripheral/SEEKFREE_PRINTF.c:330
                
                
                case 's':// 
                {
                    int8 *pc = va_arg(arg, int8 *);
    3970:	fb442783          	lw	a5,-76(s0)
    3974:	00478713          	addi	a4,a5,4
    3978:	fae42a23          	sw	a4,-76(s0)
    397c:	439c                	lw	a5,0(a5)
    397e:	fef42223          	sw	a5,-28(s0)
C:\Users\windows\Desktop\A_Dual\A_Dual1\Dual-core_Communication_Demo\Dual-core_Communication_Demo\MASTER\obj/../Libraries/seekfree_peripheral/SEEKFREE_PRINTF.c:331
                    while (*pc)
    3982:	a805                	j	39b2 <zf_sprintf+0x4ac>
C:\Users\windows\Desktop\A_Dual\A_Dual1\Dual-core_Communication_Demo\Dual-core_Communication_Demo\MASTER\obj/../Libraries/seekfree_peripheral/SEEKFREE_PRINTF.c:333
                    {
                        *buff = *pc;
    3984:	fe442783          	lw	a5,-28(s0)
    3988:	00078703          	lb	a4,0(a5)
    398c:	f8c42783          	lw	a5,-116(s0)
    3990:	00e78023          	sb	a4,0(a5)
C:\Users\windows\Desktop\A_Dual\A_Dual1\Dual-core_Communication_Demo\Dual-core_Communication_Demo\MASTER\obj/../Libraries/seekfree_peripheral/SEEKFREE_PRINTF.c:334
                        buff++;
    3994:	f8c42783          	lw	a5,-116(s0)
    3998:	0785                	addi	a5,a5,1
    399a:	f8f42623          	sw	a5,-116(s0)
C:\Users\windows\Desktop\A_Dual\A_Dual1\Dual-core_Communication_Demo\Dual-core_Communication_Demo\MASTER\obj/../Libraries/seekfree_peripheral/SEEKFREE_PRINTF.c:335
                        buff_len++;
    399e:	fec42783          	lw	a5,-20(s0)
    39a2:	0785                	addi	a5,a5,1
    39a4:	fef42623          	sw	a5,-20(s0)
C:\Users\windows\Desktop\A_Dual\A_Dual1\Dual-core_Communication_Demo\Dual-core_Communication_Demo\MASTER\obj/../Libraries/seekfree_peripheral/SEEKFREE_PRINTF.c:336
                        pc++;
    39a8:	fe442783          	lw	a5,-28(s0)
    39ac:	0785                	addi	a5,a5,1
    39ae:	fef42223          	sw	a5,-28(s0)
C:\Users\windows\Desktop\A_Dual\A_Dual1\Dual-core_Communication_Demo\Dual-core_Communication_Demo\MASTER\obj/../Libraries/seekfree_peripheral/SEEKFREE_PRINTF.c:331
                    while (*pc)
    39b2:	fe442783          	lw	a5,-28(s0)
    39b6:	00078783          	lb	a5,0(a5)
    39ba:	f7e9                	bnez	a5,3984 <zf_sprintf+0x47e>
C:\Users\windows\Desktop\A_Dual\A_Dual1\Dual-core_Communication_Demo\Dual-core_Communication_Demo\MASTER\obj/../Libraries/seekfree_peripheral/SEEKFREE_PRINTF.c:338
                    }
                }break;
    39bc:	a8bd                	j	3a3a <zf_sprintf+0x534>
C:\Users\windows\Desktop\A_Dual\A_Dual1\Dual-core_Communication_Demo\Dual-core_Communication_Demo\MASTER\obj/../Libraries/seekfree_peripheral/SEEKFREE_PRINTF.c:346
                {
                    int8 vstr[33];
                    //uint32 ival = (uint32)va_arg(arg, uint32);
                    //uint8 vlen = number_conversion_ascii(ival, vstr, 0, 16);
                    
                    printf_reverse_order(vstr,8);
    39be:	f9040793          	addi	a5,s0,-112
    39c2:	45a1                	li	a1,8
    39c4:	853e                	mv	a0,a5
    39c6:	ab9ff0ef          	jal	ra,347e <printf_reverse_order>
C:\Users\windows\Desktop\A_Dual\A_Dual1\Dual-core_Communication_Demo\Dual-core_Communication_Demo\MASTER\obj/../Libraries/seekfree_peripheral/SEEKFREE_PRINTF.c:347
                    memcpy(buff,vstr,8);
    39ca:	f9040793          	addi	a5,s0,-112
    39ce:	4621                	li	a2,8
    39d0:	85be                	mv	a1,a5
    39d2:	f8c42503          	lw	a0,-116(s0)
    39d6:	7b5030ef          	jal	ra,798a <memcpy>
C:\Users\windows\Desktop\A_Dual\A_Dual1\Dual-core_Communication_Demo\Dual-core_Communication_Demo\MASTER\obj/../Libraries/seekfree_peripheral/SEEKFREE_PRINTF.c:348
                    buff += 8;
    39da:	f8c42783          	lw	a5,-116(s0)
    39de:	07a1                	addi	a5,a5,8
    39e0:	f8f42623          	sw	a5,-116(s0)
C:\Users\windows\Desktop\A_Dual\A_Dual1\Dual-core_Communication_Demo\Dual-core_Communication_Demo\MASTER\obj/../Libraries/seekfree_peripheral/SEEKFREE_PRINTF.c:349
                    buff_len += 8;
    39e4:	fec42783          	lw	a5,-20(s0)
    39e8:	07a1                	addi	a5,a5,8
    39ea:	fef42623          	sw	a5,-20(s0)
C:\Users\windows\Desktop\A_Dual\A_Dual1\Dual-core_Communication_Demo\Dual-core_Communication_Demo\MASTER\obj/../Libraries/seekfree_peripheral/SEEKFREE_PRINTF.c:351
                            
                }break;
    39ee:	a0b1                	j	3a3a <zf_sprintf+0x534>
C:\Users\windows\Desktop\A_Dual\A_Dual1\Dual-core_Communication_Demo\Dual-core_Communication_Demo\MASTER\obj/../Libraries/seekfree_peripheral/SEEKFREE_PRINTF.c:356
                
                
                case '%':// % 
                {
                    *buff = '%';
    39f0:	f8c42783          	lw	a5,-116(s0)
    39f4:	02500713          	li	a4,37
    39f8:	00e78023          	sb	a4,0(a5)
C:\Users\windows\Desktop\A_Dual\A_Dual1\Dual-core_Communication_Demo\Dual-core_Communication_Demo\MASTER\obj/../Libraries/seekfree_peripheral/SEEKFREE_PRINTF.c:357
                    buff++;
    39fc:	f8c42783          	lw	a5,-116(s0)
    3a00:	0785                	addi	a5,a5,1
    3a02:	f8f42623          	sw	a5,-116(s0)
C:\Users\windows\Desktop\A_Dual\A_Dual1\Dual-core_Communication_Demo\Dual-core_Communication_Demo\MASTER\obj/../Libraries/seekfree_peripheral/SEEKFREE_PRINTF.c:358
                    buff_len++;
    3a06:	fec42783          	lw	a5,-20(s0)
    3a0a:	0785                	addi	a5,a5,1
    3a0c:	fef42623          	sw	a5,-20(s0)
C:\Users\windows\Desktop\A_Dual\A_Dual1\Dual-core_Communication_Demo\Dual-core_Communication_Demo\MASTER\obj/../Libraries/seekfree_peripheral/SEEKFREE_PRINTF.c:359
                }break;
    3a10:	a02d                	j	3a3a <zf_sprintf+0x534>
C:\Users\windows\Desktop\A_Dual\A_Dual1\Dual-core_Communication_Demo\Dual-core_Communication_Demo\MASTER\obj/../Libraries/seekfree_peripheral/SEEKFREE_PRINTF.c:366
                default:break;
			}
		}
		else
		{
            *buff = (int8)(*format);
    3a12:	f8842783          	lw	a5,-120(s0)
    3a16:	00078703          	lb	a4,0(a5)
    3a1a:	f8c42783          	lw	a5,-116(s0)
    3a1e:	00e78023          	sb	a4,0(a5)
C:\Users\windows\Desktop\A_Dual\A_Dual1\Dual-core_Communication_Demo\Dual-core_Communication_Demo\MASTER\obj/../Libraries/seekfree_peripheral/SEEKFREE_PRINTF.c:367
            buff++;
    3a22:	f8c42783          	lw	a5,-116(s0)
    3a26:	0785                	addi	a5,a5,1
    3a28:	f8f42623          	sw	a5,-116(s0)
C:\Users\windows\Desktop\A_Dual\A_Dual1\Dual-core_Communication_Demo\Dual-core_Communication_Demo\MASTER\obj/../Libraries/seekfree_peripheral/SEEKFREE_PRINTF.c:368
            buff_len++;
    3a2c:	fec42783          	lw	a5,-20(s0)
    3a30:	0785                	addi	a5,a5,1
    3a32:	fef42623          	sw	a5,-20(s0)
    3a36:	a011                	j	3a3a <zf_sprintf+0x534>
C:\Users\windows\Desktop\A_Dual\A_Dual1\Dual-core_Communication_Demo\Dual-core_Communication_Demo\MASTER\obj/../Libraries/seekfree_peripheral/SEEKFREE_PRINTF.c:361
                default:break;
    3a38:	0001                	nop
C:\Users\windows\Desktop\A_Dual\A_Dual1\Dual-core_Communication_Demo\Dual-core_Communication_Demo\MASTER\obj/../Libraries/seekfree_peripheral/SEEKFREE_PRINTF.c:370
		}
		format++;
    3a3a:	f8842783          	lw	a5,-120(s0)
    3a3e:	0785                	addi	a5,a5,1
    3a40:	f8f42423          	sw	a5,-120(s0)
C:\Users\windows\Desktop\A_Dual\A_Dual1\Dual-core_Communication_Demo\Dual-core_Communication_Demo\MASTER\obj/../Libraries/seekfree_peripheral/SEEKFREE_PRINTF.c:201
	while (*format)
    3a44:	f8842783          	lw	a5,-120(s0)
    3a48:	00078783          	lb	a5,0(a5)
    3a4c:	ae0795e3          	bnez	a5,3536 <zf_sprintf+0x30>
C:\Users\windows\Desktop\A_Dual\A_Dual1\Dual-core_Communication_Demo\Dual-core_Communication_Demo\MASTER\obj/../Libraries/seekfree_peripheral/SEEKFREE_PRINTF.c:374
	}
	va_end(arg);

    return buff_len;
    3a50:	fec42783          	lw	a5,-20(s0)
C:\Users\windows\Desktop\A_Dual\A_Dual1\Dual-core_Communication_Demo\Dual-core_Communication_Demo\MASTER\obj/../Libraries/seekfree_peripheral/SEEKFREE_PRINTF.c:375
}
    3a54:	853e                	mv	a0,a5
    3a56:	50f6                	lw	ra,124(sp)
    3a58:	5466                	lw	s0,120(sp)
    3a5a:	610d                	addi	sp,sp,160
    3a5c:	8082                	ret

00003a5e <ov7725_cof_uart_interrupt>:
ov7725_cof_uart_interrupt():
C:\Users\windows\Desktop\A_Dual\A_Dual1\Dual-core_Communication_Demo\Dual-core_Communication_Demo\MASTER\obj/../Libraries/seekfree_peripheral/SEEKFREE_UART_7725.c:81
//  Sample usage:
//  @note       ISR 3
//-------------------------------------------------------------------------------------------------------------------

void ov7725_cof_uart_interrupt(void)
{
    3a5e:	1141                	addi	sp,sp,-16
    3a60:	c622                	sw	s0,12(sp)
    3a62:	0800                	addi	s0,sp,16
C:\Users\windows\Desktop\A_Dual\A_Dual1\Dual-core_Communication_Demo\Dual-core_Communication_Demo\MASTER\obj/../Libraries/seekfree_peripheral/SEEKFREE_UART_7725.c:83

    ov7725_uart_receive[ov7725_uart_receive_num] = ((USART_TypeDef*)UARTN[OV7725_UART_COF_UART])->DATAR & 0x01FF;
    3a64:	67a5                	lui	a5,0x9
    3a66:	48078793          	addi	a5,a5,1152 # 9480 <UARTN>
    3a6a:	43dc                	lw	a5,4(a5)
    3a6c:	0047d783          	lhu	a5,4(a5)
    3a70:	01079713          	slli	a4,a5,0x10
    3a74:	8341                	srli	a4,a4,0x10
    3a76:	8331c783          	lbu	a5,-1997(gp) # 200000a3 <ov7725_uart_receive_num>
    3a7a:	86be                	mv	a3,a5
    3a7c:	0ff77713          	andi	a4,a4,255
    3a80:	83018793          	addi	a5,gp,-2000 # 200000a0 <ov7725_uart_receive>
    3a84:	97b6                	add	a5,a5,a3
    3a86:	00e78023          	sb	a4,0(a5)
C:\Users\windows\Desktop\A_Dual\A_Dual1\Dual-core_Communication_Demo\Dual-core_Communication_Demo\MASTER\obj/../Libraries/seekfree_peripheral/SEEKFREE_UART_7725.c:84
    ov7725_uart_receive_num++;
    3a8a:	8331c783          	lbu	a5,-1997(gp) # 200000a3 <ov7725_uart_receive_num>
    3a8e:	0785                	addi	a5,a5,1
    3a90:	0ff7f713          	andi	a4,a5,255
    3a94:	82e189a3          	sb	a4,-1997(gp) # 200000a3 <ov7725_uart_receive_num>
C:\Users\windows\Desktop\A_Dual\A_Dual1\Dual-core_Communication_Demo\Dual-core_Communication_Demo\MASTER\obj/../Libraries/seekfree_peripheral/SEEKFREE_UART_7725.c:86

    if(1==ov7725_uart_receive_num && 0XA5!=ov7725_uart_receive[0])  ov7725_uart_receive_num = 0;
    3a98:	8331c703          	lbu	a4,-1997(gp) # 200000a3 <ov7725_uart_receive_num>
    3a9c:	4785                	li	a5,1
    3a9e:	00f71a63          	bne	a4,a5,3ab2 <ov7725_cof_uart_interrupt+0x54>
C:\Users\windows\Desktop\A_Dual\A_Dual1\Dual-core_Communication_Demo\Dual-core_Communication_Demo\MASTER\obj/../Libraries/seekfree_peripheral/SEEKFREE_UART_7725.c:86 (discriminator 1)
    3aa2:	8301c703          	lbu	a4,-2000(gp) # 200000a0 <ov7725_uart_receive>
    3aa6:	0a500793          	li	a5,165
    3aaa:	00f70463          	beq	a4,a5,3ab2 <ov7725_cof_uart_interrupt+0x54>
C:\Users\windows\Desktop\A_Dual\A_Dual1\Dual-core_Communication_Demo\Dual-core_Communication_Demo\MASTER\obj/../Libraries/seekfree_peripheral/SEEKFREE_UART_7725.c:86 (discriminator 2)
    3aae:	820189a3          	sb	zero,-1997(gp) # 200000a3 <ov7725_uart_receive_num>
C:\Users\windows\Desktop\A_Dual\A_Dual1\Dual-core_Communication_Demo\Dual-core_Communication_Demo\MASTER\obj/../Libraries/seekfree_peripheral/SEEKFREE_UART_7725.c:87
    if(3 == ov7725_uart_receive_num)
    3ab2:	8331c703          	lbu	a4,-1997(gp) # 200000a3 <ov7725_uart_receive_num>
    3ab6:	478d                	li	a5,3
    3ab8:	00f71763          	bne	a4,a5,3ac6 <ov7725_cof_uart_interrupt+0x68>
C:\Users\windows\Desktop\A_Dual\A_Dual1\Dual-core_Communication_Demo\Dual-core_Communication_Demo\MASTER\obj/../Libraries/seekfree_peripheral/SEEKFREE_UART_7725.c:89
    {
        ov7725_uart_receive_num = 0;
    3abc:	820189a3          	sb	zero,-1997(gp) # 200000a3 <ov7725_uart_receive_num>
C:\Users\windows\Desktop\A_Dual\A_Dual1\Dual-core_Communication_Demo\Dual-core_Communication_Demo\MASTER\obj/../Libraries/seekfree_peripheral/SEEKFREE_UART_7725.c:90
        ov7725_uart_receive_flag = 1;
    3ac0:	4705                	li	a4,1
    3ac2:	82e18a23          	sb	a4,-1996(gp) # 200000a4 <ov7725_uart_receive_flag>
C:\Users\windows\Desktop\A_Dual\A_Dual1\Dual-core_Communication_Demo\Dual-core_Communication_Demo\MASTER\obj/../Libraries/seekfree_peripheral/SEEKFREE_UART_7725.c:92
    }
}
    3ac6:	0001                	nop
    3ac8:	4432                	lw	s0,12(sp)
    3aca:	0141                	addi	sp,sp,16
    3acc:	8082                	ret

00003ace <ov7725_uart_vsync>:
ov7725_uart_vsync():
C:\Users\windows\Desktop\A_Dual\A_Dual1\Dual-core_Communication_Demo\Dual-core_Communication_Demo\MASTER\obj/../Libraries/seekfree_peripheral/SEEKFREE_UART_7725.c:103
//  @since      v1.0
//  Sample usage:                   isr.c()
//-------------------------------------------------------------------------------------------------------------------

void ov7725_uart_vsync(void)
{
    3ace:	1141                	addi	sp,sp,-16
    3ad0:	c622                	sw	s0,12(sp)
    3ad2:	0800                	addi	s0,sp,16
C:\Users\windows\Desktop\A_Dual\A_Dual1\Dual-core_Communication_Demo\Dual-core_Communication_Demo\MASTER\obj/../Libraries/seekfree_peripheral/SEEKFREE_UART_7725.c:104
    OV7725_UART_DMA_CH->CNTR = OV7725_UART_SIZE;             //DMADMA
    3ad4:	400207b7          	lui	a5,0x40020
    3ad8:	04478793          	addi	a5,a5,68 # 40020044 <_eusrstack+0x2001b044>
    3adc:	6705                	lui	a4,0x1
    3ade:	96070713          	addi	a4,a4,-1696 # 960 <__stack_size+0x160>
    3ae2:	c3d8                	sw	a4,4(a5)
C:\Users\windows\Desktop\A_Dual\A_Dual1\Dual-core_Communication_Demo\Dual-core_Communication_Demo\MASTER\obj/../Libraries/seekfree_peripheral/SEEKFREE_UART_7725.c:105
    OV7725_UART_DMA_CH->CFGR |= DMA_CFGR1_EN;                //DMA1
    3ae4:	400207b7          	lui	a5,0x40020
    3ae8:	04478793          	addi	a5,a5,68 # 40020044 <_eusrstack+0x2001b044>
    3aec:	4398                	lw	a4,0(a5)
    3aee:	400207b7          	lui	a5,0x40020
    3af2:	04478793          	addi	a5,a5,68 # 40020044 <_eusrstack+0x2001b044>
    3af6:	00176713          	ori	a4,a4,1
    3afa:	c398                	sw	a4,0(a5)
C:\Users\windows\Desktop\A_Dual\A_Dual1\Dual-core_Communication_Demo\Dual-core_Communication_Demo\MASTER\obj/../Libraries/seekfree_peripheral/SEEKFREE_UART_7725.c:106
}
    3afc:	0001                	nop
    3afe:	4432                	lw	s0,12(sp)
    3b00:	0141                	addi	sp,sp,16
    3b02:	8082                	ret

00003b04 <ov7725_uart_dma>:
ov7725_uart_dma():
C:\Users\windows\Desktop\A_Dual\A_Dual1\Dual-core_Communication_Demo\Dual-core_Communication_Demo\MASTER\obj/../Libraries/seekfree_peripheral/SEEKFREE_UART_7725.c:117
//  @return     void
//  @since      v1.0
//  Sample usage:                   isr.c()
//-------------------------------------------------------------------------------------------------------------------
void ov7725_uart_dma(void)
{
    3b04:	1141                	addi	sp,sp,-16
    3b06:	c622                	sw	s0,12(sp)
    3b08:	0800                	addi	s0,sp,16
C:\Users\windows\Desktop\A_Dual\A_Dual1\Dual-core_Communication_Demo\Dual-core_Communication_Demo\MASTER\obj/../Libraries/seekfree_peripheral/SEEKFREE_UART_7725.c:118
    ov7725_uart_finish_flag = 1;                             //1
    3b0a:	4705                	li	a4,1
    3b0c:	82e18aa3          	sb	a4,-1995(gp) # 200000a5 <ov7725_uart_finish_flag>
C:\Users\windows\Desktop\A_Dual\A_Dual1\Dual-core_Communication_Demo\Dual-core_Communication_Demo\MASTER\obj/../Libraries/seekfree_peripheral/SEEKFREE_UART_7725.c:119
    OV7725_UART_DMA_CH->CFGR &= (uint16)(~DMA_CFGR1_EN);     //DMA1
    3b10:	400207b7          	lui	a5,0x40020
    3b14:	04478793          	addi	a5,a5,68 # 40020044 <_eusrstack+0x2001b044>
    3b18:	4394                	lw	a3,0(a5)
    3b1a:	400207b7          	lui	a5,0x40020
    3b1e:	04478793          	addi	a5,a5,68 # 40020044 <_eusrstack+0x2001b044>
    3b22:	6741                	lui	a4,0x10
    3b24:	1779                	addi	a4,a4,-2
    3b26:	8f75                	and	a4,a4,a3
    3b28:	c398                	sw	a4,0(a5)
C:\Users\windows\Desktop\A_Dual\A_Dual1\Dual-core_Communication_Demo\Dual-core_Communication_Demo\MASTER\obj/../Libraries/seekfree_peripheral/SEEKFREE_UART_7725.c:120
}
    3b2a:	0001                	nop
    3b2c:	4432                	lw	s0,12(sp)
    3b2e:	0141                	addi	sp,sp,16
    3b30:	8082                	ret

00003b32 <gpio_init>:
gpio_init():
C:\Users\windows\Desktop\A_Dual\A_Dual1\Dual-core_Communication_Demo\Dual-core_Communication_Demo\MASTER\obj/../Libraries/seekfree_libraries/zf_gpio.c:40
//  @param      pinconf     zf_gpio.hGPIOSPEED_enumGPIOMODE_enum | 
//  @return     void
//  Sample usage:           gpio_init(D0, GPO, 1, GPIO_PIN_CONFIG);//D0GPIO100MHZ 
//-------------------------------------------------------------------------------------------------------------------
void gpio_init(PIN_enum pin, GPIODIR_enum dir, uint8 dat, uint32 pinconf)
{
    3b32:	7179                	addi	sp,sp,-48
    3b34:	d606                	sw	ra,44(sp)
    3b36:	d422                	sw	s0,40(sp)
    3b38:	1800                	addi	s0,sp,48
    3b3a:	fca42e23          	sw	a0,-36(s0)
    3b3e:	fcb42c23          	sw	a1,-40(s0)
    3b42:	87b2                	mv	a5,a2
    3b44:	fcd42823          	sw	a3,-48(s0)
    3b48:	fcf40ba3          	sb	a5,-41(s0)
C:\Users\windows\Desktop\A_Dual\A_Dual1\Dual-core_Communication_Demo\Dual-core_Communication_Demo\MASTER\obj/../Libraries/seekfree_libraries/zf_gpio.c:42
    GPIO_InitTypeDef GPIO_InitStructure;
    uint8 io_group = (pin & 0xE0) >> 5;
    3b4c:	fdc42783          	lw	a5,-36(s0)
    3b50:	8395                	srli	a5,a5,0x5
    3b52:	0ff7f793          	andi	a5,a5,255
    3b56:	8b9d                	andi	a5,a5,7
    3b58:	fef407a3          	sb	a5,-17(s0)
C:\Users\windows\Desktop\A_Dual\A_Dual1\Dual-core_Communication_Demo\Dual-core_Communication_Demo\MASTER\obj/../Libraries/seekfree_libraries/zf_gpio.c:43
    uint8 io_pin = pin & 0x1F;
    3b5c:	fdc42783          	lw	a5,-36(s0)
    3b60:	0ff7f793          	andi	a5,a5,255
    3b64:	8bfd                	andi	a5,a5,31
    3b66:	fef40723          	sb	a5,-18(s0)
C:\Users\windows\Desktop\A_Dual\A_Dual1\Dual-core_Communication_Demo\Dual-core_Communication_Demo\MASTER\obj/../Libraries/seekfree_libraries/zf_gpio.c:46


    if(PIN_NULL == pin) return;
    3b6a:	fdc42703          	lw	a4,-36(s0)
    3b6e:	08000793          	li	a5,128
    3b72:	14f70d63          	beq	a4,a5,3ccc <gpio_init+0x19a>
C:\Users\windows\Desktop\A_Dual\A_Dual1\Dual-core_Communication_Demo\Dual-core_Communication_Demo\MASTER\obj/../Libraries/seekfree_libraries/zf_gpio.c:48
    //GPIO
    if(0 == (pin >> 5))      RCC_APB2PeriphClockCmd(RCC_APB2Periph_GPIOA, ENABLE);
    3b76:	fdc42783          	lw	a5,-36(s0)
    3b7a:	8395                	srli	a5,a5,0x5
    3b7c:	e791                	bnez	a5,3b88 <gpio_init+0x56>
C:\Users\windows\Desktop\A_Dual\A_Dual1\Dual-core_Communication_Demo\Dual-core_Communication_Demo\MASTER\obj/../Libraries/seekfree_libraries/zf_gpio.c:48 (discriminator 1)
    3b7e:	4585                	li	a1,1
    3b80:	4511                	li	a0,4
    3b82:	a01fd0ef          	jal	ra,1582 <RCC_APB2PeriphClockCmd>
    3b86:	a861                	j	3c1e <gpio_init+0xec>
C:\Users\windows\Desktop\A_Dual\A_Dual1\Dual-core_Communication_Demo\Dual-core_Communication_Demo\MASTER\obj/../Libraries/seekfree_libraries/zf_gpio.c:49
    else if(1 == (pin >> 5)) RCC_APB2PeriphClockCmd(RCC_APB2Periph_GPIOB, ENABLE);
    3b88:	fdc42783          	lw	a5,-36(s0)
    3b8c:	0057d713          	srli	a4,a5,0x5
    3b90:	4785                	li	a5,1
    3b92:	00f71763          	bne	a4,a5,3ba0 <gpio_init+0x6e>
C:\Users\windows\Desktop\A_Dual\A_Dual1\Dual-core_Communication_Demo\Dual-core_Communication_Demo\MASTER\obj/../Libraries/seekfree_libraries/zf_gpio.c:49 (discriminator 1)
    3b96:	4585                	li	a1,1
    3b98:	4521                	li	a0,8
    3b9a:	9e9fd0ef          	jal	ra,1582 <RCC_APB2PeriphClockCmd>
    3b9e:	a041                	j	3c1e <gpio_init+0xec>
C:\Users\windows\Desktop\A_Dual\A_Dual1\Dual-core_Communication_Demo\Dual-core_Communication_Demo\MASTER\obj/../Libraries/seekfree_libraries/zf_gpio.c:50
    else if(2 == (pin >> 5)) RCC_APB2PeriphClockCmd(RCC_APB2Periph_GPIOC, ENABLE);
    3ba0:	fdc42783          	lw	a5,-36(s0)
    3ba4:	0057d713          	srli	a4,a5,0x5
    3ba8:	4789                	li	a5,2
    3baa:	00f71763          	bne	a4,a5,3bb8 <gpio_init+0x86>
C:\Users\windows\Desktop\A_Dual\A_Dual1\Dual-core_Communication_Demo\Dual-core_Communication_Demo\MASTER\obj/../Libraries/seekfree_libraries/zf_gpio.c:50 (discriminator 1)
    3bae:	4585                	li	a1,1
    3bb0:	4541                	li	a0,16
    3bb2:	9d1fd0ef          	jal	ra,1582 <RCC_APB2PeriphClockCmd>
    3bb6:	a0a5                	j	3c1e <gpio_init+0xec>
C:\Users\windows\Desktop\A_Dual\A_Dual1\Dual-core_Communication_Demo\Dual-core_Communication_Demo\MASTER\obj/../Libraries/seekfree_libraries/zf_gpio.c:51
    else if(3 == (pin >> 5)) RCC_APB2PeriphClockCmd(RCC_APB2Periph_GPIOD, ENABLE);
    3bb8:	fdc42783          	lw	a5,-36(s0)
    3bbc:	0057d713          	srli	a4,a5,0x5
    3bc0:	478d                	li	a5,3
    3bc2:	00f71863          	bne	a4,a5,3bd2 <gpio_init+0xa0>
C:\Users\windows\Desktop\A_Dual\A_Dual1\Dual-core_Communication_Demo\Dual-core_Communication_Demo\MASTER\obj/../Libraries/seekfree_libraries/zf_gpio.c:51 (discriminator 1)
    3bc6:	4585                	li	a1,1
    3bc8:	02000513          	li	a0,32
    3bcc:	9b7fd0ef          	jal	ra,1582 <RCC_APB2PeriphClockCmd>
    3bd0:	a0b9                	j	3c1e <gpio_init+0xec>
C:\Users\windows\Desktop\A_Dual\A_Dual1\Dual-core_Communication_Demo\Dual-core_Communication_Demo\MASTER\obj/../Libraries/seekfree_libraries/zf_gpio.c:52
    else if(4 == (pin >> 5)) RCC_APB2PeriphClockCmd(RCC_APB2Periph_GPIOE, ENABLE);
    3bd2:	fdc42783          	lw	a5,-36(s0)
    3bd6:	0057d713          	srli	a4,a5,0x5
    3bda:	4791                	li	a5,4
    3bdc:	00f71863          	bne	a4,a5,3bec <gpio_init+0xba>
C:\Users\windows\Desktop\A_Dual\A_Dual1\Dual-core_Communication_Demo\Dual-core_Communication_Demo\MASTER\obj/../Libraries/seekfree_libraries/zf_gpio.c:52 (discriminator 1)
    3be0:	4585                	li	a1,1
    3be2:	04000513          	li	a0,64
    3be6:	99dfd0ef          	jal	ra,1582 <RCC_APB2PeriphClockCmd>
    3bea:	a815                	j	3c1e <gpio_init+0xec>
C:\Users\windows\Desktop\A_Dual\A_Dual1\Dual-core_Communication_Demo\Dual-core_Communication_Demo\MASTER\obj/../Libraries/seekfree_libraries/zf_gpio.c:53
    else if(5 == (pin >> 5)) RCC_APB2PeriphClockCmd(RCC_APB2Periph_GPIOF, ENABLE);
    3bec:	fdc42783          	lw	a5,-36(s0)
    3bf0:	0057d713          	srli	a4,a5,0x5
    3bf4:	4795                	li	a5,5
    3bf6:	00f71863          	bne	a4,a5,3c06 <gpio_init+0xd4>
C:\Users\windows\Desktop\A_Dual\A_Dual1\Dual-core_Communication_Demo\Dual-core_Communication_Demo\MASTER\obj/../Libraries/seekfree_libraries/zf_gpio.c:53 (discriminator 1)
    3bfa:	4585                	li	a1,1
    3bfc:	08000513          	li	a0,128
    3c00:	983fd0ef          	jal	ra,1582 <RCC_APB2PeriphClockCmd>
    3c04:	a829                	j	3c1e <gpio_init+0xec>
C:\Users\windows\Desktop\A_Dual\A_Dual1\Dual-core_Communication_Demo\Dual-core_Communication_Demo\MASTER\obj/../Libraries/seekfree_libraries/zf_gpio.c:54
    else if(6 == (pin >> 5)) RCC_APB2PeriphClockCmd(RCC_APB2Periph_GPIOG, ENABLE);
    3c06:	fdc42783          	lw	a5,-36(s0)
    3c0a:	0057d713          	srli	a4,a5,0x5
    3c0e:	4799                	li	a5,6
    3c10:	00f71763          	bne	a4,a5,3c1e <gpio_init+0xec>
C:\Users\windows\Desktop\A_Dual\A_Dual1\Dual-core_Communication_Demo\Dual-core_Communication_Demo\MASTER\obj/../Libraries/seekfree_libraries/zf_gpio.c:54 (discriminator 1)
    3c14:	4585                	li	a1,1
    3c16:	10000513          	li	a0,256
    3c1a:	969fd0ef          	jal	ra,1582 <RCC_APB2PeriphClockCmd>
C:\Users\windows\Desktop\A_Dual\A_Dual1\Dual-core_Communication_Demo\Dual-core_Communication_Demo\MASTER\obj/../Libraries/seekfree_libraries/zf_gpio.c:58


    //
    GPIO_InitStructure.GPIO_Pin = (uint16)(1 << io_pin);
    3c1e:	fee44783          	lbu	a5,-18(s0)
    3c22:	4705                	li	a4,1
    3c24:	00f717b3          	sll	a5,a4,a5
    3c28:	07c2                	slli	a5,a5,0x10
    3c2a:	83c1                	srli	a5,a5,0x10
    3c2c:	fef41023          	sh	a5,-32(s0)
C:\Users\windows\Desktop\A_Dual\A_Dual1\Dual-core_Communication_Demo\Dual-core_Communication_Demo\MASTER\obj/../Libraries/seekfree_libraries/zf_gpio.c:60

    if(GPO == dir)
    3c30:	fd842703          	lw	a4,-40(s0)
    3c34:	4785                	li	a5,1
    3c36:	02f71763          	bne	a4,a5,3c64 <gpio_init+0x132>
C:\Users\windows\Desktop\A_Dual\A_Dual1\Dual-core_Communication_Demo\Dual-core_Communication_Demo\MASTER\obj/../Libraries/seekfree_libraries/zf_gpio.c:63
    {
        //
        if((uint16)pinconf >> 8 == 0) GPIO_InitStructure.GPIO_Speed = (GPIOSpeed_TypeDef)(GPIO_Speed_50MHz);  //,50Mhz
    3c3a:	fd042783          	lw	a5,-48(s0)
    3c3e:	07c2                	slli	a5,a5,0x10
    3c40:	83c1                	srli	a5,a5,0x10
    3c42:	83a1                	srli	a5,a5,0x8
    3c44:	07c2                	slli	a5,a5,0x10
    3c46:	83c1                	srli	a5,a5,0x10
    3c48:	e789                	bnez	a5,3c52 <gpio_init+0x120>
C:\Users\windows\Desktop\A_Dual\A_Dual1\Dual-core_Communication_Demo\Dual-core_Communication_Demo\MASTER\obj/../Libraries/seekfree_libraries/zf_gpio.c:63 (discriminator 1)
    3c4a:	478d                	li	a5,3
    3c4c:	fef42223          	sw	a5,-28(s0)
    3c50:	a811                	j	3c64 <gpio_init+0x132>
C:\Users\windows\Desktop\A_Dual\A_Dual1\Dual-core_Communication_Demo\Dual-core_Communication_Demo\MASTER\obj/../Libraries/seekfree_libraries/zf_gpio.c:64
        else GPIO_InitStructure.GPIO_Speed = (GPIOSpeed_TypeDef)((uint16)pinconf >> 8);                       //
    3c52:	fd042783          	lw	a5,-48(s0)
    3c56:	07c2                	slli	a5,a5,0x10
    3c58:	83c1                	srli	a5,a5,0x10
    3c5a:	83a1                	srli	a5,a5,0x8
    3c5c:	07c2                	slli	a5,a5,0x10
    3c5e:	83c1                	srli	a5,a5,0x10
    3c60:	fef42223          	sw	a5,-28(s0)
C:\Users\windows\Desktop\A_Dual\A_Dual1\Dual-core_Communication_Demo\Dual-core_Communication_Demo\MASTER\obj/../Libraries/seekfree_libraries/zf_gpio.c:68
    }

    //
    GPIO_InitStructure.GPIO_Mode = (GPIOMode_TypeDef)((uint16)pinconf & 0xff);
    3c64:	fd042783          	lw	a5,-48(s0)
    3c68:	07c2                	slli	a5,a5,0x10
    3c6a:	83c1                	srli	a5,a5,0x10
    3c6c:	0ff7f793          	andi	a5,a5,255
    3c70:	fef42423          	sw	a5,-24(s0)
C:\Users\windows\Desktop\A_Dual\A_Dual1\Dual-core_Communication_Demo\Dual-core_Communication_Demo\MASTER\obj/../Libraries/seekfree_libraries/zf_gpio.c:69
    GPIO_Init((GPIO_TypeDef *)(GPION[io_group]), &GPIO_InitStructure);
    3c74:	fef44703          	lbu	a4,-17(s0)
    3c78:	67a5                	lui	a5,0x9
    3c7a:	070a                	slli	a4,a4,0x2
    3c7c:	45078793          	addi	a5,a5,1104 # 9450 <GPION>
    3c80:	97ba                	add	a5,a5,a4
    3c82:	439c                	lw	a5,0(a5)
    3c84:	873e                	mv	a4,a5
    3c86:	fe040793          	addi	a5,s0,-32
    3c8a:	85be                	mv	a1,a5
    3c8c:	853a                	mv	a0,a4
    3c8e:	948fd0ef          	jal	ra,dd6 <GPIO_Init>
C:\Users\windows\Desktop\A_Dual\A_Dual1\Dual-core_Communication_Demo\Dual-core_Communication_Demo\MASTER\obj/../Libraries/seekfree_libraries/zf_gpio.c:71

    if(GPO == dir)
    3c92:	fd842703          	lw	a4,-40(s0)
    3c96:	4785                	li	a5,1
    3c98:	02f71b63          	bne	a4,a5,3cce <gpio_init+0x19c>
C:\Users\windows\Desktop\A_Dual\A_Dual1\Dual-core_Communication_Demo\Dual-core_Communication_Demo\MASTER\obj/../Libraries/seekfree_libraries/zf_gpio.c:74
    {
        //
        GPIO_WriteBit((GPIO_TypeDef *)(GPION[io_group]), (uint16)(1 << io_pin), dat);
    3c9c:	fef44703          	lbu	a4,-17(s0)
    3ca0:	67a5                	lui	a5,0x9
    3ca2:	070a                	slli	a4,a4,0x2
    3ca4:	45078793          	addi	a5,a5,1104 # 9450 <GPION>
    3ca8:	97ba                	add	a5,a5,a4
    3caa:	439c                	lw	a5,0(a5)
    3cac:	86be                	mv	a3,a5
    3cae:	fee44783          	lbu	a5,-18(s0)
    3cb2:	4705                	li	a4,1
    3cb4:	00f717b3          	sll	a5,a4,a5
    3cb8:	07c2                	slli	a5,a5,0x10
    3cba:	83c1                	srli	a5,a5,0x10
    3cbc:	fd744703          	lbu	a4,-41(s0)
    3cc0:	863a                	mv	a2,a4
    3cc2:	85be                	mv	a1,a5
    3cc4:	8536                	mv	a0,a3
    3cc6:	b3afd0ef          	jal	ra,1000 <GPIO_WriteBit>
    3cca:	a011                	j	3cce <gpio_init+0x19c>
C:\Users\windows\Desktop\A_Dual\A_Dual1\Dual-core_Communication_Demo\Dual-core_Communication_Demo\MASTER\obj/../Libraries/seekfree_libraries/zf_gpio.c:46
    if(PIN_NULL == pin) return;
    3ccc:	0001                	nop
C:\Users\windows\Desktop\A_Dual\A_Dual1\Dual-core_Communication_Demo\Dual-core_Communication_Demo\MASTER\obj/../Libraries/seekfree_libraries/zf_gpio.c:76
    }
}
    3cce:	50b2                	lw	ra,44(sp)
    3cd0:	5422                	lw	s0,40(sp)
    3cd2:	6145                	addi	sp,sp,48
    3cd4:	8082                	ret

00003cd6 <gpio_set>:
gpio_set():
C:\Users\windows\Desktop\A_Dual\A_Dual1\Dual-core_Communication_Demo\Dual-core_Communication_Demo\MASTER\obj/../Libraries/seekfree_libraries/zf_gpio.c:86
//  @param      dat          0 1
//  @return     void
//  Sample usage:           gpio_set(D0, 0);//D0
//-------------------------------------------------------------------------------------------------------------------
void gpio_set(PIN_enum pin, uint8 dat)
{
    3cd6:	7179                	addi	sp,sp,-48
    3cd8:	d622                	sw	s0,44(sp)
    3cda:	1800                	addi	s0,sp,48
    3cdc:	fca42e23          	sw	a0,-36(s0)
    3ce0:	87ae                	mv	a5,a1
    3ce2:	fcf40da3          	sb	a5,-37(s0)
C:\Users\windows\Desktop\A_Dual\A_Dual1\Dual-core_Communication_Demo\Dual-core_Communication_Demo\MASTER\obj/../Libraries/seekfree_libraries/zf_gpio.c:87
    uint8 io_group = (pin & 0xE0) >> 5;
    3ce6:	fdc42783          	lw	a5,-36(s0)
    3cea:	8395                	srli	a5,a5,0x5
    3cec:	0ff7f793          	andi	a5,a5,255
    3cf0:	8b9d                	andi	a5,a5,7
    3cf2:	fef407a3          	sb	a5,-17(s0)
C:\Users\windows\Desktop\A_Dual\A_Dual1\Dual-core_Communication_Demo\Dual-core_Communication_Demo\MASTER\obj/../Libraries/seekfree_libraries/zf_gpio.c:88
    uint8 io_pin = pin & 0x1F;
    3cf6:	fdc42783          	lw	a5,-36(s0)
    3cfa:	0ff7f793          	andi	a5,a5,255
    3cfe:	8bfd                	andi	a5,a5,31
    3d00:	fef40723          	sb	a5,-18(s0)
C:\Users\windows\Desktop\A_Dual\A_Dual1\Dual-core_Communication_Demo\Dual-core_Communication_Demo\MASTER\obj/../Libraries/seekfree_libraries/zf_gpio.c:90

    if (dat == 1)
    3d04:	fdb44703          	lbu	a4,-37(s0)
    3d08:	4785                	li	a5,1
    3d0a:	02f71263          	bne	a4,a5,3d2e <gpio_set+0x58>
C:\Users\windows\Desktop\A_Dual\A_Dual1\Dual-core_Communication_Demo\Dual-core_Communication_Demo\MASTER\obj/../Libraries/seekfree_libraries/zf_gpio.c:91
         ((GPIO_TypeDef *)(GPION[io_group]))->BSHR = 1 << io_pin;
    3d0e:	fee44783          	lbu	a5,-18(s0)
    3d12:	4705                	li	a4,1
    3d14:	00f716b3          	sll	a3,a4,a5
    3d18:	fef44703          	lbu	a4,-17(s0)
    3d1c:	67a5                	lui	a5,0x9
    3d1e:	070a                	slli	a4,a4,0x2
    3d20:	45078793          	addi	a5,a5,1104 # 9450 <GPION>
    3d24:	97ba                	add	a5,a5,a4
    3d26:	439c                	lw	a5,0(a5)
    3d28:	8736                	mv	a4,a3
    3d2a:	cb98                	sw	a4,16(a5)
C:\Users\windows\Desktop\A_Dual\A_Dual1\Dual-core_Communication_Demo\Dual-core_Communication_Demo\MASTER\obj/../Libraries/seekfree_libraries/zf_gpio.c:94
    else
         ((GPIO_TypeDef *)(GPION[io_group]))->BCR = 1 << io_pin;
}
    3d2c:	a005                	j	3d4c <gpio_set+0x76>
C:\Users\windows\Desktop\A_Dual\A_Dual1\Dual-core_Communication_Demo\Dual-core_Communication_Demo\MASTER\obj/../Libraries/seekfree_libraries/zf_gpio.c:93
         ((GPIO_TypeDef *)(GPION[io_group]))->BCR = 1 << io_pin;
    3d2e:	fee44783          	lbu	a5,-18(s0)
    3d32:	4705                	li	a4,1
    3d34:	00f716b3          	sll	a3,a4,a5
    3d38:	fef44703          	lbu	a4,-17(s0)
    3d3c:	67a5                	lui	a5,0x9
    3d3e:	070a                	slli	a4,a4,0x2
    3d40:	45078793          	addi	a5,a5,1104 # 9450 <GPION>
    3d44:	97ba                	add	a5,a5,a4
    3d46:	439c                	lw	a5,0(a5)
    3d48:	8736                	mv	a4,a3
    3d4a:	cbd8                	sw	a4,20(a5)
C:\Users\windows\Desktop\A_Dual\A_Dual1\Dual-core_Communication_Demo\Dual-core_Communication_Demo\MASTER\obj/../Libraries/seekfree_libraries/zf_gpio.c:94
}
    3d4c:	0001                	nop
    3d4e:	5432                	lw	s0,44(sp)
    3d50:	6145                	addi	sp,sp,48
    3d52:	8082                	ret

00003d54 <gpio_interrupt_init>:
gpio_interrupt_init():
C:\Users\windows\Desktop\A_Dual\A_Dual1\Dual-core_Communication_Demo\Dual-core_Communication_Demo\MASTER\obj/../Libraries/seekfree_libraries/zf_gpio.c:141
//  @param      trigger      hTRIGGER_enum
//  @return     void
//  Sample usage:           gpio_interrupt_init(D0, RISING, GPIO_INT_CONFIG);//D0
//-------------------------------------------------------------------------------------------------------------------
void gpio_interrupt_init(PIN_enum pin,TRIGGER_enum trigger, uint32 pinconf)
{
    3d54:	7179                	addi	sp,sp,-48
    3d56:	d606                	sw	ra,44(sp)
    3d58:	d422                	sw	s0,40(sp)
    3d5a:	1800                	addi	s0,sp,48
    3d5c:	fca42e23          	sw	a0,-36(s0)
    3d60:	fcb42c23          	sw	a1,-40(s0)
    3d64:	fcc42a23          	sw	a2,-44(s0)
C:\Users\windows\Desktop\A_Dual\A_Dual1\Dual-core_Communication_Demo\Dual-core_Communication_Demo\MASTER\obj/../Libraries/seekfree_libraries/zf_gpio.c:143
    EXTI_InitTypeDef EXTI_InitStructure;
    RCC_APB2PeriphClockCmd(RCC_APB2Periph_AFIO,ENABLE);
    3d68:	4585                	li	a1,1
    3d6a:	4505                	li	a0,1
    3d6c:	817fd0ef          	jal	ra,1582 <RCC_APB2PeriphClockCmd>
C:\Users\windows\Desktop\A_Dual\A_Dual1\Dual-core_Communication_Demo\Dual-core_Communication_Demo\MASTER\obj/../Libraries/seekfree_libraries/zf_gpio.c:144
    gpio_init(pin, GPI, 0, pinconf);
    3d70:	fd442683          	lw	a3,-44(s0)
    3d74:	4601                	li	a2,0
    3d76:	4581                	li	a1,0
    3d78:	fdc42503          	lw	a0,-36(s0)
    3d7c:	db7ff0ef          	jal	ra,3b32 <gpio_init>
C:\Users\windows\Desktop\A_Dual\A_Dual1\Dual-core_Communication_Demo\Dual-core_Communication_Demo\MASTER\obj/../Libraries/seekfree_libraries/zf_gpio.c:145
    GPIO_EXTILineConfig(pin >> 5, pin & 0x1F);              //
    3d80:	fdc42783          	lw	a5,-36(s0)
    3d84:	8395                	srli	a5,a5,0x5
    3d86:	0ff7f713          	andi	a4,a5,255
    3d8a:	fdc42783          	lw	a5,-36(s0)
    3d8e:	0ff7f793          	andi	a5,a5,255
    3d92:	8bfd                	andi	a5,a5,31
    3d94:	0ff7f793          	andi	a5,a5,255
    3d98:	85be                	mv	a1,a5
    3d9a:	853a                	mv	a0,a4
    3d9c:	bd8fd0ef          	jal	ra,1174 <GPIO_EXTILineConfig>
C:\Users\windows\Desktop\A_Dual\A_Dual1\Dual-core_Communication_Demo\Dual-core_Communication_Demo\MASTER\obj/../Libraries/seekfree_libraries/zf_gpio.c:146
    EXTI_InitStructure.EXTI_Line = 1 << (pin & 0x1F);       //
    3da0:	fdc42783          	lw	a5,-36(s0)
    3da4:	8bfd                	andi	a5,a5,31
    3da6:	4705                	li	a4,1
    3da8:	00f717b3          	sll	a5,a4,a5
    3dac:	fef42023          	sw	a5,-32(s0)
C:\Users\windows\Desktop\A_Dual\A_Dual1\Dual-core_Communication_Demo\Dual-core_Communication_Demo\MASTER\obj/../Libraries/seekfree_libraries/zf_gpio.c:147
    EXTI_InitStructure.EXTI_Mode = EXTI_Mode_Interrupt;     //
    3db0:	fe042223          	sw	zero,-28(s0)
C:\Users\windows\Desktop\A_Dual\A_Dual1\Dual-core_Communication_Demo\Dual-core_Communication_Demo\MASTER\obj/../Libraries/seekfree_libraries/zf_gpio.c:148
    EXTI_InitStructure.EXTI_Trigger = trigger;              //
    3db4:	fd842783          	lw	a5,-40(s0)
    3db8:	fef42423          	sw	a5,-24(s0)
C:\Users\windows\Desktop\A_Dual\A_Dual1\Dual-core_Communication_Demo\Dual-core_Communication_Demo\MASTER\obj/../Libraries/seekfree_libraries/zf_gpio.c:149
    EXTI_InitStructure.EXTI_LineCmd = ENABLE;               //
    3dbc:	4785                	li	a5,1
    3dbe:	fef42623          	sw	a5,-20(s0)
C:\Users\windows\Desktop\A_Dual\A_Dual1\Dual-core_Communication_Demo\Dual-core_Communication_Demo\MASTER\obj/../Libraries/seekfree_libraries/zf_gpio.c:150
    EXTI_Init(&EXTI_InitStructure);
    3dc2:	fe040793          	addi	a5,s0,-32
    3dc6:	853e                	mv	a0,a5
    3dc8:	e29fc0ef          	jal	ra,bf0 <EXTI_Init>
C:\Users\windows\Desktop\A_Dual\A_Dual1\Dual-core_Communication_Demo\Dual-core_Communication_Demo\MASTER\obj/../Libraries/seekfree_libraries/zf_gpio.c:151
}
    3dcc:	0001                	nop
    3dce:	50b2                	lw	ra,44(sp)
    3dd0:	5422                	lw	s0,40(sp)
    3dd2:	6145                	addi	sp,sp,48
    3dd4:	8082                	ret

00003dd6 <nvic_init>:
nvic_init():
C:\Users\windows\Desktop\A_Dual\A_Dual1\Dual-core_Communication_Demo\Dual-core_Communication_Demo\MASTER\obj/../Libraries/seekfree_libraries/zf_nvic.c:38
//  @param      status                      
//  @return     void
//  Sample usage:                           nvic_init(EXTI0_IRQn,0, 0, ENABLE); //0,
//-------------------------------------------------------------------------------------------------------------------
void nvic_init(IRQn_Type irqn,uint8 preemption_priority, uint8 sub_priority,uint8 status)
{
    3dd6:	7179                	addi	sp,sp,-48
    3dd8:	d606                	sw	ra,44(sp)
    3dda:	d422                	sw	s0,40(sp)
    3ddc:	1800                	addi	s0,sp,48
    3dde:	fca42e23          	sw	a0,-36(s0)
    3de2:	87ae                	mv	a5,a1
    3de4:	8736                	mv	a4,a3
    3de6:	fcf40da3          	sb	a5,-37(s0)
    3dea:	87b2                	mv	a5,a2
    3dec:	fcf40d23          	sb	a5,-38(s0)
    3df0:	87ba                	mv	a5,a4
    3df2:	fcf40ca3          	sb	a5,-39(s0)
C:\Users\windows\Desktop\A_Dual\A_Dual1\Dual-core_Communication_Demo\Dual-core_Communication_Demo\MASTER\obj/../Libraries/seekfree_libraries/zf_nvic.c:41
    NVIC_InitTypeDef NVIC_InitStructure;

    NVIC_InitStructure.NVIC_IRQChannel = irqn;                                  //
    3df6:	fdc42783          	lw	a5,-36(s0)
    3dfa:	0ff7f793          	andi	a5,a5,255
    3dfe:	fef40423          	sb	a5,-24(s0)
C:\Users\windows\Desktop\A_Dual\A_Dual1\Dual-core_Communication_Demo\Dual-core_Communication_Demo\MASTER\obj/../Libraries/seekfree_libraries/zf_nvic.c:42
    NVIC_InitStructure.NVIC_IRQChannelPreemptionPriority=preemption_priority;   //
    3e02:	fdb44783          	lbu	a5,-37(s0)
    3e06:	fef404a3          	sb	a5,-23(s0)
C:\Users\windows\Desktop\A_Dual\A_Dual1\Dual-core_Communication_Demo\Dual-core_Communication_Demo\MASTER\obj/../Libraries/seekfree_libraries/zf_nvic.c:43
    NVIC_InitStructure.NVIC_IRQChannelSubPriority = sub_priority;               //
    3e0a:	fda44783          	lbu	a5,-38(s0)
    3e0e:	fef40523          	sb	a5,-22(s0)
C:\Users\windows\Desktop\A_Dual\A_Dual1\Dual-core_Communication_Demo\Dual-core_Communication_Demo\MASTER\obj/../Libraries/seekfree_libraries/zf_nvic.c:44
    NVIC_InitStructure.NVIC_IRQChannelCmd = status;                             //
    3e12:	fd944783          	lbu	a5,-39(s0)
    3e16:	fef42623          	sw	a5,-20(s0)
C:\Users\windows\Desktop\A_Dual\A_Dual1\Dual-core_Communication_Demo\Dual-core_Communication_Demo\MASTER\obj/../Libraries/seekfree_libraries/zf_nvic.c:45
    NVIC_Init(&NVIC_InitStructure);
    3e1a:	fe840793          	addi	a5,s0,-24
    3e1e:	853e                	mv	a0,a5
    3e20:	c84fd0ef          	jal	ra,12a4 <NVIC_Init>
C:\Users\windows\Desktop\A_Dual\A_Dual1\Dual-core_Communication_Demo\Dual-core_Communication_Demo\MASTER\obj/../Libraries/seekfree_libraries/zf_nvic.c:48

    //
    irq_status.ienr0 |= (PFIC->ISR[0] & 0xFFFFF000);    //[31:12]
    3e24:	e000e7b7          	lui	a5,0xe000e
    3e28:	4398                	lw	a4,0(a5)
    3e2a:	77fd                	lui	a5,0xfffff
    3e2c:	8f7d                	and	a4,a4,a5
    3e2e:	9141a783          	lw	a5,-1772(gp) # 20000184 <irq_status>
    3e32:	8f5d                	or	a4,a4,a5
    3e34:	90e1aa23          	sw	a4,-1772(gp) # 20000184 <irq_status>
C:\Users\windows\Desktop\A_Dual\A_Dual1\Dual-core_Communication_Demo\Dual-core_Communication_Demo\MASTER\obj/../Libraries/seekfree_libraries/zf_nvic.c:49
    irq_status.ienr1 |= (PFIC->ISR[1] & 0x0FFFFFFF);    //[27:0]
    3e38:	e000e7b7          	lui	a5,0xe000e
    3e3c:	43d8                	lw	a4,4(a5)
    3e3e:	100007b7          	lui	a5,0x10000
    3e42:	17fd                	addi	a5,a5,-1
    3e44:	8f7d                	and	a4,a4,a5
    3e46:	91418793          	addi	a5,gp,-1772 # 20000184 <irq_status>
    3e4a:	43dc                	lw	a5,4(a5)
    3e4c:	8f5d                	or	a4,a4,a5
    3e4e:	91418793          	addi	a5,gp,-1772 # 20000184 <irq_status>
    3e52:	c3d8                	sw	a4,4(a5)
C:\Users\windows\Desktop\A_Dual\A_Dual1\Dual-core_Communication_Demo\Dual-core_Communication_Demo\MASTER\obj/../Libraries/seekfree_libraries/zf_nvic.c:50
    if(irq_status.flag == 1)
    3e54:	91418793          	addi	a5,gp,-1772 # 20000184 <irq_status>
    3e58:	0087c703          	lbu	a4,8(a5) # 10000008 <_data_lma+0xfff691c>
    3e5c:	4785                	li	a5,1
    3e5e:	00f71363          	bne	a4,a5,3e64 <nvic_init+0x8e>
C:\Users\windows\Desktop\A_Dual\A_Dual1\Dual-core_Communication_Demo\Dual-core_Communication_Demo\MASTER\obj/../Libraries/seekfree_libraries/zf_nvic.c:52
    {
        close_all_irq();
    3e62:	2031                	jal	3e6e <close_all_irq>
C:\Users\windows\Desktop\A_Dual\A_Dual1\Dual-core_Communication_Demo\Dual-core_Communication_Demo\MASTER\obj/../Libraries/seekfree_libraries/zf_nvic.c:54
    }
}
    3e64:	0001                	nop
    3e66:	50b2                	lw	ra,44(sp)
    3e68:	5422                	lw	s0,40(sp)
    3e6a:	6145                	addi	sp,sp,48
    3e6c:	8082                	ret

00003e6e <close_all_irq>:
close_all_irq():
C:\Users\windows\Desktop\A_Dual\A_Dual1\Dual-core_Communication_Demo\Dual-core_Communication_Demo\MASTER\obj/../Libraries/seekfree_libraries/zf_nvic.c:63
//  @return     void
//  @since      v1.0
//  Sample usage:
//-------------------------------------------------------------------------------------------------------------------
void close_all_irq(void)
{
    3e6e:	1141                	addi	sp,sp,-16
    3e70:	c622                	sw	s0,12(sp)
    3e72:	0800                	addi	s0,sp,16
C:\Users\windows\Desktop\A_Dual\A_Dual1\Dual-core_Communication_Demo\Dual-core_Communication_Demo\MASTER\obj/../Libraries/seekfree_libraries/zf_nvic.c:65
    //1
    PFIC->IRER[0] = 0xffffffff;
    3e74:	e000e7b7          	lui	a5,0xe000e
    3e78:	577d                	li	a4,-1
    3e7a:	18e7a023          	sw	a4,384(a5) # e000e180 <_eusrstack+0xc0009180>
C:\Users\windows\Desktop\A_Dual\A_Dual1\Dual-core_Communication_Demo\Dual-core_Communication_Demo\MASTER\obj/../Libraries/seekfree_libraries/zf_nvic.c:66
    PFIC->IRER[1] = 0xffffffff;
    3e7e:	e000e7b7          	lui	a5,0xe000e
    3e82:	577d                	li	a4,-1
    3e84:	18e7a223          	sw	a4,388(a5) # e000e184 <_eusrstack+0xc0009184>
C:\Users\windows\Desktop\A_Dual\A_Dual1\Dual-core_Communication_Demo\Dual-core_Communication_Demo\MASTER\obj/../Libraries/seekfree_libraries/zf_nvic.c:67
}
    3e88:	0001                	nop
    3e8a:	4432                	lw	s0,12(sp)
    3e8c:	0141                	addi	sp,sp,16
    3e8e:	8082                	ret

00003e90 <sys_recover_irq>:
sys_recover_irq():
C:\Users\windows\Desktop\A_Dual\A_Dual1\Dual-core_Communication_Demo\Dual-core_Communication_Demo\MASTER\obj/../Libraries/seekfree_libraries/zf_nvic.c:77
//  @return     void
//  @since      v1.0
//  Sample usage:
//-------------------------------------------------------------------------------------------------------------------
void sys_recover_irq(void)
{
    3e90:	1141                	addi	sp,sp,-16
    3e92:	c622                	sw	s0,12(sp)
    3e94:	0800                	addi	s0,sp,16
C:\Users\windows\Desktop\A_Dual\A_Dual1\Dual-core_Communication_Demo\Dual-core_Communication_Demo\MASTER\obj/../Libraries/seekfree_libraries/zf_nvic.c:78
    PFIC->IENR[0] = irq_status.ienr0;
    3e96:	e000e7b7          	lui	a5,0xe000e
    3e9a:	9141a703          	lw	a4,-1772(gp) # 20000184 <irq_status>
    3e9e:	10e7a023          	sw	a4,256(a5) # e000e100 <_eusrstack+0xc0009100>
C:\Users\windows\Desktop\A_Dual\A_Dual1\Dual-core_Communication_Demo\Dual-core_Communication_Demo\MASTER\obj/../Libraries/seekfree_libraries/zf_nvic.c:79
    PFIC->IENR[1] = irq_status.ienr1;
    3ea2:	e000e7b7          	lui	a5,0xe000e
    3ea6:	91418713          	addi	a4,gp,-1772 # 20000184 <irq_status>
    3eaa:	4358                	lw	a4,4(a4)
    3eac:	10e7a223          	sw	a4,260(a5) # e000e104 <_eusrstack+0xc0009104>
C:\Users\windows\Desktop\A_Dual\A_Dual1\Dual-core_Communication_Demo\Dual-core_Communication_Demo\MASTER\obj/../Libraries/seekfree_libraries/zf_nvic.c:80
}
    3eb0:	0001                	nop
    3eb2:	4432                	lw	s0,12(sp)
    3eb4:	0141                	addi	sp,sp,16
    3eb6:	8082                	ret

00003eb8 <DisableGlobalIRQ>:
DisableGlobalIRQ():
C:\Users\windows\Desktop\A_Dual\A_Dual1\Dual-core_Communication_Demo\Dual-core_Communication_Demo\MASTER\obj/../Libraries/seekfree_libraries/zf_nvic.c:90
//  @return     void
//  @since      v1.0
//  Sample usage:
//-------------------------------------------------------------------------------------------------------------------
uint8 DisableGlobalIRQ(void)
{
    3eb8:	1101                	addi	sp,sp,-32
    3eba:	ce06                	sw	ra,28(sp)
    3ebc:	cc22                	sw	s0,24(sp)
    3ebe:	1000                	addi	s0,sp,32
C:\Users\windows\Desktop\A_Dual\A_Dual1\Dual-core_Communication_Demo\Dual-core_Communication_Demo\MASTER\obj/../Libraries/seekfree_libraries/zf_nvic.c:92
    uint8 state;
    irq_status.flag = 1;
    3ec0:	91418793          	addi	a5,gp,-1772 # 20000184 <irq_status>
    3ec4:	4705                	li	a4,1
    3ec6:	00e78423          	sb	a4,8(a5)
C:\Users\windows\Desktop\A_Dual\A_Dual1\Dual-core_Communication_Demo\Dual-core_Communication_Demo\MASTER\obj/../Libraries/seekfree_libraries/zf_nvic.c:93
    if((irq_status.ienr0 == 0) && (irq_status.ienr1 == 0))   state = 0;  //0
    3eca:	9141a783          	lw	a5,-1772(gp) # 20000184 <irq_status>
    3ece:	eb81                	bnez	a5,3ede <DisableGlobalIRQ+0x26>
C:\Users\windows\Desktop\A_Dual\A_Dual1\Dual-core_Communication_Demo\Dual-core_Communication_Demo\MASTER\obj/../Libraries/seekfree_libraries/zf_nvic.c:93 (discriminator 1)
    3ed0:	91418793          	addi	a5,gp,-1772 # 20000184 <irq_status>
    3ed4:	43dc                	lw	a5,4(a5)
    3ed6:	e781                	bnez	a5,3ede <DisableGlobalIRQ+0x26>
C:\Users\windows\Desktop\A_Dual\A_Dual1\Dual-core_Communication_Demo\Dual-core_Communication_Demo\MASTER\obj/../Libraries/seekfree_libraries/zf_nvic.c:93 (discriminator 2)
    3ed8:	fe0407a3          	sb	zero,-17(s0)
    3edc:	a021                	j	3ee4 <DisableGlobalIRQ+0x2c>
C:\Users\windows\Desktop\A_Dual\A_Dual1\Dual-core_Communication_Demo\Dual-core_Communication_Demo\MASTER\obj/../Libraries/seekfree_libraries/zf_nvic.c:94
    else state = 1;  //1
    3ede:	4785                	li	a5,1
    3ee0:	fef407a3          	sb	a5,-17(s0)
C:\Users\windows\Desktop\A_Dual\A_Dual1\Dual-core_Communication_Demo\Dual-core_Communication_Demo\MASTER\obj/../Libraries/seekfree_libraries/zf_nvic.c:95
    close_all_irq();
    3ee4:	3769                	jal	3e6e <close_all_irq>
C:\Users\windows\Desktop\A_Dual\A_Dual1\Dual-core_Communication_Demo\Dual-core_Communication_Demo\MASTER\obj/../Libraries/seekfree_libraries/zf_nvic.c:96
    return state;
    3ee6:	fef44783          	lbu	a5,-17(s0)
C:\Users\windows\Desktop\A_Dual\A_Dual1\Dual-core_Communication_Demo\Dual-core_Communication_Demo\MASTER\obj/../Libraries/seekfree_libraries/zf_nvic.c:97
}
    3eea:	853e                	mv	a0,a5
    3eec:	40f2                	lw	ra,28(sp)
    3eee:	4462                	lw	s0,24(sp)
    3ef0:	6105                	addi	sp,sp,32
    3ef2:	8082                	ret

00003ef4 <EnableGlobalIRQ>:
EnableGlobalIRQ():
C:\Users\windows\Desktop\A_Dual\A_Dual1\Dual-core_Communication_Demo\Dual-core_Communication_Demo\MASTER\obj/../Libraries/seekfree_libraries/zf_nvic.c:107
//  @return     void
//  @since      v1.0
//  Sample usage:
//-------------------------------------------------------------------------------------------------------------------
void EnableGlobalIRQ(uint8 state)
{
    3ef4:	1101                	addi	sp,sp,-32
    3ef6:	ce06                	sw	ra,28(sp)
    3ef8:	cc22                	sw	s0,24(sp)
    3efa:	1000                	addi	s0,sp,32
    3efc:	87aa                	mv	a5,a0
    3efe:	fef407a3          	sb	a5,-17(s0)
C:\Users\windows\Desktop\A_Dual\A_Dual1\Dual-core_Communication_Demo\Dual-core_Communication_Demo\MASTER\obj/../Libraries/seekfree_libraries/zf_nvic.c:108
    if(state == 0)
    3f02:	fef44783          	lbu	a5,-17(s0)
    3f06:	e791                	bnez	a5,3f12 <EnableGlobalIRQ+0x1e>
C:\Users\windows\Desktop\A_Dual\A_Dual1\Dual-core_Communication_Demo\Dual-core_Communication_Demo\MASTER\obj/../Libraries/seekfree_libraries/zf_nvic.c:110
    {
        irq_status.flag = 0;
    3f08:	91418793          	addi	a5,gp,-1772 # 20000184 <irq_status>
    3f0c:	00078423          	sb	zero,8(a5)
C:\Users\windows\Desktop\A_Dual\A_Dual1\Dual-core_Communication_Demo\Dual-core_Communication_Demo\MASTER\obj/../Libraries/seekfree_libraries/zf_nvic.c:111
        sys_recover_irq();
    3f10:	3741                	jal	3e90 <sys_recover_irq>
C:\Users\windows\Desktop\A_Dual\A_Dual1\Dual-core_Communication_Demo\Dual-core_Communication_Demo\MASTER\obj/../Libraries/seekfree_libraries/zf_nvic.c:113
    }
}
    3f12:	0001                	nop
    3f14:	40f2                	lw	ra,28(sp)
    3f16:	4462                	lw	s0,24(sp)
    3f18:	6105                	addi	sp,sp,32
    3f1a:	8082                	ret

00003f1c <pwm_gpio_init>:
pwm_gpio_init():
C:\Users\windows\Desktop\A_Dual\A_Dual1\Dual-core_Communication_Demo\Dual-core_Communication_Demo\MASTER\obj/../Libraries/seekfree_libraries/zf_pwm.c:35
//  @param      pwmch       PWM(zf_pwm.hPWMCH_enum)
//  @return     void
//  Sample usage:             
//-------------------------------------------------------------------------------------------------------------------
void pwm_gpio_init(PWMCH_enum pwmch)
{
    3f1c:	1101                	addi	sp,sp,-32
    3f1e:	ce06                	sw	ra,28(sp)
    3f20:	cc22                	sw	s0,24(sp)
    3f22:	1000                	addi	s0,sp,32
    3f24:	fea42623          	sw	a0,-20(s0)
    3f28:	fec42703          	lw	a4,-20(s0)
    3f2c:	20000793          	li	a5,512
    3f30:	24f70763          	beq	a4,a5,417e <pwm_gpio_init+0x262>
    3f34:	fec42703          	lw	a4,-20(s0)
    3f38:	20000793          	li	a5,512
    3f3c:	0ae7ea63          	bltu	a5,a4,3ff0 <pwm_gpio_init+0xd4>
    3f40:	fec42703          	lw	a4,-20(s0)
    3f44:	10100793          	li	a5,257
    3f48:	1cf70063          	beq	a4,a5,4108 <pwm_gpio_init+0x1ec>
    3f4c:	fec42703          	lw	a4,-20(s0)
    3f50:	10100793          	li	a5,257
    3f54:	04e7e263          	bltu	a5,a4,3f98 <pwm_gpio_init+0x7c>
    3f58:	fec42703          	lw	a4,-20(s0)
    3f5c:	4789                	li	a5,2
    3f5e:	16f70d63          	beq	a4,a5,40d8 <pwm_gpio_init+0x1bc>
    3f62:	fec42703          	lw	a4,-20(s0)
    3f66:	4789                	li	a5,2
    3f68:	00e7ec63          	bltu	a5,a4,3f80 <pwm_gpio_init+0x64>
    3f6c:	fec42783          	lw	a5,-20(s0)
    3f70:	14078463          	beqz	a5,40b8 <pwm_gpio_init+0x19c>
    3f74:	fec42703          	lw	a4,-20(s0)
    3f78:	4785                	li	a5,1
    3f7a:	14f70763          	beq	a4,a5,40c8 <pwm_gpio_init+0x1ac>
C:\Users\windows\Desktop\A_Dual\A_Dual1\Dual-core_Communication_Demo\Dual-core_Communication_Demo\MASTER\obj/../Libraries/seekfree_libraries/zf_pwm.c:145
        case PWM4_CH4_B9:
            gpio_init(B9, GPO, 0, SPEED_50MHZ|OUT_AF_PP);
            break;
        default:
            //
            break;
    3f7e:	ace5                	j	4276 <pwm_gpio_init+0x35a>
    3f80:	fec42703          	lw	a4,-20(s0)
    3f84:	478d                	li	a5,3
    3f86:	16f70163          	beq	a4,a5,40e8 <pwm_gpio_init+0x1cc>
    3f8a:	fec42703          	lw	a4,-20(s0)
    3f8e:	10000793          	li	a5,256
    3f92:	16f70363          	beq	a4,a5,40f8 <pwm_gpio_init+0x1dc>
    3f96:	a4c5                	j	4276 <pwm_gpio_init+0x35a>
    3f98:	fec42703          	lw	a4,-20(s0)
    3f9c:	11000793          	li	a5,272
    3fa0:	18f70c63          	beq	a4,a5,4138 <pwm_gpio_init+0x21c>
    3fa4:	fec42703          	lw	a4,-20(s0)
    3fa8:	11000793          	li	a5,272
    3fac:	00e7ef63          	bltu	a5,a4,3fca <pwm_gpio_init+0xae>
    3fb0:	fec42703          	lw	a4,-20(s0)
    3fb4:	10200793          	li	a5,258
    3fb8:	16f70063          	beq	a4,a5,4118 <pwm_gpio_init+0x1fc>
    3fbc:	fec42703          	lw	a4,-20(s0)
    3fc0:	10300793          	li	a5,259
    3fc4:	16f70263          	beq	a4,a5,4128 <pwm_gpio_init+0x20c>
    3fc8:	a47d                	j	4276 <pwm_gpio_init+0x35a>
    3fca:	fec42703          	lw	a4,-20(s0)
    3fce:	11200793          	li	a5,274
    3fd2:	18f70463          	beq	a4,a5,415a <pwm_gpio_init+0x23e>
    3fd6:	fec42703          	lw	a4,-20(s0)
    3fda:	11200793          	li	a5,274
    3fde:	16f76563          	bltu	a4,a5,4148 <pwm_gpio_init+0x22c>
    3fe2:	fec42703          	lw	a4,-20(s0)
    3fe6:	11300793          	li	a5,275
    3fea:	18f70163          	beq	a4,a5,416c <pwm_gpio_init+0x250>
    3fee:	a461                	j	4276 <pwm_gpio_init+0x35a>
    3ff0:	fec42703          	lw	a4,-20(s0)
    3ff4:	21300793          	li	a5,531
    3ff8:	20f70063          	beq	a4,a5,41f8 <pwm_gpio_init+0x2dc>
    3ffc:	fec42703          	lw	a4,-20(s0)
    4000:	21300793          	li	a5,531
    4004:	04e7ee63          	bltu	a5,a4,4060 <pwm_gpio_init+0x144>
    4008:	fec42703          	lw	a4,-20(s0)
    400c:	20300793          	li	a5,515
    4010:	1af70063          	beq	a4,a5,41b0 <pwm_gpio_init+0x294>
    4014:	fec42703          	lw	a4,-20(s0)
    4018:	20300793          	li	a5,515
    401c:	00e7ef63          	bltu	a5,a4,403a <pwm_gpio_init+0x11e>
    4020:	fec42703          	lw	a4,-20(s0)
    4024:	20100793          	li	a5,513
    4028:	16f70363          	beq	a4,a5,418e <pwm_gpio_init+0x272>
    402c:	fec42703          	lw	a4,-20(s0)
    4030:	20200793          	li	a5,514
    4034:	16f70563          	beq	a4,a5,419e <pwm_gpio_init+0x282>
    4038:	ac3d                	j	4276 <pwm_gpio_init+0x35a>
    403a:	fec42703          	lw	a4,-20(s0)
    403e:	21100793          	li	a5,529
    4042:	18f70963          	beq	a4,a5,41d4 <pwm_gpio_init+0x2b8>
    4046:	fec42703          	lw	a4,-20(s0)
    404a:	21100793          	li	a5,529
    404e:	18e7ec63          	bltu	a5,a4,41e6 <pwm_gpio_init+0x2ca>
    4052:	fec42703          	lw	a4,-20(s0)
    4056:	21000793          	li	a5,528
    405a:	16f70463          	beq	a4,a5,41c2 <pwm_gpio_init+0x2a6>
    405e:	ac21                	j	4276 <pwm_gpio_init+0x35a>
    4060:	fec42703          	lw	a4,-20(s0)
    4064:	30000793          	li	a5,768
    4068:	1cf70363          	beq	a4,a5,422e <pwm_gpio_init+0x312>
    406c:	fec42703          	lw	a4,-20(s0)
    4070:	30000793          	li	a5,768
    4074:	00e7ef63          	bltu	a5,a4,4092 <pwm_gpio_init+0x176>
    4078:	fec42703          	lw	a4,-20(s0)
    407c:	22000793          	li	a5,544
    4080:	18f70563          	beq	a4,a5,420a <pwm_gpio_init+0x2ee>
    4084:	fec42703          	lw	a4,-20(s0)
    4088:	22100793          	li	a5,545
    408c:	18f70863          	beq	a4,a5,421c <pwm_gpio_init+0x300>
    4090:	a2dd                	j	4276 <pwm_gpio_init+0x35a>
    4092:	fec42703          	lw	a4,-20(s0)
    4096:	30200793          	li	a5,770
    409a:	1af70c63          	beq	a4,a5,4252 <pwm_gpio_init+0x336>
    409e:	fec42703          	lw	a4,-20(s0)
    40a2:	30200793          	li	a5,770
    40a6:	18f76d63          	bltu	a4,a5,4240 <pwm_gpio_init+0x324>
    40aa:	fec42703          	lw	a4,-20(s0)
    40ae:	30300793          	li	a5,771
    40b2:	1af70963          	beq	a4,a5,4264 <pwm_gpio_init+0x348>
    40b6:	a2c1                	j	4276 <pwm_gpio_init+0x35a>
C:\Users\windows\Desktop\A_Dual\A_Dual1\Dual-core_Communication_Demo\Dual-core_Communication_Demo\MASTER\obj/../Libraries/seekfree_libraries/zf_pwm.c:40
            gpio_init(A8, GPO, 0, SPEED_50MHZ|OUT_AF_PP);
    40b8:	31800693          	li	a3,792
    40bc:	4601                	li	a2,0
    40be:	4585                	li	a1,1
    40c0:	4521                	li	a0,8
    40c2:	a71ff0ef          	jal	ra,3b32 <gpio_init>
C:\Users\windows\Desktop\A_Dual\A_Dual1\Dual-core_Communication_Demo\Dual-core_Communication_Demo\MASTER\obj/../Libraries/seekfree_libraries/zf_pwm.c:41
            break;
    40c6:	aa45                	j	4276 <pwm_gpio_init+0x35a>
C:\Users\windows\Desktop\A_Dual\A_Dual1\Dual-core_Communication_Demo\Dual-core_Communication_Demo\MASTER\obj/../Libraries/seekfree_libraries/zf_pwm.c:43
            gpio_init(A9, GPO, 0, SPEED_50MHZ|OUT_AF_PP);
    40c8:	31800693          	li	a3,792
    40cc:	4601                	li	a2,0
    40ce:	4585                	li	a1,1
    40d0:	4525                	li	a0,9
    40d2:	a61ff0ef          	jal	ra,3b32 <gpio_init>
C:\Users\windows\Desktop\A_Dual\A_Dual1\Dual-core_Communication_Demo\Dual-core_Communication_Demo\MASTER\obj/../Libraries/seekfree_libraries/zf_pwm.c:44
            break;
    40d6:	a245                	j	4276 <pwm_gpio_init+0x35a>
C:\Users\windows\Desktop\A_Dual\A_Dual1\Dual-core_Communication_Demo\Dual-core_Communication_Demo\MASTER\obj/../Libraries/seekfree_libraries/zf_pwm.c:46
            gpio_init(A10, GPO, 0, SPEED_50MHZ|OUT_AF_PP);
    40d8:	31800693          	li	a3,792
    40dc:	4601                	li	a2,0
    40de:	4585                	li	a1,1
    40e0:	4529                	li	a0,10
    40e2:	a51ff0ef          	jal	ra,3b32 <gpio_init>
C:\Users\windows\Desktop\A_Dual\A_Dual1\Dual-core_Communication_Demo\Dual-core_Communication_Demo\MASTER\obj/../Libraries/seekfree_libraries/zf_pwm.c:47
            break;
    40e6:	aa41                	j	4276 <pwm_gpio_init+0x35a>
C:\Users\windows\Desktop\A_Dual\A_Dual1\Dual-core_Communication_Demo\Dual-core_Communication_Demo\MASTER\obj/../Libraries/seekfree_libraries/zf_pwm.c:49
            gpio_init(A11, GPO, 0, SPEED_50MHZ|OUT_AF_PP);
    40e8:	31800693          	li	a3,792
    40ec:	4601                	li	a2,0
    40ee:	4585                	li	a1,1
    40f0:	452d                	li	a0,11
    40f2:	a41ff0ef          	jal	ra,3b32 <gpio_init>
C:\Users\windows\Desktop\A_Dual\A_Dual1\Dual-core_Communication_Demo\Dual-core_Communication_Demo\MASTER\obj/../Libraries/seekfree_libraries/zf_pwm.c:50
            break;
    40f6:	a241                	j	4276 <pwm_gpio_init+0x35a>
C:\Users\windows\Desktop\A_Dual\A_Dual1\Dual-core_Communication_Demo\Dual-core_Communication_Demo\MASTER\obj/../Libraries/seekfree_libraries/zf_pwm.c:73
            gpio_init(A0, GPO, 0, SPEED_50MHZ|OUT_AF_PP);
    40f8:	31800693          	li	a3,792
    40fc:	4601                	li	a2,0
    40fe:	4585                	li	a1,1
    4100:	4501                	li	a0,0
    4102:	a31ff0ef          	jal	ra,3b32 <gpio_init>
C:\Users\windows\Desktop\A_Dual\A_Dual1\Dual-core_Communication_Demo\Dual-core_Communication_Demo\MASTER\obj/../Libraries/seekfree_libraries/zf_pwm.c:74
            break;
    4106:	aa85                	j	4276 <pwm_gpio_init+0x35a>
C:\Users\windows\Desktop\A_Dual\A_Dual1\Dual-core_Communication_Demo\Dual-core_Communication_Demo\MASTER\obj/../Libraries/seekfree_libraries/zf_pwm.c:76
            gpio_init(A1, GPO, 0, SPEED_50MHZ|OUT_AF_PP);
    4108:	31800693          	li	a3,792
    410c:	4601                	li	a2,0
    410e:	4585                	li	a1,1
    4110:	4505                	li	a0,1
    4112:	a21ff0ef          	jal	ra,3b32 <gpio_init>
C:\Users\windows\Desktop\A_Dual\A_Dual1\Dual-core_Communication_Demo\Dual-core_Communication_Demo\MASTER\obj/../Libraries/seekfree_libraries/zf_pwm.c:77
            break;
    4116:	a285                	j	4276 <pwm_gpio_init+0x35a>
C:\Users\windows\Desktop\A_Dual\A_Dual1\Dual-core_Communication_Demo\Dual-core_Communication_Demo\MASTER\obj/../Libraries/seekfree_libraries/zf_pwm.c:79
            gpio_init(A2, GPO, 0, SPEED_50MHZ|OUT_AF_PP);
    4118:	31800693          	li	a3,792
    411c:	4601                	li	a2,0
    411e:	4585                	li	a1,1
    4120:	4509                	li	a0,2
    4122:	a11ff0ef          	jal	ra,3b32 <gpio_init>
C:\Users\windows\Desktop\A_Dual\A_Dual1\Dual-core_Communication_Demo\Dual-core_Communication_Demo\MASTER\obj/../Libraries/seekfree_libraries/zf_pwm.c:80
            break;
    4126:	aa81                	j	4276 <pwm_gpio_init+0x35a>
C:\Users\windows\Desktop\A_Dual\A_Dual1\Dual-core_Communication_Demo\Dual-core_Communication_Demo\MASTER\obj/../Libraries/seekfree_libraries/zf_pwm.c:82
            gpio_init(A3, GPO, 0, SPEED_50MHZ|OUT_AF_PP);
    4128:	31800693          	li	a3,792
    412c:	4601                	li	a2,0
    412e:	4585                	li	a1,1
    4130:	450d                	li	a0,3
    4132:	a01ff0ef          	jal	ra,3b32 <gpio_init>
C:\Users\windows\Desktop\A_Dual\A_Dual1\Dual-core_Communication_Demo\Dual-core_Communication_Demo\MASTER\obj/../Libraries/seekfree_libraries/zf_pwm.c:83
            break;
    4136:	a281                	j	4276 <pwm_gpio_init+0x35a>
C:\Users\windows\Desktop\A_Dual\A_Dual1\Dual-core_Communication_Demo\Dual-core_Communication_Demo\MASTER\obj/../Libraries/seekfree_libraries/zf_pwm.c:86
            gpio_init(A15, GPO, 0, SPEED_50MHZ|OUT_AF_PP);
    4138:	31800693          	li	a3,792
    413c:	4601                	li	a2,0
    413e:	4585                	li	a1,1
    4140:	453d                	li	a0,15
    4142:	9f1ff0ef          	jal	ra,3b32 <gpio_init>
C:\Users\windows\Desktop\A_Dual\A_Dual1\Dual-core_Communication_Demo\Dual-core_Communication_Demo\MASTER\obj/../Libraries/seekfree_libraries/zf_pwm.c:87
            break;
    4146:	aa05                	j	4276 <pwm_gpio_init+0x35a>
C:\Users\windows\Desktop\A_Dual\A_Dual1\Dual-core_Communication_Demo\Dual-core_Communication_Demo\MASTER\obj/../Libraries/seekfree_libraries/zf_pwm.c:89
            gpio_init(B3, GPO, 0, SPEED_50MHZ|OUT_AF_PP);
    4148:	31800693          	li	a3,792
    414c:	4601                	li	a2,0
    414e:	4585                	li	a1,1
    4150:	02300513          	li	a0,35
    4154:	9dfff0ef          	jal	ra,3b32 <gpio_init>
C:\Users\windows\Desktop\A_Dual\A_Dual1\Dual-core_Communication_Demo\Dual-core_Communication_Demo\MASTER\obj/../Libraries/seekfree_libraries/zf_pwm.c:90
            break;
    4158:	aa39                	j	4276 <pwm_gpio_init+0x35a>
C:\Users\windows\Desktop\A_Dual\A_Dual1\Dual-core_Communication_Demo\Dual-core_Communication_Demo\MASTER\obj/../Libraries/seekfree_libraries/zf_pwm.c:92
            gpio_init(B10, GPO, 0, SPEED_50MHZ|OUT_AF_PP);
    415a:	31800693          	li	a3,792
    415e:	4601                	li	a2,0
    4160:	4585                	li	a1,1
    4162:	02a00513          	li	a0,42
    4166:	9cdff0ef          	jal	ra,3b32 <gpio_init>
C:\Users\windows\Desktop\A_Dual\A_Dual1\Dual-core_Communication_Demo\Dual-core_Communication_Demo\MASTER\obj/../Libraries/seekfree_libraries/zf_pwm.c:93
            break;
    416a:	a231                	j	4276 <pwm_gpio_init+0x35a>
C:\Users\windows\Desktop\A_Dual\A_Dual1\Dual-core_Communication_Demo\Dual-core_Communication_Demo\MASTER\obj/../Libraries/seekfree_libraries/zf_pwm.c:95
            gpio_init(B11, GPO, 0, SPEED_50MHZ|OUT_AF_PP);
    416c:	31800693          	li	a3,792
    4170:	4601                	li	a2,0
    4172:	4585                	li	a1,1
    4174:	02b00513          	li	a0,43
    4178:	9bbff0ef          	jal	ra,3b32 <gpio_init>
C:\Users\windows\Desktop\A_Dual\A_Dual1\Dual-core_Communication_Demo\Dual-core_Communication_Demo\MASTER\obj/../Libraries/seekfree_libraries/zf_pwm.c:96
            break;
    417c:	a8ed                	j	4276 <pwm_gpio_init+0x35a>
C:\Users\windows\Desktop\A_Dual\A_Dual1\Dual-core_Communication_Demo\Dual-core_Communication_Demo\MASTER\obj/../Libraries/seekfree_libraries/zf_pwm.c:99
            gpio_init(A6, GPO, 0, SPEED_50MHZ|OUT_AF_PP);
    417e:	31800693          	li	a3,792
    4182:	4601                	li	a2,0
    4184:	4585                	li	a1,1
    4186:	4519                	li	a0,6
    4188:	9abff0ef          	jal	ra,3b32 <gpio_init>
C:\Users\windows\Desktop\A_Dual\A_Dual1\Dual-core_Communication_Demo\Dual-core_Communication_Demo\MASTER\obj/../Libraries/seekfree_libraries/zf_pwm.c:100
            break;
    418c:	a0ed                	j	4276 <pwm_gpio_init+0x35a>
C:\Users\windows\Desktop\A_Dual\A_Dual1\Dual-core_Communication_Demo\Dual-core_Communication_Demo\MASTER\obj/../Libraries/seekfree_libraries/zf_pwm.c:102
            gpio_init(A7, GPO, 0, SPEED_50MHZ|OUT_AF_PP);
    418e:	31800693          	li	a3,792
    4192:	4601                	li	a2,0
    4194:	4585                	li	a1,1
    4196:	451d                	li	a0,7
    4198:	99bff0ef          	jal	ra,3b32 <gpio_init>
C:\Users\windows\Desktop\A_Dual\A_Dual1\Dual-core_Communication_Demo\Dual-core_Communication_Demo\MASTER\obj/../Libraries/seekfree_libraries/zf_pwm.c:103
            break;
    419c:	a8e9                	j	4276 <pwm_gpio_init+0x35a>
C:\Users\windows\Desktop\A_Dual\A_Dual1\Dual-core_Communication_Demo\Dual-core_Communication_Demo\MASTER\obj/../Libraries/seekfree_libraries/zf_pwm.c:105
            gpio_init(B0, GPO, 0, SPEED_50MHZ|OUT_AF_PP);
    419e:	31800693          	li	a3,792
    41a2:	4601                	li	a2,0
    41a4:	4585                	li	a1,1
    41a6:	02000513          	li	a0,32
    41aa:	989ff0ef          	jal	ra,3b32 <gpio_init>
C:\Users\windows\Desktop\A_Dual\A_Dual1\Dual-core_Communication_Demo\Dual-core_Communication_Demo\MASTER\obj/../Libraries/seekfree_libraries/zf_pwm.c:106
            break;
    41ae:	a0e1                	j	4276 <pwm_gpio_init+0x35a>
C:\Users\windows\Desktop\A_Dual\A_Dual1\Dual-core_Communication_Demo\Dual-core_Communication_Demo\MASTER\obj/../Libraries/seekfree_libraries/zf_pwm.c:108
            gpio_init(B1, GPO, 0, SPEED_50MHZ|OUT_AF_PP);
    41b0:	31800693          	li	a3,792
    41b4:	4601                	li	a2,0
    41b6:	4585                	li	a1,1
    41b8:	02100513          	li	a0,33
    41bc:	977ff0ef          	jal	ra,3b32 <gpio_init>
C:\Users\windows\Desktop\A_Dual\A_Dual1\Dual-core_Communication_Demo\Dual-core_Communication_Demo\MASTER\obj/../Libraries/seekfree_libraries/zf_pwm.c:109
            break;
    41c0:	a85d                	j	4276 <pwm_gpio_init+0x35a>
C:\Users\windows\Desktop\A_Dual\A_Dual1\Dual-core_Communication_Demo\Dual-core_Communication_Demo\MASTER\obj/../Libraries/seekfree_libraries/zf_pwm.c:112
            gpio_init(C6, GPO, 0, SPEED_50MHZ|OUT_AF_PP);
    41c2:	31800693          	li	a3,792
    41c6:	4601                	li	a2,0
    41c8:	4585                	li	a1,1
    41ca:	04600513          	li	a0,70
    41ce:	965ff0ef          	jal	ra,3b32 <gpio_init>
C:\Users\windows\Desktop\A_Dual\A_Dual1\Dual-core_Communication_Demo\Dual-core_Communication_Demo\MASTER\obj/../Libraries/seekfree_libraries/zf_pwm.c:113
            break;
    41d2:	a055                	j	4276 <pwm_gpio_init+0x35a>
C:\Users\windows\Desktop\A_Dual\A_Dual1\Dual-core_Communication_Demo\Dual-core_Communication_Demo\MASTER\obj/../Libraries/seekfree_libraries/zf_pwm.c:115
            gpio_init(C7, GPO, 0, SPEED_50MHZ|OUT_AF_PP);
    41d4:	31800693          	li	a3,792
    41d8:	4601                	li	a2,0
    41da:	4585                	li	a1,1
    41dc:	04700513          	li	a0,71
    41e0:	953ff0ef          	jal	ra,3b32 <gpio_init>
C:\Users\windows\Desktop\A_Dual\A_Dual1\Dual-core_Communication_Demo\Dual-core_Communication_Demo\MASTER\obj/../Libraries/seekfree_libraries/zf_pwm.c:116
            break;
    41e4:	a849                	j	4276 <pwm_gpio_init+0x35a>
C:\Users\windows\Desktop\A_Dual\A_Dual1\Dual-core_Communication_Demo\Dual-core_Communication_Demo\MASTER\obj/../Libraries/seekfree_libraries/zf_pwm.c:118
            gpio_init(C8, GPO, 0, SPEED_50MHZ|OUT_AF_PP);
    41e6:	31800693          	li	a3,792
    41ea:	4601                	li	a2,0
    41ec:	4585                	li	a1,1
    41ee:	04800513          	li	a0,72
    41f2:	941ff0ef          	jal	ra,3b32 <gpio_init>
C:\Users\windows\Desktop\A_Dual\A_Dual1\Dual-core_Communication_Demo\Dual-core_Communication_Demo\MASTER\obj/../Libraries/seekfree_libraries/zf_pwm.c:119
            break;
    41f6:	a041                	j	4276 <pwm_gpio_init+0x35a>
C:\Users\windows\Desktop\A_Dual\A_Dual1\Dual-core_Communication_Demo\Dual-core_Communication_Demo\MASTER\obj/../Libraries/seekfree_libraries/zf_pwm.c:121
            gpio_init(C9, GPO, 0, SPEED_50MHZ|OUT_AF_PP);
    41f8:	31800693          	li	a3,792
    41fc:	4601                	li	a2,0
    41fe:	4585                	li	a1,1
    4200:	04900513          	li	a0,73
    4204:	92fff0ef          	jal	ra,3b32 <gpio_init>
C:\Users\windows\Desktop\A_Dual\A_Dual1\Dual-core_Communication_Demo\Dual-core_Communication_Demo\MASTER\obj/../Libraries/seekfree_libraries/zf_pwm.c:122
            break;
    4208:	a0bd                	j	4276 <pwm_gpio_init+0x35a>
C:\Users\windows\Desktop\A_Dual\A_Dual1\Dual-core_Communication_Demo\Dual-core_Communication_Demo\MASTER\obj/../Libraries/seekfree_libraries/zf_pwm.c:125
            gpio_init(B4, GPO, 0, SPEED_50MHZ|OUT_AF_PP);
    420a:	31800693          	li	a3,792
    420e:	4601                	li	a2,0
    4210:	4585                	li	a1,1
    4212:	02400513          	li	a0,36
    4216:	91dff0ef          	jal	ra,3b32 <gpio_init>
C:\Users\windows\Desktop\A_Dual\A_Dual1\Dual-core_Communication_Demo\Dual-core_Communication_Demo\MASTER\obj/../Libraries/seekfree_libraries/zf_pwm.c:126
            break;
    421a:	a8b1                	j	4276 <pwm_gpio_init+0x35a>
C:\Users\windows\Desktop\A_Dual\A_Dual1\Dual-core_Communication_Demo\Dual-core_Communication_Demo\MASTER\obj/../Libraries/seekfree_libraries/zf_pwm.c:128
            gpio_init(B5, GPO, 0, SPEED_50MHZ|OUT_AF_PP);
    421c:	31800693          	li	a3,792
    4220:	4601                	li	a2,0
    4222:	4585                	li	a1,1
    4224:	02500513          	li	a0,37
    4228:	90bff0ef          	jal	ra,3b32 <gpio_init>
C:\Users\windows\Desktop\A_Dual\A_Dual1\Dual-core_Communication_Demo\Dual-core_Communication_Demo\MASTER\obj/../Libraries/seekfree_libraries/zf_pwm.c:129
            break;
    422c:	a0a9                	j	4276 <pwm_gpio_init+0x35a>
C:\Users\windows\Desktop\A_Dual\A_Dual1\Dual-core_Communication_Demo\Dual-core_Communication_Demo\MASTER\obj/../Libraries/seekfree_libraries/zf_pwm.c:132
            gpio_init(B6, GPO, 0, SPEED_50MHZ|OUT_AF_PP);
    422e:	31800693          	li	a3,792
    4232:	4601                	li	a2,0
    4234:	4585                	li	a1,1
    4236:	02600513          	li	a0,38
    423a:	8f9ff0ef          	jal	ra,3b32 <gpio_init>
C:\Users\windows\Desktop\A_Dual\A_Dual1\Dual-core_Communication_Demo\Dual-core_Communication_Demo\MASTER\obj/../Libraries/seekfree_libraries/zf_pwm.c:133
            break;
    423e:	a825                	j	4276 <pwm_gpio_init+0x35a>
C:\Users\windows\Desktop\A_Dual\A_Dual1\Dual-core_Communication_Demo\Dual-core_Communication_Demo\MASTER\obj/../Libraries/seekfree_libraries/zf_pwm.c:135
            gpio_init(B7, GPO, 0, SPEED_50MHZ|OUT_AF_PP);
    4240:	31800693          	li	a3,792
    4244:	4601                	li	a2,0
    4246:	4585                	li	a1,1
    4248:	02700513          	li	a0,39
    424c:	8e7ff0ef          	jal	ra,3b32 <gpio_init>
C:\Users\windows\Desktop\A_Dual\A_Dual1\Dual-core_Communication_Demo\Dual-core_Communication_Demo\MASTER\obj/../Libraries/seekfree_libraries/zf_pwm.c:136
            break;
    4250:	a01d                	j	4276 <pwm_gpio_init+0x35a>
C:\Users\windows\Desktop\A_Dual\A_Dual1\Dual-core_Communication_Demo\Dual-core_Communication_Demo\MASTER\obj/../Libraries/seekfree_libraries/zf_pwm.c:138
            gpio_init(B8, GPO, 0, SPEED_50MHZ|OUT_AF_PP);
    4252:	31800693          	li	a3,792
    4256:	4601                	li	a2,0
    4258:	4585                	li	a1,1
    425a:	02800513          	li	a0,40
    425e:	8d5ff0ef          	jal	ra,3b32 <gpio_init>
C:\Users\windows\Desktop\A_Dual\A_Dual1\Dual-core_Communication_Demo\Dual-core_Communication_Demo\MASTER\obj/../Libraries/seekfree_libraries/zf_pwm.c:139
            break;
    4262:	a811                	j	4276 <pwm_gpio_init+0x35a>
C:\Users\windows\Desktop\A_Dual\A_Dual1\Dual-core_Communication_Demo\Dual-core_Communication_Demo\MASTER\obj/../Libraries/seekfree_libraries/zf_pwm.c:141
            gpio_init(B9, GPO, 0, SPEED_50MHZ|OUT_AF_PP);
    4264:	31800693          	li	a3,792
    4268:	4601                	li	a2,0
    426a:	4585                	li	a1,1
    426c:	02900513          	li	a0,41
    4270:	8c3ff0ef          	jal	ra,3b32 <gpio_init>
C:\Users\windows\Desktop\A_Dual\A_Dual1\Dual-core_Communication_Demo\Dual-core_Communication_Demo\MASTER\obj/../Libraries/seekfree_libraries/zf_pwm.c:142
            break;
    4274:	0001                	nop
C:\Users\windows\Desktop\A_Dual\A_Dual1\Dual-core_Communication_Demo\Dual-core_Communication_Demo\MASTER\obj/../Libraries/seekfree_libraries/zf_pwm.c:147
    }
}
    4276:	0001                	nop
    4278:	40f2                	lw	ra,28(sp)
    427a:	4462                	lw	s0,24(sp)
    427c:	6105                	addi	sp,sp,32
    427e:	8082                	ret

00004280 <pwm_init>:
pwm_init():
C:\Users\windows\Desktop\A_Dual\A_Dual1\Dual-core_Communication_Demo\Dual-core_Communication_Demo\MASTER\obj/../Libraries/seekfree_libraries/zf_pwm.c:165
//  @return     void
//  Sample usage:               pwm_init(PWM1_CH1_A8, 50, 5000);   //PWM1 1 A8  PWM50HZ    5000/PWM_DUTY_MAX*100
//                              PWM_DUTY_MAXzf_pwm.h 50000
//-------------------------------------------------------------------------------------------------------------------
void pwm_init(PWMCH_enum pwmch, uint32 freq, uint32 duty)
{
    4280:	7139                	addi	sp,sp,-64
    4282:	de06                	sw	ra,60(sp)
    4284:	dc22                	sw	s0,56(sp)
    4286:	0080                	addi	s0,sp,64
    4288:	fca42623          	sw	a0,-52(s0)
    428c:	fcb42423          	sw	a1,-56(s0)
    4290:	fcc42223          	sw	a2,-60(s0)
C:\Users\windows\Desktop\A_Dual\A_Dual1\Dual-core_Communication_Demo\Dual-core_Communication_Demo\MASTER\obj/../Libraries/seekfree_libraries/zf_pwm.c:170
    TIM_TimeBaseInitTypeDef  TIM_TimeBaseStructure;
    TIM_OCInitTypeDef  TIM_OCInitStructure;
    uint16 match_temp;                                          //
    uint16 period_temp;                                         //
    uint16 freq_div = 0;                                        //
    4294:	fe041723          	sh	zero,-18(s0)
C:\Users\windows\Desktop\A_Dual\A_Dual1\Dual-core_Communication_Demo\Dual-core_Communication_Demo\MASTER\obj/../Libraries/seekfree_libraries/zf_pwm.c:172

    pwm_gpio_init(pwmch);                                       //PWM
    4298:	fcc42503          	lw	a0,-52(s0)
    429c:	c81ff0ef          	jal	ra,3f1c <pwm_gpio_init>
C:\Users\windows\Desktop\A_Dual\A_Dual1\Dual-core_Communication_Demo\Dual-core_Communication_Demo\MASTER\obj/../Libraries/seekfree_libraries/zf_pwm.c:174

    if((pwmch >> 8) == 0x00)
    42a0:	fcc42783          	lw	a5,-52(s0)
    42a4:	83a1                	srli	a5,a5,0x8
    42a6:	eb81                	bnez	a5,42b6 <pwm_init+0x36>
C:\Users\windows\Desktop\A_Dual\A_Dual1\Dual-core_Communication_Demo\Dual-core_Communication_Demo\MASTER\obj/../Libraries/seekfree_libraries/zf_pwm.c:175
        RCC_APB2PeriphClockCmd(RCC_APB2Periph_TIM1, ENABLE);    //1
    42a8:	4585                	li	a1,1
    42aa:	6785                	lui	a5,0x1
    42ac:	80078513          	addi	a0,a5,-2048 # 800 <__stack_size>
    42b0:	ad2fd0ef          	jal	ra,1582 <RCC_APB2PeriphClockCmd>
    42b4:	a0a1                	j	42fc <pwm_init+0x7c>
C:\Users\windows\Desktop\A_Dual\A_Dual1\Dual-core_Communication_Demo\Dual-core_Communication_Demo\MASTER\obj/../Libraries/seekfree_libraries/zf_pwm.c:176
    else if((pwmch >> 8) == 0x01)
    42b6:	fcc42783          	lw	a5,-52(s0)
    42ba:	0087d713          	srli	a4,a5,0x8
    42be:	4785                	li	a5,1
    42c0:	00f71763          	bne	a4,a5,42ce <pwm_init+0x4e>
C:\Users\windows\Desktop\A_Dual\A_Dual1\Dual-core_Communication_Demo\Dual-core_Communication_Demo\MASTER\obj/../Libraries/seekfree_libraries/zf_pwm.c:177
        RCC_APB1PeriphClockCmd(RCC_APB1Periph_TIM2, ENABLE);    //2
    42c4:	4585                	li	a1,1
    42c6:	4505                	li	a0,1
    42c8:	b00fd0ef          	jal	ra,15c8 <RCC_APB1PeriphClockCmd>
    42cc:	a805                	j	42fc <pwm_init+0x7c>
C:\Users\windows\Desktop\A_Dual\A_Dual1\Dual-core_Communication_Demo\Dual-core_Communication_Demo\MASTER\obj/../Libraries/seekfree_libraries/zf_pwm.c:178
    else if((pwmch >> 8) == 0x02)
    42ce:	fcc42783          	lw	a5,-52(s0)
    42d2:	0087d713          	srli	a4,a5,0x8
    42d6:	4789                	li	a5,2
    42d8:	00f71763          	bne	a4,a5,42e6 <pwm_init+0x66>
C:\Users\windows\Desktop\A_Dual\A_Dual1\Dual-core_Communication_Demo\Dual-core_Communication_Demo\MASTER\obj/../Libraries/seekfree_libraries/zf_pwm.c:179
        RCC_APB1PeriphClockCmd(RCC_APB1Periph_TIM3, ENABLE);    //3
    42dc:	4585                	li	a1,1
    42de:	4509                	li	a0,2
    42e0:	ae8fd0ef          	jal	ra,15c8 <RCC_APB1PeriphClockCmd>
    42e4:	a821                	j	42fc <pwm_init+0x7c>
C:\Users\windows\Desktop\A_Dual\A_Dual1\Dual-core_Communication_Demo\Dual-core_Communication_Demo\MASTER\obj/../Libraries/seekfree_libraries/zf_pwm.c:180
    else if((pwmch >> 8) == 0x03)
    42e6:	fcc42783          	lw	a5,-52(s0)
    42ea:	0087d713          	srli	a4,a5,0x8
    42ee:	478d                	li	a5,3
    42f0:	00f71663          	bne	a4,a5,42fc <pwm_init+0x7c>
C:\Users\windows\Desktop\A_Dual\A_Dual1\Dual-core_Communication_Demo\Dual-core_Communication_Demo\MASTER\obj/../Libraries/seekfree_libraries/zf_pwm.c:181
        RCC_APB1PeriphClockCmd(RCC_APB1Periph_TIM4, ENABLE);    //4
    42f4:	4585                	li	a1,1
    42f6:	4511                	li	a0,4
    42f8:	ad0fd0ef          	jal	ra,15c8 <RCC_APB1PeriphClockCmd>
C:\Users\windows\Desktop\A_Dual\A_Dual1\Dual-core_Communication_Demo\Dual-core_Communication_Demo\MASTER\obj/../Libraries/seekfree_libraries/zf_pwm.c:183

    RCC_APB2PeriphClockCmd(RCC_APB2Periph_AFIO, ENABLE);        //AFIO
    42fc:	4585                	li	a1,1
    42fe:	4505                	li	a0,1
    4300:	a82fd0ef          	jal	ra,1582 <RCC_APB2PeriphClockCmd>
C:\Users\windows\Desktop\A_Dual\A_Dual1\Dual-core_Communication_Demo\Dual-core_Communication_Demo\MASTER\obj/../Libraries/seekfree_libraries/zf_pwm.c:186

    //
    if((pwmch >> 4) == 0x10)        //PWM1
    4304:	fcc42783          	lw	a5,-52(s0)
    4308:	0047d713          	srli	a4,a5,0x4
    430c:	47c1                	li	a5,16
    430e:	00f71a63          	bne	a4,a5,4322 <pwm_init+0xa2>
C:\Users\windows\Desktop\A_Dual\A_Dual1\Dual-core_Communication_Demo\Dual-core_Communication_Demo\MASTER\obj/../Libraries/seekfree_libraries/zf_pwm.c:187
        GPIO_PinRemapConfig(GPIO_PartialRemap_TIM1, ENABLE);
    4312:	4585                	li	a1,1
    4314:	001607b7          	lui	a5,0x160
    4318:	04078513          	addi	a0,a5,64 # 160040 <_data_lma+0x156954>
    431c:	d1dfc0ef          	jal	ra,1038 <GPIO_PinRemapConfig>
    4320:	a8b9                	j	437e <pwm_init+0xfe>
C:\Users\windows\Desktop\A_Dual\A_Dual1\Dual-core_Communication_Demo\Dual-core_Communication_Demo\MASTER\obj/../Libraries/seekfree_libraries/zf_pwm.c:188
    else if((pwmch >> 4) == 0x11)   //PWM2
    4322:	fcc42783          	lw	a5,-52(s0)
    4326:	0047d713          	srli	a4,a5,0x4
    432a:	47c5                	li	a5,17
    432c:	00f71a63          	bne	a4,a5,4340 <pwm_init+0xc0>
C:\Users\windows\Desktop\A_Dual\A_Dual1\Dual-core_Communication_Demo\Dual-core_Communication_Demo\MASTER\obj/../Libraries/seekfree_libraries/zf_pwm.c:189
        GPIO_PinRemapConfig(GPIO_FullRemap_TIM2, ENABLE);
    4330:	4585                	li	a1,1
    4332:	001807b7          	lui	a5,0x180
    4336:	30078513          	addi	a0,a5,768 # 180300 <_data_lma+0x176c14>
    433a:	cfffc0ef          	jal	ra,1038 <GPIO_PinRemapConfig>
    433e:	a081                	j	437e <pwm_init+0xfe>
C:\Users\windows\Desktop\A_Dual\A_Dual1\Dual-core_Communication_Demo\Dual-core_Communication_Demo\MASTER\obj/../Libraries/seekfree_libraries/zf_pwm.c:190
    else if((pwmch >> 4) == 0x21)   //PWM3
    4340:	fcc42783          	lw	a5,-52(s0)
    4344:	0047d713          	srli	a4,a5,0x4
    4348:	02100793          	li	a5,33
    434c:	00f71a63          	bne	a4,a5,4360 <pwm_init+0xe0>
C:\Users\windows\Desktop\A_Dual\A_Dual1\Dual-core_Communication_Demo\Dual-core_Communication_Demo\MASTER\obj/../Libraries/seekfree_libraries/zf_pwm.c:191
        GPIO_PinRemapConfig(GPIO_FullRemap_TIM3, ENABLE);
    4350:	4585                	li	a1,1
    4352:	001a17b7          	lui	a5,0x1a1
    4356:	c0078513          	addi	a0,a5,-1024 # 1a0c00 <_data_lma+0x197514>
    435a:	cdffc0ef          	jal	ra,1038 <GPIO_PinRemapConfig>
    435e:	a005                	j	437e <pwm_init+0xfe>
C:\Users\windows\Desktop\A_Dual\A_Dual1\Dual-core_Communication_Demo\Dual-core_Communication_Demo\MASTER\obj/../Libraries/seekfree_libraries/zf_pwm.c:192
    else if((pwmch >> 4) == 0x22)   //PWM3
    4360:	fcc42783          	lw	a5,-52(s0)
    4364:	0047d713          	srli	a4,a5,0x4
    4368:	02200793          	li	a5,34
    436c:	00f71963          	bne	a4,a5,437e <pwm_init+0xfe>
C:\Users\windows\Desktop\A_Dual\A_Dual1\Dual-core_Communication_Demo\Dual-core_Communication_Demo\MASTER\obj/../Libraries/seekfree_libraries/zf_pwm.c:193
        GPIO_PinRemapConfig(GPIO_PartialRemap_TIM3, ENABLE);
    4370:	4585                	li	a1,1
    4372:	001a17b7          	lui	a5,0x1a1
    4376:	80078513          	addi	a0,a5,-2048 # 1a0800 <_data_lma+0x197114>
    437a:	cbffc0ef          	jal	ra,1038 <GPIO_PinRemapConfig>
C:\Users\windows\Desktop\A_Dual\A_Dual1\Dual-core_Communication_Demo\Dual-core_Communication_Demo\MASTER\obj/../Libraries/seekfree_libraries/zf_pwm.c:196

    //
    sys_clk = 8000000 * (((RCC->CFGR0 >> 18)&0x0F) + 2);
    437e:	400217b7          	lui	a5,0x40021
    4382:	43dc                	lw	a5,4(a5)
    4384:	83c9                	srli	a5,a5,0x12
    4386:	00f7f713          	andi	a4,a5,15
    438a:	007a17b7          	lui	a5,0x7a1
    438e:	20078793          	addi	a5,a5,512 # 7a1200 <_data_lma+0x797b14>
    4392:	02f70733          	mul	a4,a4,a5
    4396:	00f427b7          	lui	a5,0xf42
    439a:	40078793          	addi	a5,a5,1024 # f42400 <_data_lma+0xf38d14>
    439e:	973e                	add	a4,a4,a5
    43a0:	82e1ac23          	sw	a4,-1992(gp) # 200000a8 <sys_clk>
C:\Users\windows\Desktop\A_Dual\A_Dual1\Dual-core_Communication_Demo\Dual-core_Communication_Demo\MASTER\obj/../Libraries/seekfree_libraries/zf_pwm.c:198

    freq_div = (uint16)((sys_clk / freq) >> 16);                            //
    43a4:	8381a703          	lw	a4,-1992(gp) # 200000a8 <sys_clk>
    43a8:	fc842783          	lw	a5,-56(s0)
    43ac:	02f757b3          	divu	a5,a4,a5
    43b0:	83c1                	srli	a5,a5,0x10
    43b2:	fef41723          	sh	a5,-18(s0)
C:\Users\windows\Desktop\A_Dual\A_Dual1\Dual-core_Communication_Demo\Dual-core_Communication_Demo\MASTER\obj/../Libraries/seekfree_libraries/zf_pwm.c:199
    period_temp = (uint16)(sys_clk/(freq*(freq_div + 1)));                  //
    43b6:	8381a703          	lw	a4,-1992(gp) # 200000a8 <sys_clk>
    43ba:	fee45783          	lhu	a5,-18(s0)
    43be:	0785                	addi	a5,a5,1
    43c0:	86be                	mv	a3,a5
    43c2:	fc842783          	lw	a5,-56(s0)
    43c6:	02f687b3          	mul	a5,a3,a5
    43ca:	02f757b3          	divu	a5,a4,a5
    43ce:	fef41623          	sh	a5,-20(s0)
C:\Users\windows\Desktop\A_Dual\A_Dual1\Dual-core_Communication_Demo\Dual-core_Communication_Demo\MASTER\obj/../Libraries/seekfree_libraries/zf_pwm.c:200
    match_temp = period_temp * duty / PWM_DUTY_MAX;                         //
    43d2:	fec45703          	lhu	a4,-20(s0)
    43d6:	fc442783          	lw	a5,-60(s0)
    43da:	02f70733          	mul	a4,a4,a5
    43de:	6789                	lui	a5,0x2
    43e0:	71078793          	addi	a5,a5,1808 # 2710 <USART_ReceiveData+0x16>
    43e4:	02f757b3          	divu	a5,a4,a5
    43e8:	fef41523          	sh	a5,-22(s0)
C:\Users\windows\Desktop\A_Dual\A_Dual1\Dual-core_Communication_Demo\Dual-core_Communication_Demo\MASTER\obj/../Libraries/seekfree_libraries/zf_pwm.c:203

    //TIM1-4
    TIM_TimeBaseStructure.TIM_Period = period_temp - 1;                     //
    43ec:	fec45783          	lhu	a5,-20(s0)
    43f0:	17fd                	addi	a5,a5,-1
    43f2:	07c2                	slli	a5,a5,0x10
    43f4:	83c1                	srli	a5,a5,0x10
    43f6:	fef41223          	sh	a5,-28(s0)
C:\Users\windows\Desktop\A_Dual\A_Dual1\Dual-core_Communication_Demo\Dual-core_Communication_Demo\MASTER\obj/../Libraries/seekfree_libraries/zf_pwm.c:204
    TIM_TimeBaseStructure.TIM_Prescaler = freq_div;                         //TIMx
    43fa:	fee45783          	lhu	a5,-18(s0)
    43fe:	fef41023          	sh	a5,-32(s0)
C:\Users\windows\Desktop\A_Dual\A_Dual1\Dual-core_Communication_Demo\Dual-core_Communication_Demo\MASTER\obj/../Libraries/seekfree_libraries/zf_pwm.c:205
    TIM_TimeBaseStructure.TIM_ClockDivision = TIM_CKD_DIV1;                 //:TDTS = Tck_tim
    4402:	fe041323          	sh	zero,-26(s0)
C:\Users\windows\Desktop\A_Dual\A_Dual1\Dual-core_Communication_Demo\Dual-core_Communication_Demo\MASTER\obj/../Libraries/seekfree_libraries/zf_pwm.c:206
    TIM_TimeBaseStructure.TIM_CounterMode = TIM_CounterMode_Up;             //TIM
    4406:	fe041123          	sh	zero,-30(s0)
C:\Users\windows\Desktop\A_Dual\A_Dual1\Dual-core_Communication_Demo\Dual-core_Communication_Demo\MASTER\obj/../Libraries/seekfree_libraries/zf_pwm.c:207
    TIM_TimeBaseStructure.TIM_RepetitionCounter = 0;
    440a:	fe040423          	sb	zero,-24(s0)
C:\Users\windows\Desktop\A_Dual\A_Dual1\Dual-core_Communication_Demo\Dual-core_Communication_Demo\MASTER\obj/../Libraries/seekfree_libraries/zf_pwm.c:210

    //TIM1-4 PWM
    TIM_OCInitStructure.TIM_OCMode = TIM_OCMode_PWM2;                       //:TIM2
    440e:	07000793          	li	a5,112
    4412:	fcf41823          	sh	a5,-48(s0)
C:\Users\windows\Desktop\A_Dual\A_Dual1\Dual-core_Communication_Demo\Dual-core_Communication_Demo\MASTER\obj/../Libraries/seekfree_libraries/zf_pwm.c:211
    TIM_OCInitStructure.TIM_OutputState = TIM_OutputState_Enable;           //
    4416:	4785                	li	a5,1
    4418:	fcf41923          	sh	a5,-46(s0)
C:\Users\windows\Desktop\A_Dual\A_Dual1\Dual-core_Communication_Demo\Dual-core_Communication_Demo\MASTER\obj/../Libraries/seekfree_libraries/zf_pwm.c:212
    TIM_OCInitStructure.TIM_OutputNState = TIM_OutputState_Disable;
    441c:	fc041a23          	sh	zero,-44(s0)
C:\Users\windows\Desktop\A_Dual\A_Dual1\Dual-core_Communication_Demo\Dual-core_Communication_Demo\MASTER\obj/../Libraries/seekfree_libraries/zf_pwm.c:213
    TIM_OCInitStructure.TIM_Pulse = match_temp;
    4420:	fea45783          	lhu	a5,-22(s0)
    4424:	fcf41b23          	sh	a5,-42(s0)
C:\Users\windows\Desktop\A_Dual\A_Dual1\Dual-core_Communication_Demo\Dual-core_Communication_Demo\MASTER\obj/../Libraries/seekfree_libraries/zf_pwm.c:214
    TIM_OCInitStructure.TIM_OCPolarity = TIM_OCPolarity_Low;                //:TIM
    4428:	4789                	li	a5,2
    442a:	fcf41c23          	sh	a5,-40(s0)
C:\Users\windows\Desktop\A_Dual\A_Dual1\Dual-core_Communication_Demo\Dual-core_Communication_Demo\MASTER\obj/../Libraries/seekfree_libraries/zf_pwm.c:215
    TIM_OCInitStructure.TIM_OCNPolarity = TIM_OCPolarity_Low;               //:TIM
    442e:	4789                	li	a5,2
    4430:	fcf41d23          	sh	a5,-38(s0)
C:\Users\windows\Desktop\A_Dual\A_Dual1\Dual-core_Communication_Demo\Dual-core_Communication_Demo\MASTER\obj/../Libraries/seekfree_libraries/zf_pwm.c:216
    TIM_OCInitStructure.TIM_OCIdleState = TIM_OCIdleState_Reset;
    4434:	fc041e23          	sh	zero,-36(s0)
C:\Users\windows\Desktop\A_Dual\A_Dual1\Dual-core_Communication_Demo\Dual-core_Communication_Demo\MASTER\obj/../Libraries/seekfree_libraries/zf_pwm.c:217
    TIM_OCInitStructure.TIM_OCNIdleState = TIM_OCIdleState_Reset;
    4438:	fc041f23          	sh	zero,-34(s0)
C:\Users\windows\Desktop\A_Dual\A_Dual1\Dual-core_Communication_Demo\Dual-core_Communication_Demo\MASTER\obj/../Libraries/seekfree_libraries/zf_pwm.c:221



    TIM_TimeBaseInit(((TIM_TypeDef *) TIMERN[pwmch>>8]), &TIM_TimeBaseStructure);  //TIM_TimeBaseInitStructTIMx
    443c:	fcc42783          	lw	a5,-52(s0)
    4440:	0087d713          	srli	a4,a5,0x8
    4444:	67a5                	lui	a5,0x9
    4446:	070a                	slli	a4,a4,0x2
    4448:	46078793          	addi	a5,a5,1120 # 9460 <TIMERN>
    444c:	97ba                	add	a5,a5,a4
    444e:	439c                	lw	a5,0(a5)
    4450:	873e                	mv	a4,a5
    4452:	fe040793          	addi	a5,s0,-32
    4456:	85be                	mv	a1,a5
    4458:	853a                	mv	a0,a4
    445a:	b06fd0ef          	jal	ra,1760 <TIM_TimeBaseInit>
C:\Users\windows\Desktop\A_Dual\A_Dual1\Dual-core_Communication_Demo\Dual-core_Communication_Demo\MASTER\obj/../Libraries/seekfree_libraries/zf_pwm.c:231
//        {
//            TIM_OCInitStructure.TIM_OutputState = TIM_OutputState_Enable;   //P
//            TIM_OCInitStructure.TIM_OutputNState = TIM_OutputState_Enable;  //N
//        }

    if((pwmch & 0x03) == 0x00)                                          //
    445e:	fcc42783          	lw	a5,-52(s0)
    4462:	8b8d                	andi	a5,a5,3
    4464:	efb9                	bnez	a5,44c2 <pwm_init+0x242>
C:\Users\windows\Desktop\A_Dual\A_Dual1\Dual-core_Communication_Demo\Dual-core_Communication_Demo\MASTER\obj/../Libraries/seekfree_libraries/zf_pwm.c:233
    {
        TIM_OC1Init(((TIM_TypeDef *) TIMERN[pwmch>>8]), &TIM_OCInitStructure );                       //1
    4466:	fcc42783          	lw	a5,-52(s0)
    446a:	0087d713          	srli	a4,a5,0x8
    446e:	67a5                	lui	a5,0x9
    4470:	070a                	slli	a4,a4,0x2
    4472:	46078793          	addi	a5,a5,1120 # 9460 <TIMERN>
    4476:	97ba                	add	a5,a5,a4
    4478:	439c                	lw	a5,0(a5)
    447a:	873e                	mv	a4,a5
    447c:	fd040793          	addi	a5,s0,-48
    4480:	85be                	mv	a1,a5
    4482:	853a                	mv	a0,a4
    4484:	bd6fd0ef          	jal	ra,185a <TIM_OC1Init>
C:\Users\windows\Desktop\A_Dual\A_Dual1\Dual-core_Communication_Demo\Dual-core_Communication_Demo\MASTER\obj/../Libraries/seekfree_libraries/zf_pwm.c:234
        TIM_OC1PreloadConfig(((TIM_TypeDef *) TIMERN[pwmch>>8]), TIM_OCPreload_Enable);               //
    4488:	fcc42783          	lw	a5,-52(s0)
    448c:	0087d713          	srli	a4,a5,0x8
    4490:	67a5                	lui	a5,0x9
    4492:	070a                	slli	a4,a4,0x2
    4494:	46078793          	addi	a5,a5,1120 # 9460 <TIMERN>
    4498:	97ba                	add	a5,a5,a4
    449a:	439c                	lw	a5,0(a5)
    449c:	45a1                	li	a1,8
    449e:	853e                	mv	a0,a5
    44a0:	ba7fd0ef          	jal	ra,2046 <TIM_OC1PreloadConfig>
C:\Users\windows\Desktop\A_Dual\A_Dual1\Dual-core_Communication_Demo\Dual-core_Communication_Demo\MASTER\obj/../Libraries/seekfree_libraries/zf_pwm.c:235
        TIM_OC1FastConfig(((TIM_TypeDef *) TIMERN[pwmch>>8]), TIM_OC1FE);                             //
    44a4:	fcc42783          	lw	a5,-52(s0)
    44a8:	0087d713          	srli	a4,a5,0x8
    44ac:	67a5                	lui	a5,0x9
    44ae:	070a                	slli	a4,a4,0x2
    44b0:	46078793          	addi	a5,a5,1120 # 9460 <TIMERN>
    44b4:	97ba                	add	a5,a5,a4
    44b6:	439c                	lw	a5,0(a5)
    44b8:	4591                	li	a1,4
    44ba:	853e                	mv	a0,a5
    44bc:	cd7fd0ef          	jal	ra,2192 <TIM_OC1FastConfig>
    44c0:	a289                	j	4602 <pwm_init+0x382>
C:\Users\windows\Desktop\A_Dual\A_Dual1\Dual-core_Communication_Demo\Dual-core_Communication_Demo\MASTER\obj/../Libraries/seekfree_libraries/zf_pwm.c:237
    }
    else if((pwmch & 0x03) == 0x01)
    44c2:	fcc42783          	lw	a5,-52(s0)
    44c6:	0037f713          	andi	a4,a5,3
    44ca:	4785                	li	a5,1
    44cc:	06f71163          	bne	a4,a5,452e <pwm_init+0x2ae>
C:\Users\windows\Desktop\A_Dual\A_Dual1\Dual-core_Communication_Demo\Dual-core_Communication_Demo\MASTER\obj/../Libraries/seekfree_libraries/zf_pwm.c:239
    {
        TIM_OC2Init(((TIM_TypeDef *) TIMERN[pwmch>>8]), &TIM_OCInitStructure );
    44d0:	fcc42783          	lw	a5,-52(s0)
    44d4:	0087d713          	srli	a4,a5,0x8
    44d8:	67a5                	lui	a5,0x9
    44da:	070a                	slli	a4,a4,0x2
    44dc:	46078793          	addi	a5,a5,1120 # 9460 <TIMERN>
    44e0:	97ba                	add	a5,a5,a4
    44e2:	439c                	lw	a5,0(a5)
    44e4:	873e                	mv	a4,a5
    44e6:	fd040793          	addi	a5,s0,-48
    44ea:	85be                	mv	a1,a5
    44ec:	853a                	mv	a0,a4
    44ee:	cdcfd0ef          	jal	ra,19ca <TIM_OC2Init>
C:\Users\windows\Desktop\A_Dual\A_Dual1\Dual-core_Communication_Demo\Dual-core_Communication_Demo\MASTER\obj/../Libraries/seekfree_libraries/zf_pwm.c:240
        TIM_OC2PreloadConfig(((TIM_TypeDef *) TIMERN[pwmch>>8]), TIM_OCPreload_Enable);
    44f2:	fcc42783          	lw	a5,-52(s0)
    44f6:	0087d713          	srli	a4,a5,0x8
    44fa:	67a5                	lui	a5,0x9
    44fc:	070a                	slli	a4,a4,0x2
    44fe:	46078793          	addi	a5,a5,1120 # 9460 <TIMERN>
    4502:	97ba                	add	a5,a5,a4
    4504:	439c                	lw	a5,0(a5)
    4506:	45a1                	li	a1,8
    4508:	853e                	mv	a0,a5
    450a:	b89fd0ef          	jal	ra,2092 <TIM_OC2PreloadConfig>
C:\Users\windows\Desktop\A_Dual\A_Dual1\Dual-core_Communication_Demo\Dual-core_Communication_Demo\MASTER\obj/../Libraries/seekfree_libraries/zf_pwm.c:241
        TIM_OC2FastConfig(((TIM_TypeDef *) TIMERN[pwmch>>8]), TIM_OC2FE);                             //
    450e:	fcc42783          	lw	a5,-52(s0)
    4512:	0087d713          	srli	a4,a5,0x8
    4516:	67a5                	lui	a5,0x9
    4518:	070a                	slli	a4,a4,0x2
    451a:	46078793          	addi	a5,a5,1120 # 9460 <TIMERN>
    451e:	97ba                	add	a5,a5,a4
    4520:	439c                	lw	a5,0(a5)
    4522:	40000593          	li	a1,1024
    4526:	853e                	mv	a0,a5
    4528:	cb7fd0ef          	jal	ra,21de <TIM_OC2FastConfig>
    452c:	a8d9                	j	4602 <pwm_init+0x382>
C:\Users\windows\Desktop\A_Dual\A_Dual1\Dual-core_Communication_Demo\Dual-core_Communication_Demo\MASTER\obj/../Libraries/seekfree_libraries/zf_pwm.c:243
    }
    else if((pwmch & 0x03) == 0x02)
    452e:	fcc42783          	lw	a5,-52(s0)
    4532:	0037f713          	andi	a4,a5,3
    4536:	4789                	li	a5,2
    4538:	06f71063          	bne	a4,a5,4598 <pwm_init+0x318>
C:\Users\windows\Desktop\A_Dual\A_Dual1\Dual-core_Communication_Demo\Dual-core_Communication_Demo\MASTER\obj/../Libraries/seekfree_libraries/zf_pwm.c:245
    {
        TIM_OC3Init(((TIM_TypeDef *) TIMERN[pwmch>>8]), &TIM_OCInitStructure );
    453c:	fcc42783          	lw	a5,-52(s0)
    4540:	0087d713          	srli	a4,a5,0x8
    4544:	67a5                	lui	a5,0x9
    4546:	070a                	slli	a4,a4,0x2
    4548:	46078793          	addi	a5,a5,1120 # 9460 <TIMERN>
    454c:	97ba                	add	a5,a5,a4
    454e:	439c                	lw	a5,0(a5)
    4550:	873e                	mv	a4,a5
    4552:	fd040793          	addi	a5,s0,-48
    4556:	85be                	mv	a1,a5
    4558:	853a                	mv	a0,a4
    455a:	e26fd0ef          	jal	ra,1b80 <TIM_OC3Init>
C:\Users\windows\Desktop\A_Dual\A_Dual1\Dual-core_Communication_Demo\Dual-core_Communication_Demo\MASTER\obj/../Libraries/seekfree_libraries/zf_pwm.c:246
        TIM_OC3PreloadConfig(((TIM_TypeDef *) TIMERN[pwmch>>8]), TIM_OCPreload_Enable);
    455e:	fcc42783          	lw	a5,-52(s0)
    4562:	0087d713          	srli	a4,a5,0x8
    4566:	67a5                	lui	a5,0x9
    4568:	070a                	slli	a4,a4,0x2
    456a:	46078793          	addi	a5,a5,1120 # 9460 <TIMERN>
    456e:	97ba                	add	a5,a5,a4
    4570:	439c                	lw	a5,0(a5)
    4572:	45a1                	li	a1,8
    4574:	853e                	mv	a0,a5
    4576:	b77fd0ef          	jal	ra,20ec <TIM_OC3PreloadConfig>
C:\Users\windows\Desktop\A_Dual\A_Dual1\Dual-core_Communication_Demo\Dual-core_Communication_Demo\MASTER\obj/../Libraries/seekfree_libraries/zf_pwm.c:247
        TIM_OC3FastConfig(((TIM_TypeDef *) TIMERN[pwmch>>8]), TIM_OC3FE);                             //
    457a:	fcc42783          	lw	a5,-52(s0)
    457e:	0087d713          	srli	a4,a5,0x8
    4582:	67a5                	lui	a5,0x9
    4584:	070a                	slli	a4,a4,0x2
    4586:	46078793          	addi	a5,a5,1120 # 9460 <TIMERN>
    458a:	97ba                	add	a5,a5,a4
    458c:	439c                	lw	a5,0(a5)
    458e:	4591                	li	a1,4
    4590:	853e                	mv	a0,a5
    4592:	ca3fd0ef          	jal	ra,2234 <TIM_OC3FastConfig>
    4596:	a0b5                	j	4602 <pwm_init+0x382>
C:\Users\windows\Desktop\A_Dual\A_Dual1\Dual-core_Communication_Demo\Dual-core_Communication_Demo\MASTER\obj/../Libraries/seekfree_libraries/zf_pwm.c:249
    }
    else if((pwmch & 0x03) == 0x03)
    4598:	fcc42783          	lw	a5,-52(s0)
    459c:	0037f713          	andi	a4,a5,3
    45a0:	478d                	li	a5,3
    45a2:	06f71063          	bne	a4,a5,4602 <pwm_init+0x382>
C:\Users\windows\Desktop\A_Dual\A_Dual1\Dual-core_Communication_Demo\Dual-core_Communication_Demo\MASTER\obj/../Libraries/seekfree_libraries/zf_pwm.c:251
    {
        TIM_OC4Init(((TIM_TypeDef *) TIMERN[pwmch>>8]), &TIM_OCInitStructure );
    45a6:	fcc42783          	lw	a5,-52(s0)
    45aa:	0087d713          	srli	a4,a5,0x8
    45ae:	67a5                	lui	a5,0x9
    45b0:	070a                	slli	a4,a4,0x2
    45b2:	46078793          	addi	a5,a5,1120 # 9460 <TIMERN>
    45b6:	97ba                	add	a5,a5,a4
    45b8:	439c                	lw	a5,0(a5)
    45ba:	873e                	mv	a4,a5
    45bc:	fd040793          	addi	a5,s0,-48
    45c0:	85be                	mv	a1,a5
    45c2:	853a                	mv	a0,a4
    45c4:	f6cfd0ef          	jal	ra,1d30 <TIM_OC4Init>
C:\Users\windows\Desktop\A_Dual\A_Dual1\Dual-core_Communication_Demo\Dual-core_Communication_Demo\MASTER\obj/../Libraries/seekfree_libraries/zf_pwm.c:252
        TIM_OC4PreloadConfig(((TIM_TypeDef *) TIMERN[pwmch>>8]), TIM_OCPreload_Enable);
    45c8:	fcc42783          	lw	a5,-52(s0)
    45cc:	0087d713          	srli	a4,a5,0x8
    45d0:	67a5                	lui	a5,0x9
    45d2:	070a                	slli	a4,a4,0x2
    45d4:	46078793          	addi	a5,a5,1120 # 9460 <TIMERN>
    45d8:	97ba                	add	a5,a5,a4
    45da:	439c                	lw	a5,0(a5)
    45dc:	45a1                	li	a1,8
    45de:	853e                	mv	a0,a5
    45e0:	b59fd0ef          	jal	ra,2138 <TIM_OC4PreloadConfig>
C:\Users\windows\Desktop\A_Dual\A_Dual1\Dual-core_Communication_Demo\Dual-core_Communication_Demo\MASTER\obj/../Libraries/seekfree_libraries/zf_pwm.c:253
        TIM_OC4FastConfig(((TIM_TypeDef *) TIMERN[pwmch>>8]), TIM_OC4FE);                             //
    45e4:	fcc42783          	lw	a5,-52(s0)
    45e8:	0087d713          	srli	a4,a5,0x8
    45ec:	67a5                	lui	a5,0x9
    45ee:	070a                	slli	a4,a4,0x2
    45f0:	46078793          	addi	a5,a5,1120 # 9460 <TIMERN>
    45f4:	97ba                	add	a5,a5,a4
    45f6:	439c                	lw	a5,0(a5)
    45f8:	40000593          	li	a1,1024
    45fc:	853e                	mv	a0,a5
    45fe:	c83fd0ef          	jal	ra,2280 <TIM_OC4FastConfig>
C:\Users\windows\Desktop\A_Dual\A_Dual1\Dual-core_Communication_Demo\Dual-core_Communication_Demo\MASTER\obj/../Libraries/seekfree_libraries/zf_pwm.c:256
    }

    TIM_Cmd(((TIM_TypeDef *) TIMERN[pwmch>>8]), ENABLE);                                              //
    4602:	fcc42783          	lw	a5,-52(s0)
    4606:	0087d713          	srli	a4,a5,0x8
    460a:	67a5                	lui	a5,0x9
    460c:	070a                	slli	a4,a4,0x2
    460e:	46078793          	addi	a5,a5,1120 # 9460 <TIMERN>
    4612:	97ba                	add	a5,a5,a4
    4614:	439c                	lw	a5,0(a5)
    4616:	4585                	li	a1,1
    4618:	853e                	mv	a0,a5
    461a:	89dfd0ef          	jal	ra,1eb6 <TIM_Cmd>
C:\Users\windows\Desktop\A_Dual\A_Dual1\Dual-core_Communication_Demo\Dual-core_Communication_Demo\MASTER\obj/../Libraries/seekfree_libraries/zf_pwm.c:257
    TIM_CtrlPWMOutputs(((TIM_TypeDef *) TIMERN[pwmch>>8]), ENABLE );
    461e:	fcc42783          	lw	a5,-52(s0)
    4622:	0087d713          	srli	a4,a5,0x8
    4626:	67a5                	lui	a5,0x9
    4628:	070a                	slli	a4,a4,0x2
    462a:	46078793          	addi	a5,a5,1120 # 9460 <TIMERN>
    462e:	97ba                	add	a5,a5,a4
    4630:	439c                	lw	a5,0(a5)
    4632:	4585                	li	a1,1
    4634:	853e                	mv	a0,a5
    4636:	8d9fd0ef          	jal	ra,1f0e <TIM_CtrlPWMOutputs>
C:\Users\windows\Desktop\A_Dual\A_Dual1\Dual-core_Communication_Demo\Dual-core_Communication_Demo\MASTER\obj/../Libraries/seekfree_libraries/zf_pwm.c:259
    //TIM_ARRPreloadConfig( TIM1, ENABLE );
}
    463a:	0001                	nop
    463c:	50f2                	lw	ra,60(sp)
    463e:	5462                	lw	s0,56(sp)
    4640:	6121                	addi	sp,sp,64
    4642:	8082                	ret

00004644 <pwm_duty>:
pwm_duty():
C:\Users\windows\Desktop\A_Dual\A_Dual1\Dual-core_Communication_Demo\Dual-core_Communication_Demo\MASTER\obj/../Libraries/seekfree_libraries/zf_pwm.c:270
//  @return     void
//  Sample usage:               pwm_duty(PWM1_CH1_A8, 5000);   //PWM1 1 A8  5000/PWM_DUTY_MAX*100
//                              PWM_DUTY_MAXzf_pwm.h 50000
//-------------------------------------------------------------------------------------------------------------------
void pwm_duty(PWMCH_enum pwmch, uint32 duty)
{
    4644:	7179                	addi	sp,sp,-48
    4646:	d622                	sw	s0,44(sp)
    4648:	1800                	addi	s0,sp,48
    464a:	fca42e23          	sw	a0,-36(s0)
    464e:	fcb42c23          	sw	a1,-40(s0)
C:\Users\windows\Desktop\A_Dual\A_Dual1\Dual-core_Communication_Demo\Dual-core_Communication_Demo\MASTER\obj/../Libraries/seekfree_libraries/zf_pwm.c:277
    uint16 period_temp;
    //const uint32 TIMERN[] = {TIM1_BASE, TIM2_BASE, TIM3_BASE, TIM4_BASE};
    //
    //

    period_temp = ((TIM_TypeDef *) TIMERN[pwmch>>8])->ATRLR;    //
    4652:	fdc42783          	lw	a5,-36(s0)
    4656:	0087d713          	srli	a4,a5,0x8
    465a:	67a5                	lui	a5,0x9
    465c:	070a                	slli	a4,a4,0x2
    465e:	46078793          	addi	a5,a5,1120 # 9460 <TIMERN>
    4662:	97ba                	add	a5,a5,a4
    4664:	439c                	lw	a5,0(a5)
    4666:	02c7d783          	lhu	a5,44(a5)
    466a:	fef41723          	sh	a5,-18(s0)
C:\Users\windows\Desktop\A_Dual\A_Dual1\Dual-core_Communication_Demo\Dual-core_Communication_Demo\MASTER\obj/../Libraries/seekfree_libraries/zf_pwm.c:278
    match_temp = period_temp * duty / PWM_DUTY_MAX;             //
    466e:	fee45703          	lhu	a4,-18(s0)
    4672:	fd842783          	lw	a5,-40(s0)
    4676:	02f70733          	mul	a4,a4,a5
    467a:	6789                	lui	a5,0x2
    467c:	71078793          	addi	a5,a5,1808 # 2710 <USART_ReceiveData+0x16>
    4680:	02f757b3          	divu	a5,a4,a5
    4684:	fef41623          	sh	a5,-20(s0)
C:\Users\windows\Desktop\A_Dual\A_Dual1\Dual-core_Communication_Demo\Dual-core_Communication_Demo\MASTER\obj/../Libraries/seekfree_libraries/zf_pwm.c:280

    if((pwmch >> 8) == 0x00)
    4688:	fdc42783          	lw	a5,-36(s0)
    468c:	83a1                	srli	a5,a5,0x8
    468e:	e385                	bnez	a5,46ae <pwm_duty+0x6a>
C:\Users\windows\Desktop\A_Dual\A_Dual1\Dual-core_Communication_Demo\Dual-core_Communication_Demo\MASTER\obj/../Libraries/seekfree_libraries/zf_pwm.c:282
    {
        (*(volatile uint32*)(0x40012C34 + (pwmch&0x03) * 0x04)) = match_temp;
    4690:	fdc42783          	lw	a5,-36(s0)
    4694:	0037f713          	andi	a4,a5,3
    4698:	100057b7          	lui	a5,0x10005
    469c:	b0d78793          	addi	a5,a5,-1267 # 10004b0d <_data_lma+0xfffb421>
    46a0:	97ba                	add	a5,a5,a4
    46a2:	078a                	slli	a5,a5,0x2
    46a4:	873e                	mv	a4,a5
    46a6:	fec45783          	lhu	a5,-20(s0)
    46aa:	c31c                	sw	a5,0(a4)
C:\Users\windows\Desktop\A_Dual\A_Dual1\Dual-core_Communication_Demo\Dual-core_Communication_Demo\MASTER\obj/../Libraries/seekfree_libraries/zf_pwm.c:312
        //0x40000834 TIM4->CH1CVR
        //0x40000838 TIM4->CH2CVR
        //0x4000083C TIM4->CH3CVR
        //0x40000840 TIM4->CH4CVR
    }
}
    46ac:	a049                	j	472e <pwm_duty+0xea>
C:\Users\windows\Desktop\A_Dual\A_Dual1\Dual-core_Communication_Demo\Dual-core_Communication_Demo\MASTER\obj/../Libraries/seekfree_libraries/zf_pwm.c:288
    else if((pwmch >> 8) == 0x01)
    46ae:	fdc42783          	lw	a5,-36(s0)
    46b2:	0087d713          	srli	a4,a5,0x8
    46b6:	4785                	li	a5,1
    46b8:	02f71063          	bne	a4,a5,46d8 <pwm_duty+0x94>
C:\Users\windows\Desktop\A_Dual\A_Dual1\Dual-core_Communication_Demo\Dual-core_Communication_Demo\MASTER\obj/../Libraries/seekfree_libraries/zf_pwm.c:290
        (*(volatile uint32*)(0x40000034 + (pwmch&0x03) * 0x04)) = match_temp;
    46bc:	fdc42783          	lw	a5,-36(s0)
    46c0:	0037f713          	andi	a4,a5,3
    46c4:	100007b7          	lui	a5,0x10000
    46c8:	07b5                	addi	a5,a5,13
    46ca:	97ba                	add	a5,a5,a4
    46cc:	078a                	slli	a5,a5,0x2
    46ce:	873e                	mv	a4,a5
    46d0:	fec45783          	lhu	a5,-20(s0)
    46d4:	c31c                	sw	a5,0(a4)
C:\Users\windows\Desktop\A_Dual\A_Dual1\Dual-core_Communication_Demo\Dual-core_Communication_Demo\MASTER\obj/../Libraries/seekfree_libraries/zf_pwm.c:312
}
    46d6:	a8a1                	j	472e <pwm_duty+0xea>
C:\Users\windows\Desktop\A_Dual\A_Dual1\Dual-core_Communication_Demo\Dual-core_Communication_Demo\MASTER\obj/../Libraries/seekfree_libraries/zf_pwm.c:296
    else if((pwmch >> 8) == 0x02)
    46d8:	fdc42783          	lw	a5,-36(s0)
    46dc:	0087d713          	srli	a4,a5,0x8
    46e0:	4789                	li	a5,2
    46e2:	02f71163          	bne	a4,a5,4704 <pwm_duty+0xc0>
C:\Users\windows\Desktop\A_Dual\A_Dual1\Dual-core_Communication_Demo\Dual-core_Communication_Demo\MASTER\obj/../Libraries/seekfree_libraries/zf_pwm.c:298
        (*(volatile uint32*)(0x40000434 + (pwmch&0x03) * 0x04)) = match_temp;
    46e6:	fdc42783          	lw	a5,-36(s0)
    46ea:	0037f713          	andi	a4,a5,3
    46ee:	100007b7          	lui	a5,0x10000
    46f2:	10d78793          	addi	a5,a5,269 # 1000010d <_data_lma+0xfff6a21>
    46f6:	97ba                	add	a5,a5,a4
    46f8:	078a                	slli	a5,a5,0x2
    46fa:	873e                	mv	a4,a5
    46fc:	fec45783          	lhu	a5,-20(s0)
    4700:	c31c                	sw	a5,0(a4)
C:\Users\windows\Desktop\A_Dual\A_Dual1\Dual-core_Communication_Demo\Dual-core_Communication_Demo\MASTER\obj/../Libraries/seekfree_libraries/zf_pwm.c:312
}
    4702:	a035                	j	472e <pwm_duty+0xea>
C:\Users\windows\Desktop\A_Dual\A_Dual1\Dual-core_Communication_Demo\Dual-core_Communication_Demo\MASTER\obj/../Libraries/seekfree_libraries/zf_pwm.c:304
    else if((pwmch >> 8) == 0x03)
    4704:	fdc42783          	lw	a5,-36(s0)
    4708:	0087d713          	srli	a4,a5,0x8
    470c:	478d                	li	a5,3
    470e:	02f71063          	bne	a4,a5,472e <pwm_duty+0xea>
C:\Users\windows\Desktop\A_Dual\A_Dual1\Dual-core_Communication_Demo\Dual-core_Communication_Demo\MASTER\obj/../Libraries/seekfree_libraries/zf_pwm.c:306
        (*(volatile uint32*)(0x40000834 + (pwmch&0x03) * 0x04)) = match_temp;
    4712:	fdc42783          	lw	a5,-36(s0)
    4716:	0037f713          	andi	a4,a5,3
    471a:	100007b7          	lui	a5,0x10000
    471e:	20d78793          	addi	a5,a5,525 # 1000020d <_data_lma+0xfff6b21>
    4722:	97ba                	add	a5,a5,a4
    4724:	078a                	slli	a5,a5,0x2
    4726:	873e                	mv	a4,a5
    4728:	fec45783          	lhu	a5,-20(s0)
    472c:	c31c                	sw	a5,0(a4)
C:\Users\windows\Desktop\A_Dual\A_Dual1\Dual-core_Communication_Demo\Dual-core_Communication_Demo\MASTER\obj/../Libraries/seekfree_libraries/zf_pwm.c:312
}
    472e:	0001                	nop
    4730:	5432                	lw	s0,44(sp)
    4732:	6145                	addi	sp,sp,48
    4734:	8082                	ret

00004736 <timer_gpio_quad_init>:
timer_gpio_quad_init():
C:\Users\windows\Desktop\A_Dual\A_Dual1\Dual-core_Communication_Demo\Dual-core_Communication_Demo\MASTER\obj/../Libraries/seekfree_libraries/zf_qtimer.c:40
//  @param      phaseB      B
//  @return     void
//  Sample usage:           
//-------------------------------------------------------------------------------------------------------------------
void timer_gpio_quad_init(TIMER_PIN_enum phaseA, TIMER_PIN_enum phaseB)
{
    4736:	1101                	addi	sp,sp,-32
    4738:	ce06                	sw	ra,28(sp)
    473a:	cc22                	sw	s0,24(sp)
    473c:	1000                	addi	s0,sp,32
    473e:	fea42623          	sw	a0,-20(s0)
    4742:	feb42423          	sw	a1,-24(s0)
C:\Users\windows\Desktop\A_Dual\A_Dual1\Dual-core_Communication_Demo\Dual-core_Communication_Demo\MASTER\obj/../Libraries/seekfree_libraries/zf_qtimer.c:41
    if(TIMER1_CHA_A8 == phaseA)       gpio_init(A8, GPI, 0, IN_FLOAT);
    4746:	fec42783          	lw	a5,-20(s0)
    474a:	eb81                	bnez	a5,475a <timer_gpio_quad_init+0x24>
C:\Users\windows\Desktop\A_Dual\A_Dual1\Dual-core_Communication_Demo\Dual-core_Communication_Demo\MASTER\obj/../Libraries/seekfree_libraries/zf_qtimer.c:41 (discriminator 1)
    474c:	4691                	li	a3,4
    474e:	4601                	li	a2,0
    4750:	4581                	li	a1,0
    4752:	4521                	li	a0,8
    4754:	bdeff0ef          	jal	ra,3b32 <gpio_init>
    4758:	a859                	j	47ee <timer_gpio_quad_init+0xb8>
C:\Users\windows\Desktop\A_Dual\A_Dual1\Dual-core_Communication_Demo\Dual-core_Communication_Demo\MASTER\obj/../Libraries/seekfree_libraries/zf_qtimer.c:42
    else if(TIMER2_CHA_A0 == phaseA)  gpio_init(A0, GPI, 0, IN_FLOAT);
    475a:	fec42703          	lw	a4,-20(s0)
    475e:	4789                	li	a5,2
    4760:	00f71963          	bne	a4,a5,4772 <timer_gpio_quad_init+0x3c>
C:\Users\windows\Desktop\A_Dual\A_Dual1\Dual-core_Communication_Demo\Dual-core_Communication_Demo\MASTER\obj/../Libraries/seekfree_libraries/zf_qtimer.c:42 (discriminator 1)
    4764:	4691                	li	a3,4
    4766:	4601                	li	a2,0
    4768:	4581                	li	a1,0
    476a:	4501                	li	a0,0
    476c:	bc6ff0ef          	jal	ra,3b32 <gpio_init>
    4770:	a8bd                	j	47ee <timer_gpio_quad_init+0xb8>
C:\Users\windows\Desktop\A_Dual\A_Dual1\Dual-core_Communication_Demo\Dual-core_Communication_Demo\MASTER\obj/../Libraries/seekfree_libraries/zf_qtimer.c:43
    else if(TIMER2_CHA_A15 == phaseA) gpio_init(A15, GPI, 0, IN_FLOAT);
    4772:	fec42703          	lw	a4,-20(s0)
    4776:	4791                	li	a5,4
    4778:	00f71963          	bne	a4,a5,478a <timer_gpio_quad_init+0x54>
C:\Users\windows\Desktop\A_Dual\A_Dual1\Dual-core_Communication_Demo\Dual-core_Communication_Demo\MASTER\obj/../Libraries/seekfree_libraries/zf_qtimer.c:43 (discriminator 1)
    477c:	4691                	li	a3,4
    477e:	4601                	li	a2,0
    4780:	4581                	li	a1,0
    4782:	453d                	li	a0,15
    4784:	baeff0ef          	jal	ra,3b32 <gpio_init>
    4788:	a09d                	j	47ee <timer_gpio_quad_init+0xb8>
C:\Users\windows\Desktop\A_Dual\A_Dual1\Dual-core_Communication_Demo\Dual-core_Communication_Demo\MASTER\obj/../Libraries/seekfree_libraries/zf_qtimer.c:44
    else if(TIMER3_CHA_A6 == phaseA)  gpio_init(A6, GPI, 0, IN_FLOAT);
    478a:	fec42703          	lw	a4,-20(s0)
    478e:	4799                	li	a5,6
    4790:	00f71963          	bne	a4,a5,47a2 <timer_gpio_quad_init+0x6c>
C:\Users\windows\Desktop\A_Dual\A_Dual1\Dual-core_Communication_Demo\Dual-core_Communication_Demo\MASTER\obj/../Libraries/seekfree_libraries/zf_qtimer.c:44 (discriminator 1)
    4794:	4691                	li	a3,4
    4796:	4601                	li	a2,0
    4798:	4581                	li	a1,0
    479a:	4519                	li	a0,6
    479c:	b96ff0ef          	jal	ra,3b32 <gpio_init>
    47a0:	a0b9                	j	47ee <timer_gpio_quad_init+0xb8>
C:\Users\windows\Desktop\A_Dual\A_Dual1\Dual-core_Communication_Demo\Dual-core_Communication_Demo\MASTER\obj/../Libraries/seekfree_libraries/zf_qtimer.c:45
    else if(TIMER3_CHA_C6 == phaseA)  gpio_init(C6, GPI, 0, IN_FLOAT);
    47a2:	fec42703          	lw	a4,-20(s0)
    47a6:	47a1                	li	a5,8
    47a8:	00f71a63          	bne	a4,a5,47bc <timer_gpio_quad_init+0x86>
C:\Users\windows\Desktop\A_Dual\A_Dual1\Dual-core_Communication_Demo\Dual-core_Communication_Demo\MASTER\obj/../Libraries/seekfree_libraries/zf_qtimer.c:45 (discriminator 1)
    47ac:	4691                	li	a3,4
    47ae:	4601                	li	a2,0
    47b0:	4581                	li	a1,0
    47b2:	04600513          	li	a0,70
    47b6:	b7cff0ef          	jal	ra,3b32 <gpio_init>
    47ba:	a815                	j	47ee <timer_gpio_quad_init+0xb8>
C:\Users\windows\Desktop\A_Dual\A_Dual1\Dual-core_Communication_Demo\Dual-core_Communication_Demo\MASTER\obj/../Libraries/seekfree_libraries/zf_qtimer.c:46
    else if(TIMER3_CHA_B4 == phaseA)  gpio_init(B4, GPI, 0, IN_FLOAT);
    47bc:	fec42703          	lw	a4,-20(s0)
    47c0:	47a9                	li	a5,10
    47c2:	00f71a63          	bne	a4,a5,47d6 <timer_gpio_quad_init+0xa0>
C:\Users\windows\Desktop\A_Dual\A_Dual1\Dual-core_Communication_Demo\Dual-core_Communication_Demo\MASTER\obj/../Libraries/seekfree_libraries/zf_qtimer.c:46 (discriminator 1)
    47c6:	4691                	li	a3,4
    47c8:	4601                	li	a2,0
    47ca:	4581                	li	a1,0
    47cc:	02400513          	li	a0,36
    47d0:	b62ff0ef          	jal	ra,3b32 <gpio_init>
    47d4:	a829                	j	47ee <timer_gpio_quad_init+0xb8>
C:\Users\windows\Desktop\A_Dual\A_Dual1\Dual-core_Communication_Demo\Dual-core_Communication_Demo\MASTER\obj/../Libraries/seekfree_libraries/zf_qtimer.c:47
    else if(TIMER4_CHA_B6 == phaseA)  gpio_init(B6, GPI, 0, IN_FLOAT);
    47d6:	fec42703          	lw	a4,-20(s0)
    47da:	47b1                	li	a5,12
    47dc:	00f71963          	bne	a4,a5,47ee <timer_gpio_quad_init+0xb8>
C:\Users\windows\Desktop\A_Dual\A_Dual1\Dual-core_Communication_Demo\Dual-core_Communication_Demo\MASTER\obj/../Libraries/seekfree_libraries/zf_qtimer.c:47 (discriminator 1)
    47e0:	4691                	li	a3,4
    47e2:	4601                	li	a2,0
    47e4:	4581                	li	a1,0
    47e6:	02600513          	li	a0,38
    47ea:	b48ff0ef          	jal	ra,3b32 <gpio_init>
C:\Users\windows\Desktop\A_Dual\A_Dual1\Dual-core_Communication_Demo\Dual-core_Communication_Demo\MASTER\obj/../Libraries/seekfree_libraries/zf_qtimer.c:49

    if(TIMER1_CHB_A9 == phaseB)       gpio_init(A9, GPI, 0, IN_FLOAT);
    47ee:	fe842703          	lw	a4,-24(s0)
    47f2:	4785                	li	a5,1
    47f4:	00f71963          	bne	a4,a5,4806 <timer_gpio_quad_init+0xd0>
C:\Users\windows\Desktop\A_Dual\A_Dual1\Dual-core_Communication_Demo\Dual-core_Communication_Demo\MASTER\obj/../Libraries/seekfree_libraries/zf_qtimer.c:49 (discriminator 1)
    47f8:	4691                	li	a3,4
    47fa:	4601                	li	a2,0
    47fc:	4581                	li	a1,0
    47fe:	4525                	li	a0,9
    4800:	b32ff0ef          	jal	ra,3b32 <gpio_init>
C:\Users\windows\Desktop\A_Dual\A_Dual1\Dual-core_Communication_Demo\Dual-core_Communication_Demo\MASTER\obj/../Libraries/seekfree_libraries/zf_qtimer.c:57 (discriminator 1)
    else if(TIMER3_CHB_A7 == phaseB)  gpio_init(A7, GPI, 0, IN_FLOAT);
    else if(TIMER3_CHB_C7 == phaseB)  gpio_init(C7, GPI, 0, IN_FLOAT);
    else if(TIMER3_CHB_B5 == phaseB)  gpio_init(B5, GPI, 0, IN_FLOAT);
    else if(TIMER4_CHB_B7 == phaseB)  gpio_init(B7, GPI, 0, IN_FLOAT);

}
    4804:	a861                	j	489c <timer_gpio_quad_init+0x166>
C:\Users\windows\Desktop\A_Dual\A_Dual1\Dual-core_Communication_Demo\Dual-core_Communication_Demo\MASTER\obj/../Libraries/seekfree_libraries/zf_qtimer.c:50
    else if(TIMER2_CHB_A1 == phaseB)  gpio_init(A1, GPI, 0, IN_FLOAT);
    4806:	fe842703          	lw	a4,-24(s0)
    480a:	478d                	li	a5,3
    480c:	00f71963          	bne	a4,a5,481e <timer_gpio_quad_init+0xe8>
C:\Users\windows\Desktop\A_Dual\A_Dual1\Dual-core_Communication_Demo\Dual-core_Communication_Demo\MASTER\obj/../Libraries/seekfree_libraries/zf_qtimer.c:50 (discriminator 1)
    4810:	4691                	li	a3,4
    4812:	4601                	li	a2,0
    4814:	4581                	li	a1,0
    4816:	4505                	li	a0,1
    4818:	b1aff0ef          	jal	ra,3b32 <gpio_init>
C:\Users\windows\Desktop\A_Dual\A_Dual1\Dual-core_Communication_Demo\Dual-core_Communication_Demo\MASTER\obj/../Libraries/seekfree_libraries/zf_qtimer.c:57 (discriminator 1)
}
    481c:	a041                	j	489c <timer_gpio_quad_init+0x166>
C:\Users\windows\Desktop\A_Dual\A_Dual1\Dual-core_Communication_Demo\Dual-core_Communication_Demo\MASTER\obj/../Libraries/seekfree_libraries/zf_qtimer.c:51
    else if(TIMER2_CHB_B3 == phaseB)  gpio_init(B3, GPI, 0, IN_FLOAT);
    481e:	fe842703          	lw	a4,-24(s0)
    4822:	4795                	li	a5,5
    4824:	00f71a63          	bne	a4,a5,4838 <timer_gpio_quad_init+0x102>
C:\Users\windows\Desktop\A_Dual\A_Dual1\Dual-core_Communication_Demo\Dual-core_Communication_Demo\MASTER\obj/../Libraries/seekfree_libraries/zf_qtimer.c:51 (discriminator 1)
    4828:	4691                	li	a3,4
    482a:	4601                	li	a2,0
    482c:	4581                	li	a1,0
    482e:	02300513          	li	a0,35
    4832:	b00ff0ef          	jal	ra,3b32 <gpio_init>
C:\Users\windows\Desktop\A_Dual\A_Dual1\Dual-core_Communication_Demo\Dual-core_Communication_Demo\MASTER\obj/../Libraries/seekfree_libraries/zf_qtimer.c:57 (discriminator 1)
}
    4836:	a09d                	j	489c <timer_gpio_quad_init+0x166>
C:\Users\windows\Desktop\A_Dual\A_Dual1\Dual-core_Communication_Demo\Dual-core_Communication_Demo\MASTER\obj/../Libraries/seekfree_libraries/zf_qtimer.c:52
    else if(TIMER3_CHB_A7 == phaseB)  gpio_init(A7, GPI, 0, IN_FLOAT);
    4838:	fe842703          	lw	a4,-24(s0)
    483c:	479d                	li	a5,7
    483e:	00f71963          	bne	a4,a5,4850 <timer_gpio_quad_init+0x11a>
C:\Users\windows\Desktop\A_Dual\A_Dual1\Dual-core_Communication_Demo\Dual-core_Communication_Demo\MASTER\obj/../Libraries/seekfree_libraries/zf_qtimer.c:52 (discriminator 1)
    4842:	4691                	li	a3,4
    4844:	4601                	li	a2,0
    4846:	4581                	li	a1,0
    4848:	451d                	li	a0,7
    484a:	ae8ff0ef          	jal	ra,3b32 <gpio_init>
C:\Users\windows\Desktop\A_Dual\A_Dual1\Dual-core_Communication_Demo\Dual-core_Communication_Demo\MASTER\obj/../Libraries/seekfree_libraries/zf_qtimer.c:57 (discriminator 1)
}
    484e:	a0b9                	j	489c <timer_gpio_quad_init+0x166>
C:\Users\windows\Desktop\A_Dual\A_Dual1\Dual-core_Communication_Demo\Dual-core_Communication_Demo\MASTER\obj/../Libraries/seekfree_libraries/zf_qtimer.c:53
    else if(TIMER3_CHB_C7 == phaseB)  gpio_init(C7, GPI, 0, IN_FLOAT);
    4850:	fe842703          	lw	a4,-24(s0)
    4854:	47a5                	li	a5,9
    4856:	00f71a63          	bne	a4,a5,486a <timer_gpio_quad_init+0x134>
C:\Users\windows\Desktop\A_Dual\A_Dual1\Dual-core_Communication_Demo\Dual-core_Communication_Demo\MASTER\obj/../Libraries/seekfree_libraries/zf_qtimer.c:53 (discriminator 1)
    485a:	4691                	li	a3,4
    485c:	4601                	li	a2,0
    485e:	4581                	li	a1,0
    4860:	04700513          	li	a0,71
    4864:	aceff0ef          	jal	ra,3b32 <gpio_init>
C:\Users\windows\Desktop\A_Dual\A_Dual1\Dual-core_Communication_Demo\Dual-core_Communication_Demo\MASTER\obj/../Libraries/seekfree_libraries/zf_qtimer.c:57 (discriminator 1)
}
    4868:	a815                	j	489c <timer_gpio_quad_init+0x166>
C:\Users\windows\Desktop\A_Dual\A_Dual1\Dual-core_Communication_Demo\Dual-core_Communication_Demo\MASTER\obj/../Libraries/seekfree_libraries/zf_qtimer.c:54
    else if(TIMER3_CHB_B5 == phaseB)  gpio_init(B5, GPI, 0, IN_FLOAT);
    486a:	fe842703          	lw	a4,-24(s0)
    486e:	47ad                	li	a5,11
    4870:	00f71a63          	bne	a4,a5,4884 <timer_gpio_quad_init+0x14e>
C:\Users\windows\Desktop\A_Dual\A_Dual1\Dual-core_Communication_Demo\Dual-core_Communication_Demo\MASTER\obj/../Libraries/seekfree_libraries/zf_qtimer.c:54 (discriminator 1)
    4874:	4691                	li	a3,4
    4876:	4601                	li	a2,0
    4878:	4581                	li	a1,0
    487a:	02500513          	li	a0,37
    487e:	ab4ff0ef          	jal	ra,3b32 <gpio_init>
C:\Users\windows\Desktop\A_Dual\A_Dual1\Dual-core_Communication_Demo\Dual-core_Communication_Demo\MASTER\obj/../Libraries/seekfree_libraries/zf_qtimer.c:57 (discriminator 1)
}
    4882:	a829                	j	489c <timer_gpio_quad_init+0x166>
C:\Users\windows\Desktop\A_Dual\A_Dual1\Dual-core_Communication_Demo\Dual-core_Communication_Demo\MASTER\obj/../Libraries/seekfree_libraries/zf_qtimer.c:55
    else if(TIMER4_CHB_B7 == phaseB)  gpio_init(B7, GPI, 0, IN_FLOAT);
    4884:	fe842703          	lw	a4,-24(s0)
    4888:	47b5                	li	a5,13
    488a:	00f71963          	bne	a4,a5,489c <timer_gpio_quad_init+0x166>
C:\Users\windows\Desktop\A_Dual\A_Dual1\Dual-core_Communication_Demo\Dual-core_Communication_Demo\MASTER\obj/../Libraries/seekfree_libraries/zf_qtimer.c:55 (discriminator 1)
    488e:	4691                	li	a3,4
    4890:	4601                	li	a2,0
    4892:	4581                	li	a1,0
    4894:	02700513          	li	a0,39
    4898:	a9aff0ef          	jal	ra,3b32 <gpio_init>
C:\Users\windows\Desktop\A_Dual\A_Dual1\Dual-core_Communication_Demo\Dual-core_Communication_Demo\MASTER\obj/../Libraries/seekfree_libraries/zf_qtimer.c:57
}
    489c:	0001                	nop
    489e:	40f2                	lw	ra,28(sp)
    48a0:	4462                	lw	s0,24(sp)
    48a2:	6105                	addi	sp,sp,32
    48a4:	8082                	ret

000048a6 <timer_quad_init>:
timer_quad_init():
C:\Users\windows\Desktop\A_Dual\A_Dual1\Dual-core_Communication_Demo\Dual-core_Communication_Demo\MASTER\obj/../Libraries/seekfree_libraries/zf_qtimer.c:69
//  @param      phaseB      B
//  @return     void
//  Sample usage:           
//-------------------------------------------------------------------------------------------------------------------
void timer_quad_init(TIMERN_enum timern, TIMER_PIN_enum phaseA, TIMER_PIN_enum phaseB)
{
    48a6:	7179                	addi	sp,sp,-48
    48a8:	d606                	sw	ra,44(sp)
    48aa:	d422                	sw	s0,40(sp)
    48ac:	1800                	addi	s0,sp,48
    48ae:	fca42e23          	sw	a0,-36(s0)
    48b2:	fcb42c23          	sw	a1,-40(s0)
    48b6:	fcc42a23          	sw	a2,-44(s0)
C:\Users\windows\Desktop\A_Dual\A_Dual1\Dual-core_Communication_Demo\Dual-core_Communication_Demo\MASTER\obj/../Libraries/seekfree_libraries/zf_qtimer.c:72
    TIM_TimeBaseInitTypeDef TIM_TimeBaseStructure;

    if(TIMER_1 == timern)       RCC_APB2PeriphClockCmd(RCC_APB2Periph_TIM1, ENABLE);//1
    48ba:	fdc42783          	lw	a5,-36(s0)
    48be:	eb81                	bnez	a5,48ce <timer_quad_init+0x28>
C:\Users\windows\Desktop\A_Dual\A_Dual1\Dual-core_Communication_Demo\Dual-core_Communication_Demo\MASTER\obj/../Libraries/seekfree_libraries/zf_qtimer.c:72 (discriminator 1)
    48c0:	4585                	li	a1,1
    48c2:	6785                	lui	a5,0x1
    48c4:	80078513          	addi	a0,a5,-2048 # 800 <__stack_size>
    48c8:	cbbfc0ef          	jal	ra,1582 <RCC_APB2PeriphClockCmd>
    48cc:	a835                	j	4908 <timer_quad_init+0x62>
C:\Users\windows\Desktop\A_Dual\A_Dual1\Dual-core_Communication_Demo\Dual-core_Communication_Demo\MASTER\obj/../Libraries/seekfree_libraries/zf_qtimer.c:73
    else  if(TIMER_2 == timern) RCC_APB1PeriphClockCmd(RCC_APB1Periph_TIM2, ENABLE);//2
    48ce:	fdc42703          	lw	a4,-36(s0)
    48d2:	4785                	li	a5,1
    48d4:	00f71763          	bne	a4,a5,48e2 <timer_quad_init+0x3c>
C:\Users\windows\Desktop\A_Dual\A_Dual1\Dual-core_Communication_Demo\Dual-core_Communication_Demo\MASTER\obj/../Libraries/seekfree_libraries/zf_qtimer.c:73 (discriminator 1)
    48d8:	4585                	li	a1,1
    48da:	4505                	li	a0,1
    48dc:	cedfc0ef          	jal	ra,15c8 <RCC_APB1PeriphClockCmd>
    48e0:	a025                	j	4908 <timer_quad_init+0x62>
C:\Users\windows\Desktop\A_Dual\A_Dual1\Dual-core_Communication_Demo\Dual-core_Communication_Demo\MASTER\obj/../Libraries/seekfree_libraries/zf_qtimer.c:74
    else  if(TIMER_3 == timern) RCC_APB1PeriphClockCmd(RCC_APB1Periph_TIM3, ENABLE);//3
    48e2:	fdc42703          	lw	a4,-36(s0)
    48e6:	4789                	li	a5,2
    48e8:	00f71763          	bne	a4,a5,48f6 <timer_quad_init+0x50>
C:\Users\windows\Desktop\A_Dual\A_Dual1\Dual-core_Communication_Demo\Dual-core_Communication_Demo\MASTER\obj/../Libraries/seekfree_libraries/zf_qtimer.c:74 (discriminator 1)
    48ec:	4585                	li	a1,1
    48ee:	4509                	li	a0,2
    48f0:	cd9fc0ef          	jal	ra,15c8 <RCC_APB1PeriphClockCmd>
    48f4:	a811                	j	4908 <timer_quad_init+0x62>
C:\Users\windows\Desktop\A_Dual\A_Dual1\Dual-core_Communication_Demo\Dual-core_Communication_Demo\MASTER\obj/../Libraries/seekfree_libraries/zf_qtimer.c:75
    else  if(TIMER_4 == timern) RCC_APB1PeriphClockCmd(RCC_APB1Periph_TIM4, ENABLE);//4
    48f6:	fdc42703          	lw	a4,-36(s0)
    48fa:	478d                	li	a5,3
    48fc:	00f71663          	bne	a4,a5,4908 <timer_quad_init+0x62>
C:\Users\windows\Desktop\A_Dual\A_Dual1\Dual-core_Communication_Demo\Dual-core_Communication_Demo\MASTER\obj/../Libraries/seekfree_libraries/zf_qtimer.c:75 (discriminator 1)
    4900:	4585                	li	a1,1
    4902:	4511                	li	a0,4
    4904:	cc5fc0ef          	jal	ra,15c8 <RCC_APB1PeriphClockCmd>
C:\Users\windows\Desktop\A_Dual\A_Dual1\Dual-core_Communication_Demo\Dual-core_Communication_Demo\MASTER\obj/../Libraries/seekfree_libraries/zf_qtimer.c:77

    timer_gpio_quad_init(phaseA, phaseB);                                           //
    4908:	fd442583          	lw	a1,-44(s0)
    490c:	fd842503          	lw	a0,-40(s0)
    4910:	e27ff0ef          	jal	ra,4736 <timer_gpio_quad_init>
C:\Users\windows\Desktop\A_Dual\A_Dual1\Dual-core_Communication_Demo\Dual-core_Communication_Demo\MASTER\obj/../Libraries/seekfree_libraries/zf_qtimer.c:79

    RCC_APB2PeriphClockCmd(RCC_APB2Periph_AFIO, ENABLE);                            //AFIO
    4914:	4585                	li	a1,1
    4916:	4505                	li	a0,1
    4918:	c6bfc0ef          	jal	ra,1582 <RCC_APB2PeriphClockCmd>
C:\Users\windows\Desktop\A_Dual\A_Dual1\Dual-core_Communication_Demo\Dual-core_Communication_Demo\MASTER\obj/../Libraries/seekfree_libraries/zf_qtimer.c:81

    if(TIMER2_CHA_A15 == phaseA && TIMER2_CHB_B3 == phaseB)                         //
    491c:	fd842703          	lw	a4,-40(s0)
    4920:	4791                	li	a5,4
    4922:	00f71f63          	bne	a4,a5,4940 <timer_quad_init+0x9a>
C:\Users\windows\Desktop\A_Dual\A_Dual1\Dual-core_Communication_Demo\Dual-core_Communication_Demo\MASTER\obj/../Libraries/seekfree_libraries/zf_qtimer.c:81 (discriminator 1)
    4926:	fd442703          	lw	a4,-44(s0)
    492a:	4795                	li	a5,5
    492c:	00f71a63          	bne	a4,a5,4940 <timer_quad_init+0x9a>
C:\Users\windows\Desktop\A_Dual\A_Dual1\Dual-core_Communication_Demo\Dual-core_Communication_Demo\MASTER\obj/../Libraries/seekfree_libraries/zf_qtimer.c:82
        GPIO_PinRemapConfig(GPIO_FullRemap_TIM2, ENABLE);
    4930:	4585                	li	a1,1
    4932:	001807b7          	lui	a5,0x180
    4936:	30078513          	addi	a0,a5,768 # 180300 <_data_lma+0x176c14>
    493a:	efefc0ef          	jal	ra,1038 <GPIO_PinRemapConfig>
    493e:	a0a1                	j	4986 <timer_quad_init+0xe0>
C:\Users\windows\Desktop\A_Dual\A_Dual1\Dual-core_Communication_Demo\Dual-core_Communication_Demo\MASTER\obj/../Libraries/seekfree_libraries/zf_qtimer.c:83
    else    if(TIMER3_CHA_C6 == phaseA && TIMER3_CHB_C7 == phaseB)
    4940:	fd842703          	lw	a4,-40(s0)
    4944:	47a1                	li	a5,8
    4946:	00f71f63          	bne	a4,a5,4964 <timer_quad_init+0xbe>
C:\Users\windows\Desktop\A_Dual\A_Dual1\Dual-core_Communication_Demo\Dual-core_Communication_Demo\MASTER\obj/../Libraries/seekfree_libraries/zf_qtimer.c:83 (discriminator 1)
    494a:	fd442703          	lw	a4,-44(s0)
    494e:	47a5                	li	a5,9
    4950:	00f71a63          	bne	a4,a5,4964 <timer_quad_init+0xbe>
C:\Users\windows\Desktop\A_Dual\A_Dual1\Dual-core_Communication_Demo\Dual-core_Communication_Demo\MASTER\obj/../Libraries/seekfree_libraries/zf_qtimer.c:84
        GPIO_PinRemapConfig(GPIO_FullRemap_TIM3, ENABLE);
    4954:	4585                	li	a1,1
    4956:	001a17b7          	lui	a5,0x1a1
    495a:	c0078513          	addi	a0,a5,-1024 # 1a0c00 <_data_lma+0x197514>
    495e:	edafc0ef          	jal	ra,1038 <GPIO_PinRemapConfig>
    4962:	a015                	j	4986 <timer_quad_init+0xe0>
C:\Users\windows\Desktop\A_Dual\A_Dual1\Dual-core_Communication_Demo\Dual-core_Communication_Demo\MASTER\obj/../Libraries/seekfree_libraries/zf_qtimer.c:85
    else    if(TIMER3_CHA_B4 == phaseA && TIMER3_CHB_B5 == phaseB)
    4964:	fd842703          	lw	a4,-40(s0)
    4968:	47a9                	li	a5,10
    496a:	00f71e63          	bne	a4,a5,4986 <timer_quad_init+0xe0>
C:\Users\windows\Desktop\A_Dual\A_Dual1\Dual-core_Communication_Demo\Dual-core_Communication_Demo\MASTER\obj/../Libraries/seekfree_libraries/zf_qtimer.c:85 (discriminator 1)
    496e:	fd442703          	lw	a4,-44(s0)
    4972:	47ad                	li	a5,11
    4974:	00f71963          	bne	a4,a5,4986 <timer_quad_init+0xe0>
C:\Users\windows\Desktop\A_Dual\A_Dual1\Dual-core_Communication_Demo\Dual-core_Communication_Demo\MASTER\obj/../Libraries/seekfree_libraries/zf_qtimer.c:86
        GPIO_PinRemapConfig(GPIO_PartialRemap_TIM3, ENABLE);
    4978:	4585                	li	a1,1
    497a:	001a17b7          	lui	a5,0x1a1
    497e:	80078513          	addi	a0,a5,-2048 # 1a0800 <_data_lma+0x197114>
    4982:	eb6fc0ef          	jal	ra,1038 <GPIO_PinRemapConfig>
C:\Users\windows\Desktop\A_Dual\A_Dual1\Dual-core_Communication_Demo\Dual-core_Communication_Demo\MASTER\obj/../Libraries/seekfree_libraries/zf_qtimer.c:88

    TIM_TimeBaseStructInit(&TIM_TimeBaseStructure);
    4986:	fe440793          	addi	a5,s0,-28
    498a:	853e                	mv	a0,a5
    498c:	ceefd0ef          	jal	ra,1e7a <TIM_TimeBaseStructInit>
C:\Users\windows\Desktop\A_Dual\A_Dual1\Dual-core_Communication_Demo\Dual-core_Communication_Demo\MASTER\obj/../Libraries/seekfree_libraries/zf_qtimer.c:89
    TIM_TimeBaseStructure.TIM_Prescaler = 1;                                        //
    4990:	4785                	li	a5,1
    4992:	fef41223          	sh	a5,-28(s0)
C:\Users\windows\Desktop\A_Dual\A_Dual1\Dual-core_Communication_Demo\Dual-core_Communication_Demo\MASTER\obj/../Libraries/seekfree_libraries/zf_qtimer.c:90
    TIM_TimeBaseStructure.TIM_Period = 0xFFFF;                                      //
    4996:	57fd                	li	a5,-1
    4998:	fef41423          	sh	a5,-24(s0)
C:\Users\windows\Desktop\A_Dual\A_Dual1\Dual-core_Communication_Demo\Dual-core_Communication_Demo\MASTER\obj/../Libraries/seekfree_libraries/zf_qtimer.c:91
    TIM_TimeBaseStructure.TIM_ClockDivision = TIM_CKD_DIV1;                         //
    499c:	fe041523          	sh	zero,-22(s0)
C:\Users\windows\Desktop\A_Dual\A_Dual1\Dual-core_Communication_Demo\Dual-core_Communication_Demo\MASTER\obj/../Libraries/seekfree_libraries/zf_qtimer.c:92
    TIM_TimeBaseStructure.TIM_CounterMode = TIM_CounterMode_Up;                     //TIM
    49a0:	fe041323          	sh	zero,-26(s0)
C:\Users\windows\Desktop\A_Dual\A_Dual1\Dual-core_Communication_Demo\Dual-core_Communication_Demo\MASTER\obj/../Libraries/seekfree_libraries/zf_qtimer.c:93
    TIM_TimeBaseStructure.TIM_RepetitionCounter = 0;                                //
    49a4:	fe040623          	sb	zero,-20(s0)
C:\Users\windows\Desktop\A_Dual\A_Dual1\Dual-core_Communication_Demo\Dual-core_Communication_Demo\MASTER\obj/../Libraries/seekfree_libraries/zf_qtimer.c:94
    TIM_TimeBaseInit((TIM_TypeDef*)(TIMERN[timern]), &TIM_TimeBaseStructure);       //
    49a8:	67a5                	lui	a5,0x9
    49aa:	fdc42703          	lw	a4,-36(s0)
    49ae:	070a                	slli	a4,a4,0x2
    49b0:	46078793          	addi	a5,a5,1120 # 9460 <TIMERN>
    49b4:	97ba                	add	a5,a5,a4
    49b6:	439c                	lw	a5,0(a5)
    49b8:	873e                	mv	a4,a5
    49ba:	fe440793          	addi	a5,s0,-28
    49be:	85be                	mv	a1,a5
    49c0:	853a                	mv	a0,a4
    49c2:	d9ffc0ef          	jal	ra,1760 <TIM_TimeBaseInit>
C:\Users\windows\Desktop\A_Dual\A_Dual1\Dual-core_Communication_Demo\Dual-core_Communication_Demo\MASTER\obj/../Libraries/seekfree_libraries/zf_qtimer.c:95
    TIM_EncoderInterfaceConfig((TIM_TypeDef*)(TIMERN[timern]), TIM_EncoderMode_TI2 , TIM_ICPolarity_Rising, TIM_ICPolarity_Rising);//
    49c6:	67a5                	lui	a5,0x9
    49c8:	fdc42703          	lw	a4,-36(s0)
    49cc:	070a                	slli	a4,a4,0x2
    49ce:	46078793          	addi	a5,a5,1120 # 9460 <TIMERN>
    49d2:	97ba                	add	a5,a5,a4
    49d4:	439c                	lw	a5,0(a5)
    49d6:	4681                	li	a3,0
    49d8:	4601                	li	a2,0
    49da:	4589                	li	a1,2
    49dc:	853e                	mv	a0,a5
    49de:	d90fd0ef          	jal	ra,1f6e <TIM_EncoderInterfaceConfig>
C:\Users\windows\Desktop\A_Dual\A_Dual1\Dual-core_Communication_Demo\Dual-core_Communication_Demo\MASTER\obj/../Libraries/seekfree_libraries/zf_qtimer.c:97

    TIM_Cmd((TIM_TypeDef*)(TIMERN[timern]), ENABLE);                                //
    49e2:	67a5                	lui	a5,0x9
    49e4:	fdc42703          	lw	a4,-36(s0)
    49e8:	070a                	slli	a4,a4,0x2
    49ea:	46078793          	addi	a5,a5,1120 # 9460 <TIMERN>
    49ee:	97ba                	add	a5,a5,a4
    49f0:	439c                	lw	a5,0(a5)
    49f2:	4585                	li	a1,1
    49f4:	853e                	mv	a0,a5
    49f6:	cc0fd0ef          	jal	ra,1eb6 <TIM_Cmd>
C:\Users\windows\Desktop\A_Dual\A_Dual1\Dual-core_Communication_Demo\Dual-core_Communication_Demo\MASTER\obj/../Libraries/seekfree_libraries/zf_qtimer.c:98
}
    49fa:	0001                	nop
    49fc:	50b2                	lw	ra,44(sp)
    49fe:	5422                	lw	s0,40(sp)
    4a00:	6145                	addi	sp,sp,48
    4a02:	8082                	ret

00004a04 <timer_quad_get>:
timer_quad_get():
C:\Users\windows\Desktop\A_Dual\A_Dual1\Dual-core_Communication_Demo\Dual-core_Communication_Demo\MASTER\obj/../Libraries/seekfree_libraries/zf_qtimer.c:107
//  @param      timern      
//  @return     void
//  Sample usage:
//-------------------------------------------------------------------------------------------------------------------
int16 timer_quad_get(TIMERN_enum timern)
{
    4a04:	7179                	addi	sp,sp,-48
    4a06:	d622                	sw	s0,44(sp)
    4a08:	1800                	addi	s0,sp,48
    4a0a:	fca42e23          	sw	a0,-36(s0)
C:\Users\windows\Desktop\A_Dual\A_Dual1\Dual-core_Communication_Demo\Dual-core_Communication_Demo\MASTER\obj/../Libraries/seekfree_libraries/zf_qtimer.c:108
    int16 count = ((TIM_TypeDef*)(TIMERN[timern]))->CNT;
    4a0e:	67a5                	lui	a5,0x9
    4a10:	fdc42703          	lw	a4,-36(s0)
    4a14:	070a                	slli	a4,a4,0x2
    4a16:	46078793          	addi	a5,a5,1120 # 9460 <TIMERN>
    4a1a:	97ba                	add	a5,a5,a4
    4a1c:	439c                	lw	a5,0(a5)
    4a1e:	0247d783          	lhu	a5,36(a5)
    4a22:	07c2                	slli	a5,a5,0x10
    4a24:	83c1                	srli	a5,a5,0x10
    4a26:	fef41723          	sh	a5,-18(s0)
C:\Users\windows\Desktop\A_Dual\A_Dual1\Dual-core_Communication_Demo\Dual-core_Communication_Demo\MASTER\obj/../Libraries/seekfree_libraries/zf_qtimer.c:109
    return count;
    4a2a:	fee41783          	lh	a5,-18(s0)
C:\Users\windows\Desktop\A_Dual\A_Dual1\Dual-core_Communication_Demo\Dual-core_Communication_Demo\MASTER\obj/../Libraries/seekfree_libraries/zf_qtimer.c:110
}
    4a2e:	853e                	mv	a0,a5
    4a30:	5432                	lw	s0,44(sp)
    4a32:	6145                	addi	sp,sp,48
    4a34:	8082                	ret

00004a36 <timer_quad_clear>:
timer_quad_clear():
C:\Users\windows\Desktop\A_Dual\A_Dual1\Dual-core_Communication_Demo\Dual-core_Communication_Demo\MASTER\obj/../Libraries/seekfree_libraries/zf_qtimer.c:119
//  @param      timern      
//  @return     void
//  Sample usage:
//-------------------------------------------------------------------------------------------------------------------
void timer_quad_clear(TIMERN_enum timern)
{
    4a36:	1101                	addi	sp,sp,-32
    4a38:	ce22                	sw	s0,28(sp)
    4a3a:	1000                	addi	s0,sp,32
    4a3c:	fea42623          	sw	a0,-20(s0)
C:\Users\windows\Desktop\A_Dual\A_Dual1\Dual-core_Communication_Demo\Dual-core_Communication_Demo\MASTER\obj/../Libraries/seekfree_libraries/zf_qtimer.c:120
    ((TIM_TypeDef*)(TIMERN[timern]))->CNT = 0;
    4a40:	67a5                	lui	a5,0x9
    4a42:	fec42703          	lw	a4,-20(s0)
    4a46:	070a                	slli	a4,a4,0x2
    4a48:	46078793          	addi	a5,a5,1120 # 9460 <TIMERN>
    4a4c:	97ba                	add	a5,a5,a4
    4a4e:	439c                	lw	a5,0(a5)
    4a50:	02079223          	sh	zero,36(a5)
C:\Users\windows\Desktop\A_Dual\A_Dual1\Dual-core_Communication_Demo\Dual-core_Communication_Demo\MASTER\obj/../Libraries/seekfree_libraries/zf_qtimer.c:121
}
    4a54:	0001                	nop
    4a56:	4472                	lw	s0,28(sp)
    4a58:	6105                	addi	sp,sp,32
    4a5a:	8082                	ret

00004a5c <spi_gpio_init>:
spi_gpio_init():
C:\Users\windows\Desktop\A_Dual\A_Dual1\Dual-core_Communication_Demo\Dual-core_Communication_Demo\MASTER\obj/../Libraries/seekfree_libraries/zf_spi.c:41
//  @param      cs_pin      (common.hPIN_enum)
//  @return     void
//  Sample usage:             
//-------------------------------------------------------------------------------------------------------------------
void spi_gpio_init(SPI_PIN_enum sck_pin, SPI_PIN_enum mosi_pin, SPI_PIN_enum miso_pin, PIN_enum cs_pin)
{
    4a5c:	1101                	addi	sp,sp,-32
    4a5e:	ce06                	sw	ra,28(sp)
    4a60:	cc22                	sw	s0,24(sp)
    4a62:	1000                	addi	s0,sp,32
    4a64:	fea42623          	sw	a0,-20(s0)
    4a68:	feb42423          	sw	a1,-24(s0)
    4a6c:	fec42223          	sw	a2,-28(s0)
    4a70:	fed42023          	sw	a3,-32(s0)
C:\Users\windows\Desktop\A_Dual\A_Dual1\Dual-core_Communication_Demo\Dual-core_Communication_Demo\MASTER\obj/../Libraries/seekfree_libraries/zf_spi.c:42
    if(SPI1_SCK_PA5 == sck_pin) gpio_init(A5, GPO, 1, SPEED_50MHZ|OUT_AF_PP);
    4a74:	fec42783          	lw	a5,-20(s0)
    4a78:	eb89                	bnez	a5,4a8a <spi_gpio_init+0x2e>
C:\Users\windows\Desktop\A_Dual\A_Dual1\Dual-core_Communication_Demo\Dual-core_Communication_Demo\MASTER\obj/../Libraries/seekfree_libraries/zf_spi.c:42 (discriminator 1)
    4a7a:	31800693          	li	a3,792
    4a7e:	4605                	li	a2,1
    4a80:	4585                	li	a1,1
    4a82:	4515                	li	a0,5
    4a84:	8aeff0ef          	jal	ra,3b32 <gpio_init>
    4a88:	a899                	j	4ade <spi_gpio_init+0x82>
C:\Users\windows\Desktop\A_Dual\A_Dual1\Dual-core_Communication_Demo\Dual-core_Communication_Demo\MASTER\obj/../Libraries/seekfree_libraries/zf_spi.c:43
    else if(SPI1_SCK_PB3 == sck_pin) gpio_init(B3, GPO, 1, SPEED_50MHZ|OUT_AF_PP);
    4a8a:	fec42703          	lw	a4,-20(s0)
    4a8e:	47c1                	li	a5,16
    4a90:	00f71b63          	bne	a4,a5,4aa6 <spi_gpio_init+0x4a>
C:\Users\windows\Desktop\A_Dual\A_Dual1\Dual-core_Communication_Demo\Dual-core_Communication_Demo\MASTER\obj/../Libraries/seekfree_libraries/zf_spi.c:43 (discriminator 1)
    4a94:	31800693          	li	a3,792
    4a98:	4605                	li	a2,1
    4a9a:	4585                	li	a1,1
    4a9c:	02300513          	li	a0,35
    4aa0:	892ff0ef          	jal	ra,3b32 <gpio_init>
    4aa4:	a82d                	j	4ade <spi_gpio_init+0x82>
C:\Users\windows\Desktop\A_Dual\A_Dual1\Dual-core_Communication_Demo\Dual-core_Communication_Demo\MASTER\obj/../Libraries/seekfree_libraries/zf_spi.c:44
    else if(SPI2_SCK_PB13 == sck_pin) gpio_init(B13, GPO, 1, SPEED_50MHZ|OUT_AF_PP);
    4aa6:	fec42703          	lw	a4,-20(s0)
    4aaa:	02000793          	li	a5,32
    4aae:	00f71b63          	bne	a4,a5,4ac4 <spi_gpio_init+0x68>
C:\Users\windows\Desktop\A_Dual\A_Dual1\Dual-core_Communication_Demo\Dual-core_Communication_Demo\MASTER\obj/../Libraries/seekfree_libraries/zf_spi.c:44 (discriminator 1)
    4ab2:	31800693          	li	a3,792
    4ab6:	4605                	li	a2,1
    4ab8:	4585                	li	a1,1
    4aba:	02d00513          	li	a0,45
    4abe:	874ff0ef          	jal	ra,3b32 <gpio_init>
    4ac2:	a831                	j	4ade <spi_gpio_init+0x82>
C:\Users\windows\Desktop\A_Dual\A_Dual1\Dual-core_Communication_Demo\Dual-core_Communication_Demo\MASTER\obj/../Libraries/seekfree_libraries/zf_spi.c:45
    else assert(0);         //
    4ac4:	67a5                	lui	a5,0x9
    4ac6:	cc078693          	addi	a3,a5,-832 # 8cc0 <_exit+0xa0>
    4aca:	67a5                	lui	a5,0x9
    4acc:	47078613          	addi	a2,a5,1136 # 9470 <__func__.3348>
    4ad0:	02d00593          	li	a1,45
    4ad4:	67a5                	lui	a5,0x9
    4ad6:	cc478513          	addi	a0,a5,-828 # 8cc4 <_exit+0xa4>
    4ada:	651020ef          	jal	ra,792a <__assert_func>
C:\Users\windows\Desktop\A_Dual\A_Dual1\Dual-core_Communication_Demo\Dual-core_Communication_Demo\MASTER\obj/../Libraries/seekfree_libraries/zf_spi.c:47

    if(SPI1_MOSI_PA7 == mosi_pin) gpio_init(A7, GPO, 1, SPEED_50MHZ|OUT_AF_PP);
    4ade:	fe842703          	lw	a4,-24(s0)
    4ae2:	4785                	li	a5,1
    4ae4:	00f71a63          	bne	a4,a5,4af8 <spi_gpio_init+0x9c>
C:\Users\windows\Desktop\A_Dual\A_Dual1\Dual-core_Communication_Demo\Dual-core_Communication_Demo\MASTER\obj/../Libraries/seekfree_libraries/zf_spi.c:47 (discriminator 1)
    4ae8:	31800693          	li	a3,792
    4aec:	4605                	li	a2,1
    4aee:	4585                	li	a1,1
    4af0:	451d                	li	a0,7
    4af2:	840ff0ef          	jal	ra,3b32 <gpio_init>
    4af6:	a899                	j	4b4c <spi_gpio_init+0xf0>
C:\Users\windows\Desktop\A_Dual\A_Dual1\Dual-core_Communication_Demo\Dual-core_Communication_Demo\MASTER\obj/../Libraries/seekfree_libraries/zf_spi.c:48
    else if(SPI1_MOSI_PB5 == mosi_pin) gpio_init(B5, GPO, 1, SPEED_50MHZ|OUT_AF_PP);
    4af8:	fe842703          	lw	a4,-24(s0)
    4afc:	47c5                	li	a5,17
    4afe:	00f71b63          	bne	a4,a5,4b14 <spi_gpio_init+0xb8>
C:\Users\windows\Desktop\A_Dual\A_Dual1\Dual-core_Communication_Demo\Dual-core_Communication_Demo\MASTER\obj/../Libraries/seekfree_libraries/zf_spi.c:48 (discriminator 1)
    4b02:	31800693          	li	a3,792
    4b06:	4605                	li	a2,1
    4b08:	4585                	li	a1,1
    4b0a:	02500513          	li	a0,37
    4b0e:	824ff0ef          	jal	ra,3b32 <gpio_init>
    4b12:	a82d                	j	4b4c <spi_gpio_init+0xf0>
C:\Users\windows\Desktop\A_Dual\A_Dual1\Dual-core_Communication_Demo\Dual-core_Communication_Demo\MASTER\obj/../Libraries/seekfree_libraries/zf_spi.c:49
    else if(SPI2_MOSI_PB15 == mosi_pin) gpio_init(B15, GPO, 1, SPEED_50MHZ|OUT_AF_PP);
    4b14:	fe842703          	lw	a4,-24(s0)
    4b18:	02100793          	li	a5,33
    4b1c:	00f71b63          	bne	a4,a5,4b32 <spi_gpio_init+0xd6>
C:\Users\windows\Desktop\A_Dual\A_Dual1\Dual-core_Communication_Demo\Dual-core_Communication_Demo\MASTER\obj/../Libraries/seekfree_libraries/zf_spi.c:49 (discriminator 1)
    4b20:	31800693          	li	a3,792
    4b24:	4605                	li	a2,1
    4b26:	4585                	li	a1,1
    4b28:	02f00513          	li	a0,47
    4b2c:	806ff0ef          	jal	ra,3b32 <gpio_init>
    4b30:	a831                	j	4b4c <spi_gpio_init+0xf0>
C:\Users\windows\Desktop\A_Dual\A_Dual1\Dual-core_Communication_Demo\Dual-core_Communication_Demo\MASTER\obj/../Libraries/seekfree_libraries/zf_spi.c:50
    else assert(0);         //
    4b32:	67a5                	lui	a5,0x9
    4b34:	cc078693          	addi	a3,a5,-832 # 8cc0 <_exit+0xa0>
    4b38:	67a5                	lui	a5,0x9
    4b3a:	47078613          	addi	a2,a5,1136 # 9470 <__func__.3348>
    4b3e:	03200593          	li	a1,50
    4b42:	67a5                	lui	a5,0x9
    4b44:	cc478513          	addi	a0,a5,-828 # 8cc4 <_exit+0xa4>
    4b48:	5e3020ef          	jal	ra,792a <__assert_func>
C:\Users\windows\Desktop\A_Dual\A_Dual1\Dual-core_Communication_Demo\Dual-core_Communication_Demo\MASTER\obj/../Libraries/seekfree_libraries/zf_spi.c:52

    if(SPI1_MISO_PA6 == miso_pin) gpio_init(A6, GPO, 1, SPEED_50MHZ|OUT_AF_PP);
    4b4c:	fe442703          	lw	a4,-28(s0)
    4b50:	4789                	li	a5,2
    4b52:	00f71a63          	bne	a4,a5,4b66 <spi_gpio_init+0x10a>
C:\Users\windows\Desktop\A_Dual\A_Dual1\Dual-core_Communication_Demo\Dual-core_Communication_Demo\MASTER\obj/../Libraries/seekfree_libraries/zf_spi.c:52 (discriminator 1)
    4b56:	31800693          	li	a3,792
    4b5a:	4605                	li	a2,1
    4b5c:	4585                	li	a1,1
    4b5e:	4519                	li	a0,6
    4b60:	fd3fe0ef          	jal	ra,3b32 <gpio_init>
    4b64:	a0b5                	j	4bd0 <spi_gpio_init+0x174>
C:\Users\windows\Desktop\A_Dual\A_Dual1\Dual-core_Communication_Demo\Dual-core_Communication_Demo\MASTER\obj/../Libraries/seekfree_libraries/zf_spi.c:53
    else if(SPI1_MISO_PB4 == miso_pin) gpio_init(B4, GPO, 1, SPEED_50MHZ|OUT_AF_PP);
    4b66:	fe442703          	lw	a4,-28(s0)
    4b6a:	47c9                	li	a5,18
    4b6c:	00f71b63          	bne	a4,a5,4b82 <spi_gpio_init+0x126>
C:\Users\windows\Desktop\A_Dual\A_Dual1\Dual-core_Communication_Demo\Dual-core_Communication_Demo\MASTER\obj/../Libraries/seekfree_libraries/zf_spi.c:53 (discriminator 1)
    4b70:	31800693          	li	a3,792
    4b74:	4605                	li	a2,1
    4b76:	4585                	li	a1,1
    4b78:	02400513          	li	a0,36
    4b7c:	fb7fe0ef          	jal	ra,3b32 <gpio_init>
    4b80:	a881                	j	4bd0 <spi_gpio_init+0x174>
C:\Users\windows\Desktop\A_Dual\A_Dual1\Dual-core_Communication_Demo\Dual-core_Communication_Demo\MASTER\obj/../Libraries/seekfree_libraries/zf_spi.c:54
    else if(SPI2_MISO_PB14 == miso_pin) gpio_init(B14, GPO, 1, SPEED_50MHZ|OUT_AF_PP);
    4b82:	fe442703          	lw	a4,-28(s0)
    4b86:	02200793          	li	a5,34
    4b8a:	00f71b63          	bne	a4,a5,4ba0 <spi_gpio_init+0x144>
C:\Users\windows\Desktop\A_Dual\A_Dual1\Dual-core_Communication_Demo\Dual-core_Communication_Demo\MASTER\obj/../Libraries/seekfree_libraries/zf_spi.c:54 (discriminator 1)
    4b8e:	31800693          	li	a3,792
    4b92:	4605                	li	a2,1
    4b94:	4585                	li	a1,1
    4b96:	02e00513          	li	a0,46
    4b9a:	f99fe0ef          	jal	ra,3b32 <gpio_init>
    4b9e:	a80d                	j	4bd0 <spi_gpio_init+0x174>
C:\Users\windows\Desktop\A_Dual\A_Dual1\Dual-core_Communication_Demo\Dual-core_Communication_Demo\MASTER\obj/../Libraries/seekfree_libraries/zf_spi.c:55
    else if(SPI_MISO_NULL == miso_pin)  miso_pin = SPI_MISO_NULL;
    4ba0:	fe442703          	lw	a4,-28(s0)
    4ba4:	02300793          	li	a5,35
    4ba8:	00f71763          	bne	a4,a5,4bb6 <spi_gpio_init+0x15a>
C:\Users\windows\Desktop\A_Dual\A_Dual1\Dual-core_Communication_Demo\Dual-core_Communication_Demo\MASTER\obj/../Libraries/seekfree_libraries/zf_spi.c:55 (discriminator 1)
    4bac:	02300793          	li	a5,35
    4bb0:	fef42223          	sw	a5,-28(s0)
    4bb4:	a831                	j	4bd0 <spi_gpio_init+0x174>
C:\Users\windows\Desktop\A_Dual\A_Dual1\Dual-core_Communication_Demo\Dual-core_Communication_Demo\MASTER\obj/../Libraries/seekfree_libraries/zf_spi.c:56
    else  assert(0);         //
    4bb6:	67a5                	lui	a5,0x9
    4bb8:	cc078693          	addi	a3,a5,-832 # 8cc0 <_exit+0xa0>
    4bbc:	67a5                	lui	a5,0x9
    4bbe:	47078613          	addi	a2,a5,1136 # 9470 <__func__.3348>
    4bc2:	03800593          	li	a1,56
    4bc6:	67a5                	lui	a5,0x9
    4bc8:	cc478513          	addi	a0,a5,-828 # 8cc4 <_exit+0xa4>
    4bcc:	55f020ef          	jal	ra,792a <__assert_func>
C:\Users\windows\Desktop\A_Dual\A_Dual1\Dual-core_Communication_Demo\Dual-core_Communication_Demo\MASTER\obj/../Libraries/seekfree_libraries/zf_spi.c:59


    gpio_init(cs_pin, GPO, 1, SPEED_50MHZ|OUT_PP);
    4bd0:	31000693          	li	a3,784
    4bd4:	4605                	li	a2,1
    4bd6:	4585                	li	a1,1
    4bd8:	fe042503          	lw	a0,-32(s0)
    4bdc:	f57fe0ef          	jal	ra,3b32 <gpio_init>
C:\Users\windows\Desktop\A_Dual\A_Dual1\Dual-core_Communication_Demo\Dual-core_Communication_Demo\MASTER\obj/../Libraries/seekfree_libraries/zf_spi.c:61

}
    4be0:	0001                	nop
    4be2:	40f2                	lw	ra,28(sp)
    4be4:	4462                	lw	s0,24(sp)
    4be6:	6105                	addi	sp,sp,32
    4be8:	8082                	ret

00004bea <spi_init>:
spi_init():
C:\Users\windows\Desktop\A_Dual\A_Dual1\Dual-core_Communication_Demo\Dual-core_Communication_Demo\MASTER\obj/../Libraries/seekfree_libraries/zf_spi.c:85
        SPI_PIN_enum mosi_pin,
        SPI_PIN_enum miso_pin,
        PIN_enum cs_pin,
        uint8 mode,
        SPI_SPEED_enum BaudRatePrescaler)
{
    4bea:	715d                	addi	sp,sp,-80
    4bec:	c686                	sw	ra,76(sp)
    4bee:	c4a2                	sw	s0,72(sp)
    4bf0:	0880                	addi	s0,sp,80
    4bf2:	fca42623          	sw	a0,-52(s0)
    4bf6:	fcb42423          	sw	a1,-56(s0)
    4bfa:	fcc42223          	sw	a2,-60(s0)
    4bfe:	fcd42023          	sw	a3,-64(s0)
    4c02:	fae42e23          	sw	a4,-68(s0)
    4c06:	fb042a23          	sw	a6,-76(s0)
    4c0a:	faf40da3          	sb	a5,-69(s0)
C:\Users\windows\Desktop\A_Dual\A_Dual1\Dual-core_Communication_Demo\Dual-core_Communication_Demo\MASTER\obj/../Libraries/seekfree_libraries/zf_spi.c:89

    SPI_InitTypeDef  SPI_InitStructure;

    if(SPI_1 == spi_n)
    4c0e:	fcc42783          	lw	a5,-52(s0)
    4c12:	eb81                	bnez	a5,4c22 <spi_init+0x38>
C:\Users\windows\Desktop\A_Dual\A_Dual1\Dual-core_Communication_Demo\Dual-core_Communication_Demo\MASTER\obj/../Libraries/seekfree_libraries/zf_spi.c:91
    {
        RCC_APB2PeriphClockCmd(RCC_APB2Periph_SPI1 | RCC_APB2Periph_AFIO, ENABLE);                //SPI1
    4c14:	4585                	li	a1,1
    4c16:	6785                	lui	a5,0x1
    4c18:	00178513          	addi	a0,a5,1 # 1001 <GPIO_WriteBit+0x1>
    4c1c:	967fc0ef          	jal	ra,1582 <RCC_APB2PeriphClockCmd>
    4c20:	a821                	j	4c38 <spi_init+0x4e>
C:\Users\windows\Desktop\A_Dual\A_Dual1\Dual-core_Communication_Demo\Dual-core_Communication_Demo\MASTER\obj/../Libraries/seekfree_libraries/zf_spi.c:93
    }
    else if(SPI_2 == spi_n)
    4c22:	fcc42703          	lw	a4,-52(s0)
    4c26:	4785                	li	a5,1
    4c28:	00f71863          	bne	a4,a5,4c38 <spi_init+0x4e>
C:\Users\windows\Desktop\A_Dual\A_Dual1\Dual-core_Communication_Demo\Dual-core_Communication_Demo\MASTER\obj/../Libraries/seekfree_libraries/zf_spi.c:95
    {
        RCC_APB1PeriphClockCmd(RCC_APB1Periph_SPI2 | RCC_APB2Periph_AFIO, ENABLE);                //SPI2
    4c2c:	4585                	li	a1,1
    4c2e:	6791                	lui	a5,0x4
    4c30:	00178513          	addi	a0,a5,1 # 4001 <pwm_gpio_init+0xe5>
    4c34:	995fc0ef          	jal	ra,15c8 <RCC_APB1PeriphClockCmd>
C:\Users\windows\Desktop\A_Dual\A_Dual1\Dual-core_Communication_Demo\Dual-core_Communication_Demo\MASTER\obj/../Libraries/seekfree_libraries/zf_spi.c:98
    }

    spi_gpio_init(sck_pin, mosi_pin, miso_pin, cs_pin);
    4c38:	fbc42683          	lw	a3,-68(s0)
    4c3c:	fc042603          	lw	a2,-64(s0)
    4c40:	fc442583          	lw	a1,-60(s0)
    4c44:	fc842503          	lw	a0,-56(s0)
    4c48:	e15ff0ef          	jal	ra,4a5c <spi_gpio_init>
C:\Users\windows\Desktop\A_Dual\A_Dual1\Dual-core_Communication_Demo\Dual-core_Communication_Demo\MASTER\obj/../Libraries/seekfree_libraries/zf_spi.c:100

    SPI_InitStructure.SPI_Direction = SPI_Direction_2Lines_FullDuplex;      //SPI
    4c4c:	fc041e23          	sh	zero,-36(s0)
C:\Users\windows\Desktop\A_Dual\A_Dual1\Dual-core_Communication_Demo\Dual-core_Communication_Demo\MASTER\obj/../Libraries/seekfree_libraries/zf_spi.c:101
    SPI_InitStructure.SPI_Mode = SPI_Mode_Master;                           //SPI:SPI
    4c50:	10400793          	li	a5,260
    4c54:	fcf41f23          	sh	a5,-34(s0)
C:\Users\windows\Desktop\A_Dual\A_Dual1\Dual-core_Communication_Demo\Dual-core_Communication_Demo\MASTER\obj/../Libraries/seekfree_libraries/zf_spi.c:102
    SPI_InitStructure.SPI_DataSize = SPI_DataSize_8b;                       //SPI:SPI8
    4c58:	fe041023          	sh	zero,-32(s0)
C:\Users\windows\Desktop\A_Dual\A_Dual1\Dual-core_Communication_Demo\Dual-core_Communication_Demo\MASTER\obj/../Libraries/seekfree_libraries/zf_spi.c:104

    switch(mode)
    4c5c:	fbb44783          	lbu	a5,-69(s0)
    4c60:	4705                	li	a4,1
    4c62:	02e78363          	beq	a5,a4,4c88 <spi_init+0x9e>
    4c66:	4705                	li	a4,1
    4c68:	00f74463          	blt	a4,a5,4c70 <spi_init+0x86>
    4c6c:	cb89                	beqz	a5,4c7e <spi_init+0x94>
    4c6e:	a081                	j	4cae <spi_init+0xc4>
    4c70:	4709                	li	a4,2
    4c72:	02e78163          	beq	a5,a4,4c94 <spi_init+0xaa>
    4c76:	470d                	li	a4,3
    4c78:	02e78463          	beq	a5,a4,4ca0 <spi_init+0xb6>
    4c7c:	a80d                	j	4cae <spi_init+0xc4>
C:\Users\windows\Desktop\A_Dual\A_Dual1\Dual-core_Communication_Demo\Dual-core_Communication_Demo\MASTER\obj/../Libraries/seekfree_libraries/zf_spi.c:108
    {
        case 0:
        {
            SPI_InitStructure.SPI_CPOL = SPI_CPOL_Low;                      //
    4c7e:	fe041123          	sh	zero,-30(s0)
C:\Users\windows\Desktop\A_Dual\A_Dual1\Dual-core_Communication_Demo\Dual-core_Communication_Demo\MASTER\obj/../Libraries/seekfree_libraries/zf_spi.c:109
            SPI_InitStructure.SPI_CPHA = SPI_CPHA_1Edge;                    //
    4c82:	fe041223          	sh	zero,-28(s0)
C:\Users\windows\Desktop\A_Dual\A_Dual1\Dual-core_Communication_Demo\Dual-core_Communication_Demo\MASTER\obj/../Libraries/seekfree_libraries/zf_spi.c:110
        }break;
    4c86:	a025                	j	4cae <spi_init+0xc4>
C:\Users\windows\Desktop\A_Dual\A_Dual1\Dual-core_Communication_Demo\Dual-core_Communication_Demo\MASTER\obj/../Libraries/seekfree_libraries/zf_spi.c:113
        case 1:
        {
            SPI_InitStructure.SPI_CPOL = SPI_CPOL_Low;                      //
    4c88:	fe041123          	sh	zero,-30(s0)
C:\Users\windows\Desktop\A_Dual\A_Dual1\Dual-core_Communication_Demo\Dual-core_Communication_Demo\MASTER\obj/../Libraries/seekfree_libraries/zf_spi.c:114
            SPI_InitStructure.SPI_CPHA = SPI_CPHA_2Edge;                    //
    4c8c:	4785                	li	a5,1
    4c8e:	fef41223          	sh	a5,-28(s0)
C:\Users\windows\Desktop\A_Dual\A_Dual1\Dual-core_Communication_Demo\Dual-core_Communication_Demo\MASTER\obj/../Libraries/seekfree_libraries/zf_spi.c:115
        }break;
    4c92:	a831                	j	4cae <spi_init+0xc4>
C:\Users\windows\Desktop\A_Dual\A_Dual1\Dual-core_Communication_Demo\Dual-core_Communication_Demo\MASTER\obj/../Libraries/seekfree_libraries/zf_spi.c:118
        case 2:
        {
            SPI_InitStructure.SPI_CPOL = SPI_CPOL_High;                     //
    4c94:	4789                	li	a5,2
    4c96:	fef41123          	sh	a5,-30(s0)
C:\Users\windows\Desktop\A_Dual\A_Dual1\Dual-core_Communication_Demo\Dual-core_Communication_Demo\MASTER\obj/../Libraries/seekfree_libraries/zf_spi.c:119
            SPI_InitStructure.SPI_CPHA = SPI_CPHA_1Edge;                    //
    4c9a:	fe041223          	sh	zero,-28(s0)
C:\Users\windows\Desktop\A_Dual\A_Dual1\Dual-core_Communication_Demo\Dual-core_Communication_Demo\MASTER\obj/../Libraries/seekfree_libraries/zf_spi.c:120
        }break;
    4c9e:	a801                	j	4cae <spi_init+0xc4>
C:\Users\windows\Desktop\A_Dual\A_Dual1\Dual-core_Communication_Demo\Dual-core_Communication_Demo\MASTER\obj/../Libraries/seekfree_libraries/zf_spi.c:123
        case 3:
        {
            SPI_InitStructure.SPI_CPOL = SPI_CPOL_High;                     //
    4ca0:	4789                	li	a5,2
    4ca2:	fef41123          	sh	a5,-30(s0)
C:\Users\windows\Desktop\A_Dual\A_Dual1\Dual-core_Communication_Demo\Dual-core_Communication_Demo\MASTER\obj/../Libraries/seekfree_libraries/zf_spi.c:124
            SPI_InitStructure.SPI_CPHA = SPI_CPHA_2Edge;                    //
    4ca6:	4785                	li	a5,1
    4ca8:	fef41223          	sh	a5,-28(s0)
C:\Users\windows\Desktop\A_Dual\A_Dual1\Dual-core_Communication_Demo\Dual-core_Communication_Demo\MASTER\obj/../Libraries/seekfree_libraries/zf_spi.c:125
        }break;
    4cac:	0001                	nop
C:\Users\windows\Desktop\A_Dual\A_Dual1\Dual-core_Communication_Demo\Dual-core_Communication_Demo\MASTER\obj/../Libraries/seekfree_libraries/zf_spi.c:128
    }

    SPI_InitStructure.SPI_NSS = SPI_NSS_Soft;                               //NSS
    4cae:	20000793          	li	a5,512
    4cb2:	fef41323          	sh	a5,-26(s0)
C:\Users\windows\Desktop\A_Dual\A_Dual1\Dual-core_Communication_Demo\Dual-core_Communication_Demo\MASTER\obj/../Libraries/seekfree_libraries/zf_spi.c:129
    SPI_InitStructure.SPI_BaudRatePrescaler = BaudRatePrescaler << 3;       //
    4cb6:	fb442783          	lw	a5,-76(s0)
    4cba:	07c2                	slli	a5,a5,0x10
    4cbc:	83c1                	srli	a5,a5,0x10
    4cbe:	078e                	slli	a5,a5,0x3
    4cc0:	07c2                	slli	a5,a5,0x10
    4cc2:	83c1                	srli	a5,a5,0x10
    4cc4:	fef41423          	sh	a5,-24(s0)
C:\Users\windows\Desktop\A_Dual\A_Dual1\Dual-core_Communication_Demo\Dual-core_Communication_Demo\MASTER\obj/../Libraries/seekfree_libraries/zf_spi.c:130
    SPI_InitStructure.SPI_FirstBit = SPI_FirstBit_MSB;                      //MSBLSB:MSB
    4cc8:	fe041523          	sh	zero,-22(s0)
C:\Users\windows\Desktop\A_Dual\A_Dual1\Dual-core_Communication_Demo\Dual-core_Communication_Demo\MASTER\obj/../Libraries/seekfree_libraries/zf_spi.c:131
    SPI_InitStructure.SPI_CRCPolynomial = 7;                                //CRC
    4ccc:	479d                	li	a5,7
    4cce:	fef41623          	sh	a5,-20(s0)
C:\Users\windows\Desktop\A_Dual\A_Dual1\Dual-core_Communication_Demo\Dual-core_Communication_Demo\MASTER\obj/../Libraries/seekfree_libraries/zf_spi.c:132
    SPI_Init((SPI_TypeDef *)(SPIN[spi_n]), &SPI_InitStructure);             //SPI_InitStructSPIx
    4cd2:	fcc42703          	lw	a4,-52(s0)
    4cd6:	070a                	slli	a4,a4,0x2
    4cd8:	80c18793          	addi	a5,gp,-2036 # 2000007c <SPIN>
    4cdc:	97ba                	add	a5,a5,a4
    4cde:	439c                	lw	a5,0(a5)
    4ce0:	873e                	mv	a4,a5
    4ce2:	fdc40793          	addi	a5,s0,-36
    4ce6:	85be                	mv	a1,a5
    4ce8:	853a                	mv	a0,a4
    4cea:	925fc0ef          	jal	ra,160e <SPI_Init>
C:\Users\windows\Desktop\A_Dual\A_Dual1\Dual-core_Communication_Demo\Dual-core_Communication_Demo\MASTER\obj/../Libraries/seekfree_libraries/zf_spi.c:134

    if(SPI1_SCK_PB3 == sck_pin) GPIO_PinRemapConfig(GPIO_Remap_SPI1, ENABLE);
    4cee:	fc842703          	lw	a4,-56(s0)
    4cf2:	47c1                	li	a5,16
    4cf4:	00f71663          	bne	a4,a5,4d00 <spi_init+0x116>
C:\Users\windows\Desktop\A_Dual\A_Dual1\Dual-core_Communication_Demo\Dual-core_Communication_Demo\MASTER\obj/../Libraries/seekfree_libraries/zf_spi.c:134 (discriminator 1)
    4cf8:	4585                	li	a1,1
    4cfa:	4505                	li	a0,1
    4cfc:	b3cfc0ef          	jal	ra,1038 <GPIO_PinRemapConfig>
C:\Users\windows\Desktop\A_Dual\A_Dual1\Dual-core_Communication_Demo\Dual-core_Communication_Demo\MASTER\obj/../Libraries/seekfree_libraries/zf_spi.c:136

    SPI_Cmd(((SPI_TypeDef *)(SPIN[spi_n])), ENABLE);                         //SPI
    4d00:	fcc42703          	lw	a4,-52(s0)
    4d04:	070a                	slli	a4,a4,0x2
    4d06:	80c18793          	addi	a5,gp,-2036 # 2000007c <SPIN>
    4d0a:	97ba                	add	a5,a5,a4
    4d0c:	439c                	lw	a5,0(a5)
    4d0e:	4585                	li	a1,1
    4d10:	853e                	mv	a0,a5
    4d12:	9f5fc0ef          	jal	ra,1706 <SPI_Cmd>
C:\Users\windows\Desktop\A_Dual\A_Dual1\Dual-core_Communication_Demo\Dual-core_Communication_Demo\MASTER\obj/../Libraries/seekfree_libraries/zf_spi.c:138

}
    4d16:	0001                	nop
    4d18:	40b6                	lw	ra,76(sp)
    4d1a:	4426                	lw	s0,72(sp)
    4d1c:	6161                	addi	sp,sp,80
    4d1e:	8082                	ret

00004d20 <spi_mosi>:
spi_mosi():
C:\Users\windows\Desktop\A_Dual\A_Dual1\Dual-core_Communication_Demo\Dual-core_Communication_Demo\MASTER\obj/../Libraries/seekfree_libraries/zf_spi.c:151
//  @return     void
//  @since      v2.0
//  Sample usage:               spi_mosi(SPI_1, buf, buf, 1);    //modatamidata1
//-------------------------------------------------------------------------------------------------------------------
void spi_mosi(SPIN_enum spi_n, uint8 *modata, uint8 *midata, uint32 len)
{
    4d20:	1101                	addi	sp,sp,-32
    4d22:	ce22                	sw	s0,28(sp)
    4d24:	1000                	addi	s0,sp,32
    4d26:	fea42623          	sw	a0,-20(s0)
    4d2a:	feb42423          	sw	a1,-24(s0)
    4d2e:	fec42223          	sw	a2,-28(s0)
    4d32:	fed42023          	sw	a3,-32(s0)
C:\Users\windows\Desktop\A_Dual\A_Dual1\Dual-core_Communication_Demo\Dual-core_Communication_Demo\MASTER\obj/../Libraries/seekfree_libraries/zf_spi.c:152
    while(len--)
    4d36:	a859                	j	4dcc <spi_mosi+0xac>
C:\Users\windows\Desktop\A_Dual\A_Dual1\Dual-core_Communication_Demo\Dual-core_Communication_Demo\MASTER\obj/../Libraries/seekfree_libraries/zf_spi.c:154
    {
        while((((SPI_TypeDef *)(SPIN[spi_n]))->STATR & SPI_I2S_FLAG_TXE) == RESET);
    4d38:	0001                	nop
C:\Users\windows\Desktop\A_Dual\A_Dual1\Dual-core_Communication_Demo\Dual-core_Communication_Demo\MASTER\obj/../Libraries/seekfree_libraries/zf_spi.c:154 (discriminator 1)
    4d3a:	fec42703          	lw	a4,-20(s0)
    4d3e:	070a                	slli	a4,a4,0x2
    4d40:	80c18793          	addi	a5,gp,-2036 # 2000007c <SPIN>
    4d44:	97ba                	add	a5,a5,a4
    4d46:	439c                	lw	a5,0(a5)
    4d48:	0087d783          	lhu	a5,8(a5)
    4d4c:	07c2                	slli	a5,a5,0x10
    4d4e:	83c1                	srli	a5,a5,0x10
    4d50:	8b89                	andi	a5,a5,2
    4d52:	d7e5                	beqz	a5,4d3a <spi_mosi+0x1a>
C:\Users\windows\Desktop\A_Dual\A_Dual1\Dual-core_Communication_Demo\Dual-core_Communication_Demo\MASTER\obj/../Libraries/seekfree_libraries/zf_spi.c:155
        ((SPI_TypeDef *)(SPIN[spi_n]))->DATAR = *(modata++);
    4d54:	fe842783          	lw	a5,-24(s0)
    4d58:	00178713          	addi	a4,a5,1
    4d5c:	fee42423          	sw	a4,-24(s0)
    4d60:	0007c683          	lbu	a3,0(a5)
    4d64:	fec42703          	lw	a4,-20(s0)
    4d68:	070a                	slli	a4,a4,0x2
    4d6a:	80c18793          	addi	a5,gp,-2036 # 2000007c <SPIN>
    4d6e:	97ba                	add	a5,a5,a4
    4d70:	439c                	lw	a5,0(a5)
    4d72:	873e                	mv	a4,a5
    4d74:	01069793          	slli	a5,a3,0x10
    4d78:	83c1                	srli	a5,a5,0x10
    4d7a:	00f71623          	sh	a5,12(a4) # 1000c <_data_lma+0x6920>
C:\Users\windows\Desktop\A_Dual\A_Dual1\Dual-core_Communication_Demo\Dual-core_Communication_Demo\MASTER\obj/../Libraries/seekfree_libraries/zf_spi.c:156
        if(NULL != midata)
    4d7e:	fe442783          	lw	a5,-28(s0)
    4d82:	c7a9                	beqz	a5,4dcc <spi_mosi+0xac>
C:\Users\windows\Desktop\A_Dual\A_Dual1\Dual-core_Communication_Demo\Dual-core_Communication_Demo\MASTER\obj/../Libraries/seekfree_libraries/zf_spi.c:158
        {
            while((((SPI_TypeDef *)(SPIN[spi_n]))->STATR & SPI_I2S_FLAG_RXNE) == RESET);
    4d84:	0001                	nop
C:\Users\windows\Desktop\A_Dual\A_Dual1\Dual-core_Communication_Demo\Dual-core_Communication_Demo\MASTER\obj/../Libraries/seekfree_libraries/zf_spi.c:158 (discriminator 1)
    4d86:	fec42703          	lw	a4,-20(s0)
    4d8a:	070a                	slli	a4,a4,0x2
    4d8c:	80c18793          	addi	a5,gp,-2036 # 2000007c <SPIN>
    4d90:	97ba                	add	a5,a5,a4
    4d92:	439c                	lw	a5,0(a5)
    4d94:	0087d783          	lhu	a5,8(a5)
    4d98:	07c2                	slli	a5,a5,0x10
    4d9a:	83c1                	srli	a5,a5,0x10
    4d9c:	8b85                	andi	a5,a5,1
    4d9e:	d7e5                	beqz	a5,4d86 <spi_mosi+0x66>
C:\Users\windows\Desktop\A_Dual\A_Dual1\Dual-core_Communication_Demo\Dual-core_Communication_Demo\MASTER\obj/../Libraries/seekfree_libraries/zf_spi.c:159
            *(midata++) = ((SPI_TypeDef *)(SPIN[spi_n]))->DATAR;
    4da0:	fec42703          	lw	a4,-20(s0)
    4da4:	070a                	slli	a4,a4,0x2
    4da6:	80c18793          	addi	a5,gp,-2036 # 2000007c <SPIN>
    4daa:	97ba                	add	a5,a5,a4
    4dac:	439c                	lw	a5,0(a5)
    4dae:	00c7d783          	lhu	a5,12(a5)
    4db2:	01079693          	slli	a3,a5,0x10
    4db6:	82c1                	srli	a3,a3,0x10
    4db8:	fe442783          	lw	a5,-28(s0)
    4dbc:	00178713          	addi	a4,a5,1
    4dc0:	fee42223          	sw	a4,-28(s0)
    4dc4:	0ff6f713          	andi	a4,a3,255
    4dc8:	00e78023          	sb	a4,0(a5)
C:\Users\windows\Desktop\A_Dual\A_Dual1\Dual-core_Communication_Demo\Dual-core_Communication_Demo\MASTER\obj/../Libraries/seekfree_libraries/zf_spi.c:152
    while(len--)
    4dcc:	fe042783          	lw	a5,-32(s0)
    4dd0:	fff78713          	addi	a4,a5,-1
    4dd4:	fee42023          	sw	a4,-32(s0)
    4dd8:	f3a5                	bnez	a5,4d38 <spi_mosi+0x18>
C:\Users\windows\Desktop\A_Dual\A_Dual1\Dual-core_Communication_Demo\Dual-core_Communication_Demo\MASTER\obj/../Libraries/seekfree_libraries/zf_spi.c:162
        }
    }
}
    4dda:	0001                	nop
    4ddc:	4472                	lw	s0,28(sp)
    4dde:	6105                	addi	sp,sp,32
    4de0:	8082                	ret

00004de2 <systick_delay>:
systick_delay():
C:\Users\windows\Desktop\A_Dual\A_Dual1\Dual-core_Communication_Demo\Dual-core_Communication_Demo\MASTER\obj/../Libraries/seekfree_libraries/zf_systick.c:29
//  @param      time                us
//  @return     void
//  Sample usage:                   
//-------------------------------------------------------------------------------------------------------------------
void systick_delay(uint64 time)
{
    4de2:	1101                	addi	sp,sp,-32
    4de4:	ce22                	sw	s0,28(sp)
    4de6:	1000                	addi	s0,sp,32
    4de8:	fea42423          	sw	a0,-24(s0)
    4dec:	feb42623          	sw	a1,-20(s0)
C:\Users\windows\Desktop\A_Dual\A_Dual1\Dual-core_Communication_Demo\Dual-core_Communication_Demo\MASTER\obj/../Libraries/seekfree_libraries/zf_systick.c:30
    SysTick->CTLR = 0;
    4df0:	e000f737          	lui	a4,0xe000f
    4df4:	00072023          	sw	zero,0(a4) # e000f000 <_eusrstack+0xc000a000>
C:\Users\windows\Desktop\A_Dual\A_Dual1\Dual-core_Communication_Demo\Dual-core_Communication_Demo\MASTER\obj/../Libraries/seekfree_libraries/zf_systick.c:31
    SysTick->CNTL0 = 0;
    4df8:	e000f737          	lui	a4,0xe000f
    4dfc:	00070223          	sb	zero,4(a4) # e000f004 <_eusrstack+0xc000a004>
C:\Users\windows\Desktop\A_Dual\A_Dual1\Dual-core_Communication_Demo\Dual-core_Communication_Demo\MASTER\obj/../Libraries/seekfree_libraries/zf_systick.c:32
    SysTick->CNTL1 = 0;
    4e00:	e000f737          	lui	a4,0xe000f
    4e04:	000702a3          	sb	zero,5(a4) # e000f005 <_eusrstack+0xc000a005>
C:\Users\windows\Desktop\A_Dual\A_Dual1\Dual-core_Communication_Demo\Dual-core_Communication_Demo\MASTER\obj/../Libraries/seekfree_libraries/zf_systick.c:33
    SysTick->CNTL2 = 0;
    4e08:	e000f737          	lui	a4,0xe000f
    4e0c:	00070323          	sb	zero,6(a4) # e000f006 <_eusrstack+0xc000a006>
C:\Users\windows\Desktop\A_Dual\A_Dual1\Dual-core_Communication_Demo\Dual-core_Communication_Demo\MASTER\obj/../Libraries/seekfree_libraries/zf_systick.c:34
    SysTick->CNTL3 = 0;
    4e10:	e000f737          	lui	a4,0xe000f
    4e14:	000703a3          	sb	zero,7(a4) # e000f007 <_eusrstack+0xc000a007>
C:\Users\windows\Desktop\A_Dual\A_Dual1\Dual-core_Communication_Demo\Dual-core_Communication_Demo\MASTER\obj/../Libraries/seekfree_libraries/zf_systick.c:35
    SysTick->CNTH0 = 0;
    4e18:	e000f737          	lui	a4,0xe000f
    4e1c:	00070423          	sb	zero,8(a4) # e000f008 <_eusrstack+0xc000a008>
C:\Users\windows\Desktop\A_Dual\A_Dual1\Dual-core_Communication_Demo\Dual-core_Communication_Demo\MASTER\obj/../Libraries/seekfree_libraries/zf_systick.c:36
    SysTick->CNTH1 = 0;
    4e20:	e000f737          	lui	a4,0xe000f
    4e24:	000704a3          	sb	zero,9(a4) # e000f009 <_eusrstack+0xc000a009>
C:\Users\windows\Desktop\A_Dual\A_Dual1\Dual-core_Communication_Demo\Dual-core_Communication_Demo\MASTER\obj/../Libraries/seekfree_libraries/zf_systick.c:37
    SysTick->CNTH2 = 0;
    4e28:	e000f737          	lui	a4,0xe000f
    4e2c:	00070523          	sb	zero,10(a4) # e000f00a <_eusrstack+0xc000a00a>
C:\Users\windows\Desktop\A_Dual\A_Dual1\Dual-core_Communication_Demo\Dual-core_Communication_Demo\MASTER\obj/../Libraries/seekfree_libraries/zf_systick.c:38
    SysTick->CNTH3 = 0;
    4e30:	e000f737          	lui	a4,0xe000f
    4e34:	000705a3          	sb	zero,11(a4) # e000f00b <_eusrstack+0xc000a00b>
C:\Users\windows\Desktop\A_Dual\A_Dual1\Dual-core_Communication_Demo\Dual-core_Communication_Demo\MASTER\obj/../Libraries/seekfree_libraries/zf_systick.c:39
    SysTick->CTLR = 1;          // systickHCLK/8  us
    4e38:	e000f737          	lui	a4,0xe000f
    4e3c:	4685                	li	a3,1
    4e3e:	c314                	sw	a3,0(a4)
C:\Users\windows\Desktop\A_Dual\A_Dual1\Dual-core_Communication_Demo\Dual-core_Communication_Demo\MASTER\obj/../Libraries/seekfree_libraries/zf_systick.c:41

    while((*(volatile uint32*)0xE000F004) <= time);
    4e40:	0001                	nop
C:\Users\windows\Desktop\A_Dual\A_Dual1\Dual-core_Communication_Demo\Dual-core_Communication_Demo\MASTER\obj/../Libraries/seekfree_libraries/zf_systick.c:41 (discriminator 1)
    4e42:	e000f737          	lui	a4,0xe000f
    4e46:	0711                	addi	a4,a4,4
    4e48:	4318                	lw	a4,0(a4)
    4e4a:	87ba                	mv	a5,a4
    4e4c:	4801                	li	a6,0
    4e4e:	fec42703          	lw	a4,-20(s0)
    4e52:	86c2                	mv	a3,a6
    4e54:	00d76d63          	bltu	a4,a3,4e6e <systick_delay+0x8c>
    4e58:	fec42703          	lw	a4,-20(s0)
    4e5c:	86c2                	mv	a3,a6
    4e5e:	fed712e3          	bne	a4,a3,4e42 <systick_delay+0x60>
    4e62:	fe842703          	lw	a4,-24(s0)
    4e66:	86be                	mv	a3,a5
    4e68:	00d76363          	bltu	a4,a3,4e6e <systick_delay+0x8c>
    4e6c:	bfd9                	j	4e42 <systick_delay+0x60>
C:\Users\windows\Desktop\A_Dual\A_Dual1\Dual-core_Communication_Demo\Dual-core_Communication_Demo\MASTER\obj/../Libraries/seekfree_libraries/zf_systick.c:42
}
    4e6e:	0001                	nop
    4e70:	4472                	lw	s0,28(sp)
    4e72:	6105                	addi	sp,sp,32
    4e74:	8082                	ret

00004e76 <uart_gpio_init>:
uart_gpio_init():
C:\Users\windows\Desktop\A_Dual\A_Dual1\Dual-core_Communication_Demo\Dual-core_Communication_Demo\MASTER\obj/../Libraries/seekfree_libraries/zf_uart.c:38
//  @param      rx_pin      
//  @return     void
//  Sample usage:           
//-------------------------------------------------------------------------------------------------------------------
void uart_gpio_init(UARTPIN_enum tx_pin, UARTPIN_enum rx_pin)
{
    4e76:	1101                	addi	sp,sp,-32
    4e78:	ce06                	sw	ra,28(sp)
    4e7a:	cc22                	sw	s0,24(sp)
    4e7c:	1000                	addi	s0,sp,32
    4e7e:	fea42623          	sw	a0,-20(s0)
    4e82:	feb42423          	sw	a1,-24(s0)
C:\Users\windows\Desktop\A_Dual\A_Dual1\Dual-core_Communication_Demo\Dual-core_Communication_Demo\MASTER\obj/../Libraries/seekfree_libraries/zf_uart.c:39
    if(tx_pin == UART1_TX_A9 && rx_pin == UART1_RX_A10)
    4e86:	fec42783          	lw	a5,-20(s0)
    4e8a:	e785                	bnez	a5,4eb2 <uart_gpio_init+0x3c>
C:\Users\windows\Desktop\A_Dual\A_Dual1\Dual-core_Communication_Demo\Dual-core_Communication_Demo\MASTER\obj/../Libraries/seekfree_libraries/zf_uart.c:39 (discriminator 1)
    4e8c:	fe842703          	lw	a4,-24(s0)
    4e90:	4785                	li	a5,1
    4e92:	02f71063          	bne	a4,a5,4eb2 <uart_gpio_init+0x3c>
C:\Users\windows\Desktop\A_Dual\A_Dual1\Dual-core_Communication_Demo\Dual-core_Communication_Demo\MASTER\obj/../Libraries/seekfree_libraries/zf_uart.c:41
    {
        gpio_init(A9, GPO, 0, SPEED_50MHZ|OUT_AF_PP);
    4e96:	31800693          	li	a3,792
    4e9a:	4601                	li	a2,0
    4e9c:	4585                	li	a1,1
    4e9e:	4525                	li	a0,9
    4ea0:	c93fe0ef          	jal	ra,3b32 <gpio_init>
C:\Users\windows\Desktop\A_Dual\A_Dual1\Dual-core_Communication_Demo\Dual-core_Communication_Demo\MASTER\obj/../Libraries/seekfree_libraries/zf_uart.c:42
        gpio_init(A10, GPI, 0, IN_FLOAT);
    4ea4:	4691                	li	a3,4
    4ea6:	4601                	li	a2,0
    4ea8:	4581                	li	a1,0
    4eaa:	4529                	li	a0,10
    4eac:	c87fe0ef          	jal	ra,3b32 <gpio_init>
C:\Users\windows\Desktop\A_Dual\A_Dual1\Dual-core_Communication_Demo\Dual-core_Communication_Demo\MASTER\obj/../Libraries/seekfree_libraries/zf_uart.c:67
    else if(tx_pin == UART3_TX_C10)
    {
        gpio_init(C10, GPO, 0, SPEED_50MHZ|OUT_AF_PP);
        gpio_init(C11, GPI, 0, IN_FLOAT);
    }
}
    4eb0:	a065                	j	4f58 <uart_gpio_init+0xe2>
C:\Users\windows\Desktop\A_Dual\A_Dual1\Dual-core_Communication_Demo\Dual-core_Communication_Demo\MASTER\obj/../Libraries/seekfree_libraries/zf_uart.c:44
    else if(tx_pin == UART1_TX_B6)
    4eb2:	fec42703          	lw	a4,-20(s0)
    4eb6:	4789                	li	a5,2
    4eb8:	02f71263          	bne	a4,a5,4edc <uart_gpio_init+0x66>
C:\Users\windows\Desktop\A_Dual\A_Dual1\Dual-core_Communication_Demo\Dual-core_Communication_Demo\MASTER\obj/../Libraries/seekfree_libraries/zf_uart.c:46
        gpio_init(B6, GPO, 0, SPEED_50MHZ|OUT_AF_PP);
    4ebc:	31800693          	li	a3,792
    4ec0:	4601                	li	a2,0
    4ec2:	4585                	li	a1,1
    4ec4:	02600513          	li	a0,38
    4ec8:	c6bfe0ef          	jal	ra,3b32 <gpio_init>
C:\Users\windows\Desktop\A_Dual\A_Dual1\Dual-core_Communication_Demo\Dual-core_Communication_Demo\MASTER\obj/../Libraries/seekfree_libraries/zf_uart.c:47
        gpio_init(B7, GPI, 0, IN_FLOAT);
    4ecc:	4691                	li	a3,4
    4ece:	4601                	li	a2,0
    4ed0:	4581                	li	a1,0
    4ed2:	02700513          	li	a0,39
    4ed6:	c5dfe0ef          	jal	ra,3b32 <gpio_init>
C:\Users\windows\Desktop\A_Dual\A_Dual1\Dual-core_Communication_Demo\Dual-core_Communication_Demo\MASTER\obj/../Libraries/seekfree_libraries/zf_uart.c:67
}
    4eda:	a8bd                	j	4f58 <uart_gpio_init+0xe2>
C:\Users\windows\Desktop\A_Dual\A_Dual1\Dual-core_Communication_Demo\Dual-core_Communication_Demo\MASTER\obj/../Libraries/seekfree_libraries/zf_uart.c:50
    else if(tx_pin == UART2_TX_A2)
    4edc:	fec42703          	lw	a4,-20(s0)
    4ee0:	47c1                	li	a5,16
    4ee2:	02f71063          	bne	a4,a5,4f02 <uart_gpio_init+0x8c>
C:\Users\windows\Desktop\A_Dual\A_Dual1\Dual-core_Communication_Demo\Dual-core_Communication_Demo\MASTER\obj/../Libraries/seekfree_libraries/zf_uart.c:52
        gpio_init(A2, GPO, 0, SPEED_50MHZ|OUT_AF_PP);
    4ee6:	31800693          	li	a3,792
    4eea:	4601                	li	a2,0
    4eec:	4585                	li	a1,1
    4eee:	4509                	li	a0,2
    4ef0:	c43fe0ef          	jal	ra,3b32 <gpio_init>
C:\Users\windows\Desktop\A_Dual\A_Dual1\Dual-core_Communication_Demo\Dual-core_Communication_Demo\MASTER\obj/../Libraries/seekfree_libraries/zf_uart.c:53
        gpio_init(A3, GPI, 0, IN_FLOAT);
    4ef4:	4691                	li	a3,4
    4ef6:	4601                	li	a2,0
    4ef8:	4581                	li	a1,0
    4efa:	450d                	li	a0,3
    4efc:	c37fe0ef          	jal	ra,3b32 <gpio_init>
C:\Users\windows\Desktop\A_Dual\A_Dual1\Dual-core_Communication_Demo\Dual-core_Communication_Demo\MASTER\obj/../Libraries/seekfree_libraries/zf_uart.c:67
}
    4f00:	a8a1                	j	4f58 <uart_gpio_init+0xe2>
C:\Users\windows\Desktop\A_Dual\A_Dual1\Dual-core_Communication_Demo\Dual-core_Communication_Demo\MASTER\obj/../Libraries/seekfree_libraries/zf_uart.c:56
    else if(tx_pin == UART3_TX_B10)
    4f02:	fec42703          	lw	a4,-20(s0)
    4f06:	02000793          	li	a5,32
    4f0a:	02f71263          	bne	a4,a5,4f2e <uart_gpio_init+0xb8>
C:\Users\windows\Desktop\A_Dual\A_Dual1\Dual-core_Communication_Demo\Dual-core_Communication_Demo\MASTER\obj/../Libraries/seekfree_libraries/zf_uart.c:58
        gpio_init(B10, GPO, 0, SPEED_50MHZ|OUT_AF_PP);
    4f0e:	31800693          	li	a3,792
    4f12:	4601                	li	a2,0
    4f14:	4585                	li	a1,1
    4f16:	02a00513          	li	a0,42
    4f1a:	c19fe0ef          	jal	ra,3b32 <gpio_init>
C:\Users\windows\Desktop\A_Dual\A_Dual1\Dual-core_Communication_Demo\Dual-core_Communication_Demo\MASTER\obj/../Libraries/seekfree_libraries/zf_uart.c:59
        gpio_init(B11, GPI, 0, IN_FLOAT);
    4f1e:	4691                	li	a3,4
    4f20:	4601                	li	a2,0
    4f22:	4581                	li	a1,0
    4f24:	02b00513          	li	a0,43
    4f28:	c0bfe0ef          	jal	ra,3b32 <gpio_init>
C:\Users\windows\Desktop\A_Dual\A_Dual1\Dual-core_Communication_Demo\Dual-core_Communication_Demo\MASTER\obj/../Libraries/seekfree_libraries/zf_uart.c:67
}
    4f2c:	a035                	j	4f58 <uart_gpio_init+0xe2>
C:\Users\windows\Desktop\A_Dual\A_Dual1\Dual-core_Communication_Demo\Dual-core_Communication_Demo\MASTER\obj/../Libraries/seekfree_libraries/zf_uart.c:62
    else if(tx_pin == UART3_TX_C10)
    4f2e:	fec42703          	lw	a4,-20(s0)
    4f32:	02200793          	li	a5,34
    4f36:	02f71163          	bne	a4,a5,4f58 <uart_gpio_init+0xe2>
C:\Users\windows\Desktop\A_Dual\A_Dual1\Dual-core_Communication_Demo\Dual-core_Communication_Demo\MASTER\obj/../Libraries/seekfree_libraries/zf_uart.c:64
        gpio_init(C10, GPO, 0, SPEED_50MHZ|OUT_AF_PP);
    4f3a:	31800693          	li	a3,792
    4f3e:	4601                	li	a2,0
    4f40:	4585                	li	a1,1
    4f42:	04a00513          	li	a0,74
    4f46:	bedfe0ef          	jal	ra,3b32 <gpio_init>
C:\Users\windows\Desktop\A_Dual\A_Dual1\Dual-core_Communication_Demo\Dual-core_Communication_Demo\MASTER\obj/../Libraries/seekfree_libraries/zf_uart.c:65
        gpio_init(C11, GPI, 0, IN_FLOAT);
    4f4a:	4691                	li	a3,4
    4f4c:	4601                	li	a2,0
    4f4e:	4581                	li	a1,0
    4f50:	04b00513          	li	a0,75
    4f54:	bdffe0ef          	jal	ra,3b32 <gpio_init>
C:\Users\windows\Desktop\A_Dual\A_Dual1\Dual-core_Communication_Demo\Dual-core_Communication_Demo\MASTER\obj/../Libraries/seekfree_libraries/zf_uart.c:67
}
    4f58:	0001                	nop
    4f5a:	40f2                	lw	ra,28(sp)
    4f5c:	4462                	lw	s0,24(sp)
    4f5e:	6105                	addi	sp,sp,32
    4f60:	8082                	ret

00004f62 <uart_init>:
uart_init():
C:\Users\windows\Desktop\A_Dual\A_Dual1\Dual-core_Communication_Demo\Dual-core_Communication_Demo\MASTER\obj/../Libraries/seekfree_libraries/zf_uart.c:79
//  @param      rx_pin      
//  @return     void
//  Sample usage:           uart_init(UART_1, 115200, UART1_TX_A9, UART1_RX_A10); //1,TXA9,RXA10
//-------------------------------------------------------------------------------------------------------------------
void uart_init(UARTN_enum uartn, uint32 baud, UARTPIN_enum tx_pin, UARTPIN_enum rx_pin)
{
    4f62:	7179                	addi	sp,sp,-48
    4f64:	d606                	sw	ra,44(sp)
    4f66:	d422                	sw	s0,40(sp)
    4f68:	1800                	addi	s0,sp,48
    4f6a:	fca42e23          	sw	a0,-36(s0)
    4f6e:	fcb42c23          	sw	a1,-40(s0)
    4f72:	fcc42a23          	sw	a2,-44(s0)
    4f76:	fcd42823          	sw	a3,-48(s0)
C:\Users\windows\Desktop\A_Dual\A_Dual1\Dual-core_Communication_Demo\Dual-core_Communication_Demo\MASTER\obj/../Libraries/seekfree_libraries/zf_uart.c:83
    USART_InitTypeDef USART_InitStructure;


    RCC_APB2PeriphClockCmd(RCC_APB2Periph_AFIO, ENABLE);
    4f7a:	4585                	li	a1,1
    4f7c:	4505                	li	a0,1
    4f7e:	e04fc0ef          	jal	ra,1582 <RCC_APB2PeriphClockCmd>
C:\Users\windows\Desktop\A_Dual\A_Dual1\Dual-core_Communication_Demo\Dual-core_Communication_Demo\MASTER\obj/../Libraries/seekfree_libraries/zf_uart.c:86

    //
    uart_gpio_init(tx_pin, rx_pin);
    4f82:	fd042583          	lw	a1,-48(s0)
    4f86:	fd442503          	lw	a0,-44(s0)
    4f8a:	eedff0ef          	jal	ra,4e76 <uart_gpio_init>
C:\Users\windows\Desktop\A_Dual\A_Dual1\Dual-core_Communication_Demo\Dual-core_Communication_Demo\MASTER\obj/../Libraries/seekfree_libraries/zf_uart.c:88

    if(UART1_TX_B6 == tx_pin && UART1_RX_B7 == rx_pin)                         //
    4f8e:	fd442703          	lw	a4,-44(s0)
    4f92:	4789                	li	a5,2
    4f94:	00f71b63          	bne	a4,a5,4faa <uart_init+0x48>
C:\Users\windows\Desktop\A_Dual\A_Dual1\Dual-core_Communication_Demo\Dual-core_Communication_Demo\MASTER\obj/../Libraries/seekfree_libraries/zf_uart.c:88 (discriminator 1)
    4f98:	fd042703          	lw	a4,-48(s0)
    4f9c:	478d                	li	a5,3
    4f9e:	00f71663          	bne	a4,a5,4faa <uart_init+0x48>
C:\Users\windows\Desktop\A_Dual\A_Dual1\Dual-core_Communication_Demo\Dual-core_Communication_Demo\MASTER\obj/../Libraries/seekfree_libraries/zf_uart.c:89
        GPIO_PinRemapConfig(GPIO_Remap_USART1, ENABLE);
    4fa2:	4585                	li	a1,1
    4fa4:	4511                	li	a0,4
    4fa6:	892fc0ef          	jal	ra,1038 <GPIO_PinRemapConfig>
C:\Users\windows\Desktop\A_Dual\A_Dual1\Dual-core_Communication_Demo\Dual-core_Communication_Demo\MASTER\obj/../Libraries/seekfree_libraries/zf_uart.c:90
    if(UART3_TX_C10 == tx_pin && UART3_RX_C11 == rx_pin)
    4faa:	fd442703          	lw	a4,-44(s0)
    4fae:	02200793          	li	a5,34
    4fb2:	00f71f63          	bne	a4,a5,4fd0 <uart_init+0x6e>
C:\Users\windows\Desktop\A_Dual\A_Dual1\Dual-core_Communication_Demo\Dual-core_Communication_Demo\MASTER\obj/../Libraries/seekfree_libraries/zf_uart.c:90 (discriminator 1)
    4fb6:	fd042703          	lw	a4,-48(s0)
    4fba:	02300793          	li	a5,35
    4fbe:	00f71963          	bne	a4,a5,4fd0 <uart_init+0x6e>
C:\Users\windows\Desktop\A_Dual\A_Dual1\Dual-core_Communication_Demo\Dual-core_Communication_Demo\MASTER\obj/../Libraries/seekfree_libraries/zf_uart.c:91
        GPIO_PinRemapConfig(GPIO_PartialRemap_USART3, ENABLE);
    4fc2:	4585                	li	a1,1
    4fc4:	001407b7          	lui	a5,0x140
    4fc8:	01078513          	addi	a0,a5,16 # 140010 <_data_lma+0x136924>
    4fcc:	86cfc0ef          	jal	ra,1038 <GPIO_PinRemapConfig>
C:\Users\windows\Desktop\A_Dual\A_Dual1\Dual-core_Communication_Demo\Dual-core_Communication_Demo\MASTER\obj/../Libraries/seekfree_libraries/zf_uart.c:94

    //
    if(UART_1 == uartn) RCC_APB2PeriphClockCmd(RCC_APB2Periph_USART1, ENABLE);
    4fd0:	fdc42783          	lw	a5,-36(s0)
    4fd4:	e791                	bnez	a5,4fe0 <uart_init+0x7e>
C:\Users\windows\Desktop\A_Dual\A_Dual1\Dual-core_Communication_Demo\Dual-core_Communication_Demo\MASTER\obj/../Libraries/seekfree_libraries/zf_uart.c:94 (discriminator 1)
    4fd6:	4585                	li	a1,1
    4fd8:	6511                	lui	a0,0x4
    4fda:	da8fc0ef          	jal	ra,1582 <RCC_APB2PeriphClockCmd>
    4fde:	a035                	j	500a <uart_init+0xa8>
C:\Users\windows\Desktop\A_Dual\A_Dual1\Dual-core_Communication_Demo\Dual-core_Communication_Demo\MASTER\obj/../Libraries/seekfree_libraries/zf_uart.c:95
    else if(UART_2 == uartn) RCC_APB1PeriphClockCmd(RCC_APB1Periph_USART2, ENABLE);
    4fe0:	fdc42703          	lw	a4,-36(s0)
    4fe4:	4785                	li	a5,1
    4fe6:	00f71863          	bne	a4,a5,4ff6 <uart_init+0x94>
C:\Users\windows\Desktop\A_Dual\A_Dual1\Dual-core_Communication_Demo\Dual-core_Communication_Demo\MASTER\obj/../Libraries/seekfree_libraries/zf_uart.c:95 (discriminator 1)
    4fea:	4585                	li	a1,1
    4fec:	00020537          	lui	a0,0x20
    4ff0:	dd8fc0ef          	jal	ra,15c8 <RCC_APB1PeriphClockCmd>
    4ff4:	a819                	j	500a <uart_init+0xa8>
C:\Users\windows\Desktop\A_Dual\A_Dual1\Dual-core_Communication_Demo\Dual-core_Communication_Demo\MASTER\obj/../Libraries/seekfree_libraries/zf_uart.c:96
    else if(UART_3 == uartn) RCC_APB1PeriphClockCmd(RCC_APB1Periph_USART3, ENABLE);
    4ff6:	fdc42703          	lw	a4,-36(s0)
    4ffa:	4789                	li	a5,2
    4ffc:	00f71763          	bne	a4,a5,500a <uart_init+0xa8>
C:\Users\windows\Desktop\A_Dual\A_Dual1\Dual-core_Communication_Demo\Dual-core_Communication_Demo\MASTER\obj/../Libraries/seekfree_libraries/zf_uart.c:96 (discriminator 1)
    5000:	4585                	li	a1,1
    5002:	00040537          	lui	a0,0x40
    5006:	dc2fc0ef          	jal	ra,15c8 <RCC_APB1PeriphClockCmd>
C:\Users\windows\Desktop\A_Dual\A_Dual1\Dual-core_Communication_Demo\Dual-core_Communication_Demo\MASTER\obj/../Libraries/seekfree_libraries/zf_uart.c:99

    //
    USART_InitStructure.USART_BaudRate = baud;
    500a:	fd842783          	lw	a5,-40(s0)
    500e:	fef42023          	sw	a5,-32(s0)
C:\Users\windows\Desktop\A_Dual\A_Dual1\Dual-core_Communication_Demo\Dual-core_Communication_Demo\MASTER\obj/../Libraries/seekfree_libraries/zf_uart.c:100
    USART_InitStructure.USART_WordLength = USART_WordLength_8b;
    5012:	fe041223          	sh	zero,-28(s0)
C:\Users\windows\Desktop\A_Dual\A_Dual1\Dual-core_Communication_Demo\Dual-core_Communication_Demo\MASTER\obj/../Libraries/seekfree_libraries/zf_uart.c:101
    USART_InitStructure.USART_StopBits = USART_StopBits_1;
    5016:	fe041323          	sh	zero,-26(s0)
C:\Users\windows\Desktop\A_Dual\A_Dual1\Dual-core_Communication_Demo\Dual-core_Communication_Demo\MASTER\obj/../Libraries/seekfree_libraries/zf_uart.c:102
    USART_InitStructure.USART_Parity = USART_Parity_No;
    501a:	fe041423          	sh	zero,-24(s0)
C:\Users\windows\Desktop\A_Dual\A_Dual1\Dual-core_Communication_Demo\Dual-core_Communication_Demo\MASTER\obj/../Libraries/seekfree_libraries/zf_uart.c:103
    USART_InitStructure.USART_HardwareFlowControl = USART_HardwareFlowControl_None;
    501e:	fe041623          	sh	zero,-20(s0)
C:\Users\windows\Desktop\A_Dual\A_Dual1\Dual-core_Communication_Demo\Dual-core_Communication_Demo\MASTER\obj/../Libraries/seekfree_libraries/zf_uart.c:104
    USART_InitStructure.USART_Mode = USART_Mode_Tx | USART_Mode_Rx;
    5022:	47b1                	li	a5,12
    5024:	fef41523          	sh	a5,-22(s0)
C:\Users\windows\Desktop\A_Dual\A_Dual1\Dual-core_Communication_Demo\Dual-core_Communication_Demo\MASTER\obj/../Libraries/seekfree_libraries/zf_uart.c:107

    //
    USART_Init((USART_TypeDef*)UARTN[uartn], &USART_InitStructure);
    5028:	67a5                	lui	a5,0x9
    502a:	fdc42703          	lw	a4,-36(s0)
    502e:	070a                	slli	a4,a4,0x2
    5030:	48078793          	addi	a5,a5,1152 # 9480 <UARTN>
    5034:	97ba                	add	a5,a5,a4
    5036:	439c                	lw	a5,0(a5)
    5038:	873e                	mv	a4,a5
    503a:	fe040793          	addi	a5,s0,-32
    503e:	85be                	mv	a1,a5
    5040:	853a                	mv	a0,a4
    5042:	b32fd0ef          	jal	ra,2374 <USART_Init>
C:\Users\windows\Desktop\A_Dual\A_Dual1\Dual-core_Communication_Demo\Dual-core_Communication_Demo\MASTER\obj/../Libraries/seekfree_libraries/zf_uart.c:108
    USART_Cmd((USART_TypeDef*)UARTN[uartn], ENABLE);
    5046:	67a5                	lui	a5,0x9
    5048:	fdc42703          	lw	a4,-36(s0)
    504c:	070a                	slli	a4,a4,0x2
    504e:	48078793          	addi	a5,a5,1152 # 9480 <UARTN>
    5052:	97ba                	add	a5,a5,a4
    5054:	439c                	lw	a5,0(a5)
    5056:	4585                	li	a1,1
    5058:	853e                	mv	a0,a5
    505a:	d4efd0ef          	jal	ra,25a8 <USART_Cmd>
C:\Users\windows\Desktop\A_Dual\A_Dual1\Dual-core_Communication_Demo\Dual-core_Communication_Demo\MASTER\obj/../Libraries/seekfree_libraries/zf_uart.c:111


}
    505e:	0001                	nop
    5060:	50b2                	lw	ra,44(sp)
    5062:	5422                	lw	s0,40(sp)
    5064:	6145                	addi	sp,sp,48
    5066:	8082                	ret

00005068 <uart_rx_irq>:
uart_rx_irq():
C:\Users\windows\Desktop\A_Dual\A_Dual1\Dual-core_Communication_Demo\Dual-core_Communication_Demo\MASTER\obj/../Libraries/seekfree_libraries/zf_uart.c:165
//  @param      status      
//  @return     void
//  Sample usage:           uart_rx_irq(UART_1, ENABLE);        //1
//-------------------------------------------------------------------------------------------------------------------
void uart_rx_irq(UARTN_enum uartn,uint8 status)
{
    5068:	1101                	addi	sp,sp,-32
    506a:	ce06                	sw	ra,28(sp)
    506c:	cc22                	sw	s0,24(sp)
    506e:	1000                	addi	s0,sp,32
    5070:	fea42623          	sw	a0,-20(s0)
    5074:	87ae                	mv	a5,a1
    5076:	fef405a3          	sb	a5,-21(s0)
C:\Users\windows\Desktop\A_Dual\A_Dual1\Dual-core_Communication_Demo\Dual-core_Communication_Demo\MASTER\obj/../Libraries/seekfree_libraries/zf_uart.c:166
    USART_ITConfig(((USART_TypeDef*)UARTN[uartn]), USART_IT_RXNE, ENABLE);
    507a:	67a5                	lui	a5,0x9
    507c:	fec42703          	lw	a4,-20(s0)
    5080:	070a                	slli	a4,a4,0x2
    5082:	48078793          	addi	a5,a5,1152 # 9480 <UARTN>
    5086:	97ba                	add	a5,a5,a4
    5088:	439c                	lw	a5,0(a5)
    508a:	4605                	li	a2,1
    508c:	52500593          	li	a1,1317
    5090:	853e                	mv	a0,a5
    5092:	d76fd0ef          	jal	ra,2608 <USART_ITConfig>
C:\Users\windows\Desktop\A_Dual\A_Dual1\Dual-core_Communication_Demo\Dual-core_Communication_Demo\MASTER\obj/../Libraries/seekfree_libraries/zf_uart.c:167
    nvic_init(USART1_IRQn + uartn, 0, 0, status);
    5096:	fec42783          	lw	a5,-20(s0)
    509a:	03578793          	addi	a5,a5,53
    509e:	feb44703          	lbu	a4,-21(s0)
    50a2:	86ba                	mv	a3,a4
    50a4:	4601                	li	a2,0
    50a6:	4581                	li	a1,0
    50a8:	853e                	mv	a0,a5
    50aa:	d2dfe0ef          	jal	ra,3dd6 <nvic_init>
C:\Users\windows\Desktop\A_Dual\A_Dual1\Dual-core_Communication_Demo\Dual-core_Communication_Demo\MASTER\obj/../Libraries/seekfree_libraries/zf_uart.c:168
}
    50ae:	0001                	nop
    50b0:	40f2                	lw	ra,28(sp)
    50b2:	4462                	lw	s0,24(sp)
    50b4:	6105                	addi	sp,sp,32
    50b6:	8082                	ret

000050b8 <board_init>:
board_init():
C:\Users\windows\Desktop\A_Dual\A_Dual1\Dual-core_Communication_Demo\Dual-core_Communication_Demo\MASTER\obj/../Libraries/board/board.c:9




void board_init(void)
{
    50b8:	1141                	addi	sp,sp,-16
    50ba:	c606                	sw	ra,12(sp)
    50bc:	c422                	sw	s0,8(sp)
    50be:	0800                	addi	s0,sp,16
C:\Users\windows\Desktop\A_Dual\A_Dual1\Dual-core_Communication_Demo\Dual-core_Communication_Demo\MASTER\obj/../Libraries/board/board.c:11
    //
    sys_clk = 8000000 * (((RCC->CFGR0 >> 18)&0x0F) + 2);
    50c0:	400217b7          	lui	a5,0x40021
    50c4:	43dc                	lw	a5,4(a5)
    50c6:	83c9                	srli	a5,a5,0x12
    50c8:	00f7f713          	andi	a4,a5,15
    50cc:	007a17b7          	lui	a5,0x7a1
    50d0:	20078793          	addi	a5,a5,512 # 7a1200 <_data_lma+0x797b14>
    50d4:	02f70733          	mul	a4,a4,a5
    50d8:	00f427b7          	lui	a5,0xf42
    50dc:	40078793          	addi	a5,a5,1024 # f42400 <_data_lma+0xf38d14>
    50e0:	973e                	add	a4,a4,a5
    50e2:	82e1ac23          	sw	a4,-1992(gp) # 200000a8 <sys_clk>
C:\Users\windows\Desktop\A_Dual\A_Dual1\Dual-core_Communication_Demo\Dual-core_Communication_Demo\MASTER\obj/../Libraries/board/board.c:13
    //DEBUG
    uart_init(DEBUG_UART, DEBUG_UART_BAUD, DEBUG_UART_TX_PIN, DEBUG_UART_RX_PIN);
    50e6:	4685                	li	a3,1
    50e8:	4601                	li	a2,0
    50ea:	67f1                	lui	a5,0x1c
    50ec:	20078593          	addi	a1,a5,512 # 1c200 <_data_lma+0x12b14>
    50f0:	4501                	li	a0,0
    50f2:	e71ff0ef          	jal	ra,4f62 <uart_init>
C:\Users\windows\Desktop\A_Dual\A_Dual1\Dual-core_Communication_Demo\Dual-core_Communication_Demo\MASTER\obj/../Libraries/board/board.c:14
}
    50f6:	0001                	nop
    50f8:	40b2                	lw	ra,12(sp)
    50fa:	4422                	lw	s0,8(sp)
    50fc:	0141                	addi	sp,sp,16
    50fe:	8082                	ret

00005100 <_write>:
_write():
C:\Users\windows\Desktop\A_Dual\A_Dual1\Dual-core_Communication_Demo\Dual-core_Communication_Demo\MASTER\obj/../Libraries/board/board.c:25
//  @since      v1.0
//  Sample usage:              printfDEBUG
//-------------------------------------------------------------------------------------------------------------------
#if (1 == PRINTF_ENABLE)
int _write(int fd, char *buf, int size)
{
    5100:	7179                	addi	sp,sp,-48
    5102:	d606                	sw	ra,44(sp)
    5104:	d422                	sw	s0,40(sp)
    5106:	1800                	addi	s0,sp,48
    5108:	fca42e23          	sw	a0,-36(s0)
    510c:	fcb42c23          	sw	a1,-40(s0)
    5110:	fcc42a23          	sw	a2,-44(s0)
C:\Users\windows\Desktop\A_Dual\A_Dual1\Dual-core_Communication_Demo\Dual-core_Communication_Demo\MASTER\obj/../Libraries/board/board.c:27
    int i;
    for(i=0; i<size; i++)
    5114:	fe042623          	sw	zero,-20(s0)
    5118:	a099                	j	515e <_write+0x5e>
C:\Users\windows\Desktop\A_Dual\A_Dual1\Dual-core_Communication_Demo\Dual-core_Communication_Demo\MASTER\obj/../Libraries/board/board.c:29
    {
        while (USART_GetFlagStatus((USART_TypeDef*)UARTN[DEBUG_UART], USART_FLAG_TC) == RESET);
    511a:	0001                	nop
C:\Users\windows\Desktop\A_Dual\A_Dual1\Dual-core_Communication_Demo\Dual-core_Communication_Demo\MASTER\obj/../Libraries/board/board.c:29 (discriminator 1)
    511c:	67a5                	lui	a5,0x9
    511e:	4807a783          	lw	a5,1152(a5) # 9480 <UARTN>
    5122:	04000593          	li	a1,64
    5126:	853e                	mv	a0,a5
    5128:	df8fd0ef          	jal	ra,2720 <USART_GetFlagStatus>
    512c:	87aa                	mv	a5,a0
    512e:	d7fd                	beqz	a5,511c <_write+0x1c>
C:\Users\windows\Desktop\A_Dual\A_Dual1\Dual-core_Communication_Demo\Dual-core_Communication_Demo\MASTER\obj/../Libraries/board/board.c:30 (discriminator 2)
        USART_SendData((USART_TypeDef*)UARTN[DEBUG_UART], *buf++);
    5130:	67a5                	lui	a5,0x9
    5132:	4807a783          	lw	a5,1152(a5) # 9480 <UARTN>
    5136:	86be                	mv	a3,a5
    5138:	fd842783          	lw	a5,-40(s0)
    513c:	00178713          	addi	a4,a5,1
    5140:	fce42c23          	sw	a4,-40(s0)
    5144:	00078783          	lb	a5,0(a5)
    5148:	07c2                	slli	a5,a5,0x10
    514a:	83c1                	srli	a5,a5,0x10
    514c:	85be                	mv	a1,a5
    514e:	8536                	mv	a0,a3
    5150:	d7cfd0ef          	jal	ra,26cc <USART_SendData>
C:\Users\windows\Desktop\A_Dual\A_Dual1\Dual-core_Communication_Demo\Dual-core_Communication_Demo\MASTER\obj/../Libraries/board/board.c:27 (discriminator 2)
    for(i=0; i<size; i++)
    5154:	fec42783          	lw	a5,-20(s0)
    5158:	0785                	addi	a5,a5,1
    515a:	fef42623          	sw	a5,-20(s0)
C:\Users\windows\Desktop\A_Dual\A_Dual1\Dual-core_Communication_Demo\Dual-core_Communication_Demo\MASTER\obj/../Libraries/board/board.c:27 (discriminator 1)
    515e:	fec42703          	lw	a4,-20(s0)
    5162:	fd442783          	lw	a5,-44(s0)
    5166:	faf74ae3          	blt	a4,a5,511a <_write+0x1a>
C:\Users\windows\Desktop\A_Dual\A_Dual1\Dual-core_Communication_Demo\Dual-core_Communication_Demo\MASTER\obj/../Libraries/board/board.c:32
    }
    return size;
    516a:	fd442783          	lw	a5,-44(s0)
C:\Users\windows\Desktop\A_Dual\A_Dual1\Dual-core_Communication_Demo\Dual-core_Communication_Demo\MASTER\obj/../Libraries/board/board.c:33
}
    516e:	853e                	mv	a0,a5
    5170:	50b2                	lw	ra,44(sp)
    5172:	5422                	lw	s0,40(sp)
    5174:	6145                	addi	sp,sp,48
    5176:	8082                	ret

00005178 <SetSysClock>:
SetSysClock():
C:\Users\windows\Desktop\A_Dual\A_Dual1\Dual-core_Communication_Demo\Dual-core_Communication_Demo\MASTER\obj/../Libraries/board/clock_config.c:11
* Description    : Sets System clock frequency to 72MHz and configure HCLK, PCLK2 and PCLK1 prescalers.
* Input          : None
* Return         : None
*******************************************************************************************/
static void SetSysClock(void)
{
    5178:	1101                	addi	sp,sp,-32
    517a:	ce22                	sw	s0,28(sp)
    517c:	1000                	addi	s0,sp,32
C:\Users\windows\Desktop\A_Dual\A_Dual1\Dual-core_Communication_Demo\Dual-core_Communication_Demo\MASTER\obj/../Libraries/board/clock_config.c:12
    __IO uint32_t StartUpCounter = 0, HSEStatus = 0;
    517e:	fe042623          	sw	zero,-20(s0)
    5182:	fe042423          	sw	zero,-24(s0)
C:\Users\windows\Desktop\A_Dual\A_Dual1\Dual-core_Communication_Demo\Dual-core_Communication_Demo\MASTER\obj/../Libraries/board/clock_config.c:14

    RCC->CTLR |= ((uint32_t)RCC_HSEON);
    5186:	400217b7          	lui	a5,0x40021
    518a:	4394                	lw	a3,0(a5)
    518c:	400217b7          	lui	a5,0x40021
    5190:	6741                	lui	a4,0x10
    5192:	8f55                	or	a4,a4,a3
    5194:	c398                	sw	a4,0(a5)
C:\Users\windows\Desktop\A_Dual\A_Dual1\Dual-core_Communication_Demo\Dual-core_Communication_Demo\MASTER\obj/../Libraries/board/clock_config.c:19 (discriminator 2)

    /* Wait till HSE is ready and if Time out is reached exit */
    do
    {
        HSEStatus = RCC->CTLR & RCC_HSERDY;
    5196:	400217b7          	lui	a5,0x40021
    519a:	4398                	lw	a4,0(a5)
    519c:	000207b7          	lui	a5,0x20
    51a0:	8ff9                	and	a5,a5,a4
    51a2:	fef42423          	sw	a5,-24(s0)
C:\Users\windows\Desktop\A_Dual\A_Dual1\Dual-core_Communication_Demo\Dual-core_Communication_Demo\MASTER\obj/../Libraries/board/clock_config.c:20 (discriminator 2)
        StartUpCounter++;
    51a6:	fec42783          	lw	a5,-20(s0)
    51aa:	0785                	addi	a5,a5,1
    51ac:	fef42623          	sw	a5,-20(s0)
C:\Users\windows\Desktop\A_Dual\A_Dual1\Dual-core_Communication_Demo\Dual-core_Communication_Demo\MASTER\obj/../Libraries/board/clock_config.c:21 (discriminator 2)
    } while((HSEStatus == 0) && (StartUpCounter != HSE_STARTUP_TIMEOUT));
    51b0:	fe842783          	lw	a5,-24(s0)
    51b4:	e799                	bnez	a5,51c2 <SetSysClock+0x4a>
C:\Users\windows\Desktop\A_Dual\A_Dual1\Dual-core_Communication_Demo\Dual-core_Communication_Demo\MASTER\obj/../Libraries/board/clock_config.c:21 (discriminator 1)
    51b6:	fec42703          	lw	a4,-20(s0)
    51ba:	50000793          	li	a5,1280
    51be:	fcf71ce3          	bne	a4,a5,5196 <SetSysClock+0x1e>
C:\Users\windows\Desktop\A_Dual\A_Dual1\Dual-core_Communication_Demo\Dual-core_Communication_Demo\MASTER\obj/../Libraries/board/clock_config.c:23

    if ((RCC->CTLR & RCC_HSERDY) != RESET)
    51c2:	400217b7          	lui	a5,0x40021
    51c6:	4398                	lw	a4,0(a5)
    51c8:	000207b7          	lui	a5,0x20
    51cc:	8ff9                	and	a5,a5,a4
    51ce:	c789                	beqz	a5,51d8 <SetSysClock+0x60>
C:\Users\windows\Desktop\A_Dual\A_Dual1\Dual-core_Communication_Demo\Dual-core_Communication_Demo\MASTER\obj/../Libraries/board/clock_config.c:25
    {
        HSEStatus = (uint32_t)0x01;
    51d0:	4785                	li	a5,1
    51d2:	fef42423          	sw	a5,-24(s0)
    51d6:	a019                	j	51dc <SetSysClock+0x64>
C:\Users\windows\Desktop\A_Dual\A_Dual1\Dual-core_Communication_Demo\Dual-core_Communication_Demo\MASTER\obj/../Libraries/board/clock_config.c:29
    }
    else
    {
        HSEStatus = (uint32_t)0x00;
    51d8:	fe042423          	sw	zero,-24(s0)
C:\Users\windows\Desktop\A_Dual\A_Dual1\Dual-core_Communication_Demo\Dual-core_Communication_Demo\MASTER\obj/../Libraries/board/clock_config.c:32
    }

    if (HSEStatus == (uint32_t)0x01)
    51dc:	fe842703          	lw	a4,-24(s0)
    51e0:	4785                	li	a5,1
    51e2:	0cf71763          	bne	a4,a5,52b0 <SetSysClock+0x138>
C:\Users\windows\Desktop\A_Dual\A_Dual1\Dual-core_Communication_Demo\Dual-core_Communication_Demo\MASTER\obj/../Libraries/board/clock_config.c:35
    {
        /* Enable Prefetch Buffer */
        FLASH->ACTLR |= FLASH_ACTLR_PRFTBE;
    51e6:	400227b7          	lui	a5,0x40022
    51ea:	4398                	lw	a4,0(a5)
    51ec:	400227b7          	lui	a5,0x40022
    51f0:	01076713          	ori	a4,a4,16
    51f4:	c398                	sw	a4,0(a5)
C:\Users\windows\Desktop\A_Dual\A_Dual1\Dual-core_Communication_Demo\Dual-core_Communication_Demo\MASTER\obj/../Libraries/board/clock_config.c:38

        /* Flash 2 wait state */
        FLASH->ACTLR &= (uint32_t)((uint32_t)~FLASH_ACTLR_LATENCY);
    51f6:	400227b7          	lui	a5,0x40022
    51fa:	4398                	lw	a4,0(a5)
    51fc:	400227b7          	lui	a5,0x40022
    5200:	9b71                	andi	a4,a4,-4
    5202:	c398                	sw	a4,0(a5)
C:\Users\windows\Desktop\A_Dual\A_Dual1\Dual-core_Communication_Demo\Dual-core_Communication_Demo\MASTER\obj/../Libraries/board/clock_config.c:39
        FLASH->ACTLR |= (uint32_t)FLASH_ACTLR_LATENCY_2;
    5204:	400227b7          	lui	a5,0x40022
    5208:	4398                	lw	a4,0(a5)
    520a:	400227b7          	lui	a5,0x40022
    520e:	00276713          	ori	a4,a4,2
    5212:	c398                	sw	a4,0(a5)
C:\Users\windows\Desktop\A_Dual\A_Dual1\Dual-core_Communication_Demo\Dual-core_Communication_Demo\MASTER\obj/../Libraries/board/clock_config.c:42

        /* HCLK = SYSCLK */
        RCC->CFGR0 |= (uint32_t)RCC_HPRE_DIV1;
    5214:	40021737          	lui	a4,0x40021
    5218:	400217b7          	lui	a5,0x40021
    521c:	4358                	lw	a4,4(a4)
    521e:	c3d8                	sw	a4,4(a5)
C:\Users\windows\Desktop\A_Dual\A_Dual1\Dual-core_Communication_Demo\Dual-core_Communication_Demo\MASTER\obj/../Libraries/board/clock_config.c:44
        /* PCLK2 = HCLK */
        RCC->CFGR0 |= (uint32_t)RCC_PPRE2_DIV1;
    5220:	40021737          	lui	a4,0x40021
    5224:	400217b7          	lui	a5,0x40021
    5228:	4358                	lw	a4,4(a4)
    522a:	c3d8                	sw	a4,4(a5)
C:\Users\windows\Desktop\A_Dual\A_Dual1\Dual-core_Communication_Demo\Dual-core_Communication_Demo\MASTER\obj/../Libraries/board/clock_config.c:46
        /* PCLK1 = HCLK */
        RCC->CFGR0 |= (uint32_t)RCC_PPRE1_DIV1;
    522c:	40021737          	lui	a4,0x40021
    5230:	400217b7          	lui	a5,0x40021
    5234:	4358                	lw	a4,4(a4)
    5236:	c3d8                	sw	a4,4(a5)
C:\Users\windows\Desktop\A_Dual\A_Dual1\Dual-core_Communication_Demo\Dual-core_Communication_Demo\MASTER\obj/../Libraries/board/clock_config.c:49


        RCC->CFGR0 &= (uint32_t)((uint32_t)~(RCC_PLLSRC | RCC_PLLXTPRE |
    5238:	400217b7          	lui	a5,0x40021
    523c:	43d4                	lw	a3,4(a5)
    523e:	400217b7          	lui	a5,0x40021
    5242:	ffc10737          	lui	a4,0xffc10
    5246:	177d                	addi	a4,a4,-1
    5248:	8f75                	and	a4,a4,a3
    524a:	c3d8                	sw	a4,4(a5)
C:\Users\windows\Desktop\A_Dual\A_Dual1\Dual-core_Communication_Demo\Dual-core_Communication_Demo\MASTER\obj/../Libraries/board/clock_config.c:52
                                            RCC_PLLMULL));
        /*  PLL configuration: PLLCLK = HSE * ?  */
        RCC->CFGR0 |= (uint32_t)(RCC_PLLSRC_HSE | RCC_PLLMULL11);
    524c:	400217b7          	lui	a5,0x40021
    5250:	43d4                	lw	a3,4(a5)
    5252:	400217b7          	lui	a5,0x40021
    5256:	00250737          	lui	a4,0x250
    525a:	8f55                	or	a4,a4,a3
    525c:	c3d8                	sw	a4,4(a5)
C:\Users\windows\Desktop\A_Dual\A_Dual1\Dual-core_Communication_Demo\Dual-core_Communication_Demo\MASTER\obj/../Libraries/board/clock_config.c:54
        /* Enable PLL */
        RCC->CTLR |= RCC_PLLON;
    525e:	400217b7          	lui	a5,0x40021
    5262:	4394                	lw	a3,0(a5)
    5264:	400217b7          	lui	a5,0x40021
    5268:	01000737          	lui	a4,0x1000
    526c:	8f55                	or	a4,a4,a3
    526e:	c398                	sw	a4,0(a5)
C:\Users\windows\Desktop\A_Dual\A_Dual1\Dual-core_Communication_Demo\Dual-core_Communication_Demo\MASTER\obj/../Libraries/board/clock_config.c:56
        /* Wait till PLL is ready */
        while((RCC->CTLR & RCC_PLLRDY) == 0)
    5270:	0001                	nop
C:\Users\windows\Desktop\A_Dual\A_Dual1\Dual-core_Communication_Demo\Dual-core_Communication_Demo\MASTER\obj/../Libraries/board/clock_config.c:56 (discriminator 1)
    5272:	400217b7          	lui	a5,0x40021
    5276:	4398                	lw	a4,0(a5)
    5278:	020007b7          	lui	a5,0x2000
    527c:	8ff9                	and	a5,a5,a4
    527e:	dbf5                	beqz	a5,5272 <SetSysClock+0xfa>
C:\Users\windows\Desktop\A_Dual\A_Dual1\Dual-core_Communication_Demo\Dual-core_Communication_Demo\MASTER\obj/../Libraries/board/clock_config.c:60
        {
        }
        /* Select PLL as system clock source */
        RCC->CFGR0 &= (uint32_t)((uint32_t)~(RCC_SW));
    5280:	400217b7          	lui	a5,0x40021
    5284:	43d8                	lw	a4,4(a5)
    5286:	400217b7          	lui	a5,0x40021
    528a:	9b71                	andi	a4,a4,-4
    528c:	c3d8                	sw	a4,4(a5)
C:\Users\windows\Desktop\A_Dual\A_Dual1\Dual-core_Communication_Demo\Dual-core_Communication_Demo\MASTER\obj/../Libraries/board/clock_config.c:61
        RCC->CFGR0 |= (uint32_t)RCC_SW_PLL;
    528e:	400217b7          	lui	a5,0x40021
    5292:	43d8                	lw	a4,4(a5)
    5294:	400217b7          	lui	a5,0x40021
    5298:	00276713          	ori	a4,a4,2
    529c:	c3d8                	sw	a4,4(a5)
C:\Users\windows\Desktop\A_Dual\A_Dual1\Dual-core_Communication_Demo\Dual-core_Communication_Demo\MASTER\obj/../Libraries/board/clock_config.c:63
        /* Wait till PLL is used as system clock source */
        while ((RCC->CFGR0 & (uint32_t)RCC_SWS) != (uint32_t)0x08)
    529e:	0001                	nop
C:\Users\windows\Desktop\A_Dual\A_Dual1\Dual-core_Communication_Demo\Dual-core_Communication_Demo\MASTER\obj/../Libraries/board/clock_config.c:63 (discriminator 1)
    52a0:	400217b7          	lui	a5,0x40021
    52a4:	43dc                	lw	a5,4(a5)
    52a6:	00c7f713          	andi	a4,a5,12
    52aa:	47a1                	li	a5,8
    52ac:	fef71ae3          	bne	a4,a5,52a0 <SetSysClock+0x128>
C:\Users\windows\Desktop\A_Dual\A_Dual1\Dual-core_Communication_Demo\Dual-core_Communication_Demo\MASTER\obj/../Libraries/board/clock_config.c:74
        /*
         * If HSE fails to start-up, the application will have wrong clock
     * configuration. User can add here some code to deal with this error
         */
    }
}
    52b0:	0001                	nop
    52b2:	4472                	lw	s0,28(sp)
    52b4:	6105                	addi	sp,sp,32
    52b6:	8082                	ret

000052b8 <SystemInit>:
SystemInit():
C:\Users\windows\Desktop\A_Dual\A_Dual1\Dual-core_Communication_Demo\Dual-core_Communication_Demo\MASTER\obj/../Libraries/board/clock_config.c:84
*                  the PLL and update the SystemCoreClock variable.
* Input          : None
* Return         : None
*******************************************************************************************/
void SystemInit (void)
{
    52b8:	1141                	addi	sp,sp,-16
    52ba:	c606                	sw	ra,12(sp)
    52bc:	c422                	sw	s0,8(sp)
    52be:	0800                	addi	s0,sp,16
C:\Users\windows\Desktop\A_Dual\A_Dual1\Dual-core_Communication_Demo\Dual-core_Communication_Demo\MASTER\obj/../Libraries/board/clock_config.c:85
    RCC->CTLR |= (uint32_t)0x00000001;
    52c0:	400217b7          	lui	a5,0x40021
    52c4:	4398                	lw	a4,0(a5)
    52c6:	400217b7          	lui	a5,0x40021
    52ca:	00176713          	ori	a4,a4,1
    52ce:	c398                	sw	a4,0(a5)
C:\Users\windows\Desktop\A_Dual\A_Dual1\Dual-core_Communication_Demo\Dual-core_Communication_Demo\MASTER\obj/../Libraries/board/clock_config.c:86
    RCC->CFGR0 &= (uint32_t)0xF8FF0000;
    52d0:	400217b7          	lui	a5,0x40021
    52d4:	43d4                	lw	a3,4(a5)
    52d6:	400217b7          	lui	a5,0x40021
    52da:	f8ff0737          	lui	a4,0xf8ff0
    52de:	8f75                	and	a4,a4,a3
    52e0:	c3d8                	sw	a4,4(a5)
C:\Users\windows\Desktop\A_Dual\A_Dual1\Dual-core_Communication_Demo\Dual-core_Communication_Demo\MASTER\obj/../Libraries/board/clock_config.c:87
    RCC->CTLR &= (uint32_t)0xFEF6FFFF;
    52e2:	400217b7          	lui	a5,0x40021
    52e6:	4394                	lw	a3,0(a5)
    52e8:	400217b7          	lui	a5,0x40021
    52ec:	fef70737          	lui	a4,0xfef70
    52f0:	177d                	addi	a4,a4,-1
    52f2:	8f75                	and	a4,a4,a3
    52f4:	c398                	sw	a4,0(a5)
C:\Users\windows\Desktop\A_Dual\A_Dual1\Dual-core_Communication_Demo\Dual-core_Communication_Demo\MASTER\obj/../Libraries/board/clock_config.c:88
    RCC->CTLR &= (uint32_t)0xFFFBFFFF;
    52f6:	400217b7          	lui	a5,0x40021
    52fa:	4394                	lw	a3,0(a5)
    52fc:	400217b7          	lui	a5,0x40021
    5300:	fffc0737          	lui	a4,0xfffc0
    5304:	177d                	addi	a4,a4,-1
    5306:	8f75                	and	a4,a4,a3
    5308:	c398                	sw	a4,0(a5)
C:\Users\windows\Desktop\A_Dual\A_Dual1\Dual-core_Communication_Demo\Dual-core_Communication_Demo\MASTER\obj/../Libraries/board/clock_config.c:89
    RCC->CFGR0 &= (uint32_t)0xFF80FFFF;
    530a:	400217b7          	lui	a5,0x40021
    530e:	43d4                	lw	a3,4(a5)
    5310:	400217b7          	lui	a5,0x40021
    5314:	ff810737          	lui	a4,0xff810
    5318:	177d                	addi	a4,a4,-1
    531a:	8f75                	and	a4,a4,a3
    531c:	c3d8                	sw	a4,4(a5)
C:\Users\windows\Desktop\A_Dual\A_Dual1\Dual-core_Communication_Demo\Dual-core_Communication_Demo\MASTER\obj/../Libraries/board/clock_config.c:90
    RCC->INTR = 0x009F0000;
    531e:	400217b7          	lui	a5,0x40021
    5322:	009f0737          	lui	a4,0x9f0
    5326:	c798                	sw	a4,8(a5)
C:\Users\windows\Desktop\A_Dual\A_Dual1\Dual-core_Communication_Demo\Dual-core_Communication_Demo\MASTER\obj/../Libraries/board/clock_config.c:91
    SetSysClock();
    5328:	e51ff0ef          	jal	ra,5178 <SetSysClock>
C:\Users\windows\Desktop\A_Dual\A_Dual1\Dual-core_Communication_Demo\Dual-core_Communication_Demo\MASTER\obj/../Libraries/board/clock_config.c:92
}
    532c:	0001                	nop
    532e:	40b2                	lw	ra,12(sp)
    5330:	4422                	lw	s0,8(sp)
    5332:	0141                	addi	sp,sp,16
    5334:	8082                	ret

00005336 <Duty_Init>:
Duty_Init():
C:\Users\windows\Desktop\A_Dual\A_Dual1\Dual-core_Communication_Demo\Dual-core_Communication_Demo\MASTER\obj/../CODE/Motor.c:14
#define PWM_FREQ 17000
#define MAX_DUTY 10000


void Duty_Init()
{
    5336:	1141                	addi	sp,sp,-16
    5338:	c606                	sw	ra,12(sp)
    533a:	c422                	sw	s0,8(sp)
    533c:	0800                	addi	s0,sp,16
C:\Users\windows\Desktop\A_Dual\A_Dual1\Dual-core_Communication_Demo\Dual-core_Communication_Demo\MASTER\obj/../CODE/Motor.c:15
    pwm_init(PWM4_CH1_B6,PWM_FREQ,0);//PWM
    533e:	4601                	li	a2,0
    5340:	6791                	lui	a5,0x4
    5342:	26878593          	addi	a1,a5,616 # 4268 <pwm_gpio_init+0x34c>
    5346:	30000513          	li	a0,768
    534a:	f37fe0ef          	jal	ra,4280 <pwm_init>
C:\Users\windows\Desktop\A_Dual\A_Dual1\Dual-core_Communication_Demo\Dual-core_Communication_Demo\MASTER\obj/../CODE/Motor.c:16
    pwm_init(PWM4_CH2_B7,PWM_FREQ,0);
    534e:	4601                	li	a2,0
    5350:	6791                	lui	a5,0x4
    5352:	26878593          	addi	a1,a5,616 # 4268 <pwm_gpio_init+0x34c>
    5356:	30100513          	li	a0,769
    535a:	f27fe0ef          	jal	ra,4280 <pwm_init>
C:\Users\windows\Desktop\A_Dual\A_Dual1\Dual-core_Communication_Demo\Dual-core_Communication_Demo\MASTER\obj/../CODE/Motor.c:17
    pwm_init(PWM4_CH3_B8,PWM_FREQ,0);
    535e:	4601                	li	a2,0
    5360:	6791                	lui	a5,0x4
    5362:	26878593          	addi	a1,a5,616 # 4268 <pwm_gpio_init+0x34c>
    5366:	30200513          	li	a0,770
    536a:	f17fe0ef          	jal	ra,4280 <pwm_init>
C:\Users\windows\Desktop\A_Dual\A_Dual1\Dual-core_Communication_Demo\Dual-core_Communication_Demo\MASTER\obj/../CODE/Motor.c:18
    pwm_init(PWM4_CH4_B9,PWM_FREQ,0);
    536e:	4601                	li	a2,0
    5370:	6791                	lui	a5,0x4
    5372:	26878593          	addi	a1,a5,616 # 4268 <pwm_gpio_init+0x34c>
    5376:	30300513          	li	a0,771
    537a:	f07fe0ef          	jal	ra,4280 <pwm_init>
C:\Users\windows\Desktop\A_Dual\A_Dual1\Dual-core_Communication_Demo\Dual-core_Communication_Demo\MASTER\obj/../CODE/Motor.c:20

    gpio_init(C10,GPO,0,GPIO_PIN_CONFIG);//
    537e:	31000693          	li	a3,784
    5382:	4601                	li	a2,0
    5384:	4585                	li	a1,1
    5386:	04a00513          	li	a0,74
    538a:	fa8fe0ef          	jal	ra,3b32 <gpio_init>
C:\Users\windows\Desktop\A_Dual\A_Dual1\Dual-core_Communication_Demo\Dual-core_Communication_Demo\MASTER\obj/../CODE/Motor.c:21
    gpio_init(C11,GPO,0,GPIO_PIN_CONFIG);
    538e:	31000693          	li	a3,784
    5392:	4601                	li	a2,0
    5394:	4585                	li	a1,1
    5396:	04b00513          	li	a0,75
    539a:	f98fe0ef          	jal	ra,3b32 <gpio_init>
C:\Users\windows\Desktop\A_Dual\A_Dual1\Dual-core_Communication_Demo\Dual-core_Communication_Demo\MASTER\obj/../CODE/Motor.c:22
    gpio_init(B12,GPO,1,GPIO_PIN_CONFIG);
    539e:	31000693          	li	a3,784
    53a2:	4605                	li	a2,1
    53a4:	4585                	li	a1,1
    53a6:	02c00513          	li	a0,44
    53aa:	f88fe0ef          	jal	ra,3b32 <gpio_init>
C:\Users\windows\Desktop\A_Dual\A_Dual1\Dual-core_Communication_Demo\Dual-core_Communication_Demo\MASTER\obj/../CODE/Motor.c:23
    gpio_init(A8,GPO,1,GPIO_PIN_CONFIG);
    53ae:	31000693          	li	a3,784
    53b2:	4605                	li	a2,1
    53b4:	4585                	li	a1,1
    53b6:	4521                	li	a0,8
    53b8:	f7afe0ef          	jal	ra,3b32 <gpio_init>
C:\Users\windows\Desktop\A_Dual\A_Dual1\Dual-core_Communication_Demo\Dual-core_Communication_Demo\MASTER\obj/../CODE/Motor.c:24
    return;
    53bc:	0001                	nop
C:\Users\windows\Desktop\A_Dual\A_Dual1\Dual-core_Communication_Demo\Dual-core_Communication_Demo\MASTER\obj/../CODE/Motor.c:25
}
    53be:	40b2                	lw	ra,12(sp)
    53c0:	4422                	lw	s0,8(sp)
    53c2:	0141                	addi	sp,sp,16
    53c4:	8082                	ret

000053c6 <Duty_Single>:
Duty_Single():
C:\Users\windows\Desktop\A_Dual\A_Dual1\Dual-core_Communication_Demo\Dual-core_Communication_Demo\MASTER\obj/../CODE/Motor.c:28

void Duty_Single(Wheel_Type wh,int32 duty)//
{
    53c6:	7179                	addi	sp,sp,-48
    53c8:	d606                	sw	ra,44(sp)
    53ca:	d422                	sw	s0,40(sp)
    53cc:	1800                	addi	s0,sp,48
    53ce:	fca42e23          	sw	a0,-36(s0)
    53d2:	fcb42c23          	sw	a1,-40(s0)
C:\Users\windows\Desktop\A_Dual\A_Dual1\Dual-core_Communication_Demo\Dual-core_Communication_Demo\MASTER\obj/../CODE/Motor.c:29
    if(duty>10000)
    53d6:	fd842703          	lw	a4,-40(s0)
    53da:	6789                	lui	a5,0x2
    53dc:	71078793          	addi	a5,a5,1808 # 2710 <USART_ReceiveData+0x16>
    53e0:	00e7d763          	bge	a5,a4,53ee <Duty_Single+0x28>
C:\Users\windows\Desktop\A_Dual\A_Dual1\Dual-core_Communication_Demo\Dual-core_Communication_Demo\MASTER\obj/../CODE/Motor.c:30
        duty=10000;
    53e4:	6789                	lui	a5,0x2
    53e6:	71078793          	addi	a5,a5,1808 # 2710 <USART_ReceiveData+0x16>
    53ea:	fcf42c23          	sw	a5,-40(s0)
C:\Users\windows\Desktop\A_Dual\A_Dual1\Dual-core_Communication_Demo\Dual-core_Communication_Demo\MASTER\obj/../CODE/Motor.c:31
    if(duty<-10000)
    53ee:	fd842703          	lw	a4,-40(s0)
    53f2:	77f9                	lui	a5,0xffffe
    53f4:	8f078793          	addi	a5,a5,-1808 # ffffd8f0 <_eusrstack+0xdfff88f0>
    53f8:	00f75763          	bge	a4,a5,5406 <Duty_Single+0x40>
C:\Users\windows\Desktop\A_Dual\A_Dual1\Dual-core_Communication_Demo\Dual-core_Communication_Demo\MASTER\obj/../CODE/Motor.c:32
        duty=-10000;
    53fc:	77f9                	lui	a5,0xffffe
    53fe:	8f078793          	addi	a5,a5,-1808 # ffffd8f0 <_eusrstack+0xdfff88f0>
    5402:	fcf42c23          	sw	a5,-40(s0)
C:\Users\windows\Desktop\A_Dual\A_Dual1\Dual-core_Communication_Demo\Dual-core_Communication_Demo\MASTER\obj/../CODE/Motor.c:34
    uint32 tmp;
    if(duty<0)
    5406:	fd842783          	lw	a5,-40(s0)
    540a:	0007d963          	bgez	a5,541c <Duty_Single+0x56>
C:\Users\windows\Desktop\A_Dual\A_Dual1\Dual-core_Communication_Demo\Dual-core_Communication_Demo\MASTER\obj/../CODE/Motor.c:35
        tmp=(uint32)-duty;
    540e:	fd842783          	lw	a5,-40(s0)
    5412:	40f007b3          	neg	a5,a5
    5416:	fef42623          	sw	a5,-20(s0)
    541a:	a029                	j	5424 <Duty_Single+0x5e>
C:\Users\windows\Desktop\A_Dual\A_Dual1\Dual-core_Communication_Demo\Dual-core_Communication_Demo\MASTER\obj/../CODE/Motor.c:37
    else
        tmp=(uint32)duty;
    541c:	fd842783          	lw	a5,-40(s0)
    5420:	fef42623          	sw	a5,-20(s0)
    5424:	fdc42703          	lw	a4,-36(s0)
    5428:	4789                	li	a5,2
    542a:	04f70e63          	beq	a4,a5,5486 <Duty_Single+0xc0>
    542e:	fdc42703          	lw	a4,-36(s0)
    5432:	4789                	li	a5,2
    5434:	00e7e863          	bltu	a5,a4,5444 <Duty_Single+0x7e>
    5438:	fdc42703          	lw	a4,-36(s0)
    543c:	4785                	li	a5,1
    543e:	00f70e63          	beq	a4,a5,545a <Duty_Single+0x94>
C:\Users\windows\Desktop\A_Dual\A_Dual1\Dual-core_Communication_Demo\Dual-core_Communication_Demo\MASTER\obj/../CODE/Motor.c:69
        else
            gpio_set(A8,0);
        pwm_duty(PWM4_CH4_B9,tmp);
        break;
    }
    return;
    5442:	a0d9                	j	5508 <Duty_Single+0x142>
    5444:	fdc42703          	lw	a4,-36(s0)
    5448:	478d                	li	a5,3
    544a:	06f70463          	beq	a4,a5,54b2 <Duty_Single+0xec>
    544e:	fdc42703          	lw	a4,-36(s0)
    5452:	4791                	li	a5,4
    5454:	08f70563          	beq	a4,a5,54de <Duty_Single+0x118>
    5458:	a845                	j	5508 <Duty_Single+0x142>
C:\Users\windows\Desktop\A_Dual\A_Dual1\Dual-core_Communication_Demo\Dual-core_Communication_Demo\MASTER\obj/../CODE/Motor.c:41
        if(duty>0)
    545a:	fd842783          	lw	a5,-40(s0)
    545e:	00f05863          	blez	a5,546e <Duty_Single+0xa8>
C:\Users\windows\Desktop\A_Dual\A_Dual1\Dual-core_Communication_Demo\Dual-core_Communication_Demo\MASTER\obj/../CODE/Motor.c:42
            gpio_set(C10,0);
    5462:	4581                	li	a1,0
    5464:	04a00513          	li	a0,74
    5468:	86ffe0ef          	jal	ra,3cd6 <gpio_set>
    546c:	a031                	j	5478 <Duty_Single+0xb2>
C:\Users\windows\Desktop\A_Dual\A_Dual1\Dual-core_Communication_Demo\Dual-core_Communication_Demo\MASTER\obj/../CODE/Motor.c:44
            gpio_set(C10,1);
    546e:	4585                	li	a1,1
    5470:	04a00513          	li	a0,74
    5474:	863fe0ef          	jal	ra,3cd6 <gpio_set>
C:\Users\windows\Desktop\A_Dual\A_Dual1\Dual-core_Communication_Demo\Dual-core_Communication_Demo\MASTER\obj/../CODE/Motor.c:45
        pwm_duty(PWM4_CH1_B6,tmp);
    5478:	fec42583          	lw	a1,-20(s0)
    547c:	30000513          	li	a0,768
    5480:	9c4ff0ef          	jal	ra,4644 <pwm_duty>
C:\Users\windows\Desktop\A_Dual\A_Dual1\Dual-core_Communication_Demo\Dual-core_Communication_Demo\MASTER\obj/../CODE/Motor.c:46
        break;
    5484:	a049                	j	5506 <Duty_Single+0x140>
C:\Users\windows\Desktop\A_Dual\A_Dual1\Dual-core_Communication_Demo\Dual-core_Communication_Demo\MASTER\obj/../CODE/Motor.c:48
        if(duty>0)
    5486:	fd842783          	lw	a5,-40(s0)
    548a:	00f05863          	blez	a5,549a <Duty_Single+0xd4>
C:\Users\windows\Desktop\A_Dual\A_Dual1\Dual-core_Communication_Demo\Dual-core_Communication_Demo\MASTER\obj/../CODE/Motor.c:49
            gpio_set(C11,0);
    548e:	4581                	li	a1,0
    5490:	04b00513          	li	a0,75
    5494:	843fe0ef          	jal	ra,3cd6 <gpio_set>
    5498:	a031                	j	54a4 <Duty_Single+0xde>
C:\Users\windows\Desktop\A_Dual\A_Dual1\Dual-core_Communication_Demo\Dual-core_Communication_Demo\MASTER\obj/../CODE/Motor.c:51
            gpio_set(C11,1);
    549a:	4585                	li	a1,1
    549c:	04b00513          	li	a0,75
    54a0:	837fe0ef          	jal	ra,3cd6 <gpio_set>
C:\Users\windows\Desktop\A_Dual\A_Dual1\Dual-core_Communication_Demo\Dual-core_Communication_Demo\MASTER\obj/../CODE/Motor.c:52
        pwm_duty(PWM4_CH2_B7,tmp);
    54a4:	fec42583          	lw	a1,-20(s0)
    54a8:	30100513          	li	a0,769
    54ac:	998ff0ef          	jal	ra,4644 <pwm_duty>
C:\Users\windows\Desktop\A_Dual\A_Dual1\Dual-core_Communication_Demo\Dual-core_Communication_Demo\MASTER\obj/../CODE/Motor.c:53
        break;
    54b0:	a899                	j	5506 <Duty_Single+0x140>
C:\Users\windows\Desktop\A_Dual\A_Dual1\Dual-core_Communication_Demo\Dual-core_Communication_Demo\MASTER\obj/../CODE/Motor.c:55
        if(duty>0)
    54b2:	fd842783          	lw	a5,-40(s0)
    54b6:	00f05863          	blez	a5,54c6 <Duty_Single+0x100>
C:\Users\windows\Desktop\A_Dual\A_Dual1\Dual-core_Communication_Demo\Dual-core_Communication_Demo\MASTER\obj/../CODE/Motor.c:56
            gpio_set(B12,1);
    54ba:	4585                	li	a1,1
    54bc:	02c00513          	li	a0,44
    54c0:	817fe0ef          	jal	ra,3cd6 <gpio_set>
    54c4:	a031                	j	54d0 <Duty_Single+0x10a>
C:\Users\windows\Desktop\A_Dual\A_Dual1\Dual-core_Communication_Demo\Dual-core_Communication_Demo\MASTER\obj/../CODE/Motor.c:58
            gpio_set(B12,0);
    54c6:	4581                	li	a1,0
    54c8:	02c00513          	li	a0,44
    54cc:	80bfe0ef          	jal	ra,3cd6 <gpio_set>
C:\Users\windows\Desktop\A_Dual\A_Dual1\Dual-core_Communication_Demo\Dual-core_Communication_Demo\MASTER\obj/../CODE/Motor.c:59
        pwm_duty(PWM4_CH3_B8,tmp);
    54d0:	fec42583          	lw	a1,-20(s0)
    54d4:	30200513          	li	a0,770
    54d8:	96cff0ef          	jal	ra,4644 <pwm_duty>
C:\Users\windows\Desktop\A_Dual\A_Dual1\Dual-core_Communication_Demo\Dual-core_Communication_Demo\MASTER\obj/../CODE/Motor.c:60
        break;
    54dc:	a02d                	j	5506 <Duty_Single+0x140>
C:\Users\windows\Desktop\A_Dual\A_Dual1\Dual-core_Communication_Demo\Dual-core_Communication_Demo\MASTER\obj/../CODE/Motor.c:62
        if(duty>0)
    54de:	fd842783          	lw	a5,-40(s0)
    54e2:	00f05763          	blez	a5,54f0 <Duty_Single+0x12a>
C:\Users\windows\Desktop\A_Dual\A_Dual1\Dual-core_Communication_Demo\Dual-core_Communication_Demo\MASTER\obj/../CODE/Motor.c:63
            gpio_set(A8,1);
    54e6:	4585                	li	a1,1
    54e8:	4521                	li	a0,8
    54ea:	fecfe0ef          	jal	ra,3cd6 <gpio_set>
    54ee:	a029                	j	54f8 <Duty_Single+0x132>
C:\Users\windows\Desktop\A_Dual\A_Dual1\Dual-core_Communication_Demo\Dual-core_Communication_Demo\MASTER\obj/../CODE/Motor.c:65
            gpio_set(A8,0);
    54f0:	4581                	li	a1,0
    54f2:	4521                	li	a0,8
    54f4:	fe2fe0ef          	jal	ra,3cd6 <gpio_set>
C:\Users\windows\Desktop\A_Dual\A_Dual1\Dual-core_Communication_Demo\Dual-core_Communication_Demo\MASTER\obj/../CODE/Motor.c:66
        pwm_duty(PWM4_CH4_B9,tmp);
    54f8:	fec42583          	lw	a1,-20(s0)
    54fc:	30300513          	li	a0,771
    5500:	944ff0ef          	jal	ra,4644 <pwm_duty>
C:\Users\windows\Desktop\A_Dual\A_Dual1\Dual-core_Communication_Demo\Dual-core_Communication_Demo\MASTER\obj/../CODE/Motor.c:67
        break;
    5504:	0001                	nop
C:\Users\windows\Desktop\A_Dual\A_Dual1\Dual-core_Communication_Demo\Dual-core_Communication_Demo\MASTER\obj/../CODE/Motor.c:69
    return;
    5506:	0001                	nop
C:\Users\windows\Desktop\A_Dual\A_Dual1\Dual-core_Communication_Demo\Dual-core_Communication_Demo\MASTER\obj/../CODE/Motor.c:70
}
    5508:	50b2                	lw	ra,44(sp)
    550a:	5422                	lw	s0,40(sp)
    550c:	6145                	addi	sp,sp,48
    550e:	8082                	ret

00005510 <Duty_All>:
Duty_All():
C:\Users\windows\Desktop\A_Dual\A_Dual1\Dual-core_Communication_Demo\Dual-core_Communication_Demo\MASTER\obj/../CODE/Motor.c:73

void Duty_All(int32 duty_fl,int32 duty_fr,int32 duty_rl,int32 duty_rr)//
{
    5510:	1101                	addi	sp,sp,-32
    5512:	ce06                	sw	ra,28(sp)
    5514:	cc22                	sw	s0,24(sp)
    5516:	1000                	addi	s0,sp,32
    5518:	fea42623          	sw	a0,-20(s0)
    551c:	feb42423          	sw	a1,-24(s0)
    5520:	fec42223          	sw	a2,-28(s0)
    5524:	fed42023          	sw	a3,-32(s0)
C:\Users\windows\Desktop\A_Dual\A_Dual1\Dual-core_Communication_Demo\Dual-core_Communication_Demo\MASTER\obj/../CODE/Motor.c:74
    Duty_Single(FL,duty_fl);
    5528:	fec42583          	lw	a1,-20(s0)
    552c:	4505                	li	a0,1
    552e:	e99ff0ef          	jal	ra,53c6 <Duty_Single>
C:\Users\windows\Desktop\A_Dual\A_Dual1\Dual-core_Communication_Demo\Dual-core_Communication_Demo\MASTER\obj/../CODE/Motor.c:75
    Duty_Single(FR,duty_fr);
    5532:	fe842583          	lw	a1,-24(s0)
    5536:	4509                	li	a0,2
    5538:	e8fff0ef          	jal	ra,53c6 <Duty_Single>
C:\Users\windows\Desktop\A_Dual\A_Dual1\Dual-core_Communication_Demo\Dual-core_Communication_Demo\MASTER\obj/../CODE/Motor.c:76
    Duty_Single(RL,duty_rl);
    553c:	fe442583          	lw	a1,-28(s0)
    5540:	450d                	li	a0,3
    5542:	e85ff0ef          	jal	ra,53c6 <Duty_Single>
C:\Users\windows\Desktop\A_Dual\A_Dual1\Dual-core_Communication_Demo\Dual-core_Communication_Demo\MASTER\obj/../CODE/Motor.c:77
    Duty_Single(RR,duty_rr);
    5546:	fe042583          	lw	a1,-32(s0)
    554a:	4511                	li	a0,4
    554c:	e7bff0ef          	jal	ra,53c6 <Duty_Single>
C:\Users\windows\Desktop\A_Dual\A_Dual1\Dual-core_Communication_Demo\Dual-core_Communication_Demo\MASTER\obj/../CODE/Motor.c:78
    return;
    5550:	0001                	nop
C:\Users\windows\Desktop\A_Dual\A_Dual1\Dual-core_Communication_Demo\Dual-core_Communication_Demo\MASTER\obj/../CODE/Motor.c:79
}
    5552:	40f2                	lw	ra,28(sp)
    5554:	4462                	lw	s0,24(sp)
    5556:	6105                	addi	sp,sp,32
    5558:	8082                	ret

0000555a <PID_Init>:
PID_Init():
C:\Users\windows\Desktop\A_Dual\A_Dual1\Dual-core_Communication_Demo\Dual-core_Communication_Demo\MASTER\obj/../CODE/PID.c:16
//extern Pid_Param Pid_fl,Pid_fr,Pid_rl,Pid_rr;
//extern int16 master_encoder_left,master_encoder_right;
//extern int16 slave_encoder_left,slave_encoder_right;

void PID_Init(Pid_Param *tmp)//PID
{
    555a:	1101                	addi	sp,sp,-32
    555c:	ce22                	sw	s0,28(sp)
    555e:	1000                	addi	s0,sp,32
    5560:	fea42623          	sw	a0,-20(s0)
C:\Users\windows\Desktop\A_Dual\A_Dual1\Dual-core_Communication_Demo\Dual-core_Communication_Demo\MASTER\obj/../CODE/PID.c:17
    tmp->kp=20;//
    5564:	fec42783          	lw	a5,-20(s0)
    5568:	6725                	lui	a4,0x9
    556a:	cf072703          	lw	a4,-784(a4) # 8cf0 <_exit+0xd0>
    556e:	c398                	sw	a4,0(a5)
C:\Users\windows\Desktop\A_Dual\A_Dual1\Dual-core_Communication_Demo\Dual-core_Communication_Demo\MASTER\obj/../CODE/PID.c:18
    tmp->ki=5;//
    5570:	fec42783          	lw	a5,-20(s0)
    5574:	6725                	lui	a4,0x9
    5576:	cf472703          	lw	a4,-780(a4) # 8cf4 <_exit+0xd4>
    557a:	c3d8                	sw	a4,4(a5)
C:\Users\windows\Desktop\A_Dual\A_Dual1\Dual-core_Communication_Demo\Dual-core_Communication_Demo\MASTER\obj/../CODE/PID.c:19
    tmp->kd=1;//
    557c:	fec42783          	lw	a5,-20(s0)
    5580:	6725                	lui	a4,0x9
    5582:	cf872703          	lw	a4,-776(a4) # 8cf8 <_exit+0xd8>
    5586:	c798                	sw	a4,8(a5)
C:\Users\windows\Desktop\A_Dual\A_Dual1\Dual-core_Communication_Demo\Dual-core_Communication_Demo\MASTER\obj/../CODE/PID.c:20
    tmp->imax=5000;//
    5588:	fec42783          	lw	a5,-20(s0)
    558c:	6725                	lui	a4,0x9
    558e:	cfc72703          	lw	a4,-772(a4) # 8cfc <_exit+0xdc>
    5592:	c7d8                	sw	a4,12(a5)
C:\Users\windows\Desktop\A_Dual\A_Dual1\Dual-core_Communication_Demo\Dual-core_Communication_Demo\MASTER\obj/../CODE/PID.c:22

    tmp->out=0;
    5594:	fec42783          	lw	a5,-20(s0)
    5598:	00000713          	li	a4,0
    559c:	cfd8                	sw	a4,28(a5)
C:\Users\windows\Desktop\A_Dual\A_Dual1\Dual-core_Communication_Demo\Dual-core_Communication_Demo\MASTER\obj/../CODE/PID.c:23
    tmp->out_p=0;
    559e:	fec42783          	lw	a5,-20(s0)
    55a2:	cb98                	sw	a4,16(a5)
C:\Users\windows\Desktop\A_Dual\A_Dual1\Dual-core_Communication_Demo\Dual-core_Communication_Demo\MASTER\obj/../CODE/PID.c:24
    tmp->out_i=0;
    55a4:	fec42783          	lw	a5,-20(s0)
    55a8:	cbd8                	sw	a4,20(a5)
C:\Users\windows\Desktop\A_Dual\A_Dual1\Dual-core_Communication_Demo\Dual-core_Communication_Demo\MASTER\obj/../CODE/PID.c:25
    tmp->out_d=0;
    55aa:	fec42783          	lw	a5,-20(s0)
    55ae:	cf98                	sw	a4,24(a5)
C:\Users\windows\Desktop\A_Dual\A_Dual1\Dual-core_Communication_Demo\Dual-core_Communication_Demo\MASTER\obj/../CODE/PID.c:27

    tmp->integrator=0;
    55b0:	fec42783          	lw	a5,-20(s0)
    55b4:	d398                	sw	a4,32(a5)
C:\Users\windows\Desktop\A_Dual\A_Dual1\Dual-core_Communication_Demo\Dual-core_Communication_Demo\MASTER\obj/../CODE/PID.c:28
    tmp->last_last_error=0;
    55b6:	fec42783          	lw	a5,-20(s0)
    55ba:	d798                	sw	a4,40(a5)
C:\Users\windows\Desktop\A_Dual\A_Dual1\Dual-core_Communication_Demo\Dual-core_Communication_Demo\MASTER\obj/../CODE/PID.c:29
    tmp->last_error=0;
    55bc:	fec42783          	lw	a5,-20(s0)
    55c0:	d3d8                	sw	a4,36(a5)
C:\Users\windows\Desktop\A_Dual\A_Dual1\Dual-core_Communication_Demo\Dual-core_Communication_Demo\MASTER\obj/../CODE/PID.c:30
    tmp->last_t=0;
    55c2:	fec42783          	lw	a5,-20(s0)
    55c6:	0207a623          	sw	zero,44(a5)
C:\Users\windows\Desktop\A_Dual\A_Dual1\Dual-core_Communication_Demo\Dual-core_Communication_Demo\MASTER\obj/../CODE/PID.c:31
}
    55ca:	0001                	nop
    55cc:	4472                	lw	s0,28(sp)
    55ce:	6105                	addi	sp,sp,32
    55d0:	8082                	ret

000055d2 <PID_incCtrl>:
PID_incCtrl():
C:\Users\windows\Desktop\A_Dual\A_Dual1\Dual-core_Communication_Demo\Dual-core_Communication_Demo\MASTER\obj/../CODE/PID.c:34

void PID_incCtrl(Pid_Param *tmp, float error)
{
    55d2:	1101                	addi	sp,sp,-32
    55d4:	ce06                	sw	ra,28(sp)
    55d6:	cc22                	sw	s0,24(sp)
    55d8:	ca26                	sw	s1,20(sp)
    55da:	1000                	addi	s0,sp,32
    55dc:	fea42623          	sw	a0,-20(s0)
    55e0:	feb42423          	sw	a1,-24(s0)
C:\Users\windows\Desktop\A_Dual\A_Dual1\Dual-core_Communication_Demo\Dual-core_Communication_Demo\MASTER\obj/../CODE/PID.c:35
    tmp->out_p = tmp->kp * (error-tmp->last_error);
    55e4:	fec42783          	lw	a5,-20(s0)
    55e8:	4384                	lw	s1,0(a5)
    55ea:	fec42783          	lw	a5,-20(s0)
    55ee:	53dc                	lw	a5,36(a5)
    55f0:	85be                	mv	a1,a5
    55f2:	fe842503          	lw	a0,-24(s0)
    55f6:	563010ef          	jal	ra,7358 <__subsf3>
    55fa:	87aa                	mv	a5,a0
    55fc:	85be                	mv	a1,a5
    55fe:	8526                	mv	a0,s1
    5600:	2c9010ef          	jal	ra,70c8 <__mulsf3>
    5604:	87aa                	mv	a5,a0
    5606:	873e                	mv	a4,a5
    5608:	fec42783          	lw	a5,-20(s0)
    560c:	cb98                	sw	a4,16(a5)
C:\Users\windows\Desktop\A_Dual\A_Dual1\Dual-core_Communication_Demo\Dual-core_Communication_Demo\MASTER\obj/../CODE/PID.c:36
    tmp->out_i = tmp->ki * error;
    560e:	fec42783          	lw	a5,-20(s0)
    5612:	43dc                	lw	a5,4(a5)
    5614:	fe842583          	lw	a1,-24(s0)
    5618:	853e                	mv	a0,a5
    561a:	2af010ef          	jal	ra,70c8 <__mulsf3>
    561e:	87aa                	mv	a5,a0
    5620:	873e                	mv	a4,a5
    5622:	fec42783          	lw	a5,-20(s0)
    5626:	cbd8                	sw	a4,20(a5)
C:\Users\windows\Desktop\A_Dual\A_Dual1\Dual-core_Communication_Demo\Dual-core_Communication_Demo\MASTER\obj/../CODE/PID.c:37
    tmp->out_d = tmp->kd * (error - 2*tmp->last_error + tmp->last_last_error);
    5628:	fec42783          	lw	a5,-20(s0)
    562c:	4784                	lw	s1,8(a5)
    562e:	fec42783          	lw	a5,-20(s0)
    5632:	53dc                	lw	a5,36(a5)
    5634:	85be                	mv	a1,a5
    5636:	853e                	mv	a0,a5
    5638:	614010ef          	jal	ra,6c4c <__addsf3>
    563c:	87aa                	mv	a5,a0
    563e:	85be                	mv	a1,a5
    5640:	fe842503          	lw	a0,-24(s0)
    5644:	515010ef          	jal	ra,7358 <__subsf3>
    5648:	87aa                	mv	a5,a0
    564a:	873e                	mv	a4,a5
    564c:	fec42783          	lw	a5,-20(s0)
    5650:	579c                	lw	a5,40(a5)
    5652:	85be                	mv	a1,a5
    5654:	853a                	mv	a0,a4
    5656:	5f6010ef          	jal	ra,6c4c <__addsf3>
    565a:	87aa                	mv	a5,a0
    565c:	85be                	mv	a1,a5
    565e:	8526                	mv	a0,s1
    5660:	269010ef          	jal	ra,70c8 <__mulsf3>
    5664:	87aa                	mv	a5,a0
    5666:	873e                	mv	a4,a5
    5668:	fec42783          	lw	a5,-20(s0)
    566c:	cf98                	sw	a4,24(a5)
C:\Users\windows\Desktop\A_Dual\A_Dual1\Dual-core_Communication_Demo\Dual-core_Communication_Demo\MASTER\obj/../CODE/PID.c:39

    tmp->last_last_error = tmp->last_error;
    566e:	fec42783          	lw	a5,-20(s0)
    5672:	53d8                	lw	a4,36(a5)
    5674:	fec42783          	lw	a5,-20(s0)
    5678:	d798                	sw	a4,40(a5)
C:\Users\windows\Desktop\A_Dual\A_Dual1\Dual-core_Communication_Demo\Dual-core_Communication_Demo\MASTER\obj/../CODE/PID.c:40
    tmp->last_error = error;
    567a:	fec42783          	lw	a5,-20(s0)
    567e:	fe842703          	lw	a4,-24(s0)
    5682:	d3d8                	sw	a4,36(a5)
C:\Users\windows\Desktop\A_Dual\A_Dual1\Dual-core_Communication_Demo\Dual-core_Communication_Demo\MASTER\obj/../CODE/PID.c:43

    //if(error > 1 || error < -1)
    tmp->out = tmp->out+tmp->out_p + tmp->out_i + tmp->out_d;
    5684:	fec42783          	lw	a5,-20(s0)
    5688:	4fd8                	lw	a4,28(a5)
    568a:	fec42783          	lw	a5,-20(s0)
    568e:	4b9c                	lw	a5,16(a5)
    5690:	85be                	mv	a1,a5
    5692:	853a                	mv	a0,a4
    5694:	5b8010ef          	jal	ra,6c4c <__addsf3>
    5698:	87aa                	mv	a5,a0
    569a:	873e                	mv	a4,a5
    569c:	fec42783          	lw	a5,-20(s0)
    56a0:	4bdc                	lw	a5,20(a5)
    56a2:	85be                	mv	a1,a5
    56a4:	853a                	mv	a0,a4
    56a6:	5a6010ef          	jal	ra,6c4c <__addsf3>
    56aa:	87aa                	mv	a5,a0
    56ac:	873e                	mv	a4,a5
    56ae:	fec42783          	lw	a5,-20(s0)
    56b2:	4f9c                	lw	a5,24(a5)
    56b4:	85be                	mv	a1,a5
    56b6:	853a                	mv	a0,a4
    56b8:	594010ef          	jal	ra,6c4c <__addsf3>
    56bc:	87aa                	mv	a5,a0
    56be:	873e                	mv	a4,a5
    56c0:	fec42783          	lw	a5,-20(s0)
    56c4:	cfd8                	sw	a4,28(a5)
C:\Users\windows\Desktop\A_Dual\A_Dual1\Dual-core_Communication_Demo\Dual-core_Communication_Demo\MASTER\obj/../CODE/PID.c:45

    if(tmp->out>tmp->imax)
    56c6:	fec42783          	lw	a5,-20(s0)
    56ca:	4fd8                	lw	a4,28(a5)
    56cc:	fec42783          	lw	a5,-20(s0)
    56d0:	47dc                	lw	a5,12(a5)
    56d2:	85be                	mv	a1,a5
    56d4:	853a                	mv	a0,a4
    56d6:	0e1010ef          	jal	ra,6fb6 <__gesf2>
    56da:	87aa                	mv	a5,a0
    56dc:	00f05863          	blez	a5,56ec <PID_incCtrl+0x11a>
C:\Users\windows\Desktop\A_Dual\A_Dual1\Dual-core_Communication_Demo\Dual-core_Communication_Demo\MASTER\obj/../CODE/PID.c:46
        tmp->out=tmp->imax;
    56e0:	fec42783          	lw	a5,-20(s0)
    56e4:	47d8                	lw	a4,12(a5)
    56e6:	fec42783          	lw	a5,-20(s0)
    56ea:	cfd8                	sw	a4,28(a5)
C:\Users\windows\Desktop\A_Dual\A_Dual1\Dual-core_Communication_Demo\Dual-core_Communication_Demo\MASTER\obj/../CODE/PID.c:47
    if(tmp->out<-tmp->imax)
    56ec:	fec42783          	lw	a5,-20(s0)
    56f0:	4fd4                	lw	a3,28(a5)
    56f2:	fec42783          	lw	a5,-20(s0)
    56f6:	47d8                	lw	a4,12(a5)
    56f8:	800007b7          	lui	a5,0x80000
    56fc:	8fb9                	xor	a5,a5,a4
    56fe:	85be                	mv	a1,a5
    5700:	8536                	mv	a0,a3
    5702:	13b010ef          	jal	ra,703c <__lesf2>
    5706:	87aa                	mv	a5,a0
    5708:	0007c363          	bltz	a5,570e <PID_incCtrl+0x13c>
C:\Users\windows\Desktop\A_Dual\A_Dual1\Dual-core_Communication_Demo\Dual-core_Communication_Demo\MASTER\obj/../CODE/PID.c:49
        tmp->out=-tmp->imax;
}
    570c:	a811                	j	5720 <PID_incCtrl+0x14e>
C:\Users\windows\Desktop\A_Dual\A_Dual1\Dual-core_Communication_Demo\Dual-core_Communication_Demo\MASTER\obj/../CODE/PID.c:48
        tmp->out=-tmp->imax;
    570e:	fec42783          	lw	a5,-20(s0)
    5712:	47d8                	lw	a4,12(a5)
    5714:	800007b7          	lui	a5,0x80000
    5718:	8f3d                	xor	a4,a4,a5
    571a:	fec42783          	lw	a5,-20(s0)
    571e:	cfd8                	sw	a4,28(a5)
C:\Users\windows\Desktop\A_Dual\A_Dual1\Dual-core_Communication_Demo\Dual-core_Communication_Demo\MASTER\obj/../CODE/PID.c:49
}
    5720:	0001                	nop
    5722:	40f2                	lw	ra,28(sp)
    5724:	4462                	lw	s0,24(sp)
    5726:	44d2                	lw	s1,20(sp)
    5728:	6105                	addi	sp,sp,32
    572a:	8082                	ret

0000572c <__adddf3>:
__adddf3():
    572c:	00100837          	lui	a6,0x100
    5730:	1101                	addi	sp,sp,-32
    5732:	187d                	addi	a6,a6,-1
    5734:	00b87733          	and	a4,a6,a1
    5738:	ca26                	sw	s1,20(sp)
    573a:	00d87833          	and	a6,a6,a3
    573e:	0145d493          	srli	s1,a1,0x14
    5742:	0146d313          	srli	t1,a3,0x14
    5746:	00371e13          	slli	t3,a4,0x3
    574a:	c64e                	sw	s3,12(sp)
    574c:	01d55713          	srli	a4,a0,0x1d
    5750:	080e                	slli	a6,a6,0x3
    5752:	01d65793          	srli	a5,a2,0x1d
    5756:	7ff4f493          	andi	s1,s1,2047
    575a:	7ff37313          	andi	t1,t1,2047
    575e:	ce06                	sw	ra,28(sp)
    5760:	cc22                	sw	s0,24(sp)
    5762:	c84a                	sw	s2,16(sp)
    5764:	01f5d993          	srli	s3,a1,0x1f
    5768:	01f6de93          	srli	t4,a3,0x1f
    576c:	01c76733          	or	a4,a4,t3
    5770:	00351f13          	slli	t5,a0,0x3
    5774:	0107e833          	or	a6,a5,a6
    5778:	00361f93          	slli	t6,a2,0x3
    577c:	40648e33          	sub	t3,s1,t1
    5780:	19d98063          	beq	s3,t4,5900 <__adddf3+0x1d4>
    5784:	13c05663          	blez	t3,58b0 <__adddf3+0x184>
    5788:	1c030463          	beqz	t1,5950 <__adddf3+0x224>
    578c:	008006b7          	lui	a3,0x800
    5790:	7ff00793          	li	a5,2047
    5794:	00d86833          	or	a6,a6,a3
    5798:	36f48f63          	beq	s1,a5,5b16 <__adddf3+0x3ea>
    579c:	03800793          	li	a5,56
    57a0:	35c7c063          	blt	a5,t3,5ae0 <__adddf3+0x3b4>
    57a4:	47fd                	li	a5,31
    57a6:	47c7cd63          	blt	a5,t3,5c20 <__adddf3+0x4f4>
    57aa:	02000513          	li	a0,32
    57ae:	41c50533          	sub	a0,a0,t3
    57b2:	01cfd7b3          	srl	a5,t6,t3
    57b6:	00a816b3          	sll	a3,a6,a0
    57ba:	00af9933          	sll	s2,t6,a0
    57be:	8edd                	or	a3,a3,a5
    57c0:	01203933          	snez	s2,s2
    57c4:	01c857b3          	srl	a5,a6,t3
    57c8:	0126e933          	or	s2,a3,s2
    57cc:	8f1d                	sub	a4,a4,a5
    57ce:	412f0933          	sub	s2,t5,s2
    57d2:	012f37b3          	sltu	a5,t5,s2
    57d6:	40f70633          	sub	a2,a4,a5
    57da:	00861793          	slli	a5,a2,0x8
    57de:	2407d463          	bgez	a5,5a26 <__adddf3+0x2fa>
    57e2:	00800737          	lui	a4,0x800
    57e6:	177d                	addi	a4,a4,-1
    57e8:	00e67433          	and	s0,a2,a4
    57ec:	2c040c63          	beqz	s0,5ac4 <__adddf3+0x398>
    57f0:	8522                	mv	a0,s0
    57f2:	0c2020ef          	jal	ra,78b4 <__clzsi2>
    57f6:	ff850713          	addi	a4,a0,-8 # 3fff8 <_data_lma+0x3690c>
    57fa:	02000793          	li	a5,32
    57fe:	8f99                	sub	a5,a5,a4
    5800:	00f957b3          	srl	a5,s2,a5
    5804:	00e41633          	sll	a2,s0,a4
    5808:	8fd1                	or	a5,a5,a2
    580a:	00e91933          	sll	s2,s2,a4
    580e:	2a974163          	blt	a4,s1,5ab0 <__adddf3+0x384>
    5812:	40970533          	sub	a0,a4,s1
    5816:	00150613          	addi	a2,a0,1
    581a:	477d                	li	a4,31
    581c:	38c74d63          	blt	a4,a2,5bb6 <__adddf3+0x48a>
    5820:	02000713          	li	a4,32
    5824:	8f11                	sub	a4,a4,a2
    5826:	00c956b3          	srl	a3,s2,a2
    582a:	00e91933          	sll	s2,s2,a4
    582e:	00e79733          	sll	a4,a5,a4
    5832:	8f55                	or	a4,a4,a3
    5834:	01203933          	snez	s2,s2
    5838:	01276933          	or	s2,a4,s2
    583c:	00c7d633          	srl	a2,a5,a2
    5840:	4481                	li	s1,0
    5842:	00797793          	andi	a5,s2,7
    5846:	cf81                	beqz	a5,585e <__adddf3+0x132>
    5848:	00f97713          	andi	a4,s2,15
    584c:	4791                	li	a5,4
    584e:	00f70863          	beq	a4,a5,585e <__adddf3+0x132>
    5852:	00490713          	addi	a4,s2,4
    5856:	01273933          	sltu	s2,a4,s2
    585a:	964a                	add	a2,a2,s2
    585c:	893a                	mv	s2,a4
    585e:	00861793          	slli	a5,a2,0x8
    5862:	1c07d663          	bgez	a5,5a2e <__adddf3+0x302>
    5866:	00148513          	addi	a0,s1,1
    586a:	7ff00793          	li	a5,2047
    586e:	85ce                	mv	a1,s3
    5870:	20f50463          	beq	a0,a5,5a78 <__adddf3+0x34c>
    5874:	ff8007b7          	lui	a5,0xff800
    5878:	17fd                	addi	a5,a5,-1
    587a:	8ff1                	and	a5,a5,a2
    587c:	01d79893          	slli	a7,a5,0x1d
    5880:	00395913          	srli	s2,s2,0x3
    5884:	07a6                	slli	a5,a5,0x9
    5886:	0128e8b3          	or	a7,a7,s2
    588a:	83b1                	srli	a5,a5,0xc
    588c:	7ff57513          	andi	a0,a0,2047
    5890:	00c79693          	slli	a3,a5,0xc
    5894:	0552                	slli	a0,a0,0x14
    5896:	40f2                	lw	ra,28(sp)
    5898:	4462                	lw	s0,24(sp)
    589a:	82b1                	srli	a3,a3,0xc
    589c:	05fe                	slli	a1,a1,0x1f
    589e:	8ec9                	or	a3,a3,a0
    58a0:	8ecd                	or	a3,a3,a1
    58a2:	44d2                	lw	s1,20(sp)
    58a4:	4942                	lw	s2,16(sp)
    58a6:	49b2                	lw	s3,12(sp)
    58a8:	8546                	mv	a0,a7
    58aa:	85b6                	mv	a1,a3
    58ac:	6105                	addi	sp,sp,32
    58ae:	8082                	ret
    58b0:	0a0e1e63          	bnez	t3,596c <__adddf3+0x240>
    58b4:	00148313          	addi	t1,s1,1
    58b8:	7fe37313          	andi	t1,t1,2046
    58bc:	22031763          	bnez	t1,5aea <__adddf3+0x3be>
    58c0:	01e767b3          	or	a5,a4,t5
    58c4:	01f868b3          	or	a7,a6,t6
    58c8:	1a049d63          	bnez	s1,5a82 <__adddf3+0x356>
    58cc:	40078763          	beqz	a5,5cda <__adddf3+0x5ae>
    58d0:	44088663          	beqz	a7,5d1c <__adddf3+0x5f0>
    58d4:	41ff0933          	sub	s2,t5,t6
    58d8:	410707b3          	sub	a5,a4,a6
    58dc:	012f3633          	sltu	a2,t5,s2
    58e0:	40c78633          	sub	a2,a5,a2
    58e4:	00861793          	slli	a5,a2,0x8
    58e8:	4c07d663          	bgez	a5,5db4 <__adddf3+0x688>
    58ec:	41ef8933          	sub	s2,t6,t5
    58f0:	40e807b3          	sub	a5,a6,a4
    58f4:	012fb633          	sltu	a2,t6,s2
    58f8:	40c78633          	sub	a2,a5,a2
    58fc:	89f6                	mv	s3,t4
    58fe:	b791                	j	5842 <__adddf3+0x116>
    5900:	0fc05063          	blez	t3,59e0 <__adddf3+0x2b4>
    5904:	0c030063          	beqz	t1,59c4 <__adddf3+0x298>
    5908:	008006b7          	lui	a3,0x800
    590c:	7ff00793          	li	a5,2047
    5910:	00d86833          	or	a6,a6,a3
    5914:	3af48a63          	beq	s1,a5,5cc8 <__adddf3+0x59c>
    5918:	03800793          	li	a5,56
    591c:	13c7cb63          	blt	a5,t3,5a52 <__adddf3+0x326>
    5920:	47fd                	li	a5,31
    5922:	35c7df63          	bge	a5,t3,5c80 <__adddf3+0x554>
    5926:	fe0e0913          	addi	s2,t3,-32
    592a:	02000793          	li	a5,32
    592e:	012856b3          	srl	a3,a6,s2
    5932:	00fe0a63          	beq	t3,a5,5946 <__adddf3+0x21a>
    5936:	04000913          	li	s2,64
    593a:	41c90933          	sub	s2,s2,t3
    593e:	01281933          	sll	s2,a6,s2
    5942:	012fefb3          	or	t6,t6,s2
    5946:	01f03933          	snez	s2,t6
    594a:	00d96933          	or	s2,s2,a3
    594e:	a231                	j	5a5a <__adddf3+0x32e>
    5950:	01f867b3          	or	a5,a6,t6
    5954:	1c078a63          	beqz	a5,5b28 <__adddf3+0x3fc>
    5958:	fffe0793          	addi	a5,t3,-1
    595c:	38078c63          	beqz	a5,5cf4 <__adddf3+0x5c8>
    5960:	7ff00693          	li	a3,2047
    5964:	1ade0963          	beq	t3,a3,5b16 <__adddf3+0x3ea>
    5968:	8e3e                	mv	t3,a5
    596a:	bd0d                	j	579c <__adddf3+0x70>
    596c:	409305b3          	sub	a1,t1,s1
    5970:	22049163          	bnez	s1,5b92 <__adddf3+0x466>
    5974:	01e767b3          	or	a5,a4,t5
    5978:	32078763          	beqz	a5,5ca6 <__adddf3+0x57a>
    597c:	fff58793          	addi	a5,a1,-1
    5980:	44078163          	beqz	a5,5dc2 <__adddf3+0x696>
    5984:	7ff00693          	li	a3,2047
    5988:	20d58c63          	beq	a1,a3,5ba0 <__adddf3+0x474>
    598c:	85be                	mv	a1,a5
    598e:	03800793          	li	a5,56
    5992:	2ab7cc63          	blt	a5,a1,5c4a <__adddf3+0x51e>
    5996:	47fd                	li	a5,31
    5998:	3cb7cf63          	blt	a5,a1,5d76 <__adddf3+0x64a>
    599c:	02000793          	li	a5,32
    59a0:	8f8d                	sub	a5,a5,a1
    59a2:	00f71933          	sll	s2,a4,a5
    59a6:	00bf56b3          	srl	a3,t5,a1
    59aa:	00ff17b3          	sll	a5,t5,a5
    59ae:	00d96933          	or	s2,s2,a3
    59b2:	00f037b3          	snez	a5,a5
    59b6:	00b75733          	srl	a4,a4,a1
    59ba:	00f96933          	or	s2,s2,a5
    59be:	40e80833          	sub	a6,a6,a4
    59c2:	ac41                	j	5c52 <__adddf3+0x526>
    59c4:	01f867b3          	or	a5,a6,t6
    59c8:	34078063          	beqz	a5,5d08 <__adddf3+0x5dc>
    59cc:	fffe0793          	addi	a5,t3,-1
    59d0:	20078a63          	beqz	a5,5be4 <__adddf3+0x4b8>
    59d4:	7ff00693          	li	a3,2047
    59d8:	2ede0863          	beq	t3,a3,5cc8 <__adddf3+0x59c>
    59dc:	8e3e                	mv	t3,a5
    59de:	bf2d                	j	5918 <__adddf3+0x1ec>
    59e0:	140e1e63          	bnez	t3,5b3c <__adddf3+0x410>
    59e4:	00148693          	addi	a3,s1,1
    59e8:	7fe6f793          	andi	a5,a3,2046
    59ec:	34079163          	bnez	a5,5d2e <__adddf3+0x602>
    59f0:	01e767b3          	or	a5,a4,t5
    59f4:	2c049563          	bnez	s1,5cbe <__adddf3+0x592>
    59f8:	3e078063          	beqz	a5,5dd8 <__adddf3+0x6ac>
    59fc:	01f867b3          	or	a5,a6,t6
    5a00:	30078e63          	beqz	a5,5d1c <__adddf3+0x5f0>
    5a04:	01ff0933          	add	s2,t5,t6
    5a08:	010707b3          	add	a5,a4,a6
    5a0c:	01e93f33          	sltu	t5,s2,t5
    5a10:	01e78633          	add	a2,a5,t5
    5a14:	00861793          	slli	a5,a2,0x8
    5a18:	0007d763          	bgez	a5,5a26 <__adddf3+0x2fa>
    5a1c:	ff8007b7          	lui	a5,0xff800
    5a20:	17fd                	addi	a5,a5,-1
    5a22:	8e7d                	and	a2,a2,a5
    5a24:	4485                	li	s1,1
    5a26:	00797793          	andi	a5,s2,7
    5a2a:	e0079fe3          	bnez	a5,5848 <__adddf3+0x11c>
    5a2e:	01d61793          	slli	a5,a2,0x1d
    5a32:	00395893          	srli	a7,s2,0x3
    5a36:	00f8e8b3          	or	a7,a7,a5
    5a3a:	00365793          	srli	a5,a2,0x3
    5a3e:	7ff00713          	li	a4,2047
    5a42:	04e48d63          	beq	s1,a4,5a9c <__adddf3+0x370>
    5a46:	07b2                	slli	a5,a5,0xc
    5a48:	83b1                	srli	a5,a5,0xc
    5a4a:	7ff4f513          	andi	a0,s1,2047
    5a4e:	85ce                	mv	a1,s3
    5a50:	b581                	j	5890 <__adddf3+0x164>
    5a52:	01f86933          	or	s2,a6,t6
    5a56:	01203933          	snez	s2,s2
    5a5a:	997a                	add	s2,s2,t5
    5a5c:	01e937b3          	sltu	a5,s2,t5
    5a60:	00e78633          	add	a2,a5,a4
    5a64:	00861793          	slli	a5,a2,0x8
    5a68:	fa07dfe3          	bgez	a5,5a26 <__adddf3+0x2fa>
    5a6c:	0485                	addi	s1,s1,1
    5a6e:	7ff00793          	li	a5,2047
    5a72:	18f49663          	bne	s1,a5,5bfe <__adddf3+0x4d2>
    5a76:	85ce                	mv	a1,s3
    5a78:	7ff00513          	li	a0,2047
    5a7c:	4781                	li	a5,0
    5a7e:	4881                	li	a7,0
    5a80:	bd01                	j	5890 <__adddf3+0x164>
    5a82:	ebc1                	bnez	a5,5b12 <__adddf3+0x3e6>
    5a84:	3a088463          	beqz	a7,5e2c <__adddf3+0x700>
    5a88:	00361693          	slli	a3,a2,0x3
    5a8c:	01d81793          	slli	a5,a6,0x1d
    5a90:	828d                	srli	a3,a3,0x3
    5a92:	00d7e8b3          	or	a7,a5,a3
    5a96:	89f6                	mv	s3,t4
    5a98:	00385793          	srli	a5,a6,0x3
    5a9c:	00f8e7b3          	or	a5,a7,a5
    5aa0:	dbf9                	beqz	a5,5a76 <__adddf3+0x34a>
    5aa2:	4581                	li	a1,0
    5aa4:	7ff00513          	li	a0,2047
    5aa8:	000807b7          	lui	a5,0x80
    5aac:	4881                	li	a7,0
    5aae:	b3cd                	j	5890 <__adddf3+0x164>
    5ab0:	ff800637          	lui	a2,0xff800
    5ab4:	167d                	addi	a2,a2,-1
    5ab6:	8e7d                	and	a2,a2,a5
    5ab8:	00797793          	andi	a5,s2,7
    5abc:	8c99                	sub	s1,s1,a4
    5abe:	d80795e3          	bnez	a5,5848 <__adddf3+0x11c>
    5ac2:	b7b5                	j	5a2e <__adddf3+0x302>
    5ac4:	854a                	mv	a0,s2
    5ac6:	5ef010ef          	jal	ra,78b4 <__clzsi2>
    5aca:	01850713          	addi	a4,a0,24
    5ace:	47fd                	li	a5,31
    5ad0:	d2e7d5e3          	bge	a5,a4,57fa <__adddf3+0xce>
    5ad4:	ff850613          	addi	a2,a0,-8
    5ad8:	00c917b3          	sll	a5,s2,a2
    5adc:	4901                	li	s2,0
    5ade:	bb05                	j	580e <__adddf3+0xe2>
    5ae0:	01f86933          	or	s2,a6,t6
    5ae4:	01203933          	snez	s2,s2
    5ae8:	b1dd                	j	57ce <__adddf3+0xa2>
    5aea:	41ff0933          	sub	s2,t5,t6
    5aee:	41070633          	sub	a2,a4,a6
    5af2:	012f3433          	sltu	s0,t5,s2
    5af6:	40860433          	sub	s0,a2,s0
    5afa:	00841793          	slli	a5,s0,0x8
    5afe:	2407cd63          	bltz	a5,5d58 <__adddf3+0x62c>
    5b02:	008968b3          	or	a7,s2,s0
    5b06:	ce0893e3          	bnez	a7,57ec <__adddf3+0xc0>
    5b0a:	4781                	li	a5,0
    5b0c:	4981                	li	s3,0
    5b0e:	4481                	li	s1,0
    5b10:	bf1d                	j	5a46 <__adddf3+0x31a>
    5b12:	f80898e3          	bnez	a7,5aa2 <__adddf3+0x376>
    5b16:	050e                	slli	a0,a0,0x3
    5b18:	01d71793          	slli	a5,a4,0x1d
    5b1c:	810d                	srli	a0,a0,0x3
    5b1e:	00a7e8b3          	or	a7,a5,a0
    5b22:	00375793          	srli	a5,a4,0x3
    5b26:	bf9d                	j	5a9c <__adddf3+0x370>
    5b28:	050e                	slli	a0,a0,0x3
    5b2a:	01d71793          	slli	a5,a4,0x1d
    5b2e:	810d                	srli	a0,a0,0x3
    5b30:	00a7e8b3          	or	a7,a5,a0
    5b34:	84f2                	mv	s1,t3
    5b36:	00375793          	srli	a5,a4,0x3
    5b3a:	b711                	j	5a3e <__adddf3+0x312>
    5b3c:	40930533          	sub	a0,t1,s1
    5b40:	12048263          	beqz	s1,5c64 <__adddf3+0x538>
    5b44:	008006b7          	lui	a3,0x800
    5b48:	7ff00793          	li	a5,2047
    5b4c:	8f55                	or	a4,a4,a3
    5b4e:	2ef30d63          	beq	t1,a5,5e48 <__adddf3+0x71c>
    5b52:	03800793          	li	a5,56
    5b56:	20a7cb63          	blt	a5,a0,5d6c <__adddf3+0x640>
    5b5a:	47fd                	li	a5,31
    5b5c:	2aa7c363          	blt	a5,a0,5e02 <__adddf3+0x6d6>
    5b60:	02000793          	li	a5,32
    5b64:	8f89                	sub	a5,a5,a0
    5b66:	00f71933          	sll	s2,a4,a5
    5b6a:	00af56b3          	srl	a3,t5,a0
    5b6e:	00ff17b3          	sll	a5,t5,a5
    5b72:	00d96933          	or	s2,s2,a3
    5b76:	00f037b3          	snez	a5,a5
    5b7a:	00a75733          	srl	a4,a4,a0
    5b7e:	00f96933          	or	s2,s2,a5
    5b82:	983a                	add	a6,a6,a4
    5b84:	997e                	add	s2,s2,t6
    5b86:	01f937b3          	sltu	a5,s2,t6
    5b8a:	01078633          	add	a2,a5,a6
    5b8e:	849a                	mv	s1,t1
    5b90:	bdd1                	j	5a64 <__adddf3+0x338>
    5b92:	008006b7          	lui	a3,0x800
    5b96:	7ff00793          	li	a5,2047
    5b9a:	8f55                	or	a4,a4,a3
    5b9c:	def319e3          	bne	t1,a5,598e <__adddf3+0x262>
    5ba0:	00361793          	slli	a5,a2,0x3
    5ba4:	838d                	srli	a5,a5,0x3
    5ba6:	01d81893          	slli	a7,a6,0x1d
    5baa:	0117e8b3          	or	a7,a5,a7
    5bae:	89f6                	mv	s3,t4
    5bb0:	00385793          	srli	a5,a6,0x3
    5bb4:	b5e5                	j	5a9c <__adddf3+0x370>
    5bb6:	fe150713          	addi	a4,a0,-31
    5bba:	02000693          	li	a3,32
    5bbe:	00e7d733          	srl	a4,a5,a4
    5bc2:	00d60a63          	beq	a2,a3,5bd6 <__adddf3+0x4aa>
    5bc6:	04000693          	li	a3,64
    5bca:	40c68633          	sub	a2,a3,a2
    5bce:	00c79633          	sll	a2,a5,a2
    5bd2:	00c96933          	or	s2,s2,a2
    5bd6:	01203933          	snez	s2,s2
    5bda:	00e96933          	or	s2,s2,a4
    5bde:	4601                	li	a2,0
    5be0:	4481                	li	s1,0
    5be2:	b591                	j	5a26 <__adddf3+0x2fa>
    5be4:	01ff0933          	add	s2,t5,t6
    5be8:	010707b3          	add	a5,a4,a6
    5bec:	01e93633          	sltu	a2,s2,t5
    5bf0:	963e                	add	a2,a2,a5
    5bf2:	00861793          	slli	a5,a2,0x8
    5bf6:	4485                	li	s1,1
    5bf8:	e207d7e3          	bgez	a5,5a26 <__adddf3+0x2fa>
    5bfc:	4489                	li	s1,2
    5bfe:	ff8007b7          	lui	a5,0xff800
    5c02:	17fd                	addi	a5,a5,-1
    5c04:	8ff1                	and	a5,a5,a2
    5c06:	00195713          	srli	a4,s2,0x1
    5c0a:	00197913          	andi	s2,s2,1
    5c0e:	01276933          	or	s2,a4,s2
    5c12:	01f79893          	slli	a7,a5,0x1f
    5c16:	0128e933          	or	s2,a7,s2
    5c1a:	0017d613          	srli	a2,a5,0x1
    5c1e:	b115                	j	5842 <__adddf3+0x116>
    5c20:	fe0e0913          	addi	s2,t3,-32
    5c24:	02000793          	li	a5,32
    5c28:	012856b3          	srl	a3,a6,s2
    5c2c:	00fe0a63          	beq	t3,a5,5c40 <__adddf3+0x514>
    5c30:	04000913          	li	s2,64
    5c34:	41c90933          	sub	s2,s2,t3
    5c38:	01281933          	sll	s2,a6,s2
    5c3c:	012fefb3          	or	t6,t6,s2
    5c40:	01f03933          	snez	s2,t6
    5c44:	00d96933          	or	s2,s2,a3
    5c48:	b659                	j	57ce <__adddf3+0xa2>
    5c4a:	01e76933          	or	s2,a4,t5
    5c4e:	01203933          	snez	s2,s2
    5c52:	412f8933          	sub	s2,t6,s2
    5c56:	012fb7b3          	sltu	a5,t6,s2
    5c5a:	40f80633          	sub	a2,a6,a5
    5c5e:	849a                	mv	s1,t1
    5c60:	89f6                	mv	s3,t4
    5c62:	bea5                	j	57da <__adddf3+0xae>
    5c64:	01e767b3          	or	a5,a4,t5
    5c68:	18078263          	beqz	a5,5dec <__adddf3+0x6c0>
    5c6c:	fff50793          	addi	a5,a0,-1
    5c70:	1c078463          	beqz	a5,5e38 <__adddf3+0x70c>
    5c74:	7ff00693          	li	a3,2047
    5c78:	12d50463          	beq	a0,a3,5da0 <__adddf3+0x674>
    5c7c:	853e                	mv	a0,a5
    5c7e:	bdd1                	j	5b52 <__adddf3+0x426>
    5c80:	02000793          	li	a5,32
    5c84:	41c787b3          	sub	a5,a5,t3
    5c88:	00f816b3          	sll	a3,a6,a5
    5c8c:	00ff9933          	sll	s2,t6,a5
    5c90:	01cfd633          	srl	a2,t6,t3
    5c94:	8ed1                	or	a3,a3,a2
    5c96:	01203933          	snez	s2,s2
    5c9a:	01c857b3          	srl	a5,a6,t3
    5c9e:	0126e933          	or	s2,a3,s2
    5ca2:	973e                	add	a4,a4,a5
    5ca4:	bb5d                	j	5a5a <__adddf3+0x32e>
    5ca6:	00361793          	slli	a5,a2,0x3
    5caa:	838d                	srli	a5,a5,0x3
    5cac:	01d81893          	slli	a7,a6,0x1d
    5cb0:	0117e8b3          	or	a7,a5,a7
    5cb4:	84ae                	mv	s1,a1
    5cb6:	00385793          	srli	a5,a6,0x3
    5cba:	89f6                	mv	s3,t4
    5cbc:	b349                	j	5a3e <__adddf3+0x312>
    5cbe:	c3ed                	beqz	a5,5da0 <__adddf3+0x674>
    5cc0:	01f86933          	or	s2,a6,t6
    5cc4:	dc091fe3          	bnez	s2,5aa2 <__adddf3+0x376>
    5cc8:	050e                	slli	a0,a0,0x3
    5cca:	01d71793          	slli	a5,a4,0x1d
    5cce:	810d                	srli	a0,a0,0x3
    5cd0:	00f568b3          	or	a7,a0,a5
    5cd4:	00375793          	srli	a5,a4,0x3
    5cd8:	b3d1                	j	5a9c <__adddf3+0x370>
    5cda:	0e088163          	beqz	a7,5dbc <__adddf3+0x690>
    5cde:	00361693          	slli	a3,a2,0x3
    5ce2:	01d81793          	slli	a5,a6,0x1d
    5ce6:	828d                	srli	a3,a3,0x3
    5ce8:	00d7e8b3          	or	a7,a5,a3
    5cec:	89f6                	mv	s3,t4
    5cee:	00385793          	srli	a5,a6,0x3
    5cf2:	bb91                	j	5a46 <__adddf3+0x31a>
    5cf4:	41ff0933          	sub	s2,t5,t6
    5cf8:	410707b3          	sub	a5,a4,a6
    5cfc:	012f3f33          	sltu	t5,t5,s2
    5d00:	41e78633          	sub	a2,a5,t5
    5d04:	4485                	li	s1,1
    5d06:	bcd1                	j	57da <__adddf3+0xae>
    5d08:	050e                	slli	a0,a0,0x3
    5d0a:	01d71793          	slli	a5,a4,0x1d
    5d0e:	810d                	srli	a0,a0,0x3
    5d10:	00f568b3          	or	a7,a0,a5
    5d14:	84f2                	mv	s1,t3
    5d16:	00375793          	srli	a5,a4,0x3
    5d1a:	b315                	j	5a3e <__adddf3+0x312>
    5d1c:	050e                	slli	a0,a0,0x3
    5d1e:	01d71793          	slli	a5,a4,0x1d
    5d22:	810d                	srli	a0,a0,0x3
    5d24:	00a7e8b3          	or	a7,a5,a0
    5d28:	00375793          	srli	a5,a4,0x3
    5d2c:	bb29                	j	5a46 <__adddf3+0x31a>
    5d2e:	7ff00793          	li	a5,2047
    5d32:	d4f682e3          	beq	a3,a5,5a76 <__adddf3+0x34a>
    5d36:	01ff0933          	add	s2,t5,t6
    5d3a:	01e93633          	sltu	a2,s2,t5
    5d3e:	010707b3          	add	a5,a4,a6
    5d42:	97b2                	add	a5,a5,a2
    5d44:	01f79893          	slli	a7,a5,0x1f
    5d48:	00195913          	srli	s2,s2,0x1
    5d4c:	0128e933          	or	s2,a7,s2
    5d50:	0017d613          	srli	a2,a5,0x1
    5d54:	84b6                	mv	s1,a3
    5d56:	b9c1                	j	5a26 <__adddf3+0x2fa>
    5d58:	41ef8933          	sub	s2,t6,t5
    5d5c:	40e80733          	sub	a4,a6,a4
    5d60:	012fb633          	sltu	a2,t6,s2
    5d64:	40c70433          	sub	s0,a4,a2
    5d68:	89f6                	mv	s3,t4
    5d6a:	b449                	j	57ec <__adddf3+0xc0>
    5d6c:	01e76933          	or	s2,a4,t5
    5d70:	01203933          	snez	s2,s2
    5d74:	bd01                	j	5b84 <__adddf3+0x458>
    5d76:	fe058793          	addi	a5,a1,-32
    5d7a:	02000693          	li	a3,32
    5d7e:	00f757b3          	srl	a5,a4,a5
    5d82:	00d58a63          	beq	a1,a3,5d96 <__adddf3+0x66a>
    5d86:	04000693          	li	a3,64
    5d8a:	40b685b3          	sub	a1,a3,a1
    5d8e:	00b71733          	sll	a4,a4,a1
    5d92:	00ef6f33          	or	t5,t5,a4
    5d96:	01e03933          	snez	s2,t5
    5d9a:	00f96933          	or	s2,s2,a5
    5d9e:	bd55                	j	5c52 <__adddf3+0x526>
    5da0:	00361793          	slli	a5,a2,0x3
    5da4:	838d                	srli	a5,a5,0x3
    5da6:	01d81893          	slli	a7,a6,0x1d
    5daa:	0117e8b3          	or	a7,a5,a7
    5dae:	00385793          	srli	a5,a6,0x3
    5db2:	b1ed                	j	5a9c <__adddf3+0x370>
    5db4:	00c968b3          	or	a7,s2,a2
    5db8:	c60897e3          	bnez	a7,5a26 <__adddf3+0x2fa>
    5dbc:	4781                	li	a5,0
    5dbe:	4981                	li	s3,0
    5dc0:	b159                	j	5a46 <__adddf3+0x31a>
    5dc2:	41ef8933          	sub	s2,t6,t5
    5dc6:	40e807b3          	sub	a5,a6,a4
    5dca:	012fb633          	sltu	a2,t6,s2
    5dce:	40c78633          	sub	a2,a5,a2
    5dd2:	89f6                	mv	s3,t4
    5dd4:	4485                	li	s1,1
    5dd6:	b411                	j	57da <__adddf3+0xae>
    5dd8:	00361693          	slli	a3,a2,0x3
    5ddc:	01d81793          	slli	a5,a6,0x1d
    5de0:	828d                	srli	a3,a3,0x3
    5de2:	00d7e8b3          	or	a7,a5,a3
    5de6:	00385793          	srli	a5,a6,0x3
    5dea:	b9b1                	j	5a46 <__adddf3+0x31a>
    5dec:	00361693          	slli	a3,a2,0x3
    5df0:	01d81793          	slli	a5,a6,0x1d
    5df4:	828d                	srli	a3,a3,0x3
    5df6:	00d7e8b3          	or	a7,a5,a3
    5dfa:	84aa                	mv	s1,a0
    5dfc:	00385793          	srli	a5,a6,0x3
    5e00:	b93d                	j	5a3e <__adddf3+0x312>
    5e02:	fe050793          	addi	a5,a0,-32
    5e06:	02000693          	li	a3,32
    5e0a:	00f757b3          	srl	a5,a4,a5
    5e0e:	00d50a63          	beq	a0,a3,5e22 <__adddf3+0x6f6>
    5e12:	04000693          	li	a3,64
    5e16:	40a68533          	sub	a0,a3,a0
    5e1a:	00a71733          	sll	a4,a4,a0
    5e1e:	00ef6f33          	or	t5,t5,a4
    5e22:	01e03933          	snez	s2,t5
    5e26:	00f96933          	or	s2,s2,a5
    5e2a:	bba9                	j	5b84 <__adddf3+0x458>
    5e2c:	4581                	li	a1,0
    5e2e:	7ff00513          	li	a0,2047
    5e32:	000807b7          	lui	a5,0x80
    5e36:	bca9                	j	5890 <__adddf3+0x164>
    5e38:	01ff0933          	add	s2,t5,t6
    5e3c:	010707b3          	add	a5,a4,a6
    5e40:	01f93633          	sltu	a2,s2,t6
    5e44:	963e                	add	a2,a2,a5
    5e46:	b375                	j	5bf2 <__adddf3+0x4c6>
    5e48:	00361693          	slli	a3,a2,0x3
    5e4c:	01d81793          	slli	a5,a6,0x1d
    5e50:	828d                	srli	a3,a3,0x3
    5e52:	00d7e8b3          	or	a7,a5,a3
    5e56:	00385793          	srli	a5,a6,0x3
    5e5a:	b189                	j	5a9c <__adddf3+0x370>

00005e5c <__eqdf2>:
__eqdf2():
    5e5c:	0145d713          	srli	a4,a1,0x14
    5e60:	001007b7          	lui	a5,0x100
    5e64:	17fd                	addi	a5,a5,-1
    5e66:	0146d813          	srli	a6,a3,0x14
    5e6a:	7ff77713          	andi	a4,a4,2047
    5e6e:	7ff00893          	li	a7,2047
    5e72:	00b7fe33          	and	t3,a5,a1
    5e76:	8eaa                	mv	t4,a0
    5e78:	8ff5                	and	a5,a5,a3
    5e7a:	81fd                	srli	a1,a1,0x1f
    5e7c:	8f32                	mv	t5,a2
    5e7e:	7ff87813          	andi	a6,a6,2047
    5e82:	82fd                	srli	a3,a3,0x1f
    5e84:	01170b63          	beq	a4,a7,5e9a <__eqdf2+0x3e>
    5e88:	4305                	li	t1,1
    5e8a:	01180663          	beq	a6,a7,5e96 <__eqdf2+0x3a>
    5e8e:	01071463          	bne	a4,a6,5e96 <__eqdf2+0x3a>
    5e92:	00fe0d63          	beq	t3,a5,5eac <__eqdf2+0x50>
    5e96:	851a                	mv	a0,t1
    5e98:	8082                	ret
    5e9a:	00ae68b3          	or	a7,t3,a0
    5e9e:	4305                	li	t1,1
    5ea0:	fe089be3          	bnez	a7,5e96 <__eqdf2+0x3a>
    5ea4:	fee819e3          	bne	a6,a4,5e96 <__eqdf2+0x3a>
    5ea8:	8fd1                	or	a5,a5,a2
    5eaa:	f7f5                	bnez	a5,5e96 <__eqdf2+0x3a>
    5eac:	4305                	li	t1,1
    5eae:	ffee94e3          	bne	t4,t5,5e96 <__eqdf2+0x3a>
    5eb2:	4301                	li	t1,0
    5eb4:	fed581e3          	beq	a1,a3,5e96 <__eqdf2+0x3a>
    5eb8:	4305                	li	t1,1
    5eba:	ff71                	bnez	a4,5e96 <__eqdf2+0x3a>
    5ebc:	00ae6533          	or	a0,t3,a0
    5ec0:	00a03333          	snez	t1,a0
    5ec4:	bfc9                	j	5e96 <__eqdf2+0x3a>

00005ec6 <__ledf2>:
__ltdf2():
    5ec6:	0145d713          	srli	a4,a1,0x14
    5eca:	001007b7          	lui	a5,0x100
    5ece:	17fd                	addi	a5,a5,-1
    5ed0:	0146d813          	srli	a6,a3,0x14
    5ed4:	7ff77713          	andi	a4,a4,2047
    5ed8:	7ff00893          	li	a7,2047
    5edc:	00b7fe33          	and	t3,a5,a1
    5ee0:	8eaa                	mv	t4,a0
    5ee2:	8ff5                	and	a5,a5,a3
    5ee4:	81fd                	srli	a1,a1,0x1f
    5ee6:	8f32                	mv	t5,a2
    5ee8:	7ff87813          	andi	a6,a6,2047
    5eec:	82fd                	srli	a3,a3,0x1f
    5eee:	03170e63          	beq	a4,a7,5f2a <__ledf2+0x64>
    5ef2:	01180d63          	beq	a6,a7,5f0c <__ledf2+0x46>
    5ef6:	e329                	bnez	a4,5f38 <__ledf2+0x72>
    5ef8:	00ae68b3          	or	a7,t3,a0
    5efc:	00081f63          	bnez	a6,5f1a <__ledf2+0x54>
    5f00:	8e5d                	or	a2,a2,a5
    5f02:	ee01                	bnez	a2,5f1a <__ledf2+0x54>
    5f04:	4301                	li	t1,0
    5f06:	04088c63          	beqz	a7,5f5e <__ledf2+0x98>
    5f0a:	a821                	j	5f22 <__ledf2+0x5c>
    5f0c:	00c7e8b3          	or	a7,a5,a2
    5f10:	4309                	li	t1,2
    5f12:	04089663          	bnez	a7,5f5e <__ledf2+0x98>
    5f16:	d36d                	beqz	a4,5ef8 <__ledf2+0x32>
    5f18:	a005                	j	5f38 <__ledf2+0x72>
    5f1a:	04088463          	beqz	a7,5f62 <__ledf2+0x9c>
    5f1e:	02d58563          	beq	a1,a3,5f48 <__ledf2+0x82>
    5f22:	4305                	li	t1,1
    5f24:	cd8d                	beqz	a1,5f5e <__ledf2+0x98>
    5f26:	537d                	li	t1,-1
    5f28:	a81d                	j	5f5e <__ledf2+0x98>
    5f2a:	00ae68b3          	or	a7,t3,a0
    5f2e:	4309                	li	t1,2
    5f30:	02089763          	bnez	a7,5f5e <__ledf2+0x98>
    5f34:	02e80a63          	beq	a6,a4,5f68 <__ledf2+0xa2>
    5f38:	00081463          	bnez	a6,5f40 <__ledf2+0x7a>
    5f3c:	8e5d                	or	a2,a2,a5
    5f3e:	d275                	beqz	a2,5f22 <__ledf2+0x5c>
    5f40:	fed591e3          	bne	a1,a3,5f22 <__ledf2+0x5c>
    5f44:	fce84fe3          	blt	a6,a4,5f22 <__ledf2+0x5c>
    5f48:	01074963          	blt	a4,a6,5f5a <__ledf2+0x94>
    5f4c:	fdc7ebe3          	bltu	a5,t3,5f22 <__ledf2+0x5c>
    5f50:	00fe0f63          	beq	t3,a5,5f6e <__ledf2+0xa8>
    5f54:	4301                	li	t1,0
    5f56:	00fe7463          	bgeu	t3,a5,5f5e <__ledf2+0x98>
    5f5a:	d5f1                	beqz	a1,5f26 <__ledf2+0x60>
    5f5c:	4305                	li	t1,1
    5f5e:	851a                	mv	a0,t1
    5f60:	8082                	ret
    5f62:	feed                	bnez	a3,5f5c <__ledf2+0x96>
    5f64:	537d                	li	t1,-1
    5f66:	bfe5                	j	5f5e <__ledf2+0x98>
    5f68:	8e5d                	or	a2,a2,a5
    5f6a:	da79                	beqz	a2,5f40 <__ledf2+0x7a>
    5f6c:	bfcd                	j	5f5e <__ledf2+0x98>
    5f6e:	fbdf6ae3          	bltu	t5,t4,5f22 <__ledf2+0x5c>
    5f72:	4301                	li	t1,0
    5f74:	ffeef5e3          	bgeu	t4,t5,5f5e <__ledf2+0x98>
    5f78:	f1f5                	bnez	a1,5f5c <__ledf2+0x96>
    5f7a:	b775                	j	5f26 <__ledf2+0x60>

00005f7c <__muldf3>:
__muldf3():
    5f7c:	7139                	addi	sp,sp,-64
    5f7e:	d84a                	sw	s2,48(sp)
    5f80:	0145d913          	srli	s2,a1,0x14
    5f84:	d64e                	sw	s3,44(sp)
    5f86:	d452                	sw	s4,40(sp)
    5f88:	d256                	sw	s5,36(sp)
    5f8a:	00c59993          	slli	s3,a1,0xc
    5f8e:	de06                	sw	ra,60(sp)
    5f90:	dc22                	sw	s0,56(sp)
    5f92:	da26                	sw	s1,52(sp)
    5f94:	d05a                	sw	s6,32(sp)
    5f96:	ce5e                	sw	s7,28(sp)
    5f98:	7ff97913          	andi	s2,s2,2047
    5f9c:	8a2a                	mv	s4,a0
    5f9e:	00c9d993          	srli	s3,s3,0xc
    5fa2:	01f5da93          	srli	s5,a1,0x1f
    5fa6:	0e090d63          	beqz	s2,60a0 <__muldf3+0x124>
    5faa:	7ff00793          	li	a5,2047
    5fae:	18f90663          	beq	s2,a5,613a <__muldf3+0x1be>
    5fb2:	01d55413          	srli	s0,a0,0x1d
    5fb6:	098e                	slli	s3,s3,0x3
    5fb8:	013469b3          	or	s3,s0,s3
    5fbc:	00800437          	lui	s0,0x800
    5fc0:	0089e433          	or	s0,s3,s0
    5fc4:	00351493          	slli	s1,a0,0x3
    5fc8:	c0190913          	addi	s2,s2,-1023
    5fcc:	4981                	li	s3,0
    5fce:	4b81                	li	s7,0
    5fd0:	0146d713          	srli	a4,a3,0x14
    5fd4:	00c69a13          	slli	s4,a3,0xc
    5fd8:	7ff77713          	andi	a4,a4,2047
    5fdc:	85b2                	mv	a1,a2
    5fde:	00ca5a13          	srli	s4,s4,0xc
    5fe2:	01f6db13          	srli	s6,a3,0x1f
    5fe6:	10070b63          	beqz	a4,60fc <__muldf3+0x180>
    5fea:	7ff00793          	li	a5,2047
    5fee:	04f70363          	beq	a4,a5,6034 <__muldf3+0xb8>
    5ff2:	01d65793          	srli	a5,a2,0x1d
    5ff6:	0a0e                	slli	s4,s4,0x3
    5ff8:	0147ea33          	or	s4,a5,s4
    5ffc:	c0170713          	addi	a4,a4,-1023 # 7ffc01 <_data_lma+0x7f6515>
    6000:	008007b7          	lui	a5,0x800
    6004:	00fa67b3          	or	a5,s4,a5
    6008:	00361593          	slli	a1,a2,0x3
    600c:	993a                	add	s2,s2,a4
    600e:	4881                	li	a7,0
    6010:	016ac733          	xor	a4,s5,s6
    6014:	46bd                	li	a3,15
    6016:	853a                	mv	a0,a4
    6018:	00190813          	addi	a6,s2,1
    601c:	1736e863          	bltu	a3,s3,618c <__muldf3+0x210>
    6020:	00003617          	auipc	a2,0x3
    6024:	47060613          	addi	a2,a2,1136 # 9490 <UARTN+0x10>
    6028:	098a                	slli	s3,s3,0x2
    602a:	99b2                	add	s3,s3,a2
    602c:	0009a683          	lw	a3,0(s3)
    6030:	96b2                	add	a3,a3,a2
    6032:	8682                	jr	a3
    6034:	00ca67b3          	or	a5,s4,a2
    6038:	7ff90913          	addi	s2,s2,2047
    603c:	12079963          	bnez	a5,616e <__muldf3+0x1f2>
    6040:	0029e993          	ori	s3,s3,2
    6044:	4581                	li	a1,0
    6046:	4889                	li	a7,2
    6048:	b7e1                	j	6010 <__muldf3+0x94>
    604a:	4701                	li	a4,0
    604c:	7ff00793          	li	a5,2047
    6050:	00080437          	lui	s0,0x80
    6054:	4481                	li	s1,0
    6056:	0432                	slli	s0,s0,0xc
    6058:	07d2                	slli	a5,a5,0x14
    605a:	8031                	srli	s0,s0,0xc
    605c:	077e                	slli	a4,a4,0x1f
    605e:	8c5d                	or	s0,s0,a5
    6060:	8c59                	or	s0,s0,a4
    6062:	85a2                	mv	a1,s0
    6064:	50f2                	lw	ra,60(sp)
    6066:	5462                	lw	s0,56(sp)
    6068:	8526                	mv	a0,s1
    606a:	5942                	lw	s2,48(sp)
    606c:	54d2                	lw	s1,52(sp)
    606e:	59b2                	lw	s3,44(sp)
    6070:	5a22                	lw	s4,40(sp)
    6072:	5a92                	lw	s5,36(sp)
    6074:	5b02                	lw	s6,32(sp)
    6076:	4bf2                	lw	s7,28(sp)
    6078:	6121                	addi	sp,sp,64
    607a:	8082                	ret
    607c:	855a                	mv	a0,s6
    607e:	843e                	mv	s0,a5
    6080:	84ae                	mv	s1,a1
    6082:	8bc6                	mv	s7,a7
    6084:	4789                	li	a5,2
    6086:	0efb8d63          	beq	s7,a5,6180 <__muldf3+0x204>
    608a:	478d                	li	a5,3
    608c:	fafb8fe3          	beq	s7,a5,604a <__muldf3+0xce>
    6090:	4785                	li	a5,1
    6092:	872a                	mv	a4,a0
    6094:	38fb9e63          	bne	s7,a5,6430 <__muldf3+0x4b4>
    6098:	4781                	li	a5,0
    609a:	4401                	li	s0,0
    609c:	4481                	li	s1,0
    609e:	bf65                	j	6056 <__muldf3+0xda>
    60a0:	00a9e433          	or	s0,s3,a0
    60a4:	c061                	beqz	s0,6164 <__muldf3+0x1e8>
    60a6:	c636                	sw	a3,12(sp)
    60a8:	c432                	sw	a2,8(sp)
    60aa:	2a098c63          	beqz	s3,6362 <__muldf3+0x3e6>
    60ae:	854e                	mv	a0,s3
    60b0:	005010ef          	jal	ra,78b4 <__clzsi2>
    60b4:	4622                	lw	a2,8(sp)
    60b6:	46b2                	lw	a3,12(sp)
    60b8:	87aa                	mv	a5,a0
    60ba:	ff550713          	addi	a4,a0,-11
    60be:	4475                	li	s0,29
    60c0:	ff878493          	addi	s1,a5,-8 # 7ffff8 <_data_lma+0x7f690c>
    60c4:	8c19                	sub	s0,s0,a4
    60c6:	009999b3          	sll	s3,s3,s1
    60ca:	008a5433          	srl	s0,s4,s0
    60ce:	01346433          	or	s0,s0,s3
    60d2:	009a14b3          	sll	s1,s4,s1
    60d6:	0146d713          	srli	a4,a3,0x14
    60da:	c0d00913          	li	s2,-1011
    60de:	00c69a13          	slli	s4,a3,0xc
    60e2:	7ff77713          	andi	a4,a4,2047
    60e6:	40f90933          	sub	s2,s2,a5
    60ea:	4981                	li	s3,0
    60ec:	4b81                	li	s7,0
    60ee:	85b2                	mv	a1,a2
    60f0:	00ca5a13          	srli	s4,s4,0xc
    60f4:	01f6db13          	srli	s6,a3,0x1f
    60f8:	ee0719e3          	bnez	a4,5fea <__muldf3+0x6e>
    60fc:	00ca67b3          	or	a5,s4,a2
    6100:	c7b1                	beqz	a5,614c <__muldf3+0x1d0>
    6102:	220a0f63          	beqz	s4,6340 <__muldf3+0x3c4>
    6106:	8552                	mv	a0,s4
    6108:	c432                	sw	a2,8(sp)
    610a:	7aa010ef          	jal	ra,78b4 <__clzsi2>
    610e:	4622                	lw	a2,8(sp)
    6110:	872a                	mv	a4,a0
    6112:	ff550693          	addi	a3,a0,-11
    6116:	47f5                	li	a5,29
    6118:	ff870593          	addi	a1,a4,-8
    611c:	8f95                	sub	a5,a5,a3
    611e:	00ba1a33          	sll	s4,s4,a1
    6122:	00f657b3          	srl	a5,a2,a5
    6126:	0147e7b3          	or	a5,a5,s4
    612a:	00b615b3          	sll	a1,a2,a1
    612e:	40e90933          	sub	s2,s2,a4
    6132:	c0d90913          	addi	s2,s2,-1011
    6136:	4881                	li	a7,0
    6138:	bde1                	j	6010 <__muldf3+0x94>
    613a:	00a9e433          	or	s0,s3,a0
    613e:	ec01                	bnez	s0,6156 <__muldf3+0x1da>
    6140:	49a1                	li	s3,8
    6142:	4481                	li	s1,0
    6144:	7ff00913          	li	s2,2047
    6148:	4b89                	li	s7,2
    614a:	b559                	j	5fd0 <__muldf3+0x54>
    614c:	0019e993          	ori	s3,s3,1
    6150:	4581                	li	a1,0
    6152:	4885                	li	a7,1
    6154:	bd75                	j	6010 <__muldf3+0x94>
    6156:	844e                	mv	s0,s3
    6158:	84aa                	mv	s1,a0
    615a:	49b1                	li	s3,12
    615c:	7ff00913          	li	s2,2047
    6160:	4b8d                	li	s7,3
    6162:	b5bd                	j	5fd0 <__muldf3+0x54>
    6164:	4991                	li	s3,4
    6166:	4481                	li	s1,0
    6168:	4901                	li	s2,0
    616a:	4b85                	li	s7,1
    616c:	b595                	j	5fd0 <__muldf3+0x54>
    616e:	0039e993          	ori	s3,s3,3
    6172:	87d2                	mv	a5,s4
    6174:	488d                	li	a7,3
    6176:	bd69                	j	6010 <__muldf3+0x94>
    6178:	4789                	li	a5,2
    617a:	8556                	mv	a0,s5
    617c:	f0fb97e3          	bne	s7,a5,608a <__muldf3+0x10e>
    6180:	872a                	mv	a4,a0
    6182:	7ff00793          	li	a5,2047
    6186:	4401                	li	s0,0
    6188:	4481                	li	s1,0
    618a:	b5f1                	j	6056 <__muldf3+0xda>
    618c:	6ec1                	lui	t4,0x10
    618e:	fffe8613          	addi	a2,t4,-1 # ffff <_data_lma+0x6913>
    6192:	0104d693          	srli	a3,s1,0x10
    6196:	0105de13          	srli	t3,a1,0x10
    619a:	8cf1                	and	s1,s1,a2
    619c:	8df1                	and	a1,a1,a2
    619e:	02958633          	mul	a2,a1,s1
    61a2:	02b68333          	mul	t1,a3,a1
    61a6:	01065893          	srli	a7,a2,0x10
    61aa:	029e0533          	mul	a0,t3,s1
    61ae:	951a                	add	a0,a0,t1
    61b0:	98aa                	add	a7,a7,a0
    61b2:	03c682b3          	mul	t0,a3,t3
    61b6:	0068f363          	bgeu	a7,t1,61bc <__muldf3+0x240>
    61ba:	92f6                	add	t0,t0,t4
    61bc:	6fc1                	lui	t6,0x10
    61be:	ffff8313          	addi	t1,t6,-1 # ffff <_data_lma+0x6913>
    61c2:	0067f533          	and	a0,a5,t1
    61c6:	0107d393          	srli	t2,a5,0x10
    61ca:	0068f7b3          	and	a5,a7,t1
    61ce:	07c2                	slli	a5,a5,0x10
    61d0:	00667333          	and	t1,a2,t1
    61d4:	933e                	add	t1,t1,a5
    61d6:	02950633          	mul	a2,a0,s1
    61da:	0108d893          	srli	a7,a7,0x10
    61de:	02a687b3          	mul	a5,a3,a0
    61e2:	01065f13          	srli	t5,a2,0x10
    61e6:	029384b3          	mul	s1,t2,s1
    61ea:	94be                	add	s1,s1,a5
    61ec:	94fa                	add	s1,s1,t5
    61ee:	02768eb3          	mul	t4,a3,t2
    61f2:	00f4f363          	bgeu	s1,a5,61f8 <__muldf3+0x27c>
    61f6:	9efe                	add	t4,t4,t6
    61f8:	6a41                	lui	s4,0x10
    61fa:	fffa0793          	addi	a5,s4,-1 # ffff <_data_lma+0x6913>
    61fe:	01045f93          	srli	t6,s0,0x10
    6202:	00f476b3          	and	a3,s0,a5
    6206:	00f4f9b3          	and	s3,s1,a5
    620a:	8e7d                	and	a2,a2,a5
    620c:	80c1                	srli	s1,s1,0x10
    620e:	02d58433          	mul	s0,a1,a3
    6212:	09c2                	slli	s3,s3,0x10
    6214:	01d48f33          	add	t5,s1,t4
    6218:	99b2                	add	s3,s3,a2
    621a:	98ce                	add	a7,a7,s3
    621c:	02de07b3          	mul	a5,t3,a3
    6220:	01045e93          	srli	t4,s0,0x10
    6224:	02bf85b3          	mul	a1,t6,a1
    6228:	97ae                	add	a5,a5,a1
    622a:	9ebe                	add	t4,t4,a5
    622c:	03fe0e33          	mul	t3,t3,t6
    6230:	00bef363          	bgeu	t4,a1,6236 <__muldf3+0x2ba>
    6234:	9e52                	add	t3,t3,s4
    6236:	67c1                	lui	a5,0x10
    6238:	fff78593          	addi	a1,a5,-1 # ffff <_data_lma+0x6913>
    623c:	00bef633          	and	a2,t4,a1
    6240:	8c6d                	and	s0,s0,a1
    6242:	0642                	slli	a2,a2,0x10
    6244:	9622                	add	a2,a2,s0
    6246:	010ede93          	srli	t4,t4,0x10
    624a:	02d505b3          	mul	a1,a0,a3
    624e:	9e76                	add	t3,t3,t4
    6250:	02af8533          	mul	a0,t6,a0
    6254:	0105d413          	srli	s0,a1,0x10
    6258:	02d386b3          	mul	a3,t2,a3
    625c:	96aa                	add	a3,a3,a0
    625e:	96a2                	add	a3,a3,s0
    6260:	03f38fb3          	mul	t6,t2,t6
    6264:	00a6f363          	bgeu	a3,a0,626a <__muldf3+0x2ee>
    6268:	9fbe                	add	t6,t6,a5
    626a:	6541                	lui	a0,0x10
    626c:	157d                	addi	a0,a0,-1
    626e:	00a6f7b3          	and	a5,a3,a0
    6272:	07c2                	slli	a5,a5,0x10
    6274:	8d6d                	and	a0,a0,a1
    6276:	97aa                	add	a5,a5,a0
    6278:	005885b3          	add	a1,a7,t0
    627c:	0135b9b3          	sltu	s3,a1,s3
    6280:	97fa                	add	a5,a5,t5
    6282:	95b2                	add	a1,a1,a2
    6284:	01378433          	add	s0,a5,s3
    6288:	00c5b633          	sltu	a2,a1,a2
    628c:	01c40eb3          	add	t4,s0,t3
    6290:	00ce8533          	add	a0,t4,a2
    6294:	01343433          	sltu	s0,s0,s3
    6298:	01e7b7b3          	sltu	a5,a5,t5
    629c:	8fc1                	or	a5,a5,s0
    629e:	01cebe33          	sltu	t3,t4,t3
    62a2:	0106d413          	srli	s0,a3,0x10
    62a6:	00c53633          	sltu	a2,a0,a2
    62aa:	943e                	add	s0,s0,a5
    62ac:	00ce6633          	or	a2,t3,a2
    62b0:	00959493          	slli	s1,a1,0x9
    62b4:	9432                	add	s0,s0,a2
    62b6:	947e                	add	s0,s0,t6
    62b8:	0064e4b3          	or	s1,s1,t1
    62bc:	0426                	slli	s0,s0,0x9
    62be:	01755693          	srli	a3,a0,0x17
    62c2:	009034b3          	snez	s1,s1
    62c6:	81dd                	srli	a1,a1,0x17
    62c8:	00951793          	slli	a5,a0,0x9
    62cc:	8ccd                	or	s1,s1,a1
    62ce:	8c55                	or	s0,s0,a3
    62d0:	8cdd                	or	s1,s1,a5
    62d2:	00741793          	slli	a5,s0,0x7
    62d6:	0007db63          	bgez	a5,62ec <__muldf3+0x370>
    62da:	0014d793          	srli	a5,s1,0x1
    62de:	8885                	andi	s1,s1,1
    62e0:	01f41693          	slli	a3,s0,0x1f
    62e4:	8cdd                	or	s1,s1,a5
    62e6:	8cd5                	or	s1,s1,a3
    62e8:	8005                	srli	s0,s0,0x1
    62ea:	8942                	mv	s2,a6
    62ec:	3ff90793          	addi	a5,s2,1023
    62f0:	08f05963          	blez	a5,6382 <__muldf3+0x406>
    62f4:	0074f693          	andi	a3,s1,7
    62f8:	ce81                	beqz	a3,6310 <__muldf3+0x394>
    62fa:	00f4f693          	andi	a3,s1,15
    62fe:	4611                	li	a2,4
    6300:	00c68863          	beq	a3,a2,6310 <__muldf3+0x394>
    6304:	00448693          	addi	a3,s1,4
    6308:	0096b4b3          	sltu	s1,a3,s1
    630c:	9426                	add	s0,s0,s1
    630e:	84b6                	mv	s1,a3
    6310:	00741693          	slli	a3,s0,0x7
    6314:	0006d863          	bgez	a3,6324 <__muldf3+0x3a8>
    6318:	ff0007b7          	lui	a5,0xff000
    631c:	17fd                	addi	a5,a5,-1
    631e:	8c7d                	and	s0,s0,a5
    6320:	40090793          	addi	a5,s2,1024
    6324:	7fe00693          	li	a3,2046
    6328:	0ef6cf63          	blt	a3,a5,6426 <__muldf3+0x4aa>
    632c:	0034d693          	srli	a3,s1,0x3
    6330:	01d41493          	slli	s1,s0,0x1d
    6334:	0426                	slli	s0,s0,0x9
    6336:	8cd5                	or	s1,s1,a3
    6338:	8031                	srli	s0,s0,0xc
    633a:	7ff7f793          	andi	a5,a5,2047
    633e:	bb21                	j	6056 <__muldf3+0xda>
    6340:	8532                	mv	a0,a2
    6342:	c432                	sw	a2,8(sp)
    6344:	570010ef          	jal	ra,78b4 <__clzsi2>
    6348:	01550693          	addi	a3,a0,21 # 10015 <_data_lma+0x6929>
    634c:	47f1                	li	a5,28
    634e:	02050713          	addi	a4,a0,32
    6352:	4622                	lw	a2,8(sp)
    6354:	dcd7d1e3          	bge	a5,a3,6116 <__muldf3+0x19a>
    6358:	1561                	addi	a0,a0,-8
    635a:	00a617b3          	sll	a5,a2,a0
    635e:	4581                	li	a1,0
    6360:	b3f9                	j	612e <__muldf3+0x1b2>
    6362:	552010ef          	jal	ra,78b4 <__clzsi2>
    6366:	01550713          	addi	a4,a0,21
    636a:	45f1                	li	a1,28
    636c:	02050793          	addi	a5,a0,32
    6370:	4622                	lw	a2,8(sp)
    6372:	46b2                	lw	a3,12(sp)
    6374:	d4e5d5e3          	bge	a1,a4,60be <__muldf3+0x142>
    6378:	1561                	addi	a0,a0,-8
    637a:	00aa1433          	sll	s0,s4,a0
    637e:	4481                	li	s1,0
    6380:	bb99                	j	60d6 <__muldf3+0x15a>
    6382:	4685                	li	a3,1
    6384:	8e9d                	sub	a3,a3,a5
    6386:	e7b1                	bnez	a5,63d2 <__muldf3+0x456>
    6388:	41e90913          	addi	s2,s2,1054
    638c:	012497b3          	sll	a5,s1,s2
    6390:	00d4d4b3          	srl	s1,s1,a3
    6394:	01241933          	sll	s2,s0,s2
    6398:	00f037b3          	snez	a5,a5
    639c:	009964b3          	or	s1,s2,s1
    63a0:	8cdd                	or	s1,s1,a5
    63a2:	0074f793          	andi	a5,s1,7
    63a6:	00d456b3          	srl	a3,s0,a3
    63aa:	cf81                	beqz	a5,63c2 <__muldf3+0x446>
    63ac:	00f4f793          	andi	a5,s1,15
    63b0:	4611                	li	a2,4
    63b2:	00c78863          	beq	a5,a2,63c2 <__muldf3+0x446>
    63b6:	00448793          	addi	a5,s1,4
    63ba:	0097b4b3          	sltu	s1,a5,s1
    63be:	96a6                	add	a3,a3,s1
    63c0:	84be                	mv	s1,a5
    63c2:	00869793          	slli	a5,a3,0x8
    63c6:	0407d863          	bgez	a5,6416 <__muldf3+0x49a>
    63ca:	4785                	li	a5,1
    63cc:	4401                	li	s0,0
    63ce:	4481                	li	s1,0
    63d0:	b159                	j	6056 <__muldf3+0xda>
    63d2:	03800613          	li	a2,56
    63d6:	ccd641e3          	blt	a2,a3,6098 <__muldf3+0x11c>
    63da:	467d                	li	a2,31
    63dc:	fad656e3          	bge	a2,a3,6388 <__muldf3+0x40c>
    63e0:	5605                	li	a2,-31
    63e2:	40f607b3          	sub	a5,a2,a5
    63e6:	02000593          	li	a1,32
    63ea:	00f45633          	srl	a2,s0,a5
    63ee:	00b68763          	beq	a3,a1,63fc <__muldf3+0x480>
    63f2:	43e90913          	addi	s2,s2,1086
    63f6:	012417b3          	sll	a5,s0,s2
    63fa:	8cdd                	or	s1,s1,a5
    63fc:	009034b3          	snez	s1,s1
    6400:	8cd1                	or	s1,s1,a2
    6402:	0074f693          	andi	a3,s1,7
    6406:	4401                	li	s0,0
    6408:	ca99                	beqz	a3,641e <__muldf3+0x4a2>
    640a:	00f4f793          	andi	a5,s1,15
    640e:	4611                	li	a2,4
    6410:	4681                	li	a3,0
    6412:	fac792e3          	bne	a5,a2,63b6 <__muldf3+0x43a>
    6416:	00969413          	slli	s0,a3,0x9
    641a:	8031                	srli	s0,s0,0xc
    641c:	06f6                	slli	a3,a3,0x1d
    641e:	808d                	srli	s1,s1,0x3
    6420:	8cd5                	or	s1,s1,a3
    6422:	4781                	li	a5,0
    6424:	b90d                	j	6056 <__muldf3+0xda>
    6426:	7ff00793          	li	a5,2047
    642a:	4401                	li	s0,0
    642c:	4481                	li	s1,0
    642e:	b125                	j	6056 <__muldf3+0xda>
    6430:	8942                	mv	s2,a6
    6432:	bd6d                	j	62ec <__muldf3+0x370>

00006434 <__subdf3>:
__subdf3():
    6434:	00100737          	lui	a4,0x100
    6438:	177d                	addi	a4,a4,-1
    643a:	1101                	addi	sp,sp,-32
    643c:	00b77333          	and	t1,a4,a1
    6440:	0146d893          	srli	a7,a3,0x14
    6444:	8f75                	and	a4,a4,a3
    6446:	01d65e93          	srli	t4,a2,0x1d
    644a:	cc22                	sw	s0,24(sp)
    644c:	ca26                	sw	s1,20(sp)
    644e:	030e                	slli	t1,t1,0x3
    6450:	0145d493          	srli	s1,a1,0x14
    6454:	01d55793          	srli	a5,a0,0x1d
    6458:	070e                	slli	a4,a4,0x3
    645a:	ce06                	sw	ra,28(sp)
    645c:	c84a                	sw	s2,16(sp)
    645e:	c64e                	sw	s3,12(sp)
    6460:	7ff8f893          	andi	a7,a7,2047
    6464:	7ff00e13          	li	t3,2047
    6468:	00eee733          	or	a4,t4,a4
    646c:	7ff4f493          	andi	s1,s1,2047
    6470:	01f5d413          	srli	s0,a1,0x1f
    6474:	0067e333          	or	t1,a5,t1
    6478:	00351f13          	slli	t5,a0,0x3
    647c:	82fd                	srli	a3,a3,0x1f
    647e:	00361e93          	slli	t4,a2,0x3
    6482:	19c88063          	beq	a7,t3,6602 <__subdf3+0x1ce>
    6486:	0016c693          	xori	a3,a3,1
    648a:	411485b3          	sub	a1,s1,a7
    648e:	12d40563          	beq	s0,a3,65b8 <__subdf3+0x184>
    6492:	18b05163          	blez	a1,6614 <__subdf3+0x1e0>
    6496:	1a088b63          	beqz	a7,664c <__subdf3+0x218>
    649a:	008007b7          	lui	a5,0x800
    649e:	8f5d                	or	a4,a4,a5
    64a0:	59c48163          	beq	s1,t3,6a22 <__subdf3+0x5ee>
    64a4:	03800793          	li	a5,56
    64a8:	34b7c463          	blt	a5,a1,67f0 <__subdf3+0x3bc>
    64ac:	47fd                	li	a5,31
    64ae:	48b7c563          	blt	a5,a1,6938 <__subdf3+0x504>
    64b2:	02000793          	li	a5,32
    64b6:	8f8d                	sub	a5,a5,a1
    64b8:	00bed9b3          	srl	s3,t4,a1
    64bc:	00f71833          	sll	a6,a4,a5
    64c0:	00fe9eb3          	sll	t4,t4,a5
    64c4:	01386833          	or	a6,a6,s3
    64c8:	00b75733          	srl	a4,a4,a1
    64cc:	01d039b3          	snez	s3,t4
    64d0:	01386833          	or	a6,a6,s3
    64d4:	40e30333          	sub	t1,t1,a4
    64d8:	410f09b3          	sub	s3,t5,a6
    64dc:	013f37b3          	sltu	a5,t5,s3
    64e0:	40f30633          	sub	a2,t1,a5
    64e4:	00861793          	slli	a5,a2,0x8
    64e8:	2407d363          	bgez	a5,672e <__subdf3+0x2fa>
    64ec:	00800937          	lui	s2,0x800
    64f0:	197d                	addi	s2,s2,-1
    64f2:	01267933          	and	s2,a2,s2
    64f6:	2c090f63          	beqz	s2,67d4 <__subdf3+0x3a0>
    64fa:	854a                	mv	a0,s2
    64fc:	3b8010ef          	jal	ra,78b4 <__clzsi2>
    6500:	ff850713          	addi	a4,a0,-8
    6504:	02000793          	li	a5,32
    6508:	8f99                	sub	a5,a5,a4
    650a:	00f9d7b3          	srl	a5,s3,a5
    650e:	00e91633          	sll	a2,s2,a4
    6512:	8fd1                	or	a5,a5,a2
    6514:	00e999b3          	sll	s3,s3,a4
    6518:	2a974463          	blt	a4,s1,67c0 <__subdf3+0x38c>
    651c:	8f05                	sub	a4,a4,s1
    651e:	00170613          	addi	a2,a4,1 # 100001 <_data_lma+0xf6915>
    6522:	46fd                	li	a3,31
    6524:	3ac6c563          	blt	a3,a2,68ce <__subdf3+0x49a>
    6528:	02000713          	li	a4,32
    652c:	8f11                	sub	a4,a4,a2
    652e:	00c9d6b3          	srl	a3,s3,a2
    6532:	00e99833          	sll	a6,s3,a4
    6536:	00e79733          	sll	a4,a5,a4
    653a:	8f55                	or	a4,a4,a3
    653c:	01003833          	snez	a6,a6
    6540:	010769b3          	or	s3,a4,a6
    6544:	00c7d633          	srl	a2,a5,a2
    6548:	4481                	li	s1,0
    654a:	0079f793          	andi	a5,s3,7
    654e:	cf81                	beqz	a5,6566 <__subdf3+0x132>
    6550:	00f9f693          	andi	a3,s3,15
    6554:	4791                	li	a5,4
    6556:	00f68863          	beq	a3,a5,6566 <__subdf3+0x132>
    655a:	00498693          	addi	a3,s3,4
    655e:	0136b833          	sltu	a6,a3,s3
    6562:	9642                	add	a2,a2,a6
    6564:	89b6                	mv	s3,a3
    6566:	00861793          	slli	a5,a2,0x8
    656a:	1c07d663          	bgez	a5,6736 <__subdf3+0x302>
    656e:	00148713          	addi	a4,s1,1
    6572:	7ff00793          	li	a5,2047
    6576:	8805                	andi	s0,s0,1
    6578:	20f70663          	beq	a4,a5,6784 <__subdf3+0x350>
    657c:	ff8007b7          	lui	a5,0xff800
    6580:	17fd                	addi	a5,a5,-1
    6582:	8ff1                	and	a5,a5,a2
    6584:	01d79813          	slli	a6,a5,0x1d
    6588:	0039d993          	srli	s3,s3,0x3
    658c:	07a6                	slli	a5,a5,0x9
    658e:	01386833          	or	a6,a6,s3
    6592:	83b1                	srli	a5,a5,0xc
    6594:	7ff77713          	andi	a4,a4,2047
    6598:	00c79693          	slli	a3,a5,0xc
    659c:	0752                	slli	a4,a4,0x14
    659e:	82b1                	srli	a3,a3,0xc
    65a0:	047e                	slli	s0,s0,0x1f
    65a2:	8ed9                	or	a3,a3,a4
    65a4:	8ec1                	or	a3,a3,s0
    65a6:	40f2                	lw	ra,28(sp)
    65a8:	4462                	lw	s0,24(sp)
    65aa:	44d2                	lw	s1,20(sp)
    65ac:	4942                	lw	s2,16(sp)
    65ae:	49b2                	lw	s3,12(sp)
    65b0:	8542                	mv	a0,a6
    65b2:	85b6                	mv	a1,a3
    65b4:	6105                	addi	sp,sp,32
    65b6:	8082                	ret
    65b8:	0ab05663          	blez	a1,6664 <__subdf3+0x230>
    65bc:	12088a63          	beqz	a7,66f0 <__subdf3+0x2bc>
    65c0:	008007b7          	lui	a5,0x800
    65c4:	8f5d                	or	a4,a4,a5
    65c6:	2dc48763          	beq	s1,t3,6894 <__subdf3+0x460>
    65ca:	03800793          	li	a5,56
    65ce:	18b7c763          	blt	a5,a1,675c <__subdf3+0x328>
    65d2:	47fd                	li	a5,31
    65d4:	3cb7d263          	bge	a5,a1,6998 <__subdf3+0x564>
    65d8:	fe058813          	addi	a6,a1,-32
    65dc:	02000793          	li	a5,32
    65e0:	010759b3          	srl	s3,a4,a6
    65e4:	00f58a63          	beq	a1,a5,65f8 <__subdf3+0x1c4>
    65e8:	04000793          	li	a5,64
    65ec:	40b785b3          	sub	a1,a5,a1
    65f0:	00b71733          	sll	a4,a4,a1
    65f4:	00eeeeb3          	or	t4,t4,a4
    65f8:	01d03833          	snez	a6,t4
    65fc:	01386833          	or	a6,a6,s3
    6600:	a295                	j	6764 <__subdf3+0x330>
    6602:	01d767b3          	or	a5,a4,t4
    6606:	80148593          	addi	a1,s1,-2047
    660a:	e399                	bnez	a5,6610 <__subdf3+0x1dc>
    660c:	0016c693          	xori	a3,a3,1
    6610:	04d40a63          	beq	s0,a3,6664 <__subdf3+0x230>
    6614:	e1d1                	bnez	a1,6698 <__subdf3+0x264>
    6616:	00148793          	addi	a5,s1,1
    661a:	7fe7f793          	andi	a5,a5,2046
    661e:	1e079963          	bnez	a5,6810 <__subdf3+0x3dc>
    6622:	01e367b3          	or	a5,t1,t5
    6626:	01d76833          	or	a6,a4,t4
    662a:	16049263          	bnez	s1,678e <__subdf3+0x35a>
    662e:	3c078263          	beqz	a5,69f2 <__subdf3+0x5be>
    6632:	42081663          	bnez	a6,6a5e <__subdf3+0x62a>
    6636:	00351813          	slli	a6,a0,0x3
    663a:	01d31693          	slli	a3,t1,0x1d
    663e:	00385813          	srli	a6,a6,0x3
    6642:	0106e833          	or	a6,a3,a6
    6646:	00335793          	srli	a5,t1,0x3
    664a:	a219                	j	6750 <__subdf3+0x31c>
    664c:	01d767b3          	or	a5,a4,t4
    6650:	1a078563          	beqz	a5,67fa <__subdf3+0x3c6>
    6654:	fff58793          	addi	a5,a1,-1
    6658:	3a078b63          	beqz	a5,6a0e <__subdf3+0x5da>
    665c:	23c58c63          	beq	a1,t3,6894 <__subdf3+0x460>
    6660:	85be                	mv	a1,a5
    6662:	b589                	j	64a4 <__subdf3+0x70>
    6664:	1c059963          	bnez	a1,6836 <__subdf3+0x402>
    6668:	00148693          	addi	a3,s1,1
    666c:	7fe6f793          	andi	a5,a3,2046
    6670:	efc1                	bnez	a5,6708 <__subdf3+0x2d4>
    6672:	01e367b3          	or	a5,t1,t5
    6676:	36049063          	bnez	s1,69d6 <__subdf3+0x5a2>
    667a:	44078d63          	beqz	a5,6ad4 <__subdf3+0x6a0>
    667e:	01d767b3          	or	a5,a4,t4
    6682:	46079463          	bnez	a5,6aea <__subdf3+0x6b6>
    6686:	050e                	slli	a0,a0,0x3
    6688:	01d31813          	slli	a6,t1,0x1d
    668c:	810d                	srli	a0,a0,0x3
    668e:	00a86833          	or	a6,a6,a0
    6692:	00335793          	srli	a5,t1,0x3
    6696:	a86d                	j	6750 <__subdf3+0x31c>
    6698:	409885b3          	sub	a1,a7,s1
    669c:	20049763          	bnez	s1,68aa <__subdf3+0x476>
    66a0:	01e367b3          	or	a5,t1,t5
    66a4:	30078d63          	beqz	a5,69be <__subdf3+0x58a>
    66a8:	fff58793          	addi	a5,a1,-1
    66ac:	40078963          	beqz	a5,6abe <__subdf3+0x68a>
    66b0:	7ff00513          	li	a0,2047
    66b4:	20a58363          	beq	a1,a0,68ba <__subdf3+0x486>
    66b8:	85be                	mv	a1,a5
    66ba:	03800793          	li	a5,56
    66be:	2ab7c263          	blt	a5,a1,6962 <__subdf3+0x52e>
    66c2:	47fd                	li	a5,31
    66c4:	3cb7c863          	blt	a5,a1,6a94 <__subdf3+0x660>
    66c8:	02000793          	li	a5,32
    66cc:	8f8d                	sub	a5,a5,a1
    66ce:	00f31833          	sll	a6,t1,a5
    66d2:	00bf5633          	srl	a2,t5,a1
    66d6:	00ff17b3          	sll	a5,t5,a5
    66da:	00c86833          	or	a6,a6,a2
    66de:	00f039b3          	snez	s3,a5
    66e2:	00b35333          	srl	t1,t1,a1
    66e6:	01386833          	or	a6,a6,s3
    66ea:	40670733          	sub	a4,a4,t1
    66ee:	acb5                	j	696a <__subdf3+0x536>
    66f0:	01d767b3          	or	a5,a4,t4
    66f4:	10078363          	beqz	a5,67fa <__subdf3+0x3c6>
    66f8:	fff58793          	addi	a5,a1,-1
    66fc:	1e078f63          	beqz	a5,68fa <__subdf3+0x4c6>
    6700:	2fc58063          	beq	a1,t3,69e0 <__subdf3+0x5ac>
    6704:	85be                	mv	a1,a5
    6706:	b5d1                	j	65ca <__subdf3+0x196>
    6708:	7ff00793          	li	a5,2047
    670c:	06f68b63          	beq	a3,a5,6782 <__subdf3+0x34e>
    6710:	9efa                	add	t4,t4,t5
    6712:	01eeb633          	sltu	a2,t4,t5
    6716:	00e307b3          	add	a5,t1,a4
    671a:	97b2                	add	a5,a5,a2
    671c:	01f79813          	slli	a6,a5,0x1f
    6720:	001ede93          	srli	t4,t4,0x1
    6724:	01d869b3          	or	s3,a6,t4
    6728:	0017d613          	srli	a2,a5,0x1
    672c:	84b6                	mv	s1,a3
    672e:	0079f793          	andi	a5,s3,7
    6732:	e0079fe3          	bnez	a5,6550 <__subdf3+0x11c>
    6736:	01d61793          	slli	a5,a2,0x1d
    673a:	0039d813          	srli	a6,s3,0x3
    673e:	00f86833          	or	a6,a6,a5
    6742:	85a6                	mv	a1,s1
    6744:	00365793          	srli	a5,a2,0x3
    6748:	7ff00713          	li	a4,2047
    674c:	06e58063          	beq	a1,a4,67ac <__subdf3+0x378>
    6750:	07b2                	slli	a5,a5,0xc
    6752:	83b1                	srli	a5,a5,0xc
    6754:	7ff5f713          	andi	a4,a1,2047
    6758:	8805                	andi	s0,s0,1
    675a:	bd3d                	j	6598 <__subdf3+0x164>
    675c:	01d76733          	or	a4,a4,t4
    6760:	00e03833          	snez	a6,a4
    6764:	01e809b3          	add	s3,a6,t5
    6768:	01e9b7b3          	sltu	a5,s3,t5
    676c:	00678633          	add	a2,a5,t1
    6770:	00861793          	slli	a5,a2,0x8
    6774:	fa07dde3          	bgez	a5,672e <__subdf3+0x2fa>
    6778:	0485                	addi	s1,s1,1
    677a:	7ff00793          	li	a5,2047
    677e:	18f49c63          	bne	s1,a5,6916 <__subdf3+0x4e2>
    6782:	8805                	andi	s0,s0,1
    6784:	7ff00713          	li	a4,2047
    6788:	4781                	li	a5,0
    678a:	4801                	li	a6,0
    678c:	b531                	j	6598 <__subdf3+0x164>
    678e:	10079163          	bnez	a5,6890 <__subdf3+0x45c>
    6792:	3c080163          	beqz	a6,6b54 <__subdf3+0x720>
    6796:	00361813          	slli	a6,a2,0x3
    679a:	01d71793          	slli	a5,a4,0x1d
    679e:	00385813          	srli	a6,a6,0x3
    67a2:	00f86833          	or	a6,a6,a5
    67a6:	8436                	mv	s0,a3
    67a8:	00375793          	srli	a5,a4,0x3
    67ac:	00f867b3          	or	a5,a6,a5
    67b0:	dbe9                	beqz	a5,6782 <__subdf3+0x34e>
    67b2:	4401                	li	s0,0
    67b4:	7ff00713          	li	a4,2047
    67b8:	000807b7          	lui	a5,0x80
    67bc:	4801                	li	a6,0
    67be:	bbe9                	j	6598 <__subdf3+0x164>
    67c0:	ff800637          	lui	a2,0xff800
    67c4:	167d                	addi	a2,a2,-1
    67c6:	8e7d                	and	a2,a2,a5
    67c8:	0079f793          	andi	a5,s3,7
    67cc:	8c99                	sub	s1,s1,a4
    67ce:	d80791e3          	bnez	a5,6550 <__subdf3+0x11c>
    67d2:	b795                	j	6736 <__subdf3+0x302>
    67d4:	854e                	mv	a0,s3
    67d6:	0de010ef          	jal	ra,78b4 <__clzsi2>
    67da:	01850713          	addi	a4,a0,24
    67de:	47fd                	li	a5,31
    67e0:	d2e7d2e3          	bge	a5,a4,6504 <__subdf3+0xd0>
    67e4:	ff850613          	addi	a2,a0,-8
    67e8:	00c997b3          	sll	a5,s3,a2
    67ec:	4981                	li	s3,0
    67ee:	b32d                	j	6518 <__subdf3+0xe4>
    67f0:	01d76833          	or	a6,a4,t4
    67f4:	01003833          	snez	a6,a6
    67f8:	b1c5                	j	64d8 <__subdf3+0xa4>
    67fa:	00351813          	slli	a6,a0,0x3
    67fe:	01d31793          	slli	a5,t1,0x1d
    6802:	00385813          	srli	a6,a6,0x3
    6806:	00f86833          	or	a6,a6,a5
    680a:	00335793          	srli	a5,t1,0x3
    680e:	bf2d                	j	6748 <__subdf3+0x314>
    6810:	41df09b3          	sub	s3,t5,t4
    6814:	40e30933          	sub	s2,t1,a4
    6818:	013f3633          	sltu	a2,t5,s3
    681c:	40c90933          	sub	s2,s2,a2
    6820:	00891793          	slli	a5,s2,0x8
    6824:	2007ca63          	bltz	a5,6a38 <__subdf3+0x604>
    6828:	0129e833          	or	a6,s3,s2
    682c:	cc0815e3          	bnez	a6,64f6 <__subdf3+0xc2>
    6830:	4781                	li	a5,0
    6832:	4401                	li	s0,0
    6834:	bf31                	j	6750 <__subdf3+0x31c>
    6836:	409885b3          	sub	a1,a7,s1
    683a:	14048163          	beqz	s1,697c <__subdf3+0x548>
    683e:	008006b7          	lui	a3,0x800
    6842:	7ff00793          	li	a5,2047
    6846:	00d36333          	or	t1,t1,a3
    684a:	20f88163          	beq	a7,a5,6a4c <__subdf3+0x618>
    684e:	03800793          	li	a5,56
    6852:	22b7cc63          	blt	a5,a1,6a8a <__subdf3+0x656>
    6856:	47fd                	li	a5,31
    6858:	2cb7c963          	blt	a5,a1,6b2a <__subdf3+0x6f6>
    685c:	02000793          	li	a5,32
    6860:	8f8d                	sub	a5,a5,a1
    6862:	00f31833          	sll	a6,t1,a5
    6866:	00bf56b3          	srl	a3,t5,a1
    686a:	00ff17b3          	sll	a5,t5,a5
    686e:	00d86833          	or	a6,a6,a3
    6872:	00f039b3          	snez	s3,a5
    6876:	00b35333          	srl	t1,t1,a1
    687a:	01386833          	or	a6,a6,s3
    687e:	971a                	add	a4,a4,t1
    6880:	01d809b3          	add	s3,a6,t4
    6884:	01d9b7b3          	sltu	a5,s3,t4
    6888:	00e78633          	add	a2,a5,a4
    688c:	84c6                	mv	s1,a7
    688e:	b5cd                	j	6770 <__subdf3+0x33c>
    6890:	f20811e3          	bnez	a6,67b2 <__subdf3+0x37e>
    6894:	00351813          	slli	a6,a0,0x3
    6898:	01d31793          	slli	a5,t1,0x1d
    689c:	00385813          	srli	a6,a6,0x3
    68a0:	00f86833          	or	a6,a6,a5
    68a4:	00335793          	srli	a5,t1,0x3
    68a8:	b711                	j	67ac <__subdf3+0x378>
    68aa:	00800537          	lui	a0,0x800
    68ae:	7ff00793          	li	a5,2047
    68b2:	00a36333          	or	t1,t1,a0
    68b6:	e0f892e3          	bne	a7,a5,66ba <__subdf3+0x286>
    68ba:	060e                	slli	a2,a2,0x3
    68bc:	01d71813          	slli	a6,a4,0x1d
    68c0:	820d                	srli	a2,a2,0x3
    68c2:	00c86833          	or	a6,a6,a2
    68c6:	00375793          	srli	a5,a4,0x3
    68ca:	8436                	mv	s0,a3
    68cc:	b5c5                	j	67ac <__subdf3+0x378>
    68ce:	1705                	addi	a4,a4,-31
    68d0:	02000693          	li	a3,32
    68d4:	00e7d733          	srl	a4,a5,a4
    68d8:	00d60a63          	beq	a2,a3,68ec <__subdf3+0x4b8>
    68dc:	04000693          	li	a3,64
    68e0:	40c68633          	sub	a2,a3,a2
    68e4:	00c79633          	sll	a2,a5,a2
    68e8:	00c9e9b3          	or	s3,s3,a2
    68ec:	01303833          	snez	a6,s3
    68f0:	00e869b3          	or	s3,a6,a4
    68f4:	4601                	li	a2,0
    68f6:	4481                	li	s1,0
    68f8:	bd1d                	j	672e <__subdf3+0x2fa>
    68fa:	01df09b3          	add	s3,t5,t4
    68fe:	00e307b3          	add	a5,t1,a4
    6902:	01e9bf33          	sltu	t5,s3,t5
    6906:	01e78633          	add	a2,a5,t5
    690a:	00861793          	slli	a5,a2,0x8
    690e:	4485                	li	s1,1
    6910:	e007dfe3          	bgez	a5,672e <__subdf3+0x2fa>
    6914:	4489                	li	s1,2
    6916:	ff8007b7          	lui	a5,0xff800
    691a:	17fd                	addi	a5,a5,-1
    691c:	8ff1                	and	a5,a5,a2
    691e:	0019d713          	srli	a4,s3,0x1
    6922:	0019f813          	andi	a6,s3,1
    6926:	01076833          	or	a6,a4,a6
    692a:	01f79993          	slli	s3,a5,0x1f
    692e:	0109e9b3          	or	s3,s3,a6
    6932:	0017d613          	srli	a2,a5,0x1
    6936:	b911                	j	654a <__subdf3+0x116>
    6938:	fe058813          	addi	a6,a1,-32
    693c:	02000793          	li	a5,32
    6940:	010759b3          	srl	s3,a4,a6
    6944:	00f58a63          	beq	a1,a5,6958 <__subdf3+0x524>
    6948:	04000793          	li	a5,64
    694c:	40b785b3          	sub	a1,a5,a1
    6950:	00b71733          	sll	a4,a4,a1
    6954:	00eeeeb3          	or	t4,t4,a4
    6958:	01d03833          	snez	a6,t4
    695c:	01386833          	or	a6,a6,s3
    6960:	bea5                	j	64d8 <__subdf3+0xa4>
    6962:	01e36333          	or	t1,t1,t5
    6966:	00603833          	snez	a6,t1
    696a:	410e89b3          	sub	s3,t4,a6
    696e:	013eb7b3          	sltu	a5,t4,s3
    6972:	40f70633          	sub	a2,a4,a5
    6976:	84c6                	mv	s1,a7
    6978:	8436                	mv	s0,a3
    697a:	b6ad                	j	64e4 <__subdf3+0xb0>
    697c:	01e367b3          	or	a5,t1,t5
    6980:	18078763          	beqz	a5,6b0e <__subdf3+0x6da>
    6984:	fff58793          	addi	a5,a1,-1
    6988:	1c078c63          	beqz	a5,6b60 <__subdf3+0x72c>
    698c:	7ff00693          	li	a3,2047
    6990:	0ad58e63          	beq	a1,a3,6a4c <__subdf3+0x618>
    6994:	85be                	mv	a1,a5
    6996:	bd65                	j	684e <__subdf3+0x41a>
    6998:	02000793          	li	a5,32
    699c:	8f8d                	sub	a5,a5,a1
    699e:	00bed9b3          	srl	s3,t4,a1
    69a2:	00f71833          	sll	a6,a4,a5
    69a6:	00fe9eb3          	sll	t4,t4,a5
    69aa:	01386833          	or	a6,a6,s3
    69ae:	00b75733          	srl	a4,a4,a1
    69b2:	01d039b3          	snez	s3,t4
    69b6:	01386833          	or	a6,a6,s3
    69ba:	933a                	add	t1,t1,a4
    69bc:	b365                	j	6764 <__subdf3+0x330>
    69be:	00361813          	slli	a6,a2,0x3
    69c2:	01d71793          	slli	a5,a4,0x1d
    69c6:	00385813          	srli	a6,a6,0x3
    69ca:	0107e833          	or	a6,a5,a6
    69ce:	8436                	mv	s0,a3
    69d0:	00375793          	srli	a5,a4,0x3
    69d4:	bb95                	j	6748 <__subdf3+0x314>
    69d6:	cbbd                	beqz	a5,6a4c <__subdf3+0x618>
    69d8:	01d76733          	or	a4,a4,t4
    69dc:	dc071be3          	bnez	a4,67b2 <__subdf3+0x37e>
    69e0:	050e                	slli	a0,a0,0x3
    69e2:	01d31813          	slli	a6,t1,0x1d
    69e6:	810d                	srli	a0,a0,0x3
    69e8:	00a86833          	or	a6,a6,a0
    69ec:	00335793          	srli	a5,t1,0x3
    69f0:	bb75                	j	67ac <__subdf3+0x378>
    69f2:	e2080fe3          	beqz	a6,6830 <__subdf3+0x3fc>
    69f6:	00361813          	slli	a6,a2,0x3
    69fa:	01d71793          	slli	a5,a4,0x1d
    69fe:	00385813          	srli	a6,a6,0x3
    6a02:	00f86833          	or	a6,a6,a5
    6a06:	8436                	mv	s0,a3
    6a08:	00375793          	srli	a5,a4,0x3
    6a0c:	b391                	j	6750 <__subdf3+0x31c>
    6a0e:	41df09b3          	sub	s3,t5,t4
    6a12:	40e307b3          	sub	a5,t1,a4
    6a16:	013f3f33          	sltu	t5,t5,s3
    6a1a:	41e78633          	sub	a2,a5,t5
    6a1e:	4485                	li	s1,1
    6a20:	b4d1                	j	64e4 <__subdf3+0xb0>
    6a22:	00351813          	slli	a6,a0,0x3
    6a26:	01d31693          	slli	a3,t1,0x1d
    6a2a:	00385813          	srli	a6,a6,0x3
    6a2e:	0106e833          	or	a6,a3,a6
    6a32:	00335793          	srli	a5,t1,0x3
    6a36:	bb9d                	j	67ac <__subdf3+0x378>
    6a38:	41ee89b3          	sub	s3,t4,t5
    6a3c:	40670633          	sub	a2,a4,t1
    6a40:	013eb933          	sltu	s2,t4,s3
    6a44:	41260933          	sub	s2,a2,s2
    6a48:	8436                	mv	s0,a3
    6a4a:	b475                	j	64f6 <__subdf3+0xc2>
    6a4c:	060e                	slli	a2,a2,0x3
    6a4e:	01d71813          	slli	a6,a4,0x1d
    6a52:	820d                	srli	a2,a2,0x3
    6a54:	00c86833          	or	a6,a6,a2
    6a58:	00375793          	srli	a5,a4,0x3
    6a5c:	bb81                	j	67ac <__subdf3+0x378>
    6a5e:	41df09b3          	sub	s3,t5,t4
    6a62:	40e307b3          	sub	a5,t1,a4
    6a66:	013f3633          	sltu	a2,t5,s3
    6a6a:	40c78633          	sub	a2,a5,a2
    6a6e:	00861793          	slli	a5,a2,0x8
    6a72:	0a07d763          	bgez	a5,6b20 <__subdf3+0x6ec>
    6a76:	41ee89b3          	sub	s3,t4,t5
    6a7a:	406707b3          	sub	a5,a4,t1
    6a7e:	013ebeb3          	sltu	t4,t4,s3
    6a82:	41d78633          	sub	a2,a5,t4
    6a86:	8436                	mv	s0,a3
    6a88:	b4c9                	j	654a <__subdf3+0x116>
    6a8a:	01e36333          	or	t1,t1,t5
    6a8e:	00603833          	snez	a6,t1
    6a92:	b3fd                	j	6880 <__subdf3+0x44c>
    6a94:	fe058813          	addi	a6,a1,-32
    6a98:	02000793          	li	a5,32
    6a9c:	010359b3          	srl	s3,t1,a6
    6aa0:	00f58a63          	beq	a1,a5,6ab4 <__subdf3+0x680>
    6aa4:	04000793          	li	a5,64
    6aa8:	40b785b3          	sub	a1,a5,a1
    6aac:	00b31333          	sll	t1,t1,a1
    6ab0:	006f6f33          	or	t5,t5,t1
    6ab4:	01e03833          	snez	a6,t5
    6ab8:	01386833          	or	a6,a6,s3
    6abc:	b57d                	j	696a <__subdf3+0x536>
    6abe:	41ee89b3          	sub	s3,t4,t5
    6ac2:	406707b3          	sub	a5,a4,t1
    6ac6:	013ebeb3          	sltu	t4,t4,s3
    6aca:	41d78633          	sub	a2,a5,t4
    6ace:	8436                	mv	s0,a3
    6ad0:	4485                	li	s1,1
    6ad2:	bc09                	j	64e4 <__subdf3+0xb0>
    6ad4:	00361813          	slli	a6,a2,0x3
    6ad8:	01d71793          	slli	a5,a4,0x1d
    6adc:	00385813          	srli	a6,a6,0x3
    6ae0:	00f86833          	or	a6,a6,a5
    6ae4:	00375793          	srli	a5,a4,0x3
    6ae8:	b1a5                	j	6750 <__subdf3+0x31c>
    6aea:	01df09b3          	add	s3,t5,t4
    6aee:	00e307b3          	add	a5,t1,a4
    6af2:	01e9bf33          	sltu	t5,s3,t5
    6af6:	01e78633          	add	a2,a5,t5
    6afa:	00861793          	slli	a5,a2,0x8
    6afe:	c207d8e3          	bgez	a5,672e <__subdf3+0x2fa>
    6b02:	ff8007b7          	lui	a5,0xff800
    6b06:	17fd                	addi	a5,a5,-1
    6b08:	8e7d                	and	a2,a2,a5
    6b0a:	4485                	li	s1,1
    6b0c:	b10d                	j	672e <__subdf3+0x2fa>
    6b0e:	060e                	slli	a2,a2,0x3
    6b10:	01d71813          	slli	a6,a4,0x1d
    6b14:	820d                	srli	a2,a2,0x3
    6b16:	00c86833          	or	a6,a6,a2
    6b1a:	00375793          	srli	a5,a4,0x3
    6b1e:	b12d                	j	6748 <__subdf3+0x314>
    6b20:	00c9e833          	or	a6,s3,a2
    6b24:	d00806e3          	beqz	a6,6830 <__subdf3+0x3fc>
    6b28:	b119                	j	672e <__subdf3+0x2fa>
    6b2a:	fe058813          	addi	a6,a1,-32
    6b2e:	02000793          	li	a5,32
    6b32:	010359b3          	srl	s3,t1,a6
    6b36:	00f58a63          	beq	a1,a5,6b4a <__subdf3+0x716>
    6b3a:	04000793          	li	a5,64
    6b3e:	40b785b3          	sub	a1,a5,a1
    6b42:	00b31333          	sll	t1,t1,a1
    6b46:	006f6f33          	or	t5,t5,t1
    6b4a:	01e03833          	snez	a6,t5
    6b4e:	01386833          	or	a6,a6,s3
    6b52:	b33d                	j	6880 <__subdf3+0x44c>
    6b54:	4401                	li	s0,0
    6b56:	7ff00713          	li	a4,2047
    6b5a:	000807b7          	lui	a5,0x80
    6b5e:	bc2d                	j	6598 <__subdf3+0x164>
    6b60:	01df09b3          	add	s3,t5,t4
    6b64:	00e307b3          	add	a5,t1,a4
    6b68:	01d9beb3          	sltu	t4,s3,t4
    6b6c:	01d78633          	add	a2,a5,t4
    6b70:	bb69                	j	690a <__subdf3+0x4d6>

00006b72 <__fixdfsi>:
__fixdfsi():
    6b72:	0145d793          	srli	a5,a1,0x14
    6b76:	001006b7          	lui	a3,0x100
    6b7a:	fff68713          	addi	a4,a3,-1 # fffff <_data_lma+0xf6913>
    6b7e:	7ff7f793          	andi	a5,a5,2047
    6b82:	3fe00613          	li	a2,1022
    6b86:	8f6d                	and	a4,a4,a1
    6b88:	81fd                	srli	a1,a1,0x1f
    6b8a:	00f65c63          	bge	a2,a5,6ba2 <__fixdfsi+0x30>
    6b8e:	41d00613          	li	a2,1053
    6b92:	00f65a63          	bge	a2,a5,6ba6 <__fixdfsi+0x34>
    6b96:	80000537          	lui	a0,0x80000
    6b9a:	fff54513          	not	a0,a0
    6b9e:	952e                	add	a0,a0,a1
    6ba0:	8082                	ret
    6ba2:	4501                	li	a0,0
    6ba4:	8082                	ret
    6ba6:	43300613          	li	a2,1075
    6baa:	8e1d                	sub	a2,a2,a5
    6bac:	487d                	li	a6,31
    6bae:	8f55                	or	a4,a4,a3
    6bb0:	00c85d63          	bge	a6,a2,6bca <__fixdfsi+0x58>
    6bb4:	41300693          	li	a3,1043
    6bb8:	40f687b3          	sub	a5,a3,a5
    6bbc:	00f757b3          	srl	a5,a4,a5
    6bc0:	40f00533          	neg	a0,a5
    6bc4:	f1e5                	bnez	a1,6ba4 <__fixdfsi+0x32>
    6bc6:	853e                	mv	a0,a5
    6bc8:	8082                	ret
    6bca:	bed78793          	addi	a5,a5,-1043 # 7fbed <_data_lma+0x76501>
    6bce:	00f717b3          	sll	a5,a4,a5
    6bd2:	00c55533          	srl	a0,a0,a2
    6bd6:	8fc9                	or	a5,a5,a0
    6bd8:	b7e5                	j	6bc0 <__fixdfsi+0x4e>

00006bda <__floatsidf>:
__floatsidf():
    6bda:	1141                	addi	sp,sp,-16
    6bdc:	c606                	sw	ra,12(sp)
    6bde:	c422                	sw	s0,8(sp)
    6be0:	c226                	sw	s1,4(sp)
    6be2:	cd0d                	beqz	a0,6c1c <__floatsidf+0x42>
    6be4:	41f55793          	srai	a5,a0,0x1f
    6be8:	00a7c4b3          	xor	s1,a5,a0
    6bec:	8c9d                	sub	s1,s1,a5
    6bee:	842a                	mv	s0,a0
    6bf0:	8526                	mv	a0,s1
    6bf2:	4c3000ef          	jal	ra,78b4 <__clzsi2>
    6bf6:	41e00693          	li	a3,1054
    6bfa:	8e89                	sub	a3,a3,a0
    6bfc:	47a9                	li	a5,10
    6bfe:	807d                	srli	s0,s0,0x1f
    6c00:	7ff6f693          	andi	a3,a3,2047
    6c04:	02a7cd63          	blt	a5,a0,6c3e <__floatsidf+0x64>
    6c08:	472d                	li	a4,11
    6c0a:	8f09                	sub	a4,a4,a0
    6c0c:	00e4d7b3          	srl	a5,s1,a4
    6c10:	0555                	addi	a0,a0,21
    6c12:	07b2                	slli	a5,a5,0xc
    6c14:	00a494b3          	sll	s1,s1,a0
    6c18:	83b1                	srli	a5,a5,0xc
    6c1a:	a029                	j	6c24 <__floatsidf+0x4a>
    6c1c:	4401                	li	s0,0
    6c1e:	4681                	li	a3,0
    6c20:	4781                	li	a5,0
    6c22:	4481                	li	s1,0
    6c24:	07b2                	slli	a5,a5,0xc
    6c26:	06d2                	slli	a3,a3,0x14
    6c28:	83b1                	srli	a5,a5,0xc
    6c2a:	047e                	slli	s0,s0,0x1f
    6c2c:	8fd5                	or	a5,a5,a3
    6c2e:	8fc1                	or	a5,a5,s0
    6c30:	40b2                	lw	ra,12(sp)
    6c32:	4422                	lw	s0,8(sp)
    6c34:	8526                	mv	a0,s1
    6c36:	85be                	mv	a1,a5
    6c38:	4492                	lw	s1,4(sp)
    6c3a:	0141                	addi	sp,sp,16
    6c3c:	8082                	ret
    6c3e:	1555                	addi	a0,a0,-11
    6c40:	00a497b3          	sll	a5,s1,a0
    6c44:	07b2                	slli	a5,a5,0xc
    6c46:	83b1                	srli	a5,a5,0xc
    6c48:	4481                	li	s1,0
    6c4a:	bfe9                	j	6c24 <__floatsidf+0x4a>

00006c4c <__addsf3>:
__addsf3():
    6c4c:	1141                	addi	sp,sp,-16
    6c4e:	00800737          	lui	a4,0x800
    6c52:	177d                	addi	a4,a4,-1
    6c54:	0175d813          	srli	a6,a1,0x17
    6c58:	c226                	sw	s1,4(sp)
    6c5a:	01755493          	srli	s1,a0,0x17
    6c5e:	00a77333          	and	t1,a4,a0
    6c62:	0ff4f493          	andi	s1,s1,255
    6c66:	00b776b3          	and	a3,a4,a1
    6c6a:	c04a                	sw	s2,0(sp)
    6c6c:	0ff87813          	andi	a6,a6,255
    6c70:	01f55913          	srli	s2,a0,0x1f
    6c74:	c606                	sw	ra,12(sp)
    6c76:	c422                	sw	s0,8(sp)
    6c78:	81fd                	srli	a1,a1,0x1f
    6c7a:	879a                	mv	a5,t1
    6c7c:	8526                	mv	a0,s1
    6c7e:	864a                	mv	a2,s2
    6c80:	00331e13          	slli	t3,t1,0x3
    6c84:	00369e93          	slli	t4,a3,0x3
    6c88:	410488b3          	sub	a7,s1,a6
    6c8c:	0eb90a63          	beq	s2,a1,6d80 <__addsf3+0x134>
    6c90:	0d105063          	blez	a7,6d50 <__addsf3+0x104>
    6c94:	14080463          	beqz	a6,6ddc <__addsf3+0x190>
    6c98:	0ff00793          	li	a5,255
    6c9c:	14f48b63          	beq	s1,a5,6df2 <__addsf3+0x1a6>
    6ca0:	040007b7          	lui	a5,0x4000
    6ca4:	00feeeb3          	or	t4,t4,a5
    6ca8:	47ed                	li	a5,27
    6caa:	2917c163          	blt	a5,a7,6f2c <__addsf3+0x2e0>
    6cae:	02000793          	li	a5,32
    6cb2:	411787b3          	sub	a5,a5,a7
    6cb6:	00fe97b3          	sll	a5,t4,a5
    6cba:	011ed8b3          	srl	a7,t4,a7
    6cbe:	00f037b3          	snez	a5,a5
    6cc2:	00f8e7b3          	or	a5,a7,a5
    6cc6:	40fe07b3          	sub	a5,t3,a5
    6cca:	00579713          	slli	a4,a5,0x5
    6cce:	18075e63          	bgez	a4,6e6a <__addsf3+0x21e>
    6cd2:	04000437          	lui	s0,0x4000
    6cd6:	147d                	addi	s0,s0,-1
    6cd8:	8c7d                	and	s0,s0,a5
    6cda:	8522                	mv	a0,s0
    6cdc:	3d9000ef          	jal	ra,78b4 <__clzsi2>
    6ce0:	156d                	addi	a0,a0,-5
    6ce2:	00a417b3          	sll	a5,s0,a0
    6ce6:	1a954863          	blt	a0,s1,6e96 <__addsf3+0x24a>
    6cea:	8d05                	sub	a0,a0,s1
    6cec:	00150413          	addi	s0,a0,1 # 80000001 <_eusrstack+0x5fffb001>
    6cf0:	02000713          	li	a4,32
    6cf4:	8f01                	sub	a4,a4,s0
    6cf6:	00e79733          	sll	a4,a5,a4
    6cfa:	00e03733          	snez	a4,a4
    6cfe:	0087d7b3          	srl	a5,a5,s0
    6d02:	8fd9                	or	a5,a5,a4
    6d04:	4481                	li	s1,0
    6d06:	0077f713          	andi	a4,a5,7
    6d0a:	c719                	beqz	a4,6d18 <__addsf3+0xcc>
    6d0c:	00f7f713          	andi	a4,a5,15
    6d10:	4691                	li	a3,4
    6d12:	00d70363          	beq	a4,a3,6d18 <__addsf3+0xcc>
    6d16:	0791                	addi	a5,a5,4
    6d18:	00579713          	slli	a4,a5,0x5
    6d1c:	14075b63          	bgez	a4,6e72 <__addsf3+0x226>
    6d20:	0485                	addi	s1,s1,1
    6d22:	0ff00713          	li	a4,255
    6d26:	864a                	mv	a2,s2
    6d28:	16e48363          	beq	s1,a4,6e8e <__addsf3+0x242>
    6d2c:	079a                	slli	a5,a5,0x6
    6d2e:	83a5                	srli	a5,a5,0x9
    6d30:	0ff4f513          	andi	a0,s1,255
    6d34:	40b2                	lw	ra,12(sp)
    6d36:	4422                	lw	s0,8(sp)
    6d38:	07a6                	slli	a5,a5,0x9
    6d3a:	01751493          	slli	s1,a0,0x17
    6d3e:	0097d513          	srli	a0,a5,0x9
    6d42:	8d45                	or	a0,a0,s1
    6d44:	067e                	slli	a2,a2,0x1f
    6d46:	4492                	lw	s1,4(sp)
    6d48:	4902                	lw	s2,0(sp)
    6d4a:	8d51                	or	a0,a0,a2
    6d4c:	0141                	addi	sp,sp,16
    6d4e:	8082                	ret
    6d50:	0a089963          	bnez	a7,6e02 <__addsf3+0x1b6>
    6d54:	00148713          	addi	a4,s1,1
    6d58:	0fe77713          	andi	a4,a4,254
    6d5c:	14071763          	bnez	a4,6eaa <__addsf3+0x25e>
    6d60:	22049063          	bnez	s1,6f80 <__addsf3+0x334>
    6d64:	1e0e0d63          	beqz	t3,6f5e <__addsf3+0x312>
    6d68:	fc0e86e3          	beqz	t4,6d34 <__addsf3+0xe8>
    6d6c:	41de07b3          	sub	a5,t3,t4
    6d70:	00579713          	slli	a4,a5,0x5
    6d74:	22075063          	bgez	a4,6f94 <__addsf3+0x348>
    6d78:	41ce87b3          	sub	a5,t4,t3
    6d7c:	892e                	mv	s2,a1
    6d7e:	b761                	j	6d06 <__addsf3+0xba>
    6d80:	0b105c63          	blez	a7,6e38 <__addsf3+0x1ec>
    6d84:	08080e63          	beqz	a6,6e20 <__addsf3+0x1d4>
    6d88:	0ff00793          	li	a5,255
    6d8c:	06f48363          	beq	s1,a5,6df2 <__addsf3+0x1a6>
    6d90:	040007b7          	lui	a5,0x4000
    6d94:	00feeeb3          	or	t4,t4,a5
    6d98:	47ed                	li	a5,27
    6d9a:	1f17c963          	blt	a5,a7,6f8c <__addsf3+0x340>
    6d9e:	02000793          	li	a5,32
    6da2:	411787b3          	sub	a5,a5,a7
    6da6:	00fe97b3          	sll	a5,t4,a5
    6daa:	011ed8b3          	srl	a7,t4,a7
    6dae:	00f037b3          	snez	a5,a5
    6db2:	00f8e7b3          	or	a5,a7,a5
    6db6:	97f2                	add	a5,a5,t3
    6db8:	00579713          	slli	a4,a5,0x5
    6dbc:	0a075763          	bgez	a4,6e6a <__addsf3+0x21e>
    6dc0:	0485                	addi	s1,s1,1
    6dc2:	0ff00713          	li	a4,255
    6dc6:	0ce48463          	beq	s1,a4,6e8e <__addsf3+0x242>
    6dca:	7e0006b7          	lui	a3,0x7e000
    6dce:	0017d713          	srli	a4,a5,0x1
    6dd2:	16fd                	addi	a3,a3,-1
    6dd4:	8b85                	andi	a5,a5,1
    6dd6:	8f75                	and	a4,a4,a3
    6dd8:	8fd9                	or	a5,a5,a4
    6dda:	b735                	j	6d06 <__addsf3+0xba>
    6ddc:	080e8d63          	beqz	t4,6e76 <__addsf3+0x22a>
    6de0:	18fd                	addi	a7,a7,-1
    6de2:	41de07b3          	sub	a5,t3,t4
    6de6:	ee0882e3          	beqz	a7,6cca <__addsf3+0x7e>
    6dea:	0ff00793          	li	a5,255
    6dee:	eaf49de3          	bne	s1,a5,6ca8 <__addsf3+0x5c>
    6df2:	08030d63          	beqz	t1,6e8c <__addsf3+0x240>
    6df6:	4601                	li	a2,0
    6df8:	0ff00513          	li	a0,255
    6dfc:	004007b7          	lui	a5,0x400
    6e00:	bf15                	j	6d34 <__addsf3+0xe8>
    6e02:	40980733          	sub	a4,a6,s1
    6e06:	e8ed                	bnez	s1,6ef8 <__addsf3+0x2ac>
    6e08:	140e0263          	beqz	t3,6f4c <__addsf3+0x300>
    6e0c:	177d                	addi	a4,a4,-1
    6e0e:	18070863          	beqz	a4,6f9e <__addsf3+0x352>
    6e12:	0ff00793          	li	a5,255
    6e16:	0ef81963          	bne	a6,a5,6f08 <__addsf3+0x2bc>
    6e1a:	892e                	mv	s2,a1
    6e1c:	8336                	mv	t1,a3
    6e1e:	bfd1                	j	6df2 <__addsf3+0x1a6>
    6e20:	040e8b63          	beqz	t4,6e76 <__addsf3+0x22a>
    6e24:	18fd                	addi	a7,a7,-1
    6e26:	01de07b3          	add	a5,t3,t4
    6e2a:	f80887e3          	beqz	a7,6db8 <__addsf3+0x16c>
    6e2e:	0ff00793          	li	a5,255
    6e32:	f6f493e3          	bne	s1,a5,6d98 <__addsf3+0x14c>
    6e36:	bf75                	j	6df2 <__addsf3+0x1a6>
    6e38:	08089563          	bnez	a7,6ec2 <__addsf3+0x276>
    6e3c:	0485                	addi	s1,s1,1
    6e3e:	0fe4f713          	andi	a4,s1,254
    6e42:	12071363          	bnez	a4,6f68 <__addsf3+0x31c>
    6e46:	10051763          	bnez	a0,6f54 <__addsf3+0x308>
    6e4a:	140e0f63          	beqz	t3,6fa8 <__addsf3+0x35c>
    6e4e:	ee0e83e3          	beqz	t4,6d34 <__addsf3+0xe8>
    6e52:	01de07b3          	add	a5,t3,t4
    6e56:	00579713          	slli	a4,a5,0x5
    6e5a:	4481                	li	s1,0
    6e5c:	00075763          	bgez	a4,6e6a <__addsf3+0x21e>
    6e60:	fc000737          	lui	a4,0xfc000
    6e64:	177d                	addi	a4,a4,-1
    6e66:	8ff9                	and	a5,a5,a4
    6e68:	4485                	li	s1,1
    6e6a:	0077f713          	andi	a4,a5,7
    6e6e:	e8071fe3          	bnez	a4,6d0c <__addsf3+0xc0>
    6e72:	0037d313          	srli	t1,a5,0x3
    6e76:	0ff00793          	li	a5,255
    6e7a:	f6f48ce3          	beq	s1,a5,6df2 <__addsf3+0x1a6>
    6e7e:	00931793          	slli	a5,t1,0x9
    6e82:	83a5                	srli	a5,a5,0x9
    6e84:	0ff4f513          	andi	a0,s1,255
    6e88:	864a                	mv	a2,s2
    6e8a:	b56d                	j	6d34 <__addsf3+0xe8>
    6e8c:	864a                	mv	a2,s2
    6e8e:	0ff00513          	li	a0,255
    6e92:	4781                	li	a5,0
    6e94:	b545                	j	6d34 <__addsf3+0xe8>
    6e96:	fc000737          	lui	a4,0xfc000
    6e9a:	177d                	addi	a4,a4,-1
    6e9c:	8ff9                	and	a5,a5,a4
    6e9e:	0077f713          	andi	a4,a5,7
    6ea2:	8c89                	sub	s1,s1,a0
    6ea4:	e60714e3          	bnez	a4,6d0c <__addsf3+0xc0>
    6ea8:	b7e9                	j	6e72 <__addsf3+0x226>
    6eaa:	41de0433          	sub	s0,t3,t4
    6eae:	00541793          	slli	a5,s0,0x5
    6eb2:	0c07c363          	bltz	a5,6f78 <__addsf3+0x32c>
    6eb6:	e20412e3          	bnez	s0,6cda <__addsf3+0x8e>
    6eba:	4601                	li	a2,0
    6ebc:	4501                	li	a0,0
    6ebe:	4781                	li	a5,0
    6ec0:	bd95                	j	6d34 <__addsf3+0xe8>
    6ec2:	40980733          	sub	a4,a6,s1
    6ec6:	c4ad                	beqz	s1,6f30 <__addsf3+0x2e4>
    6ec8:	0ff00793          	li	a5,255
    6ecc:	f4f808e3          	beq	a6,a5,6e1c <__addsf3+0x1d0>
    6ed0:	040007b7          	lui	a5,0x4000
    6ed4:	00fe6e33          	or	t3,t3,a5
    6ed8:	47ed                	li	a5,27
    6eda:	0ce7cc63          	blt	a5,a4,6fb2 <__addsf3+0x366>
    6ede:	02000793          	li	a5,32
    6ee2:	8f99                	sub	a5,a5,a4
    6ee4:	00fe17b3          	sll	a5,t3,a5
    6ee8:	00ee5733          	srl	a4,t3,a4
    6eec:	00f037b3          	snez	a5,a5
    6ef0:	8fd9                	or	a5,a5,a4
    6ef2:	97f6                	add	a5,a5,t4
    6ef4:	84c2                	mv	s1,a6
    6ef6:	b5c9                	j	6db8 <__addsf3+0x16c>
    6ef8:	0ff00793          	li	a5,255
    6efc:	f0f80fe3          	beq	a6,a5,6e1a <__addsf3+0x1ce>
    6f00:	040007b7          	lui	a5,0x4000
    6f04:	00fe6e33          	or	t3,t3,a5
    6f08:	47ed                	li	a5,27
    6f0a:	08e7c363          	blt	a5,a4,6f90 <__addsf3+0x344>
    6f0e:	02000693          	li	a3,32
    6f12:	8e99                	sub	a3,a3,a4
    6f14:	00de16b3          	sll	a3,t3,a3
    6f18:	00ee57b3          	srl	a5,t3,a4
    6f1c:	00d03733          	snez	a4,a3
    6f20:	8fd9                	or	a5,a5,a4
    6f22:	40fe87b3          	sub	a5,t4,a5
    6f26:	84c2                	mv	s1,a6
    6f28:	892e                	mv	s2,a1
    6f2a:	b345                	j	6cca <__addsf3+0x7e>
    6f2c:	4785                	li	a5,1
    6f2e:	bb61                	j	6cc6 <__addsf3+0x7a>
    6f30:	060e0e63          	beqz	t3,6fac <__addsf3+0x360>
    6f34:	177d                	addi	a4,a4,-1
    6f36:	01de07b3          	add	a5,t3,t4
    6f3a:	84c2                	mv	s1,a6
    6f3c:	e6070ee3          	beqz	a4,6db8 <__addsf3+0x16c>
    6f40:	0ff00793          	li	a5,255
    6f44:	f8f81ae3          	bne	a6,a5,6ed8 <__addsf3+0x28c>
    6f48:	8336                	mv	t1,a3
    6f4a:	b565                	j	6df2 <__addsf3+0x1a6>
    6f4c:	8336                	mv	t1,a3
    6f4e:	84c2                	mv	s1,a6
    6f50:	892e                	mv	s2,a1
    6f52:	b715                	j	6e76 <__addsf3+0x22a>
    6f54:	ec0e04e3          	beqz	t3,6e1c <__addsf3+0x1d0>
    6f58:	e80e8de3          	beqz	t4,6df2 <__addsf3+0x1a6>
    6f5c:	bd69                	j	6df6 <__addsf3+0x1aa>
    6f5e:	020e8d63          	beqz	t4,6f98 <__addsf3+0x34c>
    6f62:	862e                	mv	a2,a1
    6f64:	87b6                	mv	a5,a3
    6f66:	b3f9                	j	6d34 <__addsf3+0xe8>
    6f68:	0ff00793          	li	a5,255
    6f6c:	f2f481e3          	beq	s1,a5,6e8e <__addsf3+0x242>
    6f70:	01de07b3          	add	a5,t3,t4
    6f74:	8385                	srli	a5,a5,0x1
    6f76:	bdd5                	j	6e6a <__addsf3+0x21e>
    6f78:	41ce8433          	sub	s0,t4,t3
    6f7c:	892e                	mv	s2,a1
    6f7e:	bbb1                	j	6cda <__addsf3+0x8e>
    6f80:	fc0e1ce3          	bnez	t3,6f58 <__addsf3+0x30c>
    6f84:	e60e89e3          	beqz	t4,6df6 <__addsf3+0x1aa>
    6f88:	892e                	mv	s2,a1
    6f8a:	bd49                	j	6e1c <__addsf3+0x1d0>
    6f8c:	4785                	li	a5,1
    6f8e:	b525                	j	6db6 <__addsf3+0x16a>
    6f90:	4785                	li	a5,1
    6f92:	bf41                	j	6f22 <__addsf3+0x2d6>
    6f94:	ec079be3          	bnez	a5,6e6a <__addsf3+0x21e>
    6f98:	4601                	li	a2,0
    6f9a:	4781                	li	a5,0
    6f9c:	bb61                	j	6d34 <__addsf3+0xe8>
    6f9e:	41ce87b3          	sub	a5,t4,t3
    6fa2:	84c2                	mv	s1,a6
    6fa4:	892e                	mv	s2,a1
    6fa6:	b315                	j	6cca <__addsf3+0x7e>
    6fa8:	87b6                	mv	a5,a3
    6faa:	b369                	j	6d34 <__addsf3+0xe8>
    6fac:	8336                	mv	t1,a3
    6fae:	84c2                	mv	s1,a6
    6fb0:	b5d9                	j	6e76 <__addsf3+0x22a>
    6fb2:	4785                	li	a5,1
    6fb4:	bf3d                	j	6ef2 <__addsf3+0x2a6>

00006fb6 <__gesf2>:
__gtsf2():
    6fb6:	01755693          	srli	a3,a0,0x17
    6fba:	008007b7          	lui	a5,0x800
    6fbe:	17fd                	addi	a5,a5,-1
    6fc0:	0175d613          	srli	a2,a1,0x17
    6fc4:	0ff6f693          	andi	a3,a3,255
    6fc8:	0ff00813          	li	a6,255
    6fcc:	00a7f8b3          	and	a7,a5,a0
    6fd0:	01f55713          	srli	a4,a0,0x1f
    6fd4:	8fed                	and	a5,a5,a1
    6fd6:	0ff67613          	andi	a2,a2,255
    6fda:	81fd                	srli	a1,a1,0x1f
    6fdc:	03068163          	beq	a3,a6,6ffe <__gesf2+0x48>
    6fe0:	01060c63          	beq	a2,a6,6ff8 <__gesf2+0x42>
    6fe4:	e28d                	bnez	a3,7006 <__gesf2+0x50>
    6fe6:	e211                	bnez	a2,6fea <__gesf2+0x34>
    6fe8:	c3b1                	beqz	a5,702c <__gesf2+0x76>
    6fea:	02088e63          	beqz	a7,7026 <__gesf2+0x70>
    6fee:	04b70563          	beq	a4,a1,7038 <__gesf2+0x82>
    6ff2:	4505                	li	a0,1
    6ff4:	e71d                	bnez	a4,7022 <__gesf2+0x6c>
    6ff6:	8082                	ret
    6ff8:	d7f5                	beqz	a5,6fe4 <__gesf2+0x2e>
    6ffa:	5579                	li	a0,-2
    6ffc:	8082                	ret
    6ffe:	fe089ee3          	bnez	a7,6ffa <__gesf2+0x44>
    7002:	02d60963          	beq	a2,a3,7034 <__gesf2+0x7e>
    7006:	e211                	bnez	a2,700a <__gesf2+0x54>
    7008:	d7ed                	beqz	a5,6ff2 <__gesf2+0x3c>
    700a:	feb714e3          	bne	a4,a1,6ff2 <__gesf2+0x3c>
    700e:	fed642e3          	blt	a2,a3,6ff2 <__gesf2+0x3c>
    7012:	00c6c763          	blt	a3,a2,7020 <__gesf2+0x6a>
    7016:	fd17eee3          	bltu	a5,a7,6ff2 <__gesf2+0x3c>
    701a:	4501                	li	a0,0
    701c:	fcf8fde3          	bgeu	a7,a5,6ff6 <__gesf2+0x40>
    7020:	e701                	bnez	a4,7028 <__gesf2+0x72>
    7022:	557d                	li	a0,-1
    7024:	8082                	ret
    7026:	ddf5                	beqz	a1,7022 <__gesf2+0x6c>
    7028:	4505                	li	a0,1
    702a:	8082                	ret
    702c:	4501                	li	a0,0
    702e:	fc0892e3          	bnez	a7,6ff2 <__gesf2+0x3c>
    7032:	8082                	ret
    7034:	dbf9                	beqz	a5,700a <__gesf2+0x54>
    7036:	b7d1                	j	6ffa <__gesf2+0x44>
    7038:	4681                	li	a3,0
    703a:	bfe1                	j	7012 <__gesf2+0x5c>

0000703c <__lesf2>:
__lesf2():
    703c:	01755693          	srli	a3,a0,0x17
    7040:	008007b7          	lui	a5,0x800
    7044:	17fd                	addi	a5,a5,-1
    7046:	0175d613          	srli	a2,a1,0x17
    704a:	0ff6f693          	andi	a3,a3,255
    704e:	0ff00813          	li	a6,255
    7052:	00a7f8b3          	and	a7,a5,a0
    7056:	01f55713          	srli	a4,a0,0x1f
    705a:	8fed                	and	a5,a5,a1
    705c:	0ff67613          	andi	a2,a2,255
    7060:	81fd                	srli	a1,a1,0x1f
    7062:	03068763          	beq	a3,a6,7090 <__lesf2+0x54>
    7066:	01060963          	beq	a2,a6,7078 <__lesf2+0x3c>
    706a:	ea85                	bnez	a3,709a <__lesf2+0x5e>
    706c:	ea11                	bnez	a2,7080 <__lesf2+0x44>
    706e:	eb89                	bnez	a5,7080 <__lesf2+0x44>
    7070:	4501                	li	a0,0
    7072:	00089b63          	bnez	a7,7088 <__lesf2+0x4c>
    7076:	8082                	ret
    7078:	4509                	li	a0,2
    707a:	fff5                	bnez	a5,7076 <__lesf2+0x3a>
    707c:	dae5                	beqz	a3,706c <__lesf2+0x30>
    707e:	a831                	j	709a <__lesf2+0x5e>
    7080:	02088c63          	beqz	a7,70b8 <__lesf2+0x7c>
    7084:	04b70063          	beq	a4,a1,70c4 <__lesf2+0x88>
    7088:	4505                	li	a0,1
    708a:	d775                	beqz	a4,7076 <__lesf2+0x3a>
    708c:	557d                	li	a0,-1
    708e:	8082                	ret
    7090:	4509                	li	a0,2
    7092:	02089863          	bnez	a7,70c2 <__lesf2+0x86>
    7096:	02d60463          	beq	a2,a3,70be <__lesf2+0x82>
    709a:	e211                	bnez	a2,709e <__lesf2+0x62>
    709c:	d7f5                	beqz	a5,7088 <__lesf2+0x4c>
    709e:	feb715e3          	bne	a4,a1,7088 <__lesf2+0x4c>
    70a2:	fed643e3          	blt	a2,a3,7088 <__lesf2+0x4c>
    70a6:	00c6c763          	blt	a3,a2,70b4 <__lesf2+0x78>
    70aa:	fd17efe3          	bltu	a5,a7,7088 <__lesf2+0x4c>
    70ae:	4501                	li	a0,0
    70b0:	fcf8f3e3          	bgeu	a7,a5,7076 <__lesf2+0x3a>
    70b4:	e319                	bnez	a4,70ba <__lesf2+0x7e>
    70b6:	bfd9                	j	708c <__lesf2+0x50>
    70b8:	d9f1                	beqz	a1,708c <__lesf2+0x50>
    70ba:	4505                	li	a0,1
    70bc:	8082                	ret
    70be:	d3e5                	beqz	a5,709e <__lesf2+0x62>
    70c0:	8082                	ret
    70c2:	8082                	ret
    70c4:	4681                	li	a3,0
    70c6:	b7c5                	j	70a6 <__lesf2+0x6a>

000070c8 <__mulsf3>:
__mulsf3():
    70c8:	7179                	addi	sp,sp,-48
    70ca:	d422                	sw	s0,40(sp)
    70cc:	01755413          	srli	s0,a0,0x17
    70d0:	ce4e                	sw	s3,28(sp)
    70d2:	cc52                	sw	s4,24(sp)
    70d4:	00951993          	slli	s3,a0,0x9
    70d8:	d606                	sw	ra,44(sp)
    70da:	d226                	sw	s1,36(sp)
    70dc:	d04a                	sw	s2,32(sp)
    70de:	ca56                	sw	s5,20(sp)
    70e0:	c85a                	sw	s6,16(sp)
    70e2:	0ff47413          	andi	s0,s0,255
    70e6:	0099d993          	srli	s3,s3,0x9
    70ea:	01f55a13          	srli	s4,a0,0x1f
    70ee:	c469                	beqz	s0,71b8 <__mulsf3+0xf0>
    70f0:	0ff00793          	li	a5,255
    70f4:	0ef40863          	beq	s0,a5,71e4 <__mulsf3+0x11c>
    70f8:	00399793          	slli	a5,s3,0x3
    70fc:	04000737          	lui	a4,0x4000
    7100:	00e7e9b3          	or	s3,a5,a4
    7104:	f8140413          	addi	s0,s0,-127 # 3ffff81 <_data_lma+0x3ff6895>
    7108:	4481                	li	s1,0
    710a:	4b01                	li	s6,0
    710c:	0175d713          	srli	a4,a1,0x17
    7110:	00959a93          	slli	s5,a1,0x9
    7114:	0ff77713          	andi	a4,a4,255
    7118:	009ada93          	srli	s5,s5,0x9
    711c:	01f5d913          	srli	s2,a1,0x1f
    7120:	cf45                	beqz	a4,71d8 <__mulsf3+0x110>
    7122:	0ff00793          	li	a5,255
    7126:	02f70c63          	beq	a4,a5,715e <__mulsf3+0x96>
    712a:	0a8e                	slli	s5,s5,0x3
    712c:	f8170713          	addi	a4,a4,-127 # 3ffff81 <_data_lma+0x3ff6895>
    7130:	040007b7          	lui	a5,0x4000
    7134:	00faeab3          	or	s5,s5,a5
    7138:	943a                	add	s0,s0,a4
    713a:	4601                	li	a2,0
    713c:	012a4533          	xor	a0,s4,s2
    7140:	47bd                	li	a5,15
    7142:	86aa                	mv	a3,a0
    7144:	00140593          	addi	a1,s0,1
    7148:	1097e063          	bltu	a5,s1,7248 <__mulsf3+0x180>
    714c:	00002717          	auipc	a4,0x2
    7150:	38470713          	addi	a4,a4,900 # 94d0 <UARTN+0x50>
    7154:	048a                	slli	s1,s1,0x2
    7156:	94ba                	add	s1,s1,a4
    7158:	409c                	lw	a5,0(s1)
    715a:	97ba                	add	a5,a5,a4
    715c:	8782                	jr	a5
    715e:	0ff40413          	addi	s0,s0,255
    7162:	0c0a9663          	bnez	s5,722e <__mulsf3+0x166>
    7166:	0024e493          	ori	s1,s1,2
    716a:	4609                	li	a2,2
    716c:	bfc1                	j	713c <__mulsf3+0x74>
    716e:	4501                	li	a0,0
    7170:	0ff00713          	li	a4,255
    7174:	004007b7          	lui	a5,0x400
    7178:	50b2                	lw	ra,44(sp)
    717a:	5422                	lw	s0,40(sp)
    717c:	07a6                	slli	a5,a5,0x9
    717e:	075e                	slli	a4,a4,0x17
    7180:	83a5                	srli	a5,a5,0x9
    7182:	057e                	slli	a0,a0,0x1f
    7184:	8fd9                	or	a5,a5,a4
    7186:	5492                	lw	s1,36(sp)
    7188:	5902                	lw	s2,32(sp)
    718a:	49f2                	lw	s3,28(sp)
    718c:	4a62                	lw	s4,24(sp)
    718e:	4ad2                	lw	s5,20(sp)
    7190:	4b42                	lw	s6,16(sp)
    7192:	8d5d                	or	a0,a0,a5
    7194:	6145                	addi	sp,sp,48
    7196:	8082                	ret
    7198:	86ca                	mv	a3,s2
    719a:	89d6                	mv	s3,s5
    719c:	8b32                	mv	s6,a2
    719e:	4789                	li	a5,2
    71a0:	08fb0f63          	beq	s6,a5,723e <__mulsf3+0x176>
    71a4:	478d                	li	a5,3
    71a6:	fcfb04e3          	beq	s6,a5,716e <__mulsf3+0xa6>
    71aa:	4785                	li	a5,1
    71ac:	8536                	mv	a0,a3
    71ae:	1afb1063          	bne	s6,a5,734e <__mulsf3+0x286>
    71b2:	4701                	li	a4,0
    71b4:	4781                	li	a5,0
    71b6:	b7c9                	j	7178 <__mulsf3+0xb0>
    71b8:	04099d63          	bnez	s3,7212 <__mulsf3+0x14a>
    71bc:	0175d713          	srli	a4,a1,0x17
    71c0:	00959a93          	slli	s5,a1,0x9
    71c4:	0ff77713          	andi	a4,a4,255
    71c8:	4491                	li	s1,4
    71ca:	4401                	li	s0,0
    71cc:	4b05                	li	s6,1
    71ce:	009ada93          	srli	s5,s5,0x9
    71d2:	01f5d913          	srli	s2,a1,0x1f
    71d6:	f731                	bnez	a4,7122 <__mulsf3+0x5a>
    71d8:	000a9d63          	bnez	s5,71f2 <__mulsf3+0x12a>
    71dc:	0014e493          	ori	s1,s1,1
    71e0:	4605                	li	a2,1
    71e2:	bfa9                	j	713c <__mulsf3+0x74>
    71e4:	02099263          	bnez	s3,7208 <__mulsf3+0x140>
    71e8:	44a1                	li	s1,8
    71ea:	0ff00413          	li	s0,255
    71ee:	4b09                	li	s6,2
    71f0:	bf31                	j	710c <__mulsf3+0x44>
    71f2:	8556                	mv	a0,s5
    71f4:	25c1                	jal	78b4 <__clzsi2>
    71f6:	ffb50793          	addi	a5,a0,-5
    71fa:	8c09                	sub	s0,s0,a0
    71fc:	00fa9ab3          	sll	s5,s5,a5
    7200:	f8a40413          	addi	s0,s0,-118
    7204:	4601                	li	a2,0
    7206:	bf1d                	j	713c <__mulsf3+0x74>
    7208:	44b1                	li	s1,12
    720a:	0ff00413          	li	s0,255
    720e:	4b0d                	li	s6,3
    7210:	bdf5                	j	710c <__mulsf3+0x44>
    7212:	854e                	mv	a0,s3
    7214:	c62e                	sw	a1,12(sp)
    7216:	2d79                	jal	78b4 <__clzsi2>
    7218:	ffb50793          	addi	a5,a0,-5
    721c:	f8a00413          	li	s0,-118
    7220:	00f999b3          	sll	s3,s3,a5
    7224:	8c09                	sub	s0,s0,a0
    7226:	4481                	li	s1,0
    7228:	4b01                	li	s6,0
    722a:	45b2                	lw	a1,12(sp)
    722c:	b5c5                	j	710c <__mulsf3+0x44>
    722e:	0034e493          	ori	s1,s1,3
    7232:	460d                	li	a2,3
    7234:	b721                	j	713c <__mulsf3+0x74>
    7236:	4789                	li	a5,2
    7238:	86d2                	mv	a3,s4
    723a:	f6fb15e3          	bne	s6,a5,71a4 <__mulsf3+0xdc>
    723e:	8536                	mv	a0,a3
    7240:	0ff00713          	li	a4,255
    7244:	4781                	li	a5,0
    7246:	bf0d                	j	7178 <__mulsf3+0xb0>
    7248:	6341                	lui	t1,0x10
    724a:	fff30693          	addi	a3,t1,-1 # ffff <_data_lma+0x6913>
    724e:	0109d613          	srli	a2,s3,0x10
    7252:	010ad893          	srli	a7,s5,0x10
    7256:	00d9f7b3          	and	a5,s3,a3
    725a:	00dafab3          	and	s5,s5,a3
    725e:	03578833          	mul	a6,a5,s5
    7262:	02f889b3          	mul	s3,a7,a5
    7266:	01085713          	srli	a4,a6,0x10
    726a:	03560ab3          	mul	s5,a2,s5
    726e:	99d6                	add	s3,s3,s5
    7270:	974e                	add	a4,a4,s3
    7272:	03160633          	mul	a2,a2,a7
    7276:	01577363          	bgeu	a4,s5,727c <__mulsf3+0x1b4>
    727a:	961a                	add	a2,a2,t1
    727c:	67c1                	lui	a5,0x10
    727e:	17fd                	addi	a5,a5,-1
    7280:	00f776b3          	and	a3,a4,a5
    7284:	00f87833          	and	a6,a6,a5
    7288:	06c2                	slli	a3,a3,0x10
    728a:	96c2                	add	a3,a3,a6
    728c:	00669993          	slli	s3,a3,0x6
    7290:	01075793          	srli	a5,a4,0x10
    7294:	013039b3          	snez	s3,s3
    7298:	82e9                	srli	a3,a3,0x1a
    729a:	97b2                	add	a5,a5,a2
    729c:	079a                	slli	a5,a5,0x6
    729e:	00d9e6b3          	or	a3,s3,a3
    72a2:	00d7e9b3          	or	s3,a5,a3
    72a6:	00499793          	slli	a5,s3,0x4
    72aa:	0007d963          	bgez	a5,72bc <__mulsf3+0x1f4>
    72ae:	0019d713          	srli	a4,s3,0x1
    72b2:	0019f793          	andi	a5,s3,1
    72b6:	00f769b3          	or	s3,a4,a5
    72ba:	842e                	mv	s0,a1
    72bc:	07f40713          	addi	a4,s0,127
    72c0:	04e05063          	blez	a4,7300 <__mulsf3+0x238>
    72c4:	0079f793          	andi	a5,s3,7
    72c8:	c799                	beqz	a5,72d6 <__mulsf3+0x20e>
    72ca:	00f9f793          	andi	a5,s3,15
    72ce:	4691                	li	a3,4
    72d0:	00d78363          	beq	a5,a3,72d6 <__mulsf3+0x20e>
    72d4:	0991                	addi	s3,s3,4
    72d6:	00499793          	slli	a5,s3,0x4
    72da:	0007d963          	bgez	a5,72ec <__mulsf3+0x224>
    72de:	f80007b7          	lui	a5,0xf8000
    72e2:	17fd                	addi	a5,a5,-1
    72e4:	00f9f9b3          	and	s3,s3,a5
    72e8:	08040713          	addi	a4,s0,128
    72ec:	0fe00793          	li	a5,254
    72f0:	04e7cb63          	blt	a5,a4,7346 <__mulsf3+0x27e>
    72f4:	00699793          	slli	a5,s3,0x6
    72f8:	83a5                	srli	a5,a5,0x9
    72fa:	0ff77713          	andi	a4,a4,255
    72fe:	bdad                	j	7178 <__mulsf3+0xb0>
    7300:	4785                	li	a5,1
    7302:	40e786b3          	sub	a3,a5,a4
    7306:	c711                	beqz	a4,7312 <__mulsf3+0x24a>
    7308:	466d                	li	a2,27
    730a:	4701                	li	a4,0
    730c:	4781                	li	a5,0
    730e:	e6d645e3          	blt	a2,a3,7178 <__mulsf3+0xb0>
    7312:	09e40713          	addi	a4,s0,158
    7316:	00e99733          	sll	a4,s3,a4
    731a:	00e03733          	snez	a4,a4
    731e:	00d9d7b3          	srl	a5,s3,a3
    7322:	8fd9                	or	a5,a5,a4
    7324:	0077f713          	andi	a4,a5,7
    7328:	c719                	beqz	a4,7336 <__mulsf3+0x26e>
    732a:	00f7f713          	andi	a4,a5,15
    732e:	4691                	li	a3,4
    7330:	00d70363          	beq	a4,a3,7336 <__mulsf3+0x26e>
    7334:	0791                	addi	a5,a5,4
    7336:	00579713          	slli	a4,a5,0x5
    733a:	00074c63          	bltz	a4,7352 <__mulsf3+0x28a>
    733e:	079a                	slli	a5,a5,0x6
    7340:	83a5                	srli	a5,a5,0x9
    7342:	4701                	li	a4,0
    7344:	bd15                	j	7178 <__mulsf3+0xb0>
    7346:	0ff00713          	li	a4,255
    734a:	4781                	li	a5,0
    734c:	b535                	j	7178 <__mulsf3+0xb0>
    734e:	842e                	mv	s0,a1
    7350:	b7b5                	j	72bc <__mulsf3+0x1f4>
    7352:	4705                	li	a4,1
    7354:	4781                	li	a5,0
    7356:	b50d                	j	7178 <__mulsf3+0xb0>

00007358 <__subsf3>:
__subsf3():
    7358:	00800737          	lui	a4,0x800
    735c:	1141                	addi	sp,sp,-16
    735e:	177d                	addi	a4,a4,-1
    7360:	01755693          	srli	a3,a0,0x17
    7364:	0175d813          	srli	a6,a1,0x17
    7368:	00a777b3          	and	a5,a4,a0
    736c:	0ff6f693          	andi	a3,a3,255
    7370:	01f55e93          	srli	t4,a0,0x1f
    7374:	00b77633          	and	a2,a4,a1
    7378:	c226                	sw	s1,4(sp)
    737a:	c04a                	sw	s2,0(sp)
    737c:	0ff87813          	andi	a6,a6,255
    7380:	c606                	sw	ra,12(sp)
    7382:	c422                	sw	s0,8(sp)
    7384:	0ff00313          	li	t1,255
    7388:	8e3e                	mv	t3,a5
    738a:	8936                	mv	s2,a3
    738c:	84f6                	mv	s1,t4
    738e:	00379f13          	slli	t5,a5,0x3
    7392:	81fd                	srli	a1,a1,0x1f
    7394:	00361513          	slli	a0,a2,0x3
    7398:	410688b3          	sub	a7,a3,a6
    739c:	10680263          	beq	a6,t1,74a0 <__subsf3+0x148>
    73a0:	0015c593          	xori	a1,a1,1
    73a4:	10be8c63          	beq	t4,a1,74bc <__subsf3+0x164>
    73a8:	0d105463          	blez	a7,7470 <__subsf3+0x118>
    73ac:	10081063          	bnez	a6,74ac <__subsf3+0x154>
    73b0:	1e050463          	beqz	a0,7598 <__subsf3+0x240>
    73b4:	18fd                	addi	a7,a7,-1
    73b6:	40af07b3          	sub	a5,t5,a0
    73ba:	02088663          	beqz	a7,73e6 <__subsf3+0x8e>
    73be:	0ff00793          	li	a5,255
    73c2:	16f68863          	beq	a3,a5,7532 <__subsf3+0x1da>
    73c6:	47ed                	li	a5,27
    73c8:	2917c763          	blt	a5,a7,7656 <__subsf3+0x2fe>
    73cc:	02000713          	li	a4,32
    73d0:	41170733          	sub	a4,a4,a7
    73d4:	00e51733          	sll	a4,a0,a4
    73d8:	011557b3          	srl	a5,a0,a7
    73dc:	00e03733          	snez	a4,a4
    73e0:	8fd9                	or	a5,a5,a4
    73e2:	40ff07b3          	sub	a5,t5,a5
    73e6:	00579713          	slli	a4,a5,0x5
    73ea:	1a075163          	bgez	a4,758c <__subsf3+0x234>
    73ee:	04000437          	lui	s0,0x4000
    73f2:	147d                	addi	s0,s0,-1
    73f4:	8c7d                	and	s0,s0,a5
    73f6:	8522                	mv	a0,s0
    73f8:	2975                	jal	78b4 <__clzsi2>
    73fa:	156d                	addi	a0,a0,-5
    73fc:	00a417b3          	sll	a5,s0,a0
    7400:	1b254e63          	blt	a0,s2,75bc <__subsf3+0x264>
    7404:	41250533          	sub	a0,a0,s2
    7408:	00150413          	addi	s0,a0,1
    740c:	02000713          	li	a4,32
    7410:	8f01                	sub	a4,a4,s0
    7412:	00e79733          	sll	a4,a5,a4
    7416:	00e03733          	snez	a4,a4
    741a:	0087d7b3          	srl	a5,a5,s0
    741e:	8fd9                	or	a5,a5,a4
    7420:	4901                	li	s2,0
    7422:	0077f713          	andi	a4,a5,7
    7426:	c719                	beqz	a4,7434 <__subsf3+0xdc>
    7428:	00f7f713          	andi	a4,a5,15
    742c:	4691                	li	a3,4
    742e:	00d70363          	beq	a4,a3,7434 <__subsf3+0xdc>
    7432:	0791                	addi	a5,a5,4
    7434:	00579713          	slli	a4,a5,0x5
    7438:	14075e63          	bgez	a4,7594 <__subsf3+0x23c>
    743c:	00190693          	addi	a3,s2,1 # 800001 <_data_lma+0x7f6915>
    7440:	0ff00713          	li	a4,255
    7444:	0014fe93          	andi	t4,s1,1
    7448:	16e68663          	beq	a3,a4,75b4 <__subsf3+0x25c>
    744c:	079a                	slli	a5,a5,0x6
    744e:	83a5                	srli	a5,a5,0x9
    7450:	0ff6f693          	andi	a3,a3,255
    7454:	07a6                	slli	a5,a5,0x9
    7456:	40b2                	lw	ra,12(sp)
    7458:	4422                	lw	s0,8(sp)
    745a:	0097d513          	srli	a0,a5,0x9
    745e:	06de                	slli	a3,a3,0x17
    7460:	01fe9793          	slli	a5,t4,0x1f
    7464:	8d55                	or	a0,a0,a3
    7466:	4492                	lw	s1,4(sp)
    7468:	4902                	lw	s2,0(sp)
    746a:	8d5d                	or	a0,a0,a5
    746c:	0141                	addi	sp,sp,16
    746e:	8082                	ret
    7470:	0a089263          	bnez	a7,7514 <__subsf3+0x1bc>
    7474:	00168713          	addi	a4,a3,1 # 7e000001 <_eusrstack+0x5dffb001>
    7478:	0fe77713          	andi	a4,a4,254
    747c:	14071b63          	bnez	a4,75d2 <__subsf3+0x27a>
    7480:	22069463          	bnez	a3,76a8 <__subsf3+0x350>
    7484:	200f0263          	beqz	t5,7688 <__subsf3+0x330>
    7488:	d571                	beqz	a0,7454 <__subsf3+0xfc>
    748a:	40af07b3          	sub	a5,t5,a0
    748e:	00579713          	slli	a4,a5,0x5
    7492:	22075563          	bgez	a4,76bc <__subsf3+0x364>
    7496:	41e507b3          	sub	a5,a0,t5
    749a:	4901                	li	s2,0
    749c:	84ae                	mv	s1,a1
    749e:	b751                	j	7422 <__subsf3+0xca>
    74a0:	f00500e3          	beqz	a0,73a0 <__subsf3+0x48>
    74a4:	0abe8a63          	beq	t4,a1,7558 <__subsf3+0x200>
    74a8:	fd1054e3          	blez	a7,7470 <__subsf3+0x118>
    74ac:	0ff00793          	li	a5,255
    74b0:	08f68163          	beq	a3,a5,7532 <__subsf3+0x1da>
    74b4:	040007b7          	lui	a5,0x4000
    74b8:	8d5d                	or	a0,a0,a5
    74ba:	b731                	j	73c6 <__subsf3+0x6e>
    74bc:	09105e63          	blez	a7,7558 <__subsf3+0x200>
    74c0:	08080163          	beqz	a6,7542 <__subsf3+0x1ea>
    74c4:	0ff00793          	li	a5,255
    74c8:	06f68563          	beq	a3,a5,7532 <__subsf3+0x1da>
    74cc:	040007b7          	lui	a5,0x4000
    74d0:	8d5d                	or	a0,a0,a5
    74d2:	47ed                	li	a5,27
    74d4:	1f17c063          	blt	a5,a7,76b4 <__subsf3+0x35c>
    74d8:	02000713          	li	a4,32
    74dc:	41170733          	sub	a4,a4,a7
    74e0:	00e51733          	sll	a4,a0,a4
    74e4:	011557b3          	srl	a5,a0,a7
    74e8:	00e03733          	snez	a4,a4
    74ec:	8fd9                	or	a5,a5,a4
    74ee:	97fa                	add	a5,a5,t5
    74f0:	00579713          	slli	a4,a5,0x5
    74f4:	08075c63          	bgez	a4,758c <__subsf3+0x234>
    74f8:	0905                	addi	s2,s2,1
    74fa:	0ff00713          	li	a4,255
    74fe:	0ae90b63          	beq	s2,a4,75b4 <__subsf3+0x25c>
    7502:	7e0006b7          	lui	a3,0x7e000
    7506:	0017d713          	srli	a4,a5,0x1
    750a:	16fd                	addi	a3,a3,-1
    750c:	8b85                	andi	a5,a5,1
    750e:	8f75                	and	a4,a4,a3
    7510:	8fd9                	or	a5,a5,a4
    7512:	bf01                	j	7422 <__subsf3+0xca>
    7514:	40d80733          	sub	a4,a6,a3
    7518:	10069563          	bnez	a3,7622 <__subsf3+0x2ca>
    751c:	140f0d63          	beqz	t5,7676 <__subsf3+0x31e>
    7520:	177d                	addi	a4,a4,-1
    7522:	1a070363          	beqz	a4,76c8 <__subsf3+0x370>
    7526:	0ff00793          	li	a5,255
    752a:	10f81463          	bne	a6,a5,7632 <__subsf3+0x2da>
    752e:	84ae                	mv	s1,a1
    7530:	8e32                	mv	t3,a2
    7532:	060e0f63          	beqz	t3,75b0 <__subsf3+0x258>
    7536:	4e81                	li	t4,0
    7538:	0ff00693          	li	a3,255
    753c:	004007b7          	lui	a5,0x400
    7540:	bf11                	j	7454 <__subsf3+0xfc>
    7542:	c939                	beqz	a0,7598 <__subsf3+0x240>
    7544:	18fd                	addi	a7,a7,-1
    7546:	00af07b3          	add	a5,t5,a0
    754a:	fa0883e3          	beqz	a7,74f0 <__subsf3+0x198>
    754e:	0ff00793          	li	a5,255
    7552:	f8f690e3          	bne	a3,a5,74d2 <__subsf3+0x17a>
    7556:	bff1                	j	7532 <__subsf3+0x1da>
    7558:	08089963          	bnez	a7,75ea <__subsf3+0x292>
    755c:	00168913          	addi	s2,a3,1 # 7e000001 <_eusrstack+0x5dffb001>
    7560:	0fe97713          	andi	a4,s2,254
    7564:	12071663          	bnez	a4,7690 <__subsf3+0x338>
    7568:	10069b63          	bnez	a3,767e <__subsf3+0x326>
    756c:	160f0363          	beqz	t5,76d2 <__subsf3+0x37a>
    7570:	ee0502e3          	beqz	a0,7454 <__subsf3+0xfc>
    7574:	00af07b3          	add	a5,t5,a0
    7578:	00579713          	slli	a4,a5,0x5
    757c:	4901                	li	s2,0
    757e:	00075763          	bgez	a4,758c <__subsf3+0x234>
    7582:	fc000737          	lui	a4,0xfc000
    7586:	177d                	addi	a4,a4,-1
    7588:	8ff9                	and	a5,a5,a4
    758a:	4905                	li	s2,1
    758c:	0077f713          	andi	a4,a5,7
    7590:	e8071ce3          	bnez	a4,7428 <__subsf3+0xd0>
    7594:	0037de13          	srli	t3,a5,0x3
    7598:	0ff00793          	li	a5,255
    759c:	f8f90be3          	beq	s2,a5,7532 <__subsf3+0x1da>
    75a0:	009e1793          	slli	a5,t3,0x9
    75a4:	83a5                	srli	a5,a5,0x9
    75a6:	0ff97693          	andi	a3,s2,255
    75aa:	0014fe93          	andi	t4,s1,1
    75ae:	b55d                	j	7454 <__subsf3+0xfc>
    75b0:	0014fe93          	andi	t4,s1,1
    75b4:	0ff00693          	li	a3,255
    75b8:	4781                	li	a5,0
    75ba:	bd69                	j	7454 <__subsf3+0xfc>
    75bc:	fc000737          	lui	a4,0xfc000
    75c0:	177d                	addi	a4,a4,-1
    75c2:	8ff9                	and	a5,a5,a4
    75c4:	0077f713          	andi	a4,a5,7
    75c8:	40a90933          	sub	s2,s2,a0
    75cc:	e4071ee3          	bnez	a4,7428 <__subsf3+0xd0>
    75d0:	b7d1                	j	7594 <__subsf3+0x23c>
    75d2:	40af0433          	sub	s0,t5,a0
    75d6:	00541793          	slli	a5,s0,0x5
    75da:	0c07c363          	bltz	a5,76a0 <__subsf3+0x348>
    75de:	e0041ce3          	bnez	s0,73f6 <__subsf3+0x9e>
    75e2:	4e81                	li	t4,0
    75e4:	4681                	li	a3,0
    75e6:	4781                	li	a5,0
    75e8:	b5b5                	j	7454 <__subsf3+0xfc>
    75ea:	40d80733          	sub	a4,a6,a3
    75ee:	c6b5                	beqz	a3,765a <__subsf3+0x302>
    75f0:	0ff00793          	li	a5,255
    75f4:	f2f80ee3          	beq	a6,a5,7530 <__subsf3+0x1d8>
    75f8:	040007b7          	lui	a5,0x4000
    75fc:	00ff6f33          	or	t5,t5,a5
    7600:	47ed                	li	a5,27
    7602:	0ce7cd63          	blt	a5,a4,76dc <__subsf3+0x384>
    7606:	02000793          	li	a5,32
    760a:	8f99                	sub	a5,a5,a4
    760c:	00ff17b3          	sll	a5,t5,a5
    7610:	00ef5733          	srl	a4,t5,a4
    7614:	00f037b3          	snez	a5,a5
    7618:	8f5d                	or	a4,a4,a5
    761a:	00a707b3          	add	a5,a4,a0
    761e:	8942                	mv	s2,a6
    7620:	bdc1                	j	74f0 <__subsf3+0x198>
    7622:	0ff00793          	li	a5,255
    7626:	f0f804e3          	beq	a6,a5,752e <__subsf3+0x1d6>
    762a:	040007b7          	lui	a5,0x4000
    762e:	00ff6f33          	or	t5,t5,a5
    7632:	47ed                	li	a5,27
    7634:	08e7c263          	blt	a5,a4,76b8 <__subsf3+0x360>
    7638:	02000793          	li	a5,32
    763c:	8f99                	sub	a5,a5,a4
    763e:	00ff17b3          	sll	a5,t5,a5
    7642:	00ef5733          	srl	a4,t5,a4
    7646:	00f037b3          	snez	a5,a5
    764a:	8fd9                	or	a5,a5,a4
    764c:	40f507b3          	sub	a5,a0,a5
    7650:	8942                	mv	s2,a6
    7652:	84ae                	mv	s1,a1
    7654:	bb49                	j	73e6 <__subsf3+0x8e>
    7656:	4785                	li	a5,1
    7658:	b369                	j	73e2 <__subsf3+0x8a>
    765a:	060f0e63          	beqz	t5,76d6 <__subsf3+0x37e>
    765e:	177d                	addi	a4,a4,-1
    7660:	00af07b3          	add	a5,t5,a0
    7664:	8942                	mv	s2,a6
    7666:	e80705e3          	beqz	a4,74f0 <__subsf3+0x198>
    766a:	0ff00793          	li	a5,255
    766e:	f8f819e3          	bne	a6,a5,7600 <__subsf3+0x2a8>
    7672:	8e32                	mv	t3,a2
    7674:	bd7d                	j	7532 <__subsf3+0x1da>
    7676:	8e32                	mv	t3,a2
    7678:	8942                	mv	s2,a6
    767a:	84ae                	mv	s1,a1
    767c:	bf31                	j	7598 <__subsf3+0x240>
    767e:	ea0f09e3          	beqz	t5,7530 <__subsf3+0x1d8>
    7682:	ea0508e3          	beqz	a0,7532 <__subsf3+0x1da>
    7686:	bd45                	j	7536 <__subsf3+0x1de>
    7688:	cd0d                	beqz	a0,76c2 <__subsf3+0x36a>
    768a:	8eae                	mv	t4,a1
    768c:	87b2                	mv	a5,a2
    768e:	b3d9                	j	7454 <__subsf3+0xfc>
    7690:	0ff00793          	li	a5,255
    7694:	f2f900e3          	beq	s2,a5,75b4 <__subsf3+0x25c>
    7698:	00af07b3          	add	a5,t5,a0
    769c:	8385                	srli	a5,a5,0x1
    769e:	b5fd                	j	758c <__subsf3+0x234>
    76a0:	41e50433          	sub	s0,a0,t5
    76a4:	84ae                	mv	s1,a1
    76a6:	bb81                	j	73f6 <__subsf3+0x9e>
    76a8:	fc0f1de3          	bnez	t5,7682 <__subsf3+0x32a>
    76ac:	e80505e3          	beqz	a0,7536 <__subsf3+0x1de>
    76b0:	84ae                	mv	s1,a1
    76b2:	bdbd                	j	7530 <__subsf3+0x1d8>
    76b4:	4785                	li	a5,1
    76b6:	bd25                	j	74ee <__subsf3+0x196>
    76b8:	4785                	li	a5,1
    76ba:	bf49                	j	764c <__subsf3+0x2f4>
    76bc:	4901                	li	s2,0
    76be:	ec0797e3          	bnez	a5,758c <__subsf3+0x234>
    76c2:	4e81                	li	t4,0
    76c4:	4781                	li	a5,0
    76c6:	b379                	j	7454 <__subsf3+0xfc>
    76c8:	41e507b3          	sub	a5,a0,t5
    76cc:	8942                	mv	s2,a6
    76ce:	84ae                	mv	s1,a1
    76d0:	bb19                	j	73e6 <__subsf3+0x8e>
    76d2:	87b2                	mv	a5,a2
    76d4:	b341                	j	7454 <__subsf3+0xfc>
    76d6:	8e32                	mv	t3,a2
    76d8:	8942                	mv	s2,a6
    76da:	bd7d                	j	7598 <__subsf3+0x240>
    76dc:	4705                	li	a4,1
    76de:	bf35                	j	761a <__subsf3+0x2c2>

000076e0 <__fixsfsi>:
__fixsfsi():
    76e0:	00800637          	lui	a2,0x800
    76e4:	01755713          	srli	a4,a0,0x17
    76e8:	fff60793          	addi	a5,a2,-1 # 7fffff <_data_lma+0x7f6913>
    76ec:	0ff77713          	andi	a4,a4,255
    76f0:	07e00593          	li	a1,126
    76f4:	00a7f6b3          	and	a3,a5,a0
    76f8:	01f55793          	srli	a5,a0,0x1f
    76fc:	00e5fc63          	bgeu	a1,a4,7714 <__fixsfsi+0x34>
    7700:	09d00593          	li	a1,157
    7704:	00e5fa63          	bgeu	a1,a4,7718 <__fixsfsi+0x38>
    7708:	80000537          	lui	a0,0x80000
    770c:	fff54513          	not	a0,a0
    7710:	953e                	add	a0,a0,a5
    7712:	8082                	ret
    7714:	4501                	li	a0,0
    7716:	8082                	ret
    7718:	09500593          	li	a1,149
    771c:	8ed1                	or	a3,a3,a2
    771e:	00e5cd63          	blt	a1,a4,7738 <__fixsfsi+0x58>
    7722:	09600613          	li	a2,150
    7726:	40e60733          	sub	a4,a2,a4
    772a:	00e6d733          	srl	a4,a3,a4
    772e:	40e00533          	neg	a0,a4
    7732:	f3f5                	bnez	a5,7716 <__fixsfsi+0x36>
    7734:	853a                	mv	a0,a4
    7736:	8082                	ret
    7738:	f6a70713          	addi	a4,a4,-150 # fbffff6a <_eusrstack+0xdbffaf6a>
    773c:	00e69733          	sll	a4,a3,a4
    7740:	b7fd                	j	772e <__fixsfsi+0x4e>

00007742 <__floatsisf>:
__floatsisf():
    7742:	1141                	addi	sp,sp,-16
    7744:	c606                	sw	ra,12(sp)
    7746:	c422                	sw	s0,8(sp)
    7748:	c226                	sw	s1,4(sp)
    774a:	cd0d                	beqz	a0,7784 <__floatsisf+0x42>
    774c:	41f55793          	srai	a5,a0,0x1f
    7750:	00a7c433          	xor	s0,a5,a0
    7754:	8c1d                	sub	s0,s0,a5
    7756:	84aa                	mv	s1,a0
    7758:	8522                	mv	a0,s0
    775a:	2aa9                	jal	78b4 <__clzsi2>
    775c:	09e00793          	li	a5,158
    7760:	40a78733          	sub	a4,a5,a0
    7764:	09600793          	li	a5,150
    7768:	80fd                	srli	s1,s1,0x1f
    776a:	02e7cc63          	blt	a5,a4,77a2 <__floatsisf+0x60>
    776e:	46a1                	li	a3,8
    7770:	0ff77793          	andi	a5,a4,255
    7774:	00a6d563          	bge	a3,a0,777e <__floatsisf+0x3c>
    7778:	1561                	addi	a0,a0,-8
    777a:	00a41433          	sll	s0,s0,a0
    777e:	0426                	slli	s0,s0,0x9
    7780:	8025                	srli	s0,s0,0x9
    7782:	a021                	j	778a <__floatsisf+0x48>
    7784:	4481                	li	s1,0
    7786:	4781                	li	a5,0
    7788:	4401                	li	s0,0
    778a:	0426                	slli	s0,s0,0x9
    778c:	00945513          	srli	a0,s0,0x9
    7790:	40b2                	lw	ra,12(sp)
    7792:	4422                	lw	s0,8(sp)
    7794:	07de                	slli	a5,a5,0x17
    7796:	04fe                	slli	s1,s1,0x1f
    7798:	8d5d                	or	a0,a0,a5
    779a:	8d45                	or	a0,a0,s1
    779c:	4492                	lw	s1,4(sp)
    779e:	0141                	addi	sp,sp,16
    77a0:	8082                	ret
    77a2:	09900793          	li	a5,153
    77a6:	00e7dd63          	bge	a5,a4,77c0 <__floatsisf+0x7e>
    77aa:	01b50793          	addi	a5,a0,27 # 8000001b <_eusrstack+0x5fffb01b>
    77ae:	4695                	li	a3,5
    77b0:	00f417b3          	sll	a5,s0,a5
    77b4:	8e89                	sub	a3,a3,a0
    77b6:	00d45433          	srl	s0,s0,a3
    77ba:	00f037b3          	snez	a5,a5
    77be:	8c5d                	or	s0,s0,a5
    77c0:	4795                	li	a5,5
    77c2:	00a7d663          	bge	a5,a0,77ce <__floatsisf+0x8c>
    77c6:	ffb50793          	addi	a5,a0,-5
    77ca:	00f41433          	sll	s0,s0,a5
    77ce:	fc0006b7          	lui	a3,0xfc000
    77d2:	16fd                	addi	a3,a3,-1
    77d4:	00747793          	andi	a5,s0,7
    77d8:	00d47633          	and	a2,s0,a3
    77dc:	c385                	beqz	a5,77fc <__floatsisf+0xba>
    77de:	00f47793          	andi	a5,s0,15
    77e2:	4591                	li	a1,4
    77e4:	00b78c63          	beq	a5,a1,77fc <__floatsisf+0xba>
    77e8:	0611                	addi	a2,a2,4
    77ea:	00561793          	slli	a5,a2,0x5
    77ee:	0007d763          	bgez	a5,77fc <__floatsisf+0xba>
    77f2:	09f00793          	li	a5,159
    77f6:	8e75                	and	a2,a2,a3
    77f8:	40a78733          	sub	a4,a5,a0
    77fc:	00661413          	slli	s0,a2,0x6
    7800:	8025                	srli	s0,s0,0x9
    7802:	0ff77793          	andi	a5,a4,255
    7806:	b751                	j	778a <__floatsisf+0x48>

00007808 <__extendsfdf2>:
__extendsfdf2():
    7808:	01755713          	srli	a4,a0,0x17
    780c:	0ff77713          	andi	a4,a4,255
    7810:	1141                	addi	sp,sp,-16
    7812:	00170793          	addi	a5,a4,1
    7816:	c422                	sw	s0,8(sp)
    7818:	c226                	sw	s1,4(sp)
    781a:	00951413          	slli	s0,a0,0x9
    781e:	c606                	sw	ra,12(sp)
    7820:	0fe7f793          	andi	a5,a5,254
    7824:	8025                	srli	s0,s0,0x9
    7826:	01f55493          	srli	s1,a0,0x1f
    782a:	c785                	beqz	a5,7852 <__extendsfdf2+0x4a>
    782c:	00345793          	srli	a5,s0,0x3
    7830:	38070713          	addi	a4,a4,896
    7834:	0476                	slli	s0,s0,0x1d
    7836:	07b2                	slli	a5,a5,0xc
    7838:	0752                	slli	a4,a4,0x14
    783a:	83b1                	srli	a5,a5,0xc
    783c:	01f49513          	slli	a0,s1,0x1f
    7840:	8fd9                	or	a5,a5,a4
    7842:	8fc9                	or	a5,a5,a0
    7844:	40b2                	lw	ra,12(sp)
    7846:	8522                	mv	a0,s0
    7848:	4422                	lw	s0,8(sp)
    784a:	4492                	lw	s1,4(sp)
    784c:	85be                	mv	a1,a5
    784e:	0141                	addi	sp,sp,16
    7850:	8082                	ret
    7852:	eb05                	bnez	a4,7882 <__extendsfdf2+0x7a>
    7854:	c439                	beqz	s0,78a2 <__extendsfdf2+0x9a>
    7856:	8522                	mv	a0,s0
    7858:	28b1                	jal	78b4 <__clzsi2>
    785a:	47a9                	li	a5,10
    785c:	04a7c663          	blt	a5,a0,78a8 <__extendsfdf2+0xa0>
    7860:	472d                	li	a4,11
    7862:	8f09                	sub	a4,a4,a0
    7864:	01550793          	addi	a5,a0,21
    7868:	00e45733          	srl	a4,s0,a4
    786c:	00f41433          	sll	s0,s0,a5
    7870:	00c71793          	slli	a5,a4,0xc
    7874:	38900713          	li	a4,905
    7878:	8f09                	sub	a4,a4,a0
    787a:	83b1                	srli	a5,a5,0xc
    787c:	7ff77713          	andi	a4,a4,2047
    7880:	bf5d                	j	7836 <__extendsfdf2+0x2e>
    7882:	cc01                	beqz	s0,789a <__extendsfdf2+0x92>
    7884:	00345713          	srli	a4,s0,0x3
    7888:	000807b7          	lui	a5,0x80
    788c:	8fd9                	or	a5,a5,a4
    788e:	07b2                	slli	a5,a5,0xc
    7890:	0476                	slli	s0,s0,0x1d
    7892:	83b1                	srli	a5,a5,0xc
    7894:	7ff00713          	li	a4,2047
    7898:	bf79                	j	7836 <__extendsfdf2+0x2e>
    789a:	7ff00713          	li	a4,2047
    789e:	4781                	li	a5,0
    78a0:	bf59                	j	7836 <__extendsfdf2+0x2e>
    78a2:	4701                	li	a4,0
    78a4:	4781                	li	a5,0
    78a6:	bf41                	j	7836 <__extendsfdf2+0x2e>
    78a8:	ff550713          	addi	a4,a0,-11
    78ac:	00e41733          	sll	a4,s0,a4
    78b0:	4401                	li	s0,0
    78b2:	bf7d                	j	7870 <__extendsfdf2+0x68>

000078b4 <__clzsi2>:
__clzsi2():
    78b4:	67c1                	lui	a5,0x10
    78b6:	02f57e63          	bgeu	a0,a5,78f2 <__clzsi2+0x3e>
    78ba:	0ff00793          	li	a5,255
    78be:	02000713          	li	a4,32
    78c2:	00a7ec63          	bltu	a5,a0,78da <__clzsi2+0x26>
    78c6:	00002797          	auipc	a5,0x2
    78ca:	c4a78793          	addi	a5,a5,-950 # 9510 <__clz_tab>
    78ce:	97aa                	add	a5,a5,a0
    78d0:	0007c503          	lbu	a0,0(a5)
    78d4:	40a70533          	sub	a0,a4,a0
    78d8:	8082                	ret
    78da:	8121                	srli	a0,a0,0x8
    78dc:	00002797          	auipc	a5,0x2
    78e0:	c3478793          	addi	a5,a5,-972 # 9510 <__clz_tab>
    78e4:	97aa                	add	a5,a5,a0
    78e6:	0007c503          	lbu	a0,0(a5)
    78ea:	4761                	li	a4,24
    78ec:	40a70533          	sub	a0,a4,a0
    78f0:	8082                	ret
    78f2:	010007b7          	lui	a5,0x1000
    78f6:	00f56e63          	bltu	a0,a5,7912 <__clzsi2+0x5e>
    78fa:	8161                	srli	a0,a0,0x18
    78fc:	00002797          	auipc	a5,0x2
    7900:	c1478793          	addi	a5,a5,-1004 # 9510 <__clz_tab>
    7904:	97aa                	add	a5,a5,a0
    7906:	0007c503          	lbu	a0,0(a5)
    790a:	4721                	li	a4,8
    790c:	40a70533          	sub	a0,a4,a0
    7910:	8082                	ret
    7912:	8141                	srli	a0,a0,0x10
    7914:	00002797          	auipc	a5,0x2
    7918:	bfc78793          	addi	a5,a5,-1028 # 9510 <__clz_tab>
    791c:	97aa                	add	a5,a5,a0
    791e:	0007c503          	lbu	a0,0(a5)
    7922:	4741                	li	a4,16
    7924:	40a70533          	sub	a0,a4,a0
    7928:	8082                	ret

0000792a <__assert_func>:
__assert_func():
    792a:	80818793          	addi	a5,gp,-2040 # 20000078 <_impure_ptr>
    792e:	439c                	lw	a5,0(a5)
    7930:	1141                	addi	sp,sp,-16
    7932:	8832                	mv	a6,a2
    7934:	c606                	sw	ra,12(sp)
    7936:	88aa                	mv	a7,a0
    7938:	872e                	mv	a4,a1
    793a:	47c8                	lw	a0,12(a5)
    793c:	8636                	mv	a2,a3
    793e:	00002797          	auipc	a5,0x2
    7942:	cd278793          	addi	a5,a5,-814 # 9610 <__clz_tab+0x100>
    7946:	00081763          	bnez	a6,7954 <__assert_func+0x2a>
    794a:	00002797          	auipc	a5,0x2
    794e:	cd278793          	addi	a5,a5,-814 # 961c <__clz_tab+0x10c>
    7952:	883e                	mv	a6,a5
    7954:	86c6                	mv	a3,a7
    7956:	00002597          	auipc	a1,0x2
    795a:	cca58593          	addi	a1,a1,-822 # 9620 <__clz_tab+0x110>
    795e:	2019                	jal	7964 <fiprintf>
    7960:	169000ef          	jal	ra,82c8 <abort>

00007964 <fiprintf>:
fprintf():
    7964:	7139                	addi	sp,sp,-64
    7966:	d432                	sw	a2,40(sp)
    7968:	d636                	sw	a3,44(sp)
    796a:	da3e                	sw	a5,52(sp)
    796c:	d83a                	sw	a4,48(sp)
    796e:	dc42                	sw	a6,56(sp)
    7970:	de46                	sw	a7,60(sp)
    7972:	80818793          	addi	a5,gp,-2040 # 20000078 <_impure_ptr>
    7976:	862e                	mv	a2,a1
    7978:	85aa                	mv	a1,a0
    797a:	4388                	lw	a0,0(a5)
    797c:	1034                	addi	a3,sp,40
    797e:	ce06                	sw	ra,28(sp)
    7980:	c636                	sw	a3,12(sp)
    7982:	222d                	jal	7aac <_vfiprintf_r>
    7984:	40f2                	lw	ra,28(sp)
    7986:	6121                	addi	sp,sp,64
    7988:	8082                	ret

0000798a <memcpy>:
memcpy():
    798a:	00a5c7b3          	xor	a5,a1,a0
    798e:	8b8d                	andi	a5,a5,3
    7990:	00c50733          	add	a4,a0,a2
    7994:	e781                	bnez	a5,799c <memcpy+0x12>
    7996:	478d                	li	a5,3
    7998:	00c7ee63          	bltu	a5,a2,79b4 <memcpy+0x2a>
    799c:	87aa                	mv	a5,a0
    799e:	0ae57063          	bgeu	a0,a4,7a3e <memcpy+0xb4>
    79a2:	0005c683          	lbu	a3,0(a1)
    79a6:	0785                	addi	a5,a5,1
    79a8:	0585                	addi	a1,a1,1
    79aa:	fed78fa3          	sb	a3,-1(a5)
    79ae:	fee7eae3          	bltu	a5,a4,79a2 <memcpy+0x18>
    79b2:	8082                	ret
    79b4:	00357693          	andi	a3,a0,3
    79b8:	87aa                	mv	a5,a0
    79ba:	ca91                	beqz	a3,79ce <memcpy+0x44>
    79bc:	0005c683          	lbu	a3,0(a1)
    79c0:	0785                	addi	a5,a5,1
    79c2:	0585                	addi	a1,a1,1
    79c4:	fed78fa3          	sb	a3,-1(a5)
    79c8:	0037f693          	andi	a3,a5,3
    79cc:	b7fd                	j	79ba <memcpy+0x30>
    79ce:	ffc77693          	andi	a3,a4,-4
    79d2:	fe068613          	addi	a2,a3,-32 # fbffffe0 <_eusrstack+0xdbffafe0>
    79d6:	06c7f063          	bgeu	a5,a2,7a36 <memcpy+0xac>
    79da:	0005a383          	lw	t2,0(a1)
    79de:	0045a283          	lw	t0,4(a1)
    79e2:	0085af83          	lw	t6,8(a1)
    79e6:	00c5af03          	lw	t5,12(a1)
    79ea:	0105ae83          	lw	t4,16(a1)
    79ee:	0145ae03          	lw	t3,20(a1)
    79f2:	0185a303          	lw	t1,24(a1)
    79f6:	01c5a883          	lw	a7,28(a1)
    79fa:	02458593          	addi	a1,a1,36
    79fe:	0077a023          	sw	t2,0(a5)
    7a02:	ffc5a803          	lw	a6,-4(a1)
    7a06:	0057a223          	sw	t0,4(a5)
    7a0a:	01f7a423          	sw	t6,8(a5)
    7a0e:	01e7a623          	sw	t5,12(a5)
    7a12:	01d7a823          	sw	t4,16(a5)
    7a16:	01c7aa23          	sw	t3,20(a5)
    7a1a:	0067ac23          	sw	t1,24(a5)
    7a1e:	0117ae23          	sw	a7,28(a5)
    7a22:	02478793          	addi	a5,a5,36
    7a26:	ff07ae23          	sw	a6,-4(a5)
    7a2a:	b775                	j	79d6 <memcpy+0x4c>
    7a2c:	4190                	lw	a2,0(a1)
    7a2e:	0791                	addi	a5,a5,4
    7a30:	0591                	addi	a1,a1,4
    7a32:	fec7ae23          	sw	a2,-4(a5)
    7a36:	fed7ebe3          	bltu	a5,a3,7a2c <memcpy+0xa2>
    7a3a:	f6e7e4e3          	bltu	a5,a4,79a2 <memcpy+0x18>
    7a3e:	8082                	ret

00007a40 <__sfputc_r>:
__sfputc_r():
    7a40:	461c                	lw	a5,8(a2)
    7a42:	17fd                	addi	a5,a5,-1
    7a44:	c61c                	sw	a5,8(a2)
    7a46:	0007d963          	bgez	a5,7a58 <__sfputc_r+0x18>
    7a4a:	4e18                	lw	a4,24(a2)
    7a4c:	00e7c563          	blt	a5,a4,7a56 <__sfputc_r+0x16>
    7a50:	47a9                	li	a5,10
    7a52:	00f59363          	bne	a1,a5,7a58 <__sfputc_r+0x18>
    7a56:	a55d                	j	80fc <__swbuf_r>
    7a58:	421c                	lw	a5,0(a2)
    7a5a:	852e                	mv	a0,a1
    7a5c:	00178713          	addi	a4,a5,1
    7a60:	c218                	sw	a4,0(a2)
    7a62:	00b78023          	sb	a1,0(a5)
    7a66:	8082                	ret

00007a68 <__sfputs_r>:
__sfputs_r():
    7a68:	1101                	addi	sp,sp,-32
    7a6a:	cc22                	sw	s0,24(sp)
    7a6c:	ca26                	sw	s1,20(sp)
    7a6e:	c84a                	sw	s2,16(sp)
    7a70:	c64e                	sw	s3,12(sp)
    7a72:	c452                	sw	s4,8(sp)
    7a74:	ce06                	sw	ra,28(sp)
    7a76:	892a                	mv	s2,a0
    7a78:	89ae                	mv	s3,a1
    7a7a:	8432                	mv	s0,a2
    7a7c:	00d604b3          	add	s1,a2,a3
    7a80:	5a7d                	li	s4,-1
    7a82:	00941463          	bne	s0,s1,7a8a <__sfputs_r+0x22>
    7a86:	4501                	li	a0,0
    7a88:	a811                	j	7a9c <__sfputs_r+0x34>
    7a8a:	00044583          	lbu	a1,0(s0) # 4000000 <_data_lma+0x3ff6914>
    7a8e:	864e                	mv	a2,s3
    7a90:	854a                	mv	a0,s2
    7a92:	fafff0ef          	jal	ra,7a40 <__sfputc_r>
    7a96:	0405                	addi	s0,s0,1
    7a98:	ff4515e3          	bne	a0,s4,7a82 <__sfputs_r+0x1a>
    7a9c:	40f2                	lw	ra,28(sp)
    7a9e:	4462                	lw	s0,24(sp)
    7aa0:	44d2                	lw	s1,20(sp)
    7aa2:	4942                	lw	s2,16(sp)
    7aa4:	49b2                	lw	s3,12(sp)
    7aa6:	4a22                	lw	s4,8(sp)
    7aa8:	6105                	addi	sp,sp,32
    7aaa:	8082                	ret

00007aac <_vfiprintf_r>:
_vfiprintf_r():
    7aac:	7135                	addi	sp,sp,-160
    7aae:	cd22                	sw	s0,152(sp)
    7ab0:	cb26                	sw	s1,148(sp)
    7ab2:	c94a                	sw	s2,144(sp)
    7ab4:	c74e                	sw	s3,140(sp)
    7ab6:	cf06                	sw	ra,156(sp)
    7ab8:	c552                	sw	s4,136(sp)
    7aba:	c356                	sw	s5,132(sp)
    7abc:	c15a                	sw	s6,128(sp)
    7abe:	dede                	sw	s7,124(sp)
    7ac0:	dce2                	sw	s8,120(sp)
    7ac2:	dae6                	sw	s9,116(sp)
    7ac4:	89aa                	mv	s3,a0
    7ac6:	84ae                	mv	s1,a1
    7ac8:	8932                	mv	s2,a2
    7aca:	8436                	mv	s0,a3
    7acc:	c509                	beqz	a0,7ad6 <_vfiprintf_r+0x2a>
    7ace:	4d1c                	lw	a5,24(a0)
    7ad0:	e399                	bnez	a5,7ad6 <_vfiprintf_r+0x2a>
    7ad2:	261000ef          	jal	ra,8532 <__sinit>
    7ad6:	00002797          	auipc	a5,0x2
    7ada:	bd678793          	addi	a5,a5,-1066 # 96ac <__sf_fake_stdin>
    7ade:	0cf49d63          	bne	s1,a5,7bb8 <_vfiprintf_r+0x10c>
    7ae2:	0049a483          	lw	s1,4(s3)
    7ae6:	00c4d783          	lhu	a5,12(s1)
    7aea:	8ba1                	andi	a5,a5,8
    7aec:	cbe5                	beqz	a5,7bdc <_vfiprintf_r+0x130>
    7aee:	489c                	lw	a5,16(s1)
    7af0:	c7f5                	beqz	a5,7bdc <_vfiprintf_r+0x130>
    7af2:	02000793          	li	a5,32
    7af6:	02f104a3          	sb	a5,41(sp)
    7afa:	03000793          	li	a5,48
    7afe:	d202                	sw	zero,36(sp)
    7b00:	02f10523          	sb	a5,42(sp)
    7b04:	c622                	sw	s0,12(sp)
    7b06:	02500b93          	li	s7,37
    7b0a:	00002a97          	auipc	s5,0x2
    7b0e:	b46a8a93          	addi	s5,s5,-1210 # 9650 <__clz_tab+0x140>
    7b12:	4c05                	li	s8,1
    7b14:	4b29                	li	s6,10
    7b16:	844a                	mv	s0,s2
    7b18:	00044783          	lbu	a5,0(s0)
    7b1c:	c399                	beqz	a5,7b22 <_vfiprintf_r+0x76>
    7b1e:	0f779163          	bne	a5,s7,7c00 <_vfiprintf_r+0x154>
    7b22:	41240cb3          	sub	s9,s0,s2
    7b26:	000c8e63          	beqz	s9,7b42 <_vfiprintf_r+0x96>
    7b2a:	86e6                	mv	a3,s9
    7b2c:	864a                	mv	a2,s2
    7b2e:	85a6                	mv	a1,s1
    7b30:	854e                	mv	a0,s3
    7b32:	f37ff0ef          	jal	ra,7a68 <__sfputs_r>
    7b36:	57fd                	li	a5,-1
    7b38:	1ef50863          	beq	a0,a5,7d28 <_vfiprintf_r+0x27c>
    7b3c:	5692                	lw	a3,36(sp)
    7b3e:	96e6                	add	a3,a3,s9
    7b40:	d236                	sw	a3,36(sp)
    7b42:	00044783          	lbu	a5,0(s0)
    7b46:	1e078163          	beqz	a5,7d28 <_vfiprintf_r+0x27c>
    7b4a:	57fd                	li	a5,-1
    7b4c:	00140913          	addi	s2,s0,1
    7b50:	c802                	sw	zero,16(sp)
    7b52:	ce02                	sw	zero,28(sp)
    7b54:	ca3e                	sw	a5,20(sp)
    7b56:	cc02                	sw	zero,24(sp)
    7b58:	040109a3          	sb	zero,83(sp)
    7b5c:	d482                	sw	zero,104(sp)
    7b5e:	00094583          	lbu	a1,0(s2)
    7b62:	4615                	li	a2,5
    7b64:	8556                	mv	a0,s5
    7b66:	43b000ef          	jal	ra,87a0 <memchr>
    7b6a:	00190413          	addi	s0,s2,1
    7b6e:	47c2                	lw	a5,16(sp)
    7b70:	e951                	bnez	a0,7c04 <_vfiprintf_r+0x158>
    7b72:	0107f713          	andi	a4,a5,16
    7b76:	c709                	beqz	a4,7b80 <_vfiprintf_r+0xd4>
    7b78:	02000713          	li	a4,32
    7b7c:	04e109a3          	sb	a4,83(sp)
    7b80:	0087f713          	andi	a4,a5,8
    7b84:	c709                	beqz	a4,7b8e <_vfiprintf_r+0xe2>
    7b86:	02b00713          	li	a4,43
    7b8a:	04e109a3          	sb	a4,83(sp)
    7b8e:	00094683          	lbu	a3,0(s2)
    7b92:	02a00713          	li	a4,42
    7b96:	06e68f63          	beq	a3,a4,7c14 <_vfiprintf_r+0x168>
    7b9a:	47f2                	lw	a5,28(sp)
    7b9c:	844a                	mv	s0,s2
    7b9e:	4681                	li	a3,0
    7ba0:	4625                	li	a2,9
    7ba2:	00044703          	lbu	a4,0(s0)
    7ba6:	00140593          	addi	a1,s0,1
    7baa:	fd070713          	addi	a4,a4,-48
    7bae:	0ae67863          	bgeu	a2,a4,7c5e <_vfiprintf_r+0x1b2>
    7bb2:	caad                	beqz	a3,7c24 <_vfiprintf_r+0x178>
    7bb4:	ce3e                	sw	a5,28(sp)
    7bb6:	a0bd                	j	7c24 <_vfiprintf_r+0x178>
    7bb8:	00002797          	auipc	a5,0x2
    7bbc:	b1478793          	addi	a5,a5,-1260 # 96cc <__sf_fake_stdout>
    7bc0:	00f49563          	bne	s1,a5,7bca <_vfiprintf_r+0x11e>
    7bc4:	0089a483          	lw	s1,8(s3)
    7bc8:	bf39                	j	7ae6 <_vfiprintf_r+0x3a>
    7bca:	00002797          	auipc	a5,0x2
    7bce:	ac278793          	addi	a5,a5,-1342 # 968c <__sf_fake_stderr>
    7bd2:	f0f49ae3          	bne	s1,a5,7ae6 <_vfiprintf_r+0x3a>
    7bd6:	00c9a483          	lw	s1,12(s3)
    7bda:	b731                	j	7ae6 <_vfiprintf_r+0x3a>
    7bdc:	85a6                	mv	a1,s1
    7bde:	854e                	mv	a0,s3
    7be0:	2bf1                	jal	81bc <__swsetup_r>
    7be2:	d901                	beqz	a0,7af2 <_vfiprintf_r+0x46>
    7be4:	557d                	li	a0,-1
    7be6:	40fa                	lw	ra,156(sp)
    7be8:	446a                	lw	s0,152(sp)
    7bea:	44da                	lw	s1,148(sp)
    7bec:	494a                	lw	s2,144(sp)
    7bee:	49ba                	lw	s3,140(sp)
    7bf0:	4a2a                	lw	s4,136(sp)
    7bf2:	4a9a                	lw	s5,132(sp)
    7bf4:	4b0a                	lw	s6,128(sp)
    7bf6:	5bf6                	lw	s7,124(sp)
    7bf8:	5c66                	lw	s8,120(sp)
    7bfa:	5cd6                	lw	s9,116(sp)
    7bfc:	610d                	addi	sp,sp,160
    7bfe:	8082                	ret
    7c00:	0405                	addi	s0,s0,1
    7c02:	bf19                	j	7b18 <_vfiprintf_r+0x6c>
    7c04:	41550533          	sub	a0,a0,s5
    7c08:	00ac1533          	sll	a0,s8,a0
    7c0c:	8fc9                	or	a5,a5,a0
    7c0e:	c83e                	sw	a5,16(sp)
    7c10:	8922                	mv	s2,s0
    7c12:	b7b1                	j	7b5e <_vfiprintf_r+0xb2>
    7c14:	4732                	lw	a4,12(sp)
    7c16:	00470693          	addi	a3,a4,4
    7c1a:	4318                	lw	a4,0(a4)
    7c1c:	c636                	sw	a3,12(sp)
    7c1e:	02074963          	bltz	a4,7c50 <_vfiprintf_r+0x1a4>
    7c22:	ce3a                	sw	a4,28(sp)
    7c24:	00044703          	lbu	a4,0(s0)
    7c28:	02e00793          	li	a5,46
    7c2c:	04f71f63          	bne	a4,a5,7c8a <_vfiprintf_r+0x1de>
    7c30:	00144703          	lbu	a4,1(s0)
    7c34:	02a00793          	li	a5,42
    7c38:	02f71b63          	bne	a4,a5,7c6e <_vfiprintf_r+0x1c2>
    7c3c:	47b2                	lw	a5,12(sp)
    7c3e:	0409                	addi	s0,s0,2
    7c40:	00478713          	addi	a4,a5,4
    7c44:	439c                	lw	a5,0(a5)
    7c46:	c63a                	sw	a4,12(sp)
    7c48:	0207c163          	bltz	a5,7c6a <_vfiprintf_r+0x1be>
    7c4c:	ca3e                	sw	a5,20(sp)
    7c4e:	a835                	j	7c8a <_vfiprintf_r+0x1de>
    7c50:	40e00733          	neg	a4,a4
    7c54:	0027e793          	ori	a5,a5,2
    7c58:	ce3a                	sw	a4,28(sp)
    7c5a:	c83e                	sw	a5,16(sp)
    7c5c:	b7e1                	j	7c24 <_vfiprintf_r+0x178>
    7c5e:	036787b3          	mul	a5,a5,s6
    7c62:	4685                	li	a3,1
    7c64:	842e                	mv	s0,a1
    7c66:	97ba                	add	a5,a5,a4
    7c68:	bf2d                	j	7ba2 <_vfiprintf_r+0xf6>
    7c6a:	57fd                	li	a5,-1
    7c6c:	b7c5                	j	7c4c <_vfiprintf_r+0x1a0>
    7c6e:	0405                	addi	s0,s0,1
    7c70:	ca02                	sw	zero,20(sp)
    7c72:	4681                	li	a3,0
    7c74:	4781                	li	a5,0
    7c76:	4625                	li	a2,9
    7c78:	00044703          	lbu	a4,0(s0)
    7c7c:	00140593          	addi	a1,s0,1
    7c80:	fd070713          	addi	a4,a4,-48
    7c84:	06e67863          	bgeu	a2,a4,7cf4 <_vfiprintf_r+0x248>
    7c88:	f2f1                	bnez	a3,7c4c <_vfiprintf_r+0x1a0>
    7c8a:	00044583          	lbu	a1,0(s0)
    7c8e:	460d                	li	a2,3
    7c90:	00002517          	auipc	a0,0x2
    7c94:	9c850513          	addi	a0,a0,-1592 # 9658 <__clz_tab+0x148>
    7c98:	309000ef          	jal	ra,87a0 <memchr>
    7c9c:	cd11                	beqz	a0,7cb8 <_vfiprintf_r+0x20c>
    7c9e:	00002797          	auipc	a5,0x2
    7ca2:	9ba78793          	addi	a5,a5,-1606 # 9658 <__clz_tab+0x148>
    7ca6:	8d1d                	sub	a0,a0,a5
    7ca8:	04000793          	li	a5,64
    7cac:	00a797b3          	sll	a5,a5,a0
    7cb0:	4542                	lw	a0,16(sp)
    7cb2:	0405                	addi	s0,s0,1
    7cb4:	8d5d                	or	a0,a0,a5
    7cb6:	c82a                	sw	a0,16(sp)
    7cb8:	00044583          	lbu	a1,0(s0)
    7cbc:	4619                	li	a2,6
    7cbe:	00002517          	auipc	a0,0x2
    7cc2:	99e50513          	addi	a0,a0,-1634 # 965c <__clz_tab+0x14c>
    7cc6:	00140913          	addi	s2,s0,1
    7cca:	02b10423          	sb	a1,40(sp)
    7cce:	2d3000ef          	jal	ra,87a0 <memchr>
    7cd2:	c13d                	beqz	a0,7d38 <_vfiprintf_r+0x28c>
    7cd4:	ffff8797          	auipc	a5,0xffff8
    7cd8:	32c78793          	addi	a5,a5,812 # 0 <_sinit>
    7cdc:	e795                	bnez	a5,7d08 <_vfiprintf_r+0x25c>
    7cde:	4742                	lw	a4,16(sp)
    7ce0:	47b2                	lw	a5,12(sp)
    7ce2:	10077713          	andi	a4,a4,256
    7ce6:	cf09                	beqz	a4,7d00 <_vfiprintf_r+0x254>
    7ce8:	0791                	addi	a5,a5,4
    7cea:	c63e                	sw	a5,12(sp)
    7cec:	5792                	lw	a5,36(sp)
    7cee:	97d2                	add	a5,a5,s4
    7cf0:	d23e                	sw	a5,36(sp)
    7cf2:	b515                	j	7b16 <_vfiprintf_r+0x6a>
    7cf4:	036787b3          	mul	a5,a5,s6
    7cf8:	4685                	li	a3,1
    7cfa:	842e                	mv	s0,a1
    7cfc:	97ba                	add	a5,a5,a4
    7cfe:	bfad                	j	7c78 <_vfiprintf_r+0x1cc>
    7d00:	079d                	addi	a5,a5,7
    7d02:	9be1                	andi	a5,a5,-8
    7d04:	07a1                	addi	a5,a5,8
    7d06:	b7d5                	j	7cea <_vfiprintf_r+0x23e>
    7d08:	0078                	addi	a4,sp,12
    7d0a:	00000697          	auipc	a3,0x0
    7d0e:	d5e68693          	addi	a3,a3,-674 # 7a68 <__sfputs_r>
    7d12:	8626                	mv	a2,s1
    7d14:	080c                	addi	a1,sp,16
    7d16:	854e                	mv	a0,s3
    7d18:	00000097          	auipc	ra,0x0
    7d1c:	000000e7          	jalr	zero # 0 <_sinit>
    7d20:	57fd                	li	a5,-1
    7d22:	8a2a                	mv	s4,a0
    7d24:	fcf514e3          	bne	a0,a5,7cec <_vfiprintf_r+0x240>
    7d28:	00c4d783          	lhu	a5,12(s1)
    7d2c:	0407f793          	andi	a5,a5,64
    7d30:	ea079ae3          	bnez	a5,7be4 <_vfiprintf_r+0x138>
    7d34:	5512                	lw	a0,36(sp)
    7d36:	bd45                	j	7be6 <_vfiprintf_r+0x13a>
    7d38:	0078                	addi	a4,sp,12
    7d3a:	00000697          	auipc	a3,0x0
    7d3e:	d2e68693          	addi	a3,a3,-722 # 7a68 <__sfputs_r>
    7d42:	8626                	mv	a2,s1
    7d44:	080c                	addi	a1,sp,16
    7d46:	854e                	mv	a0,s3
    7d48:	2a01                	jal	7e58 <_printf_i>
    7d4a:	bfd9                	j	7d20 <_vfiprintf_r+0x274>

00007d4c <_printf_common>:
_printf_common():
    7d4c:	7179                	addi	sp,sp,-48
    7d4e:	ca56                	sw	s5,20(sp)
    7d50:	499c                	lw	a5,16(a1)
    7d52:	8aba                	mv	s5,a4
    7d54:	4598                	lw	a4,8(a1)
    7d56:	d422                	sw	s0,40(sp)
    7d58:	d226                	sw	s1,36(sp)
    7d5a:	ce4e                	sw	s3,28(sp)
    7d5c:	cc52                	sw	s4,24(sp)
    7d5e:	d606                	sw	ra,44(sp)
    7d60:	d04a                	sw	s2,32(sp)
    7d62:	c85a                	sw	s6,16(sp)
    7d64:	c65e                	sw	s7,12(sp)
    7d66:	89aa                	mv	s3,a0
    7d68:	842e                	mv	s0,a1
    7d6a:	84b2                	mv	s1,a2
    7d6c:	8a36                	mv	s4,a3
    7d6e:	00e7d363          	bge	a5,a4,7d74 <_printf_common+0x28>
    7d72:	87ba                	mv	a5,a4
    7d74:	c09c                	sw	a5,0(s1)
    7d76:	04344703          	lbu	a4,67(s0)
    7d7a:	c319                	beqz	a4,7d80 <_printf_common+0x34>
    7d7c:	0785                	addi	a5,a5,1
    7d7e:	c09c                	sw	a5,0(s1)
    7d80:	401c                	lw	a5,0(s0)
    7d82:	0207f793          	andi	a5,a5,32
    7d86:	c781                	beqz	a5,7d8e <_printf_common+0x42>
    7d88:	409c                	lw	a5,0(s1)
    7d8a:	0789                	addi	a5,a5,2
    7d8c:	c09c                	sw	a5,0(s1)
    7d8e:	00042903          	lw	s2,0(s0)
    7d92:	00697913          	andi	s2,s2,6
    7d96:	00091a63          	bnez	s2,7daa <_printf_common+0x5e>
    7d9a:	01940b13          	addi	s6,s0,25
    7d9e:	5bfd                	li	s7,-1
    7da0:	445c                	lw	a5,12(s0)
    7da2:	4098                	lw	a4,0(s1)
    7da4:	8f99                	sub	a5,a5,a4
    7da6:	04f94c63          	blt	s2,a5,7dfe <_printf_common+0xb2>
    7daa:	401c                	lw	a5,0(s0)
    7dac:	04344683          	lbu	a3,67(s0)
    7db0:	0207f793          	andi	a5,a5,32
    7db4:	00d036b3          	snez	a3,a3
    7db8:	eba5                	bnez	a5,7e28 <_printf_common+0xdc>
    7dba:	04340613          	addi	a2,s0,67
    7dbe:	85d2                	mv	a1,s4
    7dc0:	854e                	mv	a0,s3
    7dc2:	9a82                	jalr	s5
    7dc4:	57fd                	li	a5,-1
    7dc6:	04f50363          	beq	a0,a5,7e0c <_printf_common+0xc0>
    7dca:	401c                	lw	a5,0(s0)
    7dcc:	4611                	li	a2,4
    7dce:	4098                	lw	a4,0(s1)
    7dd0:	8b99                	andi	a5,a5,6
    7dd2:	4454                	lw	a3,12(s0)
    7dd4:	4481                	li	s1,0
    7dd6:	00c79763          	bne	a5,a2,7de4 <_printf_common+0x98>
    7dda:	40e684b3          	sub	s1,a3,a4
    7dde:	0004d363          	bgez	s1,7de4 <_printf_common+0x98>
    7de2:	4481                	li	s1,0
    7de4:	441c                	lw	a5,8(s0)
    7de6:	4818                	lw	a4,16(s0)
    7de8:	00f75463          	bge	a4,a5,7df0 <_printf_common+0xa4>
    7dec:	8f99                	sub	a5,a5,a4
    7dee:	94be                	add	s1,s1,a5
    7df0:	4901                	li	s2,0
    7df2:	0469                	addi	s0,s0,26
    7df4:	5b7d                	li	s6,-1
    7df6:	05249863          	bne	s1,s2,7e46 <_printf_common+0xfa>
    7dfa:	4501                	li	a0,0
    7dfc:	a809                	j	7e0e <_printf_common+0xc2>
    7dfe:	4685                	li	a3,1
    7e00:	865a                	mv	a2,s6
    7e02:	85d2                	mv	a1,s4
    7e04:	854e                	mv	a0,s3
    7e06:	9a82                	jalr	s5
    7e08:	01751e63          	bne	a0,s7,7e24 <_printf_common+0xd8>
    7e0c:	557d                	li	a0,-1
    7e0e:	50b2                	lw	ra,44(sp)
    7e10:	5422                	lw	s0,40(sp)
    7e12:	5492                	lw	s1,36(sp)
    7e14:	5902                	lw	s2,32(sp)
    7e16:	49f2                	lw	s3,28(sp)
    7e18:	4a62                	lw	s4,24(sp)
    7e1a:	4ad2                	lw	s5,20(sp)
    7e1c:	4b42                	lw	s6,16(sp)
    7e1e:	4bb2                	lw	s7,12(sp)
    7e20:	6145                	addi	sp,sp,48
    7e22:	8082                	ret
    7e24:	0905                	addi	s2,s2,1
    7e26:	bfad                	j	7da0 <_printf_common+0x54>
    7e28:	00d40733          	add	a4,s0,a3
    7e2c:	03000613          	li	a2,48
    7e30:	04c701a3          	sb	a2,67(a4)
    7e34:	04544703          	lbu	a4,69(s0)
    7e38:	00168793          	addi	a5,a3,1
    7e3c:	97a2                	add	a5,a5,s0
    7e3e:	0689                	addi	a3,a3,2
    7e40:	04e781a3          	sb	a4,67(a5)
    7e44:	bf9d                	j	7dba <_printf_common+0x6e>
    7e46:	4685                	li	a3,1
    7e48:	8622                	mv	a2,s0
    7e4a:	85d2                	mv	a1,s4
    7e4c:	854e                	mv	a0,s3
    7e4e:	9a82                	jalr	s5
    7e50:	fb650ee3          	beq	a0,s6,7e0c <_printf_common+0xc0>
    7e54:	0905                	addi	s2,s2,1
    7e56:	b745                	j	7df6 <_printf_common+0xaa>

00007e58 <_printf_i>:
_printf_i():
    7e58:	7179                	addi	sp,sp,-48
    7e5a:	d422                	sw	s0,40(sp)
    7e5c:	d226                	sw	s1,36(sp)
    7e5e:	d04a                	sw	s2,32(sp)
    7e60:	ce4e                	sw	s3,28(sp)
    7e62:	d606                	sw	ra,44(sp)
    7e64:	cc52                	sw	s4,24(sp)
    7e66:	ca56                	sw	s5,20(sp)
    7e68:	c85a                	sw	s6,16(sp)
    7e6a:	89b6                	mv	s3,a3
    7e6c:	0185c683          	lbu	a3,24(a1)
    7e70:	06e00793          	li	a5,110
    7e74:	8932                	mv	s2,a2
    7e76:	84aa                	mv	s1,a0
    7e78:	842e                	mv	s0,a1
    7e7a:	04358613          	addi	a2,a1,67
    7e7e:	1ef68163          	beq	a3,a5,8060 <_printf_i+0x208>
    7e82:	06d7e263          	bltu	a5,a3,7ee6 <_printf_i+0x8e>
    7e86:	06300793          	li	a5,99
    7e8a:	0af68263          	beq	a3,a5,7f2e <_printf_i+0xd6>
    7e8e:	00d7ed63          	bltu	a5,a3,7ea8 <_printf_i+0x50>
    7e92:	1e068b63          	beqz	a3,8088 <_printf_i+0x230>
    7e96:	05800793          	li	a5,88
    7e9a:	16f68763          	beq	a3,a5,8008 <_printf_i+0x1b0>
    7e9e:	04240a93          	addi	s5,s0,66
    7ea2:	04d40123          	sb	a3,66(s0)
    7ea6:	a869                	j	7f40 <_printf_i+0xe8>
    7ea8:	06400793          	li	a5,100
    7eac:	00f68663          	beq	a3,a5,7eb8 <_printf_i+0x60>
    7eb0:	06900793          	li	a5,105
    7eb4:	fef695e3          	bne	a3,a5,7e9e <_printf_i+0x46>
    7eb8:	401c                	lw	a5,0(s0)
    7eba:	4308                	lw	a0,0(a4)
    7ebc:	0807f693          	andi	a3,a5,128
    7ec0:	00450593          	addi	a1,a0,4
    7ec4:	c2c1                	beqz	a3,7f44 <_printf_i+0xec>
    7ec6:	411c                	lw	a5,0(a0)
    7ec8:	c30c                	sw	a1,0(a4)
    7eca:	0007d863          	bgez	a5,7eda <_printf_i+0x82>
    7ece:	02d00713          	li	a4,45
    7ed2:	40f007b3          	neg	a5,a5
    7ed6:	04e401a3          	sb	a4,67(s0)
    7eda:	00001697          	auipc	a3,0x1
    7ede:	78a68693          	addi	a3,a3,1930 # 9664 <__clz_tab+0x154>
    7ee2:	4729                	li	a4,10
    7ee4:	a065                	j	7f8c <_printf_i+0x134>
    7ee6:	07300793          	li	a5,115
    7eea:	1af68363          	beq	a3,a5,8090 <_printf_i+0x238>
    7eee:	00d7ef63          	bltu	a5,a3,7f0c <_printf_i+0xb4>
    7ef2:	06f00793          	li	a5,111
    7ef6:	04f68f63          	beq	a3,a5,7f54 <_printf_i+0xfc>
    7efa:	07000793          	li	a5,112
    7efe:	faf690e3          	bne	a3,a5,7e9e <_printf_i+0x46>
    7f02:	419c                	lw	a5,0(a1)
    7f04:	0207e793          	ori	a5,a5,32
    7f08:	c19c                	sw	a5,0(a1)
    7f0a:	a809                	j	7f1c <_printf_i+0xc4>
    7f0c:	07500793          	li	a5,117
    7f10:	04f68263          	beq	a3,a5,7f54 <_printf_i+0xfc>
    7f14:	07800793          	li	a5,120
    7f18:	f8f693e3          	bne	a3,a5,7e9e <_printf_i+0x46>
    7f1c:	07800793          	li	a5,120
    7f20:	04f402a3          	sb	a5,69(s0)
    7f24:	00001697          	auipc	a3,0x1
    7f28:	75468693          	addi	a3,a3,1876 # 9678 <__clz_tab+0x168>
    7f2c:	a0e5                	j	8014 <_printf_i+0x1bc>
    7f2e:	431c                	lw	a5,0(a4)
    7f30:	04258a93          	addi	s5,a1,66
    7f34:	00478693          	addi	a3,a5,4
    7f38:	439c                	lw	a5,0(a5)
    7f3a:	c314                	sw	a3,0(a4)
    7f3c:	04f58123          	sb	a5,66(a1)
    7f40:	4785                	li	a5,1
    7f42:	a2b5                	j	80ae <_printf_i+0x256>
    7f44:	0407f693          	andi	a3,a5,64
    7f48:	411c                	lw	a5,0(a0)
    7f4a:	c30c                	sw	a1,0(a4)
    7f4c:	debd                	beqz	a3,7eca <_printf_i+0x72>
    7f4e:	07c2                	slli	a5,a5,0x10
    7f50:	87c1                	srai	a5,a5,0x10
    7f52:	bfa5                	j	7eca <_printf_i+0x72>
    7f54:	400c                	lw	a1,0(s0)
    7f56:	431c                	lw	a5,0(a4)
    7f58:	0805f813          	andi	a6,a1,128
    7f5c:	00478513          	addi	a0,a5,4
    7f60:	00080563          	beqz	a6,7f6a <_printf_i+0x112>
    7f64:	c308                	sw	a0,0(a4)
    7f66:	439c                	lw	a5,0(a5)
    7f68:	a039                	j	7f76 <_printf_i+0x11e>
    7f6a:	0405f593          	andi	a1,a1,64
    7f6e:	c308                	sw	a0,0(a4)
    7f70:	d9fd                	beqz	a1,7f66 <_printf_i+0x10e>
    7f72:	0007d783          	lhu	a5,0(a5)
    7f76:	06f00713          	li	a4,111
    7f7a:	0ce68b63          	beq	a3,a4,8050 <_printf_i+0x1f8>
    7f7e:	00001697          	auipc	a3,0x1
    7f82:	6e668693          	addi	a3,a3,1766 # 9664 <__clz_tab+0x154>
    7f86:	4729                	li	a4,10
    7f88:	040401a3          	sb	zero,67(s0)
    7f8c:	404c                	lw	a1,4(s0)
    7f8e:	c40c                	sw	a1,8(s0)
    7f90:	0005c563          	bltz	a1,7f9a <_printf_i+0x142>
    7f94:	4008                	lw	a0,0(s0)
    7f96:	996d                	andi	a0,a0,-5
    7f98:	c008                	sw	a0,0(s0)
    7f9a:	e399                	bnez	a5,7fa0 <_printf_i+0x148>
    7f9c:	8ab2                	mv	s5,a2
    7f9e:	cd91                	beqz	a1,7fba <_printf_i+0x162>
    7fa0:	8ab2                	mv	s5,a2
    7fa2:	02e7f5b3          	remu	a1,a5,a4
    7fa6:	1afd                	addi	s5,s5,-1
    7fa8:	95b6                	add	a1,a1,a3
    7faa:	0005c583          	lbu	a1,0(a1)
    7fae:	00ba8023          	sb	a1,0(s5)
    7fb2:	02e7d5b3          	divu	a1,a5,a4
    7fb6:	0ae7f363          	bgeu	a5,a4,805c <_printf_i+0x204>
    7fba:	47a1                	li	a5,8
    7fbc:	00f71e63          	bne	a4,a5,7fd8 <_printf_i+0x180>
    7fc0:	401c                	lw	a5,0(s0)
    7fc2:	8b85                	andi	a5,a5,1
    7fc4:	cb91                	beqz	a5,7fd8 <_printf_i+0x180>
    7fc6:	4058                	lw	a4,4(s0)
    7fc8:	481c                	lw	a5,16(s0)
    7fca:	00e7c763          	blt	a5,a4,7fd8 <_printf_i+0x180>
    7fce:	03000793          	li	a5,48
    7fd2:	fefa8fa3          	sb	a5,-1(s5)
    7fd6:	1afd                	addi	s5,s5,-1
    7fd8:	41560633          	sub	a2,a2,s5
    7fdc:	c810                	sw	a2,16(s0)
    7fde:	874e                	mv	a4,s3
    7fe0:	86ca                	mv	a3,s2
    7fe2:	0070                	addi	a2,sp,12
    7fe4:	85a2                	mv	a1,s0
    7fe6:	8526                	mv	a0,s1
    7fe8:	d65ff0ef          	jal	ra,7d4c <_printf_common>
    7fec:	5a7d                	li	s4,-1
    7fee:	0d451463          	bne	a0,s4,80b6 <_printf_i+0x25e>
    7ff2:	557d                	li	a0,-1
    7ff4:	50b2                	lw	ra,44(sp)
    7ff6:	5422                	lw	s0,40(sp)
    7ff8:	5492                	lw	s1,36(sp)
    7ffa:	5902                	lw	s2,32(sp)
    7ffc:	49f2                	lw	s3,28(sp)
    7ffe:	4a62                	lw	s4,24(sp)
    8000:	4ad2                	lw	s5,20(sp)
    8002:	4b42                	lw	s6,16(sp)
    8004:	6145                	addi	sp,sp,48
    8006:	8082                	ret
    8008:	04d582a3          	sb	a3,69(a1)
    800c:	00001697          	auipc	a3,0x1
    8010:	65868693          	addi	a3,a3,1624 # 9664 <__clz_tab+0x154>
    8014:	400c                	lw	a1,0(s0)
    8016:	4308                	lw	a0,0(a4)
    8018:	0805f813          	andi	a6,a1,128
    801c:	411c                	lw	a5,0(a0)
    801e:	0511                	addi	a0,a0,4
    8020:	02080063          	beqz	a6,8040 <_printf_i+0x1e8>
    8024:	c308                	sw	a0,0(a4)
    8026:	0015f713          	andi	a4,a1,1
    802a:	c701                	beqz	a4,8032 <_printf_i+0x1da>
    802c:	0205e593          	ori	a1,a1,32
    8030:	c00c                	sw	a1,0(s0)
    8032:	4741                	li	a4,16
    8034:	fbb1                	bnez	a5,7f88 <_printf_i+0x130>
    8036:	400c                	lw	a1,0(s0)
    8038:	fdf5f593          	andi	a1,a1,-33
    803c:	c00c                	sw	a1,0(s0)
    803e:	b7a9                	j	7f88 <_printf_i+0x130>
    8040:	0405f813          	andi	a6,a1,64
    8044:	c308                	sw	a0,0(a4)
    8046:	fe0800e3          	beqz	a6,8026 <_printf_i+0x1ce>
    804a:	07c2                	slli	a5,a5,0x10
    804c:	83c1                	srli	a5,a5,0x10
    804e:	bfe1                	j	8026 <_printf_i+0x1ce>
    8050:	00001697          	auipc	a3,0x1
    8054:	61468693          	addi	a3,a3,1556 # 9664 <__clz_tab+0x154>
    8058:	4721                	li	a4,8
    805a:	b73d                	j	7f88 <_printf_i+0x130>
    805c:	87ae                	mv	a5,a1
    805e:	b791                	j	7fa2 <_printf_i+0x14a>
    8060:	4194                	lw	a3,0(a1)
    8062:	431c                	lw	a5,0(a4)
    8064:	49cc                	lw	a1,20(a1)
    8066:	0806f813          	andi	a6,a3,128
    806a:	00478513          	addi	a0,a5,4
    806e:	00080663          	beqz	a6,807a <_printf_i+0x222>
    8072:	c308                	sw	a0,0(a4)
    8074:	439c                	lw	a5,0(a5)
    8076:	c38c                	sw	a1,0(a5)
    8078:	a801                	j	8088 <_printf_i+0x230>
    807a:	c308                	sw	a0,0(a4)
    807c:	0406f693          	andi	a3,a3,64
    8080:	439c                	lw	a5,0(a5)
    8082:	daf5                	beqz	a3,8076 <_printf_i+0x21e>
    8084:	00b79023          	sh	a1,0(a5)
    8088:	00042823          	sw	zero,16(s0)
    808c:	8ab2                	mv	s5,a2
    808e:	bf81                	j	7fde <_printf_i+0x186>
    8090:	431c                	lw	a5,0(a4)
    8092:	41d0                	lw	a2,4(a1)
    8094:	4581                	li	a1,0
    8096:	00478693          	addi	a3,a5,4
    809a:	c314                	sw	a3,0(a4)
    809c:	0007aa83          	lw	s5,0(a5)
    80a0:	8556                	mv	a0,s5
    80a2:	2dfd                	jal	87a0 <memchr>
    80a4:	c501                	beqz	a0,80ac <_printf_i+0x254>
    80a6:	41550533          	sub	a0,a0,s5
    80aa:	c048                	sw	a0,4(s0)
    80ac:	405c                	lw	a5,4(s0)
    80ae:	c81c                	sw	a5,16(s0)
    80b0:	040401a3          	sb	zero,67(s0)
    80b4:	b72d                	j	7fde <_printf_i+0x186>
    80b6:	4814                	lw	a3,16(s0)
    80b8:	8656                	mv	a2,s5
    80ba:	85ca                	mv	a1,s2
    80bc:	8526                	mv	a0,s1
    80be:	9982                	jalr	s3
    80c0:	f34509e3          	beq	a0,s4,7ff2 <_printf_i+0x19a>
    80c4:	401c                	lw	a5,0(s0)
    80c6:	8b89                	andi	a5,a5,2
    80c8:	e78d                	bnez	a5,80f2 <_printf_i+0x29a>
    80ca:	47b2                	lw	a5,12(sp)
    80cc:	4448                	lw	a0,12(s0)
    80ce:	f2f553e3          	bge	a0,a5,7ff4 <_printf_i+0x19c>
    80d2:	853e                	mv	a0,a5
    80d4:	b705                	j	7ff4 <_printf_i+0x19c>
    80d6:	4685                	li	a3,1
    80d8:	8656                	mv	a2,s5
    80da:	85ca                	mv	a1,s2
    80dc:	8526                	mv	a0,s1
    80de:	9982                	jalr	s3
    80e0:	f16509e3          	beq	a0,s6,7ff2 <_printf_i+0x19a>
    80e4:	0a05                	addi	s4,s4,1
    80e6:	445c                	lw	a5,12(s0)
    80e8:	4732                	lw	a4,12(sp)
    80ea:	8f99                	sub	a5,a5,a4
    80ec:	fefa45e3          	blt	s4,a5,80d6 <_printf_i+0x27e>
    80f0:	bfe9                	j	80ca <_printf_i+0x272>
    80f2:	4a01                	li	s4,0
    80f4:	01940a93          	addi	s5,s0,25
    80f8:	5b7d                	li	s6,-1
    80fa:	b7f5                	j	80e6 <_printf_i+0x28e>

000080fc <__swbuf_r>:
__swbuf_r():
    80fc:	1101                	addi	sp,sp,-32
    80fe:	cc22                	sw	s0,24(sp)
    8100:	ca26                	sw	s1,20(sp)
    8102:	c84a                	sw	s2,16(sp)
    8104:	ce06                	sw	ra,28(sp)
    8106:	c64e                	sw	s3,12(sp)
    8108:	84aa                	mv	s1,a0
    810a:	892e                	mv	s2,a1
    810c:	8432                	mv	s0,a2
    810e:	c501                	beqz	a0,8116 <__swbuf_r+0x1a>
    8110:	4d1c                	lw	a5,24(a0)
    8112:	e391                	bnez	a5,8116 <__swbuf_r+0x1a>
    8114:	2939                	jal	8532 <__sinit>
    8116:	00001797          	auipc	a5,0x1
    811a:	59678793          	addi	a5,a5,1430 # 96ac <__sf_fake_stdin>
    811e:	06f41963          	bne	s0,a5,8190 <__swbuf_r+0x94>
    8122:	40c0                	lw	s0,4(s1)
    8124:	4c1c                	lw	a5,24(s0)
    8126:	c41c                	sw	a5,8(s0)
    8128:	00c45783          	lhu	a5,12(s0)
    812c:	8ba1                	andi	a5,a5,8
    812e:	c3c9                	beqz	a5,81b0 <__swbuf_r+0xb4>
    8130:	481c                	lw	a5,16(s0)
    8132:	cfbd                	beqz	a5,81b0 <__swbuf_r+0xb4>
    8134:	481c                	lw	a5,16(s0)
    8136:	4008                	lw	a0,0(s0)
    8138:	0ff97993          	andi	s3,s2,255
    813c:	0ff97913          	andi	s2,s2,255
    8140:	8d1d                	sub	a0,a0,a5
    8142:	485c                	lw	a5,20(s0)
    8144:	00f54663          	blt	a0,a5,8150 <__swbuf_r+0x54>
    8148:	85a2                	mv	a1,s0
    814a:	8526                	mv	a0,s1
    814c:	24d9                	jal	8412 <_fflush_r>
    814e:	e52d                	bnez	a0,81b8 <__swbuf_r+0xbc>
    8150:	441c                	lw	a5,8(s0)
    8152:	0505                	addi	a0,a0,1
    8154:	17fd                	addi	a5,a5,-1
    8156:	c41c                	sw	a5,8(s0)
    8158:	401c                	lw	a5,0(s0)
    815a:	00178713          	addi	a4,a5,1
    815e:	c018                	sw	a4,0(s0)
    8160:	01378023          	sb	s3,0(a5)
    8164:	485c                	lw	a5,20(s0)
    8166:	00a78963          	beq	a5,a0,8178 <__swbuf_r+0x7c>
    816a:	00c45783          	lhu	a5,12(s0)
    816e:	8b85                	andi	a5,a5,1
    8170:	cb81                	beqz	a5,8180 <__swbuf_r+0x84>
    8172:	47a9                	li	a5,10
    8174:	00f91663          	bne	s2,a5,8180 <__swbuf_r+0x84>
    8178:	85a2                	mv	a1,s0
    817a:	8526                	mv	a0,s1
    817c:	2c59                	jal	8412 <_fflush_r>
    817e:	ed0d                	bnez	a0,81b8 <__swbuf_r+0xbc>
    8180:	40f2                	lw	ra,28(sp)
    8182:	4462                	lw	s0,24(sp)
    8184:	854a                	mv	a0,s2
    8186:	44d2                	lw	s1,20(sp)
    8188:	4942                	lw	s2,16(sp)
    818a:	49b2                	lw	s3,12(sp)
    818c:	6105                	addi	sp,sp,32
    818e:	8082                	ret
    8190:	00001797          	auipc	a5,0x1
    8194:	53c78793          	addi	a5,a5,1340 # 96cc <__sf_fake_stdout>
    8198:	00f41463          	bne	s0,a5,81a0 <__swbuf_r+0xa4>
    819c:	4480                	lw	s0,8(s1)
    819e:	b759                	j	8124 <__swbuf_r+0x28>
    81a0:	00001797          	auipc	a5,0x1
    81a4:	4ec78793          	addi	a5,a5,1260 # 968c <__sf_fake_stderr>
    81a8:	f6f41ee3          	bne	s0,a5,8124 <__swbuf_r+0x28>
    81ac:	44c0                	lw	s0,12(s1)
    81ae:	bf9d                	j	8124 <__swbuf_r+0x28>
    81b0:	85a2                	mv	a1,s0
    81b2:	8526                	mv	a0,s1
    81b4:	2021                	jal	81bc <__swsetup_r>
    81b6:	dd3d                	beqz	a0,8134 <__swbuf_r+0x38>
    81b8:	597d                	li	s2,-1
    81ba:	b7d9                	j	8180 <__swbuf_r+0x84>

000081bc <__swsetup_r>:
__swsetup_r():
    81bc:	1141                	addi	sp,sp,-16
    81be:	80818793          	addi	a5,gp,-2040 # 20000078 <_impure_ptr>
    81c2:	c226                	sw	s1,4(sp)
    81c4:	4384                	lw	s1,0(a5)
    81c6:	c422                	sw	s0,8(sp)
    81c8:	c04a                	sw	s2,0(sp)
    81ca:	c606                	sw	ra,12(sp)
    81cc:	892a                	mv	s2,a0
    81ce:	842e                	mv	s0,a1
    81d0:	c489                	beqz	s1,81da <__swsetup_r+0x1e>
    81d2:	4c9c                	lw	a5,24(s1)
    81d4:	e399                	bnez	a5,81da <__swsetup_r+0x1e>
    81d6:	8526                	mv	a0,s1
    81d8:	2ea9                	jal	8532 <__sinit>
    81da:	00001797          	auipc	a5,0x1
    81de:	4d278793          	addi	a5,a5,1234 # 96ac <__sf_fake_stdin>
    81e2:	02f41c63          	bne	s0,a5,821a <__swsetup_r+0x5e>
    81e6:	40c0                	lw	s0,4(s1)
    81e8:	00c41703          	lh	a4,12(s0)
    81ec:	01071793          	slli	a5,a4,0x10
    81f0:	83c1                	srli	a5,a5,0x10
    81f2:	0087f693          	andi	a3,a5,8
    81f6:	eeb5                	bnez	a3,8272 <__swsetup_r+0xb6>
    81f8:	0107f693          	andi	a3,a5,16
    81fc:	ee9d                	bnez	a3,823a <__swsetup_r+0x7e>
    81fe:	47a5                	li	a5,9
    8200:	00f92023          	sw	a5,0(s2)
    8204:	04076713          	ori	a4,a4,64
    8208:	00e41623          	sh	a4,12(s0)
    820c:	557d                	li	a0,-1
    820e:	40b2                	lw	ra,12(sp)
    8210:	4422                	lw	s0,8(sp)
    8212:	4492                	lw	s1,4(sp)
    8214:	4902                	lw	s2,0(sp)
    8216:	0141                	addi	sp,sp,16
    8218:	8082                	ret
    821a:	00001797          	auipc	a5,0x1
    821e:	4b278793          	addi	a5,a5,1202 # 96cc <__sf_fake_stdout>
    8222:	00f41463          	bne	s0,a5,822a <__swsetup_r+0x6e>
    8226:	4480                	lw	s0,8(s1)
    8228:	b7c1                	j	81e8 <__swsetup_r+0x2c>
    822a:	00001797          	auipc	a5,0x1
    822e:	46278793          	addi	a5,a5,1122 # 968c <__sf_fake_stderr>
    8232:	faf41be3          	bne	s0,a5,81e8 <__swsetup_r+0x2c>
    8236:	44c0                	lw	s0,12(s1)
    8238:	bf45                	j	81e8 <__swsetup_r+0x2c>
    823a:	8b91                	andi	a5,a5,4
    823c:	c78d                	beqz	a5,8266 <__swsetup_r+0xaa>
    823e:	584c                	lw	a1,52(s0)
    8240:	c989                	beqz	a1,8252 <__swsetup_r+0x96>
    8242:	04440793          	addi	a5,s0,68
    8246:	00f58463          	beq	a1,a5,824e <__swsetup_r+0x92>
    824a:	854a                	mv	a0,s2
    824c:	23bd                	jal	87ba <_free_r>
    824e:	02042a23          	sw	zero,52(s0)
    8252:	00c45783          	lhu	a5,12(s0)
    8256:	00042223          	sw	zero,4(s0)
    825a:	fdb7f793          	andi	a5,a5,-37
    825e:	00f41623          	sh	a5,12(s0)
    8262:	481c                	lw	a5,16(s0)
    8264:	c01c                	sw	a5,0(s0)
    8266:	00c45783          	lhu	a5,12(s0)
    826a:	0087e793          	ori	a5,a5,8
    826e:	00f41623          	sh	a5,12(s0)
    8272:	481c                	lw	a5,16(s0)
    8274:	ef81                	bnez	a5,828c <__swsetup_r+0xd0>
    8276:	00c45783          	lhu	a5,12(s0)
    827a:	20000713          	li	a4,512
    827e:	2807f793          	andi	a5,a5,640
    8282:	00e78563          	beq	a5,a4,828c <__swsetup_r+0xd0>
    8286:	85a2                	mv	a1,s0
    8288:	854a                	mv	a0,s2
    828a:	29a5                	jal	8702 <__smakebuf_r>
    828c:	00c45783          	lhu	a5,12(s0)
    8290:	0017f713          	andi	a4,a5,1
    8294:	c705                	beqz	a4,82bc <__swsetup_r+0x100>
    8296:	485c                	lw	a5,20(s0)
    8298:	00042423          	sw	zero,8(s0)
    829c:	40f007b3          	neg	a5,a5
    82a0:	cc1c                	sw	a5,24(s0)
    82a2:	481c                	lw	a5,16(s0)
    82a4:	4501                	li	a0,0
    82a6:	f7a5                	bnez	a5,820e <__swsetup_r+0x52>
    82a8:	00c41783          	lh	a5,12(s0)
    82ac:	0807f713          	andi	a4,a5,128
    82b0:	df39                	beqz	a4,820e <__swsetup_r+0x52>
    82b2:	0407e793          	ori	a5,a5,64
    82b6:	00f41623          	sh	a5,12(s0)
    82ba:	bf89                	j	820c <__swsetup_r+0x50>
    82bc:	8b89                	andi	a5,a5,2
    82be:	4701                	li	a4,0
    82c0:	e391                	bnez	a5,82c4 <__swsetup_r+0x108>
    82c2:	4858                	lw	a4,20(s0)
    82c4:	c418                	sw	a4,8(s0)
    82c6:	bff1                	j	82a2 <__swsetup_r+0xe6>

000082c8 <abort>:
abort():
    82c8:	1141                	addi	sp,sp,-16
    82ca:	4519                	li	a0,6
    82cc:	c606                	sw	ra,12(sp)
    82ce:	25e5                	jal	89b6 <raise>
    82d0:	4505                	li	a0,1
    82d2:	14f000ef          	jal	ra,8c20 <_exit>

000082d6 <__sflush_r>:
__sflush_r():
    82d6:	00c5d783          	lhu	a5,12(a1)
    82da:	1101                	addi	sp,sp,-32
    82dc:	cc22                	sw	s0,24(sp)
    82de:	ca26                	sw	s1,20(sp)
    82e0:	ce06                	sw	ra,28(sp)
    82e2:	c84a                	sw	s2,16(sp)
    82e4:	c64e                	sw	s3,12(sp)
    82e6:	0087f713          	andi	a4,a5,8
    82ea:	84aa                	mv	s1,a0
    82ec:	842e                	mv	s0,a1
    82ee:	ef71                	bnez	a4,83ca <__sflush_r+0xf4>
    82f0:	41d8                	lw	a4,4(a1)
    82f2:	00e04d63          	bgtz	a4,830c <__sflush_r+0x36>
    82f6:	41b8                	lw	a4,64(a1)
    82f8:	00e04a63          	bgtz	a4,830c <__sflush_r+0x36>
    82fc:	4501                	li	a0,0
    82fe:	40f2                	lw	ra,28(sp)
    8300:	4462                	lw	s0,24(sp)
    8302:	44d2                	lw	s1,20(sp)
    8304:	4942                	lw	s2,16(sp)
    8306:	49b2                	lw	s3,12(sp)
    8308:	6105                	addi	sp,sp,32
    830a:	8082                	ret
    830c:	5458                	lw	a4,44(s0)
    830e:	d77d                	beqz	a4,82fc <__sflush_r+0x26>
    8310:	0004a903          	lw	s2,0(s1)
    8314:	01379693          	slli	a3,a5,0x13
    8318:	0004a023          	sw	zero,0(s1)
    831c:	0606dd63          	bgez	a3,8396 <__sflush_r+0xc0>
    8320:	4870                	lw	a2,84(s0)
    8322:	00c45783          	lhu	a5,12(s0)
    8326:	8b91                	andi	a5,a5,4
    8328:	c799                	beqz	a5,8336 <__sflush_r+0x60>
    832a:	405c                	lw	a5,4(s0)
    832c:	8e1d                	sub	a2,a2,a5
    832e:	585c                	lw	a5,52(s0)
    8330:	c399                	beqz	a5,8336 <__sflush_r+0x60>
    8332:	403c                	lw	a5,64(s0)
    8334:	8e1d                	sub	a2,a2,a5
    8336:	545c                	lw	a5,44(s0)
    8338:	500c                	lw	a1,32(s0)
    833a:	4681                	li	a3,0
    833c:	8526                	mv	a0,s1
    833e:	9782                	jalr	a5
    8340:	57fd                	li	a5,-1
    8342:	00c45703          	lhu	a4,12(s0)
    8346:	00f51d63          	bne	a0,a5,8360 <__sflush_r+0x8a>
    834a:	4094                	lw	a3,0(s1)
    834c:	47f5                	li	a5,29
    834e:	06d7e863          	bltu	a5,a3,83be <__sflush_r+0xe8>
    8352:	204007b7          	lui	a5,0x20400
    8356:	0785                	addi	a5,a5,1
    8358:	00d7d7b3          	srl	a5,a5,a3
    835c:	8b85                	andi	a5,a5,1
    835e:	c3a5                	beqz	a5,83be <__sflush_r+0xe8>
    8360:	481c                	lw	a5,16(s0)
    8362:	00042223          	sw	zero,4(s0)
    8366:	c01c                	sw	a5,0(s0)
    8368:	01371793          	slli	a5,a4,0x13
    836c:	0007d863          	bgez	a5,837c <__sflush_r+0xa6>
    8370:	57fd                	li	a5,-1
    8372:	00f51463          	bne	a0,a5,837a <__sflush_r+0xa4>
    8376:	409c                	lw	a5,0(s1)
    8378:	e391                	bnez	a5,837c <__sflush_r+0xa6>
    837a:	c868                	sw	a0,84(s0)
    837c:	584c                	lw	a1,52(s0)
    837e:	0124a023          	sw	s2,0(s1)
    8382:	ddad                	beqz	a1,82fc <__sflush_r+0x26>
    8384:	04440793          	addi	a5,s0,68
    8388:	00f58463          	beq	a1,a5,8390 <__sflush_r+0xba>
    838c:	8526                	mv	a0,s1
    838e:	2135                	jal	87ba <_free_r>
    8390:	02042a23          	sw	zero,52(s0)
    8394:	b7a5                	j	82fc <__sflush_r+0x26>
    8396:	500c                	lw	a1,32(s0)
    8398:	4601                	li	a2,0
    839a:	4685                	li	a3,1
    839c:	8526                	mv	a0,s1
    839e:	9702                	jalr	a4
    83a0:	57fd                	li	a5,-1
    83a2:	862a                	mv	a2,a0
    83a4:	f6f51fe3          	bne	a0,a5,8322 <__sflush_r+0x4c>
    83a8:	409c                	lw	a5,0(s1)
    83aa:	dfa5                	beqz	a5,8322 <__sflush_r+0x4c>
    83ac:	4775                	li	a4,29
    83ae:	00e78563          	beq	a5,a4,83b8 <__sflush_r+0xe2>
    83b2:	4759                	li	a4,22
    83b4:	04e79463          	bne	a5,a4,83fc <__sflush_r+0x126>
    83b8:	0124a023          	sw	s2,0(s1)
    83bc:	b781                	j	82fc <__sflush_r+0x26>
    83be:	04076713          	ori	a4,a4,64
    83c2:	00e41623          	sh	a4,12(s0)
    83c6:	557d                	li	a0,-1
    83c8:	bf1d                	j	82fe <__sflush_r+0x28>
    83ca:	0105a983          	lw	s3,16(a1)
    83ce:	f20987e3          	beqz	s3,82fc <__sflush_r+0x26>
    83d2:	0005a903          	lw	s2,0(a1)
    83d6:	8b8d                	andi	a5,a5,3
    83d8:	0135a023          	sw	s3,0(a1)
    83dc:	41390933          	sub	s2,s2,s3
    83e0:	4701                	li	a4,0
    83e2:	e391                	bnez	a5,83e6 <__sflush_r+0x110>
    83e4:	49d8                	lw	a4,20(a1)
    83e6:	c418                	sw	a4,8(s0)
    83e8:	f1205ae3          	blez	s2,82fc <__sflush_r+0x26>
    83ec:	541c                	lw	a5,40(s0)
    83ee:	500c                	lw	a1,32(s0)
    83f0:	86ca                	mv	a3,s2
    83f2:	864e                	mv	a2,s3
    83f4:	8526                	mv	a0,s1
    83f6:	9782                	jalr	a5
    83f8:	00a04963          	bgtz	a0,840a <__sflush_r+0x134>
    83fc:	00c45783          	lhu	a5,12(s0)
    8400:	0407e793          	ori	a5,a5,64
    8404:	00f41623          	sh	a5,12(s0)
    8408:	bf7d                	j	83c6 <__sflush_r+0xf0>
    840a:	99aa                	add	s3,s3,a0
    840c:	40a90933          	sub	s2,s2,a0
    8410:	bfe1                	j	83e8 <__sflush_r+0x112>

00008412 <_fflush_r>:
_fflush_r():
    8412:	499c                	lw	a5,16(a1)
    8414:	c3a5                	beqz	a5,8474 <_fflush_r+0x62>
    8416:	1101                	addi	sp,sp,-32
    8418:	cc22                	sw	s0,24(sp)
    841a:	ce06                	sw	ra,28(sp)
    841c:	842a                	mv	s0,a0
    841e:	c511                	beqz	a0,842a <_fflush_r+0x18>
    8420:	4d1c                	lw	a5,24(a0)
    8422:	e781                	bnez	a5,842a <_fflush_r+0x18>
    8424:	c62e                	sw	a1,12(sp)
    8426:	2231                	jal	8532 <__sinit>
    8428:	45b2                	lw	a1,12(sp)
    842a:	00001797          	auipc	a5,0x1
    842e:	28278793          	addi	a5,a5,642 # 96ac <__sf_fake_stdin>
    8432:	00f59c63          	bne	a1,a5,844a <_fflush_r+0x38>
    8436:	404c                	lw	a1,4(s0)
    8438:	00c59783          	lh	a5,12(a1)
    843c:	c79d                	beqz	a5,846a <_fflush_r+0x58>
    843e:	8522                	mv	a0,s0
    8440:	4462                	lw	s0,24(sp)
    8442:	40f2                	lw	ra,28(sp)
    8444:	6105                	addi	sp,sp,32
    8446:	e91ff06f          	j	82d6 <__sflush_r>
    844a:	00001797          	auipc	a5,0x1
    844e:	28278793          	addi	a5,a5,642 # 96cc <__sf_fake_stdout>
    8452:	00f59463          	bne	a1,a5,845a <_fflush_r+0x48>
    8456:	440c                	lw	a1,8(s0)
    8458:	b7c5                	j	8438 <_fflush_r+0x26>
    845a:	00001797          	auipc	a5,0x1
    845e:	23278793          	addi	a5,a5,562 # 968c <__sf_fake_stderr>
    8462:	fcf59be3          	bne	a1,a5,8438 <_fflush_r+0x26>
    8466:	444c                	lw	a1,12(s0)
    8468:	bfc1                	j	8438 <_fflush_r+0x26>
    846a:	40f2                	lw	ra,28(sp)
    846c:	4462                	lw	s0,24(sp)
    846e:	4501                	li	a0,0
    8470:	6105                	addi	sp,sp,32
    8472:	8082                	ret
    8474:	4501                	li	a0,0
    8476:	8082                	ret

00008478 <std>:
std():
    8478:	1141                	addi	sp,sp,-16
    847a:	c422                	sw	s0,8(sp)
    847c:	c606                	sw	ra,12(sp)
    847e:	842a                	mv	s0,a0
    8480:	00b51623          	sh	a1,12(a0)
    8484:	00c51723          	sh	a2,14(a0)
    8488:	00052023          	sw	zero,0(a0)
    848c:	00052223          	sw	zero,4(a0)
    8490:	00052423          	sw	zero,8(a0)
    8494:	06052223          	sw	zero,100(a0)
    8498:	00052823          	sw	zero,16(a0)
    849c:	00052a23          	sw	zero,20(a0)
    84a0:	00052c23          	sw	zero,24(a0)
    84a4:	4621                	li	a2,8
    84a6:	4581                	li	a1,0
    84a8:	05c50513          	addi	a0,a0,92
    84ac:	c95f70ef          	jal	ra,140 <memset>
    84b0:	00000797          	auipc	a5,0x0
    84b4:	53e78793          	addi	a5,a5,1342 # 89ee <__sread>
    84b8:	d05c                	sw	a5,36(s0)
    84ba:	00000797          	auipc	a5,0x0
    84be:	56478793          	addi	a5,a5,1380 # 8a1e <__swrite>
    84c2:	d41c                	sw	a5,40(s0)
    84c4:	00000797          	auipc	a5,0x0
    84c8:	5a878793          	addi	a5,a5,1448 # 8a6c <__sseek>
    84cc:	d45c                	sw	a5,44(s0)
    84ce:	00000797          	auipc	a5,0x0
    84d2:	5d478793          	addi	a5,a5,1492 # 8aa2 <__sclose>
    84d6:	d000                	sw	s0,32(s0)
    84d8:	d81c                	sw	a5,48(s0)
    84da:	40b2                	lw	ra,12(sp)
    84dc:	4422                	lw	s0,8(sp)
    84de:	0141                	addi	sp,sp,16
    84e0:	8082                	ret

000084e2 <_cleanup_r>:
_cleanup_r():
    84e2:	00000597          	auipc	a1,0x0
    84e6:	f3058593          	addi	a1,a1,-208 # 8412 <_fflush_r>
    84ea:	aa91                	j	863e <_fwalk_reent>

000084ec <__sfmoreglue>:
__sfmoreglue():
    84ec:	1141                	addi	sp,sp,-16
    84ee:	c226                	sw	s1,4(sp)
    84f0:	06800613          	li	a2,104
    84f4:	fff58493          	addi	s1,a1,-1
    84f8:	02c484b3          	mul	s1,s1,a2
    84fc:	c04a                	sw	s2,0(sp)
    84fe:	892e                	mv	s2,a1
    8500:	c422                	sw	s0,8(sp)
    8502:	c606                	sw	ra,12(sp)
    8504:	07448593          	addi	a1,s1,116
    8508:	2e99                	jal	885e <_malloc_r>
    850a:	842a                	mv	s0,a0
    850c:	cd01                	beqz	a0,8524 <__sfmoreglue+0x38>
    850e:	00052023          	sw	zero,0(a0)
    8512:	01252223          	sw	s2,4(a0)
    8516:	0531                	addi	a0,a0,12
    8518:	c408                	sw	a0,8(s0)
    851a:	06848613          	addi	a2,s1,104
    851e:	4581                	li	a1,0
    8520:	c21f70ef          	jal	ra,140 <memset>
    8524:	8522                	mv	a0,s0
    8526:	40b2                	lw	ra,12(sp)
    8528:	4422                	lw	s0,8(sp)
    852a:	4492                	lw	s1,4(sp)
    852c:	4902                	lw	s2,0(sp)
    852e:	0141                	addi	sp,sp,16
    8530:	8082                	ret

00008532 <__sinit>:
__sinit():
    8532:	4d1c                	lw	a5,24(a0)
    8534:	e7a5                	bnez	a5,859c <__sinit+0x6a>
    8536:	1141                	addi	sp,sp,-16
    8538:	c606                	sw	ra,12(sp)
    853a:	c422                	sw	s0,8(sp)
    853c:	00000797          	auipc	a5,0x0
    8540:	fa678793          	addi	a5,a5,-90 # 84e2 <_cleanup_r>
    8544:	d51c                	sw	a5,40(a0)
    8546:	81418793          	addi	a5,gp,-2028 # 20000084 <_global_impure_ptr>
    854a:	439c                	lw	a5,0(a5)
    854c:	04052423          	sw	zero,72(a0)
    8550:	04052623          	sw	zero,76(a0)
    8554:	04052823          	sw	zero,80(a0)
    8558:	00f51463          	bne	a0,a5,8560 <__sinit+0x2e>
    855c:	4785                	li	a5,1
    855e:	cd1c                	sw	a5,24(a0)
    8560:	842a                	mv	s0,a0
    8562:	2835                	jal	859e <__sfp>
    8564:	c048                	sw	a0,4(s0)
    8566:	8522                	mv	a0,s0
    8568:	281d                	jal	859e <__sfp>
    856a:	c408                	sw	a0,8(s0)
    856c:	8522                	mv	a0,s0
    856e:	2805                	jal	859e <__sfp>
    8570:	c448                	sw	a0,12(s0)
    8572:	4048                	lw	a0,4(s0)
    8574:	4601                	li	a2,0
    8576:	4591                	li	a1,4
    8578:	f01ff0ef          	jal	ra,8478 <std>
    857c:	4408                	lw	a0,8(s0)
    857e:	4605                	li	a2,1
    8580:	45a5                	li	a1,9
    8582:	ef7ff0ef          	jal	ra,8478 <std>
    8586:	4448                	lw	a0,12(s0)
    8588:	4609                	li	a2,2
    858a:	45c9                	li	a1,18
    858c:	eedff0ef          	jal	ra,8478 <std>
    8590:	4785                	li	a5,1
    8592:	cc1c                	sw	a5,24(s0)
    8594:	40b2                	lw	ra,12(sp)
    8596:	4422                	lw	s0,8(sp)
    8598:	0141                	addi	sp,sp,16
    859a:	8082                	ret
    859c:	8082                	ret

0000859e <__sfp>:
__sfp():
    859e:	1141                	addi	sp,sp,-16
    85a0:	81418793          	addi	a5,gp,-2028 # 20000084 <_global_impure_ptr>
    85a4:	c226                	sw	s1,4(sp)
    85a6:	4384                	lw	s1,0(a5)
    85a8:	c04a                	sw	s2,0(sp)
    85aa:	c606                	sw	ra,12(sp)
    85ac:	4c9c                	lw	a5,24(s1)
    85ae:	c422                	sw	s0,8(sp)
    85b0:	892a                	mv	s2,a0
    85b2:	e781                	bnez	a5,85ba <__sfp+0x1c>
    85b4:	8526                	mv	a0,s1
    85b6:	f7dff0ef          	jal	ra,8532 <__sinit>
    85ba:	04848493          	addi	s1,s1,72
    85be:	4480                	lw	s0,8(s1)
    85c0:	40dc                	lw	a5,4(s1)
    85c2:	17fd                	addi	a5,a5,-1
    85c4:	0007d663          	bgez	a5,85d0 <__sfp+0x32>
    85c8:	409c                	lw	a5,0(s1)
    85ca:	cfb9                	beqz	a5,8628 <__sfp+0x8a>
    85cc:	4084                	lw	s1,0(s1)
    85ce:	bfc5                	j	85be <__sfp+0x20>
    85d0:	00c41703          	lh	a4,12(s0)
    85d4:	e739                	bnez	a4,8622 <__sfp+0x84>
    85d6:	77c1                	lui	a5,0xffff0
    85d8:	0785                	addi	a5,a5,1
    85da:	06042223          	sw	zero,100(s0)
    85de:	00042023          	sw	zero,0(s0)
    85e2:	00042223          	sw	zero,4(s0)
    85e6:	00042423          	sw	zero,8(s0)
    85ea:	c45c                	sw	a5,12(s0)
    85ec:	00042823          	sw	zero,16(s0)
    85f0:	00042a23          	sw	zero,20(s0)
    85f4:	00042c23          	sw	zero,24(s0)
    85f8:	4621                	li	a2,8
    85fa:	4581                	li	a1,0
    85fc:	05c40513          	addi	a0,s0,92
    8600:	b41f70ef          	jal	ra,140 <memset>
    8604:	02042a23          	sw	zero,52(s0)
    8608:	02042c23          	sw	zero,56(s0)
    860c:	04042423          	sw	zero,72(s0)
    8610:	04042623          	sw	zero,76(s0)
    8614:	8522                	mv	a0,s0
    8616:	40b2                	lw	ra,12(sp)
    8618:	4422                	lw	s0,8(sp)
    861a:	4492                	lw	s1,4(sp)
    861c:	4902                	lw	s2,0(sp)
    861e:	0141                	addi	sp,sp,16
    8620:	8082                	ret
    8622:	06840413          	addi	s0,s0,104
    8626:	bf71                	j	85c2 <__sfp+0x24>
    8628:	4591                	li	a1,4
    862a:	854a                	mv	a0,s2
    862c:	ec1ff0ef          	jal	ra,84ec <__sfmoreglue>
    8630:	c088                	sw	a0,0(s1)
    8632:	fd49                	bnez	a0,85cc <__sfp+0x2e>
    8634:	47b1                	li	a5,12
    8636:	00f92023          	sw	a5,0(s2)
    863a:	4401                	li	s0,0
    863c:	bfe1                	j	8614 <__sfp+0x76>

0000863e <_fwalk_reent>:
_fwalk_reent():
    863e:	7179                	addi	sp,sp,-48
    8640:	d422                	sw	s0,40(sp)
    8642:	d04a                	sw	s2,32(sp)
    8644:	cc52                	sw	s4,24(sp)
    8646:	ca56                	sw	s5,20(sp)
    8648:	c85a                	sw	s6,16(sp)
    864a:	c65e                	sw	s7,12(sp)
    864c:	d606                	sw	ra,44(sp)
    864e:	d226                	sw	s1,36(sp)
    8650:	ce4e                	sw	s3,28(sp)
    8652:	8a2a                	mv	s4,a0
    8654:	8aae                	mv	s5,a1
    8656:	04850413          	addi	s0,a0,72
    865a:	4901                	li	s2,0
    865c:	4b05                	li	s6,1
    865e:	5bfd                	li	s7,-1
    8660:	ec09                	bnez	s0,867a <_fwalk_reent+0x3c>
    8662:	50b2                	lw	ra,44(sp)
    8664:	5422                	lw	s0,40(sp)
    8666:	854a                	mv	a0,s2
    8668:	5492                	lw	s1,36(sp)
    866a:	5902                	lw	s2,32(sp)
    866c:	49f2                	lw	s3,28(sp)
    866e:	4a62                	lw	s4,24(sp)
    8670:	4ad2                	lw	s5,20(sp)
    8672:	4b42                	lw	s6,16(sp)
    8674:	4bb2                	lw	s7,12(sp)
    8676:	6145                	addi	sp,sp,48
    8678:	8082                	ret
    867a:	4404                	lw	s1,8(s0)
    867c:	00442983          	lw	s3,4(s0)
    8680:	19fd                	addi	s3,s3,-1
    8682:	0009d463          	bgez	s3,868a <_fwalk_reent+0x4c>
    8686:	4000                	lw	s0,0(s0)
    8688:	bfe1                	j	8660 <_fwalk_reent+0x22>
    868a:	00c4d783          	lhu	a5,12(s1)
    868e:	00fb7b63          	bgeu	s6,a5,86a4 <_fwalk_reent+0x66>
    8692:	00e49783          	lh	a5,14(s1)
    8696:	01778763          	beq	a5,s7,86a4 <_fwalk_reent+0x66>
    869a:	85a6                	mv	a1,s1
    869c:	8552                	mv	a0,s4
    869e:	9a82                	jalr	s5
    86a0:	00a96933          	or	s2,s2,a0
    86a4:	06848493          	addi	s1,s1,104
    86a8:	bfe1                	j	8680 <_fwalk_reent+0x42>

000086aa <__swhatbuf_r>:
__swhatbuf_r():
    86aa:	7119                	addi	sp,sp,-128
    86ac:	daa6                	sw	s1,116(sp)
    86ae:	84ae                	mv	s1,a1
    86b0:	00e59583          	lh	a1,14(a1)
    86b4:	dca2                	sw	s0,120(sp)
    86b6:	de86                	sw	ra,124(sp)
    86b8:	8432                	mv	s0,a2
    86ba:	0005dc63          	bgez	a1,86d2 <__swhatbuf_r+0x28>
    86be:	00c4d783          	lhu	a5,12(s1)
    86c2:	0006a023          	sw	zero,0(a3)
    86c6:	0807f793          	andi	a5,a5,128
    86ca:	e39d                	bnez	a5,86f0 <__swhatbuf_r+0x46>
    86cc:	40000793          	li	a5,1024
    86d0:	a015                	j	86f4 <__swhatbuf_r+0x4a>
    86d2:	0830                	addi	a2,sp,24
    86d4:	c636                	sw	a3,12(sp)
    86d6:	2125                	jal	8afe <_fstat_r>
    86d8:	46b2                	lw	a3,12(sp)
    86da:	fe0542e3          	bltz	a0,86be <__swhatbuf_r+0x14>
    86de:	4772                	lw	a4,28(sp)
    86e0:	67bd                	lui	a5,0xf
    86e2:	8ff9                	and	a5,a5,a4
    86e4:	7779                	lui	a4,0xffffe
    86e6:	97ba                	add	a5,a5,a4
    86e8:	0017b793          	seqz	a5,a5
    86ec:	c29c                	sw	a5,0(a3)
    86ee:	bff9                	j	86cc <__swhatbuf_r+0x22>
    86f0:	04000793          	li	a5,64
    86f4:	c01c                	sw	a5,0(s0)
    86f6:	50f6                	lw	ra,124(sp)
    86f8:	5466                	lw	s0,120(sp)
    86fa:	54d6                	lw	s1,116(sp)
    86fc:	4501                	li	a0,0
    86fe:	6109                	addi	sp,sp,128
    8700:	8082                	ret

00008702 <__smakebuf_r>:
__smakebuf_r():
    8702:	00c5d783          	lhu	a5,12(a1)
    8706:	1101                	addi	sp,sp,-32
    8708:	cc22                	sw	s0,24(sp)
    870a:	ce06                	sw	ra,28(sp)
    870c:	ca26                	sw	s1,20(sp)
    870e:	c84a                	sw	s2,16(sp)
    8710:	8b89                	andi	a5,a5,2
    8712:	842e                	mv	s0,a1
    8714:	cf89                	beqz	a5,872e <__smakebuf_r+0x2c>
    8716:	04740793          	addi	a5,s0,71
    871a:	c01c                	sw	a5,0(s0)
    871c:	c81c                	sw	a5,16(s0)
    871e:	4785                	li	a5,1
    8720:	c85c                	sw	a5,20(s0)
    8722:	40f2                	lw	ra,28(sp)
    8724:	4462                	lw	s0,24(sp)
    8726:	44d2                	lw	s1,20(sp)
    8728:	4942                	lw	s2,16(sp)
    872a:	6105                	addi	sp,sp,32
    872c:	8082                	ret
    872e:	0074                	addi	a3,sp,12
    8730:	0030                	addi	a2,sp,8
    8732:	84aa                	mv	s1,a0
    8734:	f77ff0ef          	jal	ra,86aa <__swhatbuf_r>
    8738:	45a2                	lw	a1,8(sp)
    873a:	892a                	mv	s2,a0
    873c:	8526                	mv	a0,s1
    873e:	2205                	jal	885e <_malloc_r>
    8740:	ed01                	bnez	a0,8758 <__smakebuf_r+0x56>
    8742:	00c41783          	lh	a5,12(s0)
    8746:	2007f713          	andi	a4,a5,512
    874a:	ff61                	bnez	a4,8722 <__smakebuf_r+0x20>
    874c:	9bf1                	andi	a5,a5,-4
    874e:	0027e793          	ori	a5,a5,2
    8752:	00f41623          	sh	a5,12(s0)
    8756:	b7c1                	j	8716 <__smakebuf_r+0x14>
    8758:	00000797          	auipc	a5,0x0
    875c:	d8a78793          	addi	a5,a5,-630 # 84e2 <_cleanup_r>
    8760:	d49c                	sw	a5,40(s1)
    8762:	00c45783          	lhu	a5,12(s0)
    8766:	c008                	sw	a0,0(s0)
    8768:	c808                	sw	a0,16(s0)
    876a:	0807e793          	ori	a5,a5,128
    876e:	00f41623          	sh	a5,12(s0)
    8772:	47a2                	lw	a5,8(sp)
    8774:	c85c                	sw	a5,20(s0)
    8776:	47b2                	lw	a5,12(sp)
    8778:	cf89                	beqz	a5,8792 <__smakebuf_r+0x90>
    877a:	00e41583          	lh	a1,14(s0)
    877e:	8526                	mv	a0,s1
    8780:	2665                	jal	8b28 <_isatty_r>
    8782:	c901                	beqz	a0,8792 <__smakebuf_r+0x90>
    8784:	00c45783          	lhu	a5,12(s0)
    8788:	9bf1                	andi	a5,a5,-4
    878a:	0017e793          	ori	a5,a5,1
    878e:	00f41623          	sh	a5,12(s0)
    8792:	00c45783          	lhu	a5,12(s0)
    8796:	00f96933          	or	s2,s2,a5
    879a:	01241623          	sh	s2,12(s0)
    879e:	b751                	j	8722 <__smakebuf_r+0x20>

000087a0 <memchr>:
memchr():
    87a0:	0ff5f593          	andi	a1,a1,255
    87a4:	962a                	add	a2,a2,a0
    87a6:	00c51463          	bne	a0,a2,87ae <memchr+0xe>
    87aa:	4501                	li	a0,0
    87ac:	8082                	ret
    87ae:	00054783          	lbu	a5,0(a0)
    87b2:	feb78de3          	beq	a5,a1,87ac <memchr+0xc>
    87b6:	0505                	addi	a0,a0,1
    87b8:	b7fd                	j	87a6 <memchr+0x6>

000087ba <_free_r>:
_free_r():
    87ba:	c1cd                	beqz	a1,885c <_free_r+0xa2>
    87bc:	ffc5a783          	lw	a5,-4(a1)
    87c0:	1141                	addi	sp,sp,-16
    87c2:	c422                	sw	s0,8(sp)
    87c4:	c606                	sw	ra,12(sp)
    87c6:	c226                	sw	s1,4(sp)
    87c8:	ffc58413          	addi	s0,a1,-4
    87cc:	0007d363          	bgez	a5,87d2 <_free_r+0x18>
    87d0:	943e                	add	s0,s0,a5
    87d2:	84aa                	mv	s1,a0
    87d4:	2665                	jal	8b7c <__malloc_lock>
    87d6:	83c18793          	addi	a5,gp,-1988 # 200000ac <__malloc_free_list>
    87da:	439c                	lw	a5,0(a5)
    87dc:	eb99                	bnez	a5,87f2 <_free_r+0x38>
    87de:	00042223          	sw	zero,4(s0)
    87e2:	8281ae23          	sw	s0,-1988(gp) # 200000ac <__malloc_free_list>
    87e6:	4422                	lw	s0,8(sp)
    87e8:	40b2                	lw	ra,12(sp)
    87ea:	8526                	mv	a0,s1
    87ec:	4492                	lw	s1,4(sp)
    87ee:	0141                	addi	sp,sp,16
    87f0:	a679                	j	8b7e <__malloc_unlock>
    87f2:	00f47e63          	bgeu	s0,a5,880e <_free_r+0x54>
    87f6:	4014                	lw	a3,0(s0)
    87f8:	00d40733          	add	a4,s0,a3
    87fc:	00e79663          	bne	a5,a4,8808 <_free_r+0x4e>
    8800:	4398                	lw	a4,0(a5)
    8802:	43dc                	lw	a5,4(a5)
    8804:	9736                	add	a4,a4,a3
    8806:	c018                	sw	a4,0(s0)
    8808:	c05c                	sw	a5,4(s0)
    880a:	bfe1                	j	87e2 <_free_r+0x28>
    880c:	87ba                	mv	a5,a4
    880e:	43d8                	lw	a4,4(a5)
    8810:	c319                	beqz	a4,8816 <_free_r+0x5c>
    8812:	fee47de3          	bgeu	s0,a4,880c <_free_r+0x52>
    8816:	4394                	lw	a3,0(a5)
    8818:	00d78633          	add	a2,a5,a3
    881c:	00861f63          	bne	a2,s0,883a <_free_r+0x80>
    8820:	4010                	lw	a2,0(s0)
    8822:	96b2                	add	a3,a3,a2
    8824:	c394                	sw	a3,0(a5)
    8826:	00d78633          	add	a2,a5,a3
    882a:	fac71ee3          	bne	a4,a2,87e6 <_free_r+0x2c>
    882e:	4310                	lw	a2,0(a4)
    8830:	4358                	lw	a4,4(a4)
    8832:	96b2                	add	a3,a3,a2
    8834:	c394                	sw	a3,0(a5)
    8836:	c3d8                	sw	a4,4(a5)
    8838:	b77d                	j	87e6 <_free_r+0x2c>
    883a:	00c47563          	bgeu	s0,a2,8844 <_free_r+0x8a>
    883e:	47b1                	li	a5,12
    8840:	c09c                	sw	a5,0(s1)
    8842:	b755                	j	87e6 <_free_r+0x2c>
    8844:	4010                	lw	a2,0(s0)
    8846:	00c406b3          	add	a3,s0,a2
    884a:	00d71663          	bne	a4,a3,8856 <_free_r+0x9c>
    884e:	4314                	lw	a3,0(a4)
    8850:	4358                	lw	a4,4(a4)
    8852:	96b2                	add	a3,a3,a2
    8854:	c014                	sw	a3,0(s0)
    8856:	c058                	sw	a4,4(s0)
    8858:	c3c0                	sw	s0,4(a5)
    885a:	b771                	j	87e6 <_free_r+0x2c>
    885c:	8082                	ret

0000885e <_malloc_r>:
_malloc_r():
    885e:	1101                	addi	sp,sp,-32
    8860:	ca26                	sw	s1,20(sp)
    8862:	00358493          	addi	s1,a1,3
    8866:	98f1                	andi	s1,s1,-4
    8868:	ce06                	sw	ra,28(sp)
    886a:	cc22                	sw	s0,24(sp)
    886c:	c84a                	sw	s2,16(sp)
    886e:	c64e                	sw	s3,12(sp)
    8870:	04a1                	addi	s1,s1,8
    8872:	47b1                	li	a5,12
    8874:	04f4f163          	bgeu	s1,a5,88b6 <_malloc_r+0x58>
    8878:	44b1                	li	s1,12
    887a:	04b4e063          	bltu	s1,a1,88ba <_malloc_r+0x5c>
    887e:	892a                	mv	s2,a0
    8880:	2cf5                	jal	8b7c <__malloc_lock>
    8882:	83c18793          	addi	a5,gp,-1988 # 200000ac <__malloc_free_list>
    8886:	4398                	lw	a4,0(a5)
    8888:	843a                	mv	s0,a4
    888a:	e031                	bnez	s0,88ce <_malloc_r+0x70>
    888c:	84018793          	addi	a5,gp,-1984 # 200000b0 <__malloc_sbrk_start>
    8890:	439c                	lw	a5,0(a5)
    8892:	e791                	bnez	a5,889e <_malloc_r+0x40>
    8894:	4581                	li	a1,0
    8896:	854a                	mv	a0,s2
    8898:	2851                	jal	892c <_sbrk_r>
    889a:	84a1a023          	sw	a0,-1984(gp) # 200000b0 <__malloc_sbrk_start>
    889e:	85a6                	mv	a1,s1
    88a0:	854a                	mv	a0,s2
    88a2:	2069                	jal	892c <_sbrk_r>
    88a4:	59fd                	li	s3,-1
    88a6:	07351763          	bne	a0,s3,8914 <_malloc_r+0xb6>
    88aa:	47b1                	li	a5,12
    88ac:	00f92023          	sw	a5,0(s2)
    88b0:	854a                	mv	a0,s2
    88b2:	24f1                	jal	8b7e <__malloc_unlock>
    88b4:	a029                	j	88be <_malloc_r+0x60>
    88b6:	fc04d2e3          	bgez	s1,887a <_malloc_r+0x1c>
    88ba:	47b1                	li	a5,12
    88bc:	c11c                	sw	a5,0(a0)
    88be:	4501                	li	a0,0
    88c0:	40f2                	lw	ra,28(sp)
    88c2:	4462                	lw	s0,24(sp)
    88c4:	44d2                	lw	s1,20(sp)
    88c6:	4942                	lw	s2,16(sp)
    88c8:	49b2                	lw	s3,12(sp)
    88ca:	6105                	addi	sp,sp,32
    88cc:	8082                	ret
    88ce:	401c                	lw	a5,0(s0)
    88d0:	8f85                	sub	a5,a5,s1
    88d2:	0207ce63          	bltz	a5,890e <_malloc_r+0xb0>
    88d6:	46ad                	li	a3,11
    88d8:	00f6f663          	bgeu	a3,a5,88e4 <_malloc_r+0x86>
    88dc:	c01c                	sw	a5,0(s0)
    88de:	943e                	add	s0,s0,a5
    88e0:	c004                	sw	s1,0(s0)
    88e2:	a031                	j	88ee <_malloc_r+0x90>
    88e4:	405c                	lw	a5,4(s0)
    88e6:	02871263          	bne	a4,s0,890a <_malloc_r+0xac>
    88ea:	82f1ae23          	sw	a5,-1988(gp) # 200000ac <__malloc_free_list>
    88ee:	854a                	mv	a0,s2
    88f0:	2479                	jal	8b7e <__malloc_unlock>
    88f2:	00b40513          	addi	a0,s0,11
    88f6:	00440793          	addi	a5,s0,4
    88fa:	9961                	andi	a0,a0,-8
    88fc:	40f50733          	sub	a4,a0,a5
    8900:	d361                	beqz	a4,88c0 <_malloc_r+0x62>
    8902:	943a                	add	s0,s0,a4
    8904:	8f89                	sub	a5,a5,a0
    8906:	c01c                	sw	a5,0(s0)
    8908:	bf65                	j	88c0 <_malloc_r+0x62>
    890a:	c35c                	sw	a5,4(a4)
    890c:	b7cd                	j	88ee <_malloc_r+0x90>
    890e:	8722                	mv	a4,s0
    8910:	4040                	lw	s0,4(s0)
    8912:	bfa5                	j	888a <_malloc_r+0x2c>
    8914:	00350413          	addi	s0,a0,3
    8918:	9871                	andi	s0,s0,-4
    891a:	fc8503e3          	beq	a0,s0,88e0 <_malloc_r+0x82>
    891e:	40a405b3          	sub	a1,s0,a0
    8922:	854a                	mv	a0,s2
    8924:	2021                	jal	892c <_sbrk_r>
    8926:	fb351de3          	bne	a0,s3,88e0 <_malloc_r+0x82>
    892a:	b741                	j	88aa <_malloc_r+0x4c>

0000892c <_sbrk_r>:
_sbrk_r():
    892c:	1141                	addi	sp,sp,-16
    892e:	c422                	sw	s0,8(sp)
    8930:	842a                	mv	s0,a0
    8932:	852e                	mv	a0,a1
    8934:	9201a023          	sw	zero,-1760(gp) # 20000190 <errno>
    8938:	c606                	sw	ra,12(sp)
    893a:	24d9                	jal	8c00 <_sbrk>
    893c:	57fd                	li	a5,-1
    893e:	00f51763          	bne	a0,a5,894c <_sbrk_r+0x20>
    8942:	92018793          	addi	a5,gp,-1760 # 20000190 <errno>
    8946:	439c                	lw	a5,0(a5)
    8948:	c391                	beqz	a5,894c <_sbrk_r+0x20>
    894a:	c01c                	sw	a5,0(s0)
    894c:	40b2                	lw	ra,12(sp)
    894e:	4422                	lw	s0,8(sp)
    8950:	0141                	addi	sp,sp,16
    8952:	8082                	ret

00008954 <_raise_r>:
_raise_r():
    8954:	47fd                	li	a5,31
    8956:	00b7f663          	bgeu	a5,a1,8962 <_raise_r+0xe>
    895a:	47d9                	li	a5,22
    895c:	c11c                	sw	a5,0(a0)
    895e:	557d                	li	a0,-1
    8960:	8082                	ret
    8962:	417c                	lw	a5,68(a0)
    8964:	1101                	addi	sp,sp,-32
    8966:	cc22                	sw	s0,24(sp)
    8968:	ce06                	sw	ra,28(sp)
    896a:	862e                	mv	a2,a1
    896c:	842a                	mv	s0,a0
    896e:	c791                	beqz	a5,897a <_raise_r+0x26>
    8970:	00259713          	slli	a4,a1,0x2
    8974:	97ba                	add	a5,a5,a4
    8976:	4398                	lw	a4,0(a5)
    8978:	eb19                	bnez	a4,898e <_raise_r+0x3a>
    897a:	8522                	mv	a0,s0
    897c:	c632                	sw	a2,12(sp)
    897e:	20bd                	jal	89ec <_getpid_r>
    8980:	85aa                	mv	a1,a0
    8982:	8522                	mv	a0,s0
    8984:	4462                	lw	s0,24(sp)
    8986:	4632                	lw	a2,12(sp)
    8988:	40f2                	lw	ra,28(sp)
    898a:	6105                	addi	sp,sp,32
    898c:	a81d                	j	89c2 <_kill_r>
    898e:	4685                	li	a3,1
    8990:	4501                	li	a0,0
    8992:	00d70863          	beq	a4,a3,89a2 <_raise_r+0x4e>
    8996:	56fd                	li	a3,-1
    8998:	00d71963          	bne	a4,a3,89aa <_raise_r+0x56>
    899c:	47d9                	li	a5,22
    899e:	c01c                	sw	a5,0(s0)
    89a0:	4505                	li	a0,1
    89a2:	40f2                	lw	ra,28(sp)
    89a4:	4462                	lw	s0,24(sp)
    89a6:	6105                	addi	sp,sp,32
    89a8:	8082                	ret
    89aa:	852e                	mv	a0,a1
    89ac:	0007a023          	sw	zero,0(a5)
    89b0:	9702                	jalr	a4
    89b2:	4501                	li	a0,0
    89b4:	b7fd                	j	89a2 <_raise_r+0x4e>

000089b6 <raise>:
raise():
    89b6:	80818793          	addi	a5,gp,-2040 # 20000078 <_impure_ptr>
    89ba:	85aa                	mv	a1,a0
    89bc:	4388                	lw	a0,0(a5)
    89be:	f97ff06f          	j	8954 <_raise_r>

000089c2 <_kill_r>:
_kill_r():
    89c2:	1141                	addi	sp,sp,-16
    89c4:	c422                	sw	s0,8(sp)
    89c6:	842a                	mv	s0,a0
    89c8:	852e                	mv	a0,a1
    89ca:	85b2                	mv	a1,a2
    89cc:	9201a023          	sw	zero,-1760(gp) # 20000190 <errno>
    89d0:	c606                	sw	ra,12(sp)
    89d2:	2429                	jal	8bdc <_kill>
    89d4:	57fd                	li	a5,-1
    89d6:	00f51763          	bne	a0,a5,89e4 <_kill_r+0x22>
    89da:	92018793          	addi	a5,gp,-1760 # 20000190 <errno>
    89de:	439c                	lw	a5,0(a5)
    89e0:	c391                	beqz	a5,89e4 <_kill_r+0x22>
    89e2:	c01c                	sw	a5,0(s0)
    89e4:	40b2                	lw	ra,12(sp)
    89e6:	4422                	lw	s0,8(sp)
    89e8:	0141                	addi	sp,sp,16
    89ea:	8082                	ret

000089ec <_getpid_r>:
_getpid_r():
    89ec:	aae1                	j	8bc4 <_getpid>

000089ee <__sread>:
__sread():
    89ee:	1141                	addi	sp,sp,-16
    89f0:	c422                	sw	s0,8(sp)
    89f2:	842e                	mv	s0,a1
    89f4:	00e59583          	lh	a1,14(a1)
    89f8:	c606                	sw	ra,12(sp)
    89fa:	2259                	jal	8b80 <_read_r>
    89fc:	00054963          	bltz	a0,8a0e <__sread+0x20>
    8a00:	487c                	lw	a5,84(s0)
    8a02:	97aa                	add	a5,a5,a0
    8a04:	c87c                	sw	a5,84(s0)
    8a06:	40b2                	lw	ra,12(sp)
    8a08:	4422                	lw	s0,8(sp)
    8a0a:	0141                	addi	sp,sp,16
    8a0c:	8082                	ret
    8a0e:	00c45783          	lhu	a5,12(s0)
    8a12:	777d                	lui	a4,0xfffff
    8a14:	177d                	addi	a4,a4,-1
    8a16:	8ff9                	and	a5,a5,a4
    8a18:	00f41623          	sh	a5,12(s0)
    8a1c:	b7ed                	j	8a06 <__sread+0x18>

00008a1e <__swrite>:
__swrite():
    8a1e:	00c5d783          	lhu	a5,12(a1)
    8a22:	1101                	addi	sp,sp,-32
    8a24:	cc22                	sw	s0,24(sp)
    8a26:	ca26                	sw	s1,20(sp)
    8a28:	c84a                	sw	s2,16(sp)
    8a2a:	c64e                	sw	s3,12(sp)
    8a2c:	ce06                	sw	ra,28(sp)
    8a2e:	1007f793          	andi	a5,a5,256
    8a32:	84aa                	mv	s1,a0
    8a34:	842e                	mv	s0,a1
    8a36:	8932                	mv	s2,a2
    8a38:	89b6                	mv	s3,a3
    8a3a:	c791                	beqz	a5,8a46 <__swrite+0x28>
    8a3c:	00e59583          	lh	a1,14(a1)
    8a40:	4689                	li	a3,2
    8a42:	4601                	li	a2,0
    8a44:	2231                	jal	8b50 <_lseek_r>
    8a46:	00c45783          	lhu	a5,12(s0)
    8a4a:	777d                	lui	a4,0xfffff
    8a4c:	177d                	addi	a4,a4,-1
    8a4e:	8ff9                	and	a5,a5,a4
    8a50:	00f41623          	sh	a5,12(s0)
    8a54:	00e41583          	lh	a1,14(s0)
    8a58:	4462                	lw	s0,24(sp)
    8a5a:	40f2                	lw	ra,28(sp)
    8a5c:	86ce                	mv	a3,s3
    8a5e:	864a                	mv	a2,s2
    8a60:	49b2                	lw	s3,12(sp)
    8a62:	4942                	lw	s2,16(sp)
    8a64:	8526                	mv	a0,s1
    8a66:	44d2                	lw	s1,20(sp)
    8a68:	6105                	addi	sp,sp,32
    8a6a:	a83d                	j	8aa8 <_write_r>

00008a6c <__sseek>:
__sseek():
    8a6c:	1141                	addi	sp,sp,-16
    8a6e:	c422                	sw	s0,8(sp)
    8a70:	842e                	mv	s0,a1
    8a72:	00e59583          	lh	a1,14(a1)
    8a76:	c606                	sw	ra,12(sp)
    8a78:	28e1                	jal	8b50 <_lseek_r>
    8a7a:	57fd                	li	a5,-1
    8a7c:	00c45703          	lhu	a4,12(s0)
    8a80:	00f51b63          	bne	a0,a5,8a96 <__sseek+0x2a>
    8a84:	77fd                	lui	a5,0xfffff
    8a86:	17fd                	addi	a5,a5,-1
    8a88:	8ff9                	and	a5,a5,a4
    8a8a:	00f41623          	sh	a5,12(s0)
    8a8e:	40b2                	lw	ra,12(sp)
    8a90:	4422                	lw	s0,8(sp)
    8a92:	0141                	addi	sp,sp,16
    8a94:	8082                	ret
    8a96:	6785                	lui	a5,0x1
    8a98:	8fd9                	or	a5,a5,a4
    8a9a:	00f41623          	sh	a5,12(s0)
    8a9e:	c868                	sw	a0,84(s0)
    8aa0:	b7fd                	j	8a8e <__sseek+0x22>

00008aa2 <__sclose>:
__sclose():
    8aa2:	00e59583          	lh	a1,14(a1)
    8aa6:	a805                	j	8ad6 <_close_r>

00008aa8 <_write_r>:
_write_r():
    8aa8:	1141                	addi	sp,sp,-16
    8aaa:	c422                	sw	s0,8(sp)
    8aac:	842a                	mv	s0,a0
    8aae:	852e                	mv	a0,a1
    8ab0:	85b2                	mv	a1,a2
    8ab2:	8636                	mv	a2,a3
    8ab4:	9201a023          	sw	zero,-1760(gp) # 20000190 <errno>
    8ab8:	c606                	sw	ra,12(sp)
    8aba:	e46fc0ef          	jal	ra,5100 <_write>
    8abe:	57fd                	li	a5,-1
    8ac0:	00f51763          	bne	a0,a5,8ace <_write_r+0x26>
    8ac4:	92018793          	addi	a5,gp,-1760 # 20000190 <errno>
    8ac8:	439c                	lw	a5,0(a5)
    8aca:	c391                	beqz	a5,8ace <_write_r+0x26>
    8acc:	c01c                	sw	a5,0(s0)
    8ace:	40b2                	lw	ra,12(sp)
    8ad0:	4422                	lw	s0,8(sp)
    8ad2:	0141                	addi	sp,sp,16
    8ad4:	8082                	ret

00008ad6 <_close_r>:
_close_r():
    8ad6:	1141                	addi	sp,sp,-16
    8ad8:	c422                	sw	s0,8(sp)
    8ada:	842a                	mv	s0,a0
    8adc:	852e                	mv	a0,a1
    8ade:	9201a023          	sw	zero,-1760(gp) # 20000190 <errno>
    8ae2:	c606                	sw	ra,12(sp)
    8ae4:	20e1                	jal	8bac <_close>
    8ae6:	57fd                	li	a5,-1
    8ae8:	00f51763          	bne	a0,a5,8af6 <_close_r+0x20>
    8aec:	92018793          	addi	a5,gp,-1760 # 20000190 <errno>
    8af0:	439c                	lw	a5,0(a5)
    8af2:	c391                	beqz	a5,8af6 <_close_r+0x20>
    8af4:	c01c                	sw	a5,0(s0)
    8af6:	40b2                	lw	ra,12(sp)
    8af8:	4422                	lw	s0,8(sp)
    8afa:	0141                	addi	sp,sp,16
    8afc:	8082                	ret

00008afe <_fstat_r>:
_fstat_r():
    8afe:	1141                	addi	sp,sp,-16
    8b00:	c422                	sw	s0,8(sp)
    8b02:	842a                	mv	s0,a0
    8b04:	852e                	mv	a0,a1
    8b06:	85b2                	mv	a1,a2
    8b08:	9201a023          	sw	zero,-1760(gp) # 20000190 <errno>
    8b0c:	c606                	sw	ra,12(sp)
    8b0e:	206d                	jal	8bb8 <_fstat>
    8b10:	57fd                	li	a5,-1
    8b12:	00f51763          	bne	a0,a5,8b20 <_fstat_r+0x22>
    8b16:	92018793          	addi	a5,gp,-1760 # 20000190 <errno>
    8b1a:	439c                	lw	a5,0(a5)
    8b1c:	c391                	beqz	a5,8b20 <_fstat_r+0x22>
    8b1e:	c01c                	sw	a5,0(s0)
    8b20:	40b2                	lw	ra,12(sp)
    8b22:	4422                	lw	s0,8(sp)
    8b24:	0141                	addi	sp,sp,16
    8b26:	8082                	ret

00008b28 <_isatty_r>:
_isatty_r():
    8b28:	1141                	addi	sp,sp,-16
    8b2a:	c422                	sw	s0,8(sp)
    8b2c:	842a                	mv	s0,a0
    8b2e:	852e                	mv	a0,a1
    8b30:	9201a023          	sw	zero,-1760(gp) # 20000190 <errno>
    8b34:	c606                	sw	ra,12(sp)
    8b36:	2869                	jal	8bd0 <_isatty>
    8b38:	57fd                	li	a5,-1
    8b3a:	00f51763          	bne	a0,a5,8b48 <_isatty_r+0x20>
    8b3e:	92018793          	addi	a5,gp,-1760 # 20000190 <errno>
    8b42:	439c                	lw	a5,0(a5)
    8b44:	c391                	beqz	a5,8b48 <_isatty_r+0x20>
    8b46:	c01c                	sw	a5,0(s0)
    8b48:	40b2                	lw	ra,12(sp)
    8b4a:	4422                	lw	s0,8(sp)
    8b4c:	0141                	addi	sp,sp,16
    8b4e:	8082                	ret

00008b50 <_lseek_r>:
_lseek_r():
    8b50:	1141                	addi	sp,sp,-16
    8b52:	c422                	sw	s0,8(sp)
    8b54:	842a                	mv	s0,a0
    8b56:	852e                	mv	a0,a1
    8b58:	85b2                	mv	a1,a2
    8b5a:	8636                	mv	a2,a3
    8b5c:	9201a023          	sw	zero,-1760(gp) # 20000190 <errno>
    8b60:	c606                	sw	ra,12(sp)
    8b62:	2059                	jal	8be8 <_lseek>
    8b64:	57fd                	li	a5,-1
    8b66:	00f51763          	bne	a0,a5,8b74 <_lseek_r+0x24>
    8b6a:	92018793          	addi	a5,gp,-1760 # 20000190 <errno>
    8b6e:	439c                	lw	a5,0(a5)
    8b70:	c391                	beqz	a5,8b74 <_lseek_r+0x24>
    8b72:	c01c                	sw	a5,0(s0)
    8b74:	40b2                	lw	ra,12(sp)
    8b76:	4422                	lw	s0,8(sp)
    8b78:	0141                	addi	sp,sp,16
    8b7a:	8082                	ret

00008b7c <__malloc_lock>:
__malloc_lock():
    8b7c:	8082                	ret

00008b7e <__malloc_unlock>:
__malloc_unlock():
    8b7e:	8082                	ret

00008b80 <_read_r>:
_read_r():
    8b80:	1141                	addi	sp,sp,-16
    8b82:	c422                	sw	s0,8(sp)
    8b84:	842a                	mv	s0,a0
    8b86:	852e                	mv	a0,a1
    8b88:	85b2                	mv	a1,a2
    8b8a:	8636                	mv	a2,a3
    8b8c:	9201a023          	sw	zero,-1760(gp) # 20000190 <errno>
    8b90:	c606                	sw	ra,12(sp)
    8b92:	208d                	jal	8bf4 <_read>
    8b94:	57fd                	li	a5,-1
    8b96:	00f51763          	bne	a0,a5,8ba4 <_read_r+0x24>
    8b9a:	92018793          	addi	a5,gp,-1760 # 20000190 <errno>
    8b9e:	439c                	lw	a5,0(a5)
    8ba0:	c391                	beqz	a5,8ba4 <_read_r+0x24>
    8ba2:	c01c                	sw	a5,0(s0)
    8ba4:	40b2                	lw	ra,12(sp)
    8ba6:	4422                	lw	s0,8(sp)
    8ba8:	0141                	addi	sp,sp,16
    8baa:	8082                	ret

00008bac <_close>:
_close():
    8bac:	05800793          	li	a5,88
    8bb0:	92f1a023          	sw	a5,-1760(gp) # 20000190 <errno>
    8bb4:	557d                	li	a0,-1
    8bb6:	8082                	ret

00008bb8 <_fstat>:
_fstat():
    8bb8:	05800793          	li	a5,88
    8bbc:	92f1a023          	sw	a5,-1760(gp) # 20000190 <errno>
    8bc0:	557d                	li	a0,-1
    8bc2:	8082                	ret

00008bc4 <_getpid>:
_getpid():
    8bc4:	05800793          	li	a5,88
    8bc8:	92f1a023          	sw	a5,-1760(gp) # 20000190 <errno>
    8bcc:	557d                	li	a0,-1
    8bce:	8082                	ret

00008bd0 <_isatty>:
_isatty():
    8bd0:	05800793          	li	a5,88
    8bd4:	92f1a023          	sw	a5,-1760(gp) # 20000190 <errno>
    8bd8:	4501                	li	a0,0
    8bda:	8082                	ret

00008bdc <_kill>:
_kill():
    8bdc:	05800793          	li	a5,88
    8be0:	92f1a023          	sw	a5,-1760(gp) # 20000190 <errno>
    8be4:	557d                	li	a0,-1
    8be6:	8082                	ret

00008be8 <_lseek>:
_lseek():
    8be8:	05800793          	li	a5,88
    8bec:	92f1a023          	sw	a5,-1760(gp) # 20000190 <errno>
    8bf0:	557d                	li	a0,-1
    8bf2:	8082                	ret

00008bf4 <_read>:
_read():
    8bf4:	05800793          	li	a5,88
    8bf8:	92f1a023          	sw	a5,-1760(gp) # 20000190 <errno>
    8bfc:	557d                	li	a0,-1
    8bfe:	8082                	ret

00008c00 <_sbrk>:
_sbrk():
    8c00:	84418793          	addi	a5,gp,-1980 # 200000b4 <heap_end.1518>
    8c04:	439c                	lw	a5,0(a5)
    8c06:	c791                	beqz	a5,8c12 <_sbrk+0x12>
    8c08:	953e                	add	a0,a0,a5
    8c0a:	84a1a223          	sw	a0,-1980(gp) # 200000b4 <heap_end.1518>
    8c0e:	853e                	mv	a0,a5
    8c10:	8082                	ret
    8c12:	92418793          	addi	a5,gp,-1756 # 20000194 <_ebss>
    8c16:	953e                	add	a0,a0,a5
    8c18:	84a1a223          	sw	a0,-1980(gp) # 200000b4 <heap_end.1518>
    8c1c:	853e                	mv	a0,a5
    8c1e:	8082                	ret

00008c20 <_exit>:
_exit():
    8c20:	a001                	j	8c20 <_exit>
    8c22:	0000                	unimp
    8c24:	0000                	unimp
    8c26:	0000                	unimp
    8c28:	3d71                	jal	8ac4 <_write_r+0x1c>
    8c2a:	d70a                	sw	sp,172(sp)
    8c2c:	3fcd70a3          	0x3fcd70a3
    8c30:	4654                	lw	a3,12(a2)
    8c32:	5f54                	lw	a3,60(a4)
    8c34:	5f58                	lw	a4,60(a4)
    8c36:	414d                	li	sp,19
    8c38:	3e58                	fld	fa4,184(a2)
    8c3a:	5f78                	lw	a4,124(a4)
    8c3c:	72617473          	csrrci	s0,0x726,2
    8c40:	0074                	addi	a3,sp,12
    8c42:	0000                	unimp
    8c44:	2e2e                	fld	ft8,200(sp)
    8c46:	62694c2f          	0x62694c2f
    8c4a:	6172                	flw	ft2,28(sp)
    8c4c:	6972                	flw	fs2,28(sp)
    8c4e:	7365                	lui	t1,0xffff9
    8c50:	6565732f          	0x6565732f
    8c54:	6572666b          	0x6572666b
    8c58:	5f65                	li	t5,-7
    8c5a:	6570                	flw	fa2,76(a0)
    8c5c:	6972                	flw	fs2,28(sp)
    8c5e:	6870                	flw	fa2,84(s0)
    8c60:	7265                	lui	tp,0xffff9
    8c62:	6c61                	lui	s8,0x18
    8c64:	4545532f          	0x4545532f
    8c68:	4552464b          	0x4552464b
    8c6c:	5f45                	li	t5,-15
    8c6e:	3831                	jal	848a <std+0x12>
    8c70:	4654                	lw	a3,12(a2)
    8c72:	2e54                	fld	fa3,152(a2)
    8c74:	00000063          	beqz	zero,8c74 <_exit+0x54>
    8c78:	4654                	lw	a3,12(a2)
    8c7a:	5f54                	lw	a3,60(a4)
    8c7c:	5f59                	li	t5,-10
    8c7e:	414d                	li	sp,19
    8c80:	3e58                	fld	fa4,184(a2)
    8c82:	5f79                	li	t5,-2
    8c84:	72617473          	csrrci	s0,0x726,2
    8c88:	0074                	addi	a3,sp,12
    8c8a:	0000                	unimp
    8c8c:	4654                	lw	a3,12(a2)
    8c8e:	5f54                	lw	a3,60(a4)
    8c90:	5f58                	lw	a4,60(a4)
    8c92:	414d                	li	sp,19
    8c94:	3e58                	fld	fa4,184(a2)
    8c96:	5f78                	lw	a4,124(a4)
    8c98:	6e65                	lui	t3,0x19
    8c9a:	0064                	addi	s1,sp,12
    8c9c:	4654                	lw	a3,12(a2)
    8c9e:	5f54                	lw	a3,60(a4)
    8ca0:	5f59                	li	t5,-10
    8ca2:	414d                	li	sp,19
    8ca4:	3e58                	fld	fa4,184(a2)
    8ca6:	5f79                	li	t5,-2
    8ca8:	6e65                	lui	t3,0x19
    8caa:	0064                	addi	s1,sp,12
    8cac:	6425                	lui	s0,0x9
    8cae:	0000                	unimp
    8cb0:	6625                	lui	a2,0x9
	...
    8cba:	0000                	unimp
    8cbc:	8480                	0x8480
    8cbe:	412e                	lw	sp,200(sp)
    8cc0:	0030                	addi	a2,sp,8
    8cc2:	0000                	unimp
    8cc4:	2e2e                	fld	ft8,200(sp)
    8cc6:	62694c2f          	0x62694c2f
    8cca:	6172                	flw	ft2,28(sp)
    8ccc:	6972                	flw	fs2,28(sp)
    8cce:	7365                	lui	t1,0xffff9
    8cd0:	6565732f          	0x6565732f
    8cd4:	6572666b          	0x6572666b
    8cd8:	5f65                	li	t5,-7
    8cda:	696c                	flw	fa1,84(a0)
    8cdc:	7262                	flw	ft4,56(sp)
    8cde:	7261                	lui	tp,0xffff8
    8ce0:	6569                	lui	a0,0x1a
    8ce2:	667a2f73          	csrrs	t5,0x667,s4
    8ce6:	735f 6970 632e      	0x632e6970735f
    8cec:	0000                	unimp
    8cee:	0000                	unimp
    8cf0:	0000                	unimp
    8cf2:	41a0                	lw	s0,64(a1)
    8cf4:	0000                	unimp
    8cf6:	40a0                	lw	s0,64(s1)
    8cf8:	0000                	unimp
    8cfa:	3f80                	fld	fs0,56(a5)
    8cfc:	4000                	lw	s0,0(s0)
    8cfe:	459c                	lw	a5,8(a1)

00008d00 <__func__.3212>:
    8d00:	636c 5f64 6573 5f74 6572 6967 6e6f 0000     lcd_set_region..

00008d10 <tft_ascii>:
	...
    8d20:	0000 0800 0808 0808 0808 0000 0808 0000     ................
    8d30:	4800 2424 0012 0000 0000 0000 0000 0000     .H$$............
    8d40:	0000 4800 4848 247e 2424 247e 2424 0000     ...HHH~$$$~$$$..
    8d50:	0000 3c10 5252 1c12 5030 5250 3c52 1010     ...<RR..0PPRR<..
    8d60:	0000 2200 1525 0d15 582a 5454 2252 0000     ..."%...*XTTR"..
    8d70:	0000 0c00 1212 0a12 2576 1929 6e91 0000     ........v%)..n..
    8d80:	0600 0404 0002 0000 0000 0000 0000 0000     ................
    8d90:	4000 1020 0810 0808 0808 1008 2010 0040     .@ .......... @.
    8da0:	0200 0804 1008 1010 1010 0810 0408 0002     ................
    8db0:	0000 0000 0808 1c6b 6b1c 0808 0000 0000     ......k..k......
    8dc0:	0000 0000 1000 1010 10fe 1010 0000 0000     ................
	...
    8ddc:	0406 0204 0000 0000 0000 0000 007e 0000     ............~...
	...
    8dfc:	0606 0000 0000 2040 2020 1010 0808 0408     ......@   ......
    8e0c:	0204 0002 0000 1800 4224 4242 4242 4242     ........$BBBBBBB
    8e1c:	1824 0000 0000 1000 101c 1010 1010 1010     $...............
    8e2c:	7c10 0000 0000 3c00 4242 4042 1020 0408     .|.....<BBB@ ...
    8e3c:	7e42 0000 0000 3c00 4242 2040 2018 4240     B~.....<BB@ . @B
    8e4c:	3c42 0000 0000 2000 3030 2428 2224 20fe     B<..... 00($$". 
    8e5c:	f820 0000 0000 7e00 0202 1e02 4022 4240      ......~...."@@B
    8e6c:	1c22 0000 0000 1800 0224 3a02 4246 4242     ".......$..:FBBB
    8e7c:	3844 0000 0000 7e00 2042 1020 0810 0808     D8.....~B  .....
    8e8c:	0808 0000 0000 3c00 4242 2442 2418 4242     .......<BBB$.$BB
    8e9c:	3c42 0000 0000 1c00 4222 4242 5c62 4040     B<......"BBBb\@@
    8eac:	1824 0000 0000 0000 0000 1818 0000 0000     $...............
    8ebc:	1818 0000 0000 0000 0000 0800 0000 0000     ................
    8ecc:	0800 0808 0000 4000 1020 0408 0402 1008     .......@ .......
    8edc:	4020 0000 0000 0000 0000 007e 7e00 0000      @........~..~..
    8eec:	0000 0000 0000 0200 0804 2010 2040 0810     ........... @ ..
    8efc:	0204 0000 0000 3c00 4242 2046 1010 0010     .......<BBF ....
    8f0c:	1818 0000 0000 1c00 5a22 5555 5555 3a55     ........"ZUUUUU:
    8f1c:	3c42 0000 0000 0800 1808 1414 3c24 4222     B<..........$<"B
    8f2c:	e742 0000 0000 1f00 2222 1e22 4222 4242     B......."""."BBB
    8f3c:	1f22 0000 0000 7c00 4242 0101 0101 4201     "......|BB.....B
    8f4c:	1c22 0000 0000 1f00 4222 4242 4242 4242     "......."BBBBBBB
    8f5c:	1f22 0000 0000 3f00 1242 1e12 1212 4202     "......?B......B
    8f6c:	3f42 0000 0000 3f00 1242 1e12 1212 0202     B?.....?B.......
    8f7c:	0702 0000 0000 3c00 2222 0101 7101 2221     .......<""...q!"
    8f8c:	1c22 0000 0000 e700 4242 4242 427e 4242     ".......BBBB~BBB
    8f9c:	e742 0000 0000 3e00 0808 0808 0808 0808     B......>........
    8fac:	3e08 0000 0000 7c00 1010 1010 1010 1010     .>.....|........
    8fbc:	1010 0f11 0000 7700 1222 0e0a 120a 2212     .......w"......"
    8fcc:	7722 0000 0000 0700 0202 0202 0202 0202     "w..............
    8fdc:	7f42 0000 0000 7700 3636 3636 2a36 2a2a     B......w66666***
    8fec:	6b2a 0000 0000 e300 4646 4a4a 5252 6252     *k......FFJJRRRb
    8ffc:	4762 0000 0000 1c00 4122 4141 4141 4141     bG......"AAAAAAA
    900c:	1c22 0000 0000 3f00 4242 4242 023e 0202     "......?BBBB>...
    901c:	0702 0000 0000 1c00 4122 4141 4141 4d41     ........"AAAAAAM
    902c:	1c32 0060 0000 3f00 4242 3e42 1212 2222     2.`....?BBB>..""
    903c:	c742 0000 0000 7c00 4242 0402 2018 4240     B......|BB... @B
    904c:	3e42 0000 0000 7f00 0849 0808 0808 0808     B>......I.......
    905c:	1c08 0000 0000 e700 4242 4242 4242 4242     ........BBBBBBBB
    906c:	3c42 0000 0000 e700 4242 2422 1424 1814     B<......BB"$$...
    907c:	0808 0000 0000 6b00 2a2a 2a2a 362a 1414     .......k*****6..
    908c:	1414 0000 0000 e700 2442 1824 1818 2424     ........B$$...$$
    909c:	e742 0000 0000 7700 2222 1414 0808 0808     B......w""......
    90ac:	1c08 0000 0000 7e00 2021 1010 0408 4204     .......~! .....B
    90bc:	3f42 0000 7800 0808 0808 0808 0808 0808     B?...x..........
    90cc:	0808 0078 0000 0402 0404 0808 1008 2010     ..x............ 
    90dc:	2020 4040 1e00 1010 1010 1010 1010 1010       @@............
    90ec:	1010 001e 1800 0024 0000 0000 0000 0000     ......$.........
	...
    910c:	0000 ff00 0600 0008 0000 0000 0000 0000     ................
	...
    9124:	0000 1c00 3022 222c 6c32 0000 0000 0000     ...."0,"2l......
    9134:	0203 1a02 4226 4242 1a26 0000 0000 0000     ....&BBB&.......
    9144:	0000 3800 0244 0202 3844 0000 0000 0000     ...8D...D8......
    9154:	4060 7c40 4242 4242 dc62 0000 0000 0000     `@@|BBBBb.......
    9164:	0000 3c00 4242 027e 3c42 0000 0000 0000     ...<BB~.B<......
    9174:	4830 3e08 0808 0808 3e08 0000 0000 0000     0H.>.....>......
    9184:	0000 7c00 2222 021c 423c 3c42 0000 0000     ...|""..<BB<....
    9194:	0203 3a02 4246 4242 e742 0000 0000 0c00     ...:FBBBB.......
    91a4:	000c 0e00 0808 0808 3e08 0000 0000 3000     .........>.....0
    91b4:	0030 3800 2020 2020 2020 1e22 0000 0000     0..8      ".....
    91c4:	0203 7202 0a12 120e 7722 0000 0000 0800     ...r...."w......
    91d4:	080e 0808 0808 0808 3e08 0000 0000 0000     .........>......
    91e4:	0000 7f00 9292 9292 b792 0000 0000 0000     ................
    91f4:	0000 3b00 4246 4242 e742 0000 0000 0000     ...;FBBBB.......
    9204:	0000 3c00 4242 4242 3c42 0000 0000 0000     ...<BBBBB<......
    9214:	0000 1b00 4226 4242 1a26 0702 0000 0000     ....&BBB&.......
    9224:	0000 5800 4264 4242 5864 e040 0000 0000     ...XdBBBdX@.....
    9234:	0000 7700 044c 0404 1f04 0000 0000 0000     ...wL...........
    9244:	0000 7c00 0242 403c 3e42 0000 0000 0000     ...|B.<@B>......
    9254:	0800 3e08 0808 0808 3048 0000 0000 0000     ...>....H0......
    9264:	0000 6300 4242 4242 dc62 0000 0000 0000     ...cBBBBb.......
    9274:	0000 7700 2222 1414 0808 0000 0000 0000     ...w""..........
    9284:	0000 db00 5291 2a5a 2424 0000 0000 0000     .....RZ*$$......
    9294:	0000 6e00 1824 1818 7624 0000 0000 0000     ...n$...$v......
    92a4:	0000 e700 2442 1824 0818 0608 0000 0000     ....B$$.........
    92b4:	0000 7e00 1022 0808 7e44 0000 c000 2020     ...~"...D~....  
    92c4:	2020 2020 2010 2020 2020 00c0 1010 1010         .     ......
    92d4:	1010 1010 1010 1010 1010 1010 0300 0404     ................
    92e4:	0404 0404 0408 0404 0404 0003 5a04 0020     .............Z .
	...
    9300:	39f0 0000 3a38 0000 3a38 0000 3a38 0000     .9..8:..8:..8:..
    9310:	3a38 0000 3a38 0000 3a38 0000 3a38 0000     8:..8:..8:..8:..
    9320:	3a38 0000 3a38 0000 3a38 0000 3a38 0000     8:..8:..8:..8:..
    9330:	3a38 0000 3a38 0000 3a38 0000 3a38 0000     8:..8:..8:..8:..
    9340:	3a38 0000 3a38 0000 3a38 0000 3a38 0000     8:..8:..8:..8:..
    9350:	3a38 0000 3a38 0000 3a38 0000 3a38 0000     8:..8:..8:..8:..
    9360:	3a38 0000 3a38 0000 3a38 0000 3a38 0000     8:..8:..8:..8:..
    9370:	3a38 0000 3a38 0000 3a38 0000 3a38 0000     8:..8:..8:..8:..
    9380:	3a38 0000 3640 0000 3a38 0000 3a38 0000     8:..@6..8:..8:..
    9390:	3a38 0000 3a38 0000 3a38 0000 3a38 0000     8:..8:..8:..8:..
    93a0:	3a38 0000 3a38 0000 3a38 0000 3a38 0000     8:..8:..8:..8:..
    93b0:	3a38 0000 3a38 0000 3a38 0000 3a38 0000     8:..8:..8:..8:..
    93c0:	3a38 0000 3a38 0000 3a38 0000 3904 0000     8:..8:..8:...9..
    93d0:	3a38 0000 3a38 0000 3a38 0000 3a38 0000     8:..8:..8:..8:..
    93e0:	3a38 0000 3a38 0000 3a38 0000 3a38 0000     8:..8:..8:..8:..
    93f0:	3a38 0000 3a38 0000 357c 0000 35b0 0000     8:..8:..|5...5..
    9400:	3a38 0000 3640 0000 3a38 0000 3a38 0000     8:..@6..8:..8:..
    9410:	35b0 0000 3a38 0000 3a38 0000 3a38 0000     .5..8:..8:..8:..
    9420:	3a38 0000 3a38 0000 3898 0000 39be 0000     8:..8:...8...9..
    9430:	3a38 0000 3a38 0000 3970 0000 3a38 0000     8:..8:..p9..8:..
    9440:	382c 0000 3a38 0000 3a38 0000 3904 0000     ,8..8:..8:...9..

00009450 <GPION>:
    9450:	0800 4001 0c00 4001 1000 4001 1400 4001     ...@...@...@...@

00009460 <TIMERN>:
    9460:	2c00 4001 0000 4000 0400 4000 0800 4000     .,.@...@...@...@

00009470 <__func__.3348>:
    9470:	7073 5f69 7067 6f69 695f 696e 0074 0000     spi_gpio_init...

00009480 <UARTN>:
    9480:	3800 4001 4400 4000 4800 4000 4c00 4000     .8.@.D.@.H.@.L.@
    9490:	ccfc ffff cbee ffff cbee ffff cbec ffff     ................
    94a0:	cbf4 ffff cbf4 ffff cbba ffff cbec ffff     ................
    94b0:	cbf4 ffff cbba ffff cbf4 ffff cbec ffff     ................
    94c0:	cce8 ffff cce8 ffff cce8 ffff cbba ffff     ................
    94d0:	dd78 ffff dcca ffff dcca ffff dcc8 ffff     x...............
    94e0:	dcce ffff dcce ffff dc9e ffff dcc8 ffff     ................
    94f0:	dcce ffff dc9e ffff dcce ffff dcc8 ffff     ................
    9500:	dd66 ffff dd66 ffff dd66 ffff dc9e ffff     f...f...f.......

00009510 <__clz_tab>:
    9510:	0100 0202 0303 0303 0404 0404 0404 0404     ................
    9520:	0505 0505 0505 0505 0505 0505 0505 0505     ................
    9530:	0606 0606 0606 0606 0606 0606 0606 0606     ................
    9540:	0606 0606 0606 0606 0606 0606 0606 0606     ................
    9550:	0707 0707 0707 0707 0707 0707 0707 0707     ................
    9560:	0707 0707 0707 0707 0707 0707 0707 0707     ................
    9570:	0707 0707 0707 0707 0707 0707 0707 0707     ................
    9580:	0707 0707 0707 0707 0707 0707 0707 0707     ................
    9590:	0808 0808 0808 0808 0808 0808 0808 0808     ................
    95a0:	0808 0808 0808 0808 0808 0808 0808 0808     ................
    95b0:	0808 0808 0808 0808 0808 0808 0808 0808     ................
    95c0:	0808 0808 0808 0808 0808 0808 0808 0808     ................
    95d0:	0808 0808 0808 0808 0808 0808 0808 0808     ................
    95e0:	0808 0808 0808 0808 0808 0808 0808 0808     ................
    95f0:	0808 0808 0808 0808 0808 0808 0808 0808     ................
    9600:	0808 0808 0808 0808 0808 0808 0808 0808     ................
    9610:	202c 7566 636e 6974 6e6f 203a 0000 0000     , function: ....
    9620:	7361 6573 7472 6f69 206e 2522 2273 6620     assertion "%s" f
    9630:	6961 656c 3a64 6620 6c69 2065 2522 2273     ailed: file "%s"
    9640:	202c 696c 656e 2520 2564 2573 0a73 0000     , line %d%s%s...
    9650:	2d23 2b30 0020 0000 6c68 004c 6665 4567     #-0+ ...hlL.efgE
    9660:	4746 0000 3130 3332 3534 3736 3938 4241     FG..0123456789AB
    9670:	4443 4645 0000 0000 3130 3332 3534 3736     CDEF....01234567
    9680:	3938 6261 6463 6665 0000 0000               89abcdef....

0000968c <__sf_fake_stderr>:
	...

000096ac <__sf_fake_stdin>:
	...

000096cc <__sf_fake_stdout>:
	...
