
SLAVE.elf:     file format elf32-littleriscv
SLAVE.elf
architecture: riscv:rv32, flags 0x00000112:
EXEC_P, HAS_SYMS, D_PAGED
start address 0x00000000

Program Header:
    LOAD off    0x00001000 vaddr 0x00000000 paddr 0x00000000 align 2**12
         filesz 0x0000a018 memsz 0x0000a018 flags r-x
    LOAD off    0x0000c000 vaddr 0x20000000 paddr 0x0000a018 align 2**12
         filesz 0x00000138 memsz 0x00002854 flags rw-
    LOAD off    0x0000c800 vaddr 0x20004800 paddr 0x20004800 align 2**12
         filesz 0x00000000 memsz 0x00000800 flags rw-

Sections:
Idx Name           Size      VMA       LMA       File off  Algn  Flags
  0 .init          00000038  00000000  00000000  00001000  2**1  CONTENTS, ALLOC, LOAD, READONLY, CODE
  1 .vector        00000108  00000038  00000038  00001038  2**1  CONTENTS, ALLOC, LOAD, READONLY, CODE
  2 .text          00009ed8  00000140  00000140  00001140  2**3  CONTENTS, ALLOC, LOAD, READONLY, CODE
  3 .fini          00000000  0000a018  0000a018  0000c138  2**0  CONTENTS, ALLOC, LOAD, CODE
  4 .dalign        00000000  20000000  20000000  0000c138  2**0  CONTENTS
  5 .dlalign       00000000  0000a018  0000a018  0000c138  2**0  CONTENTS
  6 .data          00000138  20000000  0000a018  0000c000  2**2  CONTENTS, ALLOC, LOAD, DATA
  7 .bss           0000271c  20000138  0000a150  0000c138  2**2  ALLOC
  8 .stack         00000800  20004800  20004800  0000c800  2**0  ALLOC
  9 .debug_info    000186c8  00000000  00000000  0000c138  2**0  CONTENTS, READONLY, DEBUGGING
 10 .debug_abbrev  00003d28  00000000  00000000  00024800  2**0  CONTENTS, READONLY, DEBUGGING
 11 .debug_aranges 00000d58  00000000  00000000  00028528  2**3  CONTENTS, READONLY, DEBUGGING
 12 .debug_ranges  00000bb8  00000000  00000000  00029280  2**3  CONTENTS, READONLY, DEBUGGING
 13 .debug_line    0000e89c  00000000  00000000  00029e38  2**0  CONTENTS, READONLY, DEBUGGING
 14 .debug_str     0000415f  00000000  00000000  000386d4  2**0  CONTENTS, READONLY, DEBUGGING
 15 .comment       00000033  00000000  00000000  0003c833  2**0  CONTENTS, READONLY
 16 .debug_frame   00003c84  00000000  00000000  0003c868  2**2  CONTENTS, READONLY, DEBUGGING
 17 .stab          000000b4  00000000  00000000  000404ec  2**2  CONTENTS, READONLY, DEBUGGING
 18 .stabstr       00000183  00000000  00000000  000405a0  2**0  CONTENTS, READONLY, DEBUGGING
SYMBOL TABLE:
00000000 l    d  .init	00000000 .init
00000038 l    d  .vector	00000000 .vector
00000140 l    d  .text	00000000 .text
0000a018 l    d  .fini	00000000 .fini
20000000 l    d  .dalign	00000000 .dalign
0000a018 l    d  .dlalign	00000000 .dlalign
20000000 l    d  .data	00000000 .data
20000138 l    d  .bss	00000000 .bss
20004800 l    d  .stack	00000000 .stack
00000000 l    d  .debug_info	00000000 .debug_info
00000000 l    d  .debug_abbrev	00000000 .debug_abbrev
00000000 l    d  .debug_aranges	00000000 .debug_aranges
00000000 l    d  .debug_ranges	00000000 .debug_ranges
00000000 l    d  .debug_line	00000000 .debug_line
00000000 l    d  .debug_str	00000000 .debug_str
00000000 l    d  .comment	00000000 .comment
00000000 l    d  .debug_frame	00000000 .debug_frame
00000000 l    d  .stab	00000000 .stab
00000000 l    d  .stabstr	00000000 .stabstr
00000000 l    df *ABS*	00000000 ./Libraries/wch_libraries/Startup/startup_ch32v10x.o
00000038 l       .vector	00000000 _vector_base
00000000 l    df *ABS*	00000000 isr.c
00000000 l    df *ABS*	00000000 main.c
00000000 l    df *ABS*	00000000 ch32v10x_dma.c
00000000 l    df *ABS*	00000000 ch32v10x_exti.c
00000000 l    df *ABS*	00000000 ch32v10x_gpio.c
00000000 l    df *ABS*	00000000 ch32v10x_misc.c
00001452 l     F .text	00000032 NVIC_EnableIRQ
00001484 l     F .text	00000032 NVIC_DisableIRQ
000014b6 l     F .text	0000002a NVIC_SetPriority
00000000 l    df *ABS*	00000000 ch32v10x_rcc.c
20000000 l     O .data	00000010 APBAHBPrescTable
20000118 l     O .data	00000004 ADCPrescTable
00000000 l    df *ABS*	00000000 ch32v10x_spi.c
00000000 l    df *ABS*	00000000 ch32v10x_tim.c
00000000 l    df *ABS*	00000000 ch32v10x_usart.c
00000000 l    df *ABS*	00000000 SEEKFREE_18TFT.c
0000974c l     O .text	0000000f __func__.3212
00000000 l    df *ABS*	00000000 SEEKFREE_MT9V03X.c
00000000 l    df *ABS*	00000000 SEEKFREE_UART_7725.c
00000000 l    df *ABS*	00000000 zf_camera.c
00000000 l    df *ABS*	00000000 zf_gpio.c
00000000 l    df *ABS*	00000000 zf_nvic.c
00000000 l    df *ABS*	00000000 zf_pit.c
00009d5c l     O .text	00000017 __func__.3548
00000000 l    df *ABS*	00000000 zf_qtimer.c
00000000 l    df *ABS*	00000000 zf_spi.c
00009d84 l     O .text	0000000e __func__.3348
00000000 l    df *ABS*	00000000 zf_systick.c
00000000 l    df *ABS*	00000000 zf_uart.c
00000000 l    df *ABS*	00000000 board.c
00000000 l    df *ABS*	00000000 clock_config.c
0000463c l     F .text	00000140 SetSysClock
00000000 l    df *ABS*	00000000 TrackGet.c
00000000 l    df *ABS*	00000000 adddf3.c
00000000 l    df *ABS*	00000000 muldf3.c
00000000 l    df *ABS*	00000000 subdf3.c
00000000 l    df *ABS*	00000000 fixdfsi.c
00000000 l    df *ABS*	00000000 floatsidf.c
00000000 l    df *ABS*	00000000 addsf3.c
00000000 l    df *ABS*	00000000 gesf2.c
00000000 l    df *ABS*	00000000 lesf2.c
00000000 l    df *ABS*	00000000 mulsf3.c
00000000 l    df *ABS*	00000000 subsf3.c
00000000 l    df *ABS*	00000000 fixsfsi.c
00000000 l    df *ABS*	00000000 floatsisf.c
00000000 l    df *ABS*	00000000 libgcc2.c
00000000 l    df *ABS*	00000000 assert.c
00000000 l    df *ABS*	00000000 fprintf.c
00000000 l    df *ABS*	00000000 nano-vfprintf.c
000083e4 l     F .text	00000028 __sfputc_r
00000000 l    df *ABS*	00000000 nano-vfprintf_i.c
00000000 l    df *ABS*	00000000 wbuf.c
00000000 l    df *ABS*	00000000 wsetup.c
00000000 l    df *ABS*	00000000 abort.c
00000000 l    df *ABS*	00000000 fflush.c
00000000 l    df *ABS*	00000000 findfp.c
00008e1c l     F .text	0000006a std
00000000 l    df *ABS*	00000000 fwalk.c
00000000 l    df *ABS*	00000000 makebuf.c
00000000 l    df *ABS*	00000000 memchr.c
00000000 l    df *ABS*	00000000 nano-mallocr.c
00000000 l    df *ABS*	00000000 nano-mallocr.c
00000000 l    df *ABS*	00000000 sbrkr.c
00000000 l    df *ABS*	00000000 signal.c
00000000 l    df *ABS*	00000000 signalr.c
00000000 l    df *ABS*	00000000 stdio.c
00000000 l    df *ABS*	00000000 writer.c
00000000 l    df *ABS*	00000000 closer.c
00000000 l    df *ABS*	00000000 fstatr.c
00000000 l    df *ABS*	00000000 isattyr.c
00000000 l    df *ABS*	00000000 lseekr.c
00000000 l    df *ABS*	00000000 mlock.c
00000000 l    df *ABS*	00000000 readr.c
00000000 l    df *ABS*	00000000 close.c
00000000 l    df *ABS*	00000000 fstat.c
00000000 l    df *ABS*	00000000 getpid.c
00000000 l    df *ABS*	00000000 isatty.c
00000000 l    df *ABS*	00000000 kill.c
00000000 l    df *ABS*	00000000 lseek.c
00000000 l    df *ABS*	00000000 read.c
00000000 l    df *ABS*	00000000 sbrk.c
20000180 l     O .bss	00000004 heap_end.1518
00000000 l    df *ABS*	00000000 _exit.c
00000000 l    df *ABS*	00000000 SEEKFREE_FONT.c
00000000 l    df *ABS*	00000000 libgcc2.c
00000000 l    df *ABS*	00000000 impure.c
200000b8 l     O .data	00000060 impure_data
00000000 l    df *ABS*	00000000 common.c
00000000 l    df *ABS*	00000000 reent.c
00001adc g     F .text	0000003c TIM_TimeBaseStructInit
00000242 g     F .text	00000070 EXTI2_IRQHandler
20000170 g     O .bss	00000001 centre_Delta_Exceed_Cnt
000094f4 g     F .text	00000030 _isatty_r
000095b0 g     F .text	00000010 _getpid
00004bcc g     F .text	000001d2 is_Straight
00009524 g     F .text	00000034 _lseek_r
00000d0e g     F .text	00000040 DMA_Cmd
20000138 g     O .bss	00000002 slave_encoder_left
000037da g     F .text	00000082 gpio_interrupt_init
0000936e g     F .text	00000032 _kill_r
20000918 g       .data	00000000 __global_pointer$
000003be g     F .text	00000090 TIM1_CC_IRQHandler
00009420 g     F .text	00000036 __sseek
00008ed6 g     F .text	0000006c __sinit
00008aa0 g     F .text	000000c0 __swbuf_r
0000057a g     F .text	00000008 HardFault_Handler
00008e90 g     F .text	00000046 __sfmoreglue
0000955a g     F .text	00000002 __malloc_unlock
000014e0 g     F .text	000000c4 NVIC_Init
20000150 g     O .bss	00000004 sys_clk
0000056a g     F .text	00000010 NMI_Handler
000081e6 g     F .text	00000062 .hidden __fixsfsi
000002b2 g     F .text	00000010 EXTI3_IRQHandler
2000011c g     O .data	00000004 camera_type
00001be0 g     F .text	00000070 TIM_DMACmd
0000258c g     F .text	00000074 lcd_writedata_16bit
00001c50 g     F .text	0000008a TIM_ETRClockMode1Config
00005026 g     F .text	0000018e find_Inflection_B
0000234e g     F .text	00000046 USART_GetFlagStatus
000094c2 g     F .text	00000032 _fstat_r
00009d74 g     O .text	00000010 TIMERN
20002850 g     O .bss	00000004 errno
20000034 g     O .data	00000020 GET_CFG
20000138 g       .bss	00000000 _sbss
00000800 g       *ABS*	00000000 __stack_size
20000184 g     O .bss	0000000e temp_buff
00000c66 g     F .text	000000a8 DMA_Init
0000584c g     F .text	000001e8 judge_Ring
00007e5e g     F .text	00000388 .hidden __subsf3
2000014d g     O .bss	00000001 ov7725_uart_finish_flag
2000016a g     O .bss	00000002 repair_Cnt
2000015a g     O .bss	00000002 EdgeR
200001c8 g     O .bss	000024b8 mt9v03x_image
00008e86 g     F .text	0000000a _cleanup_r
00001274 g     F .text	0000013c GPIO_PinRemapConfig
000076e0 g     F .text	00000072 .hidden __floatsidf
000001e8 g     F .text	00000010 EXTI0_IRQHandler
00001b18 g     F .text	00000058 TIM_Cmd
20000160 g     O .bss	00000002 lostLeft_Sign
20000010 g     O .data	00000024 MT9V03X_CFG
2000013a g     O .bss	00000002 slave_encoder_right
000044e4 g     F .text	00000048 uart_putbuff
00009300 g     F .text	00000062 _raise_r
000095a0 g     F .text	00000010 _fstat
00004010 g     F .text	00000136 spi_init
00008384 g     F .text	0000003a __assert_func
00000038 g       .init	00000000 _einit
0000392a g     F .text	00000030 sys_recover_irq
00001f9a g     F .text	0000002e TIM_ClearITPendingBit
00007b42 g     F .text	0000008c .hidden __lesf2
00001804 g     F .text	00000046 RCC_APB2PeriphClockCmd
000047fa g     F .text	000003d2 trackBorder_Get
0000325a g     F .text	00000036 mt9v03x_vsync
0000975c g     O .text	000005f0 tft_ascii
2000268c g     O .bss	0000012c Border
000002f2 g     F .text	00000010 ADC1_2_IRQHandler
000093a0 g     F .text	00000002 _getpid_r
00001012 g     F .text	0000022a GPIO_Init
0000385c g     F .text	000000ac nvic_init
000021fc g     F .text	00000060 USART_Cmd
00002a48 g     F .text	000000cc lcd_showchar
000092d0 g     F .text	00000030 _sbrk_r
0000955c g     F .text	00000034 _read_r
00002496 g     F .text	0000004e USART_ClearITPendingBit
20000128 g     O .data	00000008 SPIN
00002600 g     F .text	00000124 lcd_set_region
0000184a g     F .text	00000046 RCC_APB1PeriphClockCmd
00006352 g     F .text	00000730 .hidden __adddf3
2000015e g     O .bss	00000002 searsh_mid_line
000095c0 g     F .text	00000010 _isatty
00003b5c g     F .text	00000170 timer_gpio_quad_init
20000130 g     O .data	00000004 _global_impure_ptr
00003060 g     F .text	000000c8 get_config
000017be g     F .text	00000046 RCC_AHBPeriphClockCmd
00000520 g     F .text	0000004a DMA1_Channel4_IRQHandler
2000013c g     O .bss	00000002 slave_position
00002724 g     F .text	00000062 lcd_clear
20000172 g     O .bss	00000002 inflection_A
00008c6c g     F .text	0000000e abort
000039ce g     F .text	0000018e timer_pit_interrupt_ms
00009600 g     F .text	00000024 _sbrk
20000176 g     O .bss	00000002 inflection_C
00000d98 g     F .text	0000005c DMA_GetFlagStatus
00000510 g     F .text	00000010 USART3_IRQHandler
00000ff2 g     F .text	00000020 EXTI_ClearITPendingBit
20002854 g       .bss	00000000 _ebss
00002394 g     F .text	00000102 USART_GetITStatus
00007678 g     F .text	00000068 .hidden __fixdfsi
20000054 g     O .data	00000064 direct_Weight
00004208 g     F .text	00000094 systick_delay
00007abc g     F .text	00000086 .hidden __gtsf2
000032be g     F .text	00000070 ov7725_cof_uart_interrupt
00009d94 g     O .text	00000010 UARTN
00002b14 g     F .text	0000012c lcd_showint8
000083be g     F .text	00000026 fprintf
000006a4 g     F .text	00000058 TIM4_IRQHandler
20000122 g     O .data	00000001 directRing_Sign
0000123c g     F .text	00000038 GPIO_WriteBit
2000014b g     O .bss	00000001 ov7725_uart_receive_num
00009fb8 g     O .text	00000020 __sf_fake_stderr
00002db8 g     F .text	00000148 lcd_displayimage032
20002854 g       .bss	00000000 end
00003ccc g     F .text	0000015e timer_quad_init
20000158 g     O .bss	00000002 EdgeL
00001f2a g     F .text	00000070 TIM_GetITStatus
000015a4 g     F .text	0000021a RCC_GetClocksFreq
000024e4 g     F .text	00000052 lcd_writeIndex
0000830e g     F .text	00000076 .hidden __clzsi2
0000840c g     F .text	00000044 __sfputs_r
00004388 g     F .text	00000106 uart_init
00009144 g     F .text	0000001a memchr
00000582 g     F .text	0000003a get_sensor_data
00001fc8 g     F .text	00000234 USART_Init
0000915e g     F .text	000000a4 _free_r
00000476 g     F .text	00000030 TIM3_IRQHandler
000039a2 g     F .text	0000002c EnableGlobalIRQ
0000429c g     F .text	000000ec uart_gpio_init
00000366 g     F .text	00000058 TIM1_TRG_COM_IRQHandler
2000015c g     O .bss	00000002 validLine
00003364 g     F .text	0000002e ov7725_uart_dma
20000194 g     O .bss	00000032 half_Width
00000000 g       .init	00000000 _start
20000164 g     O .bss	00000002 leftLostLine_Cnt
000095e0 g     F .text	00000010 _lseek
2000014c g     O .bss	00000001 ov7725_uart_receive_flag
00003392 g     F .text	0000015a camera_dma_init
00001d56 g     F .text	0000004e TIM_SelectInputTrigger
00003908 g     F .text	00000022 close_all_irq
00008248 g     F .text	000000c6 .hidden __floatsisf
000002e2 g     F .text	00000010 EXTI15_10_IRQHandler
00009d4c g     O .text	00000010 GPION
00001b70 g     F .text	00000070 TIM_ITConfig
0000225c g     F .text	000000c4 USART_ITConfig
00000e2c g     F .text	00000170 EXTI_Init
00004d9e g     F .text	00000288 find_Inflection_C
20000162 g     O .bss	00000002 lostRight_Sign
00003128 g     F .text	00000028 mt9v03x_vsync_init
00009492 g     F .text	00000030 _close_r
20000000 g       .dalign	00000000 _data_vma
00003168 g     F .text	00000070 mt9v03x_dma_init
00008b60 g     F .text	0000010c __swsetup_r
000002d2 g     F .text	00000010 EXTI9_5_IRQHandler
00008f42 g     F .text	000000a0 __sfp
000013b0 g     F .text	000000a2 GPIO_EXTILineConfig
0000457c g     F .text	00000048 board_init
00006a82 g     F .text	000004b8 .hidden __muldf3
000093a2 g     F .text	00000030 __sread
00002f70 g     F .text	000000f0 set_config
00009558 g     F .text	00000002 __malloc_lock
00008db6 g     F .text	00000066 _fflush_r
00000f9c g     F .text	00000056 EXTI_GetITStatus
00009fd8 g     O .text	00000020 __sf_fake_stdin
00003290 g     F .text	0000002e mt9v03x_dma
00000140 g     F .text	000000a8 memset
00002786 g     F .text	000002c2 lcd_init
000006fc g     F .text	000002de main
00007b42 g     F .text	0000008c .hidden __ltsf2
000031d8 g     F .text	00000082 mt9v03x_init
20000120 g     O .data	00000002 delta
00009456 g     F .text	00000006 __sclose
00009202 g     F .text	000000ce _malloc_r
000002c2 g     F .text	00000010 EXTI4_IRQHandler
00007bce g     F .text	00000290 .hidden __mulsf3
00001988 g     F .text	0000005a SPI_Cmd
0000395a g     F .text	00000048 DisableGlobalIRQ
20000154 g     O .bss	00000004 camera_buffer_addr
0000477c g     F .text	0000007e SystemInit
00005528 g     F .text	00000324 centre_line_get
00009e3c g     O .text	00000100 .hidden __clz_tab
00000000 g       .init	00000000 _sinit
20000174 g     O .bss	00000002 inflection_B
00007abc g     F .text	00000086 .hidden __gesf2
0000945c g     F .text	00000036 _write_r
20000143 g     O .bss	00000001 receive_num
20002680 g     O .bss	0000000c irq_status
00003150 g     F .text	00000018 mt9v03x_tim1_etr_init
000086f0 g     F .text	0000010c _printf_common
20000124 g     O .data	00000004 _impure_ptr
00000336 g     F .text	00000030 TIM1_UP_IRQHandler
20000140 g     O .bss	00000003 receive
00008c7a g     F .text	0000013c __sflush_r
0000332e g     F .text	00000036 ov7725_uart_vsync
000034ec g     F .text	0000014a camera_tim_etr_init
00005a34 g     F .text	0000091e repair_Ring
00000d4e g     F .text	0000004a DMA_ITConfig
0000044e g     F .text	00000028 TIM2_IRQHandler
20005000 g       .stack	00000000 _eusrstack
00002c40 g     F .text	00000178 lcd_showint16
20000144 g     O .bss	00000001 uart_receive_flag
00002f00 g     F .text	00000070 mt9v03x_uart_callback
20000145 g     O .bss	00000001 mt9v03x_finish_flag
00000302 g     F .text	00000034 TIM1_BRK_IRQHandler
0000904e g     F .text	00000058 __swhatbuf_r
00002320 g     F .text	0000002e USART_SendData
000001f8 g     F .text	0000004a EXTI1_IRQHandler
00001ed2 g     F .text	00000058 TIM_SelectMasterSlaveMode
000045c4 g     F .text	00000078 _write
20000138 g       .data	00000000 _edata
200027b8 g     O .bss	00000096 islost_record
00002536 g     F .text	00000056 lcd_writeData
000019e2 g     F .text	000000fa TIM_TimeBaseInit
0000a018 g       .dlalign	00000000 _data_lma
000004b6 g     F .text	0000005a USART2_IRQHandler
000093d2 g     F .text	0000004e __swrite
20000168 g     O .bss	00000001 stateRing_Sign
2000016c g     O .bss	00000004 track
000083be g     F .text	00000026 fiprintf
00008450 g     F .text	000002a0 _vfiprintf_r
00004146 g     F .text	000000c2 spi_mosi
00008fe2 g     F .text	0000006c _fwalk_reent
000095d0 g     F .text	00000010 _kill
00009ff8 g     O .text	00000020 __sf_fake_stdout
00000df4 g     F .text	00000038 DMA_ClearFlag
000095f0 g     F .text	00000010 _read
000009da  w      .text	00000000 handle_reset
00009624 g     F .text	00000002 _exit
000005bc g     F .text	000000e8 process_data
00003e2a g     F .text	00000032 timer_quad_get
000004a6 g     F .text	00000010 USART1_IRQHandler
000090a6 g     F .text	0000009e __smakebuf_r
000087fc g     F .text	000002a4 _printf_i
00001cda g     F .text	0000007c TIM_ETRConfig
2000017c g     O .bss	00000004 __malloc_sbrk_start
00001e7c g     F .text	00000056 TIM_SelectSlaveMode
0000452c g     F .text	00000050 uart_rx_irq
00001890 g     F .text	000000f8 SPI_Init
00003e82 g     F .text	0000018e spi_gpio_init
00003e5c g     F .text	00000026 timer_quad_clear
00000a58 g     F .text	0000020e DMA_DeInit
00003636 g     F .text	000001a4 gpio_init
20000178 g     O .bss	00000004 __malloc_free_list
00001da4 g     F .text	000000d8 TIM_EncoderInterfaceConfig
00006f3a g     F .text	0000073e .hidden __subdf3
00008450 g     F .text	000002a0 _vfprintf_r
0000448e g     F .text	00000056 uart_putchar
00007752 g     F .text	0000036a .hidden __addsf3
20000148 g     O .bss	00000003 ov7725_uart_receive
2000013e g     O .bss	00000002 ttt
00009590 g     F .text	00000010 _close
00009362 g     F .text	0000000c raise
20000166 g     O .bss	00000002 rightLostLine_Cnt
000051b4 g     F .text	00000374 find_Inflection_A



Disassembly of section .init:

00000000 <_sinit>:
_start():
D:\A_Dual1\Dual-core_Communication_Demo\Dual-core_Communication_Demo\SLAVE\obj/../Libraries/wch_libraries/Startup/startup_ch32v10x.S:13

	.section	.init,"ax",@progbits
	.global	_start
	.align	1
_start:
	j	handle_reset
   0:	1db0006f          	j	9da <handle_reset>
   4:	00000013          	nop
   8:	00000013          	nop
   c:	00000013          	nop
  10:	00000013          	nop
  14:	00000013          	nop
  18:	00000013          	nop
  1c:	00000013          	nop
  20:	00000013          	nop
  24:	00000013          	nop
  28:	00000013          	nop
  2c:	00000013          	nop
  30:	00000013          	nop
  34:	00100073          	ebreak

Disassembly of section .vector:

00000038 <_vector_base>:
_vector_base():
D:\A_Dual1\Dual-core_Communication_Demo\Dual-core_Communication_Demo\SLAVE\obj/../Libraries/wch_libraries/Startup/startup_ch32v10x.S:31
	.word 0x00100073
    .section    .vector,"ax",@progbits
    .align  1
_vector_base:
    .option norvc;
        j   _start
  38:	fc9ff06f          	j	0 <_sinit>
  3c:	0000                	unimp
  3e:	0000                	unimp
D:\A_Dual1\Dual-core_Communication_Demo\Dual-core_Communication_Demo\SLAVE\obj/../Libraries/wch_libraries/Startup/startup_ch32v10x.S:33
    .word   0
        j   NMI_Handler                 /* NMI Handler */
  40:	52a0006f          	j	56a <NMI_Handler>
D:\A_Dual1\Dual-core_Communication_Demo\Dual-core_Communication_Demo\SLAVE\obj/../Libraries/wch_libraries/Startup/startup_ch32v10x.S:34
        j   HardFault_Handler           /* Hard Fault Handler */
  44:	5360006f          	j	57a <HardFault_Handler>
	...
D:\A_Dual1\Dual-core_Communication_Demo\Dual-core_Communication_Demo\SLAVE\obj/../Libraries/wch_libraries/Startup/startup_ch32v10x.S:43
    .word   0
    .word   0
    .word   0
    .word   0
    .word   0
        j   SysTick_Handler            /* SysTick Handler */
  68:	f99ff06f          	j	0 <_sinit>
  6c:	0000                	unimp
  6e:	0000                	unimp
D:\A_Dual1\Dual-core_Communication_Demo\Dual-core_Communication_Demo\SLAVE\obj/../Libraries/wch_libraries/Startup/startup_ch32v10x.S:45
    .word   0
        j   SW_handler                 /* SW Handler */
  70:	f91ff06f          	j	0 <_sinit>
  74:	0000                	unimp
  76:	0000                	unimp
D:\A_Dual1\Dual-core_Communication_Demo\Dual-core_Communication_Demo\SLAVE\obj/../Libraries/wch_libraries/Startup/startup_ch32v10x.S:48
    .word   0
    /* External Interrupts */
        j   WWDG_IRQHandler            /* Window Watchdog */
  78:	f89ff06f          	j	0 <_sinit>
D:\A_Dual1\Dual-core_Communication_Demo\Dual-core_Communication_Demo\SLAVE\obj/../Libraries/wch_libraries/Startup/startup_ch32v10x.S:49
        j   PVD_IRQHandler             /* PVD through EXTI Line detect */
  7c:	f85ff06f          	j	0 <_sinit>
D:\A_Dual1\Dual-core_Communication_Demo\Dual-core_Communication_Demo\SLAVE\obj/../Libraries/wch_libraries/Startup/startup_ch32v10x.S:50
        j   TAMPER_IRQHandler          /* TAMPER */
  80:	f81ff06f          	j	0 <_sinit>
D:\A_Dual1\Dual-core_Communication_Demo\Dual-core_Communication_Demo\SLAVE\obj/../Libraries/wch_libraries/Startup/startup_ch32v10x.S:51
        j   RTC_IRQHandler             /* RTC */
  84:	f7dff06f          	j	0 <_sinit>
D:\A_Dual1\Dual-core_Communication_Demo\Dual-core_Communication_Demo\SLAVE\obj/../Libraries/wch_libraries/Startup/startup_ch32v10x.S:52
        j   FLASH_IRQHandler           /* Flash */
  88:	f79ff06f          	j	0 <_sinit>
D:\A_Dual1\Dual-core_Communication_Demo\Dual-core_Communication_Demo\SLAVE\obj/../Libraries/wch_libraries/Startup/startup_ch32v10x.S:53
        j   RCC_IRQHandler             /* RCC */
  8c:	f75ff06f          	j	0 <_sinit>
D:\A_Dual1\Dual-core_Communication_Demo\Dual-core_Communication_Demo\SLAVE\obj/../Libraries/wch_libraries/Startup/startup_ch32v10x.S:54
        j   EXTI0_IRQHandler           /* EXTI Line 0 */
  90:	1580006f          	j	1e8 <EXTI0_IRQHandler>
D:\A_Dual1\Dual-core_Communication_Demo\Dual-core_Communication_Demo\SLAVE\obj/../Libraries/wch_libraries/Startup/startup_ch32v10x.S:55
        j   EXTI1_IRQHandler           /* EXTI Line 1 */
  94:	1640006f          	j	1f8 <EXTI1_IRQHandler>
D:\A_Dual1\Dual-core_Communication_Demo\Dual-core_Communication_Demo\SLAVE\obj/../Libraries/wch_libraries/Startup/startup_ch32v10x.S:56
        j   EXTI2_IRQHandler           /* EXTI Line 2 */
  98:	1aa0006f          	j	242 <EXTI2_IRQHandler>
D:\A_Dual1\Dual-core_Communication_Demo\Dual-core_Communication_Demo\SLAVE\obj/../Libraries/wch_libraries/Startup/startup_ch32v10x.S:57
        j   EXTI3_IRQHandler           /* EXTI Line 3 */
  9c:	2160006f          	j	2b2 <EXTI3_IRQHandler>
D:\A_Dual1\Dual-core_Communication_Demo\Dual-core_Communication_Demo\SLAVE\obj/../Libraries/wch_libraries/Startup/startup_ch32v10x.S:58
        j   EXTI4_IRQHandler           /* EXTI Line 4 */
  a0:	2220006f          	j	2c2 <EXTI4_IRQHandler>
D:\A_Dual1\Dual-core_Communication_Demo\Dual-core_Communication_Demo\SLAVE\obj/../Libraries/wch_libraries/Startup/startup_ch32v10x.S:59
        j   DMA1_Channel1_IRQHandler   /* DMA1 Channel 1 */
  a4:	f5dff06f          	j	0 <_sinit>
D:\A_Dual1\Dual-core_Communication_Demo\Dual-core_Communication_Demo\SLAVE\obj/../Libraries/wch_libraries/Startup/startup_ch32v10x.S:60
        j   DMA1_Channel2_IRQHandler   /* DMA1 Channel 2 */
  a8:	f59ff06f          	j	0 <_sinit>
D:\A_Dual1\Dual-core_Communication_Demo\Dual-core_Communication_Demo\SLAVE\obj/../Libraries/wch_libraries/Startup/startup_ch32v10x.S:61
        j   DMA1_Channel3_IRQHandler   /* DMA1 Channel 3 */
  ac:	f55ff06f          	j	0 <_sinit>
D:\A_Dual1\Dual-core_Communication_Demo\Dual-core_Communication_Demo\SLAVE\obj/../Libraries/wch_libraries/Startup/startup_ch32v10x.S:62
        j   DMA1_Channel4_IRQHandler   /* DMA1 Channel 4 */
  b0:	4700006f          	j	520 <DMA1_Channel4_IRQHandler>
D:\A_Dual1\Dual-core_Communication_Demo\Dual-core_Communication_Demo\SLAVE\obj/../Libraries/wch_libraries/Startup/startup_ch32v10x.S:63
        j   DMA1_Channel5_IRQHandler   /* DMA1 Channel 5 */
  b4:	f4dff06f          	j	0 <_sinit>
D:\A_Dual1\Dual-core_Communication_Demo\Dual-core_Communication_Demo\SLAVE\obj/../Libraries/wch_libraries/Startup/startup_ch32v10x.S:64
        j   DMA1_Channel6_IRQHandler   /* DMA1 Channel 6 */
  b8:	f49ff06f          	j	0 <_sinit>
D:\A_Dual1\Dual-core_Communication_Demo\Dual-core_Communication_Demo\SLAVE\obj/../Libraries/wch_libraries/Startup/startup_ch32v10x.S:65
        j   DMA1_Channel7_IRQHandler   /* DMA1 Channel 7 */
  bc:	f45ff06f          	j	0 <_sinit>
D:\A_Dual1\Dual-core_Communication_Demo\Dual-core_Communication_Demo\SLAVE\obj/../Libraries/wch_libraries/Startup/startup_ch32v10x.S:66
        j   ADC1_2_IRQHandler          /* ADC1_2 */
  c0:	2320006f          	j	2f2 <ADC1_2_IRQHandler>
	...
D:\A_Dual1\Dual-core_Communication_Demo\Dual-core_Communication_Demo\SLAVE\obj/../Libraries/wch_libraries/Startup/startup_ch32v10x.S:71
        .word   0
        .word   0
        .word   0
        .word   0
        j   EXTI9_5_IRQHandler         /* EXTI Line 9..5 */
  d4:	1fe0006f          	j	2d2 <EXTI9_5_IRQHandler>
D:\A_Dual1\Dual-core_Communication_Demo\Dual-core_Communication_Demo\SLAVE\obj/../Libraries/wch_libraries/Startup/startup_ch32v10x.S:72
        j   TIM1_BRK_IRQHandler        /* TIM1 Break */
  d8:	22a0006f          	j	302 <TIM1_BRK_IRQHandler>
D:\A_Dual1\Dual-core_Communication_Demo\Dual-core_Communication_Demo\SLAVE\obj/../Libraries/wch_libraries/Startup/startup_ch32v10x.S:73
        j   TIM1_UP_IRQHandler         /* TIM1 Update */
  dc:	25a0006f          	j	336 <TIM1_UP_IRQHandler>
D:\A_Dual1\Dual-core_Communication_Demo\Dual-core_Communication_Demo\SLAVE\obj/../Libraries/wch_libraries/Startup/startup_ch32v10x.S:74
        j   TIM1_TRG_COM_IRQHandler    /* TIM1 Trigger and Commutation */
  e0:	2860006f          	j	366 <TIM1_TRG_COM_IRQHandler>
D:\A_Dual1\Dual-core_Communication_Demo\Dual-core_Communication_Demo\SLAVE\obj/../Libraries/wch_libraries/Startup/startup_ch32v10x.S:75
        j   TIM1_CC_IRQHandler         /* TIM1 Capture Compare */
  e4:	2da0006f          	j	3be <TIM1_CC_IRQHandler>
D:\A_Dual1\Dual-core_Communication_Demo\Dual-core_Communication_Demo\SLAVE\obj/../Libraries/wch_libraries/Startup/startup_ch32v10x.S:76
        j   TIM2_IRQHandler            /* TIM2 */
  e8:	3660006f          	j	44e <TIM2_IRQHandler>
D:\A_Dual1\Dual-core_Communication_Demo\Dual-core_Communication_Demo\SLAVE\obj/../Libraries/wch_libraries/Startup/startup_ch32v10x.S:77
        j   TIM3_IRQHandler            /* TIM3 */
  ec:	38a0006f          	j	476 <TIM3_IRQHandler>
D:\A_Dual1\Dual-core_Communication_Demo\Dual-core_Communication_Demo\SLAVE\obj/../Libraries/wch_libraries/Startup/startup_ch32v10x.S:78
        j   TIM4_IRQHandler            /* TIM4 */
  f0:	5b40006f          	j	6a4 <TIM4_IRQHandler>
D:\A_Dual1\Dual-core_Communication_Demo\Dual-core_Communication_Demo\SLAVE\obj/../Libraries/wch_libraries/Startup/startup_ch32v10x.S:79
        j   I2C1_EV_IRQHandler         /* I2C1 Event */
  f4:	f0dff06f          	j	0 <_sinit>
D:\A_Dual1\Dual-core_Communication_Demo\Dual-core_Communication_Demo\SLAVE\obj/../Libraries/wch_libraries/Startup/startup_ch32v10x.S:80
        j   I2C1_ER_IRQHandler         /* I2C1 Error */
  f8:	f09ff06f          	j	0 <_sinit>
D:\A_Dual1\Dual-core_Communication_Demo\Dual-core_Communication_Demo\SLAVE\obj/../Libraries/wch_libraries/Startup/startup_ch32v10x.S:81
        j   I2C2_EV_IRQHandler         /* I2C2 Event */
  fc:	f05ff06f          	j	0 <_sinit>
D:\A_Dual1\Dual-core_Communication_Demo\Dual-core_Communication_Demo\SLAVE\obj/../Libraries/wch_libraries/Startup/startup_ch32v10x.S:82
        j   I2C2_ER_IRQHandler         /* I2C2 Error */
 100:	f01ff06f          	j	0 <_sinit>
D:\A_Dual1\Dual-core_Communication_Demo\Dual-core_Communication_Demo\SLAVE\obj/../Libraries/wch_libraries/Startup/startup_ch32v10x.S:83
        j   SPI1_IRQHandler            /* SPI1 */
 104:	efdff06f          	j	0 <_sinit>
D:\A_Dual1\Dual-core_Communication_Demo\Dual-core_Communication_Demo\SLAVE\obj/../Libraries/wch_libraries/Startup/startup_ch32v10x.S:84
        j   SPI2_IRQHandler            /* SPI2 */
 108:	ef9ff06f          	j	0 <_sinit>
D:\A_Dual1\Dual-core_Communication_Demo\Dual-core_Communication_Demo\SLAVE\obj/../Libraries/wch_libraries/Startup/startup_ch32v10x.S:85
        j   USART1_IRQHandler          /* USART1 */
 10c:	39a0006f          	j	4a6 <USART1_IRQHandler>
D:\A_Dual1\Dual-core_Communication_Demo\Dual-core_Communication_Demo\SLAVE\obj/../Libraries/wch_libraries/Startup/startup_ch32v10x.S:86
        j   USART2_IRQHandler          /* USART2 */
 110:	3a60006f          	j	4b6 <USART2_IRQHandler>
D:\A_Dual1\Dual-core_Communication_Demo\Dual-core_Communication_Demo\SLAVE\obj/../Libraries/wch_libraries/Startup/startup_ch32v10x.S:87
        j   USART3_IRQHandler          /* USART3 */
 114:	3fc0006f          	j	510 <USART3_IRQHandler>
D:\A_Dual1\Dual-core_Communication_Demo\Dual-core_Communication_Demo\SLAVE\obj/../Libraries/wch_libraries/Startup/startup_ch32v10x.S:88
        j   EXTI15_10_IRQHandler       /* EXTI Line 15..10 */
 118:	1ca0006f          	j	2e2 <EXTI15_10_IRQHandler>
D:\A_Dual1\Dual-core_Communication_Demo\Dual-core_Communication_Demo\SLAVE\obj/../Libraries/wch_libraries/Startup/startup_ch32v10x.S:89
        j   RTCAlarm_IRQHandler        /* RTC Alarm through EXTI Line */
 11c:	ee5ff06f          	j	0 <_sinit>
D:\A_Dual1\Dual-core_Communication_Demo\Dual-core_Communication_Demo\SLAVE\obj/../Libraries/wch_libraries/Startup/startup_ch32v10x.S:90
        j   USBWakeUp_IRQHandler       /* USB Wakeup from suspend */
 120:	ee1ff06f          	j	0 <_sinit>
D:\A_Dual1\Dual-core_Communication_Demo\Dual-core_Communication_Demo\SLAVE\obj/../Libraries/wch_libraries/Startup/startup_ch32v10x.S:91
        j   USBHD_IRQHandler           /* USBHD */
 124:	eddff06f          	j	0 <_sinit>
	...

Disassembly of section .text:

00000140 <memset>:
memset():
     140:	433d                	li	t1,15
     142:	872a                	mv	a4,a0
     144:	02c37363          	bgeu	t1,a2,16a <memset+0x2a>
     148:	00f77793          	andi	a5,a4,15
     14c:	efbd                	bnez	a5,1ca <memset+0x8a>
     14e:	e5ad                	bnez	a1,1b8 <memset+0x78>
     150:	ff067693          	andi	a3,a2,-16
     154:	8a3d                	andi	a2,a2,15
     156:	96ba                	add	a3,a3,a4
     158:	c30c                	sw	a1,0(a4)
     15a:	c34c                	sw	a1,4(a4)
     15c:	c70c                	sw	a1,8(a4)
     15e:	c74c                	sw	a1,12(a4)
     160:	0741                	addi	a4,a4,16
     162:	fed76be3          	bltu	a4,a3,158 <memset+0x18>
     166:	e211                	bnez	a2,16a <memset+0x2a>
     168:	8082                	ret
     16a:	40c306b3          	sub	a3,t1,a2
     16e:	068a                	slli	a3,a3,0x2
     170:	00000297          	auipc	t0,0x0
     174:	9696                	add	a3,a3,t0
     176:	00a68067          	jr	10(a3)
     17a:	00b70723          	sb	a1,14(a4)
     17e:	00b706a3          	sb	a1,13(a4)
     182:	00b70623          	sb	a1,12(a4)
     186:	00b705a3          	sb	a1,11(a4)
     18a:	00b70523          	sb	a1,10(a4)
     18e:	00b704a3          	sb	a1,9(a4)
     192:	00b70423          	sb	a1,8(a4)
     196:	00b703a3          	sb	a1,7(a4)
     19a:	00b70323          	sb	a1,6(a4)
     19e:	00b702a3          	sb	a1,5(a4)
     1a2:	00b70223          	sb	a1,4(a4)
     1a6:	00b701a3          	sb	a1,3(a4)
     1aa:	00b70123          	sb	a1,2(a4)
     1ae:	00b700a3          	sb	a1,1(a4)
     1b2:	00b70023          	sb	a1,0(a4)
     1b6:	8082                	ret
     1b8:	0ff5f593          	andi	a1,a1,255
     1bc:	00859693          	slli	a3,a1,0x8
     1c0:	8dd5                	or	a1,a1,a3
     1c2:	01059693          	slli	a3,a1,0x10
     1c6:	8dd5                	or	a1,a1,a3
     1c8:	b761                	j	150 <memset+0x10>
     1ca:	00279693          	slli	a3,a5,0x2
     1ce:	00000297          	auipc	t0,0x0
     1d2:	9696                	add	a3,a3,t0
     1d4:	8286                	mv	t0,ra
     1d6:	fa8680e7          	jalr	-88(a3)
     1da:	8096                	mv	ra,t0
     1dc:	17c1                	addi	a5,a5,-16
     1de:	8f1d                	sub	a4,a4,a5
     1e0:	963e                	add	a2,a2,a5
     1e2:	f8c374e3          	bgeu	t1,a2,16a <memset+0x2a>
     1e6:	b7a5                	j	14e <memset+0xe>

000001e8 <EXTI0_IRQHandler>:
EXTI0_IRQHandler():
D:\A_Dual1\Dual-core_Communication_Demo\Dual-core_Communication_Demo\SLAVE\obj/../USER/isr.c:63
//void RTCAlarm_IRQHandler(void) __attribute__((interrupt("WCH-Interrupt-fast")));
//void USBWakeUp_IRQHandler(void) __attribute__((interrupt("WCH-Interrupt-fast")));
//void USBHD_IRQHandler(void) __attribute__((interrupt("WCH-Interrupt-fast")));

void EXTI0_IRQHandler(void)
{
     1e8:	1141                	addi	sp,sp,-16
     1ea:	c622                	sw	s0,12(sp)
     1ec:	0800                	addi	s0,sp,16
D:\A_Dual1\Dual-core_Communication_Demo\Dual-core_Communication_Demo\SLAVE\obj/../USER/isr.c:66


}
     1ee:	0001                	nop
     1f0:	4432                	lw	s0,12(sp)
     1f2:	0141                	addi	sp,sp,16
     1f4:	30200073          	mret

000001f8 <EXTI1_IRQHandler>:
EXTI1_IRQHandler():
D:\A_Dual1\Dual-core_Communication_Demo\Dual-core_Communication_Demo\SLAVE\obj/../USER/isr.c:69

void EXTI1_IRQHandler(void)
{
     1f8:	1141                	addi	sp,sp,-16
     1fa:	c622                	sw	s0,12(sp)
     1fc:	0800                	addi	s0,sp,16
D:\A_Dual1\Dual-core_Communication_Demo\Dual-core_Communication_Demo\SLAVE\obj/../USER/isr.c:70
    if(SET == EXTI_GetITStatus(EXTI_Line1))
     1fe:	4509                	li	a0,2
     200:	59d000ef          	jal	ra,f9c <EXTI_GetITStatus>
     204:	872a                	mv	a4,a0
     206:	4785                	li	a5,1
     208:	02f71863          	bne	a4,a5,238 <EXTI1_IRQHandler+0x40>
D:\A_Dual1\Dual-core_Communication_Demo\Dual-core_Communication_Demo\SLAVE\obj/../USER/isr.c:72
    {
        if(camera_type == CAMERA_BIN_UART)
     20c:	200007b7          	lui	a5,0x20000
     210:	11c7a703          	lw	a4,284(a5) # 2000011c <camera_type>
     214:	4789                	li	a5,2
     216:	00f71563          	bne	a4,a5,220 <EXTI1_IRQHandler+0x28>
D:\A_Dual1\Dual-core_Communication_Demo\Dual-core_Communication_Demo\SLAVE\obj/../USER/isr.c:73
            ov7725_uart_vsync();
     21a:	114030ef          	jal	ra,332e <ov7725_uart_vsync>
     21e:	a811                	j	232 <EXTI1_IRQHandler+0x3a>
D:\A_Dual1\Dual-core_Communication_Demo\Dual-core_Communication_Demo\SLAVE\obj/../USER/isr.c:74
        else if(camera_type == CAMERA_GRAYSCALE)
     220:	200007b7          	lui	a5,0x20000
     224:	11c7a703          	lw	a4,284(a5) # 2000011c <camera_type>
     228:	4785                	li	a5,1
     22a:	00f71463          	bne	a4,a5,232 <EXTI1_IRQHandler+0x3a>
D:\A_Dual1\Dual-core_Communication_Demo\Dual-core_Communication_Demo\SLAVE\obj/../USER/isr.c:75
            mt9v03x_vsync();
     22e:	02c030ef          	jal	ra,325a <mt9v03x_vsync>
D:\A_Dual1\Dual-core_Communication_Demo\Dual-core_Communication_Demo\SLAVE\obj/../USER/isr.c:76
        EXTI_ClearITPendingBit(EXTI_Line1);
     232:	4509                	li	a0,2
     234:	5bf000ef          	jal	ra,ff2 <EXTI_ClearITPendingBit>
D:\A_Dual1\Dual-core_Communication_Demo\Dual-core_Communication_Demo\SLAVE\obj/../USER/isr.c:79
    }

}
     238:	0001                	nop
     23a:	4432                	lw	s0,12(sp)
     23c:	0141                	addi	sp,sp,16
     23e:	30200073          	mret

00000242 <EXTI2_IRQHandler>:
EXTI2_IRQHandler():
D:\A_Dual1\Dual-core_Communication_Demo\Dual-core_Communication_Demo\SLAVE\obj/../USER/isr.c:83
extern uint8 half_Width[50];
extern uint8 Border[3][50];
void EXTI2_IRQHandler(void)
{
     242:	1101                	addi	sp,sp,-32
     244:	ce22                	sw	s0,28(sp)
     246:	1000                	addi	s0,sp,32
D:\A_Dual1\Dual-core_Communication_Demo\Dual-core_Communication_Demo\SLAVE\obj/../USER/isr.c:84
    EXTI_ClearITPendingBit(EXTI_Line2);
     248:	4511                	li	a0,4
     24a:	5a9000ef          	jal	ra,ff2 <EXTI_ClearITPendingBit>
D:\A_Dual1\Dual-core_Communication_Demo\Dual-core_Communication_Demo\SLAVE\obj/../USER/isr.c:85
    for(int i=0;i<50;i++)
     24e:	fe042623          	sw	zero,-20(s0)
     252:	a0a9                	j	29c <EXTI2_IRQHandler+0x5a>
D:\A_Dual1\Dual-core_Communication_Demo\Dual-core_Communication_Demo\SLAVE\obj/../USER/isr.c:86 (discriminator 3)
        half_Width[i]=(Border[2][i]-Border[0][i])>>1;
     254:	200027b7          	lui	a5,0x20002
     258:	fec42703          	lw	a4,-20(s0)
     25c:	68c78793          	addi	a5,a5,1676 # 2000268c <Border>
     260:	97ba                	add	a5,a5,a4
     262:	0647c783          	lbu	a5,100(a5)
     266:	86be                	mv	a3,a5
     268:	200027b7          	lui	a5,0x20002
     26c:	68c78713          	addi	a4,a5,1676 # 2000268c <Border>
     270:	fec42783          	lw	a5,-20(s0)
     274:	97ba                	add	a5,a5,a4
     276:	0007c783          	lbu	a5,0(a5)
     27a:	40f687b3          	sub	a5,a3,a5
     27e:	8785                	srai	a5,a5,0x1
     280:	0ff7f713          	andi	a4,a5,255
     284:	87c18693          	addi	a3,gp,-1924 # 20000194 <half_Width>
     288:	fec42783          	lw	a5,-20(s0)
     28c:	97b6                	add	a5,a5,a3
     28e:	00e78023          	sb	a4,0(a5)
D:\A_Dual1\Dual-core_Communication_Demo\Dual-core_Communication_Demo\SLAVE\obj/../USER/isr.c:85 (discriminator 3)
    for(int i=0;i<50;i++)
     292:	fec42783          	lw	a5,-20(s0)
     296:	0785                	addi	a5,a5,1
     298:	fef42623          	sw	a5,-20(s0)
D:\A_Dual1\Dual-core_Communication_Demo\Dual-core_Communication_Demo\SLAVE\obj/../USER/isr.c:85 (discriminator 1)
     29c:	fec42703          	lw	a4,-20(s0)
     2a0:	03100793          	li	a5,49
     2a4:	fae7d8e3          	bge	a5,a4,254 <EXTI2_IRQHandler+0x12>
D:\A_Dual1\Dual-core_Communication_Demo\Dual-core_Communication_Demo\SLAVE\obj/../USER/isr.c:87
}
     2a8:	0001                	nop
     2aa:	4472                	lw	s0,28(sp)
     2ac:	6105                	addi	sp,sp,32
     2ae:	30200073          	mret

000002b2 <EXTI3_IRQHandler>:
EXTI3_IRQHandler():
D:\A_Dual1\Dual-core_Communication_Demo\Dual-core_Communication_Demo\SLAVE\obj/../USER/isr.c:90

void EXTI3_IRQHandler(void)
{
     2b2:	1141                	addi	sp,sp,-16
     2b4:	c622                	sw	s0,12(sp)
     2b6:	0800                	addi	s0,sp,16
D:\A_Dual1\Dual-core_Communication_Demo\Dual-core_Communication_Demo\SLAVE\obj/../USER/isr.c:93


}
     2b8:	0001                	nop
     2ba:	4432                	lw	s0,12(sp)
     2bc:	0141                	addi	sp,sp,16
     2be:	30200073          	mret

000002c2 <EXTI4_IRQHandler>:
EXTI4_IRQHandler():
D:\A_Dual1\Dual-core_Communication_Demo\Dual-core_Communication_Demo\SLAVE\obj/../USER/isr.c:96

void EXTI4_IRQHandler(void)
{
     2c2:	1141                	addi	sp,sp,-16
     2c4:	c622                	sw	s0,12(sp)
     2c6:	0800                	addi	s0,sp,16
D:\A_Dual1\Dual-core_Communication_Demo\Dual-core_Communication_Demo\SLAVE\obj/../USER/isr.c:99


}
     2c8:	0001                	nop
     2ca:	4432                	lw	s0,12(sp)
     2cc:	0141                	addi	sp,sp,16
     2ce:	30200073          	mret

000002d2 <EXTI9_5_IRQHandler>:
EXTI9_5_IRQHandler():
D:\A_Dual1\Dual-core_Communication_Demo\Dual-core_Communication_Demo\SLAVE\obj/../USER/isr.c:102

void EXTI9_5_IRQHandler(void)
{
     2d2:	1141                	addi	sp,sp,-16
     2d4:	c622                	sw	s0,12(sp)
     2d6:	0800                	addi	s0,sp,16
D:\A_Dual1\Dual-core_Communication_Demo\Dual-core_Communication_Demo\SLAVE\obj/../USER/isr.c:105


}
     2d8:	0001                	nop
     2da:	4432                	lw	s0,12(sp)
     2dc:	0141                	addi	sp,sp,16
     2de:	30200073          	mret

000002e2 <EXTI15_10_IRQHandler>:
EXTI15_10_IRQHandler():
D:\A_Dual1\Dual-core_Communication_Demo\Dual-core_Communication_Demo\SLAVE\obj/../USER/isr.c:108

void EXTI15_10_IRQHandler(void)
{
     2e2:	1141                	addi	sp,sp,-16
     2e4:	c622                	sw	s0,12(sp)
     2e6:	0800                	addi	s0,sp,16
D:\A_Dual1\Dual-core_Communication_Demo\Dual-core_Communication_Demo\SLAVE\obj/../USER/isr.c:110

}
     2e8:	0001                	nop
     2ea:	4432                	lw	s0,12(sp)
     2ec:	0141                	addi	sp,sp,16
     2ee:	30200073          	mret

000002f2 <ADC1_2_IRQHandler>:
ADC1_2_IRQHandler():
D:\A_Dual1\Dual-core_Communication_Demo\Dual-core_Communication_Demo\SLAVE\obj/../USER/isr.c:113

void ADC1_2_IRQHandler(void)
{
     2f2:	1141                	addi	sp,sp,-16
     2f4:	c622                	sw	s0,12(sp)
     2f6:	0800                	addi	s0,sp,16
D:\A_Dual1\Dual-core_Communication_Demo\Dual-core_Communication_Demo\SLAVE\obj/../USER/isr.c:116


}
     2f8:	0001                	nop
     2fa:	4432                	lw	s0,12(sp)
     2fc:	0141                	addi	sp,sp,16
     2fe:	30200073          	mret

00000302 <TIM1_BRK_IRQHandler>:
TIM1_BRK_IRQHandler():
D:\A_Dual1\Dual-core_Communication_Demo\Dual-core_Communication_Demo\SLAVE\obj/../USER/isr.c:119

void TIM1_BRK_IRQHandler(void)
{
     302:	1141                	addi	sp,sp,-16
     304:	c622                	sw	s0,12(sp)
     306:	0800                	addi	s0,sp,16
D:\A_Dual1\Dual-core_Communication_Demo\Dual-core_Communication_Demo\SLAVE\obj/../USER/isr.c:120
    if(TIM_GetITStatus(TIM1, TIM_IT_Break) != RESET)
     308:	08000593          	li	a1,128
     30c:	400137b7          	lui	a5,0x40013
     310:	c0078513          	addi	a0,a5,-1024 # 40012c00 <_eusrstack+0x2000dc00>
     314:	417010ef          	jal	ra,1f2a <TIM_GetITStatus>
     318:	87aa                	mv	a5,a0
     31a:	cb89                	beqz	a5,32c <TIM1_BRK_IRQHandler+0x2a>
D:\A_Dual1\Dual-core_Communication_Demo\Dual-core_Communication_Demo\SLAVE\obj/../USER/isr.c:122
    {
        TIM_ClearITPendingBit(TIM1, TIM_IT_Break);
     31c:	08000593          	li	a1,128
     320:	400137b7          	lui	a5,0x40013
     324:	c0078513          	addi	a0,a5,-1024 # 40012c00 <_eusrstack+0x2000dc00>
     328:	473010ef          	jal	ra,1f9a <TIM_ClearITPendingBit>
D:\A_Dual1\Dual-core_Communication_Demo\Dual-core_Communication_Demo\SLAVE\obj/../USER/isr.c:125

    }
}
     32c:	0001                	nop
     32e:	4432                	lw	s0,12(sp)
     330:	0141                	addi	sp,sp,16
     332:	30200073          	mret

00000336 <TIM1_UP_IRQHandler>:
TIM1_UP_IRQHandler():
D:\A_Dual1\Dual-core_Communication_Demo\Dual-core_Communication_Demo\SLAVE\obj/../USER/isr.c:128

void TIM1_UP_IRQHandler(void)
{
     336:	1141                	addi	sp,sp,-16
     338:	c622                	sw	s0,12(sp)
     33a:	0800                	addi	s0,sp,16
D:\A_Dual1\Dual-core_Communication_Demo\Dual-core_Communication_Demo\SLAVE\obj/../USER/isr.c:129
    if(TIM_GetITStatus(TIM1, TIM_IT_Update) != RESET)
     33c:	4585                	li	a1,1
     33e:	400137b7          	lui	a5,0x40013
     342:	c0078513          	addi	a0,a5,-1024 # 40012c00 <_eusrstack+0x2000dc00>
     346:	3e5010ef          	jal	ra,1f2a <TIM_GetITStatus>
     34a:	87aa                	mv	a5,a0
     34c:	cb81                	beqz	a5,35c <TIM1_UP_IRQHandler+0x26>
D:\A_Dual1\Dual-core_Communication_Demo\Dual-core_Communication_Demo\SLAVE\obj/../USER/isr.c:131
    {
        TIM_ClearITPendingBit(TIM1, TIM_IT_Update);
     34e:	4585                	li	a1,1
     350:	400137b7          	lui	a5,0x40013
     354:	c0078513          	addi	a0,a5,-1024 # 40012c00 <_eusrstack+0x2000dc00>
     358:	443010ef          	jal	ra,1f9a <TIM_ClearITPendingBit>
D:\A_Dual1\Dual-core_Communication_Demo\Dual-core_Communication_Demo\SLAVE\obj/../USER/isr.c:134

    }
}
     35c:	0001                	nop
     35e:	4432                	lw	s0,12(sp)
     360:	0141                	addi	sp,sp,16
     362:	30200073          	mret

00000366 <TIM1_TRG_COM_IRQHandler>:
TIM1_TRG_COM_IRQHandler():
D:\A_Dual1\Dual-core_Communication_Demo\Dual-core_Communication_Demo\SLAVE\obj/../USER/isr.c:137

void TIM1_TRG_COM_IRQHandler(void)
{
     366:	1141                	addi	sp,sp,-16
     368:	c622                	sw	s0,12(sp)
     36a:	0800                	addi	s0,sp,16
D:\A_Dual1\Dual-core_Communication_Demo\Dual-core_Communication_Demo\SLAVE\obj/../USER/isr.c:138
    if(TIM_GetITStatus(TIM1, TIM_IT_Trigger) != RESET)
     36c:	04000593          	li	a1,64
     370:	400137b7          	lui	a5,0x40013
     374:	c0078513          	addi	a0,a5,-1024 # 40012c00 <_eusrstack+0x2000dc00>
     378:	3b3010ef          	jal	ra,1f2a <TIM_GetITStatus>
     37c:	87aa                	mv	a5,a0
     37e:	cb89                	beqz	a5,390 <TIM1_TRG_COM_IRQHandler+0x2a>
D:\A_Dual1\Dual-core_Communication_Demo\Dual-core_Communication_Demo\SLAVE\obj/../USER/isr.c:140
    {
        TIM_ClearITPendingBit(TIM1, TIM_IT_Trigger);
     380:	04000593          	li	a1,64
     384:	400137b7          	lui	a5,0x40013
     388:	c0078513          	addi	a0,a5,-1024 # 40012c00 <_eusrstack+0x2000dc00>
     38c:	40f010ef          	jal	ra,1f9a <TIM_ClearITPendingBit>
D:\A_Dual1\Dual-core_Communication_Demo\Dual-core_Communication_Demo\SLAVE\obj/../USER/isr.c:143

    }
    if(TIM_GetITStatus(TIM1, TIM_IT_COM) != RESET)
     390:	02000593          	li	a1,32
     394:	400137b7          	lui	a5,0x40013
     398:	c0078513          	addi	a0,a5,-1024 # 40012c00 <_eusrstack+0x2000dc00>
     39c:	38f010ef          	jal	ra,1f2a <TIM_GetITStatus>
     3a0:	87aa                	mv	a5,a0
     3a2:	cb89                	beqz	a5,3b4 <TIM1_TRG_COM_IRQHandler+0x4e>
D:\A_Dual1\Dual-core_Communication_Demo\Dual-core_Communication_Demo\SLAVE\obj/../USER/isr.c:145
    {
        TIM_ClearITPendingBit(TIM1, TIM_IT_COM);
     3a4:	02000593          	li	a1,32
     3a8:	400137b7          	lui	a5,0x40013
     3ac:	c0078513          	addi	a0,a5,-1024 # 40012c00 <_eusrstack+0x2000dc00>
     3b0:	3eb010ef          	jal	ra,1f9a <TIM_ClearITPendingBit>
D:\A_Dual1\Dual-core_Communication_Demo\Dual-core_Communication_Demo\SLAVE\obj/../USER/isr.c:148

    }
}
     3b4:	0001                	nop
     3b6:	4432                	lw	s0,12(sp)
     3b8:	0141                	addi	sp,sp,16
     3ba:	30200073          	mret

000003be <TIM1_CC_IRQHandler>:
TIM1_CC_IRQHandler():
D:\A_Dual1\Dual-core_Communication_Demo\Dual-core_Communication_Demo\SLAVE\obj/../USER/isr.c:151

void TIM1_CC_IRQHandler(void)
{
     3be:	1141                	addi	sp,sp,-16
     3c0:	c622                	sw	s0,12(sp)
     3c2:	0800                	addi	s0,sp,16
D:\A_Dual1\Dual-core_Communication_Demo\Dual-core_Communication_Demo\SLAVE\obj/../USER/isr.c:152
    if(TIM_GetITStatus(TIM1, TIM_IT_CC1) != RESET)
     3c4:	4589                	li	a1,2
     3c6:	400137b7          	lui	a5,0x40013
     3ca:	c0078513          	addi	a0,a5,-1024 # 40012c00 <_eusrstack+0x2000dc00>
     3ce:	35d010ef          	jal	ra,1f2a <TIM_GetITStatus>
     3d2:	87aa                	mv	a5,a0
     3d4:	cb81                	beqz	a5,3e4 <TIM1_CC_IRQHandler+0x26>
D:\A_Dual1\Dual-core_Communication_Demo\Dual-core_Communication_Demo\SLAVE\obj/../USER/isr.c:154
    {
        TIM_ClearITPendingBit(TIM1, TIM_IT_CC1);
     3d6:	4589                	li	a1,2
     3d8:	400137b7          	lui	a5,0x40013
     3dc:	c0078513          	addi	a0,a5,-1024 # 40012c00 <_eusrstack+0x2000dc00>
     3e0:	3bb010ef          	jal	ra,1f9a <TIM_ClearITPendingBit>
D:\A_Dual1\Dual-core_Communication_Demo\Dual-core_Communication_Demo\SLAVE\obj/../USER/isr.c:157

    }
    if(TIM_GetITStatus(TIM1, TIM_IT_CC2) != RESET)
     3e4:	4591                	li	a1,4
     3e6:	400137b7          	lui	a5,0x40013
     3ea:	c0078513          	addi	a0,a5,-1024 # 40012c00 <_eusrstack+0x2000dc00>
     3ee:	33d010ef          	jal	ra,1f2a <TIM_GetITStatus>
     3f2:	87aa                	mv	a5,a0
     3f4:	cb81                	beqz	a5,404 <TIM1_CC_IRQHandler+0x46>
D:\A_Dual1\Dual-core_Communication_Demo\Dual-core_Communication_Demo\SLAVE\obj/../USER/isr.c:159
    {
        TIM_ClearITPendingBit(TIM1, TIM_IT_CC2);
     3f6:	4591                	li	a1,4
     3f8:	400137b7          	lui	a5,0x40013
     3fc:	c0078513          	addi	a0,a5,-1024 # 40012c00 <_eusrstack+0x2000dc00>
     400:	39b010ef          	jal	ra,1f9a <TIM_ClearITPendingBit>
D:\A_Dual1\Dual-core_Communication_Demo\Dual-core_Communication_Demo\SLAVE\obj/../USER/isr.c:162

    }
    if(TIM_GetITStatus(TIM1, TIM_IT_CC3) != RESET)
     404:	45a1                	li	a1,8
     406:	400137b7          	lui	a5,0x40013
     40a:	c0078513          	addi	a0,a5,-1024 # 40012c00 <_eusrstack+0x2000dc00>
     40e:	31d010ef          	jal	ra,1f2a <TIM_GetITStatus>
     412:	87aa                	mv	a5,a0
     414:	cb81                	beqz	a5,424 <TIM1_CC_IRQHandler+0x66>
D:\A_Dual1\Dual-core_Communication_Demo\Dual-core_Communication_Demo\SLAVE\obj/../USER/isr.c:164
    {
        TIM_ClearITPendingBit(TIM1, TIM_IT_CC3);
     416:	45a1                	li	a1,8
     418:	400137b7          	lui	a5,0x40013
     41c:	c0078513          	addi	a0,a5,-1024 # 40012c00 <_eusrstack+0x2000dc00>
     420:	37b010ef          	jal	ra,1f9a <TIM_ClearITPendingBit>
D:\A_Dual1\Dual-core_Communication_Demo\Dual-core_Communication_Demo\SLAVE\obj/../USER/isr.c:167

    }
    if(TIM_GetITStatus(TIM1, TIM_IT_CC4) != RESET)
     424:	45c1                	li	a1,16
     426:	400137b7          	lui	a5,0x40013
     42a:	c0078513          	addi	a0,a5,-1024 # 40012c00 <_eusrstack+0x2000dc00>
     42e:	2fd010ef          	jal	ra,1f2a <TIM_GetITStatus>
     432:	87aa                	mv	a5,a0
     434:	cb81                	beqz	a5,444 <TIM1_CC_IRQHandler+0x86>
D:\A_Dual1\Dual-core_Communication_Demo\Dual-core_Communication_Demo\SLAVE\obj/../USER/isr.c:169
    {
        TIM_ClearITPendingBit(TIM1, TIM_IT_CC4);
     436:	45c1                	li	a1,16
     438:	400137b7          	lui	a5,0x40013
     43c:	c0078513          	addi	a0,a5,-1024 # 40012c00 <_eusrstack+0x2000dc00>
     440:	35b010ef          	jal	ra,1f9a <TIM_ClearITPendingBit>
D:\A_Dual1\Dual-core_Communication_Demo\Dual-core_Communication_Demo\SLAVE\obj/../USER/isr.c:172

    }
}
     444:	0001                	nop
     446:	4432                	lw	s0,12(sp)
     448:	0141                	addi	sp,sp,16
     44a:	30200073          	mret

0000044e <TIM2_IRQHandler>:
TIM2_IRQHandler():
D:\A_Dual1\Dual-core_Communication_Demo\Dual-core_Communication_Demo\SLAVE\obj/../USER/isr.c:175

void TIM2_IRQHandler(void)
{
     44e:	1141                	addi	sp,sp,-16
     450:	c622                	sw	s0,12(sp)
     452:	0800                	addi	s0,sp,16
D:\A_Dual1\Dual-core_Communication_Demo\Dual-core_Communication_Demo\SLAVE\obj/../USER/isr.c:177

    if(TIM_GetITStatus(TIM2, TIM_IT_Update) != RESET)
     454:	4585                	li	a1,1
     456:	40000537          	lui	a0,0x40000
     45a:	2d1010ef          	jal	ra,1f2a <TIM_GetITStatus>
     45e:	87aa                	mv	a5,a0
     460:	c791                	beqz	a5,46c <TIM2_IRQHandler+0x1e>
D:\A_Dual1\Dual-core_Communication_Demo\Dual-core_Communication_Demo\SLAVE\obj/../USER/isr.c:179
    {
        TIM_ClearITPendingBit(TIM2, TIM_IT_Update );
     462:	4585                	li	a1,1
     464:	40000537          	lui	a0,0x40000
     468:	333010ef          	jal	ra,1f9a <TIM_ClearITPendingBit>
D:\A_Dual1\Dual-core_Communication_Demo\Dual-core_Communication_Demo\SLAVE\obj/../USER/isr.c:185
        //ccd_collect();//CCD
        //gpio_toggle(B5);
        //GPIO_PIN_RESET(B5);
        //GPIO_PIN_SET(B5);
    }
}
     46c:	0001                	nop
     46e:	4432                	lw	s0,12(sp)
     470:	0141                	addi	sp,sp,16
     472:	30200073          	mret

00000476 <TIM3_IRQHandler>:
TIM3_IRQHandler():
D:\A_Dual1\Dual-core_Communication_Demo\Dual-core_Communication_Demo\SLAVE\obj/../USER/isr.c:188

void TIM3_IRQHandler(void)
{
     476:	1141                	addi	sp,sp,-16
     478:	c622                	sw	s0,12(sp)
     47a:	0800                	addi	s0,sp,16
D:\A_Dual1\Dual-core_Communication_Demo\Dual-core_Communication_Demo\SLAVE\obj/../USER/isr.c:189
    if(TIM_GetITStatus(TIM3, TIM_IT_Update) != RESET)
     47c:	4585                	li	a1,1
     47e:	400007b7          	lui	a5,0x40000
     482:	40078513          	addi	a0,a5,1024 # 40000400 <_eusrstack+0x1fffb400>
     486:	2a5010ef          	jal	ra,1f2a <TIM_GetITStatus>
     48a:	87aa                	mv	a5,a0
     48c:	cb81                	beqz	a5,49c <TIM3_IRQHandler+0x26>
D:\A_Dual1\Dual-core_Communication_Demo\Dual-core_Communication_Demo\SLAVE\obj/../USER/isr.c:191
    {
        TIM_ClearITPendingBit(TIM3, TIM_IT_Update );
     48e:	4585                	li	a1,1
     490:	400007b7          	lui	a5,0x40000
     494:	40078513          	addi	a0,a5,1024 # 40000400 <_eusrstack+0x1fffb400>
     498:	303010ef          	jal	ra,1f9a <TIM_ClearITPendingBit>
D:\A_Dual1\Dual-core_Communication_Demo\Dual-core_Communication_Demo\SLAVE\obj/../USER/isr.c:194

    }
}
     49c:	0001                	nop
     49e:	4432                	lw	s0,12(sp)
     4a0:	0141                	addi	sp,sp,16
     4a2:	30200073          	mret

000004a6 <USART1_IRQHandler>:
USART1_IRQHandler():
D:\A_Dual1\Dual-core_Communication_Demo\Dual-core_Communication_Demo\SLAVE\obj/../USER/isr.c:206
//
//    }
//}

void USART1_IRQHandler(void)
{
     4a6:	1141                	addi	sp,sp,-16
     4a8:	c622                	sw	s0,12(sp)
     4aa:	0800                	addi	s0,sp,16
D:\A_Dual1\Dual-core_Communication_Demo\Dual-core_Communication_Demo\SLAVE\obj/../USER/isr.c:208

}
     4ac:	0001                	nop
     4ae:	4432                	lw	s0,12(sp)
     4b0:	0141                	addi	sp,sp,16
     4b2:	30200073          	mret

000004b6 <USART2_IRQHandler>:
USART2_IRQHandler():
D:\A_Dual1\Dual-core_Communication_Demo\Dual-core_Communication_Demo\SLAVE\obj/../USER/isr.c:211

void USART2_IRQHandler(void)
{
     4b6:	1141                	addi	sp,sp,-16
     4b8:	c622                	sw	s0,12(sp)
     4ba:	0800                	addi	s0,sp,16
D:\A_Dual1\Dual-core_Communication_Demo\Dual-core_Communication_Demo\SLAVE\obj/../USER/isr.c:212
    if(USART_GetITStatus(USART2, USART_IT_RXNE) != RESET)
     4bc:	52500593          	li	a1,1317
     4c0:	400047b7          	lui	a5,0x40004
     4c4:	40078513          	addi	a0,a5,1024 # 40004400 <_eusrstack+0x1ffff400>
     4c8:	6cd010ef          	jal	ra,2394 <USART_GetITStatus>
     4cc:	87aa                	mv	a5,a0
     4ce:	cf85                	beqz	a5,506 <USART2_IRQHandler+0x50>
D:\A_Dual1\Dual-core_Communication_Demo\Dual-core_Communication_Demo\SLAVE\obj/../USER/isr.c:214
    {
        USART_ClearITPendingBit(USART2, USART_IT_RXNE);
     4d0:	52500593          	li	a1,1317
     4d4:	400047b7          	lui	a5,0x40004
     4d8:	40078513          	addi	a0,a5,1024 # 40004400 <_eusrstack+0x1ffff400>
     4dc:	7bb010ef          	jal	ra,2496 <USART_ClearITPendingBit>
D:\A_Dual1\Dual-core_Communication_Demo\Dual-core_Communication_Demo\SLAVE\obj/../USER/isr.c:215
        if(camera_type == CAMERA_BIN_UART)
     4e0:	200007b7          	lui	a5,0x20000
     4e4:	11c7a703          	lw	a4,284(a5) # 2000011c <camera_type>
     4e8:	4789                	li	a5,2
     4ea:	00f71563          	bne	a4,a5,4f4 <USART2_IRQHandler+0x3e>
D:\A_Dual1\Dual-core_Communication_Demo\Dual-core_Communication_Demo\SLAVE\obj/../USER/isr.c:216
            ov7725_cof_uart_interrupt();
     4ee:	5d1020ef          	jal	ra,32be <ov7725_cof_uart_interrupt>
D:\A_Dual1\Dual-core_Communication_Demo\Dual-core_Communication_Demo\SLAVE\obj/../USER/isr.c:220
        else if(camera_type == CAMERA_GRAYSCALE)
            mt9v03x_uart_callback();
    }
}
     4f2:	a811                	j	506 <USART2_IRQHandler+0x50>
D:\A_Dual1\Dual-core_Communication_Demo\Dual-core_Communication_Demo\SLAVE\obj/../USER/isr.c:217
        else if(camera_type == CAMERA_GRAYSCALE)
     4f4:	200007b7          	lui	a5,0x20000
     4f8:	11c7a703          	lw	a4,284(a5) # 2000011c <camera_type>
     4fc:	4785                	li	a5,1
     4fe:	00f71463          	bne	a4,a5,506 <USART2_IRQHandler+0x50>
D:\A_Dual1\Dual-core_Communication_Demo\Dual-core_Communication_Demo\SLAVE\obj/../USER/isr.c:218
            mt9v03x_uart_callback();
     502:	1ff020ef          	jal	ra,2f00 <mt9v03x_uart_callback>
D:\A_Dual1\Dual-core_Communication_Demo\Dual-core_Communication_Demo\SLAVE\obj/../USER/isr.c:220
}
     506:	0001                	nop
     508:	4432                	lw	s0,12(sp)
     50a:	0141                	addi	sp,sp,16
     50c:	30200073          	mret

00000510 <USART3_IRQHandler>:
USART3_IRQHandler():
D:\A_Dual1\Dual-core_Communication_Demo\Dual-core_Communication_Demo\SLAVE\obj/../USER/isr.c:223

void USART3_IRQHandler(void)
{
     510:	1141                	addi	sp,sp,-16
     512:	c622                	sw	s0,12(sp)
     514:	0800                	addi	s0,sp,16
D:\A_Dual1\Dual-core_Communication_Demo\Dual-core_Communication_Demo\SLAVE\obj/../USER/isr.c:225

}
     516:	0001                	nop
     518:	4432                	lw	s0,12(sp)
     51a:	0141                	addi	sp,sp,16
     51c:	30200073          	mret

00000520 <DMA1_Channel4_IRQHandler>:
DMA1_Channel4_IRQHandler():
D:\A_Dual1\Dual-core_Communication_Demo\Dual-core_Communication_Demo\SLAVE\obj/../USER/isr.c:228

void DMA1_Channel4_IRQHandler(void)
{
     520:	1141                	addi	sp,sp,-16
     522:	c622                	sw	s0,12(sp)
     524:	0800                	addi	s0,sp,16
D:\A_Dual1\Dual-core_Communication_Demo\Dual-core_Communication_Demo\SLAVE\obj/../USER/isr.c:229
    if(SET == DMA_GetFlagStatus(DMA1_FLAG_TC4))
     526:	6509                	lui	a0,0x2
     528:	071000ef          	jal	ra,d98 <DMA_GetFlagStatus>
     52c:	872a                	mv	a4,a0
     52e:	4785                	li	a5,1
     530:	02f71863          	bne	a4,a5,560 <DMA1_Channel4_IRQHandler+0x40>
D:\A_Dual1\Dual-core_Communication_Demo\Dual-core_Communication_Demo\SLAVE\obj/../USER/isr.c:231
    {
        DMA_ClearFlag(DMA1_FLAG_TC4);
     534:	6509                	lui	a0,0x2
     536:	0bf000ef          	jal	ra,df4 <DMA_ClearFlag>
D:\A_Dual1\Dual-core_Communication_Demo\Dual-core_Communication_Demo\SLAVE\obj/../USER/isr.c:232
        if(camera_type == CAMERA_BIN_UART)
     53a:	200007b7          	lui	a5,0x20000
     53e:	11c7a703          	lw	a4,284(a5) # 2000011c <camera_type>
     542:	4789                	li	a5,2
     544:	00f71563          	bne	a4,a5,54e <DMA1_Channel4_IRQHandler+0x2e>
D:\A_Dual1\Dual-core_Communication_Demo\Dual-core_Communication_Demo\SLAVE\obj/../USER/isr.c:233
            ov7725_uart_dma();
     548:	61d020ef          	jal	ra,3364 <ov7725_uart_dma>
D:\A_Dual1\Dual-core_Communication_Demo\Dual-core_Communication_Demo\SLAVE\obj/../USER/isr.c:237
        else if(camera_type == CAMERA_GRAYSCALE)
            mt9v03x_dma();
    }
}
     54c:	a811                	j	560 <DMA1_Channel4_IRQHandler+0x40>
D:\A_Dual1\Dual-core_Communication_Demo\Dual-core_Communication_Demo\SLAVE\obj/../USER/isr.c:234
        else if(camera_type == CAMERA_GRAYSCALE)
     54e:	200007b7          	lui	a5,0x20000
     552:	11c7a703          	lw	a4,284(a5) # 2000011c <camera_type>
     556:	4785                	li	a5,1
     558:	00f71463          	bne	a4,a5,560 <DMA1_Channel4_IRQHandler+0x40>
D:\A_Dual1\Dual-core_Communication_Demo\Dual-core_Communication_Demo\SLAVE\obj/../USER/isr.c:235
            mt9v03x_dma();
     55c:	535020ef          	jal	ra,3290 <mt9v03x_dma>
D:\A_Dual1\Dual-core_Communication_Demo\Dual-core_Communication_Demo\SLAVE\obj/../USER/isr.c:237
}
     560:	0001                	nop
     562:	4432                	lw	s0,12(sp)
     564:	0141                	addi	sp,sp,16
     566:	30200073          	mret

0000056a <NMI_Handler>:
NMI_Handler():
D:\A_Dual1\Dual-core_Communication_Demo\Dual-core_Communication_Demo\SLAVE\obj/../USER/isr.c:246
* Description    : This function handles NMI exception.
* Input          : None
* Return         : None
*******************************************************************************/
void NMI_Handler(void)
{
     56a:	1141                	addi	sp,sp,-16
     56c:	c622                	sw	s0,12(sp)
     56e:	0800                	addi	s0,sp,16
D:\A_Dual1\Dual-core_Communication_Demo\Dual-core_Communication_Demo\SLAVE\obj/../USER/isr.c:248

}
     570:	0001                	nop
     572:	4432                	lw	s0,12(sp)
     574:	0141                	addi	sp,sp,16
     576:	30200073          	mret

0000057a <HardFault_Handler>:
HardFault_Handler():
D:\A_Dual1\Dual-core_Communication_Demo\Dual-core_Communication_Demo\SLAVE\obj/../USER/isr.c:257
* Description    : This function handles Hard Fault exception.
* Input          : None
* Return         : None
*******************************************************************************/
void HardFault_Handler(void)
{
     57a:	1141                	addi	sp,sp,-16
     57c:	c622                	sw	s0,12(sp)
     57e:	0800                	addi	s0,sp,16
D:\A_Dual1\Dual-core_Communication_Demo\Dual-core_Communication_Demo\SLAVE\obj/../USER/isr.c:259 (discriminator 1)

  while (1)
     580:	a001                	j	580 <HardFault_Handler+0x6>

00000582 <get_sensor_data>:
get_sensor_data():
D:\A_Dual1\Dual-core_Communication_Demo\Dual-core_Communication_Demo\SLAVE\obj/../USER/main.c:53
//  @return     void
//  @since      v1.0
//  Sample usage:
//-------------------------------------------------------------------------------------------------------------------
void get_sensor_data(void)
{
     582:	1141                	addi	sp,sp,-16
     584:	c606                	sw	ra,12(sp)
     586:	c422                	sw	s0,8(sp)
     588:	0800                	addi	s0,sp,16
D:\A_Dual1\Dual-core_Communication_Demo\Dual-core_Communication_Demo\SLAVE\obj/../USER/main.c:54
    slave_encoder_left=timer_quad_get(TIMER_2);
     58a:	4505                	li	a0,1
     58c:	09f030ef          	jal	ra,3e2a <timer_quad_get>
     590:	87aa                	mv	a5,a0
     592:	873e                	mv	a4,a5
     594:	82e19023          	sh	a4,-2016(gp) # 20000138 <_edata>
D:\A_Dual1\Dual-core_Communication_Demo\Dual-core_Communication_Demo\SLAVE\obj/../USER/main.c:55
    slave_encoder_right=timer_quad_get(TIMER_3);
     598:	4509                	li	a0,2
     59a:	091030ef          	jal	ra,3e2a <timer_quad_get>
     59e:	87aa                	mv	a5,a0
     5a0:	873e                	mv	a4,a5
     5a2:	82e19123          	sh	a4,-2014(gp) # 2000013a <slave_encoder_right>
D:\A_Dual1\Dual-core_Communication_Demo\Dual-core_Communication_Demo\SLAVE\obj/../USER/main.c:56
    timer_quad_clear(TIMER_2);
     5a6:	4505                	li	a0,1
     5a8:	0b5030ef          	jal	ra,3e5c <timer_quad_clear>
D:\A_Dual1\Dual-core_Communication_Demo\Dual-core_Communication_Demo\SLAVE\obj/../USER/main.c:57
    timer_quad_clear(TIMER_3);
     5ac:	4509                	li	a0,2
     5ae:	0af030ef          	jal	ra,3e5c <timer_quad_clear>
D:\A_Dual1\Dual-core_Communication_Demo\Dual-core_Communication_Demo\SLAVE\obj/../USER/main.c:58
}
     5b2:	0001                	nop
     5b4:	40b2                	lw	ra,12(sp)
     5b6:	4422                	lw	s0,8(sp)
     5b8:	0141                	addi	sp,sp,16
     5ba:	8082                	ret

000005bc <process_data>:
process_data():
D:\A_Dual1\Dual-core_Communication_Demo\Dual-core_Communication_Demo\SLAVE\obj/../USER/main.c:68
//  @return     void
//  @since      v1.0
//  Sample usage:
//-------------------------------------------------------------------------------------------------------------------
void process_data(void)
{
     5bc:	1141                	addi	sp,sp,-16
     5be:	c622                	sw	s0,12(sp)
     5c0:	0800                	addi	s0,sp,16
D:\A_Dual1\Dual-core_Communication_Demo\Dual-core_Communication_Demo\SLAVE\obj/../USER/main.c:69
    temp_buff[0] = 0xD8;                         //
     5c2:	fd800713          	li	a4,-40
     5c6:	86e18623          	sb	a4,-1940(gp) # 20000184 <temp_buff>
D:\A_Dual1\Dual-core_Communication_Demo\Dual-core_Communication_Demo\SLAVE\obj/../USER/main.c:71

    temp_buff[1] = 0xB0;                         //
     5ca:	86c18793          	addi	a5,gp,-1940 # 20000184 <temp_buff>
     5ce:	fb000713          	li	a4,-80
     5d2:	00e780a3          	sb	a4,1(a5)
D:\A_Dual1\Dual-core_Communication_Demo\Dual-core_Communication_Demo\SLAVE\obj/../USER/main.c:72
    temp_buff[2] = slave_encoder_left>>8;        //8
     5d6:	82019783          	lh	a5,-2016(gp) # 20000138 <_edata>
     5da:	87a1                	srai	a5,a5,0x8
     5dc:	07c2                	slli	a5,a5,0x10
     5de:	87c1                	srai	a5,a5,0x10
     5e0:	0ff7f713          	andi	a4,a5,255
     5e4:	86c18793          	addi	a5,gp,-1940 # 20000184 <temp_buff>
     5e8:	00e78123          	sb	a4,2(a5)
D:\A_Dual1\Dual-core_Communication_Demo\Dual-core_Communication_Demo\SLAVE\obj/../USER/main.c:73
    temp_buff[3] = slave_encoder_left&0xFF;      //8
     5ec:	82019783          	lh	a5,-2016(gp) # 20000138 <_edata>
     5f0:	0ff7f713          	andi	a4,a5,255
     5f4:	86c18793          	addi	a5,gp,-1940 # 20000184 <temp_buff>
     5f8:	00e781a3          	sb	a4,3(a5)
D:\A_Dual1\Dual-core_Communication_Demo\Dual-core_Communication_Demo\SLAVE\obj/../USER/main.c:75

    temp_buff[4] = 0xB1;                         //
     5fc:	86c18793          	addi	a5,gp,-1940 # 20000184 <temp_buff>
     600:	fb100713          	li	a4,-79
     604:	00e78223          	sb	a4,4(a5)
D:\A_Dual1\Dual-core_Communication_Demo\Dual-core_Communication_Demo\SLAVE\obj/../USER/main.c:76
    temp_buff[5] = slave_encoder_right>>8;       //8
     608:	82219783          	lh	a5,-2014(gp) # 2000013a <slave_encoder_right>
     60c:	87a1                	srai	a5,a5,0x8
     60e:	07c2                	slli	a5,a5,0x10
     610:	87c1                	srai	a5,a5,0x10
     612:	0ff7f713          	andi	a4,a5,255
     616:	86c18793          	addi	a5,gp,-1940 # 20000184 <temp_buff>
     61a:	00e782a3          	sb	a4,5(a5)
D:\A_Dual1\Dual-core_Communication_Demo\Dual-core_Communication_Demo\SLAVE\obj/../USER/main.c:77
    temp_buff[6] = slave_encoder_right&0xFF;     //8
     61e:	82219783          	lh	a5,-2014(gp) # 2000013a <slave_encoder_right>
     622:	0ff7f713          	andi	a4,a5,255
     626:	86c18793          	addi	a5,gp,-1940 # 20000184 <temp_buff>
     62a:	00e78323          	sb	a4,6(a5)
D:\A_Dual1\Dual-core_Communication_Demo\Dual-core_Communication_Demo\SLAVE\obj/../USER/main.c:79

    temp_buff[7] = 0xB2;                         //
     62e:	86c18793          	addi	a5,gp,-1940 # 20000184 <temp_buff>
     632:	fb200713          	li	a4,-78
     636:	00e783a3          	sb	a4,7(a5)
D:\A_Dual1\Dual-core_Communication_Demo\Dual-core_Communication_Demo\SLAVE\obj/../USER/main.c:80
    temp_buff[8] = slave_position>>8;            //8
     63a:	82419783          	lh	a5,-2012(gp) # 2000013c <slave_position>
     63e:	87a1                	srai	a5,a5,0x8
     640:	07c2                	slli	a5,a5,0x10
     642:	87c1                	srai	a5,a5,0x10
     644:	0ff7f713          	andi	a4,a5,255
     648:	86c18793          	addi	a5,gp,-1940 # 20000184 <temp_buff>
     64c:	00e78423          	sb	a4,8(a5)
D:\A_Dual1\Dual-core_Communication_Demo\Dual-core_Communication_Demo\SLAVE\obj/../USER/main.c:81
    temp_buff[9] = slave_position&0xFF;          //8
     650:	82419783          	lh	a5,-2012(gp) # 2000013c <slave_position>
     654:	0ff7f713          	andi	a4,a5,255
     658:	86c18793          	addi	a5,gp,-1940 # 20000184 <temp_buff>
     65c:	00e784a3          	sb	a4,9(a5)
D:\A_Dual1\Dual-core_Communication_Demo\Dual-core_Communication_Demo\SLAVE\obj/../USER/main.c:83

    temp_buff[10] = 0xB3;
     660:	86c18793          	addi	a5,gp,-1940 # 20000184 <temp_buff>
     664:	fb300713          	li	a4,-77
     668:	00e78523          	sb	a4,10(a5)
D:\A_Dual1\Dual-core_Communication_Demo\Dual-core_Communication_Demo\SLAVE\obj/../USER/main.c:84
    temp_buff[11] = ttt>>8;
     66c:	82619783          	lh	a5,-2010(gp) # 2000013e <ttt>
     670:	87a1                	srai	a5,a5,0x8
     672:	07c2                	slli	a5,a5,0x10
     674:	87c1                	srai	a5,a5,0x10
     676:	0ff7f713          	andi	a4,a5,255
     67a:	86c18793          	addi	a5,gp,-1940 # 20000184 <temp_buff>
     67e:	00e785a3          	sb	a4,11(a5)
D:\A_Dual1\Dual-core_Communication_Demo\Dual-core_Communication_Demo\SLAVE\obj/../USER/main.c:85
    temp_buff[12] = ttt&0xFF;
     682:	82619783          	lh	a5,-2010(gp) # 2000013e <ttt>
     686:	0ff7f713          	andi	a4,a5,255
     68a:	86c18793          	addi	a5,gp,-1940 # 20000184 <temp_buff>
     68e:	00e78623          	sb	a4,12(a5)
D:\A_Dual1\Dual-core_Communication_Demo\Dual-core_Communication_Demo\SLAVE\obj/../USER/main.c:87

    temp_buff[13] = 0xEE;                        //
     692:	86c18793          	addi	a5,gp,-1940 # 20000184 <temp_buff>
     696:	5739                	li	a4,-18
     698:	00e786a3          	sb	a4,13(a5)
D:\A_Dual1\Dual-core_Communication_Demo\Dual-core_Communication_Demo\SLAVE\obj/../USER/main.c:88
}
     69c:	0001                	nop
     69e:	4432                	lw	s0,12(sp)
     6a0:	0141                	addi	sp,sp,16
     6a2:	8082                	ret

000006a4 <TIM4_IRQHandler>:
TIM4_IRQHandler():
D:\A_Dual1\Dual-core_Communication_Demo\Dual-core_Communication_Demo\SLAVE\obj/../USER/main.c:99
//  @since      v1.0
//  Sample usage:
//-------------------------------------------------------------------------------------------------------------------
void TIM4_IRQHandler(void) __attribute__((interrupt("WCH-Interrupt-fast")));
void TIM4_IRQHandler(void)
{
     6a4:	1141                	addi	sp,sp,-16
     6a6:	c622                	sw	s0,12(sp)
     6a8:	0800                	addi	s0,sp,16
D:\A_Dual1\Dual-core_Communication_Demo\Dual-core_Communication_Demo\SLAVE\obj/../USER/main.c:100
    if(TIM_GetITStatus(TIM4, TIM_IT_Update) != RESET)
     6aa:	4585                	li	a1,1
     6ac:	400017b7          	lui	a5,0x40001
     6b0:	80078513          	addi	a0,a5,-2048 # 40000800 <_eusrstack+0x1fffb800>
     6b4:	077010ef          	jal	ra,1f2a <TIM_GetITStatus>
     6b8:	87aa                	mv	a5,a0
     6ba:	cf85                	beqz	a5,6f2 <TIM4_IRQHandler+0x4e>
D:\A_Dual1\Dual-core_Communication_Demo\Dual-core_Communication_Demo\SLAVE\obj/../USER/main.c:102
    {
        TIM_ClearITPendingBit(TIM4, TIM_IT_Update);
     6bc:	4585                	li	a1,1
     6be:	400017b7          	lui	a5,0x40001
     6c2:	80078513          	addi	a0,a5,-2048 # 40000800 <_eusrstack+0x1fffb800>
     6c6:	0d5010ef          	jal	ra,1f9a <TIM_ClearITPendingBit>
D:\A_Dual1\Dual-core_Communication_Demo\Dual-core_Communication_Demo\SLAVE\obj/../USER/main.c:103
        GPIO_PIN_SET(A0);                           //A0
     6ca:	67a9                	lui	a5,0xa
     6cc:	d4c7a783          	lw	a5,-692(a5) # 9d4c <GPION>
     6d0:	873e                	mv	a4,a5
     6d2:	4785                	li	a5,1
     6d4:	cb1c                	sw	a5,16(a4)
D:\A_Dual1\Dual-core_Communication_Demo\Dual-core_Communication_Demo\SLAVE\obj/../USER/main.c:105

        get_sensor_data();                          //
     6d6:	3575                	jal	582 <get_sensor_data>
D:\A_Dual1\Dual-core_Communication_Demo\Dual-core_Communication_Demo\SLAVE\obj/../USER/main.c:106
        process_data();                             //temp_buff
     6d8:	35d5                	jal	5bc <process_data>
D:\A_Dual1\Dual-core_Communication_Demo\Dual-core_Communication_Demo\SLAVE\obj/../USER/main.c:107
        uart_putbuff(UART_3, temp_buff, LINE_LEN);  //3
     6da:	4639                	li	a2,14
     6dc:	86c18593          	addi	a1,gp,-1940 # 20000184 <temp_buff>
     6e0:	4509                	li	a0,2
     6e2:	603030ef          	jal	ra,44e4 <uart_putbuff>
D:\A_Dual1\Dual-core_Communication_Demo\Dual-core_Communication_Demo\SLAVE\obj/../USER/main.c:109

        GPIO_PIN_RESET(A0);                         //A0
     6e6:	67a9                	lui	a5,0xa
     6e8:	d4c7a783          	lw	a5,-692(a5) # 9d4c <GPION>
     6ec:	873e                	mv	a4,a5
     6ee:	4785                	li	a5,1
     6f0:	cb5c                	sw	a5,20(a4)
D:\A_Dual1\Dual-core_Communication_Demo\Dual-core_Communication_Demo\SLAVE\obj/../USER/main.c:111
    }
}
     6f2:	0001                	nop
     6f4:	4432                	lw	s0,12(sp)
     6f6:	0141                	addi	sp,sp,16
     6f8:	30200073          	mret

000006fc <main>:
main():
D:\A_Dual1\Dual-core_Communication_Demo\Dual-core_Communication_Demo\SLAVE\obj/../USER/main.c:114

int main(void)
{
     6fc:	b2010113          	addi	sp,sp,-1248
     700:	4c112e23          	sw	ra,1244(sp)
     704:	4c812c23          	sw	s0,1240(sp)
     708:	4e010413          	addi	s0,sp,1248
     70c:	7379                	lui	t1,0xffffe
     70e:	911a                	add	sp,sp,t1
D:\A_Dual1\Dual-core_Communication_Demo\Dual-core_Communication_Demo\SLAVE\obj/../USER/main.c:115
    DisableGlobalIRQ();
     710:	24a030ef          	jal	ra,395a <DisableGlobalIRQ>
D:\A_Dual1\Dual-core_Communication_Demo\Dual-core_Communication_Demo\SLAVE\obj/../USER/main.c:116
    board_init();           //MPU  
     714:	669030ef          	jal	ra,457c <board_init>
D:\A_Dual1\Dual-core_Communication_Demo\Dual-core_Communication_Demo\SLAVE\obj/../USER/main.c:118

    lcd_init();
     718:	06e020ef          	jal	ra,2786 <lcd_init>
D:\A_Dual1\Dual-core_Communication_Demo\Dual-core_Communication_Demo\SLAVE\obj/../USER/main.c:119
    mt9v03x_init();
     71c:	2bd020ef          	jal	ra,31d8 <mt9v03x_init>
D:\A_Dual1\Dual-core_Communication_Demo\Dual-core_Communication_Demo\SLAVE\obj/../USER/main.c:121

    gpio_init(A0, GPO, 0, GPIO_PIN_CONFIG);                 //
     720:	31000693          	li	a3,784
     724:	4601                	li	a2,0
     726:	4585                	li	a1,1
     728:	4501                	li	a0,0
     72a:	70d020ef          	jal	ra,3636 <gpio_init>
D:\A_Dual1\Dual-core_Communication_Demo\Dual-core_Communication_Demo\SLAVE\obj/../USER/main.c:122
    uart_init(UART_3, 460800, UART3_TX_B10, UART3_RX_B11);  //3460800
     72e:	02100693          	li	a3,33
     732:	02000613          	li	a2,32
     736:	000717b7          	lui	a5,0x71
     73a:	80078593          	addi	a1,a5,-2048 # 70800 <_data_lma+0x667e8>
     73e:	4509                	li	a0,2
     740:	449030ef          	jal	ra,4388 <uart_init>
D:\A_Dual1\Dual-core_Communication_Demo\Dual-core_Communication_Demo\SLAVE\obj/../USER/main.c:123
    timer_pit_interrupt_ms(TIMER_4, 10);//5ms10ms  4
     744:	45a9                	li	a1,10
     746:	450d                	li	a0,3
     748:	286030ef          	jal	ra,39ce <timer_pit_interrupt_ms>
D:\A_Dual1\Dual-core_Communication_Demo\Dual-core_Communication_Demo\SLAVE\obj/../USER/main.c:125

    gpio_interrupt_init(B2, FALLING, GPIO_INT_CONFIG);       //A0GPIO 
     74c:	04800613          	li	a2,72
     750:	45b1                	li	a1,12
     752:	02200513          	li	a0,34
     756:	084030ef          	jal	ra,37da <gpio_interrupt_init>
D:\A_Dual1\Dual-core_Communication_Demo\Dual-core_Communication_Demo\SLAVE\obj/../USER/main.c:126
    nvic_init(EXTI2_IRQn, 1, 1, ENABLE);                    //EXTI011
     75a:	4685                	li	a3,1
     75c:	4605                	li	a2,1
     75e:	4585                	li	a1,1
     760:	4561                	li	a0,24
     762:	0fa030ef          	jal	ra,385c <nvic_init>
D:\A_Dual1\Dual-core_Communication_Demo\Dual-core_Communication_Demo\SLAVE\obj/../USER/main.c:128

    timer_quad_init(TIMER_2,TIMER2_CHA_A15,TIMER2_CHB_B3);//12
     766:	4615                	li	a2,5
     768:	4591                	li	a1,4
     76a:	4505                	li	a0,1
     76c:	560030ef          	jal	ra,3ccc <timer_quad_init>
D:\A_Dual1\Dual-core_Communication_Demo\Dual-core_Communication_Demo\SLAVE\obj/../USER/main.c:129
    timer_quad_init(TIMER_3,TIMER3_CHA_B4,TIMER3_CHB_B5);//23
     770:	462d                	li	a2,11
     772:	45a9                	li	a1,10
     774:	4509                	li	a0,2
     776:	556030ef          	jal	ra,3ccc <timer_quad_init>
D:\A_Dual1\Dual-core_Communication_Demo\Dual-core_Communication_Demo\SLAVE\obj/../USER/main.c:132

    //systick_delay_ms(200);
    EnableGlobalIRQ(0);
     77a:	4501                	li	a0,0
     77c:	226030ef          	jal	ra,39a2 <EnableGlobalIRQ>
D:\A_Dual1\Dual-core_Communication_Demo\Dual-core_Communication_Demo\SLAVE\obj/../USER/main.c:134
    uint8 post_image[MT9V03X_H][MT9V03X_W];
    uint8 threshold=100;
     780:	06400793          	li	a5,100
     784:	fcf40fa3          	sb	a5,-33(s0)
D:\A_Dual1\Dual-core_Communication_Demo\Dual-core_Communication_Demo\SLAVE\obj/../USER/main.c:136
    int16 slave_last;
    uint8 count=0;
     788:	fe0406a3          	sb	zero,-19(s0)
D:\A_Dual1\Dual-core_Communication_Demo\Dual-core_Communication_Demo\SLAVE\obj/../USER/main.c:139
    while(1)
    {
        if(mt9v03x_finish_flag==1)
     78c:	82d1c703          	lbu	a4,-2003(gp) # 20000145 <mt9v03x_finish_flag>
     790:	4785                	li	a5,1
     792:	fef71de3          	bne	a4,a5,78c <main+0x90>
D:\A_Dual1\Dual-core_Communication_Demo\Dual-core_Communication_Demo\SLAVE\obj/../USER/main.c:141
       {
           trackBorder_Get(threshold);//
     796:	fdf44783          	lbu	a5,-33(s0)
     79a:	853e                	mv	a0,a5
     79c:	05e040ef          	jal	ra,47fa <trackBorder_Get>
D:\A_Dual1\Dual-core_Communication_Demo\Dual-core_Communication_Demo\SLAVE\obj/../USER/main.c:143

           judge_Ring();
     7a0:	0ac050ef          	jal	ra,584c <judge_Ring>
D:\A_Dual1\Dual-core_Communication_Demo\Dual-core_Communication_Demo\SLAVE\obj/../USER/main.c:144
           repair_Ring(threshold);
     7a4:	fdf44783          	lbu	a5,-33(s0)
     7a8:	853e                	mv	a0,a5
     7aa:	28a050ef          	jal	ra,5a34 <repair_Ring>
D:\A_Dual1\Dual-core_Communication_Demo\Dual-core_Communication_Demo\SLAVE\obj/../USER/main.c:146

           if(stateRing_Sign!=4)
     7ae:	85018703          	lb	a4,-1968(gp) # 20000168 <stateRing_Sign>
     7b2:	4791                	li	a5,4
     7b4:	00f70863          	beq	a4,a5,7c4 <main+0xc8>
D:\A_Dual1\Dual-core_Communication_Demo\Dual-core_Communication_Demo\SLAVE\obj/../USER/main.c:147
               slave_position=centre_line_get();//
     7b8:	571040ef          	jal	ra,5528 <centre_line_get>
     7bc:	87aa                	mv	a5,a0
     7be:	873e                	mv	a4,a5
     7c0:	82e19223          	sh	a4,-2012(gp) # 2000013c <slave_position>
D:\A_Dual1\Dual-core_Communication_Demo\Dual-core_Communication_Demo\SLAVE\obj/../USER/main.c:149

           ttt=1;
     7c4:	4705                	li	a4,1
     7c6:	82e19323          	sh	a4,-2010(gp) # 2000013e <ttt>
D:\A_Dual1\Dual-core_Communication_Demo\Dual-core_Communication_Demo\SLAVE\obj/../USER/main.c:151

           if(count==0)//
     7ca:	fed44783          	lbu	a5,-19(s0)
     7ce:	eb89                	bnez	a5,7e0 <main+0xe4>
D:\A_Dual1\Dual-core_Communication_Demo\Dual-core_Communication_Demo\SLAVE\obj/../USER/main.c:153
          {
              slave_last=slave_position;
     7d0:	8241d783          	lhu	a5,-2012(gp) # 2000013c <slave_position>
     7d4:	fef41723          	sh	a5,-18(s0)
D:\A_Dual1\Dual-core_Communication_Demo\Dual-core_Communication_Demo\SLAVE\obj/../USER/main.c:154
              count=1;
     7d8:	4785                	li	a5,1
     7da:	fef406a3          	sb	a5,-19(s0)
     7de:	a835                	j	81a <__stack_size+0x1a>
D:\A_Dual1\Dual-core_Communication_Demo\Dual-core_Communication_Demo\SLAVE\obj/../USER/main.c:158
          }
          else
          {
              if(slave_position-slave_last>50||slave_position-slave_last<-50)
     7e0:	82419783          	lh	a5,-2012(gp) # 2000013c <slave_position>
     7e4:	873e                	mv	a4,a5
     7e6:	fee41783          	lh	a5,-18(s0)
     7ea:	8f1d                	sub	a4,a4,a5
     7ec:	03200793          	li	a5,50
     7f0:	00e7cc63          	blt	a5,a4,808 <__stack_size+0x8>
D:\A_Dual1\Dual-core_Communication_Demo\Dual-core_Communication_Demo\SLAVE\obj/../USER/main.c:158 (discriminator 1)
     7f4:	82419783          	lh	a5,-2012(gp) # 2000013c <slave_position>
     7f8:	873e                	mv	a4,a5
     7fa:	fee41783          	lh	a5,-18(s0)
     7fe:	8f1d                	sub	a4,a4,a5
     800:	fce00793          	li	a5,-50
     804:	00f75763          	bge	a4,a5,812 <__stack_size+0x12>
D:\A_Dual1\Dual-core_Communication_Demo\Dual-core_Communication_Demo\SLAVE\obj/../USER/main.c:159
                  slave_position=slave_last;
     808:	fee45703          	lhu	a4,-18(s0)
     80c:	82e19223          	sh	a4,-2012(gp) # 2000013c <slave_position>
     810:	a029                	j	81a <__stack_size+0x1a>
D:\A_Dual1\Dual-core_Communication_Demo\Dual-core_Communication_Demo\SLAVE\obj/../USER/main.c:161
              else
                  slave_last=slave_position;
     812:	8241d783          	lhu	a5,-2012(gp) # 2000013c <slave_position>
     816:	fef41723          	sh	a5,-18(s0)
D:\A_Dual1\Dual-core_Communication_Demo\Dual-core_Communication_Demo\SLAVE\obj/../USER/main.c:164
          }

           for(int i=0;i<MT9V03X_H;i++)
     81a:	fe042423          	sw	zero,-24(s0)
     81e:	a851                	j	8b2 <__stack_size+0xb2>
D:\A_Dual1\Dual-core_Communication_Demo\Dual-core_Communication_Demo\SLAVE\obj/../USER/main.c:165
               for(int j=0;j<MT9V03X_W;j++)
     820:	fe042223          	sw	zero,-28(s0)
     824:	a8a5                	j	89c <__stack_size+0x9c>
D:\A_Dual1\Dual-core_Communication_Demo\Dual-core_Communication_Demo\SLAVE\obj/../USER/main.c:167
               {
                   if(mt9v03x_image[i][j]>threshold)
     826:	200007b7          	lui	a5,0x20000
     82a:	fe842683          	lw	a3,-24(s0)
     82e:	0bc00713          	li	a4,188
     832:	02e68733          	mul	a4,a3,a4
     836:	1c878793          	addi	a5,a5,456 # 200001c8 <mt9v03x_image>
     83a:	973e                	add	a4,a4,a5
     83c:	fe442783          	lw	a5,-28(s0)
     840:	97ba                	add	a5,a5,a4
     842:	0007c783          	lbu	a5,0(a5)
     846:	fdf44703          	lbu	a4,-33(s0)
     84a:	02f77463          	bgeu	a4,a5,872 <__stack_size+0x72>
D:\A_Dual1\Dual-core_Communication_Demo\Dual-core_Communication_Demo\SLAVE\obj/../USER/main.c:168
                       post_image[i][j]=255;
     84e:	77f9                	lui	a5,0xffffe
     850:	ff040713          	addi	a4,s0,-16
     854:	973e                	add	a4,a4,a5
     856:	fe842683          	lw	a3,-24(s0)
     85a:	0bc00793          	li	a5,188
     85e:	02f687b3          	mul	a5,a3,a5
     862:	973e                	add	a4,a4,a5
     864:	fe442783          	lw	a5,-28(s0)
     868:	97ba                	add	a5,a5,a4
     86a:	577d                	li	a4,-1
     86c:	b2e78a23          	sb	a4,-1228(a5) # ffffdb34 <_eusrstack+0xdfff8b34>
     870:	a00d                	j	892 <__stack_size+0x92>
D:\A_Dual1\Dual-core_Communication_Demo\Dual-core_Communication_Demo\SLAVE\obj/../USER/main.c:170
                   else
                       post_image[i][j]=0;
     872:	77f9                	lui	a5,0xffffe
     874:	ff040713          	addi	a4,s0,-16
     878:	973e                	add	a4,a4,a5
     87a:	fe842683          	lw	a3,-24(s0)
     87e:	0bc00793          	li	a5,188
     882:	02f687b3          	mul	a5,a3,a5
     886:	973e                	add	a4,a4,a5
     888:	fe442783          	lw	a5,-28(s0)
     88c:	97ba                	add	a5,a5,a4
     88e:	b2078a23          	sb	zero,-1228(a5) # ffffdb34 <_eusrstack+0xdfff8b34>
D:\A_Dual1\Dual-core_Communication_Demo\Dual-core_Communication_Demo\SLAVE\obj/../USER/main.c:165 (discriminator 2)
               for(int j=0;j<MT9V03X_W;j++)
     892:	fe442783          	lw	a5,-28(s0)
     896:	0785                	addi	a5,a5,1
     898:	fef42223          	sw	a5,-28(s0)
D:\A_Dual1\Dual-core_Communication_Demo\Dual-core_Communication_Demo\SLAVE\obj/../USER/main.c:165 (discriminator 1)
     89c:	fe442703          	lw	a4,-28(s0)
     8a0:	0bb00793          	li	a5,187
     8a4:	f8e7d1e3          	bge	a5,a4,826 <__stack_size+0x26>
D:\A_Dual1\Dual-core_Communication_Demo\Dual-core_Communication_Demo\SLAVE\obj/../USER/main.c:164 (discriminator 2)
           for(int i=0;i<MT9V03X_H;i++)
     8a8:	fe842783          	lw	a5,-24(s0)
     8ac:	0785                	addi	a5,a5,1
     8ae:	fef42423          	sw	a5,-24(s0)
D:\A_Dual1\Dual-core_Communication_Demo\Dual-core_Communication_Demo\SLAVE\obj/../USER/main.c:164 (discriminator 1)
     8b2:	fe842703          	lw	a4,-24(s0)
     8b6:	03100793          	li	a5,49
     8ba:	f6e7d3e3          	bge	a5,a4,820 <__stack_size+0x20>
D:\A_Dual1\Dual-core_Communication_Demo\Dual-core_Communication_Demo\SLAVE\obj/../USER/main.c:173
               }

           for(int i=High-1;i>=validLine;i--)//validLine,
     8be:	03100793          	li	a5,49
     8c2:	fef42023          	sw	a5,-32(s0)
     8c6:	a06d                	j	970 <__stack_size+0x170>
D:\A_Dual1\Dual-core_Communication_Demo\Dual-core_Communication_Demo\SLAVE\obj/../USER/main.c:175 (discriminator 3)
           {
               post_image[i][Border[LEFT][i]]=0;
     8c8:	200027b7          	lui	a5,0x20002
     8cc:	fe042703          	lw	a4,-32(s0)
     8d0:	0706                	slli	a4,a4,0x1
     8d2:	68c78793          	addi	a5,a5,1676 # 2000268c <Border>
     8d6:	97ba                	add	a5,a5,a4
     8d8:	00079783          	lh	a5,0(a5)
     8dc:	863e                	mv	a2,a5
     8de:	77f9                	lui	a5,0xffffe
     8e0:	ff040713          	addi	a4,s0,-16
     8e4:	973e                	add	a4,a4,a5
     8e6:	fe042683          	lw	a3,-32(s0)
     8ea:	0bc00793          	li	a5,188
     8ee:	02f687b3          	mul	a5,a3,a5
     8f2:	97ba                	add	a5,a5,a4
     8f4:	97b2                	add	a5,a5,a2
     8f6:	b2078a23          	sb	zero,-1228(a5) # ffffdb34 <_eusrstack+0xdfff8b34>
D:\A_Dual1\Dual-core_Communication_Demo\Dual-core_Communication_Demo\SLAVE\obj/../USER/main.c:176 (discriminator 3)
               post_image[i][Border[CENTRE][i]]=0;
     8fa:	200027b7          	lui	a5,0x20002
     8fe:	fe042703          	lw	a4,-32(s0)
     902:	03270713          	addi	a4,a4,50
     906:	0706                	slli	a4,a4,0x1
     908:	68c78793          	addi	a5,a5,1676 # 2000268c <Border>
     90c:	97ba                	add	a5,a5,a4
     90e:	00079783          	lh	a5,0(a5)
     912:	863e                	mv	a2,a5
     914:	77f9                	lui	a5,0xffffe
     916:	ff040713          	addi	a4,s0,-16
     91a:	973e                	add	a4,a4,a5
     91c:	fe042683          	lw	a3,-32(s0)
     920:	0bc00793          	li	a5,188
     924:	02f687b3          	mul	a5,a3,a5
     928:	97ba                	add	a5,a5,a4
     92a:	97b2                	add	a5,a5,a2
     92c:	b2078a23          	sb	zero,-1228(a5) # ffffdb34 <_eusrstack+0xdfff8b34>
D:\A_Dual1\Dual-core_Communication_Demo\Dual-core_Communication_Demo\SLAVE\obj/../USER/main.c:177 (discriminator 3)
               post_image[i][Border[RIGHT][i]]=0;
     930:	200027b7          	lui	a5,0x20002
     934:	fe042703          	lw	a4,-32(s0)
     938:	06470713          	addi	a4,a4,100
     93c:	0706                	slli	a4,a4,0x1
     93e:	68c78793          	addi	a5,a5,1676 # 2000268c <Border>
     942:	97ba                	add	a5,a5,a4
     944:	00079783          	lh	a5,0(a5)
     948:	863e                	mv	a2,a5
     94a:	77f9                	lui	a5,0xffffe
     94c:	ff040713          	addi	a4,s0,-16
     950:	973e                	add	a4,a4,a5
     952:	fe042683          	lw	a3,-32(s0)
     956:	0bc00793          	li	a5,188
     95a:	02f687b3          	mul	a5,a3,a5
     95e:	97ba                	add	a5,a5,a4
     960:	97b2                	add	a5,a5,a2
     962:	b2078a23          	sb	zero,-1228(a5) # ffffdb34 <_eusrstack+0xdfff8b34>
D:\A_Dual1\Dual-core_Communication_Demo\Dual-core_Communication_Demo\SLAVE\obj/../USER/main.c:173 (discriminator 3)
           for(int i=High-1;i>=validLine;i--)//validLine,
     966:	fe042783          	lw	a5,-32(s0)
     96a:	17fd                	addi	a5,a5,-1
     96c:	fef42023          	sw	a5,-32(s0)
D:\A_Dual1\Dual-core_Communication_Demo\Dual-core_Communication_Demo\SLAVE\obj/../USER/main.c:173 (discriminator 1)
     970:	84419783          	lh	a5,-1980(gp) # 2000015c <validLine>
     974:	873e                	mv	a4,a5
     976:	fe042783          	lw	a5,-32(s0)
     97a:	f4e7d7e3          	bge	a5,a4,8c8 <__stack_size+0xc8>
D:\A_Dual1\Dual-core_Communication_Demo\Dual-core_Communication_Demo\SLAVE\obj/../USER/main.c:180
           }

           lcd_displayimage032(post_image[0],MT9V03X_W,MT9V03X_H);
     97e:	77f9                	lui	a5,0xffffe
     980:	b3478793          	addi	a5,a5,-1228 # ffffdb34 <_eusrstack+0xdfff8b34>
     984:	ff040713          	addi	a4,s0,-16
     988:	97ba                	add	a5,a5,a4
     98a:	03200613          	li	a2,50
     98e:	0bc00593          	li	a1,188
     992:	853e                	mv	a0,a5
     994:	424020ef          	jal	ra,2db8 <lcd_displayimage032>
D:\A_Dual1\Dual-core_Communication_Demo\Dual-core_Communication_Demo\SLAVE\obj/../USER/main.c:181
           lcd_showint8(0, 3, stateRing_Sign);
     998:	85018783          	lb	a5,-1968(gp) # 20000168 <stateRing_Sign>
     99c:	863e                	mv	a2,a5
     99e:	458d                	li	a1,3
     9a0:	4501                	li	a0,0
     9a2:	172020ef          	jal	ra,2b14 <lcd_showint8>
D:\A_Dual1\Dual-core_Communication_Demo\Dual-core_Communication_Demo\SLAVE\obj/../USER/main.c:182
           lcd_showint8(80, 3, directRing_Sign);
     9a6:	80a18783          	lb	a5,-2038(gp) # 20000122 <directRing_Sign>
     9aa:	863e                	mv	a2,a5
     9ac:	458d                	li	a1,3
     9ae:	05000513          	li	a0,80
     9b2:	162020ef          	jal	ra,2b14 <lcd_showint8>
D:\A_Dual1\Dual-core_Communication_Demo\Dual-core_Communication_Demo\SLAVE\obj/../USER/main.c:184

           lcd_showint16(0,7,validLine);
     9b6:	84419783          	lh	a5,-1980(gp) # 2000015c <validLine>
     9ba:	863e                	mv	a2,a5
     9bc:	459d                	li	a1,7
     9be:	4501                	li	a0,0
     9c0:	280020ef          	jal	ra,2c40 <lcd_showint16>
D:\A_Dual1\Dual-core_Communication_Demo\Dual-core_Communication_Demo\SLAVE\obj/../USER/main.c:185
           lcd_showint16(80, 7, slave_position);
     9c4:	82419783          	lh	a5,-2012(gp) # 2000013c <slave_position>
     9c8:	863e                	mv	a2,a5
     9ca:	459d                	li	a1,7
     9cc:	05000513          	li	a0,80
     9d0:	270020ef          	jal	ra,2c40 <lcd_showint16>
D:\A_Dual1\Dual-core_Communication_Demo\Dual-core_Communication_Demo\SLAVE\obj/../USER/main.c:186
           mt9v03x_finish_flag=0;
     9d4:	820186a3          	sb	zero,-2003(gp) # 20000145 <mt9v03x_finish_flag>
D:\A_Dual1\Dual-core_Communication_Demo\Dual-core_Communication_Demo\SLAVE\obj/../USER/main.c:139
        if(mt9v03x_finish_flag==1)
     9d8:	bb55                	j	78c <main+0x90>

000009da <handle_reset>:
handle_reset():
D:\A_Dual1\Dual-core_Communication_Demo\Dual-core_Communication_Demo\SLAVE\obj/../Libraries/wch_libraries/Startup/startup_ch32v10x.S:147
	.weak	handle_reset
	.align	1
handle_reset:
.option push 
.option	norelax 
	la gp, __global_pointer$
     9da:	20000197          	auipc	gp,0x20000
     9de:	f3e18193          	addi	gp,gp,-194 # 20000918 <__global_pointer$>
D:\A_Dual1\Dual-core_Communication_Demo\Dual-core_Communication_Demo\SLAVE\obj/../Libraries/wch_libraries/Startup/startup_ch32v10x.S:150
.option	pop 
1:
	la sp, _eusrstack 
     9e2:	20004117          	auipc	sp,0x20004
     9e6:	61e10113          	addi	sp,sp,1566 # 20005000 <_eusrstack>
D:\A_Dual1\Dual-core_Communication_Demo\Dual-core_Communication_Demo\SLAVE\obj/../Libraries/wch_libraries/Startup/startup_ch32v10x.S:153
2:
	/* Load data section from flash to RAM */
	la a0, _data_lma
     9ea:	00009517          	auipc	a0,0x9
     9ee:	62e50513          	addi	a0,a0,1582 # a018 <_data_lma>
D:\A_Dual1\Dual-core_Communication_Demo\Dual-core_Communication_Demo\SLAVE\obj/../Libraries/wch_libraries/Startup/startup_ch32v10x.S:154
	la a1, _data_vma
     9f2:	1ffff597          	auipc	a1,0x1ffff
     9f6:	60e58593          	addi	a1,a1,1550 # 20000000 <_data_vma>
D:\A_Dual1\Dual-core_Communication_Demo\Dual-core_Communication_Demo\SLAVE\obj/../Libraries/wch_libraries/Startup/startup_ch32v10x.S:155
	la a2, _edata
     9fa:	82018613          	addi	a2,gp,-2016 # 20000138 <_edata>
D:\A_Dual1\Dual-core_Communication_Demo\Dual-core_Communication_Demo\SLAVE\obj/../Libraries/wch_libraries/Startup/startup_ch32v10x.S:156
	bgeu a1, a2, 2f
     9fe:	00c5fa63          	bgeu	a1,a2,a12 <handle_reset+0x38>
D:\A_Dual1\Dual-core_Communication_Demo\Dual-core_Communication_Demo\SLAVE\obj/../Libraries/wch_libraries/Startup/startup_ch32v10x.S:158
1:
	lw t0, (a0)
     a02:	00052283          	lw	t0,0(a0)
D:\A_Dual1\Dual-core_Communication_Demo\Dual-core_Communication_Demo\SLAVE\obj/../Libraries/wch_libraries/Startup/startup_ch32v10x.S:159
	sw t0, (a1)
     a06:	0055a023          	sw	t0,0(a1)
D:\A_Dual1\Dual-core_Communication_Demo\Dual-core_Communication_Demo\SLAVE\obj/../Libraries/wch_libraries/Startup/startup_ch32v10x.S:160
	addi a0, a0, 4
     a0a:	0511                	addi	a0,a0,4
D:\A_Dual1\Dual-core_Communication_Demo\Dual-core_Communication_Demo\SLAVE\obj/../Libraries/wch_libraries/Startup/startup_ch32v10x.S:161
	addi a1, a1, 4
     a0c:	0591                	addi	a1,a1,4
D:\A_Dual1\Dual-core_Communication_Demo\Dual-core_Communication_Demo\SLAVE\obj/../Libraries/wch_libraries/Startup/startup_ch32v10x.S:162
	bltu a1, a2, 1b
     a0e:	fec5eae3          	bltu	a1,a2,a02 <handle_reset+0x28>
D:\A_Dual1\Dual-core_Communication_Demo\Dual-core_Communication_Demo\SLAVE\obj/../Libraries/wch_libraries/Startup/startup_ch32v10x.S:165
2:
	/* clear bss section */
	la a0, _sbss
     a12:	82018513          	addi	a0,gp,-2016 # 20000138 <_edata>
D:\A_Dual1\Dual-core_Communication_Demo\Dual-core_Communication_Demo\SLAVE\obj/../Libraries/wch_libraries/Startup/startup_ch32v10x.S:166
	la a1, _ebss
     a16:	20002597          	auipc	a1,0x20002
     a1a:	e3e58593          	addi	a1,a1,-450 # 20002854 <_ebss>
D:\A_Dual1\Dual-core_Communication_Demo\Dual-core_Communication_Demo\SLAVE\obj/../Libraries/wch_libraries/Startup/startup_ch32v10x.S:167
	bgeu a0, a1, 2f
     a1e:	00b57763          	bgeu	a0,a1,a2c <handle_reset+0x52>
D:\A_Dual1\Dual-core_Communication_Demo\Dual-core_Communication_Demo\SLAVE\obj/../Libraries/wch_libraries/Startup/startup_ch32v10x.S:169
1:
	sw zero, (a0)
     a22:	00052023          	sw	zero,0(a0)
D:\A_Dual1\Dual-core_Communication_Demo\Dual-core_Communication_Demo\SLAVE\obj/../Libraries/wch_libraries/Startup/startup_ch32v10x.S:170
	addi a0, a0, 4
     a26:	0511                	addi	a0,a0,4
D:\A_Dual1\Dual-core_Communication_Demo\Dual-core_Communication_Demo\SLAVE\obj/../Libraries/wch_libraries/Startup/startup_ch32v10x.S:171
	bltu a0, a1, 1b
     a28:	feb56de3          	bltu	a0,a1,a22 <handle_reset+0x48>
D:\A_Dual1\Dual-core_Communication_Demo\Dual-core_Communication_Demo\SLAVE\obj/../Libraries/wch_libraries/Startup/startup_ch32v10x.S:174
2:
	/* enable all interrupt */
  li t0, 0x88
     a2c:	08800293          	li	t0,136
D:\A_Dual1\Dual-core_Communication_Demo\Dual-core_Communication_Demo\SLAVE\obj/../Libraries/wch_libraries/Startup/startup_ch32v10x.S:175
  csrs mstatus, t0
     a30:	3002a073          	csrs	mstatus,t0
D:\A_Dual1\Dual-core_Communication_Demo\Dual-core_Communication_Demo\SLAVE\obj/../Libraries/wch_libraries/Startup/startup_ch32v10x.S:176
	la t0, _vector_base
     a34:	fffff297          	auipc	t0,0xfffff
     a38:	60428293          	addi	t0,t0,1540 # 38 <_einit>
D:\A_Dual1\Dual-core_Communication_Demo\Dual-core_Communication_Demo\SLAVE\obj/../Libraries/wch_libraries/Startup/startup_ch32v10x.S:177
  ori t0, t0, 1
     a3c:	0012e293          	ori	t0,t0,1
D:\A_Dual1\Dual-core_Communication_Demo\Dual-core_Communication_Demo\SLAVE\obj/../Libraries/wch_libraries/Startup/startup_ch32v10x.S:178
	csrw mtvec, t0
     a40:	30529073          	csrw	mtvec,t0
D:\A_Dual1\Dual-core_Communication_Demo\Dual-core_Communication_Demo\SLAVE\obj/../Libraries/wch_libraries/Startup/startup_ch32v10x.S:180

  jal  SystemInit
     a44:	539030ef          	jal	ra,477c <SystemInit>
D:\A_Dual1\Dual-core_Communication_Demo\Dual-core_Communication_Demo\SLAVE\obj/../Libraries/wch_libraries/Startup/startup_ch32v10x.S:181
	la t0, main
     a48:	00000297          	auipc	t0,0x0
     a4c:	cb428293          	addi	t0,t0,-844 # 6fc <main>
D:\A_Dual1\Dual-core_Communication_Demo\Dual-core_Communication_Demo\SLAVE\obj/../Libraries/wch_libraries/Startup/startup_ch32v10x.S:182
	csrw mepc, t0
     a50:	34129073          	csrw	mepc,t0
D:\A_Dual1\Dual-core_Communication_Demo\Dual-core_Communication_Demo\SLAVE\obj/../Libraries/wch_libraries/Startup/startup_ch32v10x.S:183
	mret
     a54:	30200073          	mret

00000a58 <DMA_DeInit>:
DMA_DeInit():
D:\A_Dual1\Dual-core_Communication_Demo\Dual-core_Communication_Demo\SLAVE\obj/../Libraries/wch_libraries/Peripheral/ch32v10x_dma.c:44
*                                1 to 7 for DMA1 and 1 to 5 for DMA2 to select the 
*                                DMA Channel.
* Return         : None
*********************************************************************************/
void DMA_DeInit(DMA_Channel_TypeDef* DMAy_Channelx)
{
     a58:	1101                	addi	sp,sp,-32
     a5a:	ce22                	sw	s0,28(sp)
     a5c:	1000                	addi	s0,sp,32
     a5e:	fea42623          	sw	a0,-20(s0)
D:\A_Dual1\Dual-core_Communication_Demo\Dual-core_Communication_Demo\SLAVE\obj/../Libraries/wch_libraries/Peripheral/ch32v10x_dma.c:45
  DMAy_Channelx->CFGR &= (uint16_t)(~DMA_CFGR1_EN);  
     a62:	fec42783          	lw	a5,-20(s0)
     a66:	4398                	lw	a4,0(a5)
     a68:	67c1                	lui	a5,0x10
     a6a:	17f9                	addi	a5,a5,-2
     a6c:	8f7d                	and	a4,a4,a5
     a6e:	fec42783          	lw	a5,-20(s0)
     a72:	c398                	sw	a4,0(a5)
D:\A_Dual1\Dual-core_Communication_Demo\Dual-core_Communication_Demo\SLAVE\obj/../Libraries/wch_libraries/Peripheral/ch32v10x_dma.c:46
  DMAy_Channelx->CFGR  = 0;
     a74:	fec42783          	lw	a5,-20(s0)
     a78:	0007a023          	sw	zero,0(a5) # 10000 <_data_lma+0x5fe8>
D:\A_Dual1\Dual-core_Communication_Demo\Dual-core_Communication_Demo\SLAVE\obj/../Libraries/wch_libraries/Peripheral/ch32v10x_dma.c:47
  DMAy_Channelx->CNTR = 0;
     a7c:	fec42783          	lw	a5,-20(s0)
     a80:	0007a223          	sw	zero,4(a5)
D:\A_Dual1\Dual-core_Communication_Demo\Dual-core_Communication_Demo\SLAVE\obj/../Libraries/wch_libraries/Peripheral/ch32v10x_dma.c:48
  DMAy_Channelx->PADDR  = 0;
     a84:	fec42783          	lw	a5,-20(s0)
     a88:	0007a423          	sw	zero,8(a5)
D:\A_Dual1\Dual-core_Communication_Demo\Dual-core_Communication_Demo\SLAVE\obj/../Libraries/wch_libraries/Peripheral/ch32v10x_dma.c:49
  DMAy_Channelx->MADDR = 0;  
     a8c:	fec42783          	lw	a5,-20(s0)
     a90:	0007a623          	sw	zero,12(a5)
D:\A_Dual1\Dual-core_Communication_Demo\Dual-core_Communication_Demo\SLAVE\obj/../Libraries/wch_libraries/Peripheral/ch32v10x_dma.c:50
  if (DMAy_Channelx == DMA1_Channel1)
     a94:	fec42703          	lw	a4,-20(s0)
     a98:	400207b7          	lui	a5,0x40020
     a9c:	07a1                	addi	a5,a5,8
     a9e:	00f71b63          	bne	a4,a5,ab4 <DMA_DeInit+0x5c>
D:\A_Dual1\Dual-core_Communication_Demo\Dual-core_Communication_Demo\SLAVE\obj/../Libraries/wch_libraries/Peripheral/ch32v10x_dma.c:52
  {
    DMA1->INTFCR |= DMA1_Channel1_IT_Mask;
     aa2:	400207b7          	lui	a5,0x40020
     aa6:	43d8                	lw	a4,4(a5)
     aa8:	400207b7          	lui	a5,0x40020
     aac:	00f76713          	ori	a4,a4,15
     ab0:	c3d8                	sw	a4,4(a5)
D:\A_Dual1\Dual-core_Communication_Demo\Dual-core_Communication_Demo\SLAVE\obj/../Libraries/wch_libraries/Peripheral/ch32v10x_dma.c:101
    if (DMAy_Channelx == DMA2_Channel5)
    {
      DMA2->INTFCR |= DMA2_Channel5_IT_Mask;
    }
  }
}
     ab2:	a275                	j	c5e <DMA_DeInit+0x206>
D:\A_Dual1\Dual-core_Communication_Demo\Dual-core_Communication_Demo\SLAVE\obj/../Libraries/wch_libraries/Peripheral/ch32v10x_dma.c:54
  else if (DMAy_Channelx == DMA1_Channel2)
     ab4:	fec42703          	lw	a4,-20(s0)
     ab8:	400207b7          	lui	a5,0x40020
     abc:	07f1                	addi	a5,a5,28
     abe:	00f71b63          	bne	a4,a5,ad4 <DMA_DeInit+0x7c>
D:\A_Dual1\Dual-core_Communication_Demo\Dual-core_Communication_Demo\SLAVE\obj/../Libraries/wch_libraries/Peripheral/ch32v10x_dma.c:56
    DMA1->INTFCR |= DMA1_Channel2_IT_Mask;
     ac2:	400207b7          	lui	a5,0x40020
     ac6:	43d8                	lw	a4,4(a5)
     ac8:	400207b7          	lui	a5,0x40020
     acc:	0f076713          	ori	a4,a4,240
     ad0:	c3d8                	sw	a4,4(a5)
D:\A_Dual1\Dual-core_Communication_Demo\Dual-core_Communication_Demo\SLAVE\obj/../Libraries/wch_libraries/Peripheral/ch32v10x_dma.c:101
}
     ad2:	a271                	j	c5e <DMA_DeInit+0x206>
D:\A_Dual1\Dual-core_Communication_Demo\Dual-core_Communication_Demo\SLAVE\obj/../Libraries/wch_libraries/Peripheral/ch32v10x_dma.c:58
  else if (DMAy_Channelx == DMA1_Channel3)
     ad4:	fec42703          	lw	a4,-20(s0)
     ad8:	400207b7          	lui	a5,0x40020
     adc:	03078793          	addi	a5,a5,48 # 40020030 <_eusrstack+0x2001b030>
     ae0:	00f71d63          	bne	a4,a5,afa <DMA_DeInit+0xa2>
D:\A_Dual1\Dual-core_Communication_Demo\Dual-core_Communication_Demo\SLAVE\obj/../Libraries/wch_libraries/Peripheral/ch32v10x_dma.c:60
    DMA1->INTFCR |= DMA1_Channel3_IT_Mask;
     ae4:	400207b7          	lui	a5,0x40020
     ae8:	43d4                	lw	a3,4(a5)
     aea:	400207b7          	lui	a5,0x40020
     aee:	6705                	lui	a4,0x1
     af0:	f0070713          	addi	a4,a4,-256 # f00 <EXTI_Init+0xd4>
     af4:	8f55                	or	a4,a4,a3
     af6:	c3d8                	sw	a4,4(a5)
D:\A_Dual1\Dual-core_Communication_Demo\Dual-core_Communication_Demo\SLAVE\obj/../Libraries/wch_libraries/Peripheral/ch32v10x_dma.c:101
}
     af8:	a29d                	j	c5e <DMA_DeInit+0x206>
D:\A_Dual1\Dual-core_Communication_Demo\Dual-core_Communication_Demo\SLAVE\obj/../Libraries/wch_libraries/Peripheral/ch32v10x_dma.c:62
  else if (DMAy_Channelx == DMA1_Channel4)
     afa:	fec42703          	lw	a4,-20(s0)
     afe:	400207b7          	lui	a5,0x40020
     b02:	04478793          	addi	a5,a5,68 # 40020044 <_eusrstack+0x2001b044>
     b06:	00f71b63          	bne	a4,a5,b1c <DMA_DeInit+0xc4>
D:\A_Dual1\Dual-core_Communication_Demo\Dual-core_Communication_Demo\SLAVE\obj/../Libraries/wch_libraries/Peripheral/ch32v10x_dma.c:64
    DMA1->INTFCR |= DMA1_Channel4_IT_Mask;
     b0a:	400207b7          	lui	a5,0x40020
     b0e:	43d4                	lw	a3,4(a5)
     b10:	400207b7          	lui	a5,0x40020
     b14:	673d                	lui	a4,0xf
     b16:	8f55                	or	a4,a4,a3
     b18:	c3d8                	sw	a4,4(a5)
D:\A_Dual1\Dual-core_Communication_Demo\Dual-core_Communication_Demo\SLAVE\obj/../Libraries/wch_libraries/Peripheral/ch32v10x_dma.c:101
}
     b1a:	a291                	j	c5e <DMA_DeInit+0x206>
D:\A_Dual1\Dual-core_Communication_Demo\Dual-core_Communication_Demo\SLAVE\obj/../Libraries/wch_libraries/Peripheral/ch32v10x_dma.c:66
  else if (DMAy_Channelx == DMA1_Channel5)
     b1c:	fec42703          	lw	a4,-20(s0)
     b20:	400207b7          	lui	a5,0x40020
     b24:	05878793          	addi	a5,a5,88 # 40020058 <_eusrstack+0x2001b058>
     b28:	00f71c63          	bne	a4,a5,b40 <DMA_DeInit+0xe8>
D:\A_Dual1\Dual-core_Communication_Demo\Dual-core_Communication_Demo\SLAVE\obj/../Libraries/wch_libraries/Peripheral/ch32v10x_dma.c:68
    DMA1->INTFCR |= DMA1_Channel5_IT_Mask;
     b2c:	400207b7          	lui	a5,0x40020
     b30:	43d4                	lw	a3,4(a5)
     b32:	400207b7          	lui	a5,0x40020
     b36:	000f0737          	lui	a4,0xf0
     b3a:	8f55                	or	a4,a4,a3
     b3c:	c3d8                	sw	a4,4(a5)
D:\A_Dual1\Dual-core_Communication_Demo\Dual-core_Communication_Demo\SLAVE\obj/../Libraries/wch_libraries/Peripheral/ch32v10x_dma.c:101
}
     b3e:	a205                	j	c5e <DMA_DeInit+0x206>
D:\A_Dual1\Dual-core_Communication_Demo\Dual-core_Communication_Demo\SLAVE\obj/../Libraries/wch_libraries/Peripheral/ch32v10x_dma.c:70
  else if (DMAy_Channelx == DMA1_Channel6)
     b40:	fec42703          	lw	a4,-20(s0)
     b44:	400207b7          	lui	a5,0x40020
     b48:	06c78793          	addi	a5,a5,108 # 4002006c <_eusrstack+0x2001b06c>
     b4c:	00f71c63          	bne	a4,a5,b64 <DMA_DeInit+0x10c>
D:\A_Dual1\Dual-core_Communication_Demo\Dual-core_Communication_Demo\SLAVE\obj/../Libraries/wch_libraries/Peripheral/ch32v10x_dma.c:72
    DMA1->INTFCR |= DMA1_Channel6_IT_Mask;
     b50:	400207b7          	lui	a5,0x40020
     b54:	43d4                	lw	a3,4(a5)
     b56:	400207b7          	lui	a5,0x40020
     b5a:	00f00737          	lui	a4,0xf00
     b5e:	8f55                	or	a4,a4,a3
     b60:	c3d8                	sw	a4,4(a5)
D:\A_Dual1\Dual-core_Communication_Demo\Dual-core_Communication_Demo\SLAVE\obj/../Libraries/wch_libraries/Peripheral/ch32v10x_dma.c:101
}
     b62:	a8f5                	j	c5e <DMA_DeInit+0x206>
D:\A_Dual1\Dual-core_Communication_Demo\Dual-core_Communication_Demo\SLAVE\obj/../Libraries/wch_libraries/Peripheral/ch32v10x_dma.c:74
  else if (DMAy_Channelx == DMA1_Channel7)
     b64:	fec42703          	lw	a4,-20(s0)
     b68:	400207b7          	lui	a5,0x40020
     b6c:	08078793          	addi	a5,a5,128 # 40020080 <_eusrstack+0x2001b080>
     b70:	00f71c63          	bne	a4,a5,b88 <DMA_DeInit+0x130>
D:\A_Dual1\Dual-core_Communication_Demo\Dual-core_Communication_Demo\SLAVE\obj/../Libraries/wch_libraries/Peripheral/ch32v10x_dma.c:76
    DMA1->INTFCR |= DMA1_Channel7_IT_Mask;
     b74:	400207b7          	lui	a5,0x40020
     b78:	43d4                	lw	a3,4(a5)
     b7a:	400207b7          	lui	a5,0x40020
     b7e:	0f000737          	lui	a4,0xf000
     b82:	8f55                	or	a4,a4,a3
     b84:	c3d8                	sw	a4,4(a5)
D:\A_Dual1\Dual-core_Communication_Demo\Dual-core_Communication_Demo\SLAVE\obj/../Libraries/wch_libraries/Peripheral/ch32v10x_dma.c:101
}
     b86:	a8e1                	j	c5e <DMA_DeInit+0x206>
D:\A_Dual1\Dual-core_Communication_Demo\Dual-core_Communication_Demo\SLAVE\obj/../Libraries/wch_libraries/Peripheral/ch32v10x_dma.c:78
  else if (DMAy_Channelx == DMA2_Channel1)
     b88:	fec42703          	lw	a4,-20(s0)
     b8c:	400207b7          	lui	a5,0x40020
     b90:	40878793          	addi	a5,a5,1032 # 40020408 <_eusrstack+0x2001b408>
     b94:	00f71f63          	bne	a4,a5,bb2 <DMA_DeInit+0x15a>
D:\A_Dual1\Dual-core_Communication_Demo\Dual-core_Communication_Demo\SLAVE\obj/../Libraries/wch_libraries/Peripheral/ch32v10x_dma.c:80
    DMA2->INTFCR |= DMA2_Channel1_IT_Mask;
     b98:	400207b7          	lui	a5,0x40020
     b9c:	40078793          	addi	a5,a5,1024 # 40020400 <_eusrstack+0x2001b400>
     ba0:	43d8                	lw	a4,4(a5)
     ba2:	400207b7          	lui	a5,0x40020
     ba6:	40078793          	addi	a5,a5,1024 # 40020400 <_eusrstack+0x2001b400>
     baa:	00f76713          	ori	a4,a4,15
     bae:	c3d8                	sw	a4,4(a5)
D:\A_Dual1\Dual-core_Communication_Demo\Dual-core_Communication_Demo\SLAVE\obj/../Libraries/wch_libraries/Peripheral/ch32v10x_dma.c:101
}
     bb0:	a07d                	j	c5e <DMA_DeInit+0x206>
D:\A_Dual1\Dual-core_Communication_Demo\Dual-core_Communication_Demo\SLAVE\obj/../Libraries/wch_libraries/Peripheral/ch32v10x_dma.c:82
  else if (DMAy_Channelx == DMA2_Channel2)
     bb2:	fec42703          	lw	a4,-20(s0)
     bb6:	400207b7          	lui	a5,0x40020
     bba:	41c78793          	addi	a5,a5,1052 # 4002041c <_eusrstack+0x2001b41c>
     bbe:	00f71f63          	bne	a4,a5,bdc <DMA_DeInit+0x184>
D:\A_Dual1\Dual-core_Communication_Demo\Dual-core_Communication_Demo\SLAVE\obj/../Libraries/wch_libraries/Peripheral/ch32v10x_dma.c:84
    DMA2->INTFCR |= DMA2_Channel2_IT_Mask;
     bc2:	400207b7          	lui	a5,0x40020
     bc6:	40078793          	addi	a5,a5,1024 # 40020400 <_eusrstack+0x2001b400>
     bca:	43d8                	lw	a4,4(a5)
     bcc:	400207b7          	lui	a5,0x40020
     bd0:	40078793          	addi	a5,a5,1024 # 40020400 <_eusrstack+0x2001b400>
     bd4:	0f076713          	ori	a4,a4,240
     bd8:	c3d8                	sw	a4,4(a5)
D:\A_Dual1\Dual-core_Communication_Demo\Dual-core_Communication_Demo\SLAVE\obj/../Libraries/wch_libraries/Peripheral/ch32v10x_dma.c:101
}
     bda:	a051                	j	c5e <DMA_DeInit+0x206>
D:\A_Dual1\Dual-core_Communication_Demo\Dual-core_Communication_Demo\SLAVE\obj/../Libraries/wch_libraries/Peripheral/ch32v10x_dma.c:86
  else if (DMAy_Channelx == DMA2_Channel3)
     bdc:	fec42703          	lw	a4,-20(s0)
     be0:	400207b7          	lui	a5,0x40020
     be4:	43078793          	addi	a5,a5,1072 # 40020430 <_eusrstack+0x2001b430>
     be8:	02f71163          	bne	a4,a5,c0a <DMA_DeInit+0x1b2>
D:\A_Dual1\Dual-core_Communication_Demo\Dual-core_Communication_Demo\SLAVE\obj/../Libraries/wch_libraries/Peripheral/ch32v10x_dma.c:88
    DMA2->INTFCR |= DMA2_Channel3_IT_Mask;
     bec:	400207b7          	lui	a5,0x40020
     bf0:	40078793          	addi	a5,a5,1024 # 40020400 <_eusrstack+0x2001b400>
     bf4:	43d4                	lw	a3,4(a5)
     bf6:	400207b7          	lui	a5,0x40020
     bfa:	40078793          	addi	a5,a5,1024 # 40020400 <_eusrstack+0x2001b400>
     bfe:	6705                	lui	a4,0x1
     c00:	f0070713          	addi	a4,a4,-256 # f00 <EXTI_Init+0xd4>
     c04:	8f55                	or	a4,a4,a3
     c06:	c3d8                	sw	a4,4(a5)
D:\A_Dual1\Dual-core_Communication_Demo\Dual-core_Communication_Demo\SLAVE\obj/../Libraries/wch_libraries/Peripheral/ch32v10x_dma.c:101
}
     c08:	a899                	j	c5e <DMA_DeInit+0x206>
D:\A_Dual1\Dual-core_Communication_Demo\Dual-core_Communication_Demo\SLAVE\obj/../Libraries/wch_libraries/Peripheral/ch32v10x_dma.c:90
  else if (DMAy_Channelx == DMA2_Channel4)
     c0a:	fec42703          	lw	a4,-20(s0)
     c0e:	400207b7          	lui	a5,0x40020
     c12:	44478793          	addi	a5,a5,1092 # 40020444 <_eusrstack+0x2001b444>
     c16:	00f71f63          	bne	a4,a5,c34 <DMA_DeInit+0x1dc>
D:\A_Dual1\Dual-core_Communication_Demo\Dual-core_Communication_Demo\SLAVE\obj/../Libraries/wch_libraries/Peripheral/ch32v10x_dma.c:92
    DMA2->INTFCR |= DMA2_Channel4_IT_Mask;
     c1a:	400207b7          	lui	a5,0x40020
     c1e:	40078793          	addi	a5,a5,1024 # 40020400 <_eusrstack+0x2001b400>
     c22:	43d4                	lw	a3,4(a5)
     c24:	400207b7          	lui	a5,0x40020
     c28:	40078793          	addi	a5,a5,1024 # 40020400 <_eusrstack+0x2001b400>
     c2c:	673d                	lui	a4,0xf
     c2e:	8f55                	or	a4,a4,a3
     c30:	c3d8                	sw	a4,4(a5)
D:\A_Dual1\Dual-core_Communication_Demo\Dual-core_Communication_Demo\SLAVE\obj/../Libraries/wch_libraries/Peripheral/ch32v10x_dma.c:101
}
     c32:	a035                	j	c5e <DMA_DeInit+0x206>
D:\A_Dual1\Dual-core_Communication_Demo\Dual-core_Communication_Demo\SLAVE\obj/../Libraries/wch_libraries/Peripheral/ch32v10x_dma.c:96
    if (DMAy_Channelx == DMA2_Channel5)
     c34:	fec42703          	lw	a4,-20(s0)
     c38:	400207b7          	lui	a5,0x40020
     c3c:	45878793          	addi	a5,a5,1112 # 40020458 <_eusrstack+0x2001b458>
     c40:	00f71f63          	bne	a4,a5,c5e <DMA_DeInit+0x206>
D:\A_Dual1\Dual-core_Communication_Demo\Dual-core_Communication_Demo\SLAVE\obj/../Libraries/wch_libraries/Peripheral/ch32v10x_dma.c:98
      DMA2->INTFCR |= DMA2_Channel5_IT_Mask;
     c44:	400207b7          	lui	a5,0x40020
     c48:	40078793          	addi	a5,a5,1024 # 40020400 <_eusrstack+0x2001b400>
     c4c:	43d4                	lw	a3,4(a5)
     c4e:	400207b7          	lui	a5,0x40020
     c52:	40078793          	addi	a5,a5,1024 # 40020400 <_eusrstack+0x2001b400>
     c56:	000f0737          	lui	a4,0xf0
     c5a:	8f55                	or	a4,a4,a3
     c5c:	c3d8                	sw	a4,4(a5)
D:\A_Dual1\Dual-core_Communication_Demo\Dual-core_Communication_Demo\SLAVE\obj/../Libraries/wch_libraries/Peripheral/ch32v10x_dma.c:101
}
     c5e:	0001                	nop
     c60:	4472                	lw	s0,28(sp)
     c62:	6105                	addi	sp,sp,32
     c64:	8082                	ret

00000c66 <DMA_Init>:
DMA_Init():
D:\A_Dual1\Dual-core_Communication_Demo\Dual-core_Communication_Demo\SLAVE\obj/../Libraries/wch_libraries/Peripheral/ch32v10x_dma.c:117
*                                 contains the configuration information for the
*                                 specified DMA Channel.
* Return         : None
*********************************************************************************/
void DMA_Init(DMA_Channel_TypeDef* DMAy_Channelx, DMA_InitTypeDef* DMA_InitStruct)
{
     c66:	7179                	addi	sp,sp,-48
     c68:	d622                	sw	s0,44(sp)
     c6a:	1800                	addi	s0,sp,48
     c6c:	fca42e23          	sw	a0,-36(s0)
     c70:	fcb42c23          	sw	a1,-40(s0)
D:\A_Dual1\Dual-core_Communication_Demo\Dual-core_Communication_Demo\SLAVE\obj/../Libraries/wch_libraries/Peripheral/ch32v10x_dma.c:118
  uint32_t tmpreg = 0;
     c74:	fe042623          	sw	zero,-20(s0)
D:\A_Dual1\Dual-core_Communication_Demo\Dual-core_Communication_Demo\SLAVE\obj/../Libraries/wch_libraries/Peripheral/ch32v10x_dma.c:120

  tmpreg = DMAy_Channelx->CFGR;
     c78:	fdc42783          	lw	a5,-36(s0)
     c7c:	439c                	lw	a5,0(a5)
     c7e:	fef42623          	sw	a5,-20(s0)
D:\A_Dual1\Dual-core_Communication_Demo\Dual-core_Communication_Demo\SLAVE\obj/../Libraries/wch_libraries/Peripheral/ch32v10x_dma.c:121
  tmpreg &= CFGR_CLEAR_Mask;
     c82:	fec42703          	lw	a4,-20(s0)
     c86:	77e1                	lui	a5,0xffff8
     c88:	07bd                	addi	a5,a5,15
     c8a:	8ff9                	and	a5,a5,a4
     c8c:	fef42623          	sw	a5,-20(s0)
D:\A_Dual1\Dual-core_Communication_Demo\Dual-core_Communication_Demo\SLAVE\obj/../Libraries/wch_libraries/Peripheral/ch32v10x_dma.c:122
  tmpreg |= DMA_InitStruct->DMA_DIR | DMA_InitStruct->DMA_Mode |
     c90:	fd842783          	lw	a5,-40(s0)
     c94:	4798                	lw	a4,8(a5)
     c96:	fd842783          	lw	a5,-40(s0)
     c9a:	539c                	lw	a5,32(a5)
     c9c:	8f5d                	or	a4,a4,a5
D:\A_Dual1\Dual-core_Communication_Demo\Dual-core_Communication_Demo\SLAVE\obj/../Libraries/wch_libraries/Peripheral/ch32v10x_dma.c:123
            DMA_InitStruct->DMA_PeripheralInc | DMA_InitStruct->DMA_MemoryInc |
     c9e:	fd842783          	lw	a5,-40(s0)
     ca2:	4b9c                	lw	a5,16(a5)
D:\A_Dual1\Dual-core_Communication_Demo\Dual-core_Communication_Demo\SLAVE\obj/../Libraries/wch_libraries/Peripheral/ch32v10x_dma.c:122
  tmpreg |= DMA_InitStruct->DMA_DIR | DMA_InitStruct->DMA_Mode |
     ca4:	8f5d                	or	a4,a4,a5
D:\A_Dual1\Dual-core_Communication_Demo\Dual-core_Communication_Demo\SLAVE\obj/../Libraries/wch_libraries/Peripheral/ch32v10x_dma.c:123
            DMA_InitStruct->DMA_PeripheralInc | DMA_InitStruct->DMA_MemoryInc |
     ca6:	fd842783          	lw	a5,-40(s0)
     caa:	4bdc                	lw	a5,20(a5)
     cac:	8f5d                	or	a4,a4,a5
D:\A_Dual1\Dual-core_Communication_Demo\Dual-core_Communication_Demo\SLAVE\obj/../Libraries/wch_libraries/Peripheral/ch32v10x_dma.c:124
            DMA_InitStruct->DMA_PeripheralDataSize | DMA_InitStruct->DMA_MemoryDataSize |
     cae:	fd842783          	lw	a5,-40(s0)
     cb2:	4f9c                	lw	a5,24(a5)
D:\A_Dual1\Dual-core_Communication_Demo\Dual-core_Communication_Demo\SLAVE\obj/../Libraries/wch_libraries/Peripheral/ch32v10x_dma.c:123
            DMA_InitStruct->DMA_PeripheralInc | DMA_InitStruct->DMA_MemoryInc |
     cb4:	8f5d                	or	a4,a4,a5
D:\A_Dual1\Dual-core_Communication_Demo\Dual-core_Communication_Demo\SLAVE\obj/../Libraries/wch_libraries/Peripheral/ch32v10x_dma.c:124
            DMA_InitStruct->DMA_PeripheralDataSize | DMA_InitStruct->DMA_MemoryDataSize |
     cb6:	fd842783          	lw	a5,-40(s0)
     cba:	4fdc                	lw	a5,28(a5)
     cbc:	8f5d                	or	a4,a4,a5
D:\A_Dual1\Dual-core_Communication_Demo\Dual-core_Communication_Demo\SLAVE\obj/../Libraries/wch_libraries/Peripheral/ch32v10x_dma.c:125
            DMA_InitStruct->DMA_Priority | DMA_InitStruct->DMA_M2M;
     cbe:	fd842783          	lw	a5,-40(s0)
     cc2:	53dc                	lw	a5,36(a5)
D:\A_Dual1\Dual-core_Communication_Demo\Dual-core_Communication_Demo\SLAVE\obj/../Libraries/wch_libraries/Peripheral/ch32v10x_dma.c:124
            DMA_InitStruct->DMA_PeripheralDataSize | DMA_InitStruct->DMA_MemoryDataSize |
     cc4:	8f5d                	or	a4,a4,a5
D:\A_Dual1\Dual-core_Communication_Demo\Dual-core_Communication_Demo\SLAVE\obj/../Libraries/wch_libraries/Peripheral/ch32v10x_dma.c:125
            DMA_InitStruct->DMA_Priority | DMA_InitStruct->DMA_M2M;
     cc6:	fd842783          	lw	a5,-40(s0)
     cca:	579c                	lw	a5,40(a5)
     ccc:	8fd9                	or	a5,a5,a4
D:\A_Dual1\Dual-core_Communication_Demo\Dual-core_Communication_Demo\SLAVE\obj/../Libraries/wch_libraries/Peripheral/ch32v10x_dma.c:122
  tmpreg |= DMA_InitStruct->DMA_DIR | DMA_InitStruct->DMA_Mode |
     cce:	fec42703          	lw	a4,-20(s0)
     cd2:	8fd9                	or	a5,a5,a4
     cd4:	fef42623          	sw	a5,-20(s0)
D:\A_Dual1\Dual-core_Communication_Demo\Dual-core_Communication_Demo\SLAVE\obj/../Libraries/wch_libraries/Peripheral/ch32v10x_dma.c:127

  DMAy_Channelx->CFGR = tmpreg;
     cd8:	fdc42783          	lw	a5,-36(s0)
     cdc:	fec42703          	lw	a4,-20(s0)
     ce0:	c398                	sw	a4,0(a5)
D:\A_Dual1\Dual-core_Communication_Demo\Dual-core_Communication_Demo\SLAVE\obj/../Libraries/wch_libraries/Peripheral/ch32v10x_dma.c:128
  DMAy_Channelx->CNTR = DMA_InitStruct->DMA_BufferSize;
     ce2:	fd842783          	lw	a5,-40(s0)
     ce6:	47d8                	lw	a4,12(a5)
     ce8:	fdc42783          	lw	a5,-36(s0)
     cec:	c3d8                	sw	a4,4(a5)
D:\A_Dual1\Dual-core_Communication_Demo\Dual-core_Communication_Demo\SLAVE\obj/../Libraries/wch_libraries/Peripheral/ch32v10x_dma.c:129
  DMAy_Channelx->PADDR = DMA_InitStruct->DMA_PeripheralBaseAddr;
     cee:	fd842783          	lw	a5,-40(s0)
     cf2:	4398                	lw	a4,0(a5)
     cf4:	fdc42783          	lw	a5,-36(s0)
     cf8:	c798                	sw	a4,8(a5)
D:\A_Dual1\Dual-core_Communication_Demo\Dual-core_Communication_Demo\SLAVE\obj/../Libraries/wch_libraries/Peripheral/ch32v10x_dma.c:130
  DMAy_Channelx->MADDR = DMA_InitStruct->DMA_MemoryBaseAddr;
     cfa:	fd842783          	lw	a5,-40(s0)
     cfe:	43d8                	lw	a4,4(a5)
     d00:	fdc42783          	lw	a5,-36(s0)
     d04:	c7d8                	sw	a4,12(a5)
D:\A_Dual1\Dual-core_Communication_Demo\Dual-core_Communication_Demo\SLAVE\obj/../Libraries/wch_libraries/Peripheral/ch32v10x_dma.c:131
}
     d06:	0001                	nop
     d08:	5432                	lw	s0,44(sp)
     d0a:	6145                	addi	sp,sp,48
     d0c:	8082                	ret

00000d0e <DMA_Cmd>:
DMA_Cmd():
D:\A_Dual1\Dual-core_Communication_Demo\Dual-core_Communication_Demo\SLAVE\obj/../Libraries/wch_libraries/Peripheral/ch32v10x_dma.c:168
*                                 the DMA Channel.
*                  NewState     : new state of the DMAy Channelx(ENABLE or DISABLE).
* Return         : None
*********************************************************************************/
void DMA_Cmd(DMA_Channel_TypeDef* DMAy_Channelx, FunctionalState NewState)
{
     d0e:	1101                	addi	sp,sp,-32
     d10:	ce22                	sw	s0,28(sp)
     d12:	1000                	addi	s0,sp,32
     d14:	fea42623          	sw	a0,-20(s0)
     d18:	feb42423          	sw	a1,-24(s0)
D:\A_Dual1\Dual-core_Communication_Demo\Dual-core_Communication_Demo\SLAVE\obj/../Libraries/wch_libraries/Peripheral/ch32v10x_dma.c:169
  if (NewState != DISABLE)
     d1c:	fe842783          	lw	a5,-24(s0)
     d20:	cb91                	beqz	a5,d34 <DMA_Cmd+0x26>
D:\A_Dual1\Dual-core_Communication_Demo\Dual-core_Communication_Demo\SLAVE\obj/../Libraries/wch_libraries/Peripheral/ch32v10x_dma.c:171
  {
    DMAy_Channelx->CFGR |= DMA_CFGR1_EN;
     d22:	fec42783          	lw	a5,-20(s0)
     d26:	439c                	lw	a5,0(a5)
     d28:	0017e713          	ori	a4,a5,1
     d2c:	fec42783          	lw	a5,-20(s0)
     d30:	c398                	sw	a4,0(a5)
D:\A_Dual1\Dual-core_Communication_Demo\Dual-core_Communication_Demo\SLAVE\obj/../Libraries/wch_libraries/Peripheral/ch32v10x_dma.c:177
  }
  else
  {
    DMAy_Channelx->CFGR &= (uint16_t)(~DMA_CFGR1_EN);
  }
}
     d32:	a811                	j	d46 <DMA_Cmd+0x38>
D:\A_Dual1\Dual-core_Communication_Demo\Dual-core_Communication_Demo\SLAVE\obj/../Libraries/wch_libraries/Peripheral/ch32v10x_dma.c:175
    DMAy_Channelx->CFGR &= (uint16_t)(~DMA_CFGR1_EN);
     d34:	fec42783          	lw	a5,-20(s0)
     d38:	4398                	lw	a4,0(a5)
     d3a:	67c1                	lui	a5,0x10
     d3c:	17f9                	addi	a5,a5,-2
     d3e:	8f7d                	and	a4,a4,a5
     d40:	fec42783          	lw	a5,-20(s0)
     d44:	c398                	sw	a4,0(a5)
D:\A_Dual1\Dual-core_Communication_Demo\Dual-core_Communication_Demo\SLAVE\obj/../Libraries/wch_libraries/Peripheral/ch32v10x_dma.c:177
}
     d46:	0001                	nop
     d48:	4472                	lw	s0,28(sp)
     d4a:	6105                	addi	sp,sp,32
     d4c:	8082                	ret

00000d4e <DMA_ITConfig>:
DMA_ITConfig():
D:\A_Dual1\Dual-core_Communication_Demo\Dual-core_Communication_Demo\SLAVE\obj/../Libraries/wch_libraries/Peripheral/ch32v10x_dma.c:194
*                     DMA_IT_TE :  Transfer error interrupt mask
*                  NewState     : new state of the DMAy Channelx(ENABLE or DISABLE).
* Return         : None
*********************************************************************************/
void DMA_ITConfig(DMA_Channel_TypeDef* DMAy_Channelx, uint32_t DMA_IT, FunctionalState NewState)
{
     d4e:	1101                	addi	sp,sp,-32
     d50:	ce22                	sw	s0,28(sp)
     d52:	1000                	addi	s0,sp,32
     d54:	fea42623          	sw	a0,-20(s0)
     d58:	feb42423          	sw	a1,-24(s0)
     d5c:	fec42223          	sw	a2,-28(s0)
D:\A_Dual1\Dual-core_Communication_Demo\Dual-core_Communication_Demo\SLAVE\obj/../Libraries/wch_libraries/Peripheral/ch32v10x_dma.c:195
  if (NewState != DISABLE)
     d60:	fe442783          	lw	a5,-28(s0)
     d64:	cb99                	beqz	a5,d7a <DMA_ITConfig+0x2c>
D:\A_Dual1\Dual-core_Communication_Demo\Dual-core_Communication_Demo\SLAVE\obj/../Libraries/wch_libraries/Peripheral/ch32v10x_dma.c:197
  {
    DMAy_Channelx->CFGR |= DMA_IT;
     d66:	fec42783          	lw	a5,-20(s0)
     d6a:	4398                	lw	a4,0(a5)
     d6c:	fe842783          	lw	a5,-24(s0)
     d70:	8f5d                	or	a4,a4,a5
     d72:	fec42783          	lw	a5,-20(s0)
     d76:	c398                	sw	a4,0(a5)
D:\A_Dual1\Dual-core_Communication_Demo\Dual-core_Communication_Demo\SLAVE\obj/../Libraries/wch_libraries/Peripheral/ch32v10x_dma.c:203
  }
  else
  {
    DMAy_Channelx->CFGR &= ~DMA_IT;
  }
}
     d78:	a821                	j	d90 <DMA_ITConfig+0x42>
D:\A_Dual1\Dual-core_Communication_Demo\Dual-core_Communication_Demo\SLAVE\obj/../Libraries/wch_libraries/Peripheral/ch32v10x_dma.c:201
    DMAy_Channelx->CFGR &= ~DMA_IT;
     d7a:	fec42783          	lw	a5,-20(s0)
     d7e:	4398                	lw	a4,0(a5)
     d80:	fe842783          	lw	a5,-24(s0)
     d84:	fff7c793          	not	a5,a5
     d88:	8f7d                	and	a4,a4,a5
     d8a:	fec42783          	lw	a5,-20(s0)
     d8e:	c398                	sw	a4,0(a5)
D:\A_Dual1\Dual-core_Communication_Demo\Dual-core_Communication_Demo\SLAVE\obj/../Libraries/wch_libraries/Peripheral/ch32v10x_dma.c:203
}
     d90:	0001                	nop
     d92:	4472                	lw	s0,28(sp)
     d94:	6105                	addi	sp,sp,32
     d96:	8082                	ret

00000d98 <DMA_GetFlagStatus>:
DMA_GetFlagStatus():
D:\A_Dual1\Dual-core_Communication_Demo\Dual-core_Communication_Demo\SLAVE\obj/../Libraries/wch_libraries/Peripheral/ch32v10x_dma.c:290
*                      DMA2_FLAG_HT5: DMA2 Channel5 half transfer flag.
*                      DMA2_FLAG_TE5: DMA2 Channel5 transfer error flag.
* Return         : The new state of DMAy_FLAG (SET or RESET). 
*********************************************************************************/
FlagStatus DMA_GetFlagStatus(uint32_t DMAy_FLAG)
{
     d98:	7179                	addi	sp,sp,-48
     d9a:	d622                	sw	s0,44(sp)
     d9c:	1800                	addi	s0,sp,48
     d9e:	fca42e23          	sw	a0,-36(s0)
D:\A_Dual1\Dual-core_Communication_Demo\Dual-core_Communication_Demo\SLAVE\obj/../Libraries/wch_libraries/Peripheral/ch32v10x_dma.c:291
  FlagStatus bitstatus = RESET;
     da2:	fe042623          	sw	zero,-20(s0)
D:\A_Dual1\Dual-core_Communication_Demo\Dual-core_Communication_Demo\SLAVE\obj/../Libraries/wch_libraries/Peripheral/ch32v10x_dma.c:292
  uint32_t tmpreg = 0;
     da6:	fe042423          	sw	zero,-24(s0)
D:\A_Dual1\Dual-core_Communication_Demo\Dual-core_Communication_Demo\SLAVE\obj/../Libraries/wch_libraries/Peripheral/ch32v10x_dma.c:294
  
  if ((DMAy_FLAG & FLAG_Mask) != (uint32_t)RESET)
     daa:	fdc42703          	lw	a4,-36(s0)
     dae:	100007b7          	lui	a5,0x10000
     db2:	8ff9                	and	a5,a5,a4
     db4:	cb89                	beqz	a5,dc6 <DMA_GetFlagStatus+0x2e>
D:\A_Dual1\Dual-core_Communication_Demo\Dual-core_Communication_Demo\SLAVE\obj/../Libraries/wch_libraries/Peripheral/ch32v10x_dma.c:296
  {
    tmpreg = DMA2->INTFR ;
     db6:	400207b7          	lui	a5,0x40020
     dba:	40078793          	addi	a5,a5,1024 # 40020400 <_eusrstack+0x2001b400>
     dbe:	439c                	lw	a5,0(a5)
     dc0:	fef42423          	sw	a5,-24(s0)
     dc4:	a031                	j	dd0 <DMA_GetFlagStatus+0x38>
D:\A_Dual1\Dual-core_Communication_Demo\Dual-core_Communication_Demo\SLAVE\obj/../Libraries/wch_libraries/Peripheral/ch32v10x_dma.c:300
  }
  else
  {
    tmpreg = DMA1->INTFR ;
     dc6:	400207b7          	lui	a5,0x40020
     dca:	439c                	lw	a5,0(a5)
     dcc:	fef42423          	sw	a5,-24(s0)
D:\A_Dual1\Dual-core_Communication_Demo\Dual-core_Communication_Demo\SLAVE\obj/../Libraries/wch_libraries/Peripheral/ch32v10x_dma.c:303
  }

  if ((tmpreg & DMAy_FLAG) != (uint32_t)RESET)
     dd0:	fe842703          	lw	a4,-24(s0)
     dd4:	fdc42783          	lw	a5,-36(s0)
     dd8:	8ff9                	and	a5,a5,a4
     dda:	c789                	beqz	a5,de4 <DMA_GetFlagStatus+0x4c>
D:\A_Dual1\Dual-core_Communication_Demo\Dual-core_Communication_Demo\SLAVE\obj/../Libraries/wch_libraries/Peripheral/ch32v10x_dma.c:305
  {
    bitstatus = SET;
     ddc:	4785                	li	a5,1
     dde:	fef42623          	sw	a5,-20(s0)
     de2:	a019                	j	de8 <DMA_GetFlagStatus+0x50>
D:\A_Dual1\Dual-core_Communication_Demo\Dual-core_Communication_Demo\SLAVE\obj/../Libraries/wch_libraries/Peripheral/ch32v10x_dma.c:309
  }
  else
  {
    bitstatus = RESET;
     de4:	fe042623          	sw	zero,-20(s0)
D:\A_Dual1\Dual-core_Communication_Demo\Dual-core_Communication_Demo\SLAVE\obj/../Libraries/wch_libraries/Peripheral/ch32v10x_dma.c:312
  }
  
  return  bitstatus;
     de8:	fec42783          	lw	a5,-20(s0)
D:\A_Dual1\Dual-core_Communication_Demo\Dual-core_Communication_Demo\SLAVE\obj/../Libraries/wch_libraries/Peripheral/ch32v10x_dma.c:313
}
     dec:	853e                	mv	a0,a5
     dee:	5432                	lw	s0,44(sp)
     df0:	6145                	addi	sp,sp,48
     df2:	8082                	ret

00000df4 <DMA_ClearFlag>:
DMA_ClearFlag():
D:\A_Dual1\Dual-core_Communication_Demo\Dual-core_Communication_Demo\SLAVE\obj/../Libraries/wch_libraries/Peripheral/ch32v10x_dma.c:371
*                      DMA2_FLAG_HT5: DMA2 Channel5 half transfer flag.
*                      DMA2_FLAG_TE5: DMA2 Channel5 transfer error flag.
* Return         : None 
*********************************************************************************/
void DMA_ClearFlag(uint32_t DMAy_FLAG)
{
     df4:	1101                	addi	sp,sp,-32
     df6:	ce22                	sw	s0,28(sp)
     df8:	1000                	addi	s0,sp,32
     dfa:	fea42623          	sw	a0,-20(s0)
D:\A_Dual1\Dual-core_Communication_Demo\Dual-core_Communication_Demo\SLAVE\obj/../Libraries/wch_libraries/Peripheral/ch32v10x_dma.c:372
  if ((DMAy_FLAG & FLAG_Mask) != (uint32_t)RESET)
     dfe:	fec42703          	lw	a4,-20(s0)
     e02:	100007b7          	lui	a5,0x10000
     e06:	8ff9                	and	a5,a5,a4
     e08:	cb89                	beqz	a5,e1a <DMA_ClearFlag+0x26>
D:\A_Dual1\Dual-core_Communication_Demo\Dual-core_Communication_Demo\SLAVE\obj/../Libraries/wch_libraries/Peripheral/ch32v10x_dma.c:374
  {
    DMA2->INTFCR = DMAy_FLAG;
     e0a:	400207b7          	lui	a5,0x40020
     e0e:	40078793          	addi	a5,a5,1024 # 40020400 <_eusrstack+0x2001b400>
     e12:	fec42703          	lw	a4,-20(s0)
     e16:	c3d8                	sw	a4,4(a5)
D:\A_Dual1\Dual-core_Communication_Demo\Dual-core_Communication_Demo\SLAVE\obj/../Libraries/wch_libraries/Peripheral/ch32v10x_dma.c:380
  }
  else
  {
    DMA1->INTFCR = DMAy_FLAG;
  }
}
     e18:	a031                	j	e24 <DMA_ClearFlag+0x30>
D:\A_Dual1\Dual-core_Communication_Demo\Dual-core_Communication_Demo\SLAVE\obj/../Libraries/wch_libraries/Peripheral/ch32v10x_dma.c:378
    DMA1->INTFCR = DMAy_FLAG;
     e1a:	400207b7          	lui	a5,0x40020
     e1e:	fec42703          	lw	a4,-20(s0)
     e22:	c3d8                	sw	a4,4(a5)
D:\A_Dual1\Dual-core_Communication_Demo\Dual-core_Communication_Demo\SLAVE\obj/../Libraries/wch_libraries/Peripheral/ch32v10x_dma.c:380
}
     e24:	0001                	nop
     e26:	4472                	lw	s0,28(sp)
     e28:	6105                	addi	sp,sp,32
     e2a:	8082                	ret

00000e2c <EXTI_Init>:
EXTI_Init():
D:\A_Dual1\Dual-core_Communication_Demo\Dual-core_Communication_Demo\SLAVE\obj/../Libraries/wch_libraries/Peripheral/ch32v10x_exti.c:37
*                  parameters in the EXTI_InitStruct.
* Input          : EXTI_InitStruct: pointer to a EXTI_InitTypeDef structure
* Return         : None
*********************************************************************************/	
void EXTI_Init(EXTI_InitTypeDef* EXTI_InitStruct)
{
     e2c:	7179                	addi	sp,sp,-48
     e2e:	d622                	sw	s0,44(sp)
     e30:	1800                	addi	s0,sp,48
     e32:	fca42e23          	sw	a0,-36(s0)
D:\A_Dual1\Dual-core_Communication_Demo\Dual-core_Communication_Demo\SLAVE\obj/../Libraries/wch_libraries/Peripheral/ch32v10x_exti.c:38
  uint32_t tmp = 0;
     e36:	fe042623          	sw	zero,-20(s0)
D:\A_Dual1\Dual-core_Communication_Demo\Dual-core_Communication_Demo\SLAVE\obj/../Libraries/wch_libraries/Peripheral/ch32v10x_exti.c:40

  tmp = (uint32_t)EXTI_BASE;
     e3a:	400107b7          	lui	a5,0x40010
     e3e:	40078793          	addi	a5,a5,1024 # 40010400 <_eusrstack+0x2000b400>
     e42:	fef42623          	sw	a5,-20(s0)
D:\A_Dual1\Dual-core_Communication_Demo\Dual-core_Communication_Demo\SLAVE\obj/../Libraries/wch_libraries/Peripheral/ch32v10x_exti.c:41
  if (EXTI_InitStruct->EXTI_LineCmd != DISABLE)
     e46:	fdc42783          	lw	a5,-36(s0)
     e4a:	47dc                	lw	a5,12(a5)
     e4c:	12078063          	beqz	a5,f6c <EXTI_Init+0x140>
D:\A_Dual1\Dual-core_Communication_Demo\Dual-core_Communication_Demo\SLAVE\obj/../Libraries/wch_libraries/Peripheral/ch32v10x_exti.c:43
  {
    EXTI->INTENR &= ~EXTI_InitStruct->EXTI_Line;
     e50:	400107b7          	lui	a5,0x40010
     e54:	40078793          	addi	a5,a5,1024 # 40010400 <_eusrstack+0x2000b400>
     e58:	4394                	lw	a3,0(a5)
     e5a:	fdc42783          	lw	a5,-36(s0)
     e5e:	439c                	lw	a5,0(a5)
     e60:	fff7c713          	not	a4,a5
     e64:	400107b7          	lui	a5,0x40010
     e68:	40078793          	addi	a5,a5,1024 # 40010400 <_eusrstack+0x2000b400>
     e6c:	8f75                	and	a4,a4,a3
     e6e:	c398                	sw	a4,0(a5)
D:\A_Dual1\Dual-core_Communication_Demo\Dual-core_Communication_Demo\SLAVE\obj/../Libraries/wch_libraries/Peripheral/ch32v10x_exti.c:44
    EXTI->EVENR &= ~EXTI_InitStruct->EXTI_Line;
     e70:	400107b7          	lui	a5,0x40010
     e74:	40078793          	addi	a5,a5,1024 # 40010400 <_eusrstack+0x2000b400>
     e78:	43d4                	lw	a3,4(a5)
     e7a:	fdc42783          	lw	a5,-36(s0)
     e7e:	439c                	lw	a5,0(a5)
     e80:	fff7c713          	not	a4,a5
     e84:	400107b7          	lui	a5,0x40010
     e88:	40078793          	addi	a5,a5,1024 # 40010400 <_eusrstack+0x2000b400>
     e8c:	8f75                	and	a4,a4,a3
     e8e:	c3d8                	sw	a4,4(a5)
D:\A_Dual1\Dual-core_Communication_Demo\Dual-core_Communication_Demo\SLAVE\obj/../Libraries/wch_libraries/Peripheral/ch32v10x_exti.c:45
    tmp += EXTI_InitStruct->EXTI_Mode;
     e90:	fdc42783          	lw	a5,-36(s0)
     e94:	43dc                	lw	a5,4(a5)
     e96:	fec42703          	lw	a4,-20(s0)
     e9a:	97ba                	add	a5,a5,a4
     e9c:	fef42623          	sw	a5,-20(s0)
D:\A_Dual1\Dual-core_Communication_Demo\Dual-core_Communication_Demo\SLAVE\obj/../Libraries/wch_libraries/Peripheral/ch32v10x_exti.c:46
    *(__IO uint32_t *) tmp |= EXTI_InitStruct->EXTI_Line;
     ea0:	fec42783          	lw	a5,-20(s0)
     ea4:	4394                	lw	a3,0(a5)
     ea6:	fdc42783          	lw	a5,-36(s0)
     eaa:	4398                	lw	a4,0(a5)
     eac:	fec42783          	lw	a5,-20(s0)
     eb0:	8f55                	or	a4,a4,a3
     eb2:	c398                	sw	a4,0(a5)
D:\A_Dual1\Dual-core_Communication_Demo\Dual-core_Communication_Demo\SLAVE\obj/../Libraries/wch_libraries/Peripheral/ch32v10x_exti.c:47
    EXTI->RTENR &= ~EXTI_InitStruct->EXTI_Line;
     eb4:	400107b7          	lui	a5,0x40010
     eb8:	40078793          	addi	a5,a5,1024 # 40010400 <_eusrstack+0x2000b400>
     ebc:	4794                	lw	a3,8(a5)
     ebe:	fdc42783          	lw	a5,-36(s0)
     ec2:	439c                	lw	a5,0(a5)
     ec4:	fff7c713          	not	a4,a5
     ec8:	400107b7          	lui	a5,0x40010
     ecc:	40078793          	addi	a5,a5,1024 # 40010400 <_eusrstack+0x2000b400>
     ed0:	8f75                	and	a4,a4,a3
     ed2:	c798                	sw	a4,8(a5)
D:\A_Dual1\Dual-core_Communication_Demo\Dual-core_Communication_Demo\SLAVE\obj/../Libraries/wch_libraries/Peripheral/ch32v10x_exti.c:48
    EXTI->FTENR &= ~EXTI_InitStruct->EXTI_Line;
     ed4:	400107b7          	lui	a5,0x40010
     ed8:	40078793          	addi	a5,a5,1024 # 40010400 <_eusrstack+0x2000b400>
     edc:	47d4                	lw	a3,12(a5)
     ede:	fdc42783          	lw	a5,-36(s0)
     ee2:	439c                	lw	a5,0(a5)
     ee4:	fff7c713          	not	a4,a5
     ee8:	400107b7          	lui	a5,0x40010
     eec:	40078793          	addi	a5,a5,1024 # 40010400 <_eusrstack+0x2000b400>
     ef0:	8f75                	and	a4,a4,a3
     ef2:	c7d8                	sw	a4,12(a5)
D:\A_Dual1\Dual-core_Communication_Demo\Dual-core_Communication_Demo\SLAVE\obj/../Libraries/wch_libraries/Peripheral/ch32v10x_exti.c:49
    if (EXTI_InitStruct->EXTI_Trigger == EXTI_Trigger_Rising_Falling)
     ef4:	fdc42783          	lw	a5,-36(s0)
     ef8:	4798                	lw	a4,8(a5)
     efa:	47c1                	li	a5,16
     efc:	02f71f63          	bne	a4,a5,f3a <EXTI_Init+0x10e>
D:\A_Dual1\Dual-core_Communication_Demo\Dual-core_Communication_Demo\SLAVE\obj/../Libraries/wch_libraries/Peripheral/ch32v10x_exti.c:51
    {
      EXTI->RTENR |= EXTI_InitStruct->EXTI_Line;
     f00:	400107b7          	lui	a5,0x40010
     f04:	40078793          	addi	a5,a5,1024 # 40010400 <_eusrstack+0x2000b400>
     f08:	4794                	lw	a3,8(a5)
     f0a:	fdc42783          	lw	a5,-36(s0)
     f0e:	4398                	lw	a4,0(a5)
     f10:	400107b7          	lui	a5,0x40010
     f14:	40078793          	addi	a5,a5,1024 # 40010400 <_eusrstack+0x2000b400>
     f18:	8f55                	or	a4,a4,a3
     f1a:	c798                	sw	a4,8(a5)
D:\A_Dual1\Dual-core_Communication_Demo\Dual-core_Communication_Demo\SLAVE\obj/../Libraries/wch_libraries/Peripheral/ch32v10x_exti.c:52
      EXTI->FTENR |= EXTI_InitStruct->EXTI_Line;
     f1c:	400107b7          	lui	a5,0x40010
     f20:	40078793          	addi	a5,a5,1024 # 40010400 <_eusrstack+0x2000b400>
     f24:	47d4                	lw	a3,12(a5)
     f26:	fdc42783          	lw	a5,-36(s0)
     f2a:	4398                	lw	a4,0(a5)
     f2c:	400107b7          	lui	a5,0x40010
     f30:	40078793          	addi	a5,a5,1024 # 40010400 <_eusrstack+0x2000b400>
     f34:	8f55                	or	a4,a4,a3
     f36:	c7d8                	sw	a4,12(a5)
D:\A_Dual1\Dual-core_Communication_Demo\Dual-core_Communication_Demo\SLAVE\obj/../Libraries/wch_libraries/Peripheral/ch32v10x_exti.c:66
  else
  {
    tmp += EXTI_InitStruct->EXTI_Mode;
    *(__IO uint32_t *) tmp &= ~EXTI_InitStruct->EXTI_Line;
  }
}
     f38:	a8b1                	j	f94 <EXTI_Init+0x168>
D:\A_Dual1\Dual-core_Communication_Demo\Dual-core_Communication_Demo\SLAVE\obj/../Libraries/wch_libraries/Peripheral/ch32v10x_exti.c:56
      tmp = (uint32_t)EXTI_BASE;
     f3a:	400107b7          	lui	a5,0x40010
     f3e:	40078793          	addi	a5,a5,1024 # 40010400 <_eusrstack+0x2000b400>
     f42:	fef42623          	sw	a5,-20(s0)
D:\A_Dual1\Dual-core_Communication_Demo\Dual-core_Communication_Demo\SLAVE\obj/../Libraries/wch_libraries/Peripheral/ch32v10x_exti.c:57
      tmp += EXTI_InitStruct->EXTI_Trigger;
     f46:	fdc42783          	lw	a5,-36(s0)
     f4a:	479c                	lw	a5,8(a5)
     f4c:	fec42703          	lw	a4,-20(s0)
     f50:	97ba                	add	a5,a5,a4
     f52:	fef42623          	sw	a5,-20(s0)
D:\A_Dual1\Dual-core_Communication_Demo\Dual-core_Communication_Demo\SLAVE\obj/../Libraries/wch_libraries/Peripheral/ch32v10x_exti.c:58
      *(__IO uint32_t *) tmp |= EXTI_InitStruct->EXTI_Line;
     f56:	fec42783          	lw	a5,-20(s0)
     f5a:	4394                	lw	a3,0(a5)
     f5c:	fdc42783          	lw	a5,-36(s0)
     f60:	4398                	lw	a4,0(a5)
     f62:	fec42783          	lw	a5,-20(s0)
     f66:	8f55                	or	a4,a4,a3
     f68:	c398                	sw	a4,0(a5)
D:\A_Dual1\Dual-core_Communication_Demo\Dual-core_Communication_Demo\SLAVE\obj/../Libraries/wch_libraries/Peripheral/ch32v10x_exti.c:66
}
     f6a:	a02d                	j	f94 <EXTI_Init+0x168>
D:\A_Dual1\Dual-core_Communication_Demo\Dual-core_Communication_Demo\SLAVE\obj/../Libraries/wch_libraries/Peripheral/ch32v10x_exti.c:63
    tmp += EXTI_InitStruct->EXTI_Mode;
     f6c:	fdc42783          	lw	a5,-36(s0)
     f70:	43dc                	lw	a5,4(a5)
     f72:	fec42703          	lw	a4,-20(s0)
     f76:	97ba                	add	a5,a5,a4
     f78:	fef42623          	sw	a5,-20(s0)
D:\A_Dual1\Dual-core_Communication_Demo\Dual-core_Communication_Demo\SLAVE\obj/../Libraries/wch_libraries/Peripheral/ch32v10x_exti.c:64
    *(__IO uint32_t *) tmp &= ~EXTI_InitStruct->EXTI_Line;
     f7c:	fec42783          	lw	a5,-20(s0)
     f80:	4394                	lw	a3,0(a5)
     f82:	fdc42783          	lw	a5,-36(s0)
     f86:	439c                	lw	a5,0(a5)
     f88:	fff7c713          	not	a4,a5
     f8c:	fec42783          	lw	a5,-20(s0)
     f90:	8f75                	and	a4,a4,a3
     f92:	c398                	sw	a4,0(a5)
D:\A_Dual1\Dual-core_Communication_Demo\Dual-core_Communication_Demo\SLAVE\obj/../Libraries/wch_libraries/Peripheral/ch32v10x_exti.c:66
}
     f94:	0001                	nop
     f96:	5432                	lw	s0,44(sp)
     f98:	6145                	addi	sp,sp,48
     f9a:	8082                	ret

00000f9c <EXTI_GetITStatus>:
EXTI_GetITStatus():
D:\A_Dual1\Dual-core_Communication_Demo\Dual-core_Communication_Demo\SLAVE\obj/../Libraries/wch_libraries/Peripheral/ch32v10x_exti.c:131
* Description    : Checks whether the specified EXTI line is asserted or not.
* Input          : EXTI_Line: specifies the EXTI lines to be enabled or disabled.
* Return         : The new state of EXTI_Line (SET or RESET).
*********************************************************************************/	
ITStatus EXTI_GetITStatus(uint32_t EXTI_Line)
{
     f9c:	7179                	addi	sp,sp,-48
     f9e:	d622                	sw	s0,44(sp)
     fa0:	1800                	addi	s0,sp,48
     fa2:	fca42e23          	sw	a0,-36(s0)
D:\A_Dual1\Dual-core_Communication_Demo\Dual-core_Communication_Demo\SLAVE\obj/../Libraries/wch_libraries/Peripheral/ch32v10x_exti.c:132
  ITStatus bitstatus = RESET;
     fa6:	fe042623          	sw	zero,-20(s0)
D:\A_Dual1\Dual-core_Communication_Demo\Dual-core_Communication_Demo\SLAVE\obj/../Libraries/wch_libraries/Peripheral/ch32v10x_exti.c:133
  uint32_t enablestatus = 0;
     faa:	fe042423          	sw	zero,-24(s0)
D:\A_Dual1\Dual-core_Communication_Demo\Dual-core_Communication_Demo\SLAVE\obj/../Libraries/wch_libraries/Peripheral/ch32v10x_exti.c:135
  
  enablestatus =  EXTI->INTENR & EXTI_Line;
     fae:	400107b7          	lui	a5,0x40010
     fb2:	40078793          	addi	a5,a5,1024 # 40010400 <_eusrstack+0x2000b400>
     fb6:	439c                	lw	a5,0(a5)
     fb8:	fdc42703          	lw	a4,-36(s0)
     fbc:	8ff9                	and	a5,a5,a4
     fbe:	fef42423          	sw	a5,-24(s0)
D:\A_Dual1\Dual-core_Communication_Demo\Dual-core_Communication_Demo\SLAVE\obj/../Libraries/wch_libraries/Peripheral/ch32v10x_exti.c:136
  if (((EXTI->INTFR & EXTI_Line) != (uint32_t)RESET) && (enablestatus != (uint32_t)RESET))
     fc2:	400107b7          	lui	a5,0x40010
     fc6:	40078793          	addi	a5,a5,1024 # 40010400 <_eusrstack+0x2000b400>
     fca:	4bd8                	lw	a4,20(a5)
     fcc:	fdc42783          	lw	a5,-36(s0)
     fd0:	8ff9                	and	a5,a5,a4
     fd2:	cb81                	beqz	a5,fe2 <EXTI_GetITStatus+0x46>
D:\A_Dual1\Dual-core_Communication_Demo\Dual-core_Communication_Demo\SLAVE\obj/../Libraries/wch_libraries/Peripheral/ch32v10x_exti.c:136 (discriminator 1)
     fd4:	fe842783          	lw	a5,-24(s0)
     fd8:	c789                	beqz	a5,fe2 <EXTI_GetITStatus+0x46>
D:\A_Dual1\Dual-core_Communication_Demo\Dual-core_Communication_Demo\SLAVE\obj/../Libraries/wch_libraries/Peripheral/ch32v10x_exti.c:138
  {
    bitstatus = SET;
     fda:	4785                	li	a5,1
     fdc:	fef42623          	sw	a5,-20(s0)
     fe0:	a019                	j	fe6 <EXTI_GetITStatus+0x4a>
D:\A_Dual1\Dual-core_Communication_Demo\Dual-core_Communication_Demo\SLAVE\obj/../Libraries/wch_libraries/Peripheral/ch32v10x_exti.c:142
  }
  else
  {
    bitstatus = RESET;
     fe2:	fe042623          	sw	zero,-20(s0)
D:\A_Dual1\Dual-core_Communication_Demo\Dual-core_Communication_Demo\SLAVE\obj/../Libraries/wch_libraries/Peripheral/ch32v10x_exti.c:144
  }
  return bitstatus;
     fe6:	fec42783          	lw	a5,-20(s0)
D:\A_Dual1\Dual-core_Communication_Demo\Dual-core_Communication_Demo\SLAVE\obj/../Libraries/wch_libraries/Peripheral/ch32v10x_exti.c:145
}
     fea:	853e                	mv	a0,a5
     fec:	5432                	lw	s0,44(sp)
     fee:	6145                	addi	sp,sp,48
     ff0:	8082                	ret

00000ff2 <EXTI_ClearITPendingBit>:
EXTI_ClearITPendingBit():
D:\A_Dual1\Dual-core_Communication_Demo\Dual-core_Communication_Demo\SLAVE\obj/../Libraries/wch_libraries/Peripheral/ch32v10x_exti.c:154
* Description    : Clears the EXTI's line pending bits.
* Input          : EXTI_Line: specifies the EXTI lines to be enabled or disabled.
* Return         : None
*********************************************************************************/
void EXTI_ClearITPendingBit(uint32_t EXTI_Line)
{  
     ff2:	1101                	addi	sp,sp,-32
     ff4:	ce22                	sw	s0,28(sp)
     ff6:	1000                	addi	s0,sp,32
     ff8:	fea42623          	sw	a0,-20(s0)
D:\A_Dual1\Dual-core_Communication_Demo\Dual-core_Communication_Demo\SLAVE\obj/../Libraries/wch_libraries/Peripheral/ch32v10x_exti.c:155
  EXTI->INTFR = EXTI_Line;
     ffc:	400107b7          	lui	a5,0x40010
    1000:	40078793          	addi	a5,a5,1024 # 40010400 <_eusrstack+0x2000b400>
    1004:	fec42703          	lw	a4,-20(s0)
    1008:	cbd8                	sw	a4,20(a5)
D:\A_Dual1\Dual-core_Communication_Demo\Dual-core_Communication_Demo\SLAVE\obj/../Libraries/wch_libraries/Peripheral/ch32v10x_exti.c:156
}
    100a:	0001                	nop
    100c:	4472                	lw	s0,28(sp)
    100e:	6105                	addi	sp,sp,32
    1010:	8082                	ret

00001012 <GPIO_Init>:
GPIO_Init():
D:\A_Dual1\Dual-core_Communication_Demo\Dual-core_Communication_Demo\SLAVE\obj/../Libraries/wch_libraries/Peripheral/ch32v10x_gpio.c:88
* Input          : GPIO_InitStruct: pointer to a GPIO_InitTypeDef structure that
*      contains the configuration information for the specified GPIO peripheral.
* Return         : None
*******************************************************************************/
void GPIO_Init(GPIO_TypeDef* GPIOx, GPIO_InitTypeDef* GPIO_InitStruct)
{
    1012:	7139                	addi	sp,sp,-64
    1014:	de22                	sw	s0,60(sp)
    1016:	0080                	addi	s0,sp,64
    1018:	fca42623          	sw	a0,-52(s0)
    101c:	fcb42423          	sw	a1,-56(s0)
D:\A_Dual1\Dual-core_Communication_Demo\Dual-core_Communication_Demo\SLAVE\obj/../Libraries/wch_libraries/Peripheral/ch32v10x_gpio.c:89
  uint32_t currentmode = 0x00, currentpin = 0x00, pinpos = 0x00, pos = 0x00;
    1020:	fe042623          	sw	zero,-20(s0)
    1024:	fe042023          	sw	zero,-32(s0)
    1028:	fe042423          	sw	zero,-24(s0)
    102c:	fc042e23          	sw	zero,-36(s0)
D:\A_Dual1\Dual-core_Communication_Demo\Dual-core_Communication_Demo\SLAVE\obj/../Libraries/wch_libraries/Peripheral/ch32v10x_gpio.c:90
  uint32_t tmpreg = 0x00, pinmask = 0x00;
    1030:	fe042223          	sw	zero,-28(s0)
    1034:	fc042c23          	sw	zero,-40(s0)
D:\A_Dual1\Dual-core_Communication_Demo\Dual-core_Communication_Demo\SLAVE\obj/../Libraries/wch_libraries/Peripheral/ch32v10x_gpio.c:92

  currentmode = ((uint32_t)GPIO_InitStruct->GPIO_Mode) & ((uint32_t)0x0F);
    1038:	fc842783          	lw	a5,-56(s0)
    103c:	479c                	lw	a5,8(a5)
    103e:	8bbd                	andi	a5,a5,15
    1040:	fef42623          	sw	a5,-20(s0)
D:\A_Dual1\Dual-core_Communication_Demo\Dual-core_Communication_Demo\SLAVE\obj/../Libraries/wch_libraries/Peripheral/ch32v10x_gpio.c:94
	
  if ((((uint32_t)GPIO_InitStruct->GPIO_Mode) & ((uint32_t)0x10)) != 0x00)
    1044:	fc842783          	lw	a5,-56(s0)
    1048:	479c                	lw	a5,8(a5)
    104a:	8bc1                	andi	a5,a5,16
    104c:	cb89                	beqz	a5,105e <GPIO_Init+0x4c>
D:\A_Dual1\Dual-core_Communication_Demo\Dual-core_Communication_Demo\SLAVE\obj/../Libraries/wch_libraries/Peripheral/ch32v10x_gpio.c:96
  { 
    currentmode |= (uint32_t)GPIO_InitStruct->GPIO_Speed;
    104e:	fc842783          	lw	a5,-56(s0)
    1052:	43dc                	lw	a5,4(a5)
    1054:	fec42703          	lw	a4,-20(s0)
    1058:	8fd9                	or	a5,a5,a4
    105a:	fef42623          	sw	a5,-20(s0)
D:\A_Dual1\Dual-core_Communication_Demo\Dual-core_Communication_Demo\SLAVE\obj/../Libraries/wch_libraries/Peripheral/ch32v10x_gpio.c:99
  }

  if (((uint32_t)GPIO_InitStruct->GPIO_Pin & ((uint32_t)0x00FF)) != 0x00)
    105e:	fc842783          	lw	a5,-56(s0)
    1062:	0007d783          	lhu	a5,0(a5)
    1066:	0ff7f793          	andi	a5,a5,255
    106a:	cff1                	beqz	a5,1146 <GPIO_Init+0x134>
D:\A_Dual1\Dual-core_Communication_Demo\Dual-core_Communication_Demo\SLAVE\obj/../Libraries/wch_libraries/Peripheral/ch32v10x_gpio.c:101
  {
    tmpreg = GPIOx->CFGLR;
    106c:	fcc42783          	lw	a5,-52(s0)
    1070:	439c                	lw	a5,0(a5)
    1072:	fef42223          	sw	a5,-28(s0)
D:\A_Dual1\Dual-core_Communication_Demo\Dual-core_Communication_Demo\SLAVE\obj/../Libraries/wch_libraries/Peripheral/ch32v10x_gpio.c:103
		
    for (pinpos = 0x00; pinpos < 0x08; pinpos++)
    1076:	fe042423          	sw	zero,-24(s0)
    107a:	a865                	j	1132 <GPIO_Init+0x120>
D:\A_Dual1\Dual-core_Communication_Demo\Dual-core_Communication_Demo\SLAVE\obj/../Libraries/wch_libraries/Peripheral/ch32v10x_gpio.c:105
    {
      pos = ((uint32_t)0x01) << pinpos;
    107c:	fe842783          	lw	a5,-24(s0)
    1080:	4705                	li	a4,1
    1082:	00f717b3          	sll	a5,a4,a5
    1086:	fcf42e23          	sw	a5,-36(s0)
D:\A_Dual1\Dual-core_Communication_Demo\Dual-core_Communication_Demo\SLAVE\obj/../Libraries/wch_libraries/Peripheral/ch32v10x_gpio.c:106
      currentpin = (GPIO_InitStruct->GPIO_Pin) & pos;
    108a:	fc842783          	lw	a5,-56(s0)
    108e:	0007d783          	lhu	a5,0(a5)
    1092:	873e                	mv	a4,a5
    1094:	fdc42783          	lw	a5,-36(s0)
    1098:	8ff9                	and	a5,a5,a4
    109a:	fef42023          	sw	a5,-32(s0)
D:\A_Dual1\Dual-core_Communication_Demo\Dual-core_Communication_Demo\SLAVE\obj/../Libraries/wch_libraries/Peripheral/ch32v10x_gpio.c:108
			
      if (currentpin == pos)
    109e:	fe042703          	lw	a4,-32(s0)
    10a2:	fdc42783          	lw	a5,-36(s0)
    10a6:	08f71163          	bne	a4,a5,1128 <GPIO_Init+0x116>
D:\A_Dual1\Dual-core_Communication_Demo\Dual-core_Communication_Demo\SLAVE\obj/../Libraries/wch_libraries/Peripheral/ch32v10x_gpio.c:110
      {
        pos = pinpos << 2;
    10aa:	fe842783          	lw	a5,-24(s0)
    10ae:	078a                	slli	a5,a5,0x2
    10b0:	fcf42e23          	sw	a5,-36(s0)
D:\A_Dual1\Dual-core_Communication_Demo\Dual-core_Communication_Demo\SLAVE\obj/../Libraries/wch_libraries/Peripheral/ch32v10x_gpio.c:111
        pinmask = ((uint32_t)0x0F) << pos;
    10b4:	fdc42783          	lw	a5,-36(s0)
    10b8:	473d                	li	a4,15
    10ba:	00f717b3          	sll	a5,a4,a5
    10be:	fcf42c23          	sw	a5,-40(s0)
D:\A_Dual1\Dual-core_Communication_Demo\Dual-core_Communication_Demo\SLAVE\obj/../Libraries/wch_libraries/Peripheral/ch32v10x_gpio.c:112
        tmpreg &= ~pinmask;
    10c2:	fd842783          	lw	a5,-40(s0)
    10c6:	fff7c793          	not	a5,a5
    10ca:	fe442703          	lw	a4,-28(s0)
    10ce:	8ff9                	and	a5,a5,a4
    10d0:	fef42223          	sw	a5,-28(s0)
D:\A_Dual1\Dual-core_Communication_Demo\Dual-core_Communication_Demo\SLAVE\obj/../Libraries/wch_libraries/Peripheral/ch32v10x_gpio.c:113
        tmpreg |= (currentmode << pos);
    10d4:	fdc42783          	lw	a5,-36(s0)
    10d8:	fec42703          	lw	a4,-20(s0)
    10dc:	00f717b3          	sll	a5,a4,a5
    10e0:	fe442703          	lw	a4,-28(s0)
    10e4:	8fd9                	or	a5,a5,a4
    10e6:	fef42223          	sw	a5,-28(s0)
D:\A_Dual1\Dual-core_Communication_Demo\Dual-core_Communication_Demo\SLAVE\obj/../Libraries/wch_libraries/Peripheral/ch32v10x_gpio.c:115

        if (GPIO_InitStruct->GPIO_Mode == GPIO_Mode_IPD)
    10ea:	fc842783          	lw	a5,-56(s0)
    10ee:	4798                	lw	a4,8(a5)
    10f0:	02800793          	li	a5,40
    10f4:	00f71b63          	bne	a4,a5,110a <GPIO_Init+0xf8>
D:\A_Dual1\Dual-core_Communication_Demo\Dual-core_Communication_Demo\SLAVE\obj/../Libraries/wch_libraries/Peripheral/ch32v10x_gpio.c:117
        {
          GPIOx->BCR = (((uint32_t)0x01) << pinpos);
    10f8:	fe842783          	lw	a5,-24(s0)
    10fc:	4705                	li	a4,1
    10fe:	00f71733          	sll	a4,a4,a5
    1102:	fcc42783          	lw	a5,-52(s0)
    1106:	cbd8                	sw	a4,20(a5)
    1108:	a005                	j	1128 <GPIO_Init+0x116>
D:\A_Dual1\Dual-core_Communication_Demo\Dual-core_Communication_Demo\SLAVE\obj/../Libraries/wch_libraries/Peripheral/ch32v10x_gpio.c:121
        }
        else
        {
          if (GPIO_InitStruct->GPIO_Mode == GPIO_Mode_IPU)
    110a:	fc842783          	lw	a5,-56(s0)
    110e:	4798                	lw	a4,8(a5)
    1110:	04800793          	li	a5,72
    1114:	00f71a63          	bne	a4,a5,1128 <GPIO_Init+0x116>
D:\A_Dual1\Dual-core_Communication_Demo\Dual-core_Communication_Demo\SLAVE\obj/../Libraries/wch_libraries/Peripheral/ch32v10x_gpio.c:123
          {
            GPIOx->BSHR = (((uint32_t)0x01) << pinpos);
    1118:	fe842783          	lw	a5,-24(s0)
    111c:	4705                	li	a4,1
    111e:	00f71733          	sll	a4,a4,a5
    1122:	fcc42783          	lw	a5,-52(s0)
    1126:	cb98                	sw	a4,16(a5)
D:\A_Dual1\Dual-core_Communication_Demo\Dual-core_Communication_Demo\SLAVE\obj/../Libraries/wch_libraries/Peripheral/ch32v10x_gpio.c:103 (discriminator 2)
    for (pinpos = 0x00; pinpos < 0x08; pinpos++)
    1128:	fe842783          	lw	a5,-24(s0)
    112c:	0785                	addi	a5,a5,1
    112e:	fef42423          	sw	a5,-24(s0)
D:\A_Dual1\Dual-core_Communication_Demo\Dual-core_Communication_Demo\SLAVE\obj/../Libraries/wch_libraries/Peripheral/ch32v10x_gpio.c:103 (discriminator 1)
    1132:	fe842703          	lw	a4,-24(s0)
    1136:	479d                	li	a5,7
    1138:	f4e7f2e3          	bgeu	a5,a4,107c <GPIO_Init+0x6a>
D:\A_Dual1\Dual-core_Communication_Demo\Dual-core_Communication_Demo\SLAVE\obj/../Libraries/wch_libraries/Peripheral/ch32v10x_gpio.c:128
          }
        }
      }
    }
    GPIOx->CFGLR = tmpreg;
    113c:	fcc42783          	lw	a5,-52(s0)
    1140:	fe442703          	lw	a4,-28(s0)
    1144:	c398                	sw	a4,0(a5)
D:\A_Dual1\Dual-core_Communication_Demo\Dual-core_Communication_Demo\SLAVE\obj/../Libraries/wch_libraries/Peripheral/ch32v10x_gpio.c:131
  }

  if (GPIO_InitStruct->GPIO_Pin > 0x00FF)
    1146:	fc842783          	lw	a5,-56(s0)
    114a:	0007d703          	lhu	a4,0(a5)
    114e:	0ff00793          	li	a5,255
    1152:	0ee7f163          	bgeu	a5,a4,1234 <GPIO_Init+0x222>
D:\A_Dual1\Dual-core_Communication_Demo\Dual-core_Communication_Demo\SLAVE\obj/../Libraries/wch_libraries/Peripheral/ch32v10x_gpio.c:133
  {
    tmpreg = GPIOx->CFGHR;
    1156:	fcc42783          	lw	a5,-52(s0)
    115a:	43dc                	lw	a5,4(a5)
    115c:	fef42223          	sw	a5,-28(s0)
D:\A_Dual1\Dual-core_Communication_Demo\Dual-core_Communication_Demo\SLAVE\obj/../Libraries/wch_libraries/Peripheral/ch32v10x_gpio.c:135
		
    for (pinpos = 0x00; pinpos < 0x08; pinpos++)
    1160:	fe042423          	sw	zero,-24(s0)
    1164:	a875                	j	1220 <GPIO_Init+0x20e>
D:\A_Dual1\Dual-core_Communication_Demo\Dual-core_Communication_Demo\SLAVE\obj/../Libraries/wch_libraries/Peripheral/ch32v10x_gpio.c:137
    {
      pos = (((uint32_t)0x01) << (pinpos + 0x08));
    1166:	fe842783          	lw	a5,-24(s0)
    116a:	07a1                	addi	a5,a5,8
    116c:	4705                	li	a4,1
    116e:	00f717b3          	sll	a5,a4,a5
    1172:	fcf42e23          	sw	a5,-36(s0)
D:\A_Dual1\Dual-core_Communication_Demo\Dual-core_Communication_Demo\SLAVE\obj/../Libraries/wch_libraries/Peripheral/ch32v10x_gpio.c:138
      currentpin = ((GPIO_InitStruct->GPIO_Pin) & pos);
    1176:	fc842783          	lw	a5,-56(s0)
    117a:	0007d783          	lhu	a5,0(a5)
    117e:	873e                	mv	a4,a5
    1180:	fdc42783          	lw	a5,-36(s0)
    1184:	8ff9                	and	a5,a5,a4
    1186:	fef42023          	sw	a5,-32(s0)
D:\A_Dual1\Dual-core_Communication_Demo\Dual-core_Communication_Demo\SLAVE\obj/../Libraries/wch_libraries/Peripheral/ch32v10x_gpio.c:140
			
      if (currentpin == pos)
    118a:	fe042703          	lw	a4,-32(s0)
    118e:	fdc42783          	lw	a5,-36(s0)
    1192:	08f71263          	bne	a4,a5,1216 <GPIO_Init+0x204>
D:\A_Dual1\Dual-core_Communication_Demo\Dual-core_Communication_Demo\SLAVE\obj/../Libraries/wch_libraries/Peripheral/ch32v10x_gpio.c:142
      {
        pos = pinpos << 2;
    1196:	fe842783          	lw	a5,-24(s0)
    119a:	078a                	slli	a5,a5,0x2
    119c:	fcf42e23          	sw	a5,-36(s0)
D:\A_Dual1\Dual-core_Communication_Demo\Dual-core_Communication_Demo\SLAVE\obj/../Libraries/wch_libraries/Peripheral/ch32v10x_gpio.c:143
        pinmask = ((uint32_t)0x0F) << pos;
    11a0:	fdc42783          	lw	a5,-36(s0)
    11a4:	473d                	li	a4,15
    11a6:	00f717b3          	sll	a5,a4,a5
    11aa:	fcf42c23          	sw	a5,-40(s0)
D:\A_Dual1\Dual-core_Communication_Demo\Dual-core_Communication_Demo\SLAVE\obj/../Libraries/wch_libraries/Peripheral/ch32v10x_gpio.c:144
        tmpreg &= ~pinmask;
    11ae:	fd842783          	lw	a5,-40(s0)
    11b2:	fff7c793          	not	a5,a5
    11b6:	fe442703          	lw	a4,-28(s0)
    11ba:	8ff9                	and	a5,a5,a4
    11bc:	fef42223          	sw	a5,-28(s0)
D:\A_Dual1\Dual-core_Communication_Demo\Dual-core_Communication_Demo\SLAVE\obj/../Libraries/wch_libraries/Peripheral/ch32v10x_gpio.c:145
        tmpreg |= (currentmode << pos);
    11c0:	fdc42783          	lw	a5,-36(s0)
    11c4:	fec42703          	lw	a4,-20(s0)
    11c8:	00f717b3          	sll	a5,a4,a5
    11cc:	fe442703          	lw	a4,-28(s0)
    11d0:	8fd9                	or	a5,a5,a4
    11d2:	fef42223          	sw	a5,-28(s0)
D:\A_Dual1\Dual-core_Communication_Demo\Dual-core_Communication_Demo\SLAVE\obj/../Libraries/wch_libraries/Peripheral/ch32v10x_gpio.c:147

        if (GPIO_InitStruct->GPIO_Mode == GPIO_Mode_IPD)
    11d6:	fc842783          	lw	a5,-56(s0)
    11da:	4798                	lw	a4,8(a5)
    11dc:	02800793          	li	a5,40
    11e0:	00f71b63          	bne	a4,a5,11f6 <GPIO_Init+0x1e4>
D:\A_Dual1\Dual-core_Communication_Demo\Dual-core_Communication_Demo\SLAVE\obj/../Libraries/wch_libraries/Peripheral/ch32v10x_gpio.c:149
        {
          GPIOx->BCR = (((uint32_t)0x01) << (pinpos + 0x08));
    11e4:	fe842783          	lw	a5,-24(s0)
    11e8:	07a1                	addi	a5,a5,8
    11ea:	4705                	li	a4,1
    11ec:	00f71733          	sll	a4,a4,a5
    11f0:	fcc42783          	lw	a5,-52(s0)
    11f4:	cbd8                	sw	a4,20(a5)
D:\A_Dual1\Dual-core_Communication_Demo\Dual-core_Communication_Demo\SLAVE\obj/../Libraries/wch_libraries/Peripheral/ch32v10x_gpio.c:152
        }

        if (GPIO_InitStruct->GPIO_Mode == GPIO_Mode_IPU)
    11f6:	fc842783          	lw	a5,-56(s0)
    11fa:	4798                	lw	a4,8(a5)
    11fc:	04800793          	li	a5,72
    1200:	00f71b63          	bne	a4,a5,1216 <GPIO_Init+0x204>
D:\A_Dual1\Dual-core_Communication_Demo\Dual-core_Communication_Demo\SLAVE\obj/../Libraries/wch_libraries/Peripheral/ch32v10x_gpio.c:154
        {
          GPIOx->BSHR = (((uint32_t)0x01) << (pinpos + 0x08));
    1204:	fe842783          	lw	a5,-24(s0)
    1208:	07a1                	addi	a5,a5,8
    120a:	4705                	li	a4,1
    120c:	00f71733          	sll	a4,a4,a5
    1210:	fcc42783          	lw	a5,-52(s0)
    1214:	cb98                	sw	a4,16(a5)
D:\A_Dual1\Dual-core_Communication_Demo\Dual-core_Communication_Demo\SLAVE\obj/../Libraries/wch_libraries/Peripheral/ch32v10x_gpio.c:135 (discriminator 2)
    for (pinpos = 0x00; pinpos < 0x08; pinpos++)
    1216:	fe842783          	lw	a5,-24(s0)
    121a:	0785                	addi	a5,a5,1
    121c:	fef42423          	sw	a5,-24(s0)
D:\A_Dual1\Dual-core_Communication_Demo\Dual-core_Communication_Demo\SLAVE\obj/../Libraries/wch_libraries/Peripheral/ch32v10x_gpio.c:135 (discriminator 1)
    1220:	fe842703          	lw	a4,-24(s0)
    1224:	479d                	li	a5,7
    1226:	f4e7f0e3          	bgeu	a5,a4,1166 <GPIO_Init+0x154>
D:\A_Dual1\Dual-core_Communication_Demo\Dual-core_Communication_Demo\SLAVE\obj/../Libraries/wch_libraries/Peripheral/ch32v10x_gpio.c:158
        }
      }
    }
    GPIOx->CFGHR = tmpreg;
    122a:	fcc42783          	lw	a5,-52(s0)
    122e:	fe442703          	lw	a4,-28(s0)
    1232:	c3d8                	sw	a4,4(a5)
D:\A_Dual1\Dual-core_Communication_Demo\Dual-core_Communication_Demo\SLAVE\obj/../Libraries/wch_libraries/Peripheral/ch32v10x_gpio.c:160
  }
}
    1234:	0001                	nop
    1236:	5472                	lw	s0,60(sp)
    1238:	6121                	addi	sp,sp,64
    123a:	8082                	ret

0000123c <GPIO_WriteBit>:
GPIO_WriteBit():
D:\A_Dual1\Dual-core_Communication_Demo\Dual-core_Communication_Demo\SLAVE\obj/../Libraries/wch_libraries/Peripheral/ch32v10x_gpio.c:282
*                    Bit_SetL: to clear the port pin.
*                    Bit_SetH: to set the port pin.                  
* Return         : None
*******************************************************************************/
void GPIO_WriteBit(GPIO_TypeDef* GPIOx, uint16_t GPIO_Pin, BitAction BitVal)
{
    123c:	1101                	addi	sp,sp,-32
    123e:	ce22                	sw	s0,28(sp)
    1240:	1000                	addi	s0,sp,32
    1242:	fea42623          	sw	a0,-20(s0)
    1246:	87ae                	mv	a5,a1
    1248:	fec42223          	sw	a2,-28(s0)
    124c:	fef41523          	sh	a5,-22(s0)
D:\A_Dual1\Dual-core_Communication_Demo\Dual-core_Communication_Demo\SLAVE\obj/../Libraries/wch_libraries/Peripheral/ch32v10x_gpio.c:283
  if (BitVal != Bit_RESET)
    1250:	fe442783          	lw	a5,-28(s0)
    1254:	c799                	beqz	a5,1262 <GPIO_WriteBit+0x26>
D:\A_Dual1\Dual-core_Communication_Demo\Dual-core_Communication_Demo\SLAVE\obj/../Libraries/wch_libraries/Peripheral/ch32v10x_gpio.c:285
  {
    GPIOx->BSHR = GPIO_Pin;
    1256:	fea45703          	lhu	a4,-22(s0)
    125a:	fec42783          	lw	a5,-20(s0)
    125e:	cb98                	sw	a4,16(a5)
D:\A_Dual1\Dual-core_Communication_Demo\Dual-core_Communication_Demo\SLAVE\obj/../Libraries/wch_libraries/Peripheral/ch32v10x_gpio.c:291
  }
  else
  {
    GPIOx->BCR = GPIO_Pin;
  }
}
    1260:	a031                	j	126c <GPIO_WriteBit+0x30>
D:\A_Dual1\Dual-core_Communication_Demo\Dual-core_Communication_Demo\SLAVE\obj/../Libraries/wch_libraries/Peripheral/ch32v10x_gpio.c:289
    GPIOx->BCR = GPIO_Pin;
    1262:	fea45703          	lhu	a4,-22(s0)
    1266:	fec42783          	lw	a5,-20(s0)
    126a:	cbd8                	sw	a4,20(a5)
D:\A_Dual1\Dual-core_Communication_Demo\Dual-core_Communication_Demo\SLAVE\obj/../Libraries/wch_libraries/Peripheral/ch32v10x_gpio.c:291
}
    126c:	0001                	nop
    126e:	4472                	lw	s0,28(sp)
    1270:	6105                	addi	sp,sp,32
    1272:	8082                	ret

00001274 <GPIO_PinRemapConfig>:
GPIO_PinRemapConfig():
D:\A_Dual1\Dual-core_Communication_Demo\Dual-core_Communication_Demo\SLAVE\obj/../Libraries/wch_libraries/Peripheral/ch32v10x_gpio.c:402
*      only for High density Value line devices)     
*                  NewState: ENABLE or DISABLE.             
* Return         : None
*******************************************************************************/
void GPIO_PinRemapConfig(uint32_t GPIO_Remap, FunctionalState NewState)
{
    1274:	7179                	addi	sp,sp,-48
    1276:	d622                	sw	s0,44(sp)
    1278:	1800                	addi	s0,sp,48
    127a:	fca42e23          	sw	a0,-36(s0)
    127e:	fcb42c23          	sw	a1,-40(s0)
D:\A_Dual1\Dual-core_Communication_Demo\Dual-core_Communication_Demo\SLAVE\obj/../Libraries/wch_libraries/Peripheral/ch32v10x_gpio.c:403
  uint32_t tmp = 0x00, tmp1 = 0x00, tmpreg = 0x00, tmpmask = 0x00;
    1282:	fe042423          	sw	zero,-24(s0)
    1286:	fe042223          	sw	zero,-28(s0)
    128a:	fe042623          	sw	zero,-20(s0)
    128e:	fe042023          	sw	zero,-32(s0)
D:\A_Dual1\Dual-core_Communication_Demo\Dual-core_Communication_Demo\SLAVE\obj/../Libraries/wch_libraries/Peripheral/ch32v10x_gpio.c:405

  if((GPIO_Remap & 0x80000000) == 0x80000000)
    1292:	fdc42783          	lw	a5,-36(s0)
    1296:	0007d863          	bgez	a5,12a6 <GPIO_PinRemapConfig+0x32>
D:\A_Dual1\Dual-core_Communication_Demo\Dual-core_Communication_Demo\SLAVE\obj/../Libraries/wch_libraries/Peripheral/ch32v10x_gpio.c:407
  {
    tmpreg = AFIO->PCFR2;
    129a:	400107b7          	lui	a5,0x40010
    129e:	4fdc                	lw	a5,28(a5)
    12a0:	fef42623          	sw	a5,-20(s0)
    12a4:	a031                	j	12b0 <GPIO_PinRemapConfig+0x3c>
D:\A_Dual1\Dual-core_Communication_Demo\Dual-core_Communication_Demo\SLAVE\obj/../Libraries/wch_libraries/Peripheral/ch32v10x_gpio.c:411
  }
  else
  {
    tmpreg = AFIO->PCFR1;
    12a6:	400107b7          	lui	a5,0x40010
    12aa:	43dc                	lw	a5,4(a5)
    12ac:	fef42623          	sw	a5,-20(s0)
D:\A_Dual1\Dual-core_Communication_Demo\Dual-core_Communication_Demo\SLAVE\obj/../Libraries/wch_libraries/Peripheral/ch32v10x_gpio.c:414
  }

  tmpmask = (GPIO_Remap & DBGAFR_POSITION_MASK) >> 0x10;
    12b0:	fdc42783          	lw	a5,-36(s0)
    12b4:	83c1                	srli	a5,a5,0x10
    12b6:	8bbd                	andi	a5,a5,15
    12b8:	fef42023          	sw	a5,-32(s0)
D:\A_Dual1\Dual-core_Communication_Demo\Dual-core_Communication_Demo\SLAVE\obj/../Libraries/wch_libraries/Peripheral/ch32v10x_gpio.c:415
  tmp = GPIO_Remap & LSB_MASK;
    12bc:	fdc42703          	lw	a4,-36(s0)
    12c0:	67c1                	lui	a5,0x10
    12c2:	17fd                	addi	a5,a5,-1
    12c4:	8ff9                	and	a5,a5,a4
    12c6:	fef42423          	sw	a5,-24(s0)
D:\A_Dual1\Dual-core_Communication_Demo\Dual-core_Communication_Demo\SLAVE\obj/../Libraries/wch_libraries/Peripheral/ch32v10x_gpio.c:417

  if ((GPIO_Remap & (DBGAFR_LOCATION_MASK | DBGAFR_NUMBITS_MASK)) == (DBGAFR_LOCATION_MASK | DBGAFR_NUMBITS_MASK))
    12ca:	fdc42703          	lw	a4,-36(s0)
    12ce:	003007b7          	lui	a5,0x300
    12d2:	8f7d                	and	a4,a4,a5
    12d4:	003007b7          	lui	a5,0x300
    12d8:	02f71563          	bne	a4,a5,1302 <GPIO_PinRemapConfig+0x8e>
D:\A_Dual1\Dual-core_Communication_Demo\Dual-core_Communication_Demo\SLAVE\obj/../Libraries/wch_libraries/Peripheral/ch32v10x_gpio.c:419
  {
    tmpreg &= DBGAFR_SWJCFG_MASK;
    12dc:	fec42703          	lw	a4,-20(s0)
    12e0:	f10007b7          	lui	a5,0xf1000
    12e4:	17fd                	addi	a5,a5,-1
    12e6:	8ff9                	and	a5,a5,a4
    12e8:	fef42623          	sw	a5,-20(s0)
D:\A_Dual1\Dual-core_Communication_Demo\Dual-core_Communication_Demo\SLAVE\obj/../Libraries/wch_libraries/Peripheral/ch32v10x_gpio.c:420
    AFIO->PCFR1 &= DBGAFR_SWJCFG_MASK;
    12ec:	400107b7          	lui	a5,0x40010
    12f0:	43d4                	lw	a3,4(a5)
    12f2:	400107b7          	lui	a5,0x40010
    12f6:	f1000737          	lui	a4,0xf1000
    12fa:	177d                	addi	a4,a4,-1
    12fc:	8f75                	and	a4,a4,a3
    12fe:	c3d8                	sw	a4,4(a5)
    1300:	a0ad                	j	136a <GPIO_PinRemapConfig+0xf6>
D:\A_Dual1\Dual-core_Communication_Demo\Dual-core_Communication_Demo\SLAVE\obj/../Libraries/wch_libraries/Peripheral/ch32v10x_gpio.c:422
  }
  else if ((GPIO_Remap & DBGAFR_NUMBITS_MASK) == DBGAFR_NUMBITS_MASK)
    1302:	fdc42703          	lw	a4,-36(s0)
    1306:	001007b7          	lui	a5,0x100
    130a:	8ff9                	and	a5,a5,a4
    130c:	cb8d                	beqz	a5,133e <GPIO_PinRemapConfig+0xca>
D:\A_Dual1\Dual-core_Communication_Demo\Dual-core_Communication_Demo\SLAVE\obj/../Libraries/wch_libraries/Peripheral/ch32v10x_gpio.c:424
  {
    tmp1 = ((uint32_t)0x03) << tmpmask;
    130e:	fe042783          	lw	a5,-32(s0)
    1312:	470d                	li	a4,3
    1314:	00f717b3          	sll	a5,a4,a5
    1318:	fef42223          	sw	a5,-28(s0)
D:\A_Dual1\Dual-core_Communication_Demo\Dual-core_Communication_Demo\SLAVE\obj/../Libraries/wch_libraries/Peripheral/ch32v10x_gpio.c:425
    tmpreg &= ~tmp1;
    131c:	fe442783          	lw	a5,-28(s0)
    1320:	fff7c793          	not	a5,a5
    1324:	fec42703          	lw	a4,-20(s0)
    1328:	8ff9                	and	a5,a5,a4
    132a:	fef42623          	sw	a5,-20(s0)
D:\A_Dual1\Dual-core_Communication_Demo\Dual-core_Communication_Demo\SLAVE\obj/../Libraries/wch_libraries/Peripheral/ch32v10x_gpio.c:426
    tmpreg |= ~DBGAFR_SWJCFG_MASK;
    132e:	fec42703          	lw	a4,-20(s0)
    1332:	0f0007b7          	lui	a5,0xf000
    1336:	8fd9                	or	a5,a5,a4
    1338:	fef42623          	sw	a5,-20(s0)
    133c:	a03d                	j	136a <GPIO_PinRemapConfig+0xf6>
D:\A_Dual1\Dual-core_Communication_Demo\Dual-core_Communication_Demo\SLAVE\obj/../Libraries/wch_libraries/Peripheral/ch32v10x_gpio.c:430
  }
  else
  {
    tmpreg &= ~(tmp << ((GPIO_Remap >> 0x15)*0x10));
    133e:	fdc42783          	lw	a5,-36(s0)
    1342:	83d5                	srli	a5,a5,0x15
    1344:	0792                	slli	a5,a5,0x4
    1346:	fe842703          	lw	a4,-24(s0)
    134a:	00f717b3          	sll	a5,a4,a5
    134e:	fff7c793          	not	a5,a5
    1352:	fec42703          	lw	a4,-20(s0)
    1356:	8ff9                	and	a5,a5,a4
    1358:	fef42623          	sw	a5,-20(s0)
D:\A_Dual1\Dual-core_Communication_Demo\Dual-core_Communication_Demo\SLAVE\obj/../Libraries/wch_libraries/Peripheral/ch32v10x_gpio.c:431
    tmpreg |= ~DBGAFR_SWJCFG_MASK;
    135c:	fec42703          	lw	a4,-20(s0)
    1360:	0f0007b7          	lui	a5,0xf000
    1364:	8fd9                	or	a5,a5,a4
    1366:	fef42623          	sw	a5,-20(s0)
D:\A_Dual1\Dual-core_Communication_Demo\Dual-core_Communication_Demo\SLAVE\obj/../Libraries/wch_libraries/Peripheral/ch32v10x_gpio.c:434
  }

  if (NewState != DISABLE)
    136a:	fd842783          	lw	a5,-40(s0)
    136e:	cf91                	beqz	a5,138a <GPIO_PinRemapConfig+0x116>
D:\A_Dual1\Dual-core_Communication_Demo\Dual-core_Communication_Demo\SLAVE\obj/../Libraries/wch_libraries/Peripheral/ch32v10x_gpio.c:436
  {
    tmpreg |= (tmp << ((GPIO_Remap >> 0x15)*0x10));
    1370:	fdc42783          	lw	a5,-36(s0)
    1374:	83d5                	srli	a5,a5,0x15
    1376:	0792                	slli	a5,a5,0x4
    1378:	fe842703          	lw	a4,-24(s0)
    137c:	00f717b3          	sll	a5,a4,a5
    1380:	fec42703          	lw	a4,-20(s0)
    1384:	8fd9                	or	a5,a5,a4
    1386:	fef42623          	sw	a5,-20(s0)
D:\A_Dual1\Dual-core_Communication_Demo\Dual-core_Communication_Demo\SLAVE\obj/../Libraries/wch_libraries/Peripheral/ch32v10x_gpio.c:439
  }

  if((GPIO_Remap & 0x80000000) == 0x80000000)
    138a:	fdc42783          	lw	a5,-36(s0)
    138e:	0007d863          	bgez	a5,139e <GPIO_PinRemapConfig+0x12a>
D:\A_Dual1\Dual-core_Communication_Demo\Dual-core_Communication_Demo\SLAVE\obj/../Libraries/wch_libraries/Peripheral/ch32v10x_gpio.c:441
  {
    AFIO->PCFR2 = tmpreg;
    1392:	400107b7          	lui	a5,0x40010
    1396:	fec42703          	lw	a4,-20(s0)
    139a:	cfd8                	sw	a4,28(a5)
D:\A_Dual1\Dual-core_Communication_Demo\Dual-core_Communication_Demo\SLAVE\obj/../Libraries/wch_libraries/Peripheral/ch32v10x_gpio.c:447
  }
  else
  {
    AFIO->PCFR1 = tmpreg;
  }  
}
    139c:	a031                	j	13a8 <GPIO_PinRemapConfig+0x134>
D:\A_Dual1\Dual-core_Communication_Demo\Dual-core_Communication_Demo\SLAVE\obj/../Libraries/wch_libraries/Peripheral/ch32v10x_gpio.c:445
    AFIO->PCFR1 = tmpreg;
    139e:	400107b7          	lui	a5,0x40010
    13a2:	fec42703          	lw	a4,-20(s0)
    13a6:	c3d8                	sw	a4,4(a5)
D:\A_Dual1\Dual-core_Communication_Demo\Dual-core_Communication_Demo\SLAVE\obj/../Libraries/wch_libraries/Peripheral/ch32v10x_gpio.c:447
}
    13a8:	0001                	nop
    13aa:	5432                	lw	s0,44(sp)
    13ac:	6145                	addi	sp,sp,48
    13ae:	8082                	ret

000013b0 <GPIO_EXTILineConfig>:
GPIO_EXTILineConfig():
D:\A_Dual1\Dual-core_Communication_Demo\Dual-core_Communication_Demo\SLAVE\obj/../Libraries/wch_libraries/Peripheral/ch32v10x_gpio.c:459
*                  GPIO_PinSource: specifies the EXTI line to be configured.
*                    This parameter can be GPIO_PinSourcex where x can be (0..15).
* Return         : None
*******************************************************************************/
void GPIO_EXTILineConfig(uint8_t GPIO_PortSource, uint8_t GPIO_PinSource)
{
    13b0:	7179                	addi	sp,sp,-48
    13b2:	d622                	sw	s0,44(sp)
    13b4:	1800                	addi	s0,sp,48
    13b6:	87aa                	mv	a5,a0
    13b8:	872e                	mv	a4,a1
    13ba:	fcf40fa3          	sb	a5,-33(s0)
    13be:	87ba                	mv	a5,a4
    13c0:	fcf40f23          	sb	a5,-34(s0)
D:\A_Dual1\Dual-core_Communication_Demo\Dual-core_Communication_Demo\SLAVE\obj/../Libraries/wch_libraries/Peripheral/ch32v10x_gpio.c:460
  uint32_t tmp = 0x00;
    13c4:	fe042623          	sw	zero,-20(s0)
D:\A_Dual1\Dual-core_Communication_Demo\Dual-core_Communication_Demo\SLAVE\obj/../Libraries/wch_libraries/Peripheral/ch32v10x_gpio.c:462

  tmp = ((uint32_t)0x0F) << (0x04 * (GPIO_PinSource & (uint8_t)0x03));
    13c8:	fde44783          	lbu	a5,-34(s0)
    13cc:	8b8d                	andi	a5,a5,3
    13ce:	078a                	slli	a5,a5,0x2
    13d0:	473d                	li	a4,15
    13d2:	00f717b3          	sll	a5,a4,a5
    13d6:	fef42623          	sw	a5,-20(s0)
D:\A_Dual1\Dual-core_Communication_Demo\Dual-core_Communication_Demo\SLAVE\obj/../Libraries/wch_libraries/Peripheral/ch32v10x_gpio.c:463
  AFIO->EXTICR[GPIO_PinSource >> 0x02] &= ~tmp;
    13da:	40010737          	lui	a4,0x40010
    13de:	fde44783          	lbu	a5,-34(s0)
    13e2:	8389                	srli	a5,a5,0x2
    13e4:	0ff7f793          	andi	a5,a5,255
    13e8:	078a                	slli	a5,a5,0x2
    13ea:	97ba                	add	a5,a5,a4
    13ec:	4798                	lw	a4,8(a5)
    13ee:	fec42783          	lw	a5,-20(s0)
    13f2:	fff7c793          	not	a5,a5
    13f6:	400106b7          	lui	a3,0x40010
    13fa:	fde44603          	lbu	a2,-34(s0)
    13fe:	8209                	srli	a2,a2,0x2
    1400:	0ff67613          	andi	a2,a2,255
    1404:	8f7d                	and	a4,a4,a5
    1406:	00261793          	slli	a5,a2,0x2
    140a:	97b6                	add	a5,a5,a3
    140c:	c798                	sw	a4,8(a5)
D:\A_Dual1\Dual-core_Communication_Demo\Dual-core_Communication_Demo\SLAVE\obj/../Libraries/wch_libraries/Peripheral/ch32v10x_gpio.c:464
  AFIO->EXTICR[GPIO_PinSource >> 0x02] |= (((uint32_t)GPIO_PortSource) << (0x04 * (GPIO_PinSource & (uint8_t)0x03)));
    140e:	40010737          	lui	a4,0x40010
    1412:	fde44783          	lbu	a5,-34(s0)
    1416:	8389                	srli	a5,a5,0x2
    1418:	0ff7f793          	andi	a5,a5,255
    141c:	078a                	slli	a5,a5,0x2
    141e:	97ba                	add	a5,a5,a4
    1420:	4798                	lw	a4,8(a5)
    1422:	fdf44683          	lbu	a3,-33(s0)
    1426:	fde44783          	lbu	a5,-34(s0)
    142a:	8b8d                	andi	a5,a5,3
    142c:	078a                	slli	a5,a5,0x2
    142e:	00f697b3          	sll	a5,a3,a5
    1432:	400106b7          	lui	a3,0x40010
    1436:	fde44603          	lbu	a2,-34(s0)
    143a:	8209                	srli	a2,a2,0x2
    143c:	0ff67613          	andi	a2,a2,255
    1440:	8f5d                	or	a4,a4,a5
    1442:	00261793          	slli	a5,a2,0x2
    1446:	97b6                	add	a5,a5,a3
    1448:	c798                	sw	a4,8(a5)
D:\A_Dual1\Dual-core_Communication_Demo\Dual-core_Communication_Demo\SLAVE\obj/../Libraries/wch_libraries/Peripheral/ch32v10x_gpio.c:465
}
    144a:	0001                	nop
    144c:	5432                	lw	s0,44(sp)
    144e:	6145                	addi	sp,sp,48
    1450:	8082                	ret

00001452 <NVIC_EnableIRQ>:
NVIC_EnableIRQ():
D:\A_Dual1\Dual-core_Communication_Demo\Dual-core_Communication_Demo\SLAVE\obj/../Libraries/wch_libraries/Core/core_riscv.h:126
* Function Name  : NVIC_EnableIRQ
* Description    : Enable Interrupt
* Input          : IRQn: Interrupt Numbers
* Return         : None
*******************************************************************************/
RV_STATIC_INLINE void NVIC_EnableIRQ(IRQn_Type IRQn){
    1452:	1101                	addi	sp,sp,-32
    1454:	ce22                	sw	s0,28(sp)
    1456:	1000                	addi	s0,sp,32
    1458:	fea42623          	sw	a0,-20(s0)
D:\A_Dual1\Dual-core_Communication_Demo\Dual-core_Communication_Demo\SLAVE\obj/../Libraries/wch_libraries/Core/core_riscv.h:127
  NVIC->IENR[((uint32_t)(IRQn) >> 5)] = (1 << ((uint32_t)(IRQn) & 0x1F));
    145c:	fec42783          	lw	a5,-20(s0)
    1460:	8bfd                	andi	a5,a5,31
    1462:	4705                	li	a4,1
    1464:	00f716b3          	sll	a3,a4,a5
    1468:	e000e737          	lui	a4,0xe000e
    146c:	fec42783          	lw	a5,-20(s0)
    1470:	8395                	srli	a5,a5,0x5
    1472:	04078793          	addi	a5,a5,64 # 40010040 <_eusrstack+0x2000b040>
    1476:	078a                	slli	a5,a5,0x2
    1478:	97ba                	add	a5,a5,a4
    147a:	c394                	sw	a3,0(a5)
D:\A_Dual1\Dual-core_Communication_Demo\Dual-core_Communication_Demo\SLAVE\obj/../Libraries/wch_libraries/Core/core_riscv.h:128
}
    147c:	0001                	nop
    147e:	4472                	lw	s0,28(sp)
    1480:	6105                	addi	sp,sp,32
    1482:	8082                	ret

00001484 <NVIC_DisableIRQ>:
NVIC_DisableIRQ():
D:\A_Dual1\Dual-core_Communication_Demo\Dual-core_Communication_Demo\SLAVE\obj/../Libraries/wch_libraries/Core/core_riscv.h:137
* Description    : Disable Interrupt
* Input          : IRQn: Interrupt Numbers
* Return         : None
*******************************************************************************/
RV_STATIC_INLINE void NVIC_DisableIRQ(IRQn_Type IRQn)
{
    1484:	1101                	addi	sp,sp,-32
    1486:	ce22                	sw	s0,28(sp)
    1488:	1000                	addi	s0,sp,32
    148a:	fea42623          	sw	a0,-20(s0)
D:\A_Dual1\Dual-core_Communication_Demo\Dual-core_Communication_Demo\SLAVE\obj/../Libraries/wch_libraries/Core/core_riscv.h:138
  NVIC->IRER[((uint32_t)(IRQn) >> 5)] = (1 << ((uint32_t)(IRQn) & 0x1F));
    148e:	fec42783          	lw	a5,-20(s0)
    1492:	8bfd                	andi	a5,a5,31
    1494:	4705                	li	a4,1
    1496:	00f716b3          	sll	a3,a4,a5
    149a:	e000e737          	lui	a4,0xe000e
    149e:	fec42783          	lw	a5,-20(s0)
    14a2:	8395                	srli	a5,a5,0x5
    14a4:	06078793          	addi	a5,a5,96
    14a8:	078a                	slli	a5,a5,0x2
    14aa:	97ba                	add	a5,a5,a4
    14ac:	c394                	sw	a3,0(a5)
D:\A_Dual1\Dual-core_Communication_Demo\Dual-core_Communication_Demo\SLAVE\obj/../Libraries/wch_libraries/Core/core_riscv.h:139
}
    14ae:	0001                	nop
    14b0:	4472                	lw	s0,28(sp)
    14b2:	6105                	addi	sp,sp,32
    14b4:	8082                	ret

000014b6 <NVIC_SetPriority>:
NVIC_SetPriority():
D:\A_Dual1\Dual-core_Communication_Demo\Dual-core_Communication_Demo\SLAVE\obj/../Libraries/wch_libraries/Core/core_riscv.h:208
*                  priority: bit7:pre-emption priority
*                            bit6-bit4: subpriority
* Return         : None
*******************************************************************************/
RV_STATIC_INLINE void NVIC_SetPriority(IRQn_Type IRQn, uint8_t priority)
{
    14b6:	1101                	addi	sp,sp,-32
    14b8:	ce22                	sw	s0,28(sp)
    14ba:	1000                	addi	s0,sp,32
    14bc:	fea42623          	sw	a0,-20(s0)
    14c0:	87ae                	mv	a5,a1
    14c2:	fef405a3          	sb	a5,-21(s0)
D:\A_Dual1\Dual-core_Communication_Demo\Dual-core_Communication_Demo\SLAVE\obj/../Libraries/wch_libraries/Core/core_riscv.h:209
  NVIC->IPRIOR[(uint32_t)(IRQn)] = priority;
    14c6:	e000e737          	lui	a4,0xe000e
    14ca:	fec42783          	lw	a5,-20(s0)
    14ce:	97ba                	add	a5,a5,a4
    14d0:	feb44703          	lbu	a4,-21(s0)
    14d4:	40e78023          	sb	a4,1024(a5)
D:\A_Dual1\Dual-core_Communication_Demo\Dual-core_Communication_Demo\SLAVE\obj/../Libraries/wch_libraries/Core/core_riscv.h:210
}
    14d8:	0001                	nop
    14da:	4472                	lw	s0,28(sp)
    14dc:	6105                	addi	sp,sp,32
    14de:	8082                	ret

000014e0 <NVIC_Init>:
NVIC_Init():
D:\A_Dual1\Dual-core_Communication_Demo\Dual-core_Communication_Demo\SLAVE\obj/../Libraries/wch_libraries/Peripheral/ch32v10x_misc.c:44
* Input          : NVIC_InitStruct: pointer to a NVIC_InitTypeDef structure that contains the
*                                   configuration information for the specified NVIC peripheral.                 
* Return         : None
*******************************************************************************************/
void NVIC_Init(NVIC_InitTypeDef* NVIC_InitStruct)
{
    14e0:	1101                	addi	sp,sp,-32
    14e2:	ce06                	sw	ra,28(sp)
    14e4:	cc22                	sw	s0,24(sp)
    14e6:	1000                	addi	s0,sp,32
    14e8:	fea42623          	sw	a0,-20(s0)
D:\A_Dual1\Dual-core_Communication_Demo\Dual-core_Communication_Demo\SLAVE\obj/../Libraries/wch_libraries/Peripheral/ch32v10x_misc.c:47
	//uint8_t tmppre = 0;

	if((PFIC->CFGR&(1<<1)) != 0)                    //1
    14ec:	e000e7b7          	lui	a5,0xe000e
    14f0:	47bc                	lw	a5,72(a5)
    14f2:	8b89                	andi	a5,a5,2
    14f4:	c38d                	beqz	a5,1516 <NVIC_Init+0x36>
D:\A_Dual1\Dual-core_Communication_Demo\Dual-core_Communication_Demo\SLAVE\obj/../Libraries/wch_libraries/Peripheral/ch32v10x_misc.c:49
	{
		NVIC_SetPriority( NVIC_InitStruct->NVIC_IRQChannel, NVIC_InitStruct->NVIC_IRQChannelSubPriority<<4);
    14f6:	fec42783          	lw	a5,-20(s0)
    14fa:	0007c783          	lbu	a5,0(a5) # e000e000 <_eusrstack+0xc0009000>
    14fe:	873e                	mv	a4,a5
    1500:	fec42783          	lw	a5,-20(s0)
    1504:	0027c783          	lbu	a5,2(a5)
    1508:	0792                	slli	a5,a5,0x4
    150a:	0ff7f793          	andi	a5,a5,255
    150e:	85be                	mv	a1,a5
    1510:	853a                	mv	a0,a4
    1512:	3755                	jal	14b6 <NVIC_SetPriority>
    1514:	a095                	j	1578 <NVIC_Init+0x98>
D:\A_Dual1\Dual-core_Communication_Demo\Dual-core_Communication_Demo\SLAVE\obj/../Libraries/wch_libraries/Peripheral/ch32v10x_misc.c:51
	}
	else if((PFIC->CFGR&(1<<1)) == 0)               //0
    1516:	e000e7b7          	lui	a5,0xe000e
    151a:	47bc                	lw	a5,72(a5)
    151c:	8b89                	andi	a5,a5,2
    151e:	efa9                	bnez	a5,1578 <NVIC_Init+0x98>
D:\A_Dual1\Dual-core_Communication_Demo\Dual-core_Communication_Demo\SLAVE\obj/../Libraries/wch_libraries/Peripheral/ch32v10x_misc.c:53
	{
        if(NVIC_InitStruct->NVIC_IRQChannelPreemptionPriority == 1)
    1520:	fec42783          	lw	a5,-20(s0)
    1524:	0017c703          	lbu	a4,1(a5) # e000e001 <_eusrstack+0xc0009001>
    1528:	4785                	li	a5,1
    152a:	02f71863          	bne	a4,a5,155a <NVIC_Init+0x7a>
D:\A_Dual1\Dual-core_Communication_Demo\Dual-core_Communication_Demo\SLAVE\obj/../Libraries/wch_libraries/Peripheral/ch32v10x_misc.c:55
        {
            NVIC_SetPriority( NVIC_InitStruct->NVIC_IRQChannel, (1<<7)|(NVIC_InitStruct->NVIC_IRQChannelSubPriority<<4));
    152e:	fec42783          	lw	a5,-20(s0)
    1532:	0007c783          	lbu	a5,0(a5)
    1536:	873e                	mv	a4,a5
    1538:	fec42783          	lw	a5,-20(s0)
    153c:	0027c783          	lbu	a5,2(a5)
    1540:	0792                	slli	a5,a5,0x4
    1542:	07e2                	slli	a5,a5,0x18
    1544:	87e1                	srai	a5,a5,0x18
    1546:	f807e793          	ori	a5,a5,-128
    154a:	07e2                	slli	a5,a5,0x18
    154c:	87e1                	srai	a5,a5,0x18
    154e:	0ff7f793          	andi	a5,a5,255
    1552:	85be                	mv	a1,a5
    1554:	853a                	mv	a0,a4
    1556:	3785                	jal	14b6 <NVIC_SetPriority>
    1558:	a005                	j	1578 <NVIC_Init+0x98>
D:\A_Dual1\Dual-core_Communication_Demo\Dual-core_Communication_Demo\SLAVE\obj/../Libraries/wch_libraries/Peripheral/ch32v10x_misc.c:59
        }
        else
        {
            NVIC_SetPriority( NVIC_InitStruct->NVIC_IRQChannel, (0<<7)|(NVIC_InitStruct->NVIC_IRQChannelSubPriority<<4));
    155a:	fec42783          	lw	a5,-20(s0)
    155e:	0007c783          	lbu	a5,0(a5)
    1562:	873e                	mv	a4,a5
    1564:	fec42783          	lw	a5,-20(s0)
    1568:	0027c783          	lbu	a5,2(a5)
    156c:	0792                	slli	a5,a5,0x4
    156e:	0ff7f793          	andi	a5,a5,255
    1572:	85be                	mv	a1,a5
    1574:	853a                	mv	a0,a4
    1576:	3781                	jal	14b6 <NVIC_SetPriority>
D:\A_Dual1\Dual-core_Communication_Demo\Dual-core_Communication_Demo\SLAVE\obj/../Libraries/wch_libraries/Peripheral/ch32v10x_misc.c:93
//	else if(NVIC_Priority_Group == NVIC_PriorityGroup_4)
//	{
//		NVIC_SetPriority( NVIC_InitStruct->NVIC_IRQChannel, NVIC_InitStruct->NVIC_IRQChannelPreemptionPriority<<4);
//	}

  if (NVIC_InitStruct->NVIC_IRQChannelCmd != DISABLE)
    1578:	fec42783          	lw	a5,-20(s0)
    157c:	43dc                	lw	a5,4(a5)
    157e:	cb81                	beqz	a5,158e <NVIC_Init+0xae>
D:\A_Dual1\Dual-core_Communication_Demo\Dual-core_Communication_Demo\SLAVE\obj/../Libraries/wch_libraries/Peripheral/ch32v10x_misc.c:95
  {
  	NVIC_EnableIRQ(NVIC_InitStruct->NVIC_IRQChannel);
    1580:	fec42783          	lw	a5,-20(s0)
    1584:	0007c783          	lbu	a5,0(a5)
    1588:	853e                	mv	a0,a5
    158a:	35e1                	jal	1452 <NVIC_EnableIRQ>
D:\A_Dual1\Dual-core_Communication_Demo\Dual-core_Communication_Demo\SLAVE\obj/../Libraries/wch_libraries/Peripheral/ch32v10x_misc.c:101
  }
  else
  {
  	NVIC_DisableIRQ(NVIC_InitStruct->NVIC_IRQChannel);
  }
}
    158c:	a039                	j	159a <NVIC_Init+0xba>
D:\A_Dual1\Dual-core_Communication_Demo\Dual-core_Communication_Demo\SLAVE\obj/../Libraries/wch_libraries/Peripheral/ch32v10x_misc.c:99
  	NVIC_DisableIRQ(NVIC_InitStruct->NVIC_IRQChannel);
    158e:	fec42783          	lw	a5,-20(s0)
    1592:	0007c783          	lbu	a5,0(a5)
    1596:	853e                	mv	a0,a5
    1598:	35f5                	jal	1484 <NVIC_DisableIRQ>
D:\A_Dual1\Dual-core_Communication_Demo\Dual-core_Communication_Demo\SLAVE\obj/../Libraries/wch_libraries/Peripheral/ch32v10x_misc.c:101
}
    159a:	0001                	nop
    159c:	40f2                	lw	ra,28(sp)
    159e:	4462                	lw	s0,24(sp)
    15a0:	6105                	addi	sp,sp,32
    15a2:	8082                	ret

000015a4 <RCC_GetClocksFreq>:
RCC_GetClocksFreq():
D:\A_Dual1\Dual-core_Communication_Demo\Dual-core_Communication_Demo\SLAVE\obj/../Libraries/wch_libraries/Peripheral/ch32v10x_rcc.c:469
* Input          : The result of this function could be not correct when using
*      fractional value for HSE crystal.
* Return         : None
********************************************************************************/
void RCC_GetClocksFreq(RCC_ClocksTypeDef* RCC_Clocks)
{
    15a4:	7179                	addi	sp,sp,-48
    15a6:	d622                	sw	s0,44(sp)
    15a8:	1800                	addi	s0,sp,48
    15aa:	fca42e23          	sw	a0,-36(s0)
D:\A_Dual1\Dual-core_Communication_Demo\Dual-core_Communication_Demo\SLAVE\obj/../Libraries/wch_libraries/Peripheral/ch32v10x_rcc.c:470
  uint32_t tmp = 0, pllmull = 0, pllsource = 0, presc = 0;
    15ae:	fe042623          	sw	zero,-20(s0)
    15b2:	fe042423          	sw	zero,-24(s0)
    15b6:	fe042223          	sw	zero,-28(s0)
    15ba:	fe042023          	sw	zero,-32(s0)
D:\A_Dual1\Dual-core_Communication_Demo\Dual-core_Communication_Demo\SLAVE\obj/../Libraries/wch_libraries/Peripheral/ch32v10x_rcc.c:472
  
  tmp = RCC->CFGR0 & CFGR0_SWS_Mask;
    15be:	400217b7          	lui	a5,0x40021
    15c2:	43dc                	lw	a5,4(a5)
    15c4:	8bb1                	andi	a5,a5,12
    15c6:	fef42623          	sw	a5,-20(s0)
    15ca:	fec42703          	lw	a4,-20(s0)
    15ce:	4791                	li	a5,4
    15d0:	02f70263          	beq	a4,a5,15f4 <RCC_GetClocksFreq+0x50>
    15d4:	fec42703          	lw	a4,-20(s0)
    15d8:	47a1                	li	a5,8
    15da:	02f70563          	beq	a4,a5,1604 <RCC_GetClocksFreq+0x60>
    15de:	fec42783          	lw	a5,-20(s0)
    15e2:	e7c5                	bnez	a5,168a <RCC_GetClocksFreq+0xe6>
D:\A_Dual1\Dual-core_Communication_Demo\Dual-core_Communication_Demo\SLAVE\obj/../Libraries/wch_libraries/Peripheral/ch32v10x_rcc.c:477
  
  switch (tmp)
  {
    case 0x00: 
      RCC_Clocks->SYSCLK_Frequency = HSI_VALUE;
    15e4:	fdc42783          	lw	a5,-36(s0)
    15e8:	007a1737          	lui	a4,0x7a1
    15ec:	20070713          	addi	a4,a4,512 # 7a1200 <_data_lma+0x7971e8>
    15f0:	c398                	sw	a4,0(a5)
D:\A_Dual1\Dual-core_Communication_Demo\Dual-core_Communication_Demo\SLAVE\obj/../Libraries/wch_libraries/Peripheral/ch32v10x_rcc.c:478
      break;
    15f2:	a065                	j	169a <RCC_GetClocksFreq+0xf6>
D:\A_Dual1\Dual-core_Communication_Demo\Dual-core_Communication_Demo\SLAVE\obj/../Libraries/wch_libraries/Peripheral/ch32v10x_rcc.c:481
		
    case 0x04:
      RCC_Clocks->SYSCLK_Frequency = HSE_VALUE;
    15f4:	fdc42783          	lw	a5,-36(s0)
    15f8:	007a1737          	lui	a4,0x7a1
    15fc:	20070713          	addi	a4,a4,512 # 7a1200 <_data_lma+0x7971e8>
    1600:	c398                	sw	a4,0(a5)
D:\A_Dual1\Dual-core_Communication_Demo\Dual-core_Communication_Demo\SLAVE\obj/../Libraries/wch_libraries/Peripheral/ch32v10x_rcc.c:482
      break;
    1602:	a861                	j	169a <RCC_GetClocksFreq+0xf6>
D:\A_Dual1\Dual-core_Communication_Demo\Dual-core_Communication_Demo\SLAVE\obj/../Libraries/wch_libraries/Peripheral/ch32v10x_rcc.c:485
		
    case 0x08:
      pllmull = RCC->CFGR0 & CFGR0_PLLMull_Mask;
    1604:	400217b7          	lui	a5,0x40021
    1608:	43d8                	lw	a4,4(a5)
    160a:	003c07b7          	lui	a5,0x3c0
    160e:	8ff9                	and	a5,a5,a4
    1610:	fef42423          	sw	a5,-24(s0)
D:\A_Dual1\Dual-core_Communication_Demo\Dual-core_Communication_Demo\SLAVE\obj/../Libraries/wch_libraries/Peripheral/ch32v10x_rcc.c:486
      pllsource = RCC->CFGR0 & CFGR0_PLLSRC_Mask;    
    1614:	400217b7          	lui	a5,0x40021
    1618:	43d8                	lw	a4,4(a5)
    161a:	67c1                	lui	a5,0x10
    161c:	8ff9                	and	a5,a5,a4
    161e:	fef42223          	sw	a5,-28(s0)
D:\A_Dual1\Dual-core_Communication_Demo\Dual-core_Communication_Demo\SLAVE\obj/../Libraries/wch_libraries/Peripheral/ch32v10x_rcc.c:487
      pllmull = ( pllmull >> 18) + 2;
    1622:	fe842783          	lw	a5,-24(s0)
    1626:	83c9                	srli	a5,a5,0x12
    1628:	0789                	addi	a5,a5,2
    162a:	fef42423          	sw	a5,-24(s0)
D:\A_Dual1\Dual-core_Communication_Demo\Dual-core_Communication_Demo\SLAVE\obj/../Libraries/wch_libraries/Peripheral/ch32v10x_rcc.c:489
      
      if (pllsource == 0x00)
    162e:	fe442783          	lw	a5,-28(s0)
    1632:	ef89                	bnez	a5,164c <RCC_GetClocksFreq+0xa8>
D:\A_Dual1\Dual-core_Communication_Demo\Dual-core_Communication_Demo\SLAVE\obj/../Libraries/wch_libraries/Peripheral/ch32v10x_rcc.c:491
      {
        RCC_Clocks->SYSCLK_Frequency = (HSI_VALUE >> 1) * pllmull;
    1634:	fe842703          	lw	a4,-24(s0)
    1638:	003d17b7          	lui	a5,0x3d1
    163c:	90078793          	addi	a5,a5,-1792 # 3d0900 <_data_lma+0x3c68e8>
    1640:	02f70733          	mul	a4,a4,a5
    1644:	fdc42783          	lw	a5,-36(s0)
    1648:	c398                	sw	a4,0(a5)
D:\A_Dual1\Dual-core_Communication_Demo\Dual-core_Communication_Demo\SLAVE\obj/../Libraries/wch_libraries/Peripheral/ch32v10x_rcc.c:504
        else
        {
          RCC_Clocks->SYSCLK_Frequency = HSE_VALUE * pllmull;
        }
      } 
      break;
    164a:	a881                	j	169a <RCC_GetClocksFreq+0xf6>
D:\A_Dual1\Dual-core_Communication_Demo\Dual-core_Communication_Demo\SLAVE\obj/../Libraries/wch_libraries/Peripheral/ch32v10x_rcc.c:495
        if ((RCC->CFGR0 & CFGR0_PLLXTPRE_Mask) != (uint32_t)RESET)
    164c:	400217b7          	lui	a5,0x40021
    1650:	43d8                	lw	a4,4(a5)
    1652:	000207b7          	lui	a5,0x20
    1656:	8ff9                	and	a5,a5,a4
    1658:	cf89                	beqz	a5,1672 <RCC_GetClocksFreq+0xce>
D:\A_Dual1\Dual-core_Communication_Demo\Dual-core_Communication_Demo\SLAVE\obj/../Libraries/wch_libraries/Peripheral/ch32v10x_rcc.c:497
          RCC_Clocks->SYSCLK_Frequency = (HSE_VALUE >> 1) * pllmull;
    165a:	fe842703          	lw	a4,-24(s0)
    165e:	003d17b7          	lui	a5,0x3d1
    1662:	90078793          	addi	a5,a5,-1792 # 3d0900 <_data_lma+0x3c68e8>
    1666:	02f70733          	mul	a4,a4,a5
    166a:	fdc42783          	lw	a5,-36(s0)
    166e:	c398                	sw	a4,0(a5)
D:\A_Dual1\Dual-core_Communication_Demo\Dual-core_Communication_Demo\SLAVE\obj/../Libraries/wch_libraries/Peripheral/ch32v10x_rcc.c:504
      break;
    1670:	a02d                	j	169a <RCC_GetClocksFreq+0xf6>
D:\A_Dual1\Dual-core_Communication_Demo\Dual-core_Communication_Demo\SLAVE\obj/../Libraries/wch_libraries/Peripheral/ch32v10x_rcc.c:501
          RCC_Clocks->SYSCLK_Frequency = HSE_VALUE * pllmull;
    1672:	fe842703          	lw	a4,-24(s0)
    1676:	007a17b7          	lui	a5,0x7a1
    167a:	20078793          	addi	a5,a5,512 # 7a1200 <_data_lma+0x7971e8>
    167e:	02f70733          	mul	a4,a4,a5
    1682:	fdc42783          	lw	a5,-36(s0)
    1686:	c398                	sw	a4,0(a5)
D:\A_Dual1\Dual-core_Communication_Demo\Dual-core_Communication_Demo\SLAVE\obj/../Libraries/wch_libraries/Peripheral/ch32v10x_rcc.c:504
      break;
    1688:	a809                	j	169a <RCC_GetClocksFreq+0xf6>
D:\A_Dual1\Dual-core_Communication_Demo\Dual-core_Communication_Demo\SLAVE\obj/../Libraries/wch_libraries/Peripheral/ch32v10x_rcc.c:507

    default:
      RCC_Clocks->SYSCLK_Frequency = HSI_VALUE;
    168a:	fdc42783          	lw	a5,-36(s0)
    168e:	007a1737          	lui	a4,0x7a1
    1692:	20070713          	addi	a4,a4,512 # 7a1200 <_data_lma+0x7971e8>
    1696:	c398                	sw	a4,0(a5)
D:\A_Dual1\Dual-core_Communication_Demo\Dual-core_Communication_Demo\SLAVE\obj/../Libraries/wch_libraries/Peripheral/ch32v10x_rcc.c:508
      break;
    1698:	0001                	nop
D:\A_Dual1\Dual-core_Communication_Demo\Dual-core_Communication_Demo\SLAVE\obj/../Libraries/wch_libraries/Peripheral/ch32v10x_rcc.c:511
  }

  tmp = RCC->CFGR0 & CFGR0_HPRE_Set_Mask;
    169a:	400217b7          	lui	a5,0x40021
    169e:	43dc                	lw	a5,4(a5)
    16a0:	0f07f793          	andi	a5,a5,240
    16a4:	fef42623          	sw	a5,-20(s0)
D:\A_Dual1\Dual-core_Communication_Demo\Dual-core_Communication_Demo\SLAVE\obj/../Libraries/wch_libraries/Peripheral/ch32v10x_rcc.c:512
  tmp = tmp >> 4;
    16a8:	fec42783          	lw	a5,-20(s0)
    16ac:	8391                	srli	a5,a5,0x4
    16ae:	fef42623          	sw	a5,-20(s0)
D:\A_Dual1\Dual-core_Communication_Demo\Dual-core_Communication_Demo\SLAVE\obj/../Libraries/wch_libraries/Peripheral/ch32v10x_rcc.c:513
  presc = APBAHBPrescTable[tmp];
    16b2:	200007b7          	lui	a5,0x20000
    16b6:	00078713          	mv	a4,a5
    16ba:	fec42783          	lw	a5,-20(s0)
    16be:	97ba                	add	a5,a5,a4
    16c0:	0007c783          	lbu	a5,0(a5) # 20000000 <_data_vma>
    16c4:	0ff7f793          	andi	a5,a5,255
    16c8:	fef42023          	sw	a5,-32(s0)
D:\A_Dual1\Dual-core_Communication_Demo\Dual-core_Communication_Demo\SLAVE\obj/../Libraries/wch_libraries/Peripheral/ch32v10x_rcc.c:514
  RCC_Clocks->HCLK_Frequency = RCC_Clocks->SYSCLK_Frequency >> presc;
    16cc:	fdc42783          	lw	a5,-36(s0)
    16d0:	4398                	lw	a4,0(a5)
    16d2:	fe042783          	lw	a5,-32(s0)
    16d6:	00f75733          	srl	a4,a4,a5
    16da:	fdc42783          	lw	a5,-36(s0)
    16de:	c3d8                	sw	a4,4(a5)
D:\A_Dual1\Dual-core_Communication_Demo\Dual-core_Communication_Demo\SLAVE\obj/../Libraries/wch_libraries/Peripheral/ch32v10x_rcc.c:515
  tmp = RCC->CFGR0 & CFGR0_PPRE1_Set_Mask;
    16e0:	400217b7          	lui	a5,0x40021
    16e4:	43dc                	lw	a5,4(a5)
    16e6:	7007f793          	andi	a5,a5,1792
    16ea:	fef42623          	sw	a5,-20(s0)
D:\A_Dual1\Dual-core_Communication_Demo\Dual-core_Communication_Demo\SLAVE\obj/../Libraries/wch_libraries/Peripheral/ch32v10x_rcc.c:516
  tmp = tmp >> 8;
    16ee:	fec42783          	lw	a5,-20(s0)
    16f2:	83a1                	srli	a5,a5,0x8
    16f4:	fef42623          	sw	a5,-20(s0)
D:\A_Dual1\Dual-core_Communication_Demo\Dual-core_Communication_Demo\SLAVE\obj/../Libraries/wch_libraries/Peripheral/ch32v10x_rcc.c:517
  presc = APBAHBPrescTable[tmp];
    16f8:	200007b7          	lui	a5,0x20000
    16fc:	00078713          	mv	a4,a5
    1700:	fec42783          	lw	a5,-20(s0)
    1704:	97ba                	add	a5,a5,a4
    1706:	0007c783          	lbu	a5,0(a5) # 20000000 <_data_vma>
    170a:	0ff7f793          	andi	a5,a5,255
    170e:	fef42023          	sw	a5,-32(s0)
D:\A_Dual1\Dual-core_Communication_Demo\Dual-core_Communication_Demo\SLAVE\obj/../Libraries/wch_libraries/Peripheral/ch32v10x_rcc.c:518
  RCC_Clocks->PCLK1_Frequency = RCC_Clocks->HCLK_Frequency >> presc;
    1712:	fdc42783          	lw	a5,-36(s0)
    1716:	43d8                	lw	a4,4(a5)
    1718:	fe042783          	lw	a5,-32(s0)
    171c:	00f75733          	srl	a4,a4,a5
    1720:	fdc42783          	lw	a5,-36(s0)
    1724:	c798                	sw	a4,8(a5)
D:\A_Dual1\Dual-core_Communication_Demo\Dual-core_Communication_Demo\SLAVE\obj/../Libraries/wch_libraries/Peripheral/ch32v10x_rcc.c:519
  tmp = RCC->CFGR0 & CFGR0_PPRE2_Set_Mask;
    1726:	400217b7          	lui	a5,0x40021
    172a:	43d8                	lw	a4,4(a5)
    172c:	6791                	lui	a5,0x4
    172e:	80078793          	addi	a5,a5,-2048 # 3800 <gpio_interrupt_init+0x26>
    1732:	8ff9                	and	a5,a5,a4
    1734:	fef42623          	sw	a5,-20(s0)
D:\A_Dual1\Dual-core_Communication_Demo\Dual-core_Communication_Demo\SLAVE\obj/../Libraries/wch_libraries/Peripheral/ch32v10x_rcc.c:520
  tmp = tmp >> 11;
    1738:	fec42783          	lw	a5,-20(s0)
    173c:	83ad                	srli	a5,a5,0xb
    173e:	fef42623          	sw	a5,-20(s0)
D:\A_Dual1\Dual-core_Communication_Demo\Dual-core_Communication_Demo\SLAVE\obj/../Libraries/wch_libraries/Peripheral/ch32v10x_rcc.c:521
  presc = APBAHBPrescTable[tmp];
    1742:	200007b7          	lui	a5,0x20000
    1746:	00078713          	mv	a4,a5
    174a:	fec42783          	lw	a5,-20(s0)
    174e:	97ba                	add	a5,a5,a4
    1750:	0007c783          	lbu	a5,0(a5) # 20000000 <_data_vma>
    1754:	0ff7f793          	andi	a5,a5,255
    1758:	fef42023          	sw	a5,-32(s0)
D:\A_Dual1\Dual-core_Communication_Demo\Dual-core_Communication_Demo\SLAVE\obj/../Libraries/wch_libraries/Peripheral/ch32v10x_rcc.c:522
  RCC_Clocks->PCLK2_Frequency = RCC_Clocks->HCLK_Frequency >> presc;
    175c:	fdc42783          	lw	a5,-36(s0)
    1760:	43d8                	lw	a4,4(a5)
    1762:	fe042783          	lw	a5,-32(s0)
    1766:	00f75733          	srl	a4,a4,a5
    176a:	fdc42783          	lw	a5,-36(s0)
    176e:	c7d8                	sw	a4,12(a5)
D:\A_Dual1\Dual-core_Communication_Demo\Dual-core_Communication_Demo\SLAVE\obj/../Libraries/wch_libraries/Peripheral/ch32v10x_rcc.c:523
  tmp = RCC->CFGR0 & CFGR0_ADCPRE_Set_Mask;
    1770:	400217b7          	lui	a5,0x40021
    1774:	43d8                	lw	a4,4(a5)
    1776:	67b1                	lui	a5,0xc
    1778:	8ff9                	and	a5,a5,a4
    177a:	fef42623          	sw	a5,-20(s0)
D:\A_Dual1\Dual-core_Communication_Demo\Dual-core_Communication_Demo\SLAVE\obj/../Libraries/wch_libraries/Peripheral/ch32v10x_rcc.c:524
  tmp = tmp >> 14;
    177e:	fec42783          	lw	a5,-20(s0)
    1782:	83b9                	srli	a5,a5,0xe
    1784:	fef42623          	sw	a5,-20(s0)
D:\A_Dual1\Dual-core_Communication_Demo\Dual-core_Communication_Demo\SLAVE\obj/../Libraries/wch_libraries/Peripheral/ch32v10x_rcc.c:525
  presc = ADCPrescTable[tmp];
    1788:	200007b7          	lui	a5,0x20000
    178c:	11878713          	addi	a4,a5,280 # 20000118 <ADCPrescTable>
    1790:	fec42783          	lw	a5,-20(s0)
    1794:	97ba                	add	a5,a5,a4
    1796:	0007c783          	lbu	a5,0(a5)
    179a:	0ff7f793          	andi	a5,a5,255
    179e:	fef42023          	sw	a5,-32(s0)
D:\A_Dual1\Dual-core_Communication_Demo\Dual-core_Communication_Demo\SLAVE\obj/../Libraries/wch_libraries/Peripheral/ch32v10x_rcc.c:526
  RCC_Clocks->ADCCLK_Frequency = RCC_Clocks->PCLK2_Frequency / presc;
    17a2:	fdc42783          	lw	a5,-36(s0)
    17a6:	47d8                	lw	a4,12(a5)
    17a8:	fe042783          	lw	a5,-32(s0)
    17ac:	02f75733          	divu	a4,a4,a5
    17b0:	fdc42783          	lw	a5,-36(s0)
    17b4:	cb98                	sw	a4,16(a5)
D:\A_Dual1\Dual-core_Communication_Demo\Dual-core_Communication_Demo\SLAVE\obj/../Libraries/wch_libraries/Peripheral/ch32v10x_rcc.c:527
}
    17b6:	0001                	nop
    17b8:	5432                	lw	s0,44(sp)
    17ba:	6145                	addi	sp,sp,48
    17bc:	8082                	ret

000017be <RCC_AHBPeriphClockCmd>:
RCC_AHBPeriphClockCmd():
D:\A_Dual1\Dual-core_Communication_Demo\Dual-core_Communication_Demo\SLAVE\obj/../Libraries/wch_libraries/Peripheral/ch32v10x_rcc.c:542
*                    RCC_AHBPeriph_CRC.                  
*                  NewState: ENABLE or DISABLE.
* Return         : None
*******************************************************************************/	
void RCC_AHBPeriphClockCmd(uint32_t RCC_AHBPeriph, FunctionalState NewState)
{
    17be:	1101                	addi	sp,sp,-32
    17c0:	ce22                	sw	s0,28(sp)
    17c2:	1000                	addi	s0,sp,32
    17c4:	fea42623          	sw	a0,-20(s0)
    17c8:	feb42423          	sw	a1,-24(s0)
D:\A_Dual1\Dual-core_Communication_Demo\Dual-core_Communication_Demo\SLAVE\obj/../Libraries/wch_libraries/Peripheral/ch32v10x_rcc.c:543
  if (NewState != DISABLE)
    17cc:	fe842783          	lw	a5,-24(s0)
    17d0:	cb99                	beqz	a5,17e6 <RCC_AHBPeriphClockCmd+0x28>
D:\A_Dual1\Dual-core_Communication_Demo\Dual-core_Communication_Demo\SLAVE\obj/../Libraries/wch_libraries/Peripheral/ch32v10x_rcc.c:545
  {
    RCC->AHBPCENR |= RCC_AHBPeriph;
    17d2:	400217b7          	lui	a5,0x40021
    17d6:	4bd4                	lw	a3,20(a5)
    17d8:	400217b7          	lui	a5,0x40021
    17dc:	fec42703          	lw	a4,-20(s0)
    17e0:	8f55                	or	a4,a4,a3
    17e2:	cbd8                	sw	a4,20(a5)
D:\A_Dual1\Dual-core_Communication_Demo\Dual-core_Communication_Demo\SLAVE\obj/../Libraries/wch_libraries/Peripheral/ch32v10x_rcc.c:551
  }
  else
  {
    RCC->AHBPCENR &= ~RCC_AHBPeriph;
  }
}
    17e4:	a821                	j	17fc <RCC_AHBPeriphClockCmd+0x3e>
D:\A_Dual1\Dual-core_Communication_Demo\Dual-core_Communication_Demo\SLAVE\obj/../Libraries/wch_libraries/Peripheral/ch32v10x_rcc.c:549
    RCC->AHBPCENR &= ~RCC_AHBPeriph;
    17e6:	400217b7          	lui	a5,0x40021
    17ea:	4bd4                	lw	a3,20(a5)
    17ec:	fec42783          	lw	a5,-20(s0)
    17f0:	fff7c713          	not	a4,a5
    17f4:	400217b7          	lui	a5,0x40021
    17f8:	8f75                	and	a4,a4,a3
    17fa:	cbd8                	sw	a4,20(a5)
D:\A_Dual1\Dual-core_Communication_Demo\Dual-core_Communication_Demo\SLAVE\obj/../Libraries/wch_libraries/Peripheral/ch32v10x_rcc.c:551
}
    17fc:	0001                	nop
    17fe:	4472                	lw	s0,28(sp)
    1800:	6105                	addi	sp,sp,32
    1802:	8082                	ret

00001804 <RCC_APB2PeriphClockCmd>:
RCC_APB2PeriphClockCmd():
D:\A_Dual1\Dual-core_Communication_Demo\Dual-core_Communication_Demo\SLAVE\obj/../Libraries/wch_libraries/Peripheral/ch32v10x_rcc.c:570
*                    RCC_APB2Periph_USART1.
*                  NewState: ENABLE or DISABLE
* Return         : None
*******************************************************************************/	
void RCC_APB2PeriphClockCmd(uint32_t RCC_APB2Periph, FunctionalState NewState)
{
    1804:	1101                	addi	sp,sp,-32
    1806:	ce22                	sw	s0,28(sp)
    1808:	1000                	addi	s0,sp,32
    180a:	fea42623          	sw	a0,-20(s0)
    180e:	feb42423          	sw	a1,-24(s0)
D:\A_Dual1\Dual-core_Communication_Demo\Dual-core_Communication_Demo\SLAVE\obj/../Libraries/wch_libraries/Peripheral/ch32v10x_rcc.c:571
  if (NewState != DISABLE)
    1812:	fe842783          	lw	a5,-24(s0)
    1816:	cb99                	beqz	a5,182c <RCC_APB2PeriphClockCmd+0x28>
D:\A_Dual1\Dual-core_Communication_Demo\Dual-core_Communication_Demo\SLAVE\obj/../Libraries/wch_libraries/Peripheral/ch32v10x_rcc.c:573
  {
    RCC->APB2PCENR |= RCC_APB2Periph;
    1818:	400217b7          	lui	a5,0x40021
    181c:	4f94                	lw	a3,24(a5)
    181e:	400217b7          	lui	a5,0x40021
    1822:	fec42703          	lw	a4,-20(s0)
    1826:	8f55                	or	a4,a4,a3
    1828:	cf98                	sw	a4,24(a5)
D:\A_Dual1\Dual-core_Communication_Demo\Dual-core_Communication_Demo\SLAVE\obj/../Libraries/wch_libraries/Peripheral/ch32v10x_rcc.c:579
  }
  else
  {
    RCC->APB2PCENR &= ~RCC_APB2Periph;
  }
}
    182a:	a821                	j	1842 <RCC_APB2PeriphClockCmd+0x3e>
D:\A_Dual1\Dual-core_Communication_Demo\Dual-core_Communication_Demo\SLAVE\obj/../Libraries/wch_libraries/Peripheral/ch32v10x_rcc.c:577
    RCC->APB2PCENR &= ~RCC_APB2Periph;
    182c:	400217b7          	lui	a5,0x40021
    1830:	4f94                	lw	a3,24(a5)
    1832:	fec42783          	lw	a5,-20(s0)
    1836:	fff7c713          	not	a4,a5
    183a:	400217b7          	lui	a5,0x40021
    183e:	8f75                	and	a4,a4,a3
    1840:	cf98                	sw	a4,24(a5)
D:\A_Dual1\Dual-core_Communication_Demo\Dual-core_Communication_Demo\SLAVE\obj/../Libraries/wch_libraries/Peripheral/ch32v10x_rcc.c:579
}
    1842:	0001                	nop
    1844:	4472                	lw	s0,28(sp)
    1846:	6105                	addi	sp,sp,32
    1848:	8082                	ret

0000184a <RCC_APB1PeriphClockCmd>:
RCC_APB1PeriphClockCmd():
D:\A_Dual1\Dual-core_Communication_Demo\Dual-core_Communication_Demo\SLAVE\obj/../Libraries/wch_libraries/Peripheral/ch32v10x_rcc.c:603
*                    RCC_APB1Periph_DAC.                
*                  NewState: ENABLE or DISABLE.
* Return         : None
*******************************************************************************/	
void RCC_APB1PeriphClockCmd(uint32_t RCC_APB1Periph, FunctionalState NewState)
{
    184a:	1101                	addi	sp,sp,-32
    184c:	ce22                	sw	s0,28(sp)
    184e:	1000                	addi	s0,sp,32
    1850:	fea42623          	sw	a0,-20(s0)
    1854:	feb42423          	sw	a1,-24(s0)
D:\A_Dual1\Dual-core_Communication_Demo\Dual-core_Communication_Demo\SLAVE\obj/../Libraries/wch_libraries/Peripheral/ch32v10x_rcc.c:604
  if (NewState != DISABLE)
    1858:	fe842783          	lw	a5,-24(s0)
    185c:	cb99                	beqz	a5,1872 <RCC_APB1PeriphClockCmd+0x28>
D:\A_Dual1\Dual-core_Communication_Demo\Dual-core_Communication_Demo\SLAVE\obj/../Libraries/wch_libraries/Peripheral/ch32v10x_rcc.c:606
  {
    RCC->APB1PCENR |= RCC_APB1Periph;
    185e:	400217b7          	lui	a5,0x40021
    1862:	4fd4                	lw	a3,28(a5)
    1864:	400217b7          	lui	a5,0x40021
    1868:	fec42703          	lw	a4,-20(s0)
    186c:	8f55                	or	a4,a4,a3
    186e:	cfd8                	sw	a4,28(a5)
D:\A_Dual1\Dual-core_Communication_Demo\Dual-core_Communication_Demo\SLAVE\obj/../Libraries/wch_libraries/Peripheral/ch32v10x_rcc.c:612
  }
  else
  {
    RCC->APB1PCENR &= ~RCC_APB1Periph;
  }
}
    1870:	a821                	j	1888 <RCC_APB1PeriphClockCmd+0x3e>
D:\A_Dual1\Dual-core_Communication_Demo\Dual-core_Communication_Demo\SLAVE\obj/../Libraries/wch_libraries/Peripheral/ch32v10x_rcc.c:610
    RCC->APB1PCENR &= ~RCC_APB1Periph;
    1872:	400217b7          	lui	a5,0x40021
    1876:	4fd4                	lw	a3,28(a5)
    1878:	fec42783          	lw	a5,-20(s0)
    187c:	fff7c713          	not	a4,a5
    1880:	400217b7          	lui	a5,0x40021
    1884:	8f75                	and	a4,a4,a3
    1886:	cfd8                	sw	a4,28(a5)
D:\A_Dual1\Dual-core_Communication_Demo\Dual-core_Communication_Demo\SLAVE\obj/../Libraries/wch_libraries/Peripheral/ch32v10x_rcc.c:612
}
    1888:	0001                	nop
    188a:	4472                	lw	s0,28(sp)
    188c:	6105                	addi	sp,sp,32
    188e:	8082                	ret

00001890 <SPI_Init>:
SPI_Init():
D:\A_Dual1\Dual-core_Communication_Demo\Dual-core_Communication_Demo\SLAVE\obj/../Libraries/wch_libraries/Peripheral/ch32v10x_spi.c:83
*                  SPI_InitStruct: pointer to a SPI_InitTypeDef structure that
*      contains the configuration information for the specified SPI peripheral.
* Return         : None
*******************************************************************************/
void SPI_Init(SPI_TypeDef* SPIx, SPI_InitTypeDef* SPI_InitStruct)
{
    1890:	7179                	addi	sp,sp,-48
    1892:	d622                	sw	s0,44(sp)
    1894:	1800                	addi	s0,sp,48
    1896:	fca42e23          	sw	a0,-36(s0)
    189a:	fcb42c23          	sw	a1,-40(s0)
D:\A_Dual1\Dual-core_Communication_Demo\Dual-core_Communication_Demo\SLAVE\obj/../Libraries/wch_libraries/Peripheral/ch32v10x_spi.c:84
  uint16_t tmpreg = 0;
    189e:	fe041723          	sh	zero,-18(s0)
D:\A_Dual1\Dual-core_Communication_Demo\Dual-core_Communication_Demo\SLAVE\obj/../Libraries/wch_libraries/Peripheral/ch32v10x_spi.c:86
  
  tmpreg = SPIx->CTLR1;
    18a2:	fdc42783          	lw	a5,-36(s0)
    18a6:	0007d783          	lhu	a5,0(a5) # 40021000 <_eusrstack+0x2001c000>
    18aa:	fef41723          	sh	a5,-18(s0)
D:\A_Dual1\Dual-core_Communication_Demo\Dual-core_Communication_Demo\SLAVE\obj/../Libraries/wch_libraries/Peripheral/ch32v10x_spi.c:87
  tmpreg &= CTLR1_CLEAR_Mask;
    18ae:	fee45703          	lhu	a4,-18(s0)
    18b2:	678d                	lui	a5,0x3
    18b4:	04078793          	addi	a5,a5,64 # 3040 <set_config+0xd0>
    18b8:	8ff9                	and	a5,a5,a4
    18ba:	fef41723          	sh	a5,-18(s0)
D:\A_Dual1\Dual-core_Communication_Demo\Dual-core_Communication_Demo\SLAVE\obj/../Libraries/wch_libraries/Peripheral/ch32v10x_spi.c:88
  tmpreg |= (uint16_t)((uint32_t)SPI_InitStruct->SPI_Direction | SPI_InitStruct->SPI_Mode |
    18be:	fd842783          	lw	a5,-40(s0)
    18c2:	0007d703          	lhu	a4,0(a5)
    18c6:	fd842783          	lw	a5,-40(s0)
    18ca:	0027d783          	lhu	a5,2(a5)
    18ce:	8fd9                	or	a5,a5,a4
    18d0:	01079713          	slli	a4,a5,0x10
    18d4:	8341                	srli	a4,a4,0x10
D:\A_Dual1\Dual-core_Communication_Demo\Dual-core_Communication_Demo\SLAVE\obj/../Libraries/wch_libraries/Peripheral/ch32v10x_spi.c:89
                  SPI_InitStruct->SPI_DataSize | SPI_InitStruct->SPI_CPOL |  
    18d6:	fd842783          	lw	a5,-40(s0)
    18da:	0047d783          	lhu	a5,4(a5)
D:\A_Dual1\Dual-core_Communication_Demo\Dual-core_Communication_Demo\SLAVE\obj/../Libraries/wch_libraries/Peripheral/ch32v10x_spi.c:88
  tmpreg |= (uint16_t)((uint32_t)SPI_InitStruct->SPI_Direction | SPI_InitStruct->SPI_Mode |
    18de:	8fd9                	or	a5,a5,a4
    18e0:	01079713          	slli	a4,a5,0x10
    18e4:	8341                	srli	a4,a4,0x10
D:\A_Dual1\Dual-core_Communication_Demo\Dual-core_Communication_Demo\SLAVE\obj/../Libraries/wch_libraries/Peripheral/ch32v10x_spi.c:89
                  SPI_InitStruct->SPI_DataSize | SPI_InitStruct->SPI_CPOL |  
    18e6:	fd842783          	lw	a5,-40(s0)
    18ea:	0067d783          	lhu	a5,6(a5)
D:\A_Dual1\Dual-core_Communication_Demo\Dual-core_Communication_Demo\SLAVE\obj/../Libraries/wch_libraries/Peripheral/ch32v10x_spi.c:88
  tmpreg |= (uint16_t)((uint32_t)SPI_InitStruct->SPI_Direction | SPI_InitStruct->SPI_Mode |
    18ee:	8fd9                	or	a5,a5,a4
    18f0:	01079713          	slli	a4,a5,0x10
    18f4:	8341                	srli	a4,a4,0x10
D:\A_Dual1\Dual-core_Communication_Demo\Dual-core_Communication_Demo\SLAVE\obj/../Libraries/wch_libraries/Peripheral/ch32v10x_spi.c:90
                  SPI_InitStruct->SPI_CPHA | SPI_InitStruct->SPI_NSS |  
    18f6:	fd842783          	lw	a5,-40(s0)
    18fa:	0087d783          	lhu	a5,8(a5)
D:\A_Dual1\Dual-core_Communication_Demo\Dual-core_Communication_Demo\SLAVE\obj/../Libraries/wch_libraries/Peripheral/ch32v10x_spi.c:88
  tmpreg |= (uint16_t)((uint32_t)SPI_InitStruct->SPI_Direction | SPI_InitStruct->SPI_Mode |
    18fe:	8fd9                	or	a5,a5,a4
    1900:	01079713          	slli	a4,a5,0x10
    1904:	8341                	srli	a4,a4,0x10
D:\A_Dual1\Dual-core_Communication_Demo\Dual-core_Communication_Demo\SLAVE\obj/../Libraries/wch_libraries/Peripheral/ch32v10x_spi.c:90
                  SPI_InitStruct->SPI_CPHA | SPI_InitStruct->SPI_NSS |  
    1906:	fd842783          	lw	a5,-40(s0)
    190a:	00a7d783          	lhu	a5,10(a5)
D:\A_Dual1\Dual-core_Communication_Demo\Dual-core_Communication_Demo\SLAVE\obj/../Libraries/wch_libraries/Peripheral/ch32v10x_spi.c:88
  tmpreg |= (uint16_t)((uint32_t)SPI_InitStruct->SPI_Direction | SPI_InitStruct->SPI_Mode |
    190e:	8fd9                	or	a5,a5,a4
    1910:	01079713          	slli	a4,a5,0x10
    1914:	8341                	srli	a4,a4,0x10
D:\A_Dual1\Dual-core_Communication_Demo\Dual-core_Communication_Demo\SLAVE\obj/../Libraries/wch_libraries/Peripheral/ch32v10x_spi.c:91
                  SPI_InitStruct->SPI_BaudRatePrescaler | SPI_InitStruct->SPI_FirstBit);
    1916:	fd842783          	lw	a5,-40(s0)
    191a:	00c7d783          	lhu	a5,12(a5)
D:\A_Dual1\Dual-core_Communication_Demo\Dual-core_Communication_Demo\SLAVE\obj/../Libraries/wch_libraries/Peripheral/ch32v10x_spi.c:88
  tmpreg |= (uint16_t)((uint32_t)SPI_InitStruct->SPI_Direction | SPI_InitStruct->SPI_Mode |
    191e:	8fd9                	or	a5,a5,a4
    1920:	01079713          	slli	a4,a5,0x10
    1924:	8341                	srli	a4,a4,0x10
D:\A_Dual1\Dual-core_Communication_Demo\Dual-core_Communication_Demo\SLAVE\obj/../Libraries/wch_libraries/Peripheral/ch32v10x_spi.c:91
                  SPI_InitStruct->SPI_BaudRatePrescaler | SPI_InitStruct->SPI_FirstBit);
    1926:	fd842783          	lw	a5,-40(s0)
    192a:	00e7d783          	lhu	a5,14(a5)
D:\A_Dual1\Dual-core_Communication_Demo\Dual-core_Communication_Demo\SLAVE\obj/../Libraries/wch_libraries/Peripheral/ch32v10x_spi.c:88
  tmpreg |= (uint16_t)((uint32_t)SPI_InitStruct->SPI_Direction | SPI_InitStruct->SPI_Mode |
    192e:	8fd9                	or	a5,a5,a4
    1930:	01079713          	slli	a4,a5,0x10
    1934:	8341                	srli	a4,a4,0x10
    1936:	fee45783          	lhu	a5,-18(s0)
    193a:	8fd9                	or	a5,a5,a4
    193c:	fef41723          	sh	a5,-18(s0)
D:\A_Dual1\Dual-core_Communication_Demo\Dual-core_Communication_Demo\SLAVE\obj/../Libraries/wch_libraries/Peripheral/ch32v10x_spi.c:93

  SPIx->CTLR1 = tmpreg;
    1940:	fdc42783          	lw	a5,-36(s0)
    1944:	fee45703          	lhu	a4,-18(s0)
    1948:	00e79023          	sh	a4,0(a5)
D:\A_Dual1\Dual-core_Communication_Demo\Dual-core_Communication_Demo\SLAVE\obj/../Libraries/wch_libraries/Peripheral/ch32v10x_spi.c:94
  SPIx->I2SCFGR &= SPI_Mode_Select;		
    194c:	fdc42783          	lw	a5,-36(s0)
    1950:	01c7d783          	lhu	a5,28(a5)
    1954:	01079713          	slli	a4,a5,0x10
    1958:	8341                	srli	a4,a4,0x10
    195a:	77fd                	lui	a5,0xfffff
    195c:	7ff78793          	addi	a5,a5,2047 # fffff7ff <_eusrstack+0xdfffa7ff>
    1960:	8ff9                	and	a5,a5,a4
    1962:	01079713          	slli	a4,a5,0x10
    1966:	8341                	srli	a4,a4,0x10
    1968:	fdc42783          	lw	a5,-36(s0)
    196c:	00e79e23          	sh	a4,28(a5)
D:\A_Dual1\Dual-core_Communication_Demo\Dual-core_Communication_Demo\SLAVE\obj/../Libraries/wch_libraries/Peripheral/ch32v10x_spi.c:95
  SPIx->CRCR = SPI_InitStruct->SPI_CRCPolynomial;
    1970:	fd842783          	lw	a5,-40(s0)
    1974:	0107d703          	lhu	a4,16(a5)
    1978:	fdc42783          	lw	a5,-36(s0)
    197c:	00e79823          	sh	a4,16(a5)
D:\A_Dual1\Dual-core_Communication_Demo\Dual-core_Communication_Demo\SLAVE\obj/../Libraries/wch_libraries/Peripheral/ch32v10x_spi.c:96
}
    1980:	0001                	nop
    1982:	5432                	lw	s0,44(sp)
    1984:	6145                	addi	sp,sp,48
    1986:	8082                	ret

00001988 <SPI_Cmd>:
SPI_Cmd():
D:\A_Dual1\Dual-core_Communication_Demo\Dual-core_Communication_Demo\SLAVE\obj/../Libraries/wch_libraries/Peripheral/ch32v10x_spi.c:221
* Input          : SPIx: where x can be 1, 2 or 3 to select the SPI peripheral.
*                  NewState: ENABLE or DISABLE.
* Return         : None
*******************************************************************************/
void SPI_Cmd(SPI_TypeDef* SPIx, FunctionalState NewState)
{
    1988:	1101                	addi	sp,sp,-32
    198a:	ce22                	sw	s0,28(sp)
    198c:	1000                	addi	s0,sp,32
    198e:	fea42623          	sw	a0,-20(s0)
    1992:	feb42423          	sw	a1,-24(s0)
D:\A_Dual1\Dual-core_Communication_Demo\Dual-core_Communication_Demo\SLAVE\obj/../Libraries/wch_libraries/Peripheral/ch32v10x_spi.c:222
  if (NewState != DISABLE)
    1996:	fe842783          	lw	a5,-24(s0)
    199a:	c38d                	beqz	a5,19bc <SPI_Cmd+0x34>
D:\A_Dual1\Dual-core_Communication_Demo\Dual-core_Communication_Demo\SLAVE\obj/../Libraries/wch_libraries/Peripheral/ch32v10x_spi.c:224
  {
    SPIx->CTLR1 |= CTLR1_SPE_Set;
    199c:	fec42783          	lw	a5,-20(s0)
    19a0:	0007d783          	lhu	a5,0(a5)
    19a4:	07c2                	slli	a5,a5,0x10
    19a6:	83c1                	srli	a5,a5,0x10
    19a8:	0407e793          	ori	a5,a5,64
    19ac:	01079713          	slli	a4,a5,0x10
    19b0:	8341                	srli	a4,a4,0x10
    19b2:	fec42783          	lw	a5,-20(s0)
    19b6:	00e79023          	sh	a4,0(a5)
D:\A_Dual1\Dual-core_Communication_Demo\Dual-core_Communication_Demo\SLAVE\obj/../Libraries/wch_libraries/Peripheral/ch32v10x_spi.c:230
  }
  else
  {
    SPIx->CTLR1 &= CTLR1_SPE_Reset;
  }
}
    19ba:	a005                	j	19da <SPI_Cmd+0x52>
D:\A_Dual1\Dual-core_Communication_Demo\Dual-core_Communication_Demo\SLAVE\obj/../Libraries/wch_libraries/Peripheral/ch32v10x_spi.c:228
    SPIx->CTLR1 &= CTLR1_SPE_Reset;
    19bc:	fec42783          	lw	a5,-20(s0)
    19c0:	0007d783          	lhu	a5,0(a5)
    19c4:	07c2                	slli	a5,a5,0x10
    19c6:	83c1                	srli	a5,a5,0x10
    19c8:	fbf7f793          	andi	a5,a5,-65
    19cc:	01079713          	slli	a4,a5,0x10
    19d0:	8341                	srli	a4,a4,0x10
    19d2:	fec42783          	lw	a5,-20(s0)
    19d6:	00e79023          	sh	a4,0(a5)
D:\A_Dual1\Dual-core_Communication_Demo\Dual-core_Communication_Demo\SLAVE\obj/../Libraries/wch_libraries/Peripheral/ch32v10x_spi.c:230
}
    19da:	0001                	nop
    19dc:	4472                	lw	s0,28(sp)
    19de:	6105                	addi	sp,sp,32
    19e0:	8082                	ret

000019e2 <TIM_TimeBaseInit>:
TIM_TimeBaseInit():
D:\A_Dual1\Dual-core_Communication_Demo\Dual-core_Communication_Demo\SLAVE\obj/../Libraries/wch_libraries/Peripheral/ch32v10x_tim.c:67
*                  TIM_TimeBaseInitStruct: pointer to a TIM_TimeBaseInitTypeDef
*      structure.
* Return         : None
*******************************************************************************/
void TIM_TimeBaseInit(TIM_TypeDef* TIMx, TIM_TimeBaseInitTypeDef* TIM_TimeBaseInitStruct)
{
    19e2:	7179                	addi	sp,sp,-48
    19e4:	d622                	sw	s0,44(sp)
    19e6:	1800                	addi	s0,sp,48
    19e8:	fca42e23          	sw	a0,-36(s0)
    19ec:	fcb42c23          	sw	a1,-40(s0)
D:\A_Dual1\Dual-core_Communication_Demo\Dual-core_Communication_Demo\SLAVE\obj/../Libraries/wch_libraries/Peripheral/ch32v10x_tim.c:68
  uint16_t tmpcr1 = 0;
    19f0:	fe041723          	sh	zero,-18(s0)
D:\A_Dual1\Dual-core_Communication_Demo\Dual-core_Communication_Demo\SLAVE\obj/../Libraries/wch_libraries/Peripheral/ch32v10x_tim.c:70

  tmpcr1 = TIMx->CTLR1;  
    19f4:	fdc42783          	lw	a5,-36(s0)
    19f8:	0007d783          	lhu	a5,0(a5)
    19fc:	fef41723          	sh	a5,-18(s0)
D:\A_Dual1\Dual-core_Communication_Demo\Dual-core_Communication_Demo\SLAVE\obj/../Libraries/wch_libraries/Peripheral/ch32v10x_tim.c:72

  if((TIMx == TIM1) || (TIMx == TIM2) || (TIMx == TIM3)|| (TIMx == TIM4)) 
    1a00:	fdc42703          	lw	a4,-36(s0)
    1a04:	400137b7          	lui	a5,0x40013
    1a08:	c0078793          	addi	a5,a5,-1024 # 40012c00 <_eusrstack+0x2000dc00>
    1a0c:	02f70863          	beq	a4,a5,1a3c <TIM_TimeBaseInit+0x5a>
D:\A_Dual1\Dual-core_Communication_Demo\Dual-core_Communication_Demo\SLAVE\obj/../Libraries/wch_libraries/Peripheral/ch32v10x_tim.c:72 (discriminator 1)
    1a10:	fdc42703          	lw	a4,-36(s0)
    1a14:	400007b7          	lui	a5,0x40000
    1a18:	02f70263          	beq	a4,a5,1a3c <TIM_TimeBaseInit+0x5a>
D:\A_Dual1\Dual-core_Communication_Demo\Dual-core_Communication_Demo\SLAVE\obj/../Libraries/wch_libraries/Peripheral/ch32v10x_tim.c:72 (discriminator 2)
    1a1c:	fdc42703          	lw	a4,-36(s0)
    1a20:	400007b7          	lui	a5,0x40000
    1a24:	40078793          	addi	a5,a5,1024 # 40000400 <_eusrstack+0x1fffb400>
    1a28:	00f70a63          	beq	a4,a5,1a3c <TIM_TimeBaseInit+0x5a>
D:\A_Dual1\Dual-core_Communication_Demo\Dual-core_Communication_Demo\SLAVE\obj/../Libraries/wch_libraries/Peripheral/ch32v10x_tim.c:72 (discriminator 3)
    1a2c:	fdc42703          	lw	a4,-36(s0)
    1a30:	400017b7          	lui	a5,0x40001
    1a34:	80078793          	addi	a5,a5,-2048 # 40000800 <_eusrstack+0x1fffb800>
    1a38:	02f71163          	bne	a4,a5,1a5a <TIM_TimeBaseInit+0x78>
D:\A_Dual1\Dual-core_Communication_Demo\Dual-core_Communication_Demo\SLAVE\obj/../Libraries/wch_libraries/Peripheral/ch32v10x_tim.c:74
  {
    tmpcr1 &= (uint16_t)(~((uint16_t)(TIM_DIR | TIM_CMS)));
    1a3c:	fee45783          	lhu	a5,-18(s0)
    1a40:	f8f7f793          	andi	a5,a5,-113
    1a44:	fef41723          	sh	a5,-18(s0)
D:\A_Dual1\Dual-core_Communication_Demo\Dual-core_Communication_Demo\SLAVE\obj/../Libraries/wch_libraries/Peripheral/ch32v10x_tim.c:75
    tmpcr1 |= (uint32_t)TIM_TimeBaseInitStruct->TIM_CounterMode;
    1a48:	fd842783          	lw	a5,-40(s0)
    1a4c:	0027d703          	lhu	a4,2(a5)
    1a50:	fee45783          	lhu	a5,-18(s0)
    1a54:	8fd9                	or	a5,a5,a4
    1a56:	fef41723          	sh	a5,-18(s0)
D:\A_Dual1\Dual-core_Communication_Demo\Dual-core_Communication_Demo\SLAVE\obj/../Libraries/wch_libraries/Peripheral/ch32v10x_tim.c:78
  }

  tmpcr1 &= (uint16_t)(~((uint16_t)TIM_CTLR1_CKD));
    1a5a:	fee45783          	lhu	a5,-18(s0)
    1a5e:	cff7f793          	andi	a5,a5,-769
    1a62:	fef41723          	sh	a5,-18(s0)
D:\A_Dual1\Dual-core_Communication_Demo\Dual-core_Communication_Demo\SLAVE\obj/../Libraries/wch_libraries/Peripheral/ch32v10x_tim.c:79
  tmpcr1 |= (uint32_t)TIM_TimeBaseInitStruct->TIM_ClockDivision;
    1a66:	fd842783          	lw	a5,-40(s0)
    1a6a:	0067d703          	lhu	a4,6(a5)
    1a6e:	fee45783          	lhu	a5,-18(s0)
    1a72:	8fd9                	or	a5,a5,a4
    1a74:	fef41723          	sh	a5,-18(s0)
D:\A_Dual1\Dual-core_Communication_Demo\Dual-core_Communication_Demo\SLAVE\obj/../Libraries/wch_libraries/Peripheral/ch32v10x_tim.c:81

  TIMx->CTLR1 = tmpcr1;
    1a78:	fdc42783          	lw	a5,-36(s0)
    1a7c:	fee45703          	lhu	a4,-18(s0)
    1a80:	00e79023          	sh	a4,0(a5)
D:\A_Dual1\Dual-core_Communication_Demo\Dual-core_Communication_Demo\SLAVE\obj/../Libraries/wch_libraries/Peripheral/ch32v10x_tim.c:82
  TIMx->ATRLR = TIM_TimeBaseInitStruct->TIM_Period ;
    1a84:	fd842783          	lw	a5,-40(s0)
    1a88:	0047d703          	lhu	a4,4(a5)
    1a8c:	fdc42783          	lw	a5,-36(s0)
    1a90:	02e79623          	sh	a4,44(a5)
D:\A_Dual1\Dual-core_Communication_Demo\Dual-core_Communication_Demo\SLAVE\obj/../Libraries/wch_libraries/Peripheral/ch32v10x_tim.c:83
  TIMx->PSC = TIM_TimeBaseInitStruct->TIM_Prescaler;
    1a94:	fd842783          	lw	a5,-40(s0)
    1a98:	0007d703          	lhu	a4,0(a5)
    1a9c:	fdc42783          	lw	a5,-36(s0)
    1aa0:	02e79423          	sh	a4,40(a5)
D:\A_Dual1\Dual-core_Communication_Demo\Dual-core_Communication_Demo\SLAVE\obj/../Libraries/wch_libraries/Peripheral/ch32v10x_tim.c:85
    
  if (TIMx == TIM1)  
    1aa4:	fdc42703          	lw	a4,-36(s0)
    1aa8:	400137b7          	lui	a5,0x40013
    1aac:	c0078793          	addi	a5,a5,-1024 # 40012c00 <_eusrstack+0x2000dc00>
    1ab0:	00f71d63          	bne	a4,a5,1aca <TIM_TimeBaseInit+0xe8>
D:\A_Dual1\Dual-core_Communication_Demo\Dual-core_Communication_Demo\SLAVE\obj/../Libraries/wch_libraries/Peripheral/ch32v10x_tim.c:87
  {
    TIMx->RPTCR = TIM_TimeBaseInitStruct->TIM_RepetitionCounter;
    1ab4:	fd842783          	lw	a5,-40(s0)
    1ab8:	0087c783          	lbu	a5,8(a5)
    1abc:	01079713          	slli	a4,a5,0x10
    1ac0:	8341                	srli	a4,a4,0x10
    1ac2:	fdc42783          	lw	a5,-36(s0)
    1ac6:	02e79823          	sh	a4,48(a5)
D:\A_Dual1\Dual-core_Communication_Demo\Dual-core_Communication_Demo\SLAVE\obj/../Libraries/wch_libraries/Peripheral/ch32v10x_tim.c:90
  }

  TIMx->SWEVGR = TIM_PSCReloadMode_Immediate;           
    1aca:	fdc42783          	lw	a5,-36(s0)
    1ace:	4705                	li	a4,1
    1ad0:	00e79a23          	sh	a4,20(a5)
D:\A_Dual1\Dual-core_Communication_Demo\Dual-core_Communication_Demo\SLAVE\obj/../Libraries/wch_libraries/Peripheral/ch32v10x_tim.c:91
}
    1ad4:	0001                	nop
    1ad6:	5432                	lw	s0,44(sp)
    1ad8:	6145                	addi	sp,sp,48
    1ada:	8082                	ret

00001adc <TIM_TimeBaseStructInit>:
TIM_TimeBaseStructInit():
D:\A_Dual1\Dual-core_Communication_Demo\Dual-core_Communication_Demo\SLAVE\obj/../Libraries/wch_libraries/Peripheral/ch32v10x_tim.c:367
* Description    : Fills each TIM_TimeBaseInitStruct member with its default value.
* Input          : TIM_TimeBaseInitStruct : pointer to a TIM_TimeBaseInitTypeDef structure.                 
* Return         : None
*******************************************************************************/
void TIM_TimeBaseStructInit(TIM_TimeBaseInitTypeDef* TIM_TimeBaseInitStruct)
{
    1adc:	1101                	addi	sp,sp,-32
    1ade:	ce22                	sw	s0,28(sp)
    1ae0:	1000                	addi	s0,sp,32
    1ae2:	fea42623          	sw	a0,-20(s0)
D:\A_Dual1\Dual-core_Communication_Demo\Dual-core_Communication_Demo\SLAVE\obj/../Libraries/wch_libraries/Peripheral/ch32v10x_tim.c:368
  TIM_TimeBaseInitStruct->TIM_Period = 0xFFFF;
    1ae6:	fec42783          	lw	a5,-20(s0)
    1aea:	577d                	li	a4,-1
    1aec:	00e79223          	sh	a4,4(a5)
D:\A_Dual1\Dual-core_Communication_Demo\Dual-core_Communication_Demo\SLAVE\obj/../Libraries/wch_libraries/Peripheral/ch32v10x_tim.c:369
  TIM_TimeBaseInitStruct->TIM_Prescaler = 0x0000;
    1af0:	fec42783          	lw	a5,-20(s0)
    1af4:	00079023          	sh	zero,0(a5)
D:\A_Dual1\Dual-core_Communication_Demo\Dual-core_Communication_Demo\SLAVE\obj/../Libraries/wch_libraries/Peripheral/ch32v10x_tim.c:370
  TIM_TimeBaseInitStruct->TIM_ClockDivision = TIM_CKD_DIV1;
    1af8:	fec42783          	lw	a5,-20(s0)
    1afc:	00079323          	sh	zero,6(a5)
D:\A_Dual1\Dual-core_Communication_Demo\Dual-core_Communication_Demo\SLAVE\obj/../Libraries/wch_libraries/Peripheral/ch32v10x_tim.c:371
  TIM_TimeBaseInitStruct->TIM_CounterMode = TIM_CounterMode_Up;
    1b00:	fec42783          	lw	a5,-20(s0)
    1b04:	00079123          	sh	zero,2(a5)
D:\A_Dual1\Dual-core_Communication_Demo\Dual-core_Communication_Demo\SLAVE\obj/../Libraries/wch_libraries/Peripheral/ch32v10x_tim.c:372
  TIM_TimeBaseInitStruct->TIM_RepetitionCounter = 0x0000;
    1b08:	fec42783          	lw	a5,-20(s0)
    1b0c:	00078423          	sb	zero,8(a5)
D:\A_Dual1\Dual-core_Communication_Demo\Dual-core_Communication_Demo\SLAVE\obj/../Libraries/wch_libraries/Peripheral/ch32v10x_tim.c:373
}
    1b10:	0001                	nop
    1b12:	4472                	lw	s0,28(sp)
    1b14:	6105                	addi	sp,sp,32
    1b16:	8082                	ret

00001b18 <TIM_Cmd>:
TIM_Cmd():
D:\A_Dual1\Dual-core_Communication_Demo\Dual-core_Communication_Demo\SLAVE\obj/../Libraries/wch_libraries/Peripheral/ch32v10x_tim.c:433
* Input          : TIMx: where x can be 1 to 4 to select the TIM peripheral.
*                  NewState: ENABLE or DISABLE.
* Return         : None
*******************************************************************************/
void TIM_Cmd(TIM_TypeDef* TIMx, FunctionalState NewState)
{ 
    1b18:	1101                	addi	sp,sp,-32
    1b1a:	ce22                	sw	s0,28(sp)
    1b1c:	1000                	addi	s0,sp,32
    1b1e:	fea42623          	sw	a0,-20(s0)
    1b22:	feb42423          	sw	a1,-24(s0)
D:\A_Dual1\Dual-core_Communication_Demo\Dual-core_Communication_Demo\SLAVE\obj/../Libraries/wch_libraries/Peripheral/ch32v10x_tim.c:434
  if (NewState != DISABLE)
    1b26:	fe842783          	lw	a5,-24(s0)
    1b2a:	c38d                	beqz	a5,1b4c <TIM_Cmd+0x34>
D:\A_Dual1\Dual-core_Communication_Demo\Dual-core_Communication_Demo\SLAVE\obj/../Libraries/wch_libraries/Peripheral/ch32v10x_tim.c:436
  {
    TIMx->CTLR1 |= TIM_CEN;
    1b2c:	fec42783          	lw	a5,-20(s0)
    1b30:	0007d783          	lhu	a5,0(a5)
    1b34:	07c2                	slli	a5,a5,0x10
    1b36:	83c1                	srli	a5,a5,0x10
    1b38:	0017e793          	ori	a5,a5,1
    1b3c:	01079713          	slli	a4,a5,0x10
    1b40:	8341                	srli	a4,a4,0x10
    1b42:	fec42783          	lw	a5,-20(s0)
    1b46:	00e79023          	sh	a4,0(a5)
D:\A_Dual1\Dual-core_Communication_Demo\Dual-core_Communication_Demo\SLAVE\obj/../Libraries/wch_libraries/Peripheral/ch32v10x_tim.c:442
  }
  else
  {
    TIMx->CTLR1 &= (uint16_t)(~((uint16_t)TIM_CEN));
  }
}
    1b4a:	a839                	j	1b68 <TIM_Cmd+0x50>
D:\A_Dual1\Dual-core_Communication_Demo\Dual-core_Communication_Demo\SLAVE\obj/../Libraries/wch_libraries/Peripheral/ch32v10x_tim.c:440
    TIMx->CTLR1 &= (uint16_t)(~((uint16_t)TIM_CEN));
    1b4c:	fec42783          	lw	a5,-20(s0)
    1b50:	0007d783          	lhu	a5,0(a5)
    1b54:	07c2                	slli	a5,a5,0x10
    1b56:	83c1                	srli	a5,a5,0x10
    1b58:	9bf9                	andi	a5,a5,-2
    1b5a:	01079713          	slli	a4,a5,0x10
    1b5e:	8341                	srli	a4,a4,0x10
    1b60:	fec42783          	lw	a5,-20(s0)
    1b64:	00e79023          	sh	a4,0(a5)
D:\A_Dual1\Dual-core_Communication_Demo\Dual-core_Communication_Demo\SLAVE\obj/../Libraries/wch_libraries/Peripheral/ch32v10x_tim.c:442
}
    1b68:	0001                	nop
    1b6a:	4472                	lw	s0,28(sp)
    1b6c:	6105                	addi	sp,sp,32
    1b6e:	8082                	ret

00001b70 <TIM_ITConfig>:
TIM_ITConfig():
D:\A_Dual1\Dual-core_Communication_Demo\Dual-core_Communication_Demo\SLAVE\obj/../Libraries/wch_libraries/Peripheral/ch32v10x_tim.c:480
*                    TIM_IT_Break: TIM Break Interrupt source.
*                  NewState: ENABLE or DISABLE.
* Return         : None
*******************************************************************************/
void TIM_ITConfig(TIM_TypeDef* TIMx, uint16_t TIM_IT, FunctionalState NewState)
{  
    1b70:	1101                	addi	sp,sp,-32
    1b72:	ce22                	sw	s0,28(sp)
    1b74:	1000                	addi	s0,sp,32
    1b76:	fea42623          	sw	a0,-20(s0)
    1b7a:	87ae                	mv	a5,a1
    1b7c:	fec42223          	sw	a2,-28(s0)
    1b80:	fef41523          	sh	a5,-22(s0)
D:\A_Dual1\Dual-core_Communication_Demo\Dual-core_Communication_Demo\SLAVE\obj/../Libraries/wch_libraries/Peripheral/ch32v10x_tim.c:481
  if (NewState != DISABLE)
    1b84:	fe442783          	lw	a5,-28(s0)
    1b88:	c39d                	beqz	a5,1bae <TIM_ITConfig+0x3e>
D:\A_Dual1\Dual-core_Communication_Demo\Dual-core_Communication_Demo\SLAVE\obj/../Libraries/wch_libraries/Peripheral/ch32v10x_tim.c:483
  {
    TIMx->DMAINTENR |= TIM_IT;
    1b8a:	fec42783          	lw	a5,-20(s0)
    1b8e:	00c7d783          	lhu	a5,12(a5)
    1b92:	01079713          	slli	a4,a5,0x10
    1b96:	8341                	srli	a4,a4,0x10
    1b98:	fea45783          	lhu	a5,-22(s0)
    1b9c:	8fd9                	or	a5,a5,a4
    1b9e:	01079713          	slli	a4,a5,0x10
    1ba2:	8341                	srli	a4,a4,0x10
    1ba4:	fec42783          	lw	a5,-20(s0)
    1ba8:	00e79623          	sh	a4,12(a5)
D:\A_Dual1\Dual-core_Communication_Demo\Dual-core_Communication_Demo\SLAVE\obj/../Libraries/wch_libraries/Peripheral/ch32v10x_tim.c:489
  }
  else
  {
    TIMx->DMAINTENR &= (uint16_t)~TIM_IT;
  }
}
    1bac:	a035                	j	1bd8 <TIM_ITConfig+0x68>
D:\A_Dual1\Dual-core_Communication_Demo\Dual-core_Communication_Demo\SLAVE\obj/../Libraries/wch_libraries/Peripheral/ch32v10x_tim.c:487
    TIMx->DMAINTENR &= (uint16_t)~TIM_IT;
    1bae:	fec42783          	lw	a5,-20(s0)
    1bb2:	00c7d783          	lhu	a5,12(a5)
    1bb6:	01079713          	slli	a4,a5,0x10
    1bba:	8341                	srli	a4,a4,0x10
    1bbc:	fea45783          	lhu	a5,-22(s0)
    1bc0:	fff7c793          	not	a5,a5
    1bc4:	07c2                	slli	a5,a5,0x10
    1bc6:	83c1                	srli	a5,a5,0x10
    1bc8:	8ff9                	and	a5,a5,a4
    1bca:	01079713          	slli	a4,a5,0x10
    1bce:	8341                	srli	a4,a4,0x10
    1bd0:	fec42783          	lw	a5,-20(s0)
    1bd4:	00e79623          	sh	a4,12(a5)
D:\A_Dual1\Dual-core_Communication_Demo\Dual-core_Communication_Demo\SLAVE\obj/../Libraries/wch_libraries/Peripheral/ch32v10x_tim.c:489
}
    1bd8:	0001                	nop
    1bda:	4472                	lw	s0,28(sp)
    1bdc:	6105                	addi	sp,sp,32
    1bde:	8082                	ret

00001be0 <TIM_DMACmd>:
TIM_DMACmd():
D:\A_Dual1\Dual-core_Communication_Demo\Dual-core_Communication_Demo\SLAVE\obj/../Libraries/wch_libraries/Peripheral/ch32v10x_tim.c:559
*                    TIM_DMA_Trigger: TIM Trigger DMA source.
*                  NewState: ENABLE or DISABLE.
* Return         : None
*******************************************************************************/
void TIM_DMACmd(TIM_TypeDef* TIMx, uint16_t TIM_DMASource, FunctionalState NewState)
{ 
    1be0:	1101                	addi	sp,sp,-32
    1be2:	ce22                	sw	s0,28(sp)
    1be4:	1000                	addi	s0,sp,32
    1be6:	fea42623          	sw	a0,-20(s0)
    1bea:	87ae                	mv	a5,a1
    1bec:	fec42223          	sw	a2,-28(s0)
    1bf0:	fef41523          	sh	a5,-22(s0)
D:\A_Dual1\Dual-core_Communication_Demo\Dual-core_Communication_Demo\SLAVE\obj/../Libraries/wch_libraries/Peripheral/ch32v10x_tim.c:560
  if (NewState != DISABLE)
    1bf4:	fe442783          	lw	a5,-28(s0)
    1bf8:	c39d                	beqz	a5,1c1e <TIM_DMACmd+0x3e>
D:\A_Dual1\Dual-core_Communication_Demo\Dual-core_Communication_Demo\SLAVE\obj/../Libraries/wch_libraries/Peripheral/ch32v10x_tim.c:562
  {
    TIMx->DMAINTENR |= TIM_DMASource; 
    1bfa:	fec42783          	lw	a5,-20(s0)
    1bfe:	00c7d783          	lhu	a5,12(a5)
    1c02:	01079713          	slli	a4,a5,0x10
    1c06:	8341                	srli	a4,a4,0x10
    1c08:	fea45783          	lhu	a5,-22(s0)
    1c0c:	8fd9                	or	a5,a5,a4
    1c0e:	01079713          	slli	a4,a5,0x10
    1c12:	8341                	srli	a4,a4,0x10
    1c14:	fec42783          	lw	a5,-20(s0)
    1c18:	00e79623          	sh	a4,12(a5)
D:\A_Dual1\Dual-core_Communication_Demo\Dual-core_Communication_Demo\SLAVE\obj/../Libraries/wch_libraries/Peripheral/ch32v10x_tim.c:568
  }
  else
  {
    TIMx->DMAINTENR &= (uint16_t)~TIM_DMASource;
  }
}
    1c1c:	a035                	j	1c48 <TIM_DMACmd+0x68>
D:\A_Dual1\Dual-core_Communication_Demo\Dual-core_Communication_Demo\SLAVE\obj/../Libraries/wch_libraries/Peripheral/ch32v10x_tim.c:566
    TIMx->DMAINTENR &= (uint16_t)~TIM_DMASource;
    1c1e:	fec42783          	lw	a5,-20(s0)
    1c22:	00c7d783          	lhu	a5,12(a5)
    1c26:	01079713          	slli	a4,a5,0x10
    1c2a:	8341                	srli	a4,a4,0x10
    1c2c:	fea45783          	lhu	a5,-22(s0)
    1c30:	fff7c793          	not	a5,a5
    1c34:	07c2                	slli	a5,a5,0x10
    1c36:	83c1                	srli	a5,a5,0x10
    1c38:	8ff9                	and	a5,a5,a4
    1c3a:	01079713          	slli	a4,a5,0x10
    1c3e:	8341                	srli	a4,a4,0x10
    1c40:	fec42783          	lw	a5,-20(s0)
    1c44:	00e79623          	sh	a4,12(a5)
D:\A_Dual1\Dual-core_Communication_Demo\Dual-core_Communication_Demo\SLAVE\obj/../Libraries/wch_libraries/Peripheral/ch32v10x_tim.c:568
}
    1c48:	0001                	nop
    1c4a:	4472                	lw	s0,28(sp)
    1c4c:	6105                	addi	sp,sp,32
    1c4e:	8082                	ret

00001c50 <TIM_ETRClockMode1Config>:
TIM_ETRClockMode1Config():
D:\A_Dual1\Dual-core_Communication_Demo\Dual-core_Communication_Demo\SLAVE\obj/../Libraries/wch_libraries/Peripheral/ch32v10x_tim.c:649
*                    This parameter must be a value between 0x0 and 0xF.
* Return         : None
*******************************************************************************/
void TIM_ETRClockMode1Config(TIM_TypeDef* TIMx, uint16_t TIM_ExtTRGPrescaler, uint16_t TIM_ExtTRGPolarity,
                             uint16_t ExtTRGFilter)
{
    1c50:	7179                	addi	sp,sp,-48
    1c52:	d606                	sw	ra,44(sp)
    1c54:	d422                	sw	s0,40(sp)
    1c56:	1800                	addi	s0,sp,48
    1c58:	fca42e23          	sw	a0,-36(s0)
    1c5c:	87ae                	mv	a5,a1
    1c5e:	8736                	mv	a4,a3
    1c60:	fcf41d23          	sh	a5,-38(s0)
    1c64:	87b2                	mv	a5,a2
    1c66:	fcf41c23          	sh	a5,-40(s0)
    1c6a:	87ba                	mv	a5,a4
    1c6c:	fcf41b23          	sh	a5,-42(s0)
D:\A_Dual1\Dual-core_Communication_Demo\Dual-core_Communication_Demo\SLAVE\obj/../Libraries/wch_libraries/Peripheral/ch32v10x_tim.c:650
  uint16_t tmpsmcr = 0;
    1c70:	fe041723          	sh	zero,-18(s0)
D:\A_Dual1\Dual-core_Communication_Demo\Dual-core_Communication_Demo\SLAVE\obj/../Libraries/wch_libraries/Peripheral/ch32v10x_tim.c:652

  TIM_ETRConfig(TIMx, TIM_ExtTRGPrescaler, TIM_ExtTRGPolarity, ExtTRGFilter);
    1c74:	fd645683          	lhu	a3,-42(s0)
    1c78:	fd845703          	lhu	a4,-40(s0)
    1c7c:	fda45783          	lhu	a5,-38(s0)
    1c80:	863a                	mv	a2,a4
    1c82:	85be                	mv	a1,a5
    1c84:	fdc42503          	lw	a0,-36(s0)
    1c88:	2889                	jal	1cda <TIM_ETRConfig>
D:\A_Dual1\Dual-core_Communication_Demo\Dual-core_Communication_Demo\SLAVE\obj/../Libraries/wch_libraries/Peripheral/ch32v10x_tim.c:653
  tmpsmcr = TIMx->SMCFGR;
    1c8a:	fdc42783          	lw	a5,-36(s0)
    1c8e:	0087d783          	lhu	a5,8(a5)
    1c92:	fef41723          	sh	a5,-18(s0)
D:\A_Dual1\Dual-core_Communication_Demo\Dual-core_Communication_Demo\SLAVE\obj/../Libraries/wch_libraries/Peripheral/ch32v10x_tim.c:654
  tmpsmcr &= (uint16_t)(~((uint16_t)TIM_SMS));
    1c96:	fee45783          	lhu	a5,-18(s0)
    1c9a:	9be1                	andi	a5,a5,-8
    1c9c:	fef41723          	sh	a5,-18(s0)
D:\A_Dual1\Dual-core_Communication_Demo\Dual-core_Communication_Demo\SLAVE\obj/../Libraries/wch_libraries/Peripheral/ch32v10x_tim.c:655
  tmpsmcr |= TIM_SlaveMode_External1;
    1ca0:	fee45783          	lhu	a5,-18(s0)
    1ca4:	0077e793          	ori	a5,a5,7
    1ca8:	fef41723          	sh	a5,-18(s0)
D:\A_Dual1\Dual-core_Communication_Demo\Dual-core_Communication_Demo\SLAVE\obj/../Libraries/wch_libraries/Peripheral/ch32v10x_tim.c:656
  tmpsmcr &= (uint16_t)(~((uint16_t)TIM_TS));
    1cac:	fee45783          	lhu	a5,-18(s0)
    1cb0:	f8f7f793          	andi	a5,a5,-113
    1cb4:	fef41723          	sh	a5,-18(s0)
D:\A_Dual1\Dual-core_Communication_Demo\Dual-core_Communication_Demo\SLAVE\obj/../Libraries/wch_libraries/Peripheral/ch32v10x_tim.c:657
  tmpsmcr |= TIM_TS_ETRF;
    1cb8:	fee45783          	lhu	a5,-18(s0)
    1cbc:	0707e793          	ori	a5,a5,112
    1cc0:	fef41723          	sh	a5,-18(s0)
D:\A_Dual1\Dual-core_Communication_Demo\Dual-core_Communication_Demo\SLAVE\obj/../Libraries/wch_libraries/Peripheral/ch32v10x_tim.c:658
  TIMx->SMCFGR = tmpsmcr;
    1cc4:	fdc42783          	lw	a5,-36(s0)
    1cc8:	fee45703          	lhu	a4,-18(s0)
    1ccc:	00e79423          	sh	a4,8(a5)
D:\A_Dual1\Dual-core_Communication_Demo\Dual-core_Communication_Demo\SLAVE\obj/../Libraries/wch_libraries/Peripheral/ch32v10x_tim.c:659
}
    1cd0:	0001                	nop
    1cd2:	50b2                	lw	ra,44(sp)
    1cd4:	5422                	lw	s0,40(sp)
    1cd6:	6145                	addi	sp,sp,48
    1cd8:	8082                	ret

00001cda <TIM_ETRConfig>:
TIM_ETRConfig():
D:\A_Dual1\Dual-core_Communication_Demo\Dual-core_Communication_Demo\SLAVE\obj/../Libraries/wch_libraries/Peripheral/ch32v10x_tim.c:702
*                    This parameter must be a value between 0x0 and 0xF.
* Return         : None
*******************************************************************************/
void TIM_ETRConfig(TIM_TypeDef* TIMx, uint16_t TIM_ExtTRGPrescaler, uint16_t TIM_ExtTRGPolarity,
                   uint16_t ExtTRGFilter)
{
    1cda:	7179                	addi	sp,sp,-48
    1cdc:	d622                	sw	s0,44(sp)
    1cde:	1800                	addi	s0,sp,48
    1ce0:	fca42e23          	sw	a0,-36(s0)
    1ce4:	87ae                	mv	a5,a1
    1ce6:	8736                	mv	a4,a3
    1ce8:	fcf41d23          	sh	a5,-38(s0)
    1cec:	87b2                	mv	a5,a2
    1cee:	fcf41c23          	sh	a5,-40(s0)
    1cf2:	87ba                	mv	a5,a4
    1cf4:	fcf41b23          	sh	a5,-42(s0)
D:\A_Dual1\Dual-core_Communication_Demo\Dual-core_Communication_Demo\SLAVE\obj/../Libraries/wch_libraries/Peripheral/ch32v10x_tim.c:703
  uint16_t tmpsmcr = 0;
    1cf8:	fe041723          	sh	zero,-18(s0)
D:\A_Dual1\Dual-core_Communication_Demo\Dual-core_Communication_Demo\SLAVE\obj/../Libraries/wch_libraries/Peripheral/ch32v10x_tim.c:705

  tmpsmcr = TIMx->SMCFGR;
    1cfc:	fdc42783          	lw	a5,-36(s0)
    1d00:	0087d783          	lhu	a5,8(a5)
    1d04:	fef41723          	sh	a5,-18(s0)
D:\A_Dual1\Dual-core_Communication_Demo\Dual-core_Communication_Demo\SLAVE\obj/../Libraries/wch_libraries/Peripheral/ch32v10x_tim.c:706
  tmpsmcr &= SMCFGR_ETR_Mask;
    1d08:	fee45783          	lhu	a5,-18(s0)
    1d0c:	0ff7f793          	andi	a5,a5,255
    1d10:	fef41723          	sh	a5,-18(s0)
D:\A_Dual1\Dual-core_Communication_Demo\Dual-core_Communication_Demo\SLAVE\obj/../Libraries/wch_libraries/Peripheral/ch32v10x_tim.c:707
  tmpsmcr |= (uint16_t)(TIM_ExtTRGPrescaler | (uint16_t)(TIM_ExtTRGPolarity | (uint16_t)(ExtTRGFilter << (uint16_t)8)));
    1d14:	fd645783          	lhu	a5,-42(s0)
    1d18:	07a2                	slli	a5,a5,0x8
    1d1a:	01079713          	slli	a4,a5,0x10
    1d1e:	8341                	srli	a4,a4,0x10
    1d20:	fd845783          	lhu	a5,-40(s0)
    1d24:	8fd9                	or	a5,a5,a4
    1d26:	01079713          	slli	a4,a5,0x10
    1d2a:	8341                	srli	a4,a4,0x10
    1d2c:	fda45783          	lhu	a5,-38(s0)
    1d30:	8fd9                	or	a5,a5,a4
    1d32:	01079713          	slli	a4,a5,0x10
    1d36:	8341                	srli	a4,a4,0x10
    1d38:	fee45783          	lhu	a5,-18(s0)
    1d3c:	8fd9                	or	a5,a5,a4
    1d3e:	fef41723          	sh	a5,-18(s0)
D:\A_Dual1\Dual-core_Communication_Demo\Dual-core_Communication_Demo\SLAVE\obj/../Libraries/wch_libraries/Peripheral/ch32v10x_tim.c:708
  TIMx->SMCFGR = tmpsmcr;
    1d42:	fdc42783          	lw	a5,-36(s0)
    1d46:	fee45703          	lhu	a4,-18(s0)
    1d4a:	00e79423          	sh	a4,8(a5)
D:\A_Dual1\Dual-core_Communication_Demo\Dual-core_Communication_Demo\SLAVE\obj/../Libraries/wch_libraries/Peripheral/ch32v10x_tim.c:709
}
    1d4e:	0001                	nop
    1d50:	5432                	lw	s0,44(sp)
    1d52:	6145                	addi	sp,sp,48
    1d54:	8082                	ret

00001d56 <TIM_SelectInputTrigger>:
TIM_SelectInputTrigger():
D:\A_Dual1\Dual-core_Communication_Demo\Dual-core_Communication_Demo\SLAVE\obj/../Libraries/wch_libraries/Peripheral/ch32v10x_tim.c:766
*                    TIM_TS_TI2FP2: Filtered Timer Input 2.
*                    TIM_TS_ETRF: External Trigger input.
* Return         : None
*******************************************************************************/
void TIM_SelectInputTrigger(TIM_TypeDef* TIMx, uint16_t TIM_InputTriggerSource)
{
    1d56:	7179                	addi	sp,sp,-48
    1d58:	d622                	sw	s0,44(sp)
    1d5a:	1800                	addi	s0,sp,48
    1d5c:	fca42e23          	sw	a0,-36(s0)
    1d60:	87ae                	mv	a5,a1
    1d62:	fcf41d23          	sh	a5,-38(s0)
D:\A_Dual1\Dual-core_Communication_Demo\Dual-core_Communication_Demo\SLAVE\obj/../Libraries/wch_libraries/Peripheral/ch32v10x_tim.c:767
  uint16_t tmpsmcr = 0;
    1d66:	fe041723          	sh	zero,-18(s0)
D:\A_Dual1\Dual-core_Communication_Demo\Dual-core_Communication_Demo\SLAVE\obj/../Libraries/wch_libraries/Peripheral/ch32v10x_tim.c:769

  tmpsmcr = TIMx->SMCFGR;
    1d6a:	fdc42783          	lw	a5,-36(s0)
    1d6e:	0087d783          	lhu	a5,8(a5)
    1d72:	fef41723          	sh	a5,-18(s0)
D:\A_Dual1\Dual-core_Communication_Demo\Dual-core_Communication_Demo\SLAVE\obj/../Libraries/wch_libraries/Peripheral/ch32v10x_tim.c:770
  tmpsmcr &= (uint16_t)(~((uint16_t)TIM_TS));
    1d76:	fee45783          	lhu	a5,-18(s0)
    1d7a:	f8f7f793          	andi	a5,a5,-113
    1d7e:	fef41723          	sh	a5,-18(s0)
D:\A_Dual1\Dual-core_Communication_Demo\Dual-core_Communication_Demo\SLAVE\obj/../Libraries/wch_libraries/Peripheral/ch32v10x_tim.c:771
  tmpsmcr |= TIM_InputTriggerSource;
    1d82:	fee45703          	lhu	a4,-18(s0)
    1d86:	fda45783          	lhu	a5,-38(s0)
    1d8a:	8fd9                	or	a5,a5,a4
    1d8c:	fef41723          	sh	a5,-18(s0)
D:\A_Dual1\Dual-core_Communication_Demo\Dual-core_Communication_Demo\SLAVE\obj/../Libraries/wch_libraries/Peripheral/ch32v10x_tim.c:772
  TIMx->SMCFGR = tmpsmcr;
    1d90:	fdc42783          	lw	a5,-36(s0)
    1d94:	fee45703          	lhu	a4,-18(s0)
    1d98:	00e79423          	sh	a4,8(a5)
D:\A_Dual1\Dual-core_Communication_Demo\Dual-core_Communication_Demo\SLAVE\obj/../Libraries/wch_libraries/Peripheral/ch32v10x_tim.c:773
}
    1d9c:	0001                	nop
    1d9e:	5432                	lw	s0,44(sp)
    1da0:	6145                	addi	sp,sp,48
    1da2:	8082                	ret

00001da4 <TIM_EncoderInterfaceConfig>:
TIM_EncoderInterfaceConfig():
D:\A_Dual1\Dual-core_Communication_Demo\Dual-core_Communication_Demo\SLAVE\obj/../Libraries/wch_libraries/Peripheral/ch32v10x_tim.c:796
*                    TIM_ICPolarity_Rising: IC Rising edge.
* Return         : None
*******************************************************************************/
void TIM_EncoderInterfaceConfig(TIM_TypeDef* TIMx, uint16_t TIM_EncoderMode,
                                uint16_t TIM_IC1Polarity, uint16_t TIM_IC2Polarity)
{
    1da4:	7179                	addi	sp,sp,-48
    1da6:	d622                	sw	s0,44(sp)
    1da8:	1800                	addi	s0,sp,48
    1daa:	fca42e23          	sw	a0,-36(s0)
    1dae:	87ae                	mv	a5,a1
    1db0:	8736                	mv	a4,a3
    1db2:	fcf41d23          	sh	a5,-38(s0)
    1db6:	87b2                	mv	a5,a2
    1db8:	fcf41c23          	sh	a5,-40(s0)
    1dbc:	87ba                	mv	a5,a4
    1dbe:	fcf41b23          	sh	a5,-42(s0)
D:\A_Dual1\Dual-core_Communication_Demo\Dual-core_Communication_Demo\SLAVE\obj/../Libraries/wch_libraries/Peripheral/ch32v10x_tim.c:797
  uint16_t tmpsmcr = 0;
    1dc2:	fe041723          	sh	zero,-18(s0)
D:\A_Dual1\Dual-core_Communication_Demo\Dual-core_Communication_Demo\SLAVE\obj/../Libraries/wch_libraries/Peripheral/ch32v10x_tim.c:798
  uint16_t tmpccmr1 = 0;
    1dc6:	fe041623          	sh	zero,-20(s0)
D:\A_Dual1\Dual-core_Communication_Demo\Dual-core_Communication_Demo\SLAVE\obj/../Libraries/wch_libraries/Peripheral/ch32v10x_tim.c:799
  uint16_t tmpccer = 0;
    1dca:	fe041523          	sh	zero,-22(s0)
D:\A_Dual1\Dual-core_Communication_Demo\Dual-core_Communication_Demo\SLAVE\obj/../Libraries/wch_libraries/Peripheral/ch32v10x_tim.c:801
    
  tmpsmcr = TIMx->SMCFGR;
    1dce:	fdc42783          	lw	a5,-36(s0)
    1dd2:	0087d783          	lhu	a5,8(a5)
    1dd6:	fef41723          	sh	a5,-18(s0)
D:\A_Dual1\Dual-core_Communication_Demo\Dual-core_Communication_Demo\SLAVE\obj/../Libraries/wch_libraries/Peripheral/ch32v10x_tim.c:802
  tmpccmr1 = TIMx->CHCTLR1;
    1dda:	fdc42783          	lw	a5,-36(s0)
    1dde:	0187d783          	lhu	a5,24(a5)
    1de2:	fef41623          	sh	a5,-20(s0)
D:\A_Dual1\Dual-core_Communication_Demo\Dual-core_Communication_Demo\SLAVE\obj/../Libraries/wch_libraries/Peripheral/ch32v10x_tim.c:803
  tmpccer = TIMx->CCER;
    1de6:	fdc42783          	lw	a5,-36(s0)
    1dea:	0207d783          	lhu	a5,32(a5)
    1dee:	fef41523          	sh	a5,-22(s0)
D:\A_Dual1\Dual-core_Communication_Demo\Dual-core_Communication_Demo\SLAVE\obj/../Libraries/wch_libraries/Peripheral/ch32v10x_tim.c:804
  tmpsmcr &= (uint16_t)(~((uint16_t)TIM_SMS));
    1df2:	fee45783          	lhu	a5,-18(s0)
    1df6:	9be1                	andi	a5,a5,-8
    1df8:	fef41723          	sh	a5,-18(s0)
D:\A_Dual1\Dual-core_Communication_Demo\Dual-core_Communication_Demo\SLAVE\obj/../Libraries/wch_libraries/Peripheral/ch32v10x_tim.c:805
  tmpsmcr |= TIM_EncoderMode;
    1dfc:	fee45703          	lhu	a4,-18(s0)
    1e00:	fda45783          	lhu	a5,-38(s0)
    1e04:	8fd9                	or	a5,a5,a4
    1e06:	fef41723          	sh	a5,-18(s0)
D:\A_Dual1\Dual-core_Communication_Demo\Dual-core_Communication_Demo\SLAVE\obj/../Libraries/wch_libraries/Peripheral/ch32v10x_tim.c:806
  tmpccmr1 &= (uint16_t)(((uint16_t)~((uint16_t)TIM_CC1S)) & (uint16_t)(~((uint16_t)TIM_CC2S)));
    1e0a:	fec45783          	lhu	a5,-20(s0)
    1e0e:	cfc7f793          	andi	a5,a5,-772
    1e12:	fef41623          	sh	a5,-20(s0)
D:\A_Dual1\Dual-core_Communication_Demo\Dual-core_Communication_Demo\SLAVE\obj/../Libraries/wch_libraries/Peripheral/ch32v10x_tim.c:807
  tmpccmr1 |= TIM_CC1S_0 | TIM_CC2S_0;
    1e16:	fec45783          	lhu	a5,-20(s0)
    1e1a:	1017e793          	ori	a5,a5,257
    1e1e:	fef41623          	sh	a5,-20(s0)
D:\A_Dual1\Dual-core_Communication_Demo\Dual-core_Communication_Demo\SLAVE\obj/../Libraries/wch_libraries/Peripheral/ch32v10x_tim.c:808
  tmpccer &= (uint16_t)(((uint16_t)~((uint16_t)TIM_CC1P)) & ((uint16_t)~((uint16_t)TIM_CC2P)));
    1e22:	fea45783          	lhu	a5,-22(s0)
    1e26:	fdd7f793          	andi	a5,a5,-35
    1e2a:	fef41523          	sh	a5,-22(s0)
D:\A_Dual1\Dual-core_Communication_Demo\Dual-core_Communication_Demo\SLAVE\obj/../Libraries/wch_libraries/Peripheral/ch32v10x_tim.c:809
  tmpccer |= (uint16_t)(TIM_IC1Polarity | (uint16_t)(TIM_IC2Polarity << (uint16_t)4)); 
    1e2e:	fd645783          	lhu	a5,-42(s0)
    1e32:	0792                	slli	a5,a5,0x4
    1e34:	01079713          	slli	a4,a5,0x10
    1e38:	8341                	srli	a4,a4,0x10
    1e3a:	fd845783          	lhu	a5,-40(s0)
    1e3e:	8fd9                	or	a5,a5,a4
    1e40:	01079713          	slli	a4,a5,0x10
    1e44:	8341                	srli	a4,a4,0x10
    1e46:	fea45783          	lhu	a5,-22(s0)
    1e4a:	8fd9                	or	a5,a5,a4
    1e4c:	fef41523          	sh	a5,-22(s0)
D:\A_Dual1\Dual-core_Communication_Demo\Dual-core_Communication_Demo\SLAVE\obj/../Libraries/wch_libraries/Peripheral/ch32v10x_tim.c:810
  TIMx->SMCFGR = tmpsmcr;
    1e50:	fdc42783          	lw	a5,-36(s0)
    1e54:	fee45703          	lhu	a4,-18(s0)
    1e58:	00e79423          	sh	a4,8(a5)
D:\A_Dual1\Dual-core_Communication_Demo\Dual-core_Communication_Demo\SLAVE\obj/../Libraries/wch_libraries/Peripheral/ch32v10x_tim.c:811
  TIMx->CHCTLR1 = tmpccmr1;
    1e5c:	fdc42783          	lw	a5,-36(s0)
    1e60:	fec45703          	lhu	a4,-20(s0)
    1e64:	00e79c23          	sh	a4,24(a5)
D:\A_Dual1\Dual-core_Communication_Demo\Dual-core_Communication_Demo\SLAVE\obj/../Libraries/wch_libraries/Peripheral/ch32v10x_tim.c:812
  TIMx->CCER = tmpccer;
    1e68:	fdc42783          	lw	a5,-36(s0)
    1e6c:	fea45703          	lhu	a4,-22(s0)
    1e70:	02e79023          	sh	a4,32(a5)
D:\A_Dual1\Dual-core_Communication_Demo\Dual-core_Communication_Demo\SLAVE\obj/../Libraries/wch_libraries/Peripheral/ch32v10x_tim.c:813
}
    1e74:	0001                	nop
    1e76:	5432                	lw	s0,44(sp)
    1e78:	6145                	addi	sp,sp,48
    1e7a:	8082                	ret

00001e7c <TIM_SelectSlaveMode>:
TIM_SelectSlaveMode():
D:\A_Dual1\Dual-core_Communication_Demo\Dual-core_Communication_Demo\SLAVE\obj/../Libraries/wch_libraries/Peripheral/ch32v10x_tim.c:1535
*                    TIM_SlaveMode_External1: Rising edges of the selected trigger
*      (TRGI) clock the counter.
* Return         : None
*******************************************************************************/
void TIM_SelectSlaveMode(TIM_TypeDef* TIMx, uint16_t TIM_SlaveMode)
{
    1e7c:	1101                	addi	sp,sp,-32
    1e7e:	ce22                	sw	s0,28(sp)
    1e80:	1000                	addi	s0,sp,32
    1e82:	fea42623          	sw	a0,-20(s0)
    1e86:	87ae                	mv	a5,a1
    1e88:	fef41523          	sh	a5,-22(s0)
D:\A_Dual1\Dual-core_Communication_Demo\Dual-core_Communication_Demo\SLAVE\obj/../Libraries/wch_libraries/Peripheral/ch32v10x_tim.c:1536
  TIMx->SMCFGR &= (uint16_t)~((uint16_t)TIM_SMS);
    1e8c:	fec42783          	lw	a5,-20(s0)
    1e90:	0087d783          	lhu	a5,8(a5)
    1e94:	07c2                	slli	a5,a5,0x10
    1e96:	83c1                	srli	a5,a5,0x10
    1e98:	9be1                	andi	a5,a5,-8
    1e9a:	01079713          	slli	a4,a5,0x10
    1e9e:	8341                	srli	a4,a4,0x10
    1ea0:	fec42783          	lw	a5,-20(s0)
    1ea4:	00e79423          	sh	a4,8(a5)
D:\A_Dual1\Dual-core_Communication_Demo\Dual-core_Communication_Demo\SLAVE\obj/../Libraries/wch_libraries/Peripheral/ch32v10x_tim.c:1537
  TIMx->SMCFGR |= TIM_SlaveMode;
    1ea8:	fec42783          	lw	a5,-20(s0)
    1eac:	0087d783          	lhu	a5,8(a5)
    1eb0:	01079713          	slli	a4,a5,0x10
    1eb4:	8341                	srli	a4,a4,0x10
    1eb6:	fea45783          	lhu	a5,-22(s0)
    1eba:	8fd9                	or	a5,a5,a4
    1ebc:	01079713          	slli	a4,a5,0x10
    1ec0:	8341                	srli	a4,a4,0x10
    1ec2:	fec42783          	lw	a5,-20(s0)
    1ec6:	00e79423          	sh	a4,8(a5)
D:\A_Dual1\Dual-core_Communication_Demo\Dual-core_Communication_Demo\SLAVE\obj/../Libraries/wch_libraries/Peripheral/ch32v10x_tim.c:1538
}
    1eca:	0001                	nop
    1ecc:	4472                	lw	s0,28(sp)
    1ece:	6105                	addi	sp,sp,32
    1ed0:	8082                	ret

00001ed2 <TIM_SelectMasterSlaveMode>:
TIM_SelectMasterSlaveMode():
D:\A_Dual1\Dual-core_Communication_Demo\Dual-core_Communication_Demo\SLAVE\obj/../Libraries/wch_libraries/Peripheral/ch32v10x_tim.c:1551
*      timer and its slaves (through TRGO).
*                    TIM_MasterSlaveMode_Disable: No action.
* Return         : None
*******************************************************************************/
void TIM_SelectMasterSlaveMode(TIM_TypeDef* TIMx, uint16_t TIM_MasterSlaveMode)
{
    1ed2:	1101                	addi	sp,sp,-32
    1ed4:	ce22                	sw	s0,28(sp)
    1ed6:	1000                	addi	s0,sp,32
    1ed8:	fea42623          	sw	a0,-20(s0)
    1edc:	87ae                	mv	a5,a1
    1ede:	fef41523          	sh	a5,-22(s0)
D:\A_Dual1\Dual-core_Communication_Demo\Dual-core_Communication_Demo\SLAVE\obj/../Libraries/wch_libraries/Peripheral/ch32v10x_tim.c:1552
  TIMx->SMCFGR &= (uint16_t)~((uint16_t)TIM_MSM);  
    1ee2:	fec42783          	lw	a5,-20(s0)
    1ee6:	0087d783          	lhu	a5,8(a5)
    1eea:	07c2                	slli	a5,a5,0x10
    1eec:	83c1                	srli	a5,a5,0x10
    1eee:	f7f7f793          	andi	a5,a5,-129
    1ef2:	01079713          	slli	a4,a5,0x10
    1ef6:	8341                	srli	a4,a4,0x10
    1ef8:	fec42783          	lw	a5,-20(s0)
    1efc:	00e79423          	sh	a4,8(a5)
D:\A_Dual1\Dual-core_Communication_Demo\Dual-core_Communication_Demo\SLAVE\obj/../Libraries/wch_libraries/Peripheral/ch32v10x_tim.c:1553
  TIMx->SMCFGR |= TIM_MasterSlaveMode;
    1f00:	fec42783          	lw	a5,-20(s0)
    1f04:	0087d783          	lhu	a5,8(a5)
    1f08:	01079713          	slli	a4,a5,0x10
    1f0c:	8341                	srli	a4,a4,0x10
    1f0e:	fea45783          	lhu	a5,-22(s0)
    1f12:	8fd9                	or	a5,a5,a4
    1f14:	01079713          	slli	a4,a5,0x10
    1f18:	8341                	srli	a4,a4,0x10
    1f1a:	fec42783          	lw	a5,-20(s0)
    1f1e:	00e79423          	sh	a4,8(a5)
D:\A_Dual1\Dual-core_Communication_Demo\Dual-core_Communication_Demo\SLAVE\obj/../Libraries/wch_libraries/Peripheral/ch32v10x_tim.c:1554
}
    1f22:	0001                	nop
    1f24:	4472                	lw	s0,28(sp)
    1f26:	6105                	addi	sp,sp,32
    1f28:	8082                	ret

00001f2a <TIM_GetITStatus>:
TIM_GetITStatus():
D:\A_Dual1\Dual-core_Communication_Demo\Dual-core_Communication_Demo\SLAVE\obj/../Libraries/wch_libraries/Peripheral/ch32v10x_tim.c:1853
*                    TIM_IT_Trigger: TIM Trigger Interrupt source.
*                    TIM_IT_Break: TIM Break Interrupt source.
* Return         : bitstatus: SET or RESET.
*******************************************************************************/
ITStatus TIM_GetITStatus(TIM_TypeDef* TIMx, uint16_t TIM_IT)
{
    1f2a:	7179                	addi	sp,sp,-48
    1f2c:	d622                	sw	s0,44(sp)
    1f2e:	1800                	addi	s0,sp,48
    1f30:	fca42e23          	sw	a0,-36(s0)
    1f34:	87ae                	mv	a5,a1
    1f36:	fcf41d23          	sh	a5,-38(s0)
D:\A_Dual1\Dual-core_Communication_Demo\Dual-core_Communication_Demo\SLAVE\obj/../Libraries/wch_libraries/Peripheral/ch32v10x_tim.c:1854
  ITStatus bitstatus = RESET;  
    1f3a:	fe042623          	sw	zero,-20(s0)
D:\A_Dual1\Dual-core_Communication_Demo\Dual-core_Communication_Demo\SLAVE\obj/../Libraries/wch_libraries/Peripheral/ch32v10x_tim.c:1855
  uint16_t itstatus = 0x0, itenable = 0x0;
    1f3e:	fe041523          	sh	zero,-22(s0)
    1f42:	fe041423          	sh	zero,-24(s0)
D:\A_Dual1\Dual-core_Communication_Demo\Dual-core_Communication_Demo\SLAVE\obj/../Libraries/wch_libraries/Peripheral/ch32v10x_tim.c:1857
   
  itstatus = TIMx->INTFR & TIM_IT;
    1f46:	fdc42783          	lw	a5,-36(s0)
    1f4a:	0107d783          	lhu	a5,16(a5)
    1f4e:	01079713          	slli	a4,a5,0x10
    1f52:	8341                	srli	a4,a4,0x10
    1f54:	fda45783          	lhu	a5,-38(s0)
    1f58:	8ff9                	and	a5,a5,a4
    1f5a:	fef41523          	sh	a5,-22(s0)
D:\A_Dual1\Dual-core_Communication_Demo\Dual-core_Communication_Demo\SLAVE\obj/../Libraries/wch_libraries/Peripheral/ch32v10x_tim.c:1859
  
  itenable = TIMx->DMAINTENR & TIM_IT;
    1f5e:	fdc42783          	lw	a5,-36(s0)
    1f62:	00c7d783          	lhu	a5,12(a5)
    1f66:	01079713          	slli	a4,a5,0x10
    1f6a:	8341                	srli	a4,a4,0x10
    1f6c:	fda45783          	lhu	a5,-38(s0)
    1f70:	8ff9                	and	a5,a5,a4
    1f72:	fef41423          	sh	a5,-24(s0)
D:\A_Dual1\Dual-core_Communication_Demo\Dual-core_Communication_Demo\SLAVE\obj/../Libraries/wch_libraries/Peripheral/ch32v10x_tim.c:1860
  if ((itstatus != (uint16_t)RESET) && (itenable != (uint16_t)RESET))
    1f76:	fea45783          	lhu	a5,-22(s0)
    1f7a:	cb81                	beqz	a5,1f8a <TIM_GetITStatus+0x60>
D:\A_Dual1\Dual-core_Communication_Demo\Dual-core_Communication_Demo\SLAVE\obj/../Libraries/wch_libraries/Peripheral/ch32v10x_tim.c:1860 (discriminator 1)
    1f7c:	fe845783          	lhu	a5,-24(s0)
    1f80:	c789                	beqz	a5,1f8a <TIM_GetITStatus+0x60>
D:\A_Dual1\Dual-core_Communication_Demo\Dual-core_Communication_Demo\SLAVE\obj/../Libraries/wch_libraries/Peripheral/ch32v10x_tim.c:1862
  {
    bitstatus = SET;
    1f82:	4785                	li	a5,1
    1f84:	fef42623          	sw	a5,-20(s0)
    1f88:	a019                	j	1f8e <TIM_GetITStatus+0x64>
D:\A_Dual1\Dual-core_Communication_Demo\Dual-core_Communication_Demo\SLAVE\obj/../Libraries/wch_libraries/Peripheral/ch32v10x_tim.c:1866
  }
  else
  {
    bitstatus = RESET;
    1f8a:	fe042623          	sw	zero,-20(s0)
D:\A_Dual1\Dual-core_Communication_Demo\Dual-core_Communication_Demo\SLAVE\obj/../Libraries/wch_libraries/Peripheral/ch32v10x_tim.c:1869
  }
	
  return bitstatus;
    1f8e:	fec42783          	lw	a5,-20(s0)
D:\A_Dual1\Dual-core_Communication_Demo\Dual-core_Communication_Demo\SLAVE\obj/../Libraries/wch_libraries/Peripheral/ch32v10x_tim.c:1870
}
    1f92:	853e                	mv	a0,a5
    1f94:	5432                	lw	s0,44(sp)
    1f96:	6145                	addi	sp,sp,48
    1f98:	8082                	ret

00001f9a <TIM_ClearITPendingBit>:
TIM_ClearITPendingBit():
D:\A_Dual1\Dual-core_Communication_Demo\Dual-core_Communication_Demo\SLAVE\obj/../Libraries/wch_libraries/Peripheral/ch32v10x_tim.c:1888
*                    TIM_IT_Trigger: TIM Trigger Interrupt source.
*                    TIM_IT_Break: TIM Break Interrupt source.
* Return         : None
*******************************************************************************/
void TIM_ClearITPendingBit(TIM_TypeDef* TIMx, uint16_t TIM_IT)
{
    1f9a:	1101                	addi	sp,sp,-32
    1f9c:	ce22                	sw	s0,28(sp)
    1f9e:	1000                	addi	s0,sp,32
    1fa0:	fea42623          	sw	a0,-20(s0)
    1fa4:	87ae                	mv	a5,a1
    1fa6:	fef41523          	sh	a5,-22(s0)
D:\A_Dual1\Dual-core_Communication_Demo\Dual-core_Communication_Demo\SLAVE\obj/../Libraries/wch_libraries/Peripheral/ch32v10x_tim.c:1889
  TIMx->INTFR = (uint16_t)~TIM_IT;
    1faa:	fea45783          	lhu	a5,-22(s0)
    1fae:	fff7c793          	not	a5,a5
    1fb2:	01079713          	slli	a4,a5,0x10
    1fb6:	8341                	srli	a4,a4,0x10
    1fb8:	fec42783          	lw	a5,-20(s0)
    1fbc:	00e79823          	sh	a4,16(a5)
D:\A_Dual1\Dual-core_Communication_Demo\Dual-core_Communication_Demo\SLAVE\obj/../Libraries/wch_libraries/Peripheral/ch32v10x_tim.c:1890
}
    1fc0:	0001                	nop
    1fc2:	4472                	lw	s0,28(sp)
    1fc4:	6105                	addi	sp,sp,32
    1fc6:	8082                	ret

00001fc8 <USART_Init>:
USART_Init():
D:\A_Dual1\Dual-core_Communication_Demo\Dual-core_Communication_Demo\SLAVE\obj/../Libraries/wch_libraries/Peripheral/ch32v10x_usart.c:105
*                  USART_InitStruct: pointer to a USART_InitTypeDef structure
*      that contains the configuration information for the specified USART peripheral. 
* Return         : None
*******************************************************************************/
void USART_Init(USART_TypeDef* USARTx, USART_InitTypeDef* USART_InitStruct)
{
    1fc8:	715d                	addi	sp,sp,-80
    1fca:	c686                	sw	ra,76(sp)
    1fcc:	c4a2                	sw	s0,72(sp)
    1fce:	0880                	addi	s0,sp,80
    1fd0:	faa42e23          	sw	a0,-68(s0)
    1fd4:	fab42c23          	sw	a1,-72(s0)
D:\A_Dual1\Dual-core_Communication_Demo\Dual-core_Communication_Demo\SLAVE\obj/../Libraries/wch_libraries/Peripheral/ch32v10x_usart.c:106
  uint32_t tmpreg = 0x00, apbclock = 0x00;
    1fd8:	fe042623          	sw	zero,-20(s0)
    1fdc:	fe042423          	sw	zero,-24(s0)
D:\A_Dual1\Dual-core_Communication_Demo\Dual-core_Communication_Demo\SLAVE\obj/../Libraries/wch_libraries/Peripheral/ch32v10x_usart.c:107
  uint32_t integerdivider = 0x00;
    1fe0:	fe042223          	sw	zero,-28(s0)
D:\A_Dual1\Dual-core_Communication_Demo\Dual-core_Communication_Demo\SLAVE\obj/../Libraries/wch_libraries/Peripheral/ch32v10x_usart.c:108
  uint32_t fractionaldivider = 0x00;
    1fe4:	fe042023          	sw	zero,-32(s0)
D:\A_Dual1\Dual-core_Communication_Demo\Dual-core_Communication_Demo\SLAVE\obj/../Libraries/wch_libraries/Peripheral/ch32v10x_usart.c:109
  uint32_t usartxbase = 0;
    1fe8:	fc042e23          	sw	zero,-36(s0)
D:\A_Dual1\Dual-core_Communication_Demo\Dual-core_Communication_Demo\SLAVE\obj/../Libraries/wch_libraries/Peripheral/ch32v10x_usart.c:116

  if (USART_InitStruct->USART_HardwareFlowControl != USART_HardwareFlowControl_None)
  {
  }

  usartxbase = (uint32_t)USARTx;
    1fec:	fbc42783          	lw	a5,-68(s0)
    1ff0:	fcf42e23          	sw	a5,-36(s0)
D:\A_Dual1\Dual-core_Communication_Demo\Dual-core_Communication_Demo\SLAVE\obj/../Libraries/wch_libraries/Peripheral/ch32v10x_usart.c:117
  tmpreg = USARTx->CTLR2;
    1ff4:	fbc42783          	lw	a5,-68(s0)
    1ff8:	0107d783          	lhu	a5,16(a5)
    1ffc:	07c2                	slli	a5,a5,0x10
    1ffe:	83c1                	srli	a5,a5,0x10
    2000:	fef42623          	sw	a5,-20(s0)
D:\A_Dual1\Dual-core_Communication_Demo\Dual-core_Communication_Demo\SLAVE\obj/../Libraries/wch_libraries/Peripheral/ch32v10x_usart.c:118
  tmpreg &= CTLR2_STOP_CLEAR_Mask;
    2004:	fec42703          	lw	a4,-20(s0)
    2008:	67b5                	lui	a5,0xd
    200a:	17fd                	addi	a5,a5,-1
    200c:	8ff9                	and	a5,a5,a4
    200e:	fef42623          	sw	a5,-20(s0)
D:\A_Dual1\Dual-core_Communication_Demo\Dual-core_Communication_Demo\SLAVE\obj/../Libraries/wch_libraries/Peripheral/ch32v10x_usart.c:119
  tmpreg |= (uint32_t)USART_InitStruct->USART_StopBits;  
    2012:	fb842783          	lw	a5,-72(s0)
    2016:	0067d783          	lhu	a5,6(a5) # d006 <_data_lma+0x2fee>
    201a:	873e                	mv	a4,a5
    201c:	fec42783          	lw	a5,-20(s0)
    2020:	8fd9                	or	a5,a5,a4
    2022:	fef42623          	sw	a5,-20(s0)
D:\A_Dual1\Dual-core_Communication_Demo\Dual-core_Communication_Demo\SLAVE\obj/../Libraries/wch_libraries/Peripheral/ch32v10x_usart.c:121
	
  USARTx->CTLR2 = (uint16_t)tmpreg;
    2026:	fec42783          	lw	a5,-20(s0)
    202a:	01079713          	slli	a4,a5,0x10
    202e:	8341                	srli	a4,a4,0x10
    2030:	fbc42783          	lw	a5,-68(s0)
    2034:	00e79823          	sh	a4,16(a5)
D:\A_Dual1\Dual-core_Communication_Demo\Dual-core_Communication_Demo\SLAVE\obj/../Libraries/wch_libraries/Peripheral/ch32v10x_usart.c:122
  tmpreg = USARTx->CTLR1;
    2038:	fbc42783          	lw	a5,-68(s0)
    203c:	00c7d783          	lhu	a5,12(a5)
    2040:	07c2                	slli	a5,a5,0x10
    2042:	83c1                	srli	a5,a5,0x10
    2044:	fef42623          	sw	a5,-20(s0)
D:\A_Dual1\Dual-core_Communication_Demo\Dual-core_Communication_Demo\SLAVE\obj/../Libraries/wch_libraries/Peripheral/ch32v10x_usart.c:123
  tmpreg &= CTLR1_CLEAR_Mask;
    2048:	fec42703          	lw	a4,-20(s0)
    204c:	67bd                	lui	a5,0xf
    204e:	9f378793          	addi	a5,a5,-1549 # e9f3 <_data_lma+0x49db>
    2052:	8ff9                	and	a5,a5,a4
    2054:	fef42623          	sw	a5,-20(s0)
D:\A_Dual1\Dual-core_Communication_Demo\Dual-core_Communication_Demo\SLAVE\obj/../Libraries/wch_libraries/Peripheral/ch32v10x_usart.c:124
  tmpreg |= (uint32_t)USART_InitStruct->USART_WordLength | USART_InitStruct->USART_Parity |
    2058:	fb842783          	lw	a5,-72(s0)
    205c:	0047d703          	lhu	a4,4(a5)
    2060:	fb842783          	lw	a5,-72(s0)
    2064:	0087d783          	lhu	a5,8(a5)
    2068:	8fd9                	or	a5,a5,a4
    206a:	01079713          	slli	a4,a5,0x10
    206e:	8341                	srli	a4,a4,0x10
D:\A_Dual1\Dual-core_Communication_Demo\Dual-core_Communication_Demo\SLAVE\obj/../Libraries/wch_libraries/Peripheral/ch32v10x_usart.c:125
            USART_InitStruct->USART_Mode;
    2070:	fb842783          	lw	a5,-72(s0)
    2074:	00a7d783          	lhu	a5,10(a5)
D:\A_Dual1\Dual-core_Communication_Demo\Dual-core_Communication_Demo\SLAVE\obj/../Libraries/wch_libraries/Peripheral/ch32v10x_usart.c:124
  tmpreg |= (uint32_t)USART_InitStruct->USART_WordLength | USART_InitStruct->USART_Parity |
    2078:	8fd9                	or	a5,a5,a4
    207a:	07c2                	slli	a5,a5,0x10
    207c:	83c1                	srli	a5,a5,0x10
    207e:	873e                	mv	a4,a5
    2080:	fec42783          	lw	a5,-20(s0)
    2084:	8fd9                	or	a5,a5,a4
    2086:	fef42623          	sw	a5,-20(s0)
D:\A_Dual1\Dual-core_Communication_Demo\Dual-core_Communication_Demo\SLAVE\obj/../Libraries/wch_libraries/Peripheral/ch32v10x_usart.c:126
  USARTx->CTLR1 = (uint16_t)tmpreg;
    208a:	fec42783          	lw	a5,-20(s0)
    208e:	01079713          	slli	a4,a5,0x10
    2092:	8341                	srli	a4,a4,0x10
    2094:	fbc42783          	lw	a5,-68(s0)
    2098:	00e79623          	sh	a4,12(a5)
D:\A_Dual1\Dual-core_Communication_Demo\Dual-core_Communication_Demo\SLAVE\obj/../Libraries/wch_libraries/Peripheral/ch32v10x_usart.c:128
 
  tmpreg = USARTx->CTLR3;
    209c:	fbc42783          	lw	a5,-68(s0)
    20a0:	0147d783          	lhu	a5,20(a5)
    20a4:	07c2                	slli	a5,a5,0x10
    20a6:	83c1                	srli	a5,a5,0x10
    20a8:	fef42623          	sw	a5,-20(s0)
D:\A_Dual1\Dual-core_Communication_Demo\Dual-core_Communication_Demo\SLAVE\obj/../Libraries/wch_libraries/Peripheral/ch32v10x_usart.c:129
  tmpreg &= CTLR3_CLEAR_Mask;
    20ac:	fec42703          	lw	a4,-20(s0)
    20b0:	67c1                	lui	a5,0x10
    20b2:	cff78793          	addi	a5,a5,-769 # fcff <_data_lma+0x5ce7>
    20b6:	8ff9                	and	a5,a5,a4
    20b8:	fef42623          	sw	a5,-20(s0)
D:\A_Dual1\Dual-core_Communication_Demo\Dual-core_Communication_Demo\SLAVE\obj/../Libraries/wch_libraries/Peripheral/ch32v10x_usart.c:130
  tmpreg |= USART_InitStruct->USART_HardwareFlowControl;
    20bc:	fb842783          	lw	a5,-72(s0)
    20c0:	00c7d783          	lhu	a5,12(a5)
    20c4:	873e                	mv	a4,a5
    20c6:	fec42783          	lw	a5,-20(s0)
    20ca:	8fd9                	or	a5,a5,a4
    20cc:	fef42623          	sw	a5,-20(s0)
D:\A_Dual1\Dual-core_Communication_Demo\Dual-core_Communication_Demo\SLAVE\obj/../Libraries/wch_libraries/Peripheral/ch32v10x_usart.c:131
  USARTx->CTLR3 = (uint16_t)tmpreg;
    20d0:	fec42783          	lw	a5,-20(s0)
    20d4:	01079713          	slli	a4,a5,0x10
    20d8:	8341                	srli	a4,a4,0x10
    20da:	fbc42783          	lw	a5,-68(s0)
    20de:	00e79a23          	sh	a4,20(a5)
D:\A_Dual1\Dual-core_Communication_Demo\Dual-core_Communication_Demo\SLAVE\obj/../Libraries/wch_libraries/Peripheral/ch32v10x_usart.c:133

  RCC_GetClocksFreq(&RCC_ClocksStatus);
    20e2:	fc840793          	addi	a5,s0,-56
    20e6:	853e                	mv	a0,a5
    20e8:	cbcff0ef          	jal	ra,15a4 <RCC_GetClocksFreq>
D:\A_Dual1\Dual-core_Communication_Demo\Dual-core_Communication_Demo\SLAVE\obj/../Libraries/wch_libraries/Peripheral/ch32v10x_usart.c:135
	
  if (usartxbase == USART1_BASE)
    20ec:	fdc42703          	lw	a4,-36(s0)
    20f0:	400147b7          	lui	a5,0x40014
    20f4:	80078793          	addi	a5,a5,-2048 # 40013800 <_eusrstack+0x2000e800>
    20f8:	00f71763          	bne	a4,a5,2106 <USART_Init+0x13e>
D:\A_Dual1\Dual-core_Communication_Demo\Dual-core_Communication_Demo\SLAVE\obj/../Libraries/wch_libraries/Peripheral/ch32v10x_usart.c:137
  {
    apbclock = RCC_ClocksStatus.PCLK2_Frequency;
    20fc:	fd442783          	lw	a5,-44(s0)
    2100:	fef42423          	sw	a5,-24(s0)
    2104:	a029                	j	210e <USART_Init+0x146>
D:\A_Dual1\Dual-core_Communication_Demo\Dual-core_Communication_Demo\SLAVE\obj/../Libraries/wch_libraries/Peripheral/ch32v10x_usart.c:141
  }
  else
  {
    apbclock = RCC_ClocksStatus.PCLK1_Frequency;
    2106:	fd042783          	lw	a5,-48(s0)
    210a:	fef42423          	sw	a5,-24(s0)
D:\A_Dual1\Dual-core_Communication_Demo\Dual-core_Communication_Demo\SLAVE\obj/../Libraries/wch_libraries/Peripheral/ch32v10x_usart.c:144
  }
  
  if ((USARTx->CTLR1 & CTLR1_OVER8_Set) != 0)
    210e:	fbc42783          	lw	a5,-68(s0)
    2112:	00c7d783          	lhu	a5,12(a5)
    2116:	07c2                	slli	a5,a5,0x10
    2118:	83c1                	srli	a5,a5,0x10
    211a:	07c2                	slli	a5,a5,0x10
    211c:	87c1                	srai	a5,a5,0x10
    211e:	0207d263          	bgez	a5,2142 <USART_Init+0x17a>
D:\A_Dual1\Dual-core_Communication_Demo\Dual-core_Communication_Demo\SLAVE\obj/../Libraries/wch_libraries/Peripheral/ch32v10x_usart.c:146
  {
    integerdivider = ((25 * apbclock) / (2 * (USART_InitStruct->USART_BaudRate)));    
    2122:	fe842703          	lw	a4,-24(s0)
    2126:	87ba                	mv	a5,a4
    2128:	0786                	slli	a5,a5,0x1
    212a:	97ba                	add	a5,a5,a4
    212c:	078e                	slli	a5,a5,0x3
    212e:	973e                	add	a4,a4,a5
    2130:	fb842783          	lw	a5,-72(s0)
    2134:	439c                	lw	a5,0(a5)
    2136:	0786                	slli	a5,a5,0x1
    2138:	02f757b3          	divu	a5,a4,a5
    213c:	fef42223          	sw	a5,-28(s0)
    2140:	a005                	j	2160 <USART_Init+0x198>
D:\A_Dual1\Dual-core_Communication_Demo\Dual-core_Communication_Demo\SLAVE\obj/../Libraries/wch_libraries/Peripheral/ch32v10x_usart.c:150
  }
  else 
  {
    integerdivider = ((25 * apbclock) / (4 * (USART_InitStruct->USART_BaudRate)));    
    2142:	fe842703          	lw	a4,-24(s0)
    2146:	87ba                	mv	a5,a4
    2148:	0786                	slli	a5,a5,0x1
    214a:	97ba                	add	a5,a5,a4
    214c:	078e                	slli	a5,a5,0x3
    214e:	973e                	add	a4,a4,a5
    2150:	fb842783          	lw	a5,-72(s0)
    2154:	439c                	lw	a5,0(a5)
    2156:	078a                	slli	a5,a5,0x2
    2158:	02f757b3          	divu	a5,a4,a5
    215c:	fef42223          	sw	a5,-28(s0)
D:\A_Dual1\Dual-core_Communication_Demo\Dual-core_Communication_Demo\SLAVE\obj/../Libraries/wch_libraries/Peripheral/ch32v10x_usart.c:152
  }
  tmpreg = (integerdivider / 100) << 4;
    2160:	fe442703          	lw	a4,-28(s0)
    2164:	06400793          	li	a5,100
    2168:	02f757b3          	divu	a5,a4,a5
    216c:	0792                	slli	a5,a5,0x4
    216e:	fef42623          	sw	a5,-20(s0)
D:\A_Dual1\Dual-core_Communication_Demo\Dual-core_Communication_Demo\SLAVE\obj/../Libraries/wch_libraries/Peripheral/ch32v10x_usart.c:154

  fractionaldivider = integerdivider - (100 * (tmpreg >> 4));
    2172:	fec42783          	lw	a5,-20(s0)
    2176:	0047d713          	srli	a4,a5,0x4
    217a:	06400793          	li	a5,100
    217e:	02f707b3          	mul	a5,a4,a5
    2182:	fe442703          	lw	a4,-28(s0)
    2186:	40f707b3          	sub	a5,a4,a5
    218a:	fef42023          	sw	a5,-32(s0)
D:\A_Dual1\Dual-core_Communication_Demo\Dual-core_Communication_Demo\SLAVE\obj/../Libraries/wch_libraries/Peripheral/ch32v10x_usart.c:156

  if ((USARTx->CTLR1 & CTLR1_OVER8_Set) != 0)
    218e:	fbc42783          	lw	a5,-68(s0)
    2192:	00c7d783          	lhu	a5,12(a5)
    2196:	07c2                	slli	a5,a5,0x10
    2198:	83c1                	srli	a5,a5,0x10
    219a:	07c2                	slli	a5,a5,0x10
    219c:	87c1                	srai	a5,a5,0x10
    219e:	0207d263          	bgez	a5,21c2 <USART_Init+0x1fa>
D:\A_Dual1\Dual-core_Communication_Demo\Dual-core_Communication_Demo\SLAVE\obj/../Libraries/wch_libraries/Peripheral/ch32v10x_usart.c:158
  {
    tmpreg |= ((((fractionaldivider * 8) + 50) / 100)) & ((uint8_t)0x07);
    21a2:	fe042783          	lw	a5,-32(s0)
    21a6:	078e                	slli	a5,a5,0x3
    21a8:	03278713          	addi	a4,a5,50
    21ac:	06400793          	li	a5,100
    21b0:	02f757b3          	divu	a5,a4,a5
    21b4:	8b9d                	andi	a5,a5,7
    21b6:	fec42703          	lw	a4,-20(s0)
    21ba:	8fd9                	or	a5,a5,a4
    21bc:	fef42623          	sw	a5,-20(s0)
    21c0:	a005                	j	21e0 <USART_Init+0x218>
D:\A_Dual1\Dual-core_Communication_Demo\Dual-core_Communication_Demo\SLAVE\obj/../Libraries/wch_libraries/Peripheral/ch32v10x_usart.c:162
  }
  else 
  {
    tmpreg |= ((((fractionaldivider * 16) + 50) / 100)) & ((uint8_t)0x0F);
    21c2:	fe042783          	lw	a5,-32(s0)
    21c6:	0792                	slli	a5,a5,0x4
    21c8:	03278713          	addi	a4,a5,50
    21cc:	06400793          	li	a5,100
    21d0:	02f757b3          	divu	a5,a4,a5
    21d4:	8bbd                	andi	a5,a5,15
    21d6:	fec42703          	lw	a4,-20(s0)
    21da:	8fd9                	or	a5,a5,a4
    21dc:	fef42623          	sw	a5,-20(s0)
D:\A_Dual1\Dual-core_Communication_Demo\Dual-core_Communication_Demo\SLAVE\obj/../Libraries/wch_libraries/Peripheral/ch32v10x_usart.c:165
  }
  
  USARTx->BRR = (uint16_t)tmpreg;
    21e0:	fec42783          	lw	a5,-20(s0)
    21e4:	01079713          	slli	a4,a5,0x10
    21e8:	8341                	srli	a4,a4,0x10
    21ea:	fbc42783          	lw	a5,-68(s0)
    21ee:	00e79423          	sh	a4,8(a5)
D:\A_Dual1\Dual-core_Communication_Demo\Dual-core_Communication_Demo\SLAVE\obj/../Libraries/wch_libraries/Peripheral/ch32v10x_usart.c:166
}
    21f2:	0001                	nop
    21f4:	40b6                	lw	ra,76(sp)
    21f6:	4426                	lw	s0,72(sp)
    21f8:	6161                	addi	sp,sp,80
    21fa:	8082                	ret

000021fc <USART_Cmd>:
USART_Cmd():
D:\A_Dual1\Dual-core_Communication_Demo\Dual-core_Communication_Demo\SLAVE\obj/../Libraries/wch_libraries/Peripheral/ch32v10x_usart.c:229
* Input          : USARTx: where x can be 1, 2, 3 to select the USART peripheral.
*                  NewState: ENABLE or DISABLE.
* Return         : None
*******************************************************************************/
void USART_Cmd(USART_TypeDef* USARTx, FunctionalState NewState)
{
    21fc:	1101                	addi	sp,sp,-32
    21fe:	ce22                	sw	s0,28(sp)
    2200:	1000                	addi	s0,sp,32
    2202:	fea42623          	sw	a0,-20(s0)
    2206:	feb42423          	sw	a1,-24(s0)
D:\A_Dual1\Dual-core_Communication_Demo\Dual-core_Communication_Demo\SLAVE\obj/../Libraries/wch_libraries/Peripheral/ch32v10x_usart.c:230
  if (NewState != DISABLE)
    220a:	fe842783          	lw	a5,-24(s0)
    220e:	c395                	beqz	a5,2232 <USART_Cmd+0x36>
D:\A_Dual1\Dual-core_Communication_Demo\Dual-core_Communication_Demo\SLAVE\obj/../Libraries/wch_libraries/Peripheral/ch32v10x_usart.c:232
  {
    USARTx->CTLR1 |= CTLR1_UE_Set;
    2210:	fec42783          	lw	a5,-20(s0)
    2214:	00c7d783          	lhu	a5,12(a5)
    2218:	01079713          	slli	a4,a5,0x10
    221c:	8341                	srli	a4,a4,0x10
    221e:	6789                	lui	a5,0x2
    2220:	8fd9                	or	a5,a5,a4
    2222:	01079713          	slli	a4,a5,0x10
    2226:	8341                	srli	a4,a4,0x10
    2228:	fec42783          	lw	a5,-20(s0)
    222c:	00e79623          	sh	a4,12(a5) # 200c <USART_Init+0x44>
D:\A_Dual1\Dual-core_Communication_Demo\Dual-core_Communication_Demo\SLAVE\obj/../Libraries/wch_libraries/Peripheral/ch32v10x_usart.c:238
  }
  else
  {
    USARTx->CTLR1 &= CTLR1_UE_Reset;
  }
}
    2230:	a015                	j	2254 <USART_Cmd+0x58>
D:\A_Dual1\Dual-core_Communication_Demo\Dual-core_Communication_Demo\SLAVE\obj/../Libraries/wch_libraries/Peripheral/ch32v10x_usart.c:236
    USARTx->CTLR1 &= CTLR1_UE_Reset;
    2232:	fec42783          	lw	a5,-20(s0)
    2236:	00c7d783          	lhu	a5,12(a5)
    223a:	01079713          	slli	a4,a5,0x10
    223e:	8341                	srli	a4,a4,0x10
    2240:	77f9                	lui	a5,0xffffe
    2242:	17fd                	addi	a5,a5,-1
    2244:	8ff9                	and	a5,a5,a4
    2246:	01079713          	slli	a4,a5,0x10
    224a:	8341                	srli	a4,a4,0x10
    224c:	fec42783          	lw	a5,-20(s0)
    2250:	00e79623          	sh	a4,12(a5) # ffffe00c <_eusrstack+0xdfff900c>
D:\A_Dual1\Dual-core_Communication_Demo\Dual-core_Communication_Demo\SLAVE\obj/../Libraries/wch_libraries/Peripheral/ch32v10x_usart.c:238
}
    2254:	0001                	nop
    2256:	4472                	lw	s0,28(sp)
    2258:	6105                	addi	sp,sp,32
    225a:	8082                	ret

0000225c <USART_ITConfig>:
USART_ITConfig():
D:\A_Dual1\Dual-core_Communication_Demo\Dual-core_Communication_Demo\SLAVE\obj/../Libraries/wch_libraries/Peripheral/ch32v10x_usart.c:257
*                    USART_IT_ERR:  Error interrupt.
*                  NewState: ENABLE or DISABLE.
* Return         : None
*******************************************************************************/
void USART_ITConfig(USART_TypeDef* USARTx, uint16_t USART_IT, FunctionalState NewState)
{
    225c:	7179                	addi	sp,sp,-48
    225e:	d622                	sw	s0,44(sp)
    2260:	1800                	addi	s0,sp,48
    2262:	fca42e23          	sw	a0,-36(s0)
    2266:	87ae                	mv	a5,a1
    2268:	fcc42a23          	sw	a2,-44(s0)
    226c:	fcf41d23          	sh	a5,-38(s0)
D:\A_Dual1\Dual-core_Communication_Demo\Dual-core_Communication_Demo\SLAVE\obj/../Libraries/wch_libraries/Peripheral/ch32v10x_usart.c:258
  uint32_t usartreg = 0x00, itpos = 0x00, itmask = 0x00;
    2270:	fe042423          	sw	zero,-24(s0)
    2274:	fe042223          	sw	zero,-28(s0)
    2278:	fe042023          	sw	zero,-32(s0)
D:\A_Dual1\Dual-core_Communication_Demo\Dual-core_Communication_Demo\SLAVE\obj/../Libraries/wch_libraries/Peripheral/ch32v10x_usart.c:259
  uint32_t usartxbase = 0x00;
    227c:	fe042623          	sw	zero,-20(s0)
D:\A_Dual1\Dual-core_Communication_Demo\Dual-core_Communication_Demo\SLAVE\obj/../Libraries/wch_libraries/Peripheral/ch32v10x_usart.c:265

  if (USART_IT == USART_IT_CTS)
  {
  }   
  
  usartxbase = (uint32_t)USARTx;
    2280:	fdc42783          	lw	a5,-36(s0)
    2284:	fef42623          	sw	a5,-20(s0)
D:\A_Dual1\Dual-core_Communication_Demo\Dual-core_Communication_Demo\SLAVE\obj/../Libraries/wch_libraries/Peripheral/ch32v10x_usart.c:266
  usartreg = (((uint8_t)USART_IT) >> 0x05);
    2288:	fda45783          	lhu	a5,-38(s0)
    228c:	0ff7f793          	andi	a5,a5,255
    2290:	8395                	srli	a5,a5,0x5
    2292:	0ff7f793          	andi	a5,a5,255
    2296:	fef42423          	sw	a5,-24(s0)
D:\A_Dual1\Dual-core_Communication_Demo\Dual-core_Communication_Demo\SLAVE\obj/../Libraries/wch_libraries/Peripheral/ch32v10x_usart.c:267
  itpos = USART_IT & IT_Mask;
    229a:	fda45783          	lhu	a5,-38(s0)
    229e:	8bfd                	andi	a5,a5,31
    22a0:	fef42223          	sw	a5,-28(s0)
D:\A_Dual1\Dual-core_Communication_Demo\Dual-core_Communication_Demo\SLAVE\obj/../Libraries/wch_libraries/Peripheral/ch32v10x_usart.c:268
  itmask = (((uint32_t)0x01) << itpos);
    22a4:	fe442783          	lw	a5,-28(s0)
    22a8:	4705                	li	a4,1
    22aa:	00f717b3          	sll	a5,a4,a5
    22ae:	fef42023          	sw	a5,-32(s0)
D:\A_Dual1\Dual-core_Communication_Demo\Dual-core_Communication_Demo\SLAVE\obj/../Libraries/wch_libraries/Peripheral/ch32v10x_usart.c:270
    
  if (usartreg == 0x01) 
    22b2:	fe842703          	lw	a4,-24(s0)
    22b6:	4785                	li	a5,1
    22b8:	00f71863          	bne	a4,a5,22c8 <USART_ITConfig+0x6c>
D:\A_Dual1\Dual-core_Communication_Demo\Dual-core_Communication_Demo\SLAVE\obj/../Libraries/wch_libraries/Peripheral/ch32v10x_usart.c:272
  {
    usartxbase += 0x0C;
    22bc:	fec42783          	lw	a5,-20(s0)
    22c0:	07b1                	addi	a5,a5,12
    22c2:	fef42623          	sw	a5,-20(s0)
    22c6:	a00d                	j	22e8 <USART_ITConfig+0x8c>
D:\A_Dual1\Dual-core_Communication_Demo\Dual-core_Communication_Demo\SLAVE\obj/../Libraries/wch_libraries/Peripheral/ch32v10x_usart.c:274
  }
  else if (usartreg == 0x02) 
    22c8:	fe842703          	lw	a4,-24(s0)
    22cc:	4789                	li	a5,2
    22ce:	00f71863          	bne	a4,a5,22de <USART_ITConfig+0x82>
D:\A_Dual1\Dual-core_Communication_Demo\Dual-core_Communication_Demo\SLAVE\obj/../Libraries/wch_libraries/Peripheral/ch32v10x_usart.c:276
  {
    usartxbase += 0x10;
    22d2:	fec42783          	lw	a5,-20(s0)
    22d6:	07c1                	addi	a5,a5,16
    22d8:	fef42623          	sw	a5,-20(s0)
    22dc:	a031                	j	22e8 <USART_ITConfig+0x8c>
D:\A_Dual1\Dual-core_Communication_Demo\Dual-core_Communication_Demo\SLAVE\obj/../Libraries/wch_libraries/Peripheral/ch32v10x_usart.c:280
  }
  else 
  {
    usartxbase += 0x14; 
    22de:	fec42783          	lw	a5,-20(s0)
    22e2:	07d1                	addi	a5,a5,20
    22e4:	fef42623          	sw	a5,-20(s0)
D:\A_Dual1\Dual-core_Communication_Demo\Dual-core_Communication_Demo\SLAVE\obj/../Libraries/wch_libraries/Peripheral/ch32v10x_usart.c:283
  }
	
  if (NewState != DISABLE)
    22e8:	fd442783          	lw	a5,-44(s0)
    22ec:	cb99                	beqz	a5,2302 <USART_ITConfig+0xa6>
D:\A_Dual1\Dual-core_Communication_Demo\Dual-core_Communication_Demo\SLAVE\obj/../Libraries/wch_libraries/Peripheral/ch32v10x_usart.c:285
  {
    *(__IO uint32_t*)usartxbase  |= itmask;
    22ee:	fec42783          	lw	a5,-20(s0)
    22f2:	4394                	lw	a3,0(a5)
    22f4:	fec42783          	lw	a5,-20(s0)
    22f8:	fe042703          	lw	a4,-32(s0)
    22fc:	8f55                	or	a4,a4,a3
    22fe:	c398                	sw	a4,0(a5)
D:\A_Dual1\Dual-core_Communication_Demo\Dual-core_Communication_Demo\SLAVE\obj/../Libraries/wch_libraries/Peripheral/ch32v10x_usart.c:291
  }
  else
  {
    *(__IO uint32_t*)usartxbase &= ~itmask;
  }
}
    2300:	a821                	j	2318 <USART_ITConfig+0xbc>
D:\A_Dual1\Dual-core_Communication_Demo\Dual-core_Communication_Demo\SLAVE\obj/../Libraries/wch_libraries/Peripheral/ch32v10x_usart.c:289
    *(__IO uint32_t*)usartxbase &= ~itmask;
    2302:	fec42783          	lw	a5,-20(s0)
    2306:	4394                	lw	a3,0(a5)
    2308:	fe042783          	lw	a5,-32(s0)
    230c:	fff7c713          	not	a4,a5
    2310:	fec42783          	lw	a5,-20(s0)
    2314:	8f75                	and	a4,a4,a3
    2316:	c398                	sw	a4,0(a5)
D:\A_Dual1\Dual-core_Communication_Demo\Dual-core_Communication_Demo\SLAVE\obj/../Libraries/wch_libraries/Peripheral/ch32v10x_usart.c:291
}
    2318:	0001                	nop
    231a:	5432                	lw	s0,44(sp)
    231c:	6145                	addi	sp,sp,48
    231e:	8082                	ret

00002320 <USART_SendData>:
USART_SendData():
D:\A_Dual1\Dual-core_Communication_Demo\Dual-core_Communication_Demo\SLAVE\obj/../Libraries/wch_libraries/Peripheral/ch32v10x_usart.c:404
* Input          : USARTx: where x can be 1, 2, 3 to select the USART peripheral.
*                  Data: the data to transmit..
* Return         : None
*******************************************************************************/
void USART_SendData(USART_TypeDef* USARTx, uint16_t Data)
{
    2320:	1101                	addi	sp,sp,-32
    2322:	ce22                	sw	s0,28(sp)
    2324:	1000                	addi	s0,sp,32
    2326:	fea42623          	sw	a0,-20(s0)
    232a:	87ae                	mv	a5,a1
    232c:	fef41523          	sh	a5,-22(s0)
D:\A_Dual1\Dual-core_Communication_Demo\Dual-core_Communication_Demo\SLAVE\obj/../Libraries/wch_libraries/Peripheral/ch32v10x_usart.c:405
  USARTx->DATAR = (Data & (uint16_t)0x01FF);
    2330:	fea45783          	lhu	a5,-22(s0)
    2334:	1ff7f793          	andi	a5,a5,511
    2338:	01079713          	slli	a4,a5,0x10
    233c:	8341                	srli	a4,a4,0x10
    233e:	fec42783          	lw	a5,-20(s0)
    2342:	00e79223          	sh	a4,4(a5)
D:\A_Dual1\Dual-core_Communication_Demo\Dual-core_Communication_Demo\SLAVE\obj/../Libraries/wch_libraries/Peripheral/ch32v10x_usart.c:406
}
    2346:	0001                	nop
    2348:	4472                	lw	s0,28(sp)
    234a:	6105                	addi	sp,sp,32
    234c:	8082                	ret

0000234e <USART_GetFlagStatus>:
USART_GetFlagStatus():
D:\A_Dual1\Dual-core_Communication_Demo\Dual-core_Communication_Demo\SLAVE\obj/../Libraries/wch_libraries/Peripheral/ch32v10x_usart.c:603
*                    USART_FLAG_FE: Framing Error flag.
*                    USART_FLAG_PE: Parity Error flag.
* Return         : bitstatus: SET or RESET.
*******************************************************************************/
FlagStatus USART_GetFlagStatus(USART_TypeDef* USARTx, uint16_t USART_FLAG)
{
    234e:	7179                	addi	sp,sp,-48
    2350:	d622                	sw	s0,44(sp)
    2352:	1800                	addi	s0,sp,48
    2354:	fca42e23          	sw	a0,-36(s0)
    2358:	87ae                	mv	a5,a1
    235a:	fcf41d23          	sh	a5,-38(s0)
D:\A_Dual1\Dual-core_Communication_Demo\Dual-core_Communication_Demo\SLAVE\obj/../Libraries/wch_libraries/Peripheral/ch32v10x_usart.c:604
  FlagStatus bitstatus = RESET;
    235e:	fe042623          	sw	zero,-20(s0)
D:\A_Dual1\Dual-core_Communication_Demo\Dual-core_Communication_Demo\SLAVE\obj/../Libraries/wch_libraries/Peripheral/ch32v10x_usart.c:610

  if (USART_FLAG == USART_FLAG_CTS)
  {
  }  
  
  if ((USARTx->STATR & USART_FLAG) != (uint16_t)RESET)
    2362:	fdc42783          	lw	a5,-36(s0)
    2366:	0007d783          	lhu	a5,0(a5)
    236a:	01079713          	slli	a4,a5,0x10
    236e:	8341                	srli	a4,a4,0x10
    2370:	fda45783          	lhu	a5,-38(s0)
    2374:	8ff9                	and	a5,a5,a4
    2376:	07c2                	slli	a5,a5,0x10
    2378:	83c1                	srli	a5,a5,0x10
    237a:	c789                	beqz	a5,2384 <USART_GetFlagStatus+0x36>
D:\A_Dual1\Dual-core_Communication_Demo\Dual-core_Communication_Demo\SLAVE\obj/../Libraries/wch_libraries/Peripheral/ch32v10x_usart.c:612
  {
    bitstatus = SET;
    237c:	4785                	li	a5,1
    237e:	fef42623          	sw	a5,-20(s0)
    2382:	a019                	j	2388 <USART_GetFlagStatus+0x3a>
D:\A_Dual1\Dual-core_Communication_Demo\Dual-core_Communication_Demo\SLAVE\obj/../Libraries/wch_libraries/Peripheral/ch32v10x_usart.c:616
  }
  else
  {
    bitstatus = RESET;
    2384:	fe042623          	sw	zero,-20(s0)
D:\A_Dual1\Dual-core_Communication_Demo\Dual-core_Communication_Demo\SLAVE\obj/../Libraries/wch_libraries/Peripheral/ch32v10x_usart.c:618
  }
  return bitstatus;
    2388:	fec42783          	lw	a5,-20(s0)
D:\A_Dual1\Dual-core_Communication_Demo\Dual-core_Communication_Demo\SLAVE\obj/../Libraries/wch_libraries/Peripheral/ch32v10x_usart.c:619
}
    238c:	853e                	mv	a0,a5
    238e:	5432                	lw	s0,44(sp)
    2390:	6145                	addi	sp,sp,48
    2392:	8082                	ret

00002394 <USART_GetITStatus>:
USART_GetITStatus():
D:\A_Dual1\Dual-core_Communication_Demo\Dual-core_Communication_Demo\SLAVE\obj/../Libraries/wch_libraries/Peripheral/ch32v10x_usart.c:660
*                    USART_IT_FE: Framing Error interrupt.
*                    USART_IT_PE: Parity Error interrupt.
* Return         : bitstatus: SET or RESET.
*******************************************************************************/
ITStatus USART_GetITStatus(USART_TypeDef* USARTx, uint16_t USART_IT)
{
    2394:	7179                	addi	sp,sp,-48
    2396:	d622                	sw	s0,44(sp)
    2398:	1800                	addi	s0,sp,48
    239a:	fca42e23          	sw	a0,-36(s0)
    239e:	87ae                	mv	a5,a1
    23a0:	fcf41d23          	sh	a5,-38(s0)
D:\A_Dual1\Dual-core_Communication_Demo\Dual-core_Communication_Demo\SLAVE\obj/../Libraries/wch_libraries/Peripheral/ch32v10x_usart.c:661
  uint32_t bitpos = 0x00, itmask = 0x00, usartreg = 0x00;
    23a4:	fe042223          	sw	zero,-28(s0)
    23a8:	fe042623          	sw	zero,-20(s0)
    23ac:	fe042023          	sw	zero,-32(s0)
D:\A_Dual1\Dual-core_Communication_Demo\Dual-core_Communication_Demo\SLAVE\obj/../Libraries/wch_libraries/Peripheral/ch32v10x_usart.c:662
  ITStatus bitstatus = RESET;
    23b0:	fe042423          	sw	zero,-24(s0)
D:\A_Dual1\Dual-core_Communication_Demo\Dual-core_Communication_Demo\SLAVE\obj/../Libraries/wch_libraries/Peripheral/ch32v10x_usart.c:668

  if (USART_IT == USART_IT_CTS)
  {
  }   
  
  usartreg = (((uint8_t)USART_IT) >> 0x05);
    23b4:	fda45783          	lhu	a5,-38(s0)
    23b8:	0ff7f793          	andi	a5,a5,255
    23bc:	8395                	srli	a5,a5,0x5
    23be:	0ff7f793          	andi	a5,a5,255
    23c2:	fef42023          	sw	a5,-32(s0)
D:\A_Dual1\Dual-core_Communication_Demo\Dual-core_Communication_Demo\SLAVE\obj/../Libraries/wch_libraries/Peripheral/ch32v10x_usart.c:669
  itmask = USART_IT & IT_Mask;
    23c6:	fda45783          	lhu	a5,-38(s0)
    23ca:	8bfd                	andi	a5,a5,31
    23cc:	fef42623          	sw	a5,-20(s0)
D:\A_Dual1\Dual-core_Communication_Demo\Dual-core_Communication_Demo\SLAVE\obj/../Libraries/wch_libraries/Peripheral/ch32v10x_usart.c:670
  itmask = (uint32_t)0x01 << itmask;
    23d0:	fec42783          	lw	a5,-20(s0)
    23d4:	4705                	li	a4,1
    23d6:	00f717b3          	sll	a5,a4,a5
    23da:	fef42623          	sw	a5,-20(s0)
D:\A_Dual1\Dual-core_Communication_Demo\Dual-core_Communication_Demo\SLAVE\obj/../Libraries/wch_libraries/Peripheral/ch32v10x_usart.c:672
  
  if (usartreg == 0x01) 
    23de:	fe042703          	lw	a4,-32(s0)
    23e2:	4785                	li	a5,1
    23e4:	00f71f63          	bne	a4,a5,2402 <USART_GetITStatus+0x6e>
D:\A_Dual1\Dual-core_Communication_Demo\Dual-core_Communication_Demo\SLAVE\obj/../Libraries/wch_libraries/Peripheral/ch32v10x_usart.c:674
  {
    itmask &= USARTx->CTLR1;
    23e8:	fdc42783          	lw	a5,-36(s0)
    23ec:	00c7d783          	lhu	a5,12(a5)
    23f0:	07c2                	slli	a5,a5,0x10
    23f2:	83c1                	srli	a5,a5,0x10
    23f4:	873e                	mv	a4,a5
    23f6:	fec42783          	lw	a5,-20(s0)
    23fa:	8ff9                	and	a5,a5,a4
    23fc:	fef42623          	sw	a5,-20(s0)
    2400:	a83d                	j	243e <USART_GetITStatus+0xaa>
D:\A_Dual1\Dual-core_Communication_Demo\Dual-core_Communication_Demo\SLAVE\obj/../Libraries/wch_libraries/Peripheral/ch32v10x_usart.c:676
  }
  else if (usartreg == 0x02) 
    2402:	fe042703          	lw	a4,-32(s0)
    2406:	4789                	li	a5,2
    2408:	00f71f63          	bne	a4,a5,2426 <USART_GetITStatus+0x92>
D:\A_Dual1\Dual-core_Communication_Demo\Dual-core_Communication_Demo\SLAVE\obj/../Libraries/wch_libraries/Peripheral/ch32v10x_usart.c:678
  {
    itmask &= USARTx->CTLR2;
    240c:	fdc42783          	lw	a5,-36(s0)
    2410:	0107d783          	lhu	a5,16(a5)
    2414:	07c2                	slli	a5,a5,0x10
    2416:	83c1                	srli	a5,a5,0x10
    2418:	873e                	mv	a4,a5
    241a:	fec42783          	lw	a5,-20(s0)
    241e:	8ff9                	and	a5,a5,a4
    2420:	fef42623          	sw	a5,-20(s0)
    2424:	a829                	j	243e <USART_GetITStatus+0xaa>
D:\A_Dual1\Dual-core_Communication_Demo\Dual-core_Communication_Demo\SLAVE\obj/../Libraries/wch_libraries/Peripheral/ch32v10x_usart.c:682
  }
  else 
  {
    itmask &= USARTx->CTLR3;
    2426:	fdc42783          	lw	a5,-36(s0)
    242a:	0147d783          	lhu	a5,20(a5)
    242e:	07c2                	slli	a5,a5,0x10
    2430:	83c1                	srli	a5,a5,0x10
    2432:	873e                	mv	a4,a5
    2434:	fec42783          	lw	a5,-20(s0)
    2438:	8ff9                	and	a5,a5,a4
    243a:	fef42623          	sw	a5,-20(s0)
D:\A_Dual1\Dual-core_Communication_Demo\Dual-core_Communication_Demo\SLAVE\obj/../Libraries/wch_libraries/Peripheral/ch32v10x_usart.c:685
  }
  
  bitpos = USART_IT >> 0x08;
    243e:	fda45783          	lhu	a5,-38(s0)
    2442:	83a1                	srli	a5,a5,0x8
    2444:	07c2                	slli	a5,a5,0x10
    2446:	83c1                	srli	a5,a5,0x10
    2448:	fef42223          	sw	a5,-28(s0)
D:\A_Dual1\Dual-core_Communication_Demo\Dual-core_Communication_Demo\SLAVE\obj/../Libraries/wch_libraries/Peripheral/ch32v10x_usart.c:686
  bitpos = (uint32_t)0x01 << bitpos;
    244c:	fe442783          	lw	a5,-28(s0)
    2450:	4705                	li	a4,1
    2452:	00f717b3          	sll	a5,a4,a5
    2456:	fef42223          	sw	a5,-28(s0)
D:\A_Dual1\Dual-core_Communication_Demo\Dual-core_Communication_Demo\SLAVE\obj/../Libraries/wch_libraries/Peripheral/ch32v10x_usart.c:687
  bitpos &= USARTx->STATR;
    245a:	fdc42783          	lw	a5,-36(s0)
    245e:	0007d783          	lhu	a5,0(a5)
    2462:	07c2                	slli	a5,a5,0x10
    2464:	83c1                	srli	a5,a5,0x10
    2466:	873e                	mv	a4,a5
    2468:	fe442783          	lw	a5,-28(s0)
    246c:	8ff9                	and	a5,a5,a4
    246e:	fef42223          	sw	a5,-28(s0)
D:\A_Dual1\Dual-core_Communication_Demo\Dual-core_Communication_Demo\SLAVE\obj/../Libraries/wch_libraries/Peripheral/ch32v10x_usart.c:689
	
  if ((itmask != (uint16_t)RESET)&&(bitpos != (uint16_t)RESET))
    2472:	fec42783          	lw	a5,-20(s0)
    2476:	cb81                	beqz	a5,2486 <USART_GetITStatus+0xf2>
D:\A_Dual1\Dual-core_Communication_Demo\Dual-core_Communication_Demo\SLAVE\obj/../Libraries/wch_libraries/Peripheral/ch32v10x_usart.c:689 (discriminator 1)
    2478:	fe442783          	lw	a5,-28(s0)
    247c:	c789                	beqz	a5,2486 <USART_GetITStatus+0xf2>
D:\A_Dual1\Dual-core_Communication_Demo\Dual-core_Communication_Demo\SLAVE\obj/../Libraries/wch_libraries/Peripheral/ch32v10x_usart.c:691
  {
    bitstatus = SET;
    247e:	4785                	li	a5,1
    2480:	fef42423          	sw	a5,-24(s0)
    2484:	a019                	j	248a <USART_GetITStatus+0xf6>
D:\A_Dual1\Dual-core_Communication_Demo\Dual-core_Communication_Demo\SLAVE\obj/../Libraries/wch_libraries/Peripheral/ch32v10x_usart.c:695
  }
  else
  {
    bitstatus = RESET;
    2486:	fe042423          	sw	zero,-24(s0)
D:\A_Dual1\Dual-core_Communication_Demo\Dual-core_Communication_Demo\SLAVE\obj/../Libraries/wch_libraries/Peripheral/ch32v10x_usart.c:698
  }
  
  return bitstatus;  
    248a:	fe842783          	lw	a5,-24(s0)
D:\A_Dual1\Dual-core_Communication_Demo\Dual-core_Communication_Demo\SLAVE\obj/../Libraries/wch_libraries/Peripheral/ch32v10x_usart.c:699
}
    248e:	853e                	mv	a0,a5
    2490:	5432                	lw	s0,44(sp)
    2492:	6145                	addi	sp,sp,48
    2494:	8082                	ret

00002496 <USART_ClearITPendingBit>:
USART_ClearITPendingBit():
D:\A_Dual1\Dual-core_Communication_Demo\Dual-core_Communication_Demo\SLAVE\obj/../Libraries/wch_libraries/Peripheral/ch32v10x_usart.c:713
*                    USART_IT_TC:   Transmission complete interrupt.
*                    USART_IT_RXNE: Receive Data register not empty interrupt.
* Return         : None
*******************************************************************************/
void USART_ClearITPendingBit(USART_TypeDef* USARTx, uint16_t USART_IT)
{
    2496:	7179                	addi	sp,sp,-48
    2498:	d622                	sw	s0,44(sp)
    249a:	1800                	addi	s0,sp,48
    249c:	fca42e23          	sw	a0,-36(s0)
    24a0:	87ae                	mv	a5,a1
    24a2:	fcf41d23          	sh	a5,-38(s0)
D:\A_Dual1\Dual-core_Communication_Demo\Dual-core_Communication_Demo\SLAVE\obj/../Libraries/wch_libraries/Peripheral/ch32v10x_usart.c:714
  uint16_t bitpos = 0x00, itmask = 0x00;
    24a6:	fe041723          	sh	zero,-18(s0)
    24aa:	fe041623          	sh	zero,-20(s0)
D:\A_Dual1\Dual-core_Communication_Demo\Dual-core_Communication_Demo\SLAVE\obj/../Libraries/wch_libraries/Peripheral/ch32v10x_usart.c:720

  if (USART_IT == USART_IT_CTS)
  {
  }   
  
  bitpos = USART_IT >> 0x08;
    24ae:	fda45783          	lhu	a5,-38(s0)
    24b2:	83a1                	srli	a5,a5,0x8
    24b4:	fef41723          	sh	a5,-18(s0)
D:\A_Dual1\Dual-core_Communication_Demo\Dual-core_Communication_Demo\SLAVE\obj/../Libraries/wch_libraries/Peripheral/ch32v10x_usart.c:721
  itmask = ((uint16_t)0x01 << (uint16_t)bitpos);
    24b8:	fee45783          	lhu	a5,-18(s0)
    24bc:	4705                	li	a4,1
    24be:	00f717b3          	sll	a5,a4,a5
    24c2:	fef41623          	sh	a5,-20(s0)
D:\A_Dual1\Dual-core_Communication_Demo\Dual-core_Communication_Demo\SLAVE\obj/../Libraries/wch_libraries/Peripheral/ch32v10x_usart.c:722
  USARTx->STATR = (uint16_t)~itmask;
    24c6:	fec45783          	lhu	a5,-20(s0)
    24ca:	fff7c793          	not	a5,a5
    24ce:	01079713          	slli	a4,a5,0x10
    24d2:	8341                	srli	a4,a4,0x10
    24d4:	fdc42783          	lw	a5,-36(s0)
    24d8:	00e79023          	sh	a4,0(a5)
D:\A_Dual1\Dual-core_Communication_Demo\Dual-core_Communication_Demo\SLAVE\obj/../Libraries/wch_libraries/Peripheral/ch32v10x_usart.c:723
}
    24dc:	0001                	nop
    24de:	5432                	lw	s0,44(sp)
    24e0:	6145                	addi	sp,sp,48
    24e2:	8082                	ret

000024e4 <lcd_writeIndex>:
lcd_writeIndex():
D:\A_Dual1\Dual-core_Communication_Demo\Dual-core_Communication_Demo\SLAVE\obj/../Libraries/seekfree_peripheral/SEEKFREE_18TFT.c:47
#include "SEEKFREE_18TFT.h"



void  lcd_writeIndex(uint8 dat)         //
{
    24e4:	1101                	addi	sp,sp,-32
    24e6:	ce06                	sw	ra,28(sp)
    24e8:	cc22                	sw	s0,24(sp)
    24ea:	1000                	addi	s0,sp,32
    24ec:	87aa                	mv	a5,a0
    24ee:	fef407a3          	sb	a5,-17(s0)
D:\A_Dual1\Dual-core_Communication_Demo\Dual-core_Communication_Demo\SLAVE\obj/../Libraries/seekfree_peripheral/SEEKFREE_18TFT.c:48
    TFT_CS(0);
    24f2:	67a9                	lui	a5,0xa
    24f4:	d4c78793          	addi	a5,a5,-692 # 9d4c <GPION>
    24f8:	479c                	lw	a5,8(a5)
    24fa:	873e                	mv	a4,a5
    24fc:	67a1                	lui	a5,0x8
    24fe:	cb5c                	sw	a5,20(a4)
D:\A_Dual1\Dual-core_Communication_Demo\Dual-core_Communication_Demo\SLAVE\obj/../Libraries/seekfree_peripheral/SEEKFREE_18TFT.c:49
    TFT_DC(0);
    2500:	67a9                	lui	a5,0xa
    2502:	d4c78793          	addi	a5,a5,-692 # 9d4c <GPION>
    2506:	479c                	lw	a5,8(a5)
    2508:	873e                	mv	a4,a5
    250a:	6791                	lui	a5,0x4
    250c:	cb5c                	sw	a5,20(a4)
D:\A_Dual1\Dual-core_Communication_Demo\Dual-core_Communication_Demo\SLAVE\obj/../Libraries/seekfree_peripheral/SEEKFREE_18TFT.c:50
    spi_mosi(TFT_SPIN, &dat, NULL, 1);
    250e:	fef40793          	addi	a5,s0,-17
    2512:	4685                	li	a3,1
    2514:	4601                	li	a2,0
    2516:	85be                	mv	a1,a5
    2518:	4501                	li	a0,0
    251a:	42d010ef          	jal	ra,4146 <spi_mosi>
D:\A_Dual1\Dual-core_Communication_Demo\Dual-core_Communication_Demo\SLAVE\obj/../Libraries/seekfree_peripheral/SEEKFREE_18TFT.c:51
    TFT_CS(1);
    251e:	67a9                	lui	a5,0xa
    2520:	d4c78793          	addi	a5,a5,-692 # 9d4c <GPION>
    2524:	479c                	lw	a5,8(a5)
    2526:	873e                	mv	a4,a5
    2528:	67a1                	lui	a5,0x8
    252a:	cb1c                	sw	a5,16(a4)
D:\A_Dual1\Dual-core_Communication_Demo\Dual-core_Communication_Demo\SLAVE\obj/../Libraries/seekfree_peripheral/SEEKFREE_18TFT.c:53

}
    252c:	0001                	nop
    252e:	40f2                	lw	ra,28(sp)
    2530:	4462                	lw	s0,24(sp)
    2532:	6105                	addi	sp,sp,32
    2534:	8082                	ret

00002536 <lcd_writeData>:
lcd_writeData():
D:\A_Dual1\Dual-core_Communication_Demo\Dual-core_Communication_Demo\SLAVE\obj/../Libraries/seekfree_peripheral/SEEKFREE_18TFT.c:56

void lcd_writeData(uint8 dat)           //
{
    2536:	1101                	addi	sp,sp,-32
    2538:	ce06                	sw	ra,28(sp)
    253a:	cc22                	sw	s0,24(sp)
    253c:	1000                	addi	s0,sp,32
    253e:	87aa                	mv	a5,a0
    2540:	fef407a3          	sb	a5,-17(s0)
D:\A_Dual1\Dual-core_Communication_Demo\Dual-core_Communication_Demo\SLAVE\obj/../Libraries/seekfree_peripheral/SEEKFREE_18TFT.c:57
    TFT_CS(0);
    2544:	67a9                	lui	a5,0xa
    2546:	d4c78793          	addi	a5,a5,-692 # 9d4c <GPION>
    254a:	479c                	lw	a5,8(a5)
    254c:	873e                	mv	a4,a5
    254e:	67a1                	lui	a5,0x8
    2550:	cb5c                	sw	a5,20(a4)
D:\A_Dual1\Dual-core_Communication_Demo\Dual-core_Communication_Demo\SLAVE\obj/../Libraries/seekfree_peripheral/SEEKFREE_18TFT.c:58
    TFT_DC(1);
    2552:	67a9                	lui	a5,0xa
    2554:	d4c78793          	addi	a5,a5,-692 # 9d4c <GPION>
    2558:	479c                	lw	a5,8(a5)
    255a:	873e                	mv	a4,a5
    255c:	6791                	lui	a5,0x4
    255e:	cb1c                	sw	a5,16(a4)
D:\A_Dual1\Dual-core_Communication_Demo\Dual-core_Communication_Demo\SLAVE\obj/../Libraries/seekfree_peripheral/SEEKFREE_18TFT.c:59
    spi_mosi(TFT_SPIN, &dat, &dat, 1);
    2560:	fef40713          	addi	a4,s0,-17
    2564:	fef40793          	addi	a5,s0,-17
    2568:	4685                	li	a3,1
    256a:	863a                	mv	a2,a4
    256c:	85be                	mv	a1,a5
    256e:	4501                	li	a0,0
    2570:	3d7010ef          	jal	ra,4146 <spi_mosi>
D:\A_Dual1\Dual-core_Communication_Demo\Dual-core_Communication_Demo\SLAVE\obj/../Libraries/seekfree_peripheral/SEEKFREE_18TFT.c:60
    TFT_CS(1);
    2574:	67a9                	lui	a5,0xa
    2576:	d4c78793          	addi	a5,a5,-692 # 9d4c <GPION>
    257a:	479c                	lw	a5,8(a5)
    257c:	873e                	mv	a4,a5
    257e:	67a1                	lui	a5,0x8
    2580:	cb1c                	sw	a5,16(a4)
D:\A_Dual1\Dual-core_Communication_Demo\Dual-core_Communication_Demo\SLAVE\obj/../Libraries/seekfree_peripheral/SEEKFREE_18TFT.c:61
}
    2582:	0001                	nop
    2584:	40f2                	lw	ra,28(sp)
    2586:	4462                	lw	s0,24(sp)
    2588:	6105                	addi	sp,sp,32
    258a:	8082                	ret

0000258c <lcd_writedata_16bit>:
lcd_writedata_16bit():
D:\A_Dual1\Dual-core_Communication_Demo\Dual-core_Communication_Demo\SLAVE\obj/../Libraries/seekfree_peripheral/SEEKFREE_18TFT.c:64

void lcd_writedata_16bit(uint16 dat)    //16
{
    258c:	7179                	addi	sp,sp,-48
    258e:	d606                	sw	ra,44(sp)
    2590:	d422                	sw	s0,40(sp)
    2592:	1800                	addi	s0,sp,48
    2594:	87aa                	mv	a5,a0
    2596:	fcf41f23          	sh	a5,-34(s0)
D:\A_Dual1\Dual-core_Communication_Demo\Dual-core_Communication_Demo\SLAVE\obj/../Libraries/seekfree_peripheral/SEEKFREE_18TFT.c:66
    uint8 dat1[2];
    TFT_CS(0);
    259a:	67a9                	lui	a5,0xa
    259c:	d4c78793          	addi	a5,a5,-692 # 9d4c <GPION>
    25a0:	479c                	lw	a5,8(a5)
    25a2:	873e                	mv	a4,a5
    25a4:	67a1                	lui	a5,0x8
    25a6:	cb5c                	sw	a5,20(a4)
D:\A_Dual1\Dual-core_Communication_Demo\Dual-core_Communication_Demo\SLAVE\obj/../Libraries/seekfree_peripheral/SEEKFREE_18TFT.c:67
    dat1[0] = dat >> 8;
    25a8:	fde45783          	lhu	a5,-34(s0)
    25ac:	83a1                	srli	a5,a5,0x8
    25ae:	07c2                	slli	a5,a5,0x10
    25b0:	83c1                	srli	a5,a5,0x10
    25b2:	0ff7f793          	andi	a5,a5,255
    25b6:	fef40623          	sb	a5,-20(s0)
D:\A_Dual1\Dual-core_Communication_Demo\Dual-core_Communication_Demo\SLAVE\obj/../Libraries/seekfree_peripheral/SEEKFREE_18TFT.c:68
    dat1[1] = (uint8)dat;
    25ba:	fde45783          	lhu	a5,-34(s0)
    25be:	0ff7f793          	andi	a5,a5,255
    25c2:	fef406a3          	sb	a5,-19(s0)
D:\A_Dual1\Dual-core_Communication_Demo\Dual-core_Communication_Demo\SLAVE\obj/../Libraries/seekfree_peripheral/SEEKFREE_18TFT.c:70
    
    TFT_DC(1);
    25c6:	67a9                	lui	a5,0xa
    25c8:	d4c78793          	addi	a5,a5,-692 # 9d4c <GPION>
    25cc:	479c                	lw	a5,8(a5)
    25ce:	873e                	mv	a4,a5
    25d0:	6791                	lui	a5,0x4
    25d2:	cb1c                	sw	a5,16(a4)
D:\A_Dual1\Dual-core_Communication_Demo\Dual-core_Communication_Demo\SLAVE\obj/../Libraries/seekfree_peripheral/SEEKFREE_18TFT.c:71
    spi_mosi(TFT_SPIN, dat1, dat1, 2);  //    
    25d4:	fec40713          	addi	a4,s0,-20
    25d8:	fec40793          	addi	a5,s0,-20
    25dc:	4689                	li	a3,2
    25de:	863a                	mv	a2,a4
    25e0:	85be                	mv	a1,a5
    25e2:	4501                	li	a0,0
    25e4:	363010ef          	jal	ra,4146 <spi_mosi>
D:\A_Dual1\Dual-core_Communication_Demo\Dual-core_Communication_Demo\SLAVE\obj/../Libraries/seekfree_peripheral/SEEKFREE_18TFT.c:72
    TFT_CS(1);
    25e8:	67a9                	lui	a5,0xa
    25ea:	d4c78793          	addi	a5,a5,-692 # 9d4c <GPION>
    25ee:	479c                	lw	a5,8(a5)
    25f0:	873e                	mv	a4,a5
    25f2:	67a1                	lui	a5,0x8
    25f4:	cb1c                	sw	a5,16(a4)
D:\A_Dual1\Dual-core_Communication_Demo\Dual-core_Communication_Demo\SLAVE\obj/../Libraries/seekfree_peripheral/SEEKFREE_18TFT.c:73
}
    25f6:	0001                	nop
    25f8:	50b2                	lw	ra,44(sp)
    25fa:	5422                	lw	s0,40(sp)
    25fc:	6145                	addi	sp,sp,48
    25fe:	8082                	ret

00002600 <lcd_set_region>:
lcd_set_region():
D:\A_Dual1\Dual-core_Communication_Demo\Dual-core_Communication_Demo\SLAVE\obj/../Libraries/seekfree_peripheral/SEEKFREE_18TFT.c:86
//  @return     void
//  @since      v1.0
//  Sample usage:               lcd_set_region(0,0,10,10);// xy010
//-------------------------------------------------------------------------------------------------------------------
void lcd_set_region(unsigned int x_start,unsigned int y_start,unsigned int x_end,unsigned int y_end)
{
    2600:	1101                	addi	sp,sp,-32
    2602:	ce06                	sw	ra,28(sp)
    2604:	cc22                	sw	s0,24(sp)
    2606:	1000                	addi	s0,sp,32
    2608:	fea42623          	sw	a0,-20(s0)
    260c:	feb42423          	sw	a1,-24(s0)
    2610:	fec42223          	sw	a2,-28(s0)
    2614:	fed42023          	sw	a3,-32(s0)
D:\A_Dual1\Dual-core_Communication_Demo\Dual-core_Communication_Demo\SLAVE\obj/../Libraries/seekfree_peripheral/SEEKFREE_18TFT.c:87
    assert(TFT_X_MAX>x_start);//
    2618:	fec42703          	lw	a4,-20(s0)
    261c:	09f00793          	li	a5,159
    2620:	00e7ff63          	bgeu	a5,a4,263e <lcd_set_region+0x3e>
D:\A_Dual1\Dual-core_Communication_Demo\Dual-core_Communication_Demo\SLAVE\obj/../Libraries/seekfree_peripheral/SEEKFREE_18TFT.c:87 (discriminator 1)
    2624:	67a5                	lui	a5,0x9
    2626:	62878693          	addi	a3,a5,1576 # 9628 <_exit+0x4>
    262a:	67a5                	lui	a5,0x9
    262c:	74c78613          	addi	a2,a5,1868 # 974c <__func__.3212>
    2630:	05700593          	li	a1,87
    2634:	67a5                	lui	a5,0x9
    2636:	63c78513          	addi	a0,a5,1596 # 963c <_exit+0x18>
    263a:	54b050ef          	jal	ra,8384 <__assert_func>
D:\A_Dual1\Dual-core_Communication_Demo\Dual-core_Communication_Demo\SLAVE\obj/../Libraries/seekfree_peripheral/SEEKFREE_18TFT.c:88
    assert(TFT_Y_MAX>y_start);
    263e:	fe842703          	lw	a4,-24(s0)
    2642:	07f00793          	li	a5,127
    2646:	00e7ff63          	bgeu	a5,a4,2664 <lcd_set_region+0x64>
D:\A_Dual1\Dual-core_Communication_Demo\Dual-core_Communication_Demo\SLAVE\obj/../Libraries/seekfree_peripheral/SEEKFREE_18TFT.c:88 (discriminator 1)
    264a:	67a5                	lui	a5,0x9
    264c:	67078693          	addi	a3,a5,1648 # 9670 <_exit+0x4c>
    2650:	67a5                	lui	a5,0x9
    2652:	74c78613          	addi	a2,a5,1868 # 974c <__func__.3212>
    2656:	05800593          	li	a1,88
    265a:	67a5                	lui	a5,0x9
    265c:	63c78513          	addi	a0,a5,1596 # 963c <_exit+0x18>
    2660:	525050ef          	jal	ra,8384 <__assert_func>
D:\A_Dual1\Dual-core_Communication_Demo\Dual-core_Communication_Demo\SLAVE\obj/../Libraries/seekfree_peripheral/SEEKFREE_18TFT.c:90
    
    assert(TFT_X_MAX>x_end);
    2664:	fe442703          	lw	a4,-28(s0)
    2668:	09f00793          	li	a5,159
    266c:	00e7ff63          	bgeu	a5,a4,268a <lcd_set_region+0x8a>
D:\A_Dual1\Dual-core_Communication_Demo\Dual-core_Communication_Demo\SLAVE\obj/../Libraries/seekfree_peripheral/SEEKFREE_18TFT.c:90 (discriminator 1)
    2670:	67a5                	lui	a5,0x9
    2672:	68478693          	addi	a3,a5,1668 # 9684 <_exit+0x60>
    2676:	67a5                	lui	a5,0x9
    2678:	74c78613          	addi	a2,a5,1868 # 974c <__func__.3212>
    267c:	05a00593          	li	a1,90
    2680:	67a5                	lui	a5,0x9
    2682:	63c78513          	addi	a0,a5,1596 # 963c <_exit+0x18>
    2686:	4ff050ef          	jal	ra,8384 <__assert_func>
D:\A_Dual1\Dual-core_Communication_Demo\Dual-core_Communication_Demo\SLAVE\obj/../Libraries/seekfree_peripheral/SEEKFREE_18TFT.c:91
    assert(TFT_Y_MAX>y_end);
    268a:	fe042703          	lw	a4,-32(s0)
    268e:	07f00793          	li	a5,127
    2692:	00e7ff63          	bgeu	a5,a4,26b0 <lcd_set_region+0xb0>
D:\A_Dual1\Dual-core_Communication_Demo\Dual-core_Communication_Demo\SLAVE\obj/../Libraries/seekfree_peripheral/SEEKFREE_18TFT.c:91 (discriminator 1)
    2696:	67a5                	lui	a5,0x9
    2698:	69478693          	addi	a3,a5,1684 # 9694 <_exit+0x70>
    269c:	67a5                	lui	a5,0x9
    269e:	74c78613          	addi	a2,a5,1868 # 974c <__func__.3212>
    26a2:	05b00593          	li	a1,91
    26a6:	67a5                	lui	a5,0x9
    26a8:	63c78513          	addi	a0,a5,1596 # 963c <_exit+0x18>
    26ac:	4d9050ef          	jal	ra,8384 <__assert_func>
D:\A_Dual1\Dual-core_Communication_Demo\Dual-core_Communication_Demo\SLAVE\obj/../Libraries/seekfree_peripheral/SEEKFREE_18TFT.c:107
    lcd_writeData(y_start+1);
    lcd_writeData(0x00);
    lcd_writeData(y_end+1);

#elif(2 == TFT_DISPLAY_DIR || 3 == TFT_DISPLAY_DIR)
    lcd_writeIndex(0x2a);
    26b0:	02a00513          	li	a0,42
    26b4:	3d05                	jal	24e4 <lcd_writeIndex>
D:\A_Dual1\Dual-core_Communication_Demo\Dual-core_Communication_Demo\SLAVE\obj/../Libraries/seekfree_peripheral/SEEKFREE_18TFT.c:108
    lcd_writeData(0x00);
    26b6:	4501                	li	a0,0
    26b8:	3dbd                	jal	2536 <lcd_writeData>
D:\A_Dual1\Dual-core_Communication_Demo\Dual-core_Communication_Demo\SLAVE\obj/../Libraries/seekfree_peripheral/SEEKFREE_18TFT.c:109
    lcd_writeData(x_start+1);
    26ba:	fec42783          	lw	a5,-20(s0)
    26be:	0ff7f793          	andi	a5,a5,255
    26c2:	0785                	addi	a5,a5,1
    26c4:	0ff7f793          	andi	a5,a5,255
    26c8:	853e                	mv	a0,a5
    26ca:	35b5                	jal	2536 <lcd_writeData>
D:\A_Dual1\Dual-core_Communication_Demo\Dual-core_Communication_Demo\SLAVE\obj/../Libraries/seekfree_peripheral/SEEKFREE_18TFT.c:110
    lcd_writeData(0x0);
    26cc:	4501                	li	a0,0
    26ce:	35a5                	jal	2536 <lcd_writeData>
D:\A_Dual1\Dual-core_Communication_Demo\Dual-core_Communication_Demo\SLAVE\obj/../Libraries/seekfree_peripheral/SEEKFREE_18TFT.c:111
    lcd_writeData(x_end+1);
    26d0:	fe442783          	lw	a5,-28(s0)
    26d4:	0ff7f793          	andi	a5,a5,255
    26d8:	0785                	addi	a5,a5,1
    26da:	0ff7f793          	andi	a5,a5,255
    26de:	853e                	mv	a0,a5
    26e0:	3d99                	jal	2536 <lcd_writeData>
D:\A_Dual1\Dual-core_Communication_Demo\Dual-core_Communication_Demo\SLAVE\obj/../Libraries/seekfree_peripheral/SEEKFREE_18TFT.c:113

    lcd_writeIndex(0x2b);
    26e2:	02b00513          	li	a0,43
    26e6:	3bfd                	jal	24e4 <lcd_writeIndex>
D:\A_Dual1\Dual-core_Communication_Demo\Dual-core_Communication_Demo\SLAVE\obj/../Libraries/seekfree_peripheral/SEEKFREE_18TFT.c:114
    lcd_writeData(0x00);
    26e8:	4501                	li	a0,0
    26ea:	35b1                	jal	2536 <lcd_writeData>
D:\A_Dual1\Dual-core_Communication_Demo\Dual-core_Communication_Demo\SLAVE\obj/../Libraries/seekfree_peripheral/SEEKFREE_18TFT.c:115
    lcd_writeData(y_start+2);
    26ec:	fe842783          	lw	a5,-24(s0)
    26f0:	0ff7f793          	andi	a5,a5,255
    26f4:	0789                	addi	a5,a5,2
    26f6:	0ff7f793          	andi	a5,a5,255
    26fa:	853e                	mv	a0,a5
    26fc:	3d2d                	jal	2536 <lcd_writeData>
D:\A_Dual1\Dual-core_Communication_Demo\Dual-core_Communication_Demo\SLAVE\obj/../Libraries/seekfree_peripheral/SEEKFREE_18TFT.c:116
    lcd_writeData(0x00);
    26fe:	4501                	li	a0,0
    2700:	3d1d                	jal	2536 <lcd_writeData>
D:\A_Dual1\Dual-core_Communication_Demo\Dual-core_Communication_Demo\SLAVE\obj/../Libraries/seekfree_peripheral/SEEKFREE_18TFT.c:117
    lcd_writeData(y_end+2);
    2702:	fe042783          	lw	a5,-32(s0)
    2706:	0ff7f793          	andi	a5,a5,255
    270a:	0789                	addi	a5,a5,2
    270c:	0ff7f793          	andi	a5,a5,255
    2710:	853e                	mv	a0,a5
    2712:	3515                	jal	2536 <lcd_writeData>
D:\A_Dual1\Dual-core_Communication_Demo\Dual-core_Communication_Demo\SLAVE\obj/../Libraries/seekfree_peripheral/SEEKFREE_18TFT.c:121

#endif
    
    lcd_writeIndex(0x2c);
    2714:	02c00513          	li	a0,44
    2718:	33f1                	jal	24e4 <lcd_writeIndex>
D:\A_Dual1\Dual-core_Communication_Demo\Dual-core_Communication_Demo\SLAVE\obj/../Libraries/seekfree_peripheral/SEEKFREE_18TFT.c:122
}
    271a:	0001                	nop
    271c:	40f2                	lw	ra,28(sp)
    271e:	4462                	lw	s0,24(sp)
    2720:	6105                	addi	sp,sp,32
    2722:	8082                	ret

00002724 <lcd_clear>:
lcd_clear():
D:\A_Dual1\Dual-core_Communication_Demo\Dual-core_Communication_Demo\SLAVE\obj/../Libraries/seekfree_peripheral/SEEKFREE_18TFT.c:132
//  @return     void
//  @since      v1.0
//  Sample usage:               lcd_clear(YELLOW);// 
//-------------------------------------------------------------------------------------------------------------------
void lcd_clear(uint16 color)
{
    2724:	7179                	addi	sp,sp,-48
    2726:	d606                	sw	ra,44(sp)
    2728:	d422                	sw	s0,40(sp)
    272a:	1800                	addi	s0,sp,48
    272c:	87aa                	mv	a5,a0
    272e:	fcf41f23          	sh	a5,-34(s0)
D:\A_Dual1\Dual-core_Communication_Demo\Dual-core_Communication_Demo\SLAVE\obj/../Libraries/seekfree_peripheral/SEEKFREE_18TFT.c:134
    uint8 i,j;
    lcd_set_region(0,0,TFT_X_MAX-1,TFT_Y_MAX-1);
    2732:	07f00693          	li	a3,127
    2736:	09f00613          	li	a2,159
    273a:	4581                	li	a1,0
    273c:	4501                	li	a0,0
    273e:	35c9                	jal	2600 <lcd_set_region>
D:\A_Dual1\Dual-core_Communication_Demo\Dual-core_Communication_Demo\SLAVE\obj/../Libraries/seekfree_peripheral/SEEKFREE_18TFT.c:135
    for (i=0;i<TFT_Y_MAX;i++)
    2740:	fe0407a3          	sb	zero,-17(s0)
    2744:	a805                	j	2774 <lcd_clear+0x50>
D:\A_Dual1\Dual-core_Communication_Demo\Dual-core_Communication_Demo\SLAVE\obj/../Libraries/seekfree_peripheral/SEEKFREE_18TFT.c:136
        for (j=0;j<TFT_X_MAX;j++)
    2746:	fe040723          	sb	zero,-18(s0)
    274a:	a811                	j	275e <lcd_clear+0x3a>
D:\A_Dual1\Dual-core_Communication_Demo\Dual-core_Communication_Demo\SLAVE\obj/../Libraries/seekfree_peripheral/SEEKFREE_18TFT.c:137 (discriminator 3)
            lcd_writedata_16bit(color);
    274c:	fde45783          	lhu	a5,-34(s0)
    2750:	853e                	mv	a0,a5
    2752:	3d2d                	jal	258c <lcd_writedata_16bit>
D:\A_Dual1\Dual-core_Communication_Demo\Dual-core_Communication_Demo\SLAVE\obj/../Libraries/seekfree_peripheral/SEEKFREE_18TFT.c:136 (discriminator 3)
        for (j=0;j<TFT_X_MAX;j++)
    2754:	fee44783          	lbu	a5,-18(s0)
    2758:	0785                	addi	a5,a5,1
    275a:	fef40723          	sb	a5,-18(s0)
D:\A_Dual1\Dual-core_Communication_Demo\Dual-core_Communication_Demo\SLAVE\obj/../Libraries/seekfree_peripheral/SEEKFREE_18TFT.c:136 (discriminator 1)
    275e:	fee44703          	lbu	a4,-18(s0)
    2762:	09f00793          	li	a5,159
    2766:	fee7f3e3          	bgeu	a5,a4,274c <lcd_clear+0x28>
D:\A_Dual1\Dual-core_Communication_Demo\Dual-core_Communication_Demo\SLAVE\obj/../Libraries/seekfree_peripheral/SEEKFREE_18TFT.c:135 (discriminator 2)
    for (i=0;i<TFT_Y_MAX;i++)
    276a:	fef44783          	lbu	a5,-17(s0)
    276e:	0785                	addi	a5,a5,1
    2770:	fef407a3          	sb	a5,-17(s0)
D:\A_Dual1\Dual-core_Communication_Demo\Dual-core_Communication_Demo\SLAVE\obj/../Libraries/seekfree_peripheral/SEEKFREE_18TFT.c:135 (discriminator 1)
    2774:	fef40783          	lb	a5,-17(s0)
    2778:	fc07d7e3          	bgez	a5,2746 <lcd_clear+0x22>
D:\A_Dual1\Dual-core_Communication_Demo\Dual-core_Communication_Demo\SLAVE\obj/../Libraries/seekfree_peripheral/SEEKFREE_18TFT.c:138
}
    277c:	0001                	nop
    277e:	50b2                	lw	ra,44(sp)
    2780:	5422                	lw	s0,40(sp)
    2782:	6145                	addi	sp,sp,48
    2784:	8082                	ret

00002786 <lcd_init>:
lcd_init():
D:\A_Dual1\Dual-core_Communication_Demo\Dual-core_Communication_Demo\SLAVE\obj/../Libraries/seekfree_peripheral/SEEKFREE_18TFT.c:148
//  @return     void
//  @since      v1.0
//  Sample usage:               
//-------------------------------------------------------------------------------------------------------------------
void lcd_init(void)
{
    2786:	1101                	addi	sp,sp,-32
    2788:	ce06                	sw	ra,28(sp)
    278a:	cc22                	sw	s0,24(sp)
    278c:	ca4a                	sw	s2,20(sp)
    278e:	c84e                	sw	s3,16(sp)
    2790:	c652                	sw	s4,12(sp)
    2792:	c456                	sw	s5,8(sp)
    2794:	c25a                	sw	s6,4(sp)
    2796:	c05e                	sw	s7,0(sp)
    2798:	1000                	addi	s0,sp,32
D:\A_Dual1\Dual-core_Communication_Demo\Dual-core_Communication_Demo\SLAVE\obj/../Libraries/seekfree_peripheral/SEEKFREE_18TFT.c:149
    spi_init(TFT_SPIN, TFT_SCL, TFT_SDA, TFT_SDA_IN, TFT_CS_PIN, 0, FPCLK_DIV_2);//SPI
    279a:	4801                	li	a6,0
    279c:	4781                	li	a5,0
    279e:	04f00713          	li	a4,79
    27a2:	02300693          	li	a3,35
    27a6:	4605                	li	a2,1
    27a8:	4581                	li	a1,0
    27aa:	4501                	li	a0,0
    27ac:	065010ef          	jal	ra,4010 <spi_init>
D:\A_Dual1\Dual-core_Communication_Demo\Dual-core_Communication_Demo\SLAVE\obj/../Libraries/seekfree_peripheral/SEEKFREE_18TFT.c:151
    
    gpio_init(TFT_CS_PIN, GPO, 1, GPIO_PIN_CONFIG);
    27b0:	31000693          	li	a3,784
    27b4:	4605                	li	a2,1
    27b6:	4585                	li	a1,1
    27b8:	04f00513          	li	a0,79
    27bc:	67b000ef          	jal	ra,3636 <gpio_init>
D:\A_Dual1\Dual-core_Communication_Demo\Dual-core_Communication_Demo\SLAVE\obj/../Libraries/seekfree_peripheral/SEEKFREE_18TFT.c:152
    gpio_init(TFT_REST_PIN, GPO, 0, GPIO_PIN_CONFIG);
    27c0:	31000693          	li	a3,784
    27c4:	4601                	li	a2,0
    27c6:	4585                	li	a1,1
    27c8:	04d00513          	li	a0,77
    27cc:	66b000ef          	jal	ra,3636 <gpio_init>
D:\A_Dual1\Dual-core_Communication_Demo\Dual-core_Communication_Demo\SLAVE\obj/../Libraries/seekfree_peripheral/SEEKFREE_18TFT.c:153
    gpio_init(TFT_DC_PIN, GPO, 0, GPIO_PIN_CONFIG);
    27d0:	31000693          	li	a3,784
    27d4:	4601                	li	a2,0
    27d6:	4585                	li	a1,1
    27d8:	04e00513          	li	a0,78
    27dc:	65b000ef          	jal	ra,3636 <gpio_init>
D:\A_Dual1\Dual-core_Communication_Demo\Dual-core_Communication_Demo\SLAVE\obj/../Libraries/seekfree_peripheral/SEEKFREE_18TFT.c:155
    
    TFT_REST(0);
    27e0:	67a9                	lui	a5,0xa
    27e2:	d4c78793          	addi	a5,a5,-692 # 9d4c <GPION>
    27e6:	479c                	lw	a5,8(a5)
    27e8:	873e                	mv	a4,a5
    27ea:	6789                	lui	a5,0x2
    27ec:	cb5c                	sw	a5,20(a4)
D:\A_Dual1\Dual-core_Communication_Demo\Dual-core_Communication_Demo\SLAVE\obj/../Libraries/seekfree_peripheral/SEEKFREE_18TFT.c:156
    systick_delay_ms(10);
    27ee:	8381a703          	lw	a4,-1992(gp) # 20000150 <sys_clk>
    27f2:	6789                	lui	a5,0x2
    27f4:	f4078793          	addi	a5,a5,-192 # 1f40 <TIM_GetITStatus+0x16>
    27f8:	02f75733          	divu	a4,a4,a5
    27fc:	87ba                	mv	a5,a4
    27fe:	078a                	slli	a5,a5,0x2
    2800:	97ba                	add	a5,a5,a4
    2802:	0786                	slli	a5,a5,0x1
    2804:	8b3e                	mv	s6,a5
    2806:	4b81                	li	s7,0
    2808:	855a                	mv	a0,s6
    280a:	85de                	mv	a1,s7
    280c:	1fd010ef          	jal	ra,4208 <systick_delay>
D:\A_Dual1\Dual-core_Communication_Demo\Dual-core_Communication_Demo\SLAVE\obj/../Libraries/seekfree_peripheral/SEEKFREE_18TFT.c:157
    TFT_REST(1);
    2810:	67a9                	lui	a5,0xa
    2812:	d4c78793          	addi	a5,a5,-692 # 9d4c <GPION>
    2816:	479c                	lw	a5,8(a5)
    2818:	873e                	mv	a4,a5
    281a:	6789                	lui	a5,0x2
    281c:	cb1c                	sw	a5,16(a4)
D:\A_Dual1\Dual-core_Communication_Demo\Dual-core_Communication_Demo\SLAVE\obj/../Libraries/seekfree_peripheral/SEEKFREE_18TFT.c:158
    systick_delay_ms(120);
    281e:	8381a703          	lw	a4,-1992(gp) # 20000150 <sys_clk>
    2822:	6789                	lui	a5,0x2
    2824:	f4078793          	addi	a5,a5,-192 # 1f40 <TIM_GetITStatus+0x16>
    2828:	02f75733          	divu	a4,a4,a5
    282c:	87ba                	mv	a5,a4
    282e:	0792                	slli	a5,a5,0x4
    2830:	8f99                	sub	a5,a5,a4
    2832:	078e                	slli	a5,a5,0x3
    2834:	8a3e                	mv	s4,a5
    2836:	4a81                	li	s5,0
    2838:	8552                	mv	a0,s4
    283a:	85d6                	mv	a1,s5
    283c:	1cd010ef          	jal	ra,4208 <systick_delay>
D:\A_Dual1\Dual-core_Communication_Demo\Dual-core_Communication_Demo\SLAVE\obj/../Libraries/seekfree_peripheral/SEEKFREE_18TFT.c:159
    lcd_writeIndex(0x11);
    2840:	4545                	li	a0,17
    2842:	314d                	jal	24e4 <lcd_writeIndex>
D:\A_Dual1\Dual-core_Communication_Demo\Dual-core_Communication_Demo\SLAVE\obj/../Libraries/seekfree_peripheral/SEEKFREE_18TFT.c:160
    systick_delay_ms(120);
    2844:	8381a703          	lw	a4,-1992(gp) # 20000150 <sys_clk>
    2848:	6789                	lui	a5,0x2
    284a:	f4078793          	addi	a5,a5,-192 # 1f40 <TIM_GetITStatus+0x16>
    284e:	02f75733          	divu	a4,a4,a5
    2852:	87ba                	mv	a5,a4
    2854:	0792                	slli	a5,a5,0x4
    2856:	8f99                	sub	a5,a5,a4
    2858:	078e                	slli	a5,a5,0x3
    285a:	893e                	mv	s2,a5
    285c:	4981                	li	s3,0
    285e:	854a                	mv	a0,s2
    2860:	85ce                	mv	a1,s3
    2862:	1a7010ef          	jal	ra,4208 <systick_delay>
D:\A_Dual1\Dual-core_Communication_Demo\Dual-core_Communication_Demo\SLAVE\obj/../Libraries/seekfree_peripheral/SEEKFREE_18TFT.c:162

    lcd_writeIndex(0xB1); 
    2866:	0b100513          	li	a0,177
    286a:	39ad                	jal	24e4 <lcd_writeIndex>
D:\A_Dual1\Dual-core_Communication_Demo\Dual-core_Communication_Demo\SLAVE\obj/../Libraries/seekfree_peripheral/SEEKFREE_18TFT.c:163
    lcd_writeData(0x01); 
    286c:	4505                	li	a0,1
    286e:	31e1                	jal	2536 <lcd_writeData>
D:\A_Dual1\Dual-core_Communication_Demo\Dual-core_Communication_Demo\SLAVE\obj/../Libraries/seekfree_peripheral/SEEKFREE_18TFT.c:164
    lcd_writeData(0x2C); 
    2870:	02c00513          	li	a0,44
    2874:	31c9                	jal	2536 <lcd_writeData>
D:\A_Dual1\Dual-core_Communication_Demo\Dual-core_Communication_Demo\SLAVE\obj/../Libraries/seekfree_peripheral/SEEKFREE_18TFT.c:165
    lcd_writeData(0x2D); 
    2876:	02d00513          	li	a0,45
    287a:	3975                	jal	2536 <lcd_writeData>
D:\A_Dual1\Dual-core_Communication_Demo\Dual-core_Communication_Demo\SLAVE\obj/../Libraries/seekfree_peripheral/SEEKFREE_18TFT.c:167
    
    lcd_writeIndex(0xB2); 
    287c:	0b200513          	li	a0,178
    2880:	3195                	jal	24e4 <lcd_writeIndex>
D:\A_Dual1\Dual-core_Communication_Demo\Dual-core_Communication_Demo\SLAVE\obj/../Libraries/seekfree_peripheral/SEEKFREE_18TFT.c:168
    lcd_writeData(0x01); 
    2882:	4505                	li	a0,1
    2884:	394d                	jal	2536 <lcd_writeData>
D:\A_Dual1\Dual-core_Communication_Demo\Dual-core_Communication_Demo\SLAVE\obj/../Libraries/seekfree_peripheral/SEEKFREE_18TFT.c:169
    lcd_writeData(0x2C); 
    2886:	02c00513          	li	a0,44
    288a:	3175                	jal	2536 <lcd_writeData>
D:\A_Dual1\Dual-core_Communication_Demo\Dual-core_Communication_Demo\SLAVE\obj/../Libraries/seekfree_peripheral/SEEKFREE_18TFT.c:170
    lcd_writeData(0x2D); 
    288c:	02d00513          	li	a0,45
    2890:	315d                	jal	2536 <lcd_writeData>
D:\A_Dual1\Dual-core_Communication_Demo\Dual-core_Communication_Demo\SLAVE\obj/../Libraries/seekfree_peripheral/SEEKFREE_18TFT.c:172
    
    lcd_writeIndex(0xB3); 
    2892:	0b300513          	li	a0,179
    2896:	31b9                	jal	24e4 <lcd_writeIndex>
D:\A_Dual1\Dual-core_Communication_Demo\Dual-core_Communication_Demo\SLAVE\obj/../Libraries/seekfree_peripheral/SEEKFREE_18TFT.c:173
    lcd_writeData(0x01); 
    2898:	4505                	li	a0,1
    289a:	3971                	jal	2536 <lcd_writeData>
D:\A_Dual1\Dual-core_Communication_Demo\Dual-core_Communication_Demo\SLAVE\obj/../Libraries/seekfree_peripheral/SEEKFREE_18TFT.c:174
    lcd_writeData(0x2C); 
    289c:	02c00513          	li	a0,44
    28a0:	3959                	jal	2536 <lcd_writeData>
D:\A_Dual1\Dual-core_Communication_Demo\Dual-core_Communication_Demo\SLAVE\obj/../Libraries/seekfree_peripheral/SEEKFREE_18TFT.c:175
    lcd_writeData(0x2D); 
    28a2:	02d00513          	li	a0,45
    28a6:	3941                	jal	2536 <lcd_writeData>
D:\A_Dual1\Dual-core_Communication_Demo\Dual-core_Communication_Demo\SLAVE\obj/../Libraries/seekfree_peripheral/SEEKFREE_18TFT.c:176
    lcd_writeData(0x01); 
    28a8:	4505                	li	a0,1
    28aa:	3171                	jal	2536 <lcd_writeData>
D:\A_Dual1\Dual-core_Communication_Demo\Dual-core_Communication_Demo\SLAVE\obj/../Libraries/seekfree_peripheral/SEEKFREE_18TFT.c:177
    lcd_writeData(0x2C); 
    28ac:	02c00513          	li	a0,44
    28b0:	3159                	jal	2536 <lcd_writeData>
D:\A_Dual1\Dual-core_Communication_Demo\Dual-core_Communication_Demo\SLAVE\obj/../Libraries/seekfree_peripheral/SEEKFREE_18TFT.c:178
    lcd_writeData(0x2D); 
    28b2:	02d00513          	li	a0,45
    28b6:	3141                	jal	2536 <lcd_writeData>
D:\A_Dual1\Dual-core_Communication_Demo\Dual-core_Communication_Demo\SLAVE\obj/../Libraries/seekfree_peripheral/SEEKFREE_18TFT.c:180
    
    lcd_writeIndex(0xB4);
    28b8:	0b400513          	li	a0,180
    28bc:	3125                	jal	24e4 <lcd_writeIndex>
D:\A_Dual1\Dual-core_Communication_Demo\Dual-core_Communication_Demo\SLAVE\obj/../Libraries/seekfree_peripheral/SEEKFREE_18TFT.c:181
    lcd_writeData(0x07); 
    28be:	451d                	li	a0,7
    28c0:	399d                	jal	2536 <lcd_writeData>
D:\A_Dual1\Dual-core_Communication_Demo\Dual-core_Communication_Demo\SLAVE\obj/../Libraries/seekfree_peripheral/SEEKFREE_18TFT.c:183

    lcd_writeIndex(0xC0); 
    28c2:	0c000513          	li	a0,192
    28c6:	3939                	jal	24e4 <lcd_writeIndex>
D:\A_Dual1\Dual-core_Communication_Demo\Dual-core_Communication_Demo\SLAVE\obj/../Libraries/seekfree_peripheral/SEEKFREE_18TFT.c:184
    lcd_writeData(0xA2); 
    28c8:	0a200513          	li	a0,162
    28cc:	31ad                	jal	2536 <lcd_writeData>
D:\A_Dual1\Dual-core_Communication_Demo\Dual-core_Communication_Demo\SLAVE\obj/../Libraries/seekfree_peripheral/SEEKFREE_18TFT.c:185
    lcd_writeData(0x02); 
    28ce:	4509                	li	a0,2
    28d0:	319d                	jal	2536 <lcd_writeData>
D:\A_Dual1\Dual-core_Communication_Demo\Dual-core_Communication_Demo\SLAVE\obj/../Libraries/seekfree_peripheral/SEEKFREE_18TFT.c:186
    lcd_writeData(0x84); 
    28d2:	08400513          	li	a0,132
    28d6:	3185                	jal	2536 <lcd_writeData>
D:\A_Dual1\Dual-core_Communication_Demo\Dual-core_Communication_Demo\SLAVE\obj/../Libraries/seekfree_peripheral/SEEKFREE_18TFT.c:187
    lcd_writeIndex(0xC1); 
    28d8:	0c100513          	li	a0,193
    28dc:	3121                	jal	24e4 <lcd_writeIndex>
D:\A_Dual1\Dual-core_Communication_Demo\Dual-core_Communication_Demo\SLAVE\obj/../Libraries/seekfree_peripheral/SEEKFREE_18TFT.c:188
    lcd_writeData(0xC5); 
    28de:	0c500513          	li	a0,197
    28e2:	3991                	jal	2536 <lcd_writeData>
D:\A_Dual1\Dual-core_Communication_Demo\Dual-core_Communication_Demo\SLAVE\obj/../Libraries/seekfree_peripheral/SEEKFREE_18TFT.c:190
    
    lcd_writeIndex(0xC2); 
    28e4:	0c200513          	li	a0,194
    28e8:	3ef5                	jal	24e4 <lcd_writeIndex>
D:\A_Dual1\Dual-core_Communication_Demo\Dual-core_Communication_Demo\SLAVE\obj/../Libraries/seekfree_peripheral/SEEKFREE_18TFT.c:191
    lcd_writeData(0x0A); 
    28ea:	4529                	li	a0,10
    28ec:	31a9                	jal	2536 <lcd_writeData>
D:\A_Dual1\Dual-core_Communication_Demo\Dual-core_Communication_Demo\SLAVE\obj/../Libraries/seekfree_peripheral/SEEKFREE_18TFT.c:192
    lcd_writeData(0x00); 
    28ee:	4501                	li	a0,0
    28f0:	3199                	jal	2536 <lcd_writeData>
D:\A_Dual1\Dual-core_Communication_Demo\Dual-core_Communication_Demo\SLAVE\obj/../Libraries/seekfree_peripheral/SEEKFREE_18TFT.c:194
    
    lcd_writeIndex(0xC3); 
    28f2:	0c300513          	li	a0,195
    28f6:	36fd                	jal	24e4 <lcd_writeIndex>
D:\A_Dual1\Dual-core_Communication_Demo\Dual-core_Communication_Demo\SLAVE\obj/../Libraries/seekfree_peripheral/SEEKFREE_18TFT.c:195
    lcd_writeData(0x8A); 
    28f8:	08a00513          	li	a0,138
    28fc:	392d                	jal	2536 <lcd_writeData>
D:\A_Dual1\Dual-core_Communication_Demo\Dual-core_Communication_Demo\SLAVE\obj/../Libraries/seekfree_peripheral/SEEKFREE_18TFT.c:196
    lcd_writeData(0x2A); 
    28fe:	02a00513          	li	a0,42
    2902:	3915                	jal	2536 <lcd_writeData>
D:\A_Dual1\Dual-core_Communication_Demo\Dual-core_Communication_Demo\SLAVE\obj/../Libraries/seekfree_peripheral/SEEKFREE_18TFT.c:197
    lcd_writeIndex(0xC4); 
    2904:	0c400513          	li	a0,196
    2908:	3ef1                	jal	24e4 <lcd_writeIndex>
D:\A_Dual1\Dual-core_Communication_Demo\Dual-core_Communication_Demo\SLAVE\obj/../Libraries/seekfree_peripheral/SEEKFREE_18TFT.c:198
    lcd_writeData(0x8A); 
    290a:	08a00513          	li	a0,138
    290e:	3125                	jal	2536 <lcd_writeData>
D:\A_Dual1\Dual-core_Communication_Demo\Dual-core_Communication_Demo\SLAVE\obj/../Libraries/seekfree_peripheral/SEEKFREE_18TFT.c:199
    lcd_writeData(0xEE); 
    2910:	0ee00513          	li	a0,238
    2914:	310d                	jal	2536 <lcd_writeData>
D:\A_Dual1\Dual-core_Communication_Demo\Dual-core_Communication_Demo\SLAVE\obj/../Libraries/seekfree_peripheral/SEEKFREE_18TFT.c:201
    
    lcd_writeIndex(0xC5);
    2916:	0c500513          	li	a0,197
    291a:	36e9                	jal	24e4 <lcd_writeIndex>
D:\A_Dual1\Dual-core_Communication_Demo\Dual-core_Communication_Demo\SLAVE\obj/../Libraries/seekfree_peripheral/SEEKFREE_18TFT.c:202
    lcd_writeData(0x0E); 
    291c:	4539                	li	a0,14
    291e:	3921                	jal	2536 <lcd_writeData>
D:\A_Dual1\Dual-core_Communication_Demo\Dual-core_Communication_Demo\SLAVE\obj/../Libraries/seekfree_peripheral/SEEKFREE_18TFT.c:204
    
    lcd_writeIndex(0x36);
    2920:	03600513          	li	a0,54
    2924:	36c1                	jal	24e4 <lcd_writeIndex>
D:\A_Dual1\Dual-core_Communication_Demo\Dual-core_Communication_Demo\SLAVE\obj/../Libraries/seekfree_peripheral/SEEKFREE_18TFT.c:210
    switch(TFT_DISPLAY_DIR)//y x v
    {
        case 0: lcd_writeData(1<<7 | 1<<6 | 0<<5);  break;  //
        case 1: lcd_writeData(0<<7 | 0<<6 | 0<<5);  break;  //  180
        case 2: lcd_writeData(1<<7 | 0<<6 | 1<<5);  break;  //
        case 3: lcd_writeData(0<<7 | 1<<6 | 1<<5);  break;  //  180
    2926:	06000513          	li	a0,96
    292a:	3131                	jal	2536 <lcd_writeData>
    292c:	0001                	nop
D:\A_Dual1\Dual-core_Communication_Demo\Dual-core_Communication_Demo\SLAVE\obj/../Libraries/seekfree_peripheral/SEEKFREE_18TFT.c:213
    }

    lcd_writeIndex(0xe0); 
    292e:	0e000513          	li	a0,224
    2932:	3e4d                	jal	24e4 <lcd_writeIndex>
D:\A_Dual1\Dual-core_Communication_Demo\Dual-core_Communication_Demo\SLAVE\obj/../Libraries/seekfree_peripheral/SEEKFREE_18TFT.c:214
    lcd_writeData(0x0f); 
    2934:	453d                	li	a0,15
    2936:	3101                	jal	2536 <lcd_writeData>
D:\A_Dual1\Dual-core_Communication_Demo\Dual-core_Communication_Demo\SLAVE\obj/../Libraries/seekfree_peripheral/SEEKFREE_18TFT.c:215
    lcd_writeData(0x1a); 
    2938:	4569                	li	a0,26
    293a:	3ef5                	jal	2536 <lcd_writeData>
D:\A_Dual1\Dual-core_Communication_Demo\Dual-core_Communication_Demo\SLAVE\obj/../Libraries/seekfree_peripheral/SEEKFREE_18TFT.c:216
    lcd_writeData(0x0f); 
    293c:	453d                	li	a0,15
    293e:	3ee5                	jal	2536 <lcd_writeData>
D:\A_Dual1\Dual-core_Communication_Demo\Dual-core_Communication_Demo\SLAVE\obj/../Libraries/seekfree_peripheral/SEEKFREE_18TFT.c:217
    lcd_writeData(0x18); 
    2940:	4561                	li	a0,24
    2942:	3ed5                	jal	2536 <lcd_writeData>
D:\A_Dual1\Dual-core_Communication_Demo\Dual-core_Communication_Demo\SLAVE\obj/../Libraries/seekfree_peripheral/SEEKFREE_18TFT.c:218
    lcd_writeData(0x2f); 
    2944:	02f00513          	li	a0,47
    2948:	36fd                	jal	2536 <lcd_writeData>
D:\A_Dual1\Dual-core_Communication_Demo\Dual-core_Communication_Demo\SLAVE\obj/../Libraries/seekfree_peripheral/SEEKFREE_18TFT.c:219
    lcd_writeData(0x28); 
    294a:	02800513          	li	a0,40
    294e:	36e5                	jal	2536 <lcd_writeData>
D:\A_Dual1\Dual-core_Communication_Demo\Dual-core_Communication_Demo\SLAVE\obj/../Libraries/seekfree_peripheral/SEEKFREE_18TFT.c:220
    lcd_writeData(0x20); 
    2950:	02000513          	li	a0,32
    2954:	36cd                	jal	2536 <lcd_writeData>
D:\A_Dual1\Dual-core_Communication_Demo\Dual-core_Communication_Demo\SLAVE\obj/../Libraries/seekfree_peripheral/SEEKFREE_18TFT.c:221
    lcd_writeData(0x22); 
    2956:	02200513          	li	a0,34
    295a:	3ef1                	jal	2536 <lcd_writeData>
D:\A_Dual1\Dual-core_Communication_Demo\Dual-core_Communication_Demo\SLAVE\obj/../Libraries/seekfree_peripheral/SEEKFREE_18TFT.c:222
    lcd_writeData(0x1f); 
    295c:	457d                	li	a0,31
    295e:	3ee1                	jal	2536 <lcd_writeData>
D:\A_Dual1\Dual-core_Communication_Demo\Dual-core_Communication_Demo\SLAVE\obj/../Libraries/seekfree_peripheral/SEEKFREE_18TFT.c:223
    lcd_writeData(0x1b); 
    2960:	456d                	li	a0,27
    2962:	3ed1                	jal	2536 <lcd_writeData>
D:\A_Dual1\Dual-core_Communication_Demo\Dual-core_Communication_Demo\SLAVE\obj/../Libraries/seekfree_peripheral/SEEKFREE_18TFT.c:224
    lcd_writeData(0x23); 
    2964:	02300513          	li	a0,35
    2968:	36f9                	jal	2536 <lcd_writeData>
D:\A_Dual1\Dual-core_Communication_Demo\Dual-core_Communication_Demo\SLAVE\obj/../Libraries/seekfree_peripheral/SEEKFREE_18TFT.c:225
    lcd_writeData(0x37); 
    296a:	03700513          	li	a0,55
    296e:	36e1                	jal	2536 <lcd_writeData>
D:\A_Dual1\Dual-core_Communication_Demo\Dual-core_Communication_Demo\SLAVE\obj/../Libraries/seekfree_peripheral/SEEKFREE_18TFT.c:226
    lcd_writeData(0x00);
    2970:	4501                	li	a0,0
    2972:	36d1                	jal	2536 <lcd_writeData>
D:\A_Dual1\Dual-core_Communication_Demo\Dual-core_Communication_Demo\SLAVE\obj/../Libraries/seekfree_peripheral/SEEKFREE_18TFT.c:227
    lcd_writeData(0x07); 
    2974:	451d                	li	a0,7
    2976:	36c1                	jal	2536 <lcd_writeData>
D:\A_Dual1\Dual-core_Communication_Demo\Dual-core_Communication_Demo\SLAVE\obj/../Libraries/seekfree_peripheral/SEEKFREE_18TFT.c:228
    lcd_writeData(0x02); 
    2978:	4509                	li	a0,2
    297a:	3e75                	jal	2536 <lcd_writeData>
D:\A_Dual1\Dual-core_Communication_Demo\Dual-core_Communication_Demo\SLAVE\obj/../Libraries/seekfree_peripheral/SEEKFREE_18TFT.c:229
    lcd_writeData(0x10); 
    297c:	4541                	li	a0,16
    297e:	3e65                	jal	2536 <lcd_writeData>
D:\A_Dual1\Dual-core_Communication_Demo\Dual-core_Communication_Demo\SLAVE\obj/../Libraries/seekfree_peripheral/SEEKFREE_18TFT.c:231
    
    lcd_writeIndex(0xe1); 
    2980:	0e100513          	li	a0,225
    2984:	3685                	jal	24e4 <lcd_writeIndex>
D:\A_Dual1\Dual-core_Communication_Demo\Dual-core_Communication_Demo\SLAVE\obj/../Libraries/seekfree_peripheral/SEEKFREE_18TFT.c:232
    lcd_writeData(0x0f); 
    2986:	453d                	li	a0,15
    2988:	367d                	jal	2536 <lcd_writeData>
D:\A_Dual1\Dual-core_Communication_Demo\Dual-core_Communication_Demo\SLAVE\obj/../Libraries/seekfree_peripheral/SEEKFREE_18TFT.c:233
    lcd_writeData(0x1b); 
    298a:	456d                	li	a0,27
    298c:	366d                	jal	2536 <lcd_writeData>
D:\A_Dual1\Dual-core_Communication_Demo\Dual-core_Communication_Demo\SLAVE\obj/../Libraries/seekfree_peripheral/SEEKFREE_18TFT.c:234
    lcd_writeData(0x0f); 
    298e:	453d                	li	a0,15
    2990:	365d                	jal	2536 <lcd_writeData>
D:\A_Dual1\Dual-core_Communication_Demo\Dual-core_Communication_Demo\SLAVE\obj/../Libraries/seekfree_peripheral/SEEKFREE_18TFT.c:235
    lcd_writeData(0x17); 
    2992:	455d                	li	a0,23
    2994:	364d                	jal	2536 <lcd_writeData>
D:\A_Dual1\Dual-core_Communication_Demo\Dual-core_Communication_Demo\SLAVE\obj/../Libraries/seekfree_peripheral/SEEKFREE_18TFT.c:236
    lcd_writeData(0x33); 
    2996:	03300513          	li	a0,51
    299a:	3e71                	jal	2536 <lcd_writeData>
D:\A_Dual1\Dual-core_Communication_Demo\Dual-core_Communication_Demo\SLAVE\obj/../Libraries/seekfree_peripheral/SEEKFREE_18TFT.c:237
    lcd_writeData(0x2c); 
    299c:	02c00513          	li	a0,44
    29a0:	3e59                	jal	2536 <lcd_writeData>
D:\A_Dual1\Dual-core_Communication_Demo\Dual-core_Communication_Demo\SLAVE\obj/../Libraries/seekfree_peripheral/SEEKFREE_18TFT.c:238
    lcd_writeData(0x29); 
    29a2:	02900513          	li	a0,41
    29a6:	3e41                	jal	2536 <lcd_writeData>
D:\A_Dual1\Dual-core_Communication_Demo\Dual-core_Communication_Demo\SLAVE\obj/../Libraries/seekfree_peripheral/SEEKFREE_18TFT.c:239
    lcd_writeData(0x2e); 
    29a8:	02e00513          	li	a0,46
    29ac:	3669                	jal	2536 <lcd_writeData>
D:\A_Dual1\Dual-core_Communication_Demo\Dual-core_Communication_Demo\SLAVE\obj/../Libraries/seekfree_peripheral/SEEKFREE_18TFT.c:240
    lcd_writeData(0x30); 
    29ae:	03000513          	li	a0,48
    29b2:	3651                	jal	2536 <lcd_writeData>
D:\A_Dual1\Dual-core_Communication_Demo\Dual-core_Communication_Demo\SLAVE\obj/../Libraries/seekfree_peripheral/SEEKFREE_18TFT.c:241
    lcd_writeData(0x30); 
    29b4:	03000513          	li	a0,48
    29b8:	3ebd                	jal	2536 <lcd_writeData>
D:\A_Dual1\Dual-core_Communication_Demo\Dual-core_Communication_Demo\SLAVE\obj/../Libraries/seekfree_peripheral/SEEKFREE_18TFT.c:242
    lcd_writeData(0x39); 
    29ba:	03900513          	li	a0,57
    29be:	3ea5                	jal	2536 <lcd_writeData>
D:\A_Dual1\Dual-core_Communication_Demo\Dual-core_Communication_Demo\SLAVE\obj/../Libraries/seekfree_peripheral/SEEKFREE_18TFT.c:243
    lcd_writeData(0x3f); 
    29c0:	03f00513          	li	a0,63
    29c4:	3e8d                	jal	2536 <lcd_writeData>
D:\A_Dual1\Dual-core_Communication_Demo\Dual-core_Communication_Demo\SLAVE\obj/../Libraries/seekfree_peripheral/SEEKFREE_18TFT.c:244
    lcd_writeData(0x00); 
    29c6:	4501                	li	a0,0
    29c8:	36bd                	jal	2536 <lcd_writeData>
D:\A_Dual1\Dual-core_Communication_Demo\Dual-core_Communication_Demo\SLAVE\obj/../Libraries/seekfree_peripheral/SEEKFREE_18TFT.c:245
    lcd_writeData(0x07); 
    29ca:	451d                	li	a0,7
    29cc:	36ad                	jal	2536 <lcd_writeData>
D:\A_Dual1\Dual-core_Communication_Demo\Dual-core_Communication_Demo\SLAVE\obj/../Libraries/seekfree_peripheral/SEEKFREE_18TFT.c:246
    lcd_writeData(0x03); 
    29ce:	450d                	li	a0,3
    29d0:	369d                	jal	2536 <lcd_writeData>
D:\A_Dual1\Dual-core_Communication_Demo\Dual-core_Communication_Demo\SLAVE\obj/../Libraries/seekfree_peripheral/SEEKFREE_18TFT.c:247
    lcd_writeData(0x10);  
    29d2:	4541                	li	a0,16
    29d4:	368d                	jal	2536 <lcd_writeData>
D:\A_Dual1\Dual-core_Communication_Demo\Dual-core_Communication_Demo\SLAVE\obj/../Libraries/seekfree_peripheral/SEEKFREE_18TFT.c:249
    
    lcd_writeIndex(0x2a);
    29d6:	02a00513          	li	a0,42
    29da:	3629                	jal	24e4 <lcd_writeIndex>
D:\A_Dual1\Dual-core_Communication_Demo\Dual-core_Communication_Demo\SLAVE\obj/../Libraries/seekfree_peripheral/SEEKFREE_18TFT.c:250
    lcd_writeData(0x00);
    29dc:	4501                	li	a0,0
    29de:	3ea1                	jal	2536 <lcd_writeData>
D:\A_Dual1\Dual-core_Communication_Demo\Dual-core_Communication_Demo\SLAVE\obj/../Libraries/seekfree_peripheral/SEEKFREE_18TFT.c:251
    lcd_writeData(0x00+2);
    29e0:	4509                	li	a0,2
    29e2:	3e91                	jal	2536 <lcd_writeData>
D:\A_Dual1\Dual-core_Communication_Demo\Dual-core_Communication_Demo\SLAVE\obj/../Libraries/seekfree_peripheral/SEEKFREE_18TFT.c:252
    lcd_writeData(0x00);
    29e4:	4501                	li	a0,0
    29e6:	3e81                	jal	2536 <lcd_writeData>
D:\A_Dual1\Dual-core_Communication_Demo\Dual-core_Communication_Demo\SLAVE\obj/../Libraries/seekfree_peripheral/SEEKFREE_18TFT.c:253
    lcd_writeData(0x80+2);
    29e8:	08200513          	li	a0,130
    29ec:	36a9                	jal	2536 <lcd_writeData>
D:\A_Dual1\Dual-core_Communication_Demo\Dual-core_Communication_Demo\SLAVE\obj/../Libraries/seekfree_peripheral/SEEKFREE_18TFT.c:255
    
    lcd_writeIndex(0x2b);
    29ee:	02b00513          	li	a0,43
    29f2:	3ccd                	jal	24e4 <lcd_writeIndex>
D:\A_Dual1\Dual-core_Communication_Demo\Dual-core_Communication_Demo\SLAVE\obj/../Libraries/seekfree_peripheral/SEEKFREE_18TFT.c:256
    lcd_writeData(0x00);
    29f4:	4501                	li	a0,0
    29f6:	3681                	jal	2536 <lcd_writeData>
D:\A_Dual1\Dual-core_Communication_Demo\Dual-core_Communication_Demo\SLAVE\obj/../Libraries/seekfree_peripheral/SEEKFREE_18TFT.c:257
    lcd_writeData(0x00+3);
    29f8:	450d                	li	a0,3
    29fa:	3e35                	jal	2536 <lcd_writeData>
D:\A_Dual1\Dual-core_Communication_Demo\Dual-core_Communication_Demo\SLAVE\obj/../Libraries/seekfree_peripheral/SEEKFREE_18TFT.c:258
    lcd_writeData(0x00);
    29fc:	4501                	li	a0,0
    29fe:	3e25                	jal	2536 <lcd_writeData>
D:\A_Dual1\Dual-core_Communication_Demo\Dual-core_Communication_Demo\SLAVE\obj/../Libraries/seekfree_peripheral/SEEKFREE_18TFT.c:259
    lcd_writeData(0x80+3);
    2a00:	08300513          	li	a0,131
    2a04:	3e0d                	jal	2536 <lcd_writeData>
D:\A_Dual1\Dual-core_Communication_Demo\Dual-core_Communication_Demo\SLAVE\obj/../Libraries/seekfree_peripheral/SEEKFREE_18TFT.c:261
    
    lcd_writeIndex(0xF0); 
    2a06:	0f000513          	li	a0,240
    2a0a:	3ce9                	jal	24e4 <lcd_writeIndex>
D:\A_Dual1\Dual-core_Communication_Demo\Dual-core_Communication_Demo\SLAVE\obj/../Libraries/seekfree_peripheral/SEEKFREE_18TFT.c:262
    lcd_writeData(0x01); 
    2a0c:	4505                	li	a0,1
    2a0e:	3625                	jal	2536 <lcd_writeData>
D:\A_Dual1\Dual-core_Communication_Demo\Dual-core_Communication_Demo\SLAVE\obj/../Libraries/seekfree_peripheral/SEEKFREE_18TFT.c:263
    lcd_writeIndex(0xF6);
    2a10:	0f600513          	li	a0,246
    2a14:	3cc1                	jal	24e4 <lcd_writeIndex>
D:\A_Dual1\Dual-core_Communication_Demo\Dual-core_Communication_Demo\SLAVE\obj/../Libraries/seekfree_peripheral/SEEKFREE_18TFT.c:264
    lcd_writeData(0x00); 
    2a16:	4501                	li	a0,0
    2a18:	3e39                	jal	2536 <lcd_writeData>
D:\A_Dual1\Dual-core_Communication_Demo\Dual-core_Communication_Demo\SLAVE\obj/../Libraries/seekfree_peripheral/SEEKFREE_18TFT.c:266
    
    lcd_writeIndex(0x3A);
    2a1a:	03a00513          	li	a0,58
    2a1e:	34d9                	jal	24e4 <lcd_writeIndex>
D:\A_Dual1\Dual-core_Communication_Demo\Dual-core_Communication_Demo\SLAVE\obj/../Libraries/seekfree_peripheral/SEEKFREE_18TFT.c:267
    lcd_writeData(0x05); 
    2a20:	4515                	li	a0,5
    2a22:	3e11                	jal	2536 <lcd_writeData>
D:\A_Dual1\Dual-core_Communication_Demo\Dual-core_Communication_Demo\SLAVE\obj/../Libraries/seekfree_peripheral/SEEKFREE_18TFT.c:268
    lcd_writeIndex(0x29);
    2a24:	02900513          	li	a0,41
    2a28:	3c75                	jal	24e4 <lcd_writeIndex>
D:\A_Dual1\Dual-core_Communication_Demo\Dual-core_Communication_Demo\SLAVE\obj/../Libraries/seekfree_peripheral/SEEKFREE_18TFT.c:270

    lcd_clear(WHITE);//
    2a2a:	67c1                	lui	a5,0x10
    2a2c:	fff78513          	addi	a0,a5,-1 # ffff <_data_lma+0x5fe7>
    2a30:	39d5                	jal	2724 <lcd_clear>
D:\A_Dual1\Dual-core_Communication_Demo\Dual-core_Communication_Demo\SLAVE\obj/../Libraries/seekfree_peripheral/SEEKFREE_18TFT.c:271
}
    2a32:	0001                	nop
    2a34:	40f2                	lw	ra,28(sp)
    2a36:	4462                	lw	s0,24(sp)
    2a38:	4952                	lw	s2,20(sp)
    2a3a:	49c2                	lw	s3,16(sp)
    2a3c:	4a32                	lw	s4,12(sp)
    2a3e:	4aa2                	lw	s5,8(sp)
    2a40:	4b12                	lw	s6,4(sp)
    2a42:	4b82                	lw	s7,0(sp)
    2a44:	6105                	addi	sp,sp,32
    2a46:	8082                	ret

00002a48 <lcd_showchar>:
lcd_showchar():
D:\A_Dual1\Dual-core_Communication_Demo\Dual-core_Communication_Demo\SLAVE\obj/../Libraries/seekfree_peripheral/SEEKFREE_18TFT.c:301
//  @return     void
//  @since      v1.0
//  Sample usage:               lcd_showchar(0,0,'x');//0,0x
//-------------------------------------------------------------------------------------------------------------------
void lcd_showchar(uint16 x,uint16 y,const int8 dat)
{
    2a48:	7179                	addi	sp,sp,-48
    2a4a:	d606                	sw	ra,44(sp)
    2a4c:	d422                	sw	s0,40(sp)
    2a4e:	1800                	addi	s0,sp,48
    2a50:	87aa                	mv	a5,a0
    2a52:	86ae                	mv	a3,a1
    2a54:	8732                	mv	a4,a2
    2a56:	fcf41f23          	sh	a5,-34(s0)
    2a5a:	87b6                	mv	a5,a3
    2a5c:	fcf41e23          	sh	a5,-36(s0)
    2a60:	87ba                	mv	a5,a4
    2a62:	fcf40da3          	sb	a5,-37(s0)
D:\A_Dual1\Dual-core_Communication_Demo\Dual-core_Communication_Demo\SLAVE\obj/../Libraries/seekfree_peripheral/SEEKFREE_18TFT.c:305
    uint8 i,j;
    uint8 temp;
    
    for(i=0; i<16; i++)
    2a66:	fe0407a3          	sb	zero,-17(s0)
    2a6a:	a859                	j	2b00 <lcd_showchar+0xb8>
D:\A_Dual1\Dual-core_Communication_Demo\Dual-core_Communication_Demo\SLAVE\obj/../Libraries/seekfree_peripheral/SEEKFREE_18TFT.c:307
    {
        lcd_set_region(x,y+i,x+7,y+i);
    2a6c:	fde45503          	lhu	a0,-34(s0)
    2a70:	fdc45703          	lhu	a4,-36(s0)
    2a74:	fef44783          	lbu	a5,-17(s0)
    2a78:	97ba                	add	a5,a5,a4
    2a7a:	85be                	mv	a1,a5
    2a7c:	fde45783          	lhu	a5,-34(s0)
    2a80:	079d                	addi	a5,a5,7
    2a82:	863e                	mv	a2,a5
    2a84:	fdc45703          	lhu	a4,-36(s0)
    2a88:	fef44783          	lbu	a5,-17(s0)
    2a8c:	97ba                	add	a5,a5,a4
    2a8e:	86be                	mv	a3,a5
    2a90:	b71ff0ef          	jal	ra,2600 <lcd_set_region>
D:\A_Dual1\Dual-core_Communication_Demo\Dual-core_Communication_Demo\SLAVE\obj/../Libraries/seekfree_peripheral/SEEKFREE_18TFT.c:308
        temp = tft_ascii[dat-32][i];//32 ascii32
    2a94:	fdb40783          	lb	a5,-37(s0)
    2a98:	fe078693          	addi	a3,a5,-32
    2a9c:	fef44783          	lbu	a5,-17(s0)
    2aa0:	6725                	lui	a4,0x9
    2aa2:	0692                	slli	a3,a3,0x4
    2aa4:	75c70713          	addi	a4,a4,1884 # 975c <tft_ascii>
    2aa8:	9736                	add	a4,a4,a3
    2aaa:	97ba                	add	a5,a5,a4
    2aac:	0007c783          	lbu	a5,0(a5)
    2ab0:	fef406a3          	sb	a5,-19(s0)
D:\A_Dual1\Dual-core_Communication_Demo\Dual-core_Communication_Demo\SLAVE\obj/../Libraries/seekfree_peripheral/SEEKFREE_18TFT.c:309
        for(j=0; j<8; j++)
    2ab4:	fe040723          	sb	zero,-18(s0)
    2ab8:	a815                	j	2aec <lcd_showchar+0xa4>
D:\A_Dual1\Dual-core_Communication_Demo\Dual-core_Communication_Demo\SLAVE\obj/../Libraries/seekfree_peripheral/SEEKFREE_18TFT.c:311
        {
            if(temp&0x01)   lcd_writedata_16bit(TFT_PENCOLOR);
    2aba:	fed44783          	lbu	a5,-19(s0)
    2abe:	8b85                	andi	a5,a5,1
    2ac0:	c799                	beqz	a5,2ace <lcd_showchar+0x86>
D:\A_Dual1\Dual-core_Communication_Demo\Dual-core_Communication_Demo\SLAVE\obj/../Libraries/seekfree_peripheral/SEEKFREE_18TFT.c:311 (discriminator 1)
    2ac2:	67c1                	lui	a5,0x10
    2ac4:	80078513          	addi	a0,a5,-2048 # f800 <_data_lma+0x57e8>
    2ac8:	ac5ff0ef          	jal	ra,258c <lcd_writedata_16bit>
    2acc:	a031                	j	2ad8 <lcd_showchar+0x90>
D:\A_Dual1\Dual-core_Communication_Demo\Dual-core_Communication_Demo\SLAVE\obj/../Libraries/seekfree_peripheral/SEEKFREE_18TFT.c:312
            else            lcd_writedata_16bit(TFT_BGCOLOR);
    2ace:	67c1                	lui	a5,0x10
    2ad0:	fff78513          	addi	a0,a5,-1 # ffff <_data_lma+0x5fe7>
    2ad4:	ab9ff0ef          	jal	ra,258c <lcd_writedata_16bit>
D:\A_Dual1\Dual-core_Communication_Demo\Dual-core_Communication_Demo\SLAVE\obj/../Libraries/seekfree_peripheral/SEEKFREE_18TFT.c:313 (discriminator 2)
            temp>>=1;
    2ad8:	fed44783          	lbu	a5,-19(s0)
    2adc:	8385                	srli	a5,a5,0x1
    2ade:	fef406a3          	sb	a5,-19(s0)
D:\A_Dual1\Dual-core_Communication_Demo\Dual-core_Communication_Demo\SLAVE\obj/../Libraries/seekfree_peripheral/SEEKFREE_18TFT.c:309 (discriminator 2)
        for(j=0; j<8; j++)
    2ae2:	fee44783          	lbu	a5,-18(s0)
    2ae6:	0785                	addi	a5,a5,1
    2ae8:	fef40723          	sb	a5,-18(s0)
D:\A_Dual1\Dual-core_Communication_Demo\Dual-core_Communication_Demo\SLAVE\obj/../Libraries/seekfree_peripheral/SEEKFREE_18TFT.c:309 (discriminator 1)
    2aec:	fee44703          	lbu	a4,-18(s0)
    2af0:	479d                	li	a5,7
    2af2:	fce7f4e3          	bgeu	a5,a4,2aba <lcd_showchar+0x72>
D:\A_Dual1\Dual-core_Communication_Demo\Dual-core_Communication_Demo\SLAVE\obj/../Libraries/seekfree_peripheral/SEEKFREE_18TFT.c:305 (discriminator 2)
    for(i=0; i<16; i++)
    2af6:	fef44783          	lbu	a5,-17(s0)
    2afa:	0785                	addi	a5,a5,1
    2afc:	fef407a3          	sb	a5,-17(s0)
D:\A_Dual1\Dual-core_Communication_Demo\Dual-core_Communication_Demo\SLAVE\obj/../Libraries/seekfree_peripheral/SEEKFREE_18TFT.c:305 (discriminator 1)
    2b00:	fef44703          	lbu	a4,-17(s0)
    2b04:	47bd                	li	a5,15
    2b06:	f6e7f3e3          	bgeu	a5,a4,2a6c <lcd_showchar+0x24>
D:\A_Dual1\Dual-core_Communication_Demo\Dual-core_Communication_Demo\SLAVE\obj/../Libraries/seekfree_peripheral/SEEKFREE_18TFT.c:316
        }
    }
}
    2b0a:	0001                	nop
    2b0c:	50b2                	lw	ra,44(sp)
    2b0e:	5422                	lw	s0,40(sp)
    2b10:	6145                	addi	sp,sp,48
    2b12:	8082                	ret

00002b14 <lcd_showint8>:
lcd_showint8():
D:\A_Dual1\Dual-core_Communication_Demo\Dual-core_Communication_Demo\SLAVE\obj/../Libraries/seekfree_peripheral/SEEKFREE_18TFT.c:349
//  @return     void
//  @since      v1.0
//  Sample usage:               lcd_showint8(0,0,x);//xint8
//-------------------------------------------------------------------------------------------------------------------
void lcd_showint8(uint16 x,uint16 y,int8 dat)
{
    2b14:	7179                	addi	sp,sp,-48
    2b16:	d606                	sw	ra,44(sp)
    2b18:	d422                	sw	s0,40(sp)
    2b1a:	1800                	addi	s0,sp,48
    2b1c:	87aa                	mv	a5,a0
    2b1e:	86ae                	mv	a3,a1
    2b20:	8732                	mv	a4,a2
    2b22:	fcf41f23          	sh	a5,-34(s0)
    2b26:	87b6                	mv	a5,a3
    2b28:	fcf41e23          	sh	a5,-36(s0)
    2b2c:	87ba                	mv	a5,a4
    2b2e:	fcf40da3          	sb	a5,-37(s0)
D:\A_Dual1\Dual-core_Communication_Demo\Dual-core_Communication_Demo\SLAVE\obj/../Libraries/seekfree_peripheral/SEEKFREE_18TFT.c:352
    uint8 a[3];
    uint8 i;
    if(dat<0)
    2b32:	fdb40783          	lb	a5,-37(s0)
    2b36:	0207d863          	bgez	a5,2b66 <lcd_showint8+0x52>
D:\A_Dual1\Dual-core_Communication_Demo\Dual-core_Communication_Demo\SLAVE\obj/../Libraries/seekfree_peripheral/SEEKFREE_18TFT.c:354
    {
        lcd_showchar(x,y*16,'-');
    2b3a:	fdc45783          	lhu	a5,-36(s0)
    2b3e:	0792                	slli	a5,a5,0x4
    2b40:	01079713          	slli	a4,a5,0x10
    2b44:	8341                	srli	a4,a4,0x10
    2b46:	fde45783          	lhu	a5,-34(s0)
    2b4a:	02d00613          	li	a2,45
    2b4e:	85ba                	mv	a1,a4
    2b50:	853e                	mv	a0,a5
    2b52:	3ddd                	jal	2a48 <lcd_showchar>
D:\A_Dual1\Dual-core_Communication_Demo\Dual-core_Communication_Demo\SLAVE\obj/../Libraries/seekfree_peripheral/SEEKFREE_18TFT.c:355
        dat = -dat;
    2b54:	fdb44783          	lbu	a5,-37(s0)
    2b58:	40f007b3          	neg	a5,a5
    2b5c:	0ff7f793          	andi	a5,a5,255
    2b60:	fcf40da3          	sb	a5,-37(s0)
    2b64:	a831                	j	2b80 <lcd_showint8+0x6c>
D:\A_Dual1\Dual-core_Communication_Demo\Dual-core_Communication_Demo\SLAVE\obj/../Libraries/seekfree_peripheral/SEEKFREE_18TFT.c:357
    }
    else    lcd_showchar(x,y*16,' ');
    2b66:	fdc45783          	lhu	a5,-36(s0)
    2b6a:	0792                	slli	a5,a5,0x4
    2b6c:	01079713          	slli	a4,a5,0x10
    2b70:	8341                	srli	a4,a4,0x10
    2b72:	fde45783          	lhu	a5,-34(s0)
    2b76:	02000613          	li	a2,32
    2b7a:	85ba                	mv	a1,a4
    2b7c:	853e                	mv	a0,a5
    2b7e:	35e9                	jal	2a48 <lcd_showchar>
D:\A_Dual1\Dual-core_Communication_Demo\Dual-core_Communication_Demo\SLAVE\obj/../Libraries/seekfree_peripheral/SEEKFREE_18TFT.c:359

    a[0] = dat/100;
    2b80:	fdb40703          	lb	a4,-37(s0)
    2b84:	06400793          	li	a5,100
    2b88:	02f747b3          	div	a5,a4,a5
    2b8c:	07e2                	slli	a5,a5,0x18
    2b8e:	87e1                	srai	a5,a5,0x18
    2b90:	0ff7f793          	andi	a5,a5,255
    2b94:	fef40623          	sb	a5,-20(s0)
D:\A_Dual1\Dual-core_Communication_Demo\Dual-core_Communication_Demo\SLAVE\obj/../Libraries/seekfree_peripheral/SEEKFREE_18TFT.c:360
    a[1] = dat/10%10;
    2b98:	fdb40703          	lb	a4,-37(s0)
    2b9c:	47a9                	li	a5,10
    2b9e:	02f747b3          	div	a5,a4,a5
    2ba2:	01879713          	slli	a4,a5,0x18
    2ba6:	8761                	srai	a4,a4,0x18
    2ba8:	47a9                	li	a5,10
    2baa:	02f767b3          	rem	a5,a4,a5
    2bae:	07e2                	slli	a5,a5,0x18
    2bb0:	87e1                	srai	a5,a5,0x18
    2bb2:	0ff7f793          	andi	a5,a5,255
    2bb6:	fef406a3          	sb	a5,-19(s0)
D:\A_Dual1\Dual-core_Communication_Demo\Dual-core_Communication_Demo\SLAVE\obj/../Libraries/seekfree_peripheral/SEEKFREE_18TFT.c:361
    a[2] = dat%10;
    2bba:	fdb40703          	lb	a4,-37(s0)
    2bbe:	47a9                	li	a5,10
    2bc0:	02f767b3          	rem	a5,a4,a5
    2bc4:	07e2                	slli	a5,a5,0x18
    2bc6:	87e1                	srai	a5,a5,0x18
    2bc8:	0ff7f793          	andi	a5,a5,255
    2bcc:	fef40723          	sb	a5,-18(s0)
D:\A_Dual1\Dual-core_Communication_Demo\Dual-core_Communication_Demo\SLAVE\obj/../Libraries/seekfree_peripheral/SEEKFREE_18TFT.c:362
    i = 0;
    2bd0:	fe0407a3          	sb	zero,-17(s0)
D:\A_Dual1\Dual-core_Communication_Demo\Dual-core_Communication_Demo\SLAVE\obj/../Libraries/seekfree_peripheral/SEEKFREE_18TFT.c:363
    while(i<3)
    2bd4:	a8a1                	j	2c2c <lcd_showint8+0x118>
D:\A_Dual1\Dual-core_Communication_Demo\Dual-core_Communication_Demo\SLAVE\obj/../Libraries/seekfree_peripheral/SEEKFREE_18TFT.c:365
    {
        lcd_showchar(x+(8*(i+1)),y*16,'0' + a[i]);
    2bd6:	fef44783          	lbu	a5,-17(s0)
    2bda:	0785                	addi	a5,a5,1
    2bdc:	07c2                	slli	a5,a5,0x10
    2bde:	83c1                	srli	a5,a5,0x10
    2be0:	078e                	slli	a5,a5,0x3
    2be2:	01079713          	slli	a4,a5,0x10
    2be6:	8341                	srli	a4,a4,0x10
    2be8:	fde45783          	lhu	a5,-34(s0)
    2bec:	97ba                	add	a5,a5,a4
    2bee:	01079713          	slli	a4,a5,0x10
    2bf2:	8341                	srli	a4,a4,0x10
    2bf4:	fdc45783          	lhu	a5,-36(s0)
    2bf8:	0792                	slli	a5,a5,0x4
    2bfa:	01079693          	slli	a3,a5,0x10
    2bfe:	82c1                	srli	a3,a3,0x10
    2c00:	fef44783          	lbu	a5,-17(s0)
    2c04:	ff040613          	addi	a2,s0,-16
    2c08:	97b2                	add	a5,a5,a2
    2c0a:	ffc7c783          	lbu	a5,-4(a5)
    2c0e:	03078793          	addi	a5,a5,48
    2c12:	0ff7f793          	andi	a5,a5,255
    2c16:	07e2                	slli	a5,a5,0x18
    2c18:	87e1                	srai	a5,a5,0x18
    2c1a:	863e                	mv	a2,a5
    2c1c:	85b6                	mv	a1,a3
    2c1e:	853a                	mv	a0,a4
    2c20:	3525                	jal	2a48 <lcd_showchar>
D:\A_Dual1\Dual-core_Communication_Demo\Dual-core_Communication_Demo\SLAVE\obj/../Libraries/seekfree_peripheral/SEEKFREE_18TFT.c:366
        i++;
    2c22:	fef44783          	lbu	a5,-17(s0)
    2c26:	0785                	addi	a5,a5,1
    2c28:	fef407a3          	sb	a5,-17(s0)
D:\A_Dual1\Dual-core_Communication_Demo\Dual-core_Communication_Demo\SLAVE\obj/../Libraries/seekfree_peripheral/SEEKFREE_18TFT.c:363
    while(i<3)
    2c2c:	fef44703          	lbu	a4,-17(s0)
    2c30:	4789                	li	a5,2
    2c32:	fae7f2e3          	bgeu	a5,a4,2bd6 <lcd_showint8+0xc2>
D:\A_Dual1\Dual-core_Communication_Demo\Dual-core_Communication_Demo\SLAVE\obj/../Libraries/seekfree_peripheral/SEEKFREE_18TFT.c:368
    }
}
    2c36:	0001                	nop
    2c38:	50b2                	lw	ra,44(sp)
    2c3a:	5422                	lw	s0,40(sp)
    2c3c:	6145                	addi	sp,sp,48
    2c3e:	8082                	ret

00002c40 <lcd_showint16>:
lcd_showint16():
D:\A_Dual1\Dual-core_Communication_Demo\Dual-core_Communication_Demo\SLAVE\obj/../Libraries/seekfree_peripheral/SEEKFREE_18TFT.c:406
//  @return     void
//  @since      v1.0
//  Sample usage:               lcd_showint16(0,0,x);//xint16
//-------------------------------------------------------------------------------------------------------------------
void lcd_showint16(uint16 x,uint16 y,int16 dat)
{
    2c40:	7179                	addi	sp,sp,-48
    2c42:	d606                	sw	ra,44(sp)
    2c44:	d422                	sw	s0,40(sp)
    2c46:	1800                	addi	s0,sp,48
    2c48:	87aa                	mv	a5,a0
    2c4a:	86ae                	mv	a3,a1
    2c4c:	8732                	mv	a4,a2
    2c4e:	fcf41f23          	sh	a5,-34(s0)
    2c52:	87b6                	mv	a5,a3
    2c54:	fcf41e23          	sh	a5,-36(s0)
    2c58:	87ba                	mv	a5,a4
    2c5a:	fcf41d23          	sh	a5,-38(s0)
D:\A_Dual1\Dual-core_Communication_Demo\Dual-core_Communication_Demo\SLAVE\obj/../Libraries/seekfree_peripheral/SEEKFREE_18TFT.c:409
    uint8 a[5];
    uint8 i;
    if(dat<0)
    2c5e:	fda41783          	lh	a5,-38(s0)
    2c62:	0207d863          	bgez	a5,2c92 <lcd_showint16+0x52>
D:\A_Dual1\Dual-core_Communication_Demo\Dual-core_Communication_Demo\SLAVE\obj/../Libraries/seekfree_peripheral/SEEKFREE_18TFT.c:411
    {
        lcd_showchar(x,y*16,'-');
    2c66:	fdc45783          	lhu	a5,-36(s0)
    2c6a:	0792                	slli	a5,a5,0x4
    2c6c:	01079713          	slli	a4,a5,0x10
    2c70:	8341                	srli	a4,a4,0x10
    2c72:	fde45783          	lhu	a5,-34(s0)
    2c76:	02d00613          	li	a2,45
    2c7a:	85ba                	mv	a1,a4
    2c7c:	853e                	mv	a0,a5
    2c7e:	33e9                	jal	2a48 <lcd_showchar>
D:\A_Dual1\Dual-core_Communication_Demo\Dual-core_Communication_Demo\SLAVE\obj/../Libraries/seekfree_peripheral/SEEKFREE_18TFT.c:412
        dat = -dat;
    2c80:	fda45783          	lhu	a5,-38(s0)
    2c84:	40f007b3          	neg	a5,a5
    2c88:	07c2                	slli	a5,a5,0x10
    2c8a:	83c1                	srli	a5,a5,0x10
    2c8c:	fcf41d23          	sh	a5,-38(s0)
    2c90:	a831                	j	2cac <lcd_showint16+0x6c>
D:\A_Dual1\Dual-core_Communication_Demo\Dual-core_Communication_Demo\SLAVE\obj/../Libraries/seekfree_peripheral/SEEKFREE_18TFT.c:414
    }
    else    lcd_showchar(x,y*16,' ');
    2c92:	fdc45783          	lhu	a5,-36(s0)
    2c96:	0792                	slli	a5,a5,0x4
    2c98:	01079713          	slli	a4,a5,0x10
    2c9c:	8341                	srli	a4,a4,0x10
    2c9e:	fde45783          	lhu	a5,-34(s0)
    2ca2:	02000613          	li	a2,32
    2ca6:	85ba                	mv	a1,a4
    2ca8:	853e                	mv	a0,a5
    2caa:	3b79                	jal	2a48 <lcd_showchar>
D:\A_Dual1\Dual-core_Communication_Demo\Dual-core_Communication_Demo\SLAVE\obj/../Libraries/seekfree_peripheral/SEEKFREE_18TFT.c:416

    a[0] = dat/10000;
    2cac:	fda41703          	lh	a4,-38(s0)
    2cb0:	6789                	lui	a5,0x2
    2cb2:	71078793          	addi	a5,a5,1808 # 2710 <lcd_set_region+0x110>
    2cb6:	02f747b3          	div	a5,a4,a5
    2cba:	07c2                	slli	a5,a5,0x10
    2cbc:	87c1                	srai	a5,a5,0x10
    2cbe:	0ff7f793          	andi	a5,a5,255
    2cc2:	fef40423          	sb	a5,-24(s0)
D:\A_Dual1\Dual-core_Communication_Demo\Dual-core_Communication_Demo\SLAVE\obj/../Libraries/seekfree_peripheral/SEEKFREE_18TFT.c:417
    a[1] = dat/1000%10;
    2cc6:	fda41703          	lh	a4,-38(s0)
    2cca:	3e800793          	li	a5,1000
    2cce:	02f747b3          	div	a5,a4,a5
    2cd2:	01079713          	slli	a4,a5,0x10
    2cd6:	8741                	srai	a4,a4,0x10
    2cd8:	47a9                	li	a5,10
    2cda:	02f767b3          	rem	a5,a4,a5
    2cde:	07c2                	slli	a5,a5,0x10
    2ce0:	87c1                	srai	a5,a5,0x10
    2ce2:	0ff7f793          	andi	a5,a5,255
    2ce6:	fef404a3          	sb	a5,-23(s0)
D:\A_Dual1\Dual-core_Communication_Demo\Dual-core_Communication_Demo\SLAVE\obj/../Libraries/seekfree_peripheral/SEEKFREE_18TFT.c:418
    a[2] = dat/100%10;
    2cea:	fda41703          	lh	a4,-38(s0)
    2cee:	06400793          	li	a5,100
    2cf2:	02f747b3          	div	a5,a4,a5
    2cf6:	01079713          	slli	a4,a5,0x10
    2cfa:	8741                	srai	a4,a4,0x10
    2cfc:	47a9                	li	a5,10
    2cfe:	02f767b3          	rem	a5,a4,a5
    2d02:	07c2                	slli	a5,a5,0x10
    2d04:	87c1                	srai	a5,a5,0x10
    2d06:	0ff7f793          	andi	a5,a5,255
    2d0a:	fef40523          	sb	a5,-22(s0)
D:\A_Dual1\Dual-core_Communication_Demo\Dual-core_Communication_Demo\SLAVE\obj/../Libraries/seekfree_peripheral/SEEKFREE_18TFT.c:419
    a[3] = dat/10%10;
    2d0e:	fda41703          	lh	a4,-38(s0)
    2d12:	47a9                	li	a5,10
    2d14:	02f747b3          	div	a5,a4,a5
    2d18:	01079713          	slli	a4,a5,0x10
    2d1c:	8741                	srai	a4,a4,0x10
    2d1e:	47a9                	li	a5,10
    2d20:	02f767b3          	rem	a5,a4,a5
    2d24:	07c2                	slli	a5,a5,0x10
    2d26:	87c1                	srai	a5,a5,0x10
    2d28:	0ff7f793          	andi	a5,a5,255
    2d2c:	fef405a3          	sb	a5,-21(s0)
D:\A_Dual1\Dual-core_Communication_Demo\Dual-core_Communication_Demo\SLAVE\obj/../Libraries/seekfree_peripheral/SEEKFREE_18TFT.c:420
    a[4] = dat%10;
    2d30:	fda41703          	lh	a4,-38(s0)
    2d34:	47a9                	li	a5,10
    2d36:	02f767b3          	rem	a5,a4,a5
    2d3a:	07c2                	slli	a5,a5,0x10
    2d3c:	87c1                	srai	a5,a5,0x10
    2d3e:	0ff7f793          	andi	a5,a5,255
    2d42:	fef40623          	sb	a5,-20(s0)
D:\A_Dual1\Dual-core_Communication_Demo\Dual-core_Communication_Demo\SLAVE\obj/../Libraries/seekfree_peripheral/SEEKFREE_18TFT.c:422

    i = 0;
    2d46:	fe0407a3          	sb	zero,-17(s0)
D:\A_Dual1\Dual-core_Communication_Demo\Dual-core_Communication_Demo\SLAVE\obj/../Libraries/seekfree_peripheral/SEEKFREE_18TFT.c:423
    while(i<5)
    2d4a:	a8a9                	j	2da4 <lcd_showint16+0x164>
D:\A_Dual1\Dual-core_Communication_Demo\Dual-core_Communication_Demo\SLAVE\obj/../Libraries/seekfree_peripheral/SEEKFREE_18TFT.c:425
    {
        lcd_showchar(x+(8*(i+1)),y*16,'0' + a[i]);
    2d4c:	fef44783          	lbu	a5,-17(s0)
    2d50:	0785                	addi	a5,a5,1
    2d52:	07c2                	slli	a5,a5,0x10
    2d54:	83c1                	srli	a5,a5,0x10
    2d56:	078e                	slli	a5,a5,0x3
    2d58:	01079713          	slli	a4,a5,0x10
    2d5c:	8341                	srli	a4,a4,0x10
    2d5e:	fde45783          	lhu	a5,-34(s0)
    2d62:	97ba                	add	a5,a5,a4
    2d64:	01079713          	slli	a4,a5,0x10
    2d68:	8341                	srli	a4,a4,0x10
    2d6a:	fdc45783          	lhu	a5,-36(s0)
    2d6e:	0792                	slli	a5,a5,0x4
    2d70:	01079693          	slli	a3,a5,0x10
    2d74:	82c1                	srli	a3,a3,0x10
    2d76:	fef44783          	lbu	a5,-17(s0)
    2d7a:	ff040613          	addi	a2,s0,-16
    2d7e:	97b2                	add	a5,a5,a2
    2d80:	ff87c783          	lbu	a5,-8(a5)
    2d84:	03078793          	addi	a5,a5,48
    2d88:	0ff7f793          	andi	a5,a5,255
    2d8c:	07e2                	slli	a5,a5,0x18
    2d8e:	87e1                	srai	a5,a5,0x18
    2d90:	863e                	mv	a2,a5
    2d92:	85b6                	mv	a1,a3
    2d94:	853a                	mv	a0,a4
    2d96:	cb3ff0ef          	jal	ra,2a48 <lcd_showchar>
D:\A_Dual1\Dual-core_Communication_Demo\Dual-core_Communication_Demo\SLAVE\obj/../Libraries/seekfree_peripheral/SEEKFREE_18TFT.c:426
        i++;
    2d9a:	fef44783          	lbu	a5,-17(s0)
    2d9e:	0785                	addi	a5,a5,1
    2da0:	fef407a3          	sb	a5,-17(s0)
D:\A_Dual1\Dual-core_Communication_Demo\Dual-core_Communication_Demo\SLAVE\obj/../Libraries/seekfree_peripheral/SEEKFREE_18TFT.c:423
    while(i<5)
    2da4:	fef44703          	lbu	a4,-17(s0)
    2da8:	4791                	li	a5,4
    2daa:	fae7f1e3          	bgeu	a5,a4,2d4c <lcd_showint16+0x10c>
D:\A_Dual1\Dual-core_Communication_Demo\Dual-core_Communication_Demo\SLAVE\obj/../Libraries/seekfree_peripheral/SEEKFREE_18TFT.c:428
    }
}
    2dae:	0001                	nop
    2db0:	50b2                	lw	ra,44(sp)
    2db2:	5422                	lw	s0,40(sp)
    2db4:	6145                	addi	sp,sp,48
    2db6:	8082                	ret

00002db8 <lcd_displayimage032>:
lcd_displayimage032():
D:\A_Dual1\Dual-core_Communication_Demo\Dual-core_Communication_Demo\SLAVE\obj/../Libraries/seekfree_peripheral/SEEKFREE_18TFT.c:585
//  @since      v1.0
//  Sample usage:               lcd_displayimage032(mt9v03x_csi_image[0], MT9V03X_CSI_W, MT9V03X_CSI_H)// 
//  @note       
//-------------------------------------------------------------------------------------------------------------------
void lcd_displayimage032(uint8 *p, uint16 width, uint16 height) 
{
    2db8:	7139                	addi	sp,sp,-64
    2dba:	de06                	sw	ra,60(sp)
    2dbc:	dc22                	sw	s0,56(sp)
    2dbe:	0080                	addi	s0,sp,64
    2dc0:	fca42623          	sw	a0,-52(s0)
    2dc4:	87ae                	mv	a5,a1
    2dc6:	8732                	mv	a4,a2
    2dc8:	fcf41523          	sh	a5,-54(s0)
    2dcc:	87ba                	mv	a5,a4
    2dce:	fcf41423          	sh	a5,-56(s0)
D:\A_Dual1\Dual-core_Communication_Demo\Dual-core_Communication_Demo\SLAVE\obj/../Libraries/seekfree_peripheral/SEEKFREE_18TFT.c:588
    uint32 i,j;
                
    uint16 color = 0;
    2dd2:	fc041f23          	sh	zero,-34(s0)
D:\A_Dual1\Dual-core_Communication_Demo\Dual-core_Communication_Demo\SLAVE\obj/../Libraries/seekfree_peripheral/SEEKFREE_18TFT.c:589
    uint16 temp = 0;
    2dd6:	fe041523          	sh	zero,-22(s0)
D:\A_Dual1\Dual-core_Communication_Demo\Dual-core_Communication_Demo\SLAVE\obj/../Libraries/seekfree_peripheral/SEEKFREE_18TFT.c:591

    uint16 coord_x = 0;
    2dda:	fe041423          	sh	zero,-24(s0)
D:\A_Dual1\Dual-core_Communication_Demo\Dual-core_Communication_Demo\SLAVE\obj/../Libraries/seekfree_peripheral/SEEKFREE_18TFT.c:592
    uint16 coord_y = 0;
    2dde:	fe041323          	sh	zero,-26(s0)
D:\A_Dual1\Dual-core_Communication_Demo\Dual-core_Communication_Demo\SLAVE\obj/../Libraries/seekfree_peripheral/SEEKFREE_18TFT.c:616
        }
        
    }
    else//
    {
        coord_x = width>TFT_X_MAX?TFT_X_MAX:width;
    2de2:	fca45783          	lhu	a5,-54(s0)
    2de6:	01079693          	slli	a3,a5,0x10
    2dea:	82c1                	srli	a3,a3,0x10
    2dec:	0a000713          	li	a4,160
    2df0:	00d77463          	bgeu	a4,a3,2df8 <lcd_displayimage032+0x40>
    2df4:	0a000793          	li	a5,160
    2df8:	fef41423          	sh	a5,-24(s0)
D:\A_Dual1\Dual-core_Communication_Demo\Dual-core_Communication_Demo\SLAVE\obj/../Libraries/seekfree_peripheral/SEEKFREE_18TFT.c:617
        coord_y = height>TFT_Y_MAX?TFT_Y_MAX:height;
    2dfc:	fc845783          	lhu	a5,-56(s0)
    2e00:	01079693          	slli	a3,a5,0x10
    2e04:	82c1                	srli	a3,a3,0x10
    2e06:	08000713          	li	a4,128
    2e0a:	00d77463          	bgeu	a4,a3,2e12 <lcd_displayimage032+0x5a>
    2e0e:	08000793          	li	a5,128
    2e12:	fef41323          	sh	a5,-26(s0)
D:\A_Dual1\Dual-core_Communication_Demo\Dual-core_Communication_Demo\SLAVE\obj/../Libraries/seekfree_peripheral/SEEKFREE_18TFT.c:618
        lcd_set_region(0,0,coord_x-1,coord_y-1);
    2e16:	fe845783          	lhu	a5,-24(s0)
    2e1a:	17fd                	addi	a5,a5,-1
    2e1c:	873e                	mv	a4,a5
    2e1e:	fe645783          	lhu	a5,-26(s0)
    2e22:	17fd                	addi	a5,a5,-1
    2e24:	86be                	mv	a3,a5
    2e26:	863a                	mv	a2,a4
    2e28:	4581                	li	a1,0
    2e2a:	4501                	li	a0,0
    2e2c:	fd4ff0ef          	jal	ra,2600 <lcd_set_region>
D:\A_Dual1\Dual-core_Communication_Demo\Dual-core_Communication_Demo\SLAVE\obj/../Libraries/seekfree_peripheral/SEEKFREE_18TFT.c:620

        for(j=0;j<coord_y;j++)
    2e30:	fe042623          	sw	zero,-20(s0)
    2e34:	a85d                	j	2eea <lcd_displayimage032+0x132>
D:\A_Dual1\Dual-core_Communication_Demo\Dual-core_Communication_Demo\SLAVE\obj/../Libraries/seekfree_peripheral/SEEKFREE_18TFT.c:622
        {
            for(i=0;i<coord_x;i++)
    2e36:	fe042023          	sw	zero,-32(s0)
    2e3a:	a869                	j	2ed4 <lcd_displayimage032+0x11c>
D:\A_Dual1\Dual-core_Communication_Demo\Dual-core_Communication_Demo\SLAVE\obj/../Libraries/seekfree_peripheral/SEEKFREE_18TFT.c:624 (discriminator 3)
            {
                temp = *(p+j*width+i*width/coord_x);//
    2e3c:	fca45703          	lhu	a4,-54(s0)
    2e40:	fec42783          	lw	a5,-20(s0)
    2e44:	02f70733          	mul	a4,a4,a5
    2e48:	fca45683          	lhu	a3,-54(s0)
    2e4c:	fe042783          	lw	a5,-32(s0)
    2e50:	02f686b3          	mul	a3,a3,a5
    2e54:	fe845783          	lhu	a5,-24(s0)
    2e58:	02f6d7b3          	divu	a5,a3,a5
    2e5c:	97ba                	add	a5,a5,a4
    2e5e:	fcc42703          	lw	a4,-52(s0)
    2e62:	97ba                	add	a5,a5,a4
    2e64:	0007c783          	lbu	a5,0(a5)
    2e68:	fef41523          	sh	a5,-22(s0)
D:\A_Dual1\Dual-core_Communication_Demo\Dual-core_Communication_Demo\SLAVE\obj/../Libraries/seekfree_peripheral/SEEKFREE_18TFT.c:625 (discriminator 3)
                color=(0x001f&((temp)>>3))<<11;
    2e6c:	fea45783          	lhu	a5,-22(s0)
    2e70:	838d                	srli	a5,a5,0x3
    2e72:	07c2                	slli	a5,a5,0x10
    2e74:	83c1                	srli	a5,a5,0x10
    2e76:	07ae                	slli	a5,a5,0xb
    2e78:	fcf41f23          	sh	a5,-34(s0)
D:\A_Dual1\Dual-core_Communication_Demo\Dual-core_Communication_Demo\SLAVE\obj/../Libraries/seekfree_peripheral/SEEKFREE_18TFT.c:626 (discriminator 3)
                color=color|(((0x003f)&((temp)>>2))<<5);
    2e7c:	fea45783          	lhu	a5,-22(s0)
    2e80:	8389                	srli	a5,a5,0x2
    2e82:	07c2                	slli	a5,a5,0x10
    2e84:	83c1                	srli	a5,a5,0x10
    2e86:	0796                	slli	a5,a5,0x5
    2e88:	07c2                	slli	a5,a5,0x10
    2e8a:	87c1                	srai	a5,a5,0x10
    2e8c:	7e07f793          	andi	a5,a5,2016
    2e90:	01079713          	slli	a4,a5,0x10
    2e94:	8741                	srai	a4,a4,0x10
    2e96:	fde41783          	lh	a5,-34(s0)
    2e9a:	8fd9                	or	a5,a5,a4
    2e9c:	07c2                	slli	a5,a5,0x10
    2e9e:	87c1                	srai	a5,a5,0x10
    2ea0:	fcf41f23          	sh	a5,-34(s0)
D:\A_Dual1\Dual-core_Communication_Demo\Dual-core_Communication_Demo\SLAVE\obj/../Libraries/seekfree_peripheral/SEEKFREE_18TFT.c:627 (discriminator 3)
                color=color|(0x001f&((temp)>>3));
    2ea4:	fea45783          	lhu	a5,-22(s0)
    2ea8:	838d                	srli	a5,a5,0x3
    2eaa:	07c2                	slli	a5,a5,0x10
    2eac:	83c1                	srli	a5,a5,0x10
    2eae:	8bfd                	andi	a5,a5,31
    2eb0:	01079713          	slli	a4,a5,0x10
    2eb4:	8341                	srli	a4,a4,0x10
    2eb6:	fde45783          	lhu	a5,-34(s0)
    2eba:	8fd9                	or	a5,a5,a4
    2ebc:	fcf41f23          	sh	a5,-34(s0)
D:\A_Dual1\Dual-core_Communication_Demo\Dual-core_Communication_Demo\SLAVE\obj/../Libraries/seekfree_peripheral/SEEKFREE_18TFT.c:628 (discriminator 3)
                lcd_writedata_16bit(color); 
    2ec0:	fde45783          	lhu	a5,-34(s0)
    2ec4:	853e                	mv	a0,a5
    2ec6:	ec6ff0ef          	jal	ra,258c <lcd_writedata_16bit>
D:\A_Dual1\Dual-core_Communication_Demo\Dual-core_Communication_Demo\SLAVE\obj/../Libraries/seekfree_peripheral/SEEKFREE_18TFT.c:622 (discriminator 3)
            for(i=0;i<coord_x;i++)
    2eca:	fe042783          	lw	a5,-32(s0)
    2ece:	0785                	addi	a5,a5,1
    2ed0:	fef42023          	sw	a5,-32(s0)
D:\A_Dual1\Dual-core_Communication_Demo\Dual-core_Communication_Demo\SLAVE\obj/../Libraries/seekfree_peripheral/SEEKFREE_18TFT.c:622 (discriminator 1)
    2ed4:	fe845783          	lhu	a5,-24(s0)
    2ed8:	fe042703          	lw	a4,-32(s0)
    2edc:	f6f760e3          	bltu	a4,a5,2e3c <lcd_displayimage032+0x84>
D:\A_Dual1\Dual-core_Communication_Demo\Dual-core_Communication_Demo\SLAVE\obj/../Libraries/seekfree_peripheral/SEEKFREE_18TFT.c:620 (discriminator 2)
        for(j=0;j<coord_y;j++)
    2ee0:	fec42783          	lw	a5,-20(s0)
    2ee4:	0785                	addi	a5,a5,1
    2ee6:	fef42623          	sw	a5,-20(s0)
D:\A_Dual1\Dual-core_Communication_Demo\Dual-core_Communication_Demo\SLAVE\obj/../Libraries/seekfree_peripheral/SEEKFREE_18TFT.c:620 (discriminator 1)
    2eea:	fe645783          	lhu	a5,-26(s0)
    2eee:	fec42703          	lw	a4,-20(s0)
    2ef2:	f4f762e3          	bltu	a4,a5,2e36 <lcd_displayimage032+0x7e>
D:\A_Dual1\Dual-core_Communication_Demo\Dual-core_Communication_Demo\SLAVE\obj/../Libraries/seekfree_peripheral/SEEKFREE_18TFT.c:632
            }
        }
    }
}
    2ef6:	0001                	nop
    2ef8:	50f2                	lw	ra,60(sp)
    2efa:	5462                	lw	s0,56(sp)
    2efc:	6121                	addi	sp,sp,64
    2efe:	8082                	ret

00002f00 <mt9v03x_uart_callback>:
mt9v03x_uart_callback():
D:\A_Dual1\Dual-core_Communication_Demo\Dual-core_Communication_Demo\SLAVE\obj/../Libraries/seekfree_peripheral/SEEKFREE_MT9V03X.c:90
//  @since      v1.0
//  Sample usage:
//  @note       
//-------------------------------------------------------------------------------------------------------------------
void mt9v03x_uart_callback(void)
{
    2f00:	1141                	addi	sp,sp,-16
    2f02:	c622                	sw	s0,12(sp)
    2f04:	0800                	addi	s0,sp,16
D:\A_Dual1\Dual-core_Communication_Demo\Dual-core_Communication_Demo\SLAVE\obj/../Libraries/seekfree_peripheral/SEEKFREE_MT9V03X.c:91
    receive[receive_num] = ((USART_TypeDef*)UARTN[MT9V03X_COF_UART])->DATAR & 0x01FF;;
    2f06:	67a9                	lui	a5,0xa
    2f08:	d9478793          	addi	a5,a5,-620 # 9d94 <UARTN>
    2f0c:	43dc                	lw	a5,4(a5)
    2f0e:	0047d783          	lhu	a5,4(a5)
    2f12:	01079713          	slli	a4,a5,0x10
    2f16:	8341                	srli	a4,a4,0x10
    2f18:	82b1c783          	lbu	a5,-2005(gp) # 20000143 <receive_num>
    2f1c:	86be                	mv	a3,a5
    2f1e:	0ff77713          	andi	a4,a4,255
    2f22:	82818793          	addi	a5,gp,-2008 # 20000140 <receive>
    2f26:	97b6                	add	a5,a5,a3
    2f28:	00e78023          	sb	a4,0(a5)
D:\A_Dual1\Dual-core_Communication_Demo\Dual-core_Communication_Demo\SLAVE\obj/../Libraries/seekfree_peripheral/SEEKFREE_MT9V03X.c:92
    receive_num++;
    2f2c:	82b1c783          	lbu	a5,-2005(gp) # 20000143 <receive_num>
    2f30:	0785                	addi	a5,a5,1
    2f32:	0ff7f713          	andi	a4,a5,255
    2f36:	82e185a3          	sb	a4,-2005(gp) # 20000143 <receive_num>
D:\A_Dual1\Dual-core_Communication_Demo\Dual-core_Communication_Demo\SLAVE\obj/../Libraries/seekfree_peripheral/SEEKFREE_MT9V03X.c:94

    if(1==receive_num && 0XA5!=receive[0])  receive_num = 0;
    2f3a:	82b1c703          	lbu	a4,-2005(gp) # 20000143 <receive_num>
    2f3e:	4785                	li	a5,1
    2f40:	00f71a63          	bne	a4,a5,2f54 <mt9v03x_uart_callback+0x54>
D:\A_Dual1\Dual-core_Communication_Demo\Dual-core_Communication_Demo\SLAVE\obj/../Libraries/seekfree_peripheral/SEEKFREE_MT9V03X.c:94 (discriminator 1)
    2f44:	8281c703          	lbu	a4,-2008(gp) # 20000140 <receive>
    2f48:	0a500793          	li	a5,165
    2f4c:	00f70463          	beq	a4,a5,2f54 <mt9v03x_uart_callback+0x54>
D:\A_Dual1\Dual-core_Communication_Demo\Dual-core_Communication_Demo\SLAVE\obj/../Libraries/seekfree_peripheral/SEEKFREE_MT9V03X.c:94 (discriminator 2)
    2f50:	820185a3          	sb	zero,-2005(gp) # 20000143 <receive_num>
D:\A_Dual1\Dual-core_Communication_Demo\Dual-core_Communication_Demo\SLAVE\obj/../Libraries/seekfree_peripheral/SEEKFREE_MT9V03X.c:95
    if(3 == receive_num)
    2f54:	82b1c703          	lbu	a4,-2005(gp) # 20000143 <receive_num>
    2f58:	478d                	li	a5,3
    2f5a:	00f71763          	bne	a4,a5,2f68 <mt9v03x_uart_callback+0x68>
D:\A_Dual1\Dual-core_Communication_Demo\Dual-core_Communication_Demo\SLAVE\obj/../Libraries/seekfree_peripheral/SEEKFREE_MT9V03X.c:97
    {
        receive_num = 0;
    2f5e:	820185a3          	sb	zero,-2005(gp) # 20000143 <receive_num>
D:\A_Dual1\Dual-core_Communication_Demo\Dual-core_Communication_Demo\SLAVE\obj/../Libraries/seekfree_peripheral/SEEKFREE_MT9V03X.c:98
        uart_receive_flag = 1;
    2f62:	4705                	li	a4,1
    2f64:	82e18623          	sb	a4,-2004(gp) # 20000144 <uart_receive_flag>
D:\A_Dual1\Dual-core_Communication_Demo\Dual-core_Communication_Demo\SLAVE\obj/../Libraries/seekfree_peripheral/SEEKFREE_MT9V03X.c:101
    }
    
}
    2f68:	0001                	nop
    2f6a:	4432                	lw	s0,12(sp)
    2f6c:	0141                	addi	sp,sp,16
    2f6e:	8082                	ret

00002f70 <set_config>:
set_config():
D:\A_Dual1\Dual-core_Communication_Demo\Dual-core_Communication_Demo\SLAVE\obj/../Libraries/seekfree_peripheral/SEEKFREE_MT9V03X.c:114
//  @return     void
//  @since      v1.0
//  Sample usage:           
//-------------------------------------------------------------------------------------------------------------------
void set_config(UARTN_enum uartn, int16 buff[CONFIG_FINISH-1][2])
{
    2f70:	7179                	addi	sp,sp,-48
    2f72:	d606                	sw	ra,44(sp)
    2f74:	d422                	sw	s0,40(sp)
    2f76:	d24a                	sw	s2,36(sp)
    2f78:	d04e                	sw	s3,32(sp)
    2f7a:	1800                	addi	s0,sp,48
    2f7c:	fca42e23          	sw	a0,-36(s0)
    2f80:	fcb42c23          	sw	a1,-40(s0)
D:\A_Dual1\Dual-core_Communication_Demo\Dual-core_Communication_Demo\SLAVE\obj/../Libraries/seekfree_peripheral/SEEKFREE_MT9V03X.c:118
    uint16 temp, i;
    uint8  send_buffer[4];

    uart_receive_flag = 0;
    2f84:	82018623          	sb	zero,-2004(gp) # 20000144 <uart_receive_flag>
D:\A_Dual1\Dual-core_Communication_Demo\Dual-core_Communication_Demo\SLAVE\obj/../Libraries/seekfree_peripheral/SEEKFREE_MT9V03X.c:122
    
    //  
    //
    for(i=0; i<CONFIG_FINISH; i++)
    2f88:	fe041723          	sh	zero,-18(s0)
    2f8c:	a069                	j	3016 <set_config+0xa6>
D:\A_Dual1\Dual-core_Communication_Demo\Dual-core_Communication_Demo\SLAVE\obj/../Libraries/seekfree_peripheral/SEEKFREE_MT9V03X.c:124 (discriminator 3)
    {
        send_buffer[0] = 0xA5;
    2f8e:	fa500793          	li	a5,-91
    2f92:	fef40423          	sb	a5,-24(s0)
D:\A_Dual1\Dual-core_Communication_Demo\Dual-core_Communication_Demo\SLAVE\obj/../Libraries/seekfree_peripheral/SEEKFREE_MT9V03X.c:125 (discriminator 3)
        send_buffer[1] = buff[i][0];
    2f96:	fee45783          	lhu	a5,-18(s0)
    2f9a:	078a                	slli	a5,a5,0x2
    2f9c:	fd842703          	lw	a4,-40(s0)
    2fa0:	97ba                	add	a5,a5,a4
    2fa2:	00079783          	lh	a5,0(a5)
    2fa6:	0ff7f793          	andi	a5,a5,255
    2faa:	fef404a3          	sb	a5,-23(s0)
D:\A_Dual1\Dual-core_Communication_Demo\Dual-core_Communication_Demo\SLAVE\obj/../Libraries/seekfree_peripheral/SEEKFREE_MT9V03X.c:126 (discriminator 3)
        temp = buff[i][1];
    2fae:	fee45783          	lhu	a5,-18(s0)
    2fb2:	078a                	slli	a5,a5,0x2
    2fb4:	fd842703          	lw	a4,-40(s0)
    2fb8:	97ba                	add	a5,a5,a4
    2fba:	00279783          	lh	a5,2(a5)
    2fbe:	fef41623          	sh	a5,-20(s0)
D:\A_Dual1\Dual-core_Communication_Demo\Dual-core_Communication_Demo\SLAVE\obj/../Libraries/seekfree_peripheral/SEEKFREE_MT9V03X.c:127 (discriminator 3)
        send_buffer[2] = temp>>8;
    2fc2:	fec45783          	lhu	a5,-20(s0)
    2fc6:	83a1                	srli	a5,a5,0x8
    2fc8:	07c2                	slli	a5,a5,0x10
    2fca:	83c1                	srli	a5,a5,0x10
    2fcc:	0ff7f793          	andi	a5,a5,255
    2fd0:	fef40523          	sb	a5,-22(s0)
D:\A_Dual1\Dual-core_Communication_Demo\Dual-core_Communication_Demo\SLAVE\obj/../Libraries/seekfree_peripheral/SEEKFREE_MT9V03X.c:128 (discriminator 3)
        send_buffer[3] = (uint8)temp;
    2fd4:	fec45783          	lhu	a5,-20(s0)
    2fd8:	0ff7f793          	andi	a5,a5,255
    2fdc:	fef405a3          	sb	a5,-21(s0)
D:\A_Dual1\Dual-core_Communication_Demo\Dual-core_Communication_Demo\SLAVE\obj/../Libraries/seekfree_peripheral/SEEKFREE_MT9V03X.c:130 (discriminator 3)
        
        uart_putbuff(uartn,send_buffer,4);
    2fe0:	fe840793          	addi	a5,s0,-24
    2fe4:	4611                	li	a2,4
    2fe6:	85be                	mv	a1,a5
    2fe8:	fdc42503          	lw	a0,-36(s0)
    2fec:	4f8010ef          	jal	ra,44e4 <uart_putbuff>
D:\A_Dual1\Dual-core_Communication_Demo\Dual-core_Communication_Demo\SLAVE\obj/../Libraries/seekfree_peripheral/SEEKFREE_MT9V03X.c:131 (discriminator 3)
        systick_delay_ms(2);
    2ff0:	8381a703          	lw	a4,-1992(gp) # 20000150 <sys_clk>
    2ff4:	6789                	lui	a5,0x2
    2ff6:	f4078793          	addi	a5,a5,-192 # 1f40 <TIM_GetITStatus+0x16>
    2ffa:	02f757b3          	divu	a5,a4,a5
    2ffe:	0786                	slli	a5,a5,0x1
    3000:	893e                	mv	s2,a5
    3002:	4981                	li	s3,0
    3004:	854a                	mv	a0,s2
    3006:	85ce                	mv	a1,s3
    3008:	200010ef          	jal	ra,4208 <systick_delay>
D:\A_Dual1\Dual-core_Communication_Demo\Dual-core_Communication_Demo\SLAVE\obj/../Libraries/seekfree_peripheral/SEEKFREE_MT9V03X.c:122 (discriminator 3)
    for(i=0; i<CONFIG_FINISH; i++)
    300c:	fee45783          	lhu	a5,-18(s0)
    3010:	0785                	addi	a5,a5,1
    3012:	fef41723          	sh	a5,-18(s0)
D:\A_Dual1\Dual-core_Communication_Demo\Dual-core_Communication_Demo\SLAVE\obj/../Libraries/seekfree_peripheral/SEEKFREE_MT9V03X.c:122 (discriminator 1)
    3016:	fee45703          	lhu	a4,-18(s0)
    301a:	47a1                	li	a5,8
    301c:	f6e7f9e3          	bgeu	a5,a4,2f8e <set_config+0x1e>
D:\A_Dual1\Dual-core_Communication_Demo\Dual-core_Communication_Demo\SLAVE\obj/../Libraries/seekfree_peripheral/SEEKFREE_MT9V03X.c:134
    }
    //
    while(!uart_receive_flag);
    3020:	0001                	nop
D:\A_Dual1\Dual-core_Communication_Demo\Dual-core_Communication_Demo\SLAVE\obj/../Libraries/seekfree_peripheral/SEEKFREE_MT9V03X.c:134 (discriminator 1)
    3022:	82c1c783          	lbu	a5,-2004(gp) # 20000144 <uart_receive_flag>
    3026:	0ff7f793          	andi	a5,a5,255
    302a:	dfe5                	beqz	a5,3022 <set_config+0xb2>
D:\A_Dual1\Dual-core_Communication_Demo\Dual-core_Communication_Demo\SLAVE\obj/../Libraries/seekfree_peripheral/SEEKFREE_MT9V03X.c:135
    uart_receive_flag = 0;
    302c:	82018623          	sb	zero,-2004(gp) # 20000144 <uart_receive_flag>
D:\A_Dual1\Dual-core_Communication_Demo\Dual-core_Communication_Demo\SLAVE\obj/../Libraries/seekfree_peripheral/SEEKFREE_MT9V03X.c:136
    while((0xff != receive[1]) || (0xff != receive[2]));
    3030:	0001                	nop
D:\A_Dual1\Dual-core_Communication_Demo\Dual-core_Communication_Demo\SLAVE\obj/../Libraries/seekfree_peripheral/SEEKFREE_MT9V03X.c:136 (discriminator 3)
    3032:	82818793          	addi	a5,gp,-2008 # 20000140 <receive>
    3036:	0017c703          	lbu	a4,1(a5)
    303a:	0ff00793          	li	a5,255
    303e:	fef71ae3          	bne	a4,a5,3032 <set_config+0xc2>
D:\A_Dual1\Dual-core_Communication_Demo\Dual-core_Communication_Demo\SLAVE\obj/../Libraries/seekfree_peripheral/SEEKFREE_MT9V03X.c:136 (discriminator 2)
    3042:	82818793          	addi	a5,gp,-2008 # 20000140 <receive>
    3046:	0027c703          	lbu	a4,2(a5)
    304a:	0ff00793          	li	a5,255
    304e:	fef712e3          	bne	a4,a5,3032 <set_config+0xc2>
D:\A_Dual1\Dual-core_Communication_Demo\Dual-core_Communication_Demo\SLAVE\obj/../Libraries/seekfree_peripheral/SEEKFREE_MT9V03X.c:139
    //51eeprom
    //set_exposure_timeeeprom
}
    3052:	0001                	nop
    3054:	50b2                	lw	ra,44(sp)
    3056:	5422                	lw	s0,40(sp)
    3058:	5912                	lw	s2,36(sp)
    305a:	5982                	lw	s3,32(sp)
    305c:	6145                	addi	sp,sp,48
    305e:	8082                	ret

00003060 <get_config>:
get_config():
D:\A_Dual1\Dual-core_Communication_Demo\Dual-core_Communication_Demo\SLAVE\obj/../Libraries/seekfree_peripheral/SEEKFREE_MT9V03X.c:151
//  @return     void
//  @since      v1.0
//  Sample usage:           
//-------------------------------------------------------------------------------------------------------------------
void get_config(UARTN_enum uartn, int16 buff[CONFIG_FINISH-1][2])
{
    3060:	7179                	addi	sp,sp,-48
    3062:	d606                	sw	ra,44(sp)
    3064:	d422                	sw	s0,40(sp)
    3066:	1800                	addi	s0,sp,48
    3068:	fca42e23          	sw	a0,-36(s0)
    306c:	fcb42c23          	sw	a1,-40(s0)
D:\A_Dual1\Dual-core_Communication_Demo\Dual-core_Communication_Demo\SLAVE\obj/../Libraries/seekfree_peripheral/SEEKFREE_MT9V03X.c:155
    uint16 temp, i;
    uint8  send_buffer[4];
    
    for(i=0; i<CONFIG_FINISH-1; i++)
    3070:	fe041723          	sh	zero,-18(s0)
    3074:	a045                	j	3114 <get_config+0xb4>
D:\A_Dual1\Dual-core_Communication_Demo\Dual-core_Communication_Demo\SLAVE\obj/../Libraries/seekfree_peripheral/SEEKFREE_MT9V03X.c:157
    {
        send_buffer[0] = 0xA5;
    3076:	fa500793          	li	a5,-91
    307a:	fef40423          	sb	a5,-24(s0)
D:\A_Dual1\Dual-core_Communication_Demo\Dual-core_Communication_Demo\SLAVE\obj/../Libraries/seekfree_peripheral/SEEKFREE_MT9V03X.c:158
        send_buffer[1] = GET_STATUS;
    307e:	57c5                	li	a5,-15
    3080:	fef404a3          	sb	a5,-23(s0)
D:\A_Dual1\Dual-core_Communication_Demo\Dual-core_Communication_Demo\SLAVE\obj/../Libraries/seekfree_peripheral/SEEKFREE_MT9V03X.c:159
        temp = buff[i][0];
    3084:	fee45783          	lhu	a5,-18(s0)
    3088:	078a                	slli	a5,a5,0x2
    308a:	fd842703          	lw	a4,-40(s0)
    308e:	97ba                	add	a5,a5,a4
    3090:	00079783          	lh	a5,0(a5)
    3094:	fef41623          	sh	a5,-20(s0)
D:\A_Dual1\Dual-core_Communication_Demo\Dual-core_Communication_Demo\SLAVE\obj/../Libraries/seekfree_peripheral/SEEKFREE_MT9V03X.c:160
        send_buffer[2] = temp>>8;
    3098:	fec45783          	lhu	a5,-20(s0)
    309c:	83a1                	srli	a5,a5,0x8
    309e:	07c2                	slli	a5,a5,0x10
    30a0:	83c1                	srli	a5,a5,0x10
    30a2:	0ff7f793          	andi	a5,a5,255
    30a6:	fef40523          	sb	a5,-22(s0)
D:\A_Dual1\Dual-core_Communication_Demo\Dual-core_Communication_Demo\SLAVE\obj/../Libraries/seekfree_peripheral/SEEKFREE_MT9V03X.c:161
        send_buffer[3] = (uint8)temp;
    30aa:	fec45783          	lhu	a5,-20(s0)
    30ae:	0ff7f793          	andi	a5,a5,255
    30b2:	fef405a3          	sb	a5,-21(s0)
D:\A_Dual1\Dual-core_Communication_Demo\Dual-core_Communication_Demo\SLAVE\obj/../Libraries/seekfree_peripheral/SEEKFREE_MT9V03X.c:163
        
        uart_putbuff(uartn,send_buffer,4);
    30b6:	fe840793          	addi	a5,s0,-24
    30ba:	4611                	li	a2,4
    30bc:	85be                	mv	a1,a5
    30be:	fdc42503          	lw	a0,-36(s0)
    30c2:	422010ef          	jal	ra,44e4 <uart_putbuff>
D:\A_Dual1\Dual-core_Communication_Demo\Dual-core_Communication_Demo\SLAVE\obj/../Libraries/seekfree_peripheral/SEEKFREE_MT9V03X.c:166
        
        //
        while(!uart_receive_flag);
    30c6:	0001                	nop
D:\A_Dual1\Dual-core_Communication_Demo\Dual-core_Communication_Demo\SLAVE\obj/../Libraries/seekfree_peripheral/SEEKFREE_MT9V03X.c:166 (discriminator 1)
    30c8:	82c1c783          	lbu	a5,-2004(gp) # 20000144 <uart_receive_flag>
    30cc:	0ff7f793          	andi	a5,a5,255
    30d0:	dfe5                	beqz	a5,30c8 <get_config+0x68>
D:\A_Dual1\Dual-core_Communication_Demo\Dual-core_Communication_Demo\SLAVE\obj/../Libraries/seekfree_peripheral/SEEKFREE_MT9V03X.c:167 (discriminator 2)
        uart_receive_flag = 0;
    30d2:	82018623          	sb	zero,-2004(gp) # 20000144 <uart_receive_flag>
D:\A_Dual1\Dual-core_Communication_Demo\Dual-core_Communication_Demo\SLAVE\obj/../Libraries/seekfree_peripheral/SEEKFREE_MT9V03X.c:169 (discriminator 2)
        
        buff[i][1] = receive[1]<<8 | receive[2];
    30d6:	82818793          	addi	a5,gp,-2008 # 20000140 <receive>
    30da:	0017c783          	lbu	a5,1(a5)
    30de:	07a2                	slli	a5,a5,0x8
    30e0:	01079693          	slli	a3,a5,0x10
    30e4:	86c1                	srai	a3,a3,0x10
    30e6:	82818793          	addi	a5,gp,-2008 # 20000140 <receive>
    30ea:	0027c783          	lbu	a5,2(a5)
    30ee:	01079713          	slli	a4,a5,0x10
    30f2:	8741                	srai	a4,a4,0x10
    30f4:	fee45783          	lhu	a5,-18(s0)
    30f8:	078a                	slli	a5,a5,0x2
    30fa:	fd842603          	lw	a2,-40(s0)
    30fe:	97b2                	add	a5,a5,a2
    3100:	8f55                	or	a4,a4,a3
    3102:	0742                	slli	a4,a4,0x10
    3104:	8741                	srai	a4,a4,0x10
    3106:	00e79123          	sh	a4,2(a5)
D:\A_Dual1\Dual-core_Communication_Demo\Dual-core_Communication_Demo\SLAVE\obj/../Libraries/seekfree_peripheral/SEEKFREE_MT9V03X.c:155 (discriminator 2)
    for(i=0; i<CONFIG_FINISH-1; i++)
    310a:	fee45783          	lhu	a5,-18(s0)
    310e:	0785                	addi	a5,a5,1
    3110:	fef41723          	sh	a5,-18(s0)
D:\A_Dual1\Dual-core_Communication_Demo\Dual-core_Communication_Demo\SLAVE\obj/../Libraries/seekfree_peripheral/SEEKFREE_MT9V03X.c:155 (discriminator 1)
    3114:	fee45703          	lhu	a4,-18(s0)
    3118:	479d                	li	a5,7
    311a:	f4e7fee3          	bgeu	a5,a4,3076 <get_config+0x16>
D:\A_Dual1\Dual-core_Communication_Demo\Dual-core_Communication_Demo\SLAVE\obj/../Libraries/seekfree_peripheral/SEEKFREE_MT9V03X.c:171
    }
}
    311e:	0001                	nop
    3120:	50b2                	lw	ra,44(sp)
    3122:	5422                	lw	s0,40(sp)
    3124:	6145                	addi	sp,sp,48
    3126:	8082                	ret

00003128 <mt9v03x_vsync_init>:
mt9v03x_vsync_init():
D:\A_Dual1\Dual-core_Communication_Demo\Dual-core_Communication_Demo\SLAVE\obj/../Libraries/seekfree_peripheral/SEEKFREE_MT9V03X.c:281
//  @return     void        NULL
//  @since      v1.0
//  Sample usage:
//-------------------------------------------------------------------------------------------------------------------
void mt9v03x_vsync_init(void)
{
    3128:	1141                	addi	sp,sp,-16
    312a:	c606                	sw	ra,12(sp)
    312c:	c422                	sw	s0,8(sp)
    312e:	0800                	addi	s0,sp,16
D:\A_Dual1\Dual-core_Communication_Demo\Dual-core_Communication_Demo\SLAVE\obj/../Libraries/seekfree_peripheral/SEEKFREE_MT9V03X.c:282
    gpio_interrupt_init(MT9V03X_VSYNC_PIN, FALLING, IN_PULLUP);
    3130:	04800613          	li	a2,72
    3134:	45b1                	li	a1,12
    3136:	4505                	li	a0,1
    3138:	254d                	jal	37da <gpio_interrupt_init>
D:\A_Dual1\Dual-core_Communication_Demo\Dual-core_Communication_Demo\SLAVE\obj/../Libraries/seekfree_peripheral/SEEKFREE_MT9V03X.c:283
    nvic_init(MT9V03X_VSYNC_IRQN, 1, 0, ENABLE);
    313a:	4685                	li	a3,1
    313c:	4601                	li	a2,0
    313e:	4585                	li	a1,1
    3140:	455d                	li	a0,23
    3142:	71a000ef          	jal	ra,385c <nvic_init>
D:\A_Dual1\Dual-core_Communication_Demo\Dual-core_Communication_Demo\SLAVE\obj/../Libraries/seekfree_peripheral/SEEKFREE_MT9V03X.c:284
}
    3146:	0001                	nop
    3148:	40b2                	lw	ra,12(sp)
    314a:	4422                	lw	s0,8(sp)
    314c:	0141                	addi	sp,sp,16
    314e:	8082                	ret

00003150 <mt9v03x_tim1_etr_init>:
mt9v03x_tim1_etr_init():
D:\A_Dual1\Dual-core_Communication_Demo\Dual-core_Communication_Demo\SLAVE\obj/../Libraries/seekfree_peripheral/SEEKFREE_MT9V03X.c:294
//  @return     void        NULL
//  @since      v1.0
//  Sample usage:
//-------------------------------------------------------------------------------------------------------------------
void mt9v03x_tim1_etr_init(void)
{
    3150:	1141                	addi	sp,sp,-16
    3152:	c606                	sw	ra,12(sp)
    3154:	c422                	sw	s0,8(sp)
    3156:	0800                	addi	s0,sp,16
D:\A_Dual1\Dual-core_Communication_Demo\Dual-core_Communication_Demo\SLAVE\obj/../Libraries/seekfree_peripheral/SEEKFREE_MT9V03X.c:295
    camera_tim_etr_init(TIMER_1, MT9V03X_PCLK_PIN);
    3158:	45b1                	li	a1,12
    315a:	4501                	li	a0,0
    315c:	2e41                	jal	34ec <camera_tim_etr_init>
D:\A_Dual1\Dual-core_Communication_Demo\Dual-core_Communication_Demo\SLAVE\obj/../Libraries/seekfree_peripheral/SEEKFREE_MT9V03X.c:296
}
    315e:	0001                	nop
    3160:	40b2                	lw	ra,12(sp)
    3162:	4422                	lw	s0,8(sp)
    3164:	0141                	addi	sp,sp,16
    3166:	8082                	ret

00003168 <mt9v03x_dma_init>:
mt9v03x_dma_init():
D:\A_Dual1\Dual-core_Communication_Demo\Dual-core_Communication_Demo\SLAVE\obj/../Libraries/seekfree_peripheral/SEEKFREE_MT9V03X.c:306
//  @return     void        NULL
//  @since      v1.0
//  Sample usage:
//-------------------------------------------------------------------------------------------------------------------
void mt9v03x_dma_init(void)
{
    3168:	1101                	addi	sp,sp,-32
    316a:	ce06                	sw	ra,28(sp)
    316c:	cc22                	sw	s0,24(sp)
    316e:	1000                	addi	s0,sp,32
D:\A_Dual1\Dual-core_Communication_Demo\Dual-core_Communication_Demo\SLAVE\obj/../Libraries/seekfree_peripheral/SEEKFREE_MT9V03X.c:311
    uint8 data_pin,num;


    //
    data_pin = (uint8)(((MT9V03X_DATA_PIN - (GPIOA_BASE+8)) >> 10) << 5) +
    3170:	04000793          	li	a5,64
    3174:	fef40723          	sb	a5,-18(s0)
D:\A_Dual1\Dual-core_Communication_Demo\Dual-core_Communication_Demo\SLAVE\obj/../Libraries/seekfree_peripheral/SEEKFREE_MT9V03X.c:314
                (((MT9V03X_DATA_PIN - (GPIOA_BASE+8)) & 0x0F) << 3);

    for(num=7; num>0; num--)
    3178:	479d                	li	a5,7
    317a:	fef407a3          	sb	a5,-17(s0)
    317e:	a005                	j	319e <mt9v03x_dma_init+0x36>
D:\A_Dual1\Dual-core_Communication_Demo\Dual-core_Communication_Demo\SLAVE\obj/../Libraries/seekfree_peripheral/SEEKFREE_MT9V03X.c:316 (discriminator 3)
    {
        gpio_init((PIN_enum)(num + data_pin), GPI, 0, IN_FLOAT);
    3180:	fef44703          	lbu	a4,-17(s0)
    3184:	fee44783          	lbu	a5,-18(s0)
    3188:	97ba                	add	a5,a5,a4
    318a:	4691                	li	a3,4
    318c:	4601                	li	a2,0
    318e:	4581                	li	a1,0
    3190:	853e                	mv	a0,a5
    3192:	2155                	jal	3636 <gpio_init>
D:\A_Dual1\Dual-core_Communication_Demo\Dual-core_Communication_Demo\SLAVE\obj/../Libraries/seekfree_peripheral/SEEKFREE_MT9V03X.c:314 (discriminator 3)
    for(num=7; num>0; num--)
    3194:	fef44783          	lbu	a5,-17(s0)
    3198:	17fd                	addi	a5,a5,-1
    319a:	fef407a3          	sb	a5,-17(s0)
D:\A_Dual1\Dual-core_Communication_Demo\Dual-core_Communication_Demo\SLAVE\obj/../Libraries/seekfree_peripheral/SEEKFREE_MT9V03X.c:314 (discriminator 1)
    319e:	fef44783          	lbu	a5,-17(s0)
    31a2:	fff9                	bnez	a5,3180 <mt9v03x_dma_init+0x18>
D:\A_Dual1\Dual-core_Communication_Demo\Dual-core_Communication_Demo\SLAVE\obj/../Libraries/seekfree_peripheral/SEEKFREE_MT9V03X.c:321
    }


    //DMA
    camera_dma_init(MT9V03X_DMA_CH,(uint32)MT9V03X_DATA_PIN, (uint32)camera_buffer_addr, MT9V03X_H*MT9V03X_W);
    31a4:	83c1a783          	lw	a5,-1988(gp) # 20000154 <camera_buffer_addr>
    31a8:	873e                	mv	a4,a5
    31aa:	6789                	lui	a5,0x2
    31ac:	4b878693          	addi	a3,a5,1208 # 24b8 <USART_ClearITPendingBit+0x22>
    31b0:	863a                	mv	a2,a4
    31b2:	400117b7          	lui	a5,0x40011
    31b6:	00878593          	addi	a1,a5,8 # 40011008 <_eusrstack+0x2000c008>
    31ba:	400207b7          	lui	a5,0x40020
    31be:	04478513          	addi	a0,a5,68 # 40020044 <_eusrstack+0x2001b044>
    31c2:	2ac1                	jal	3392 <camera_dma_init>
D:\A_Dual1\Dual-core_Communication_Demo\Dual-core_Communication_Demo\SLAVE\obj/../Libraries/seekfree_peripheral/SEEKFREE_MT9V03X.c:322
    nvic_init(MT9V03X_DMA_IRQN, 0, 0, ENABLE);          //
    31c4:	4685                	li	a3,1
    31c6:	4601                	li	a2,0
    31c8:	4581                	li	a1,0
    31ca:	4579                	li	a0,30
    31cc:	2d41                	jal	385c <nvic_init>
D:\A_Dual1\Dual-core_Communication_Demo\Dual-core_Communication_Demo\SLAVE\obj/../Libraries/seekfree_peripheral/SEEKFREE_MT9V03X.c:323
}
    31ce:	0001                	nop
    31d0:	40f2                	lw	ra,28(sp)
    31d2:	4462                	lw	s0,24(sp)
    31d4:	6105                	addi	sp,sp,32
    31d6:	8082                	ret

000031d8 <mt9v03x_init>:
mt9v03x_init():
D:\A_Dual1\Dual-core_Communication_Demo\Dual-core_Communication_Demo\SLAVE\obj/../Libraries/seekfree_peripheral/SEEKFREE_MT9V03X.c:334
//  @return     void
//  @since      v1.0
//  Sample usage:   FLEXIO
//-------------------------------------------------------------------------------------------------------------------
void mt9v03x_init(void)
{
    31d8:	1141                	addi	sp,sp,-16
    31da:	c606                	sw	ra,12(sp)
    31dc:	c422                	sw	s0,8(sp)
    31de:	0800                	addi	s0,sp,16
D:\A_Dual1\Dual-core_Communication_Demo\Dual-core_Communication_Demo\SLAVE\obj/../Libraries/seekfree_peripheral/SEEKFREE_MT9V03X.c:336
    
    camera_type = CAMERA_GRAYSCALE;//
    31e0:	200007b7          	lui	a5,0x20000
    31e4:	4705                	li	a4,1
    31e6:	10e7ae23          	sw	a4,284(a5) # 2000011c <camera_type>
D:\A_Dual1\Dual-core_Communication_Demo\Dual-core_Communication_Demo\SLAVE\obj/../Libraries/seekfree_peripheral/SEEKFREE_MT9V03X.c:337
    camera_buffer_addr = mt9v03x_image[0];
    31ea:	20000737          	lui	a4,0x20000
    31ee:	1c870713          	addi	a4,a4,456 # 200001c8 <mt9v03x_image>
    31f2:	82e1ae23          	sw	a4,-1988(gp) # 20000154 <camera_buffer_addr>
D:\A_Dual1\Dual-core_Communication_Demo\Dual-core_Communication_Demo\SLAVE\obj/../Libraries/seekfree_peripheral/SEEKFREE_MT9V03X.c:339

    uart_init (MT9V03X_COF_UART, 9600,MT9V03X_COF_UART_TX, MT9V03X_COF_UART_RX);    // 
    31f6:	46c5                	li	a3,17
    31f8:	4641                	li	a2,16
    31fa:	6789                	lui	a5,0x2
    31fc:	58078593          	addi	a1,a5,1408 # 2580 <lcd_writeData+0x4a>
    3200:	4505                	li	a0,1
    3202:	186010ef          	jal	ra,4388 <uart_init>
D:\A_Dual1\Dual-core_Communication_Demo\Dual-core_Communication_Demo\SLAVE\obj/../Libraries/seekfree_peripheral/SEEKFREE_MT9V03X.c:340
    uart_rx_irq(MT9V03X_COF_UART, ENABLE);
    3206:	4585                	li	a1,1
    3208:	4505                	li	a0,1
    320a:	322010ef          	jal	ra,452c <uart_rx_irq>
D:\A_Dual1\Dual-core_Communication_Demo\Dual-core_Communication_Demo\SLAVE\obj/../Libraries/seekfree_peripheral/SEEKFREE_MT9V03X.c:341
    EnableGlobalIRQ(0);
    320e:	4501                	li	a0,0
    3210:	792000ef          	jal	ra,39a2 <EnableGlobalIRQ>
D:\A_Dual1\Dual-core_Communication_Demo\Dual-core_Communication_Demo\SLAVE\obj/../Libraries/seekfree_peripheral/SEEKFREE_MT9V03X.c:344


    uart_receive_flag = 0;
    3214:	82018623          	sb	zero,-2004(gp) # 20000144 <uart_receive_flag>
D:\A_Dual1\Dual-core_Communication_Demo\Dual-core_Communication_Demo\SLAVE\obj/../Libraries/seekfree_peripheral/SEEKFREE_MT9V03X.c:347
    //  
    //systick_delay_ms(1000);//
    get_config(MT9V03X_COF_UART, GET_CFG);//
    3218:	200007b7          	lui	a5,0x20000
    321c:	03478593          	addi	a1,a5,52 # 20000034 <GET_CFG>
    3220:	4505                	li	a0,1
    3222:	3d3d                	jal	3060 <get_config>
D:\A_Dual1\Dual-core_Communication_Demo\Dual-core_Communication_Demo\SLAVE\obj/../Libraries/seekfree_peripheral/SEEKFREE_MT9V03X.c:349

    uart_receive_flag = 0;
    3224:	82018623          	sb	zero,-2004(gp) # 20000144 <uart_receive_flag>
D:\A_Dual1\Dual-core_Communication_Demo\Dual-core_Communication_Demo\SLAVE\obj/../Libraries/seekfree_peripheral/SEEKFREE_MT9V03X.c:350
    set_config(MT9V03X_COF_UART, MT9V03X_CFG);
    3228:	200007b7          	lui	a5,0x20000
    322c:	01078593          	addi	a1,a5,16 # 20000010 <MT9V03X_CFG>
    3230:	4505                	li	a0,1
    3232:	d3fff0ef          	jal	ra,2f70 <set_config>
D:\A_Dual1\Dual-core_Communication_Demo\Dual-core_Communication_Demo\SLAVE\obj/../Libraries/seekfree_peripheral/SEEKFREE_MT9V03X.c:352

    uart_receive_flag = 0;
    3236:	82018623          	sb	zero,-2004(gp) # 20000144 <uart_receive_flag>
D:\A_Dual1\Dual-core_Communication_Demo\Dual-core_Communication_Demo\SLAVE\obj/../Libraries/seekfree_peripheral/SEEKFREE_MT9V03X.c:354
    //
    get_config(MT9V03X_COF_UART, GET_CFG);
    323a:	200007b7          	lui	a5,0x20000
    323e:	03478593          	addi	a1,a5,52 # 20000034 <GET_CFG>
    3242:	4505                	li	a0,1
    3244:	3d31                	jal	3060 <get_config>
D:\A_Dual1\Dual-core_Communication_Demo\Dual-core_Communication_Demo\SLAVE\obj/../Libraries/seekfree_peripheral/SEEKFREE_MT9V03X.c:356
    
    DisableGlobalIRQ();
    3246:	714000ef          	jal	ra,395a <DisableGlobalIRQ>
D:\A_Dual1\Dual-core_Communication_Demo\Dual-core_Communication_Demo\SLAVE\obj/../Libraries/seekfree_peripheral/SEEKFREE_MT9V03X.c:359

    //DMA
    mt9v03x_dma_init();
    324a:	3f39                	jal	3168 <mt9v03x_dma_init>
D:\A_Dual1\Dual-core_Communication_Demo\Dual-core_Communication_Demo\SLAVE\obj/../Libraries/seekfree_peripheral/SEEKFREE_MT9V03X.c:361
    //GPIO,PLCK
    mt9v03x_tim1_etr_init();
    324c:	3711                	jal	3150 <mt9v03x_tim1_etr_init>
D:\A_Dual1\Dual-core_Communication_Demo\Dual-core_Communication_Demo\SLAVE\obj/../Libraries/seekfree_peripheral/SEEKFREE_MT9V03X.c:363
    //VSYNC
    mt9v03x_vsync_init();
    324e:	3de9                	jal	3128 <mt9v03x_vsync_init>
D:\A_Dual1\Dual-core_Communication_Demo\Dual-core_Communication_Demo\SLAVE\obj/../Libraries/seekfree_peripheral/SEEKFREE_MT9V03X.c:364
}
    3250:	0001                	nop
    3252:	40b2                	lw	ra,12(sp)
    3254:	4422                	lw	s0,8(sp)
    3256:	0141                	addi	sp,sp,16
    3258:	8082                	ret

0000325a <mt9v03x_vsync>:
mt9v03x_vsync():
D:\A_Dual1\Dual-core_Communication_Demo\Dual-core_Communication_Demo\SLAVE\obj/../Libraries/seekfree_peripheral/SEEKFREE_MT9V03X.c:376
//  @return     void
//  @since      v1.0
//  Sample usage:               isr.c()
//-------------------------------------------------------------------------------------------------------------------
void mt9v03x_vsync(void)
{
    325a:	1141                	addi	sp,sp,-16
    325c:	c622                	sw	s0,12(sp)
    325e:	0800                	addi	s0,sp,16
D:\A_Dual1\Dual-core_Communication_Demo\Dual-core_Communication_Demo\SLAVE\obj/../Libraries/seekfree_peripheral/SEEKFREE_MT9V03X.c:377
    MT9V03X_DMA_CH->CNTR = MT9V03X_H*MT9V03X_W;             //DMADMA
    3260:	400207b7          	lui	a5,0x40020
    3264:	04478793          	addi	a5,a5,68 # 40020044 <_eusrstack+0x2001b044>
    3268:	6709                	lui	a4,0x2
    326a:	4b870713          	addi	a4,a4,1208 # 24b8 <USART_ClearITPendingBit+0x22>
    326e:	c3d8                	sw	a4,4(a5)
D:\A_Dual1\Dual-core_Communication_Demo\Dual-core_Communication_Demo\SLAVE\obj/../Libraries/seekfree_peripheral/SEEKFREE_MT9V03X.c:378
    MT9V03X_DMA_CH->CFGR |= DMA_CFGR1_EN;
    3270:	400207b7          	lui	a5,0x40020
    3274:	04478793          	addi	a5,a5,68 # 40020044 <_eusrstack+0x2001b044>
    3278:	4398                	lw	a4,0(a5)
    327a:	400207b7          	lui	a5,0x40020
    327e:	04478793          	addi	a5,a5,68 # 40020044 <_eusrstack+0x2001b044>
    3282:	00176713          	ori	a4,a4,1
    3286:	c398                	sw	a4,0(a5)
D:\A_Dual1\Dual-core_Communication_Demo\Dual-core_Communication_Demo\SLAVE\obj/../Libraries/seekfree_peripheral/SEEKFREE_MT9V03X.c:379
}
    3288:	0001                	nop
    328a:	4432                	lw	s0,12(sp)
    328c:	0141                	addi	sp,sp,16
    328e:	8082                	ret

00003290 <mt9v03x_dma>:
mt9v03x_dma():
D:\A_Dual1\Dual-core_Communication_Demo\Dual-core_Communication_Demo\SLAVE\obj/../Libraries/seekfree_peripheral/SEEKFREE_MT9V03X.c:389
//  @return     void
//  @since      v1.0
//  Sample usage:
//-------------------------------------------------------------------------------------------------------------------
void mt9v03x_dma(void)
{
    3290:	1141                	addi	sp,sp,-16
    3292:	c622                	sw	s0,12(sp)
    3294:	0800                	addi	s0,sp,16
D:\A_Dual1\Dual-core_Communication_Demo\Dual-core_Communication_Demo\SLAVE\obj/../Libraries/seekfree_peripheral/SEEKFREE_MT9V03X.c:390
    mt9v03x_finish_flag = 1;//3.8MS(50FPS188*120)
    3296:	4705                	li	a4,1
    3298:	82e186a3          	sb	a4,-2003(gp) # 20000145 <mt9v03x_finish_flag>
D:\A_Dual1\Dual-core_Communication_Demo\Dual-core_Communication_Demo\SLAVE\obj/../Libraries/seekfree_peripheral/SEEKFREE_MT9V03X.c:391
    MT9V03X_DMA_CH->CFGR &= (uint16)(~DMA_CFGR1_EN);   //DMA1
    329c:	400207b7          	lui	a5,0x40020
    32a0:	04478793          	addi	a5,a5,68 # 40020044 <_eusrstack+0x2001b044>
    32a4:	4394                	lw	a3,0(a5)
    32a6:	400207b7          	lui	a5,0x40020
    32aa:	04478793          	addi	a5,a5,68 # 40020044 <_eusrstack+0x2001b044>
    32ae:	6741                	lui	a4,0x10
    32b0:	1779                	addi	a4,a4,-2
    32b2:	8f75                	and	a4,a4,a3
    32b4:	c398                	sw	a4,0(a5)
D:\A_Dual1\Dual-core_Communication_Demo\Dual-core_Communication_Demo\SLAVE\obj/../Libraries/seekfree_peripheral/SEEKFREE_MT9V03X.c:392
}
    32b6:	0001                	nop
    32b8:	4432                	lw	s0,12(sp)
    32ba:	0141                	addi	sp,sp,16
    32bc:	8082                	ret

000032be <ov7725_cof_uart_interrupt>:
ov7725_cof_uart_interrupt():
D:\A_Dual1\Dual-core_Communication_Demo\Dual-core_Communication_Demo\SLAVE\obj/../Libraries/seekfree_peripheral/SEEKFREE_UART_7725.c:81
//  Sample usage:
//  @note       ISR 3
//-------------------------------------------------------------------------------------------------------------------

void ov7725_cof_uart_interrupt(void)
{
    32be:	1141                	addi	sp,sp,-16
    32c0:	c622                	sw	s0,12(sp)
    32c2:	0800                	addi	s0,sp,16
D:\A_Dual1\Dual-core_Communication_Demo\Dual-core_Communication_Demo\SLAVE\obj/../Libraries/seekfree_peripheral/SEEKFREE_UART_7725.c:83

    ov7725_uart_receive[ov7725_uart_receive_num] = ((USART_TypeDef*)UARTN[OV7725_UART_COF_UART])->DATAR & 0x01FF;
    32c4:	67a9                	lui	a5,0xa
    32c6:	d9478793          	addi	a5,a5,-620 # 9d94 <UARTN>
    32ca:	43dc                	lw	a5,4(a5)
    32cc:	0047d783          	lhu	a5,4(a5)
    32d0:	01079713          	slli	a4,a5,0x10
    32d4:	8341                	srli	a4,a4,0x10
    32d6:	8331c783          	lbu	a5,-1997(gp) # 2000014b <ov7725_uart_receive_num>
    32da:	86be                	mv	a3,a5
    32dc:	0ff77713          	andi	a4,a4,255
    32e0:	83018793          	addi	a5,gp,-2000 # 20000148 <ov7725_uart_receive>
    32e4:	97b6                	add	a5,a5,a3
    32e6:	00e78023          	sb	a4,0(a5)
D:\A_Dual1\Dual-core_Communication_Demo\Dual-core_Communication_Demo\SLAVE\obj/../Libraries/seekfree_peripheral/SEEKFREE_UART_7725.c:84
    ov7725_uart_receive_num++;
    32ea:	8331c783          	lbu	a5,-1997(gp) # 2000014b <ov7725_uart_receive_num>
    32ee:	0785                	addi	a5,a5,1
    32f0:	0ff7f713          	andi	a4,a5,255
    32f4:	82e189a3          	sb	a4,-1997(gp) # 2000014b <ov7725_uart_receive_num>
D:\A_Dual1\Dual-core_Communication_Demo\Dual-core_Communication_Demo\SLAVE\obj/../Libraries/seekfree_peripheral/SEEKFREE_UART_7725.c:86

    if(1==ov7725_uart_receive_num && 0XA5!=ov7725_uart_receive[0])  ov7725_uart_receive_num = 0;
    32f8:	8331c703          	lbu	a4,-1997(gp) # 2000014b <ov7725_uart_receive_num>
    32fc:	4785                	li	a5,1
    32fe:	00f71a63          	bne	a4,a5,3312 <ov7725_cof_uart_interrupt+0x54>
D:\A_Dual1\Dual-core_Communication_Demo\Dual-core_Communication_Demo\SLAVE\obj/../Libraries/seekfree_peripheral/SEEKFREE_UART_7725.c:86 (discriminator 1)
    3302:	8301c703          	lbu	a4,-2000(gp) # 20000148 <ov7725_uart_receive>
    3306:	0a500793          	li	a5,165
    330a:	00f70463          	beq	a4,a5,3312 <ov7725_cof_uart_interrupt+0x54>
D:\A_Dual1\Dual-core_Communication_Demo\Dual-core_Communication_Demo\SLAVE\obj/../Libraries/seekfree_peripheral/SEEKFREE_UART_7725.c:86 (discriminator 2)
    330e:	820189a3          	sb	zero,-1997(gp) # 2000014b <ov7725_uart_receive_num>
D:\A_Dual1\Dual-core_Communication_Demo\Dual-core_Communication_Demo\SLAVE\obj/../Libraries/seekfree_peripheral/SEEKFREE_UART_7725.c:87
    if(3 == ov7725_uart_receive_num)
    3312:	8331c703          	lbu	a4,-1997(gp) # 2000014b <ov7725_uart_receive_num>
    3316:	478d                	li	a5,3
    3318:	00f71763          	bne	a4,a5,3326 <ov7725_cof_uart_interrupt+0x68>
D:\A_Dual1\Dual-core_Communication_Demo\Dual-core_Communication_Demo\SLAVE\obj/../Libraries/seekfree_peripheral/SEEKFREE_UART_7725.c:89
    {
        ov7725_uart_receive_num = 0;
    331c:	820189a3          	sb	zero,-1997(gp) # 2000014b <ov7725_uart_receive_num>
D:\A_Dual1\Dual-core_Communication_Demo\Dual-core_Communication_Demo\SLAVE\obj/../Libraries/seekfree_peripheral/SEEKFREE_UART_7725.c:90
        ov7725_uart_receive_flag = 1;
    3320:	4705                	li	a4,1
    3322:	82e18a23          	sb	a4,-1996(gp) # 2000014c <ov7725_uart_receive_flag>
D:\A_Dual1\Dual-core_Communication_Demo\Dual-core_Communication_Demo\SLAVE\obj/../Libraries/seekfree_peripheral/SEEKFREE_UART_7725.c:92
    }
}
    3326:	0001                	nop
    3328:	4432                	lw	s0,12(sp)
    332a:	0141                	addi	sp,sp,16
    332c:	8082                	ret

0000332e <ov7725_uart_vsync>:
ov7725_uart_vsync():
D:\A_Dual1\Dual-core_Communication_Demo\Dual-core_Communication_Demo\SLAVE\obj/../Libraries/seekfree_peripheral/SEEKFREE_UART_7725.c:103
//  @since      v1.0
//  Sample usage:                   isr.c()
//-------------------------------------------------------------------------------------------------------------------

void ov7725_uart_vsync(void)
{
    332e:	1141                	addi	sp,sp,-16
    3330:	c622                	sw	s0,12(sp)
    3332:	0800                	addi	s0,sp,16
D:\A_Dual1\Dual-core_Communication_Demo\Dual-core_Communication_Demo\SLAVE\obj/../Libraries/seekfree_peripheral/SEEKFREE_UART_7725.c:104
    OV7725_UART_DMA_CH->CNTR = OV7725_UART_SIZE;             //DMADMA
    3334:	400207b7          	lui	a5,0x40020
    3338:	04478793          	addi	a5,a5,68 # 40020044 <_eusrstack+0x2001b044>
    333c:	6705                	lui	a4,0x1
    333e:	96070713          	addi	a4,a4,-1696 # 960 <__stack_size+0x160>
    3342:	c3d8                	sw	a4,4(a5)
D:\A_Dual1\Dual-core_Communication_Demo\Dual-core_Communication_Demo\SLAVE\obj/../Libraries/seekfree_peripheral/SEEKFREE_UART_7725.c:105
    OV7725_UART_DMA_CH->CFGR |= DMA_CFGR1_EN;                //DMA1
    3344:	400207b7          	lui	a5,0x40020
    3348:	04478793          	addi	a5,a5,68 # 40020044 <_eusrstack+0x2001b044>
    334c:	4398                	lw	a4,0(a5)
    334e:	400207b7          	lui	a5,0x40020
    3352:	04478793          	addi	a5,a5,68 # 40020044 <_eusrstack+0x2001b044>
    3356:	00176713          	ori	a4,a4,1
    335a:	c398                	sw	a4,0(a5)
D:\A_Dual1\Dual-core_Communication_Demo\Dual-core_Communication_Demo\SLAVE\obj/../Libraries/seekfree_peripheral/SEEKFREE_UART_7725.c:106
}
    335c:	0001                	nop
    335e:	4432                	lw	s0,12(sp)
    3360:	0141                	addi	sp,sp,16
    3362:	8082                	ret

00003364 <ov7725_uart_dma>:
ov7725_uart_dma():
D:\A_Dual1\Dual-core_Communication_Demo\Dual-core_Communication_Demo\SLAVE\obj/../Libraries/seekfree_peripheral/SEEKFREE_UART_7725.c:117
//  @return     void
//  @since      v1.0
//  Sample usage:                   isr.c()
//-------------------------------------------------------------------------------------------------------------------
void ov7725_uart_dma(void)
{
    3364:	1141                	addi	sp,sp,-16
    3366:	c622                	sw	s0,12(sp)
    3368:	0800                	addi	s0,sp,16
D:\A_Dual1\Dual-core_Communication_Demo\Dual-core_Communication_Demo\SLAVE\obj/../Libraries/seekfree_peripheral/SEEKFREE_UART_7725.c:118
    ov7725_uart_finish_flag = 1;                             //1
    336a:	4705                	li	a4,1
    336c:	82e18aa3          	sb	a4,-1995(gp) # 2000014d <ov7725_uart_finish_flag>
D:\A_Dual1\Dual-core_Communication_Demo\Dual-core_Communication_Demo\SLAVE\obj/../Libraries/seekfree_peripheral/SEEKFREE_UART_7725.c:119
    OV7725_UART_DMA_CH->CFGR &= (uint16)(~DMA_CFGR1_EN);     //DMA1
    3370:	400207b7          	lui	a5,0x40020
    3374:	04478793          	addi	a5,a5,68 # 40020044 <_eusrstack+0x2001b044>
    3378:	4394                	lw	a3,0(a5)
    337a:	400207b7          	lui	a5,0x40020
    337e:	04478793          	addi	a5,a5,68 # 40020044 <_eusrstack+0x2001b044>
    3382:	6741                	lui	a4,0x10
    3384:	1779                	addi	a4,a4,-2
    3386:	8f75                	and	a4,a4,a3
    3388:	c398                	sw	a4,0(a5)
D:\A_Dual1\Dual-core_Communication_Demo\Dual-core_Communication_Demo\SLAVE\obj/../Libraries/seekfree_peripheral/SEEKFREE_UART_7725.c:120
}
    338a:	0001                	nop
    338c:	4432                	lw	s0,12(sp)
    338e:	0141                	addi	sp,sp,16
    3390:	8082                	ret

00003392 <camera_dma_init>:
camera_dma_init():
D:\A_Dual1\Dual-core_Communication_Demo\Dual-core_Communication_Demo\SLAVE\obj/../Libraries/seekfree_libraries/zf_camera.c:38
//  @param      size                
//  @return     void
//  Sample usage:                   camera_dma_init(DMA1_Channel4, GPIOA->ODR, GPIOC->ODR, 8);
//-------------------------------------------------------------------------------------------------------------------
void camera_dma_init(DMA_Channel_TypeDef* dma_ch,uint32 src_addr, uint32 des_addr, uint32 size)
{
    3392:	715d                	addi	sp,sp,-80
    3394:	c686                	sw	ra,76(sp)
    3396:	c4a2                	sw	s0,72(sp)
    3398:	0880                	addi	s0,sp,80
    339a:	faa42e23          	sw	a0,-68(s0)
    339e:	fab42c23          	sw	a1,-72(s0)
    33a2:	fac42a23          	sw	a2,-76(s0)
    33a6:	fad42823          	sw	a3,-80(s0)
D:\A_Dual1\Dual-core_Communication_Demo\Dual-core_Communication_Demo\SLAVE\obj/../Libraries/seekfree_libraries/zf_camera.c:41
    DMA_InitTypeDef DMA_InitStructure;

    if(DMA1_Channel1 == dma_ch || DMA1_Channel2 == dma_ch || DMA1_Channel3 == dma_ch || DMA1_Channel4 == dma_ch ||
    33aa:	fbc42703          	lw	a4,-68(s0)
    33ae:	400207b7          	lui	a5,0x40020
    33b2:	07a1                	addi	a5,a5,8
    33b4:	06f70163          	beq	a4,a5,3416 <camera_dma_init+0x84>
D:\A_Dual1\Dual-core_Communication_Demo\Dual-core_Communication_Demo\SLAVE\obj/../Libraries/seekfree_libraries/zf_camera.c:41 (discriminator 1)
    33b8:	fbc42703          	lw	a4,-68(s0)
    33bc:	400207b7          	lui	a5,0x40020
    33c0:	07f1                	addi	a5,a5,28
    33c2:	04f70a63          	beq	a4,a5,3416 <camera_dma_init+0x84>
D:\A_Dual1\Dual-core_Communication_Demo\Dual-core_Communication_Demo\SLAVE\obj/../Libraries/seekfree_libraries/zf_camera.c:41 (discriminator 2)
    33c6:	fbc42703          	lw	a4,-68(s0)
    33ca:	400207b7          	lui	a5,0x40020
    33ce:	03078793          	addi	a5,a5,48 # 40020030 <_eusrstack+0x2001b030>
    33d2:	04f70263          	beq	a4,a5,3416 <camera_dma_init+0x84>
D:\A_Dual1\Dual-core_Communication_Demo\Dual-core_Communication_Demo\SLAVE\obj/../Libraries/seekfree_libraries/zf_camera.c:41 (discriminator 3)
    33d6:	fbc42703          	lw	a4,-68(s0)
    33da:	400207b7          	lui	a5,0x40020
    33de:	04478793          	addi	a5,a5,68 # 40020044 <_eusrstack+0x2001b044>
    33e2:	02f70a63          	beq	a4,a5,3416 <camera_dma_init+0x84>
D:\A_Dual1\Dual-core_Communication_Demo\Dual-core_Communication_Demo\SLAVE\obj/../Libraries/seekfree_libraries/zf_camera.c:41 (discriminator 4)
    33e6:	fbc42703          	lw	a4,-68(s0)
    33ea:	400207b7          	lui	a5,0x40020
    33ee:	05878793          	addi	a5,a5,88 # 40020058 <_eusrstack+0x2001b058>
    33f2:	02f70263          	beq	a4,a5,3416 <camera_dma_init+0x84>
D:\A_Dual1\Dual-core_Communication_Demo\Dual-core_Communication_Demo\SLAVE\obj/../Libraries/seekfree_libraries/zf_camera.c:42
       DMA1_Channel5 == dma_ch || DMA1_Channel6 == dma_ch || DMA1_Channel7 == dma_ch)
    33f6:	fbc42703          	lw	a4,-68(s0)
    33fa:	400207b7          	lui	a5,0x40020
    33fe:	06c78793          	addi	a5,a5,108 # 4002006c <_eusrstack+0x2001b06c>
    3402:	00f70a63          	beq	a4,a5,3416 <camera_dma_init+0x84>
D:\A_Dual1\Dual-core_Communication_Demo\Dual-core_Communication_Demo\SLAVE\obj/../Libraries/seekfree_libraries/zf_camera.c:42 (discriminator 1)
    3406:	fbc42703          	lw	a4,-68(s0)
    340a:	400207b7          	lui	a5,0x40020
    340e:	08078793          	addi	a5,a5,128 # 40020080 <_eusrstack+0x2001b080>
    3412:	00f71763          	bne	a4,a5,3420 <camera_dma_init+0x8e>
D:\A_Dual1\Dual-core_Communication_Demo\Dual-core_Communication_Demo\SLAVE\obj/../Libraries/seekfree_libraries/zf_camera.c:44
    {
        RCC_AHBPeriphClockCmd(RCC_AHBPeriph_DMA1, ENABLE);//DMA1
    3416:	4585                	li	a1,1
    3418:	4505                	li	a0,1
    341a:	ba4fe0ef          	jal	ra,17be <RCC_AHBPeriphClockCmd>
    341e:	a8a9                	j	3478 <camera_dma_init+0xe6>
D:\A_Dual1\Dual-core_Communication_Demo\Dual-core_Communication_Demo\SLAVE\obj/../Libraries/seekfree_libraries/zf_camera.c:46
    }
    else if(DMA2_Channel1 == dma_ch || DMA2_Channel2 == dma_ch || DMA2_Channel3 == dma_ch ||  DMA2_Channel4 == dma_ch ||
    3420:	fbc42703          	lw	a4,-68(s0)
    3424:	400207b7          	lui	a5,0x40020
    3428:	40878793          	addi	a5,a5,1032 # 40020408 <_eusrstack+0x2001b408>
    342c:	04f70263          	beq	a4,a5,3470 <camera_dma_init+0xde>
D:\A_Dual1\Dual-core_Communication_Demo\Dual-core_Communication_Demo\SLAVE\obj/../Libraries/seekfree_libraries/zf_camera.c:46 (discriminator 1)
    3430:	fbc42703          	lw	a4,-68(s0)
    3434:	400207b7          	lui	a5,0x40020
    3438:	41c78793          	addi	a5,a5,1052 # 4002041c <_eusrstack+0x2001b41c>
    343c:	02f70a63          	beq	a4,a5,3470 <camera_dma_init+0xde>
D:\A_Dual1\Dual-core_Communication_Demo\Dual-core_Communication_Demo\SLAVE\obj/../Libraries/seekfree_libraries/zf_camera.c:46 (discriminator 2)
    3440:	fbc42703          	lw	a4,-68(s0)
    3444:	400207b7          	lui	a5,0x40020
    3448:	43078793          	addi	a5,a5,1072 # 40020430 <_eusrstack+0x2001b430>
    344c:	02f70263          	beq	a4,a5,3470 <camera_dma_init+0xde>
D:\A_Dual1\Dual-core_Communication_Demo\Dual-core_Communication_Demo\SLAVE\obj/../Libraries/seekfree_libraries/zf_camera.c:46 (discriminator 3)
    3450:	fbc42703          	lw	a4,-68(s0)
    3454:	400207b7          	lui	a5,0x40020
    3458:	44478793          	addi	a5,a5,1092 # 40020444 <_eusrstack+0x2001b444>
    345c:	00f70a63          	beq	a4,a5,3470 <camera_dma_init+0xde>
D:\A_Dual1\Dual-core_Communication_Demo\Dual-core_Communication_Demo\SLAVE\obj/../Libraries/seekfree_libraries/zf_camera.c:46 (discriminator 4)
    3460:	fbc42703          	lw	a4,-68(s0)
    3464:	400207b7          	lui	a5,0x40020
    3468:	45878793          	addi	a5,a5,1112 # 40020458 <_eusrstack+0x2001b458>
    346c:	00f71663          	bne	a4,a5,3478 <camera_dma_init+0xe6>
D:\A_Dual1\Dual-core_Communication_Demo\Dual-core_Communication_Demo\SLAVE\obj/../Libraries/seekfree_libraries/zf_camera.c:49
            DMA2_Channel5 == dma_ch)
    {
        RCC_AHBPeriphClockCmd(RCC_AHBPeriph_DMA2, ENABLE);//DMA2
    3470:	4585                	li	a1,1
    3472:	4509                	li	a0,2
    3474:	b4afe0ef          	jal	ra,17be <RCC_AHBPeriphClockCmd>
D:\A_Dual1\Dual-core_Communication_Demo\Dual-core_Communication_Demo\SLAVE\obj/../Libraries/seekfree_libraries/zf_camera.c:52
    }

    DMA_DeInit(dma_ch);
    3478:	fbc42503          	lw	a0,-68(s0)
    347c:	ddcfd0ef          	jal	ra,a58 <DMA_DeInit>
D:\A_Dual1\Dual-core_Communication_Demo\Dual-core_Communication_Demo\SLAVE\obj/../Libraries/seekfree_libraries/zf_camera.c:55

    //MDA
    DMA_InitStructure.DMA_PeripheralBaseAddr = src_addr;                    //
    3480:	fb842783          	lw	a5,-72(s0)
    3484:	fcf42223          	sw	a5,-60(s0)
D:\A_Dual1\Dual-core_Communication_Demo\Dual-core_Communication_Demo\SLAVE\obj/../Libraries/seekfree_libraries/zf_camera.c:56
    DMA_InitStructure.DMA_MemoryBaseAddr = des_addr;                        //
    3488:	fb442783          	lw	a5,-76(s0)
    348c:	fcf42423          	sw	a5,-56(s0)
D:\A_Dual1\Dual-core_Communication_Demo\Dual-core_Communication_Demo\SLAVE\obj/../Libraries/seekfree_libraries/zf_camera.c:57
    DMA_InitStructure.DMA_DIR = DMA_DIR_PeripheralSRC;                      //
    3490:	fc042623          	sw	zero,-52(s0)
D:\A_Dual1\Dual-core_Communication_Demo\Dual-core_Communication_Demo\SLAVE\obj/../Libraries/seekfree_libraries/zf_camera.c:58
    DMA_InitStructure.DMA_BufferSize = size;                                //
    3494:	fb042783          	lw	a5,-80(s0)
    3498:	fcf42823          	sw	a5,-48(s0)
D:\A_Dual1\Dual-core_Communication_Demo\Dual-core_Communication_Demo\SLAVE\obj/../Libraries/seekfree_libraries/zf_camera.c:59
    DMA_InitStructure.DMA_PeripheralInc = DMA_PeripheralInc_Disable;        //
    349c:	fc042a23          	sw	zero,-44(s0)
D:\A_Dual1\Dual-core_Communication_Demo\Dual-core_Communication_Demo\SLAVE\obj/../Libraries/seekfree_libraries/zf_camera.c:60
    DMA_InitStructure.DMA_MemoryInc = DMA_MemoryInc_Enable;                 //+1
    34a0:	08000793          	li	a5,128
    34a4:	fcf42c23          	sw	a5,-40(s0)
D:\A_Dual1\Dual-core_Communication_Demo\Dual-core_Communication_Demo\SLAVE\obj/../Libraries/seekfree_libraries/zf_camera.c:61
    DMA_InitStructure.DMA_PeripheralDataSize = DMA_PeripheralDataSize_Byte; //
    34a8:	fc042e23          	sw	zero,-36(s0)
D:\A_Dual1\Dual-core_Communication_Demo\Dual-core_Communication_Demo\SLAVE\obj/../Libraries/seekfree_libraries/zf_camera.c:62
    DMA_InitStructure.DMA_MemoryDataSize = DMA_MemoryDataSize_Byte;         //
    34ac:	fe042023          	sw	zero,-32(s0)
D:\A_Dual1\Dual-core_Communication_Demo\Dual-core_Communication_Demo\SLAVE\obj/../Libraries/seekfree_libraries/zf_camera.c:63
    DMA_InitStructure.DMA_Mode = DMA_Mode_Normal;                           //
    34b0:	fe042223          	sw	zero,-28(s0)
D:\A_Dual1\Dual-core_Communication_Demo\Dual-core_Communication_Demo\SLAVE\obj/../Libraries/seekfree_libraries/zf_camera.c:64
    DMA_InitStructure.DMA_Priority = DMA_Priority_VeryHigh;                 //
    34b4:	678d                	lui	a5,0x3
    34b6:	fef42423          	sw	a5,-24(s0)
D:\A_Dual1\Dual-core_Communication_Demo\Dual-core_Communication_Demo\SLAVE\obj/../Libraries/seekfree_libraries/zf_camera.c:65
    DMA_InitStructure.DMA_M2M = DMA_M2M_Disable;                            //
    34ba:	fe042623          	sw	zero,-20(s0)
D:\A_Dual1\Dual-core_Communication_Demo\Dual-core_Communication_Demo\SLAVE\obj/../Libraries/seekfree_libraries/zf_camera.c:66
    DMA_Init(dma_ch, &DMA_InitStructure);
    34be:	fc440793          	addi	a5,s0,-60
    34c2:	85be                	mv	a1,a5
    34c4:	fbc42503          	lw	a0,-68(s0)
    34c8:	f9efd0ef          	jal	ra,c66 <DMA_Init>
D:\A_Dual1\Dual-core_Communication_Demo\Dual-core_Communication_Demo\SLAVE\obj/../Libraries/seekfree_libraries/zf_camera.c:68

    DMA_ITConfig(dma_ch, DMA_IT_TC, ENABLE);                                //DMA
    34cc:	4605                	li	a2,1
    34ce:	4589                	li	a1,2
    34d0:	fbc42503          	lw	a0,-68(s0)
    34d4:	87bfd0ef          	jal	ra,d4e <DMA_ITConfig>
D:\A_Dual1\Dual-core_Communication_Demo\Dual-core_Communication_Demo\SLAVE\obj/../Libraries/seekfree_libraries/zf_camera.c:69
    DMA_Cmd(dma_ch, ENABLE);                                                //DMA1
    34d8:	4585                	li	a1,1
    34da:	fbc42503          	lw	a0,-68(s0)
    34de:	831fd0ef          	jal	ra,d0e <DMA_Cmd>
D:\A_Dual1\Dual-core_Communication_Demo\Dual-core_Communication_Demo\SLAVE\obj/../Libraries/seekfree_libraries/zf_camera.c:71

}
    34e2:	0001                	nop
    34e4:	40b6                	lw	ra,76(sp)
    34e6:	4426                	lw	s0,72(sp)
    34e8:	6161                	addi	sp,sp,80
    34ea:	8082                	ret

000034ec <camera_tim_etr_init>:
camera_tim_etr_init():
D:\A_Dual1\Dual-core_Communication_Demo\Dual-core_Communication_Demo\SLAVE\obj/../Libraries/seekfree_libraries/zf_camera.c:82
//  @param      pin                 
//  @return     void
//  Sample usage:                   camera_tim_etr_init(TIMER_1, A12);  //ERT
//-------------------------------------------------------------------------------------------------------------------
void camera_tim_etr_init(TIMERN_enum timern, PIN_enum pin)
{
    34ec:	7179                	addi	sp,sp,-48
    34ee:	d606                	sw	ra,44(sp)
    34f0:	d422                	sw	s0,40(sp)
    34f2:	1800                	addi	s0,sp,48
    34f4:	fca42e23          	sw	a0,-36(s0)
    34f8:	fcb42c23          	sw	a1,-40(s0)
D:\A_Dual1\Dual-core_Communication_Demo\Dual-core_Communication_Demo\SLAVE\obj/../Libraries/seekfree_libraries/zf_camera.c:85
    TIM_TimeBaseInitTypeDef  TIM_TimeBaseStructure;

    RCC_APB2PeriphClockCmd(RCC_APB2Periph_AFIO, ENABLE);
    34fc:	4585                	li	a1,1
    34fe:	4505                	li	a0,1
    3500:	b04fe0ef          	jal	ra,1804 <RCC_APB2PeriphClockCmd>
D:\A_Dual1\Dual-core_Communication_Demo\Dual-core_Communication_Demo\SLAVE\obj/../Libraries/seekfree_libraries/zf_camera.c:86
    if(TIMER_1 == timern)
    3504:	fdc42783          	lw	a5,-36(s0)
    3508:	eb81                	bnez	a5,3518 <camera_tim_etr_init+0x2c>
D:\A_Dual1\Dual-core_Communication_Demo\Dual-core_Communication_Demo\SLAVE\obj/../Libraries/seekfree_libraries/zf_camera.c:87
        RCC_APB2PeriphClockCmd(RCC_APB2Periph_TIM1, ENABLE);
    350a:	4585                	li	a1,1
    350c:	6785                	lui	a5,0x1
    350e:	80078513          	addi	a0,a5,-2048 # 800 <__stack_size>
    3512:	af2fe0ef          	jal	ra,1804 <RCC_APB2PeriphClockCmd>
    3516:	a835                	j	3552 <camera_tim_etr_init+0x66>
D:\A_Dual1\Dual-core_Communication_Demo\Dual-core_Communication_Demo\SLAVE\obj/../Libraries/seekfree_libraries/zf_camera.c:88
    else if(TIMER_2 == timern)
    3518:	fdc42703          	lw	a4,-36(s0)
    351c:	4785                	li	a5,1
    351e:	00f71763          	bne	a4,a5,352c <camera_tim_etr_init+0x40>
D:\A_Dual1\Dual-core_Communication_Demo\Dual-core_Communication_Demo\SLAVE\obj/../Libraries/seekfree_libraries/zf_camera.c:89
        RCC_APB1PeriphClockCmd(RCC_APB1Periph_TIM2, ENABLE);
    3522:	4585                	li	a1,1
    3524:	4505                	li	a0,1
    3526:	b24fe0ef          	jal	ra,184a <RCC_APB1PeriphClockCmd>
    352a:	a025                	j	3552 <camera_tim_etr_init+0x66>
D:\A_Dual1\Dual-core_Communication_Demo\Dual-core_Communication_Demo\SLAVE\obj/../Libraries/seekfree_libraries/zf_camera.c:90
    else if(TIMER_3 == timern)
    352c:	fdc42703          	lw	a4,-36(s0)
    3530:	4789                	li	a5,2
    3532:	00f71763          	bne	a4,a5,3540 <camera_tim_etr_init+0x54>
D:\A_Dual1\Dual-core_Communication_Demo\Dual-core_Communication_Demo\SLAVE\obj/../Libraries/seekfree_libraries/zf_camera.c:91
        RCC_APB1PeriphClockCmd(RCC_APB1Periph_TIM3, ENABLE);
    3536:	4585                	li	a1,1
    3538:	4509                	li	a0,2
    353a:	b10fe0ef          	jal	ra,184a <RCC_APB1PeriphClockCmd>
    353e:	a811                	j	3552 <camera_tim_etr_init+0x66>
D:\A_Dual1\Dual-core_Communication_Demo\Dual-core_Communication_Demo\SLAVE\obj/../Libraries/seekfree_libraries/zf_camera.c:92
    else if(TIMER_4 == timern)
    3540:	fdc42703          	lw	a4,-36(s0)
    3544:	478d                	li	a5,3
    3546:	00f71663          	bne	a4,a5,3552 <camera_tim_etr_init+0x66>
D:\A_Dual1\Dual-core_Communication_Demo\Dual-core_Communication_Demo\SLAVE\obj/../Libraries/seekfree_libraries/zf_camera.c:93
        RCC_APB1PeriphClockCmd(RCC_APB1Periph_TIM4, ENABLE);
    354a:	4585                	li	a1,1
    354c:	4511                	li	a0,4
    354e:	afcfe0ef          	jal	ra,184a <RCC_APB1PeriphClockCmd>
D:\A_Dual1\Dual-core_Communication_Demo\Dual-core_Communication_Demo\SLAVE\obj/../Libraries/seekfree_libraries/zf_camera.c:95

    gpio_init(pin, GPI, 0, IN_FLOAT);
    3552:	4691                	li	a3,4
    3554:	4601                	li	a2,0
    3556:	4581                	li	a1,0
    3558:	fd842503          	lw	a0,-40(s0)
    355c:	28e9                	jal	3636 <gpio_init>
D:\A_Dual1\Dual-core_Communication_Demo\Dual-core_Communication_Demo\SLAVE\obj/../Libraries/seekfree_libraries/zf_camera.c:97

    TIM_TimeBaseStructure.TIM_Period = 0xFFFF;
    355e:	57fd                	li	a5,-1
    3560:	fef41423          	sh	a5,-24(s0)
D:\A_Dual1\Dual-core_Communication_Demo\Dual-core_Communication_Demo\SLAVE\obj/../Libraries/seekfree_libraries/zf_camera.c:98
    TIM_TimeBaseStructure.TIM_Prescaler = 0;
    3564:	fe041223          	sh	zero,-28(s0)
D:\A_Dual1\Dual-core_Communication_Demo\Dual-core_Communication_Demo\SLAVE\obj/../Libraries/seekfree_libraries/zf_camera.c:99
    TIM_TimeBaseStructure.TIM_ClockDivision = TIM_CKD_DIV1;
    3568:	fe041523          	sh	zero,-22(s0)
D:\A_Dual1\Dual-core_Communication_Demo\Dual-core_Communication_Demo\SLAVE\obj/../Libraries/seekfree_libraries/zf_camera.c:100
    TIM_TimeBaseStructure.TIM_CounterMode = TIM_CounterMode_Up;
    356c:	fe041323          	sh	zero,-26(s0)
D:\A_Dual1\Dual-core_Communication_Demo\Dual-core_Communication_Demo\SLAVE\obj/../Libraries/seekfree_libraries/zf_camera.c:101
    TIM_TimeBaseStructure.TIM_RepetitionCounter = 0;
    3570:	fe040623          	sb	zero,-20(s0)
D:\A_Dual1\Dual-core_Communication_Demo\Dual-core_Communication_Demo\SLAVE\obj/../Libraries/seekfree_libraries/zf_camera.c:102
    TIM_TimeBaseInit((TIM_TypeDef*)(TIMERN[timern]), &TIM_TimeBaseStructure);
    3574:	67a9                	lui	a5,0xa
    3576:	fdc42703          	lw	a4,-36(s0)
    357a:	070a                	slli	a4,a4,0x2
    357c:	d7478793          	addi	a5,a5,-652 # 9d74 <TIMERN>
    3580:	97ba                	add	a5,a5,a4
    3582:	439c                	lw	a5,0(a5)
    3584:	873e                	mv	a4,a5
    3586:	fe440793          	addi	a5,s0,-28
    358a:	85be                	mv	a1,a5
    358c:	853a                	mv	a0,a4
    358e:	c54fe0ef          	jal	ra,19e2 <TIM_TimeBaseInit>
D:\A_Dual1\Dual-core_Communication_Demo\Dual-core_Communication_Demo\SLAVE\obj/../Libraries/seekfree_libraries/zf_camera.c:104

    TIM_ETRClockMode1Config((TIM_TypeDef*)(TIMERN[timern]), TIM_ExtTRGPSC_OFF, TIM_ExtTRGPolarity_Inverted, 0x00);
    3592:	67a9                	lui	a5,0xa
    3594:	fdc42703          	lw	a4,-36(s0)
    3598:	070a                	slli	a4,a4,0x2
    359a:	d7478793          	addi	a5,a5,-652 # 9d74 <TIMERN>
    359e:	97ba                	add	a5,a5,a4
    35a0:	439c                	lw	a5,0(a5)
    35a2:	4681                	li	a3,0
    35a4:	6621                	lui	a2,0x8
    35a6:	4581                	li	a1,0
    35a8:	853e                	mv	a0,a5
    35aa:	ea6fe0ef          	jal	ra,1c50 <TIM_ETRClockMode1Config>
D:\A_Dual1\Dual-core_Communication_Demo\Dual-core_Communication_Demo\SLAVE\obj/../Libraries/seekfree_libraries/zf_camera.c:105
    TIM_SelectInputTrigger((TIM_TypeDef*)(TIMERN[timern]), TIM_TS_ETRF);
    35ae:	67a9                	lui	a5,0xa
    35b0:	fdc42703          	lw	a4,-36(s0)
    35b4:	070a                	slli	a4,a4,0x2
    35b6:	d7478793          	addi	a5,a5,-652 # 9d74 <TIMERN>
    35ba:	97ba                	add	a5,a5,a4
    35bc:	439c                	lw	a5,0(a5)
    35be:	07000593          	li	a1,112
    35c2:	853e                	mv	a0,a5
    35c4:	f92fe0ef          	jal	ra,1d56 <TIM_SelectInputTrigger>
D:\A_Dual1\Dual-core_Communication_Demo\Dual-core_Communication_Demo\SLAVE\obj/../Libraries/seekfree_libraries/zf_camera.c:106
    TIM_SelectSlaveMode((TIM_TypeDef*)(TIMERN[timern]), TIM_SlaveMode_Reset);                   //TIM
    35c8:	67a9                	lui	a5,0xa
    35ca:	fdc42703          	lw	a4,-36(s0)
    35ce:	070a                	slli	a4,a4,0x2
    35d0:	d7478793          	addi	a5,a5,-652 # 9d74 <TIMERN>
    35d4:	97ba                	add	a5,a5,a4
    35d6:	439c                	lw	a5,0(a5)
    35d8:	4591                	li	a1,4
    35da:	853e                	mv	a0,a5
    35dc:	8a1fe0ef          	jal	ra,1e7c <TIM_SelectSlaveMode>
D:\A_Dual1\Dual-core_Communication_Demo\Dual-core_Communication_Demo\SLAVE\obj/../Libraries/seekfree_libraries/zf_camera.c:107
    TIM_SelectMasterSlaveMode((TIM_TypeDef*)(TIMERN[timern]), TIM_MasterSlaveMode_Enable);      //
    35e0:	67a9                	lui	a5,0xa
    35e2:	fdc42703          	lw	a4,-36(s0)
    35e6:	070a                	slli	a4,a4,0x2
    35e8:	d7478793          	addi	a5,a5,-652 # 9d74 <TIMERN>
    35ec:	97ba                	add	a5,a5,a4
    35ee:	439c                	lw	a5,0(a5)
    35f0:	08000593          	li	a1,128
    35f4:	853e                	mv	a0,a5
    35f6:	8ddfe0ef          	jal	ra,1ed2 <TIM_SelectMasterSlaveMode>
D:\A_Dual1\Dual-core_Communication_Demo\Dual-core_Communication_Demo\SLAVE\obj/../Libraries/seekfree_libraries/zf_camera.c:109

    TIM_Cmd((TIM_TypeDef*)(TIMERN[timern]), ENABLE);
    35fa:	67a9                	lui	a5,0xa
    35fc:	fdc42703          	lw	a4,-36(s0)
    3600:	070a                	slli	a4,a4,0x2
    3602:	d7478793          	addi	a5,a5,-652 # 9d74 <TIMERN>
    3606:	97ba                	add	a5,a5,a4
    3608:	439c                	lw	a5,0(a5)
    360a:	4585                	li	a1,1
    360c:	853e                	mv	a0,a5
    360e:	d0afe0ef          	jal	ra,1b18 <TIM_Cmd>
D:\A_Dual1\Dual-core_Communication_Demo\Dual-core_Communication_Demo\SLAVE\obj/../Libraries/seekfree_libraries/zf_camera.c:110
    TIM_DMACmd((TIM_TypeDef*)(TIMERN[timern]), TIM_DMA_Trigger, ENABLE);                        //TIM_DMA
    3612:	67a9                	lui	a5,0xa
    3614:	fdc42703          	lw	a4,-36(s0)
    3618:	070a                	slli	a4,a4,0x2
    361a:	d7478793          	addi	a5,a5,-652 # 9d74 <TIMERN>
    361e:	97ba                	add	a5,a5,a4
    3620:	439c                	lw	a5,0(a5)
    3622:	4605                	li	a2,1
    3624:	6591                	lui	a1,0x4
    3626:	853e                	mv	a0,a5
    3628:	db8fe0ef          	jal	ra,1be0 <TIM_DMACmd>
D:\A_Dual1\Dual-core_Communication_Demo\Dual-core_Communication_Demo\SLAVE\obj/../Libraries/seekfree_libraries/zf_camera.c:111
}
    362c:	0001                	nop
    362e:	50b2                	lw	ra,44(sp)
    3630:	5422                	lw	s0,40(sp)
    3632:	6145                	addi	sp,sp,48
    3634:	8082                	ret

00003636 <gpio_init>:
gpio_init():
D:\A_Dual1\Dual-core_Communication_Demo\Dual-core_Communication_Demo\SLAVE\obj/../Libraries/seekfree_libraries/zf_gpio.c:40
//  @param      pinconf     zf_gpio.hGPIOSPEED_enumGPIOMODE_enum | 
//  @return     void
//  Sample usage:           gpio_init(D0, GPO, 1, GPIO_PIN_CONFIG);//D0GPIO100MHZ 
//-------------------------------------------------------------------------------------------------------------------
void gpio_init(PIN_enum pin, GPIODIR_enum dir, uint8 dat, uint32 pinconf)
{
    3636:	7179                	addi	sp,sp,-48
    3638:	d606                	sw	ra,44(sp)
    363a:	d422                	sw	s0,40(sp)
    363c:	1800                	addi	s0,sp,48
    363e:	fca42e23          	sw	a0,-36(s0)
    3642:	fcb42c23          	sw	a1,-40(s0)
    3646:	87b2                	mv	a5,a2
    3648:	fcd42823          	sw	a3,-48(s0)
    364c:	fcf40ba3          	sb	a5,-41(s0)
D:\A_Dual1\Dual-core_Communication_Demo\Dual-core_Communication_Demo\SLAVE\obj/../Libraries/seekfree_libraries/zf_gpio.c:42
    GPIO_InitTypeDef GPIO_InitStructure;
    uint8 io_group = (pin & 0xE0) >> 5;
    3650:	fdc42783          	lw	a5,-36(s0)
    3654:	8395                	srli	a5,a5,0x5
    3656:	0ff7f793          	andi	a5,a5,255
    365a:	8b9d                	andi	a5,a5,7
    365c:	fef407a3          	sb	a5,-17(s0)
D:\A_Dual1\Dual-core_Communication_Demo\Dual-core_Communication_Demo\SLAVE\obj/../Libraries/seekfree_libraries/zf_gpio.c:43
    uint8 io_pin = pin & 0x1F;
    3660:	fdc42783          	lw	a5,-36(s0)
    3664:	0ff7f793          	andi	a5,a5,255
    3668:	8bfd                	andi	a5,a5,31
    366a:	fef40723          	sb	a5,-18(s0)
D:\A_Dual1\Dual-core_Communication_Demo\Dual-core_Communication_Demo\SLAVE\obj/../Libraries/seekfree_libraries/zf_gpio.c:46


    if(PIN_NULL == pin) return;
    366e:	fdc42703          	lw	a4,-36(s0)
    3672:	08000793          	li	a5,128
    3676:	14f70d63          	beq	a4,a5,37d0 <gpio_init+0x19a>
D:\A_Dual1\Dual-core_Communication_Demo\Dual-core_Communication_Demo\SLAVE\obj/../Libraries/seekfree_libraries/zf_gpio.c:48
    //GPIO
    if(0 == (pin >> 5))      RCC_APB2PeriphClockCmd(RCC_APB2Periph_GPIOA, ENABLE);
    367a:	fdc42783          	lw	a5,-36(s0)
    367e:	8395                	srli	a5,a5,0x5
    3680:	e791                	bnez	a5,368c <gpio_init+0x56>
D:\A_Dual1\Dual-core_Communication_Demo\Dual-core_Communication_Demo\SLAVE\obj/../Libraries/seekfree_libraries/zf_gpio.c:48 (discriminator 1)
    3682:	4585                	li	a1,1
    3684:	4511                	li	a0,4
    3686:	97efe0ef          	jal	ra,1804 <RCC_APB2PeriphClockCmd>
    368a:	a861                	j	3722 <gpio_init+0xec>
D:\A_Dual1\Dual-core_Communication_Demo\Dual-core_Communication_Demo\SLAVE\obj/../Libraries/seekfree_libraries/zf_gpio.c:49
    else if(1 == (pin >> 5)) RCC_APB2PeriphClockCmd(RCC_APB2Periph_GPIOB, ENABLE);
    368c:	fdc42783          	lw	a5,-36(s0)
    3690:	0057d713          	srli	a4,a5,0x5
    3694:	4785                	li	a5,1
    3696:	00f71763          	bne	a4,a5,36a4 <gpio_init+0x6e>
D:\A_Dual1\Dual-core_Communication_Demo\Dual-core_Communication_Demo\SLAVE\obj/../Libraries/seekfree_libraries/zf_gpio.c:49 (discriminator 1)
    369a:	4585                	li	a1,1
    369c:	4521                	li	a0,8
    369e:	966fe0ef          	jal	ra,1804 <RCC_APB2PeriphClockCmd>
    36a2:	a041                	j	3722 <gpio_init+0xec>
D:\A_Dual1\Dual-core_Communication_Demo\Dual-core_Communication_Demo\SLAVE\obj/../Libraries/seekfree_libraries/zf_gpio.c:50
    else if(2 == (pin >> 5)) RCC_APB2PeriphClockCmd(RCC_APB2Periph_GPIOC, ENABLE);
    36a4:	fdc42783          	lw	a5,-36(s0)
    36a8:	0057d713          	srli	a4,a5,0x5
    36ac:	4789                	li	a5,2
    36ae:	00f71763          	bne	a4,a5,36bc <gpio_init+0x86>
D:\A_Dual1\Dual-core_Communication_Demo\Dual-core_Communication_Demo\SLAVE\obj/../Libraries/seekfree_libraries/zf_gpio.c:50 (discriminator 1)
    36b2:	4585                	li	a1,1
    36b4:	4541                	li	a0,16
    36b6:	94efe0ef          	jal	ra,1804 <RCC_APB2PeriphClockCmd>
    36ba:	a0a5                	j	3722 <gpio_init+0xec>
D:\A_Dual1\Dual-core_Communication_Demo\Dual-core_Communication_Demo\SLAVE\obj/../Libraries/seekfree_libraries/zf_gpio.c:51
    else if(3 == (pin >> 5)) RCC_APB2PeriphClockCmd(RCC_APB2Periph_GPIOD, ENABLE);
    36bc:	fdc42783          	lw	a5,-36(s0)
    36c0:	0057d713          	srli	a4,a5,0x5
    36c4:	478d                	li	a5,3
    36c6:	00f71863          	bne	a4,a5,36d6 <gpio_init+0xa0>
D:\A_Dual1\Dual-core_Communication_Demo\Dual-core_Communication_Demo\SLAVE\obj/../Libraries/seekfree_libraries/zf_gpio.c:51 (discriminator 1)
    36ca:	4585                	li	a1,1
    36cc:	02000513          	li	a0,32
    36d0:	934fe0ef          	jal	ra,1804 <RCC_APB2PeriphClockCmd>
    36d4:	a0b9                	j	3722 <gpio_init+0xec>
D:\A_Dual1\Dual-core_Communication_Demo\Dual-core_Communication_Demo\SLAVE\obj/../Libraries/seekfree_libraries/zf_gpio.c:52
    else if(4 == (pin >> 5)) RCC_APB2PeriphClockCmd(RCC_APB2Periph_GPIOE, ENABLE);
    36d6:	fdc42783          	lw	a5,-36(s0)
    36da:	0057d713          	srli	a4,a5,0x5
    36de:	4791                	li	a5,4
    36e0:	00f71863          	bne	a4,a5,36f0 <gpio_init+0xba>
D:\A_Dual1\Dual-core_Communication_Demo\Dual-core_Communication_Demo\SLAVE\obj/../Libraries/seekfree_libraries/zf_gpio.c:52 (discriminator 1)
    36e4:	4585                	li	a1,1
    36e6:	04000513          	li	a0,64
    36ea:	91afe0ef          	jal	ra,1804 <RCC_APB2PeriphClockCmd>
    36ee:	a815                	j	3722 <gpio_init+0xec>
D:\A_Dual1\Dual-core_Communication_Demo\Dual-core_Communication_Demo\SLAVE\obj/../Libraries/seekfree_libraries/zf_gpio.c:53
    else if(5 == (pin >> 5)) RCC_APB2PeriphClockCmd(RCC_APB2Periph_GPIOF, ENABLE);
    36f0:	fdc42783          	lw	a5,-36(s0)
    36f4:	0057d713          	srli	a4,a5,0x5
    36f8:	4795                	li	a5,5
    36fa:	00f71863          	bne	a4,a5,370a <gpio_init+0xd4>
D:\A_Dual1\Dual-core_Communication_Demo\Dual-core_Communication_Demo\SLAVE\obj/../Libraries/seekfree_libraries/zf_gpio.c:53 (discriminator 1)
    36fe:	4585                	li	a1,1
    3700:	08000513          	li	a0,128
    3704:	900fe0ef          	jal	ra,1804 <RCC_APB2PeriphClockCmd>
    3708:	a829                	j	3722 <gpio_init+0xec>
D:\A_Dual1\Dual-core_Communication_Demo\Dual-core_Communication_Demo\SLAVE\obj/../Libraries/seekfree_libraries/zf_gpio.c:54
    else if(6 == (pin >> 5)) RCC_APB2PeriphClockCmd(RCC_APB2Periph_GPIOG, ENABLE);
    370a:	fdc42783          	lw	a5,-36(s0)
    370e:	0057d713          	srli	a4,a5,0x5
    3712:	4799                	li	a5,6
    3714:	00f71763          	bne	a4,a5,3722 <gpio_init+0xec>
D:\A_Dual1\Dual-core_Communication_Demo\Dual-core_Communication_Demo\SLAVE\obj/../Libraries/seekfree_libraries/zf_gpio.c:54 (discriminator 1)
    3718:	4585                	li	a1,1
    371a:	10000513          	li	a0,256
    371e:	8e6fe0ef          	jal	ra,1804 <RCC_APB2PeriphClockCmd>
D:\A_Dual1\Dual-core_Communication_Demo\Dual-core_Communication_Demo\SLAVE\obj/../Libraries/seekfree_libraries/zf_gpio.c:58


    //
    GPIO_InitStructure.GPIO_Pin = (uint16)(1 << io_pin);
    3722:	fee44783          	lbu	a5,-18(s0)
    3726:	4705                	li	a4,1
    3728:	00f717b3          	sll	a5,a4,a5
    372c:	07c2                	slli	a5,a5,0x10
    372e:	83c1                	srli	a5,a5,0x10
    3730:	fef41023          	sh	a5,-32(s0)
D:\A_Dual1\Dual-core_Communication_Demo\Dual-core_Communication_Demo\SLAVE\obj/../Libraries/seekfree_libraries/zf_gpio.c:60

    if(GPO == dir)
    3734:	fd842703          	lw	a4,-40(s0)
    3738:	4785                	li	a5,1
    373a:	02f71763          	bne	a4,a5,3768 <gpio_init+0x132>
D:\A_Dual1\Dual-core_Communication_Demo\Dual-core_Communication_Demo\SLAVE\obj/../Libraries/seekfree_libraries/zf_gpio.c:63
    {
        //
        if((uint16)pinconf >> 8 == 0) GPIO_InitStructure.GPIO_Speed = (GPIOSpeed_TypeDef)(GPIO_Speed_50MHz);  //,50Mhz
    373e:	fd042783          	lw	a5,-48(s0)
    3742:	07c2                	slli	a5,a5,0x10
    3744:	83c1                	srli	a5,a5,0x10
    3746:	83a1                	srli	a5,a5,0x8
    3748:	07c2                	slli	a5,a5,0x10
    374a:	83c1                	srli	a5,a5,0x10
    374c:	e789                	bnez	a5,3756 <gpio_init+0x120>
D:\A_Dual1\Dual-core_Communication_Demo\Dual-core_Communication_Demo\SLAVE\obj/../Libraries/seekfree_libraries/zf_gpio.c:63 (discriminator 1)
    374e:	478d                	li	a5,3
    3750:	fef42223          	sw	a5,-28(s0)
    3754:	a811                	j	3768 <gpio_init+0x132>
D:\A_Dual1\Dual-core_Communication_Demo\Dual-core_Communication_Demo\SLAVE\obj/../Libraries/seekfree_libraries/zf_gpio.c:64
        else GPIO_InitStructure.GPIO_Speed = (GPIOSpeed_TypeDef)((uint16)pinconf >> 8);                       //
    3756:	fd042783          	lw	a5,-48(s0)
    375a:	07c2                	slli	a5,a5,0x10
    375c:	83c1                	srli	a5,a5,0x10
    375e:	83a1                	srli	a5,a5,0x8
    3760:	07c2                	slli	a5,a5,0x10
    3762:	83c1                	srli	a5,a5,0x10
    3764:	fef42223          	sw	a5,-28(s0)
D:\A_Dual1\Dual-core_Communication_Demo\Dual-core_Communication_Demo\SLAVE\obj/../Libraries/seekfree_libraries/zf_gpio.c:68
    }

    //
    GPIO_InitStructure.GPIO_Mode = (GPIOMode_TypeDef)((uint16)pinconf & 0xff);
    3768:	fd042783          	lw	a5,-48(s0)
    376c:	07c2                	slli	a5,a5,0x10
    376e:	83c1                	srli	a5,a5,0x10
    3770:	0ff7f793          	andi	a5,a5,255
    3774:	fef42423          	sw	a5,-24(s0)
D:\A_Dual1\Dual-core_Communication_Demo\Dual-core_Communication_Demo\SLAVE\obj/../Libraries/seekfree_libraries/zf_gpio.c:69
    GPIO_Init((GPIO_TypeDef *)(GPION[io_group]), &GPIO_InitStructure);
    3778:	fef44703          	lbu	a4,-17(s0)
    377c:	67a9                	lui	a5,0xa
    377e:	070a                	slli	a4,a4,0x2
    3780:	d4c78793          	addi	a5,a5,-692 # 9d4c <GPION>
    3784:	97ba                	add	a5,a5,a4
    3786:	439c                	lw	a5,0(a5)
    3788:	873e                	mv	a4,a5
    378a:	fe040793          	addi	a5,s0,-32
    378e:	85be                	mv	a1,a5
    3790:	853a                	mv	a0,a4
    3792:	881fd0ef          	jal	ra,1012 <GPIO_Init>
D:\A_Dual1\Dual-core_Communication_Demo\Dual-core_Communication_Demo\SLAVE\obj/../Libraries/seekfree_libraries/zf_gpio.c:71

    if(GPO == dir)
    3796:	fd842703          	lw	a4,-40(s0)
    379a:	4785                	li	a5,1
    379c:	02f71b63          	bne	a4,a5,37d2 <gpio_init+0x19c>
D:\A_Dual1\Dual-core_Communication_Demo\Dual-core_Communication_Demo\SLAVE\obj/../Libraries/seekfree_libraries/zf_gpio.c:74
    {
        //
        GPIO_WriteBit((GPIO_TypeDef *)(GPION[io_group]), (uint16)(1 << io_pin), dat);
    37a0:	fef44703          	lbu	a4,-17(s0)
    37a4:	67a9                	lui	a5,0xa
    37a6:	070a                	slli	a4,a4,0x2
    37a8:	d4c78793          	addi	a5,a5,-692 # 9d4c <GPION>
    37ac:	97ba                	add	a5,a5,a4
    37ae:	439c                	lw	a5,0(a5)
    37b0:	86be                	mv	a3,a5
    37b2:	fee44783          	lbu	a5,-18(s0)
    37b6:	4705                	li	a4,1
    37b8:	00f717b3          	sll	a5,a4,a5
    37bc:	07c2                	slli	a5,a5,0x10
    37be:	83c1                	srli	a5,a5,0x10
    37c0:	fd744703          	lbu	a4,-41(s0)
    37c4:	863a                	mv	a2,a4
    37c6:	85be                	mv	a1,a5
    37c8:	8536                	mv	a0,a3
    37ca:	a73fd0ef          	jal	ra,123c <GPIO_WriteBit>
    37ce:	a011                	j	37d2 <gpio_init+0x19c>
D:\A_Dual1\Dual-core_Communication_Demo\Dual-core_Communication_Demo\SLAVE\obj/../Libraries/seekfree_libraries/zf_gpio.c:46
    if(PIN_NULL == pin) return;
    37d0:	0001                	nop
D:\A_Dual1\Dual-core_Communication_Demo\Dual-core_Communication_Demo\SLAVE\obj/../Libraries/seekfree_libraries/zf_gpio.c:76
    }
}
    37d2:	50b2                	lw	ra,44(sp)
    37d4:	5422                	lw	s0,40(sp)
    37d6:	6145                	addi	sp,sp,48
    37d8:	8082                	ret

000037da <gpio_interrupt_init>:
gpio_interrupt_init():
D:\A_Dual1\Dual-core_Communication_Demo\Dual-core_Communication_Demo\SLAVE\obj/../Libraries/seekfree_libraries/zf_gpio.c:141
//  @param      trigger      hTRIGGER_enum
//  @return     void
//  Sample usage:           gpio_interrupt_init(D0, RISING, GPIO_INT_CONFIG);//D0
//-------------------------------------------------------------------------------------------------------------------
void gpio_interrupt_init(PIN_enum pin,TRIGGER_enum trigger, uint32 pinconf)
{
    37da:	7179                	addi	sp,sp,-48
    37dc:	d606                	sw	ra,44(sp)
    37de:	d422                	sw	s0,40(sp)
    37e0:	1800                	addi	s0,sp,48
    37e2:	fca42e23          	sw	a0,-36(s0)
    37e6:	fcb42c23          	sw	a1,-40(s0)
    37ea:	fcc42a23          	sw	a2,-44(s0)
D:\A_Dual1\Dual-core_Communication_Demo\Dual-core_Communication_Demo\SLAVE\obj/../Libraries/seekfree_libraries/zf_gpio.c:143
    EXTI_InitTypeDef EXTI_InitStructure;
    RCC_APB2PeriphClockCmd(RCC_APB2Periph_AFIO,ENABLE);
    37ee:	4585                	li	a1,1
    37f0:	4505                	li	a0,1
    37f2:	812fe0ef          	jal	ra,1804 <RCC_APB2PeriphClockCmd>
D:\A_Dual1\Dual-core_Communication_Demo\Dual-core_Communication_Demo\SLAVE\obj/../Libraries/seekfree_libraries/zf_gpio.c:144
    gpio_init(pin, GPI, 0, pinconf);
    37f6:	fd442683          	lw	a3,-44(s0)
    37fa:	4601                	li	a2,0
    37fc:	4581                	li	a1,0
    37fe:	fdc42503          	lw	a0,-36(s0)
    3802:	e35ff0ef          	jal	ra,3636 <gpio_init>
D:\A_Dual1\Dual-core_Communication_Demo\Dual-core_Communication_Demo\SLAVE\obj/../Libraries/seekfree_libraries/zf_gpio.c:145
    GPIO_EXTILineConfig(pin >> 5, pin & 0x1F);              //
    3806:	fdc42783          	lw	a5,-36(s0)
    380a:	8395                	srli	a5,a5,0x5
    380c:	0ff7f713          	andi	a4,a5,255
    3810:	fdc42783          	lw	a5,-36(s0)
    3814:	0ff7f793          	andi	a5,a5,255
    3818:	8bfd                	andi	a5,a5,31
    381a:	0ff7f793          	andi	a5,a5,255
    381e:	85be                	mv	a1,a5
    3820:	853a                	mv	a0,a4
    3822:	b8ffd0ef          	jal	ra,13b0 <GPIO_EXTILineConfig>
D:\A_Dual1\Dual-core_Communication_Demo\Dual-core_Communication_Demo\SLAVE\obj/../Libraries/seekfree_libraries/zf_gpio.c:146
    EXTI_InitStructure.EXTI_Line = 1 << (pin & 0x1F);       //
    3826:	fdc42783          	lw	a5,-36(s0)
    382a:	8bfd                	andi	a5,a5,31
    382c:	4705                	li	a4,1
    382e:	00f717b3          	sll	a5,a4,a5
    3832:	fef42023          	sw	a5,-32(s0)
D:\A_Dual1\Dual-core_Communication_Demo\Dual-core_Communication_Demo\SLAVE\obj/../Libraries/seekfree_libraries/zf_gpio.c:147
    EXTI_InitStructure.EXTI_Mode = EXTI_Mode_Interrupt;     //
    3836:	fe042223          	sw	zero,-28(s0)
D:\A_Dual1\Dual-core_Communication_Demo\Dual-core_Communication_Demo\SLAVE\obj/../Libraries/seekfree_libraries/zf_gpio.c:148
    EXTI_InitStructure.EXTI_Trigger = trigger;              //
    383a:	fd842783          	lw	a5,-40(s0)
    383e:	fef42423          	sw	a5,-24(s0)
D:\A_Dual1\Dual-core_Communication_Demo\Dual-core_Communication_Demo\SLAVE\obj/../Libraries/seekfree_libraries/zf_gpio.c:149
    EXTI_InitStructure.EXTI_LineCmd = ENABLE;               //
    3842:	4785                	li	a5,1
    3844:	fef42623          	sw	a5,-20(s0)
D:\A_Dual1\Dual-core_Communication_Demo\Dual-core_Communication_Demo\SLAVE\obj/../Libraries/seekfree_libraries/zf_gpio.c:150
    EXTI_Init(&EXTI_InitStructure);
    3848:	fe040793          	addi	a5,s0,-32
    384c:	853e                	mv	a0,a5
    384e:	ddefd0ef          	jal	ra,e2c <EXTI_Init>
D:\A_Dual1\Dual-core_Communication_Demo\Dual-core_Communication_Demo\SLAVE\obj/../Libraries/seekfree_libraries/zf_gpio.c:151
}
    3852:	0001                	nop
    3854:	50b2                	lw	ra,44(sp)
    3856:	5422                	lw	s0,40(sp)
    3858:	6145                	addi	sp,sp,48
    385a:	8082                	ret

0000385c <nvic_init>:
nvic_init():
D:\A_Dual1\Dual-core_Communication_Demo\Dual-core_Communication_Demo\SLAVE\obj/../Libraries/seekfree_libraries/zf_nvic.c:38
//  @param      status                      
//  @return     void
//  Sample usage:                           nvic_init(EXTI0_IRQn,0, 0, ENABLE); //0,
//-------------------------------------------------------------------------------------------------------------------
void nvic_init(IRQn_Type irqn,uint8 preemption_priority, uint8 sub_priority,uint8 status)
{
    385c:	7179                	addi	sp,sp,-48
    385e:	d606                	sw	ra,44(sp)
    3860:	d422                	sw	s0,40(sp)
    3862:	1800                	addi	s0,sp,48
    3864:	fca42e23          	sw	a0,-36(s0)
    3868:	87ae                	mv	a5,a1
    386a:	8736                	mv	a4,a3
    386c:	fcf40da3          	sb	a5,-37(s0)
    3870:	87b2                	mv	a5,a2
    3872:	fcf40d23          	sb	a5,-38(s0)
    3876:	87ba                	mv	a5,a4
    3878:	fcf40ca3          	sb	a5,-39(s0)
D:\A_Dual1\Dual-core_Communication_Demo\Dual-core_Communication_Demo\SLAVE\obj/../Libraries/seekfree_libraries/zf_nvic.c:41
    NVIC_InitTypeDef NVIC_InitStructure;

    NVIC_InitStructure.NVIC_IRQChannel = irqn;                                  //
    387c:	fdc42783          	lw	a5,-36(s0)
    3880:	0ff7f793          	andi	a5,a5,255
    3884:	fef40423          	sb	a5,-24(s0)
D:\A_Dual1\Dual-core_Communication_Demo\Dual-core_Communication_Demo\SLAVE\obj/../Libraries/seekfree_libraries/zf_nvic.c:42
    NVIC_InitStructure.NVIC_IRQChannelPreemptionPriority=preemption_priority;   //
    3888:	fdb44783          	lbu	a5,-37(s0)
    388c:	fef404a3          	sb	a5,-23(s0)
D:\A_Dual1\Dual-core_Communication_Demo\Dual-core_Communication_Demo\SLAVE\obj/../Libraries/seekfree_libraries/zf_nvic.c:43
    NVIC_InitStructure.NVIC_IRQChannelSubPriority = sub_priority;               //
    3890:	fda44783          	lbu	a5,-38(s0)
    3894:	fef40523          	sb	a5,-22(s0)
D:\A_Dual1\Dual-core_Communication_Demo\Dual-core_Communication_Demo\SLAVE\obj/../Libraries/seekfree_libraries/zf_nvic.c:44
    NVIC_InitStructure.NVIC_IRQChannelCmd = status;                             //
    3898:	fd944783          	lbu	a5,-39(s0)
    389c:	fef42623          	sw	a5,-20(s0)
D:\A_Dual1\Dual-core_Communication_Demo\Dual-core_Communication_Demo\SLAVE\obj/../Libraries/seekfree_libraries/zf_nvic.c:45
    NVIC_Init(&NVIC_InitStructure);
    38a0:	fe840793          	addi	a5,s0,-24
    38a4:	853e                	mv	a0,a5
    38a6:	c3bfd0ef          	jal	ra,14e0 <NVIC_Init>
D:\A_Dual1\Dual-core_Communication_Demo\Dual-core_Communication_Demo\SLAVE\obj/../Libraries/seekfree_libraries/zf_nvic.c:48

    //
    irq_status.ienr0 |= (PFIC->ISR[0] & 0xFFFFF000);    //[31:12]
    38aa:	e000e7b7          	lui	a5,0xe000e
    38ae:	4398                	lw	a4,0(a5)
    38b0:	77fd                	lui	a5,0xfffff
    38b2:	8f7d                	and	a4,a4,a5
    38b4:	200027b7          	lui	a5,0x20002
    38b8:	6807a783          	lw	a5,1664(a5) # 20002680 <irq_status>
    38bc:	8f5d                	or	a4,a4,a5
    38be:	200027b7          	lui	a5,0x20002
    38c2:	68e7a023          	sw	a4,1664(a5) # 20002680 <irq_status>
D:\A_Dual1\Dual-core_Communication_Demo\Dual-core_Communication_Demo\SLAVE\obj/../Libraries/seekfree_libraries/zf_nvic.c:49
    irq_status.ienr1 |= (PFIC->ISR[1] & 0x0FFFFFFF);    //[27:0]
    38c6:	e000e7b7          	lui	a5,0xe000e
    38ca:	43d8                	lw	a4,4(a5)
    38cc:	100007b7          	lui	a5,0x10000
    38d0:	17fd                	addi	a5,a5,-1
    38d2:	8f7d                	and	a4,a4,a5
    38d4:	200027b7          	lui	a5,0x20002
    38d8:	68078793          	addi	a5,a5,1664 # 20002680 <irq_status>
    38dc:	43dc                	lw	a5,4(a5)
    38de:	8f5d                	or	a4,a4,a5
    38e0:	200027b7          	lui	a5,0x20002
    38e4:	68078793          	addi	a5,a5,1664 # 20002680 <irq_status>
    38e8:	c3d8                	sw	a4,4(a5)
D:\A_Dual1\Dual-core_Communication_Demo\Dual-core_Communication_Demo\SLAVE\obj/../Libraries/seekfree_libraries/zf_nvic.c:50
    if(irq_status.flag == 1)
    38ea:	200027b7          	lui	a5,0x20002
    38ee:	68078793          	addi	a5,a5,1664 # 20002680 <irq_status>
    38f2:	0087c703          	lbu	a4,8(a5)
    38f6:	4785                	li	a5,1
    38f8:	00f71363          	bne	a4,a5,38fe <nvic_init+0xa2>
D:\A_Dual1\Dual-core_Communication_Demo\Dual-core_Communication_Demo\SLAVE\obj/../Libraries/seekfree_libraries/zf_nvic.c:52
    {
        close_all_irq();
    38fc:	2031                	jal	3908 <close_all_irq>
D:\A_Dual1\Dual-core_Communication_Demo\Dual-core_Communication_Demo\SLAVE\obj/../Libraries/seekfree_libraries/zf_nvic.c:54
    }
}
    38fe:	0001                	nop
    3900:	50b2                	lw	ra,44(sp)
    3902:	5422                	lw	s0,40(sp)
    3904:	6145                	addi	sp,sp,48
    3906:	8082                	ret

00003908 <close_all_irq>:
close_all_irq():
D:\A_Dual1\Dual-core_Communication_Demo\Dual-core_Communication_Demo\SLAVE\obj/../Libraries/seekfree_libraries/zf_nvic.c:63
//  @return     void
//  @since      v1.0
//  Sample usage:
//-------------------------------------------------------------------------------------------------------------------
void close_all_irq(void)
{
    3908:	1141                	addi	sp,sp,-16
    390a:	c622                	sw	s0,12(sp)
    390c:	0800                	addi	s0,sp,16
D:\A_Dual1\Dual-core_Communication_Demo\Dual-core_Communication_Demo\SLAVE\obj/../Libraries/seekfree_libraries/zf_nvic.c:65
    //1
    PFIC->IRER[0] = 0xffffffff;
    390e:	e000e7b7          	lui	a5,0xe000e
    3912:	577d                	li	a4,-1
    3914:	18e7a023          	sw	a4,384(a5) # e000e180 <_eusrstack+0xc0009180>
D:\A_Dual1\Dual-core_Communication_Demo\Dual-core_Communication_Demo\SLAVE\obj/../Libraries/seekfree_libraries/zf_nvic.c:66
    PFIC->IRER[1] = 0xffffffff;
    3918:	e000e7b7          	lui	a5,0xe000e
    391c:	577d                	li	a4,-1
    391e:	18e7a223          	sw	a4,388(a5) # e000e184 <_eusrstack+0xc0009184>
D:\A_Dual1\Dual-core_Communication_Demo\Dual-core_Communication_Demo\SLAVE\obj/../Libraries/seekfree_libraries/zf_nvic.c:67
}
    3922:	0001                	nop
    3924:	4432                	lw	s0,12(sp)
    3926:	0141                	addi	sp,sp,16
    3928:	8082                	ret

0000392a <sys_recover_irq>:
sys_recover_irq():
D:\A_Dual1\Dual-core_Communication_Demo\Dual-core_Communication_Demo\SLAVE\obj/../Libraries/seekfree_libraries/zf_nvic.c:77
//  @return     void
//  @since      v1.0
//  Sample usage:
//-------------------------------------------------------------------------------------------------------------------
void sys_recover_irq(void)
{
    392a:	1141                	addi	sp,sp,-16
    392c:	c622                	sw	s0,12(sp)
    392e:	0800                	addi	s0,sp,16
D:\A_Dual1\Dual-core_Communication_Demo\Dual-core_Communication_Demo\SLAVE\obj/../Libraries/seekfree_libraries/zf_nvic.c:78
    PFIC->IENR[0] = irq_status.ienr0;
    3930:	e000e7b7          	lui	a5,0xe000e
    3934:	20002737          	lui	a4,0x20002
    3938:	68072703          	lw	a4,1664(a4) # 20002680 <irq_status>
    393c:	10e7a023          	sw	a4,256(a5) # e000e100 <_eusrstack+0xc0009100>
D:\A_Dual1\Dual-core_Communication_Demo\Dual-core_Communication_Demo\SLAVE\obj/../Libraries/seekfree_libraries/zf_nvic.c:79
    PFIC->IENR[1] = irq_status.ienr1;
    3940:	e000e7b7          	lui	a5,0xe000e
    3944:	20002737          	lui	a4,0x20002
    3948:	68070713          	addi	a4,a4,1664 # 20002680 <irq_status>
    394c:	4358                	lw	a4,4(a4)
    394e:	10e7a223          	sw	a4,260(a5) # e000e104 <_eusrstack+0xc0009104>
D:\A_Dual1\Dual-core_Communication_Demo\Dual-core_Communication_Demo\SLAVE\obj/../Libraries/seekfree_libraries/zf_nvic.c:80
}
    3952:	0001                	nop
    3954:	4432                	lw	s0,12(sp)
    3956:	0141                	addi	sp,sp,16
    3958:	8082                	ret

0000395a <DisableGlobalIRQ>:
DisableGlobalIRQ():
D:\A_Dual1\Dual-core_Communication_Demo\Dual-core_Communication_Demo\SLAVE\obj/../Libraries/seekfree_libraries/zf_nvic.c:90
//  @return     void
//  @since      v1.0
//  Sample usage:
//-------------------------------------------------------------------------------------------------------------------
uint8 DisableGlobalIRQ(void)
{
    395a:	1101                	addi	sp,sp,-32
    395c:	ce06                	sw	ra,28(sp)
    395e:	cc22                	sw	s0,24(sp)
    3960:	1000                	addi	s0,sp,32
D:\A_Dual1\Dual-core_Communication_Demo\Dual-core_Communication_Demo\SLAVE\obj/../Libraries/seekfree_libraries/zf_nvic.c:92
    uint8 state;
    irq_status.flag = 1;
    3962:	200027b7          	lui	a5,0x20002
    3966:	68078793          	addi	a5,a5,1664 # 20002680 <irq_status>
    396a:	4705                	li	a4,1
    396c:	00e78423          	sb	a4,8(a5)
D:\A_Dual1\Dual-core_Communication_Demo\Dual-core_Communication_Demo\SLAVE\obj/../Libraries/seekfree_libraries/zf_nvic.c:93
    if((irq_status.ienr0 == 0) && (irq_status.ienr1 == 0))   state = 0;  //0
    3970:	200027b7          	lui	a5,0x20002
    3974:	6807a783          	lw	a5,1664(a5) # 20002680 <irq_status>
    3978:	eb91                	bnez	a5,398c <DisableGlobalIRQ+0x32>
D:\A_Dual1\Dual-core_Communication_Demo\Dual-core_Communication_Demo\SLAVE\obj/../Libraries/seekfree_libraries/zf_nvic.c:93 (discriminator 1)
    397a:	200027b7          	lui	a5,0x20002
    397e:	68078793          	addi	a5,a5,1664 # 20002680 <irq_status>
    3982:	43dc                	lw	a5,4(a5)
    3984:	e781                	bnez	a5,398c <DisableGlobalIRQ+0x32>
D:\A_Dual1\Dual-core_Communication_Demo\Dual-core_Communication_Demo\SLAVE\obj/../Libraries/seekfree_libraries/zf_nvic.c:93 (discriminator 2)
    3986:	fe0407a3          	sb	zero,-17(s0)
    398a:	a021                	j	3992 <DisableGlobalIRQ+0x38>
D:\A_Dual1\Dual-core_Communication_Demo\Dual-core_Communication_Demo\SLAVE\obj/../Libraries/seekfree_libraries/zf_nvic.c:94
    else state = 1;  //1
    398c:	4785                	li	a5,1
    398e:	fef407a3          	sb	a5,-17(s0)
D:\A_Dual1\Dual-core_Communication_Demo\Dual-core_Communication_Demo\SLAVE\obj/../Libraries/seekfree_libraries/zf_nvic.c:95
    close_all_irq();
    3992:	3f9d                	jal	3908 <close_all_irq>
D:\A_Dual1\Dual-core_Communication_Demo\Dual-core_Communication_Demo\SLAVE\obj/../Libraries/seekfree_libraries/zf_nvic.c:96
    return state;
    3994:	fef44783          	lbu	a5,-17(s0)
D:\A_Dual1\Dual-core_Communication_Demo\Dual-core_Communication_Demo\SLAVE\obj/../Libraries/seekfree_libraries/zf_nvic.c:97
}
    3998:	853e                	mv	a0,a5
    399a:	40f2                	lw	ra,28(sp)
    399c:	4462                	lw	s0,24(sp)
    399e:	6105                	addi	sp,sp,32
    39a0:	8082                	ret

000039a2 <EnableGlobalIRQ>:
EnableGlobalIRQ():
D:\A_Dual1\Dual-core_Communication_Demo\Dual-core_Communication_Demo\SLAVE\obj/../Libraries/seekfree_libraries/zf_nvic.c:107
//  @return     void
//  @since      v1.0
//  Sample usage:
//-------------------------------------------------------------------------------------------------------------------
void EnableGlobalIRQ(uint8 state)
{
    39a2:	1101                	addi	sp,sp,-32
    39a4:	ce06                	sw	ra,28(sp)
    39a6:	cc22                	sw	s0,24(sp)
    39a8:	1000                	addi	s0,sp,32
    39aa:	87aa                	mv	a5,a0
    39ac:	fef407a3          	sb	a5,-17(s0)
D:\A_Dual1\Dual-core_Communication_Demo\Dual-core_Communication_Demo\SLAVE\obj/../Libraries/seekfree_libraries/zf_nvic.c:108
    if(state == 0)
    39b0:	fef44783          	lbu	a5,-17(s0)
    39b4:	eb81                	bnez	a5,39c4 <EnableGlobalIRQ+0x22>
D:\A_Dual1\Dual-core_Communication_Demo\Dual-core_Communication_Demo\SLAVE\obj/../Libraries/seekfree_libraries/zf_nvic.c:110
    {
        irq_status.flag = 0;
    39b6:	200027b7          	lui	a5,0x20002
    39ba:	68078793          	addi	a5,a5,1664 # 20002680 <irq_status>
    39be:	00078423          	sb	zero,8(a5)
D:\A_Dual1\Dual-core_Communication_Demo\Dual-core_Communication_Demo\SLAVE\obj/../Libraries/seekfree_libraries/zf_nvic.c:111
        sys_recover_irq();
    39c2:	37a5                	jal	392a <sys_recover_irq>
D:\A_Dual1\Dual-core_Communication_Demo\Dual-core_Communication_Demo\SLAVE\obj/../Libraries/seekfree_libraries/zf_nvic.c:113
    }
}
    39c4:	0001                	nop
    39c6:	40f2                	lw	ra,28(sp)
    39c8:	4462                	lw	s0,24(sp)
    39ca:	6105                	addi	sp,sp,32
    39cc:	8082                	ret

000039ce <timer_pit_interrupt_ms>:
timer_pit_interrupt_ms():
D:\A_Dual1\Dual-core_Communication_Demo\Dual-core_Communication_Demo\SLAVE\obj/../Libraries/seekfree_libraries/zf_pit.c:36
//  @param      ms          (1-32767)
//  @return     void
//  Sample usage:           timer_pit_interrupt(TIMER_1, 5); 15ms
//-------------------------------------------------------------------------------------------------------------------
void timer_pit_interrupt_ms(TIMERN_enum timern, uint16 ms)
{
    39ce:	7179                	addi	sp,sp,-48
    39d0:	d606                	sw	ra,44(sp)
    39d2:	d422                	sw	s0,40(sp)
    39d4:	1800                	addi	s0,sp,48
    39d6:	fca42e23          	sw	a0,-36(s0)
    39da:	87ae                	mv	a5,a1
    39dc:	fcf41d23          	sh	a5,-38(s0)
D:\A_Dual1\Dual-core_Communication_Demo\Dual-core_Communication_Demo\SLAVE\obj/../Libraries/seekfree_libraries/zf_pit.c:39
    TIM_TimeBaseInitTypeDef  TIM_TimeBaseStructure;

    if(TIMER_1 == timern)
    39e0:	fdc42783          	lw	a5,-36(s0)
    39e4:	eb81                	bnez	a5,39f4 <timer_pit_interrupt_ms+0x26>
D:\A_Dual1\Dual-core_Communication_Demo\Dual-core_Communication_Demo\SLAVE\obj/../Libraries/seekfree_libraries/zf_pit.c:40
        RCC_APB2PeriphClockCmd(RCC_APB2Periph_TIM1, ENABLE);                //
    39e6:	4585                	li	a1,1
    39e8:	6785                	lui	a5,0x1
    39ea:	80078513          	addi	a0,a5,-2048 # 800 <__stack_size>
    39ee:	e17fd0ef          	jal	ra,1804 <RCC_APB2PeriphClockCmd>
    39f2:	a835                	j	3a2e <timer_pit_interrupt_ms+0x60>
D:\A_Dual1\Dual-core_Communication_Demo\Dual-core_Communication_Demo\SLAVE\obj/../Libraries/seekfree_libraries/zf_pit.c:41
    else if(TIMER_2 == timern)
    39f4:	fdc42703          	lw	a4,-36(s0)
    39f8:	4785                	li	a5,1
    39fa:	00f71763          	bne	a4,a5,3a08 <timer_pit_interrupt_ms+0x3a>
D:\A_Dual1\Dual-core_Communication_Demo\Dual-core_Communication_Demo\SLAVE\obj/../Libraries/seekfree_libraries/zf_pit.c:42
        RCC_APB1PeriphClockCmd(RCC_APB1Periph_TIM2, ENABLE);                //
    39fe:	4585                	li	a1,1
    3a00:	4505                	li	a0,1
    3a02:	e49fd0ef          	jal	ra,184a <RCC_APB1PeriphClockCmd>
    3a06:	a025                	j	3a2e <timer_pit_interrupt_ms+0x60>
D:\A_Dual1\Dual-core_Communication_Demo\Dual-core_Communication_Demo\SLAVE\obj/../Libraries/seekfree_libraries/zf_pit.c:43
    else if(TIMER_3 == timern)
    3a08:	fdc42703          	lw	a4,-36(s0)
    3a0c:	4789                	li	a5,2
    3a0e:	00f71763          	bne	a4,a5,3a1c <timer_pit_interrupt_ms+0x4e>
D:\A_Dual1\Dual-core_Communication_Demo\Dual-core_Communication_Demo\SLAVE\obj/../Libraries/seekfree_libraries/zf_pit.c:44
        RCC_APB1PeriphClockCmd(RCC_APB1Periph_TIM3, ENABLE);                //
    3a12:	4585                	li	a1,1
    3a14:	4509                	li	a0,2
    3a16:	e35fd0ef          	jal	ra,184a <RCC_APB1PeriphClockCmd>
    3a1a:	a811                	j	3a2e <timer_pit_interrupt_ms+0x60>
D:\A_Dual1\Dual-core_Communication_Demo\Dual-core_Communication_Demo\SLAVE\obj/../Libraries/seekfree_libraries/zf_pit.c:45
    else if(TIMER_4 == timern)
    3a1c:	fdc42703          	lw	a4,-36(s0)
    3a20:	478d                	li	a5,3
    3a22:	00f71663          	bne	a4,a5,3a2e <timer_pit_interrupt_ms+0x60>
D:\A_Dual1\Dual-core_Communication_Demo\Dual-core_Communication_Demo\SLAVE\obj/../Libraries/seekfree_libraries/zf_pit.c:46
        RCC_APB1PeriphClockCmd(RCC_APB1Periph_TIM4, ENABLE);                //
    3a26:	4585                	li	a1,1
    3a28:	4511                	li	a0,4
    3a2a:	e21fd0ef          	jal	ra,184a <RCC_APB1PeriphClockCmd>
D:\A_Dual1\Dual-core_Communication_Demo\Dual-core_Communication_Demo\SLAVE\obj/../Libraries/seekfree_libraries/zf_pit.c:50

    //TIM3,
    //ATRLR1 012
    assert(ms);
    3a2e:	fda45783          	lhu	a5,-38(s0)
    3a32:	ef91                	bnez	a5,3a4e <timer_pit_interrupt_ms+0x80>
D:\A_Dual1\Dual-core_Communication_Demo\Dual-core_Communication_Demo\SLAVE\obj/../Libraries/seekfree_libraries/zf_pit.c:50 (discriminator 1)
    3a34:	67a5                	lui	a5,0x9
    3a36:	6ac78693          	addi	a3,a5,1708 # 96ac <_exit+0x88>
    3a3a:	67a9                	lui	a5,0xa
    3a3c:	d5c78613          	addi	a2,a5,-676 # 9d5c <__func__.3548>
    3a40:	03200593          	li	a1,50
    3a44:	67a5                	lui	a5,0x9
    3a46:	6b078513          	addi	a0,a5,1712 # 96b0 <_exit+0x8c>
    3a4a:	13b040ef          	jal	ra,8384 <__assert_func>
D:\A_Dual1\Dual-core_Communication_Demo\Dual-core_Communication_Demo\SLAVE\obj/../Libraries/seekfree_libraries/zf_pit.c:53


    TIM_TimeBaseStructure.TIM_Period = sys_clk/2000 - 1;                    //44000
    3a4e:	8381a703          	lw	a4,-1992(gp) # 20000150 <sys_clk>
    3a52:	7d000793          	li	a5,2000
    3a56:	02f757b3          	divu	a5,a4,a5
    3a5a:	07c2                	slli	a5,a5,0x10
    3a5c:	83c1                	srli	a5,a5,0x10
    3a5e:	17fd                	addi	a5,a5,-1
    3a60:	07c2                	slli	a5,a5,0x10
    3a62:	83c1                	srli	a5,a5,0x10
    3a64:	fef41423          	sh	a5,-24(s0)
D:\A_Dual1\Dual-core_Communication_Demo\Dual-core_Communication_Demo\SLAVE\obj/../Libraries/seekfree_libraries/zf_pit.c:54
    TIM_TimeBaseStructure.TIM_Prescaler = 2*ms - 1;                      //1MHZ,1us
    3a68:	fda45783          	lhu	a5,-38(s0)
    3a6c:	0786                	slli	a5,a5,0x1
    3a6e:	07c2                	slli	a5,a5,0x10
    3a70:	83c1                	srli	a5,a5,0x10
    3a72:	17fd                	addi	a5,a5,-1
    3a74:	07c2                	slli	a5,a5,0x10
    3a76:	83c1                	srli	a5,a5,0x10
    3a78:	fef41223          	sh	a5,-28(s0)
D:\A_Dual1\Dual-core_Communication_Demo\Dual-core_Communication_Demo\SLAVE\obj/../Libraries/seekfree_libraries/zf_pit.c:56

    TIM_TimeBaseStructure.TIM_ClockDivision = TIM_CKD_DIV1;                 //:TDTS = Tck_tim
    3a7c:	fe041523          	sh	zero,-22(s0)
D:\A_Dual1\Dual-core_Communication_Demo\Dual-core_Communication_Demo\SLAVE\obj/../Libraries/seekfree_libraries/zf_pit.c:57
    TIM_TimeBaseStructure.TIM_CounterMode = TIM_CounterMode_Up;             //TIM
    3a80:	fe041323          	sh	zero,-26(s0)
D:\A_Dual1\Dual-core_Communication_Demo\Dual-core_Communication_Demo\SLAVE\obj/../Libraries/seekfree_libraries/zf_pit.c:58
    TIM_TimeBaseStructure.TIM_RepetitionCounter = 0;                        //0
    3a84:	fe040623          	sb	zero,-20(s0)
D:\A_Dual1\Dual-core_Communication_Demo\Dual-core_Communication_Demo\SLAVE\obj/../Libraries/seekfree_libraries/zf_pit.c:59
    TIM_TimeBaseInit((TIM_TypeDef *)TIMERN[timern], &TIM_TimeBaseStructure);//TIMx
    3a88:	67a9                	lui	a5,0xa
    3a8a:	fdc42703          	lw	a4,-36(s0)
    3a8e:	070a                	slli	a4,a4,0x2
    3a90:	d7478793          	addi	a5,a5,-652 # 9d74 <TIMERN>
    3a94:	97ba                	add	a5,a5,a4
    3a96:	439c                	lw	a5,0(a5)
    3a98:	873e                	mv	a4,a5
    3a9a:	fe440793          	addi	a5,s0,-28
    3a9e:	85be                	mv	a1,a5
    3aa0:	853a                	mv	a0,a4
    3aa2:	f41fd0ef          	jal	ra,19e2 <TIM_TimeBaseInit>
D:\A_Dual1\Dual-core_Communication_Demo\Dual-core_Communication_Demo\SLAVE\obj/../Libraries/seekfree_libraries/zf_pit.c:61

    TIM_ITConfig((TIM_TypeDef *)TIMERN[timern],TIM_IT_Update,ENABLE );      //TIM,
    3aa6:	67a9                	lui	a5,0xa
    3aa8:	fdc42703          	lw	a4,-36(s0)
    3aac:	070a                	slli	a4,a4,0x2
    3aae:	d7478793          	addi	a5,a5,-652 # 9d74 <TIMERN>
    3ab2:	97ba                	add	a5,a5,a4
    3ab4:	439c                	lw	a5,0(a5)
    3ab6:	4605                	li	a2,1
    3ab8:	4585                	li	a1,1
    3aba:	853e                	mv	a0,a5
    3abc:	8b4fe0ef          	jal	ra,1b70 <TIM_ITConfig>
D:\A_Dual1\Dual-core_Communication_Demo\Dual-core_Communication_Demo\SLAVE\obj/../Libraries/seekfree_libraries/zf_pit.c:62
    TIM_ClearITPendingBit((TIM_TypeDef *)TIMERN[timern], TIM_IT_Update);
    3ac0:	67a9                	lui	a5,0xa
    3ac2:	fdc42703          	lw	a4,-36(s0)
    3ac6:	070a                	slli	a4,a4,0x2
    3ac8:	d7478793          	addi	a5,a5,-652 # 9d74 <TIMERN>
    3acc:	97ba                	add	a5,a5,a4
    3ace:	439c                	lw	a5,0(a5)
    3ad0:	4585                	li	a1,1
    3ad2:	853e                	mv	a0,a5
    3ad4:	cc6fe0ef          	jal	ra,1f9a <TIM_ClearITPendingBit>
D:\A_Dual1\Dual-core_Communication_Demo\Dual-core_Communication_Demo\SLAVE\obj/../Libraries/seekfree_libraries/zf_pit.c:65

    //NVIC
    if(TIMER_1 == timern)
    3ad8:	fdc42783          	lw	a5,-36(s0)
    3adc:	eb89                	bnez	a5,3aee <timer_pit_interrupt_ms+0x120>
D:\A_Dual1\Dual-core_Communication_Demo\Dual-core_Communication_Demo\SLAVE\obj/../Libraries/seekfree_libraries/zf_pit.c:66
        nvic_init(TIM1_UP_IRQn, 1, 2, ENABLE);
    3ade:	4685                	li	a3,1
    3ae0:	4609                	li	a2,2
    3ae2:	4585                	li	a1,1
    3ae4:	02900513          	li	a0,41
    3ae8:	d75ff0ef          	jal	ra,385c <nvic_init>
    3aec:	a0b9                	j	3b3a <timer_pit_interrupt_ms+0x16c>
D:\A_Dual1\Dual-core_Communication_Demo\Dual-core_Communication_Demo\SLAVE\obj/../Libraries/seekfree_libraries/zf_pit.c:67
    else if(TIMER_2 == timern)
    3aee:	fdc42703          	lw	a4,-36(s0)
    3af2:	4785                	li	a5,1
    3af4:	00f71a63          	bne	a4,a5,3b08 <timer_pit_interrupt_ms+0x13a>
D:\A_Dual1\Dual-core_Communication_Demo\Dual-core_Communication_Demo\SLAVE\obj/../Libraries/seekfree_libraries/zf_pit.c:68
        nvic_init(TIM2_IRQn, 1, 2, ENABLE);
    3af8:	4685                	li	a3,1
    3afa:	4609                	li	a2,2
    3afc:	4585                	li	a1,1
    3afe:	02c00513          	li	a0,44
    3b02:	d5bff0ef          	jal	ra,385c <nvic_init>
    3b06:	a815                	j	3b3a <timer_pit_interrupt_ms+0x16c>
D:\A_Dual1\Dual-core_Communication_Demo\Dual-core_Communication_Demo\SLAVE\obj/../Libraries/seekfree_libraries/zf_pit.c:69
    else if(TIMER_3 == timern)
    3b08:	fdc42703          	lw	a4,-36(s0)
    3b0c:	4789                	li	a5,2
    3b0e:	00f71a63          	bne	a4,a5,3b22 <timer_pit_interrupt_ms+0x154>
D:\A_Dual1\Dual-core_Communication_Demo\Dual-core_Communication_Demo\SLAVE\obj/../Libraries/seekfree_libraries/zf_pit.c:70
        nvic_init(TIM3_IRQn, 1, 2, ENABLE);
    3b12:	4685                	li	a3,1
    3b14:	4609                	li	a2,2
    3b16:	4585                	li	a1,1
    3b18:	02d00513          	li	a0,45
    3b1c:	d41ff0ef          	jal	ra,385c <nvic_init>
    3b20:	a829                	j	3b3a <timer_pit_interrupt_ms+0x16c>
D:\A_Dual1\Dual-core_Communication_Demo\Dual-core_Communication_Demo\SLAVE\obj/../Libraries/seekfree_libraries/zf_pit.c:71
    else if(TIMER_4 == timern)
    3b22:	fdc42703          	lw	a4,-36(s0)
    3b26:	478d                	li	a5,3
    3b28:	00f71963          	bne	a4,a5,3b3a <timer_pit_interrupt_ms+0x16c>
D:\A_Dual1\Dual-core_Communication_Demo\Dual-core_Communication_Demo\SLAVE\obj/../Libraries/seekfree_libraries/zf_pit.c:72
        nvic_init(TIM4_IRQn, 1, 2, ENABLE);
    3b2c:	4685                	li	a3,1
    3b2e:	4609                	li	a2,2
    3b30:	4585                	li	a1,1
    3b32:	02e00513          	li	a0,46
    3b36:	d27ff0ef          	jal	ra,385c <nvic_init>
D:\A_Dual1\Dual-core_Communication_Demo\Dual-core_Communication_Demo\SLAVE\obj/../Libraries/seekfree_libraries/zf_pit.c:74

    TIM_Cmd((TIM_TypeDef *)TIMERN[timern], ENABLE);  //TIMx
    3b3a:	67a9                	lui	a5,0xa
    3b3c:	fdc42703          	lw	a4,-36(s0)
    3b40:	070a                	slli	a4,a4,0x2
    3b42:	d7478793          	addi	a5,a5,-652 # 9d74 <TIMERN>
    3b46:	97ba                	add	a5,a5,a4
    3b48:	439c                	lw	a5,0(a5)
    3b4a:	4585                	li	a1,1
    3b4c:	853e                	mv	a0,a5
    3b4e:	fcbfd0ef          	jal	ra,1b18 <TIM_Cmd>
D:\A_Dual1\Dual-core_Communication_Demo\Dual-core_Communication_Demo\SLAVE\obj/../Libraries/seekfree_libraries/zf_pit.c:76

}
    3b52:	0001                	nop
    3b54:	50b2                	lw	ra,44(sp)
    3b56:	5422                	lw	s0,40(sp)
    3b58:	6145                	addi	sp,sp,48
    3b5a:	8082                	ret

00003b5c <timer_gpio_quad_init>:
timer_gpio_quad_init():
D:\A_Dual1\Dual-core_Communication_Demo\Dual-core_Communication_Demo\SLAVE\obj/../Libraries/seekfree_libraries/zf_qtimer.c:40
//  @param      phaseB      B
//  @return     void
//  Sample usage:           
//-------------------------------------------------------------------------------------------------------------------
void timer_gpio_quad_init(TIMER_PIN_enum phaseA, TIMER_PIN_enum phaseB)
{
    3b5c:	1101                	addi	sp,sp,-32
    3b5e:	ce06                	sw	ra,28(sp)
    3b60:	cc22                	sw	s0,24(sp)
    3b62:	1000                	addi	s0,sp,32
    3b64:	fea42623          	sw	a0,-20(s0)
    3b68:	feb42423          	sw	a1,-24(s0)
D:\A_Dual1\Dual-core_Communication_Demo\Dual-core_Communication_Demo\SLAVE\obj/../Libraries/seekfree_libraries/zf_qtimer.c:41
    if(TIMER1_CHA_A8 == phaseA)       gpio_init(A8, GPI, 0, IN_FLOAT);
    3b6c:	fec42783          	lw	a5,-20(s0)
    3b70:	eb81                	bnez	a5,3b80 <timer_gpio_quad_init+0x24>
D:\A_Dual1\Dual-core_Communication_Demo\Dual-core_Communication_Demo\SLAVE\obj/../Libraries/seekfree_libraries/zf_qtimer.c:41 (discriminator 1)
    3b72:	4691                	li	a3,4
    3b74:	4601                	li	a2,0
    3b76:	4581                	li	a1,0
    3b78:	4521                	li	a0,8
    3b7a:	abdff0ef          	jal	ra,3636 <gpio_init>
    3b7e:	a859                	j	3c14 <timer_gpio_quad_init+0xb8>
D:\A_Dual1\Dual-core_Communication_Demo\Dual-core_Communication_Demo\SLAVE\obj/../Libraries/seekfree_libraries/zf_qtimer.c:42
    else if(TIMER2_CHA_A0 == phaseA)  gpio_init(A0, GPI, 0, IN_FLOAT);
    3b80:	fec42703          	lw	a4,-20(s0)
    3b84:	4789                	li	a5,2
    3b86:	00f71963          	bne	a4,a5,3b98 <timer_gpio_quad_init+0x3c>
D:\A_Dual1\Dual-core_Communication_Demo\Dual-core_Communication_Demo\SLAVE\obj/../Libraries/seekfree_libraries/zf_qtimer.c:42 (discriminator 1)
    3b8a:	4691                	li	a3,4
    3b8c:	4601                	li	a2,0
    3b8e:	4581                	li	a1,0
    3b90:	4501                	li	a0,0
    3b92:	aa5ff0ef          	jal	ra,3636 <gpio_init>
    3b96:	a8bd                	j	3c14 <timer_gpio_quad_init+0xb8>
D:\A_Dual1\Dual-core_Communication_Demo\Dual-core_Communication_Demo\SLAVE\obj/../Libraries/seekfree_libraries/zf_qtimer.c:43
    else if(TIMER2_CHA_A15 == phaseA) gpio_init(A15, GPI, 0, IN_FLOAT);
    3b98:	fec42703          	lw	a4,-20(s0)
    3b9c:	4791                	li	a5,4
    3b9e:	00f71963          	bne	a4,a5,3bb0 <timer_gpio_quad_init+0x54>
D:\A_Dual1\Dual-core_Communication_Demo\Dual-core_Communication_Demo\SLAVE\obj/../Libraries/seekfree_libraries/zf_qtimer.c:43 (discriminator 1)
    3ba2:	4691                	li	a3,4
    3ba4:	4601                	li	a2,0
    3ba6:	4581                	li	a1,0
    3ba8:	453d                	li	a0,15
    3baa:	a8dff0ef          	jal	ra,3636 <gpio_init>
    3bae:	a09d                	j	3c14 <timer_gpio_quad_init+0xb8>
D:\A_Dual1\Dual-core_Communication_Demo\Dual-core_Communication_Demo\SLAVE\obj/../Libraries/seekfree_libraries/zf_qtimer.c:44
    else if(TIMER3_CHA_A6 == phaseA)  gpio_init(A6, GPI, 0, IN_FLOAT);
    3bb0:	fec42703          	lw	a4,-20(s0)
    3bb4:	4799                	li	a5,6
    3bb6:	00f71963          	bne	a4,a5,3bc8 <timer_gpio_quad_init+0x6c>
D:\A_Dual1\Dual-core_Communication_Demo\Dual-core_Communication_Demo\SLAVE\obj/../Libraries/seekfree_libraries/zf_qtimer.c:44 (discriminator 1)
    3bba:	4691                	li	a3,4
    3bbc:	4601                	li	a2,0
    3bbe:	4581                	li	a1,0
    3bc0:	4519                	li	a0,6
    3bc2:	a75ff0ef          	jal	ra,3636 <gpio_init>
    3bc6:	a0b9                	j	3c14 <timer_gpio_quad_init+0xb8>
D:\A_Dual1\Dual-core_Communication_Demo\Dual-core_Communication_Demo\SLAVE\obj/../Libraries/seekfree_libraries/zf_qtimer.c:45
    else if(TIMER3_CHA_C6 == phaseA)  gpio_init(C6, GPI, 0, IN_FLOAT);
    3bc8:	fec42703          	lw	a4,-20(s0)
    3bcc:	47a1                	li	a5,8
    3bce:	00f71a63          	bne	a4,a5,3be2 <timer_gpio_quad_init+0x86>
D:\A_Dual1\Dual-core_Communication_Demo\Dual-core_Communication_Demo\SLAVE\obj/../Libraries/seekfree_libraries/zf_qtimer.c:45 (discriminator 1)
    3bd2:	4691                	li	a3,4
    3bd4:	4601                	li	a2,0
    3bd6:	4581                	li	a1,0
    3bd8:	04600513          	li	a0,70
    3bdc:	a5bff0ef          	jal	ra,3636 <gpio_init>
    3be0:	a815                	j	3c14 <timer_gpio_quad_init+0xb8>
D:\A_Dual1\Dual-core_Communication_Demo\Dual-core_Communication_Demo\SLAVE\obj/../Libraries/seekfree_libraries/zf_qtimer.c:46
    else if(TIMER3_CHA_B4 == phaseA)  gpio_init(B4, GPI, 0, IN_FLOAT);
    3be2:	fec42703          	lw	a4,-20(s0)
    3be6:	47a9                	li	a5,10
    3be8:	00f71a63          	bne	a4,a5,3bfc <timer_gpio_quad_init+0xa0>
D:\A_Dual1\Dual-core_Communication_Demo\Dual-core_Communication_Demo\SLAVE\obj/../Libraries/seekfree_libraries/zf_qtimer.c:46 (discriminator 1)
    3bec:	4691                	li	a3,4
    3bee:	4601                	li	a2,0
    3bf0:	4581                	li	a1,0
    3bf2:	02400513          	li	a0,36
    3bf6:	a41ff0ef          	jal	ra,3636 <gpio_init>
    3bfa:	a829                	j	3c14 <timer_gpio_quad_init+0xb8>
D:\A_Dual1\Dual-core_Communication_Demo\Dual-core_Communication_Demo\SLAVE\obj/../Libraries/seekfree_libraries/zf_qtimer.c:47
    else if(TIMER4_CHA_B6 == phaseA)  gpio_init(B6, GPI, 0, IN_FLOAT);
    3bfc:	fec42703          	lw	a4,-20(s0)
    3c00:	47b1                	li	a5,12
    3c02:	00f71963          	bne	a4,a5,3c14 <timer_gpio_quad_init+0xb8>
D:\A_Dual1\Dual-core_Communication_Demo\Dual-core_Communication_Demo\SLAVE\obj/../Libraries/seekfree_libraries/zf_qtimer.c:47 (discriminator 1)
    3c06:	4691                	li	a3,4
    3c08:	4601                	li	a2,0
    3c0a:	4581                	li	a1,0
    3c0c:	02600513          	li	a0,38
    3c10:	a27ff0ef          	jal	ra,3636 <gpio_init>
D:\A_Dual1\Dual-core_Communication_Demo\Dual-core_Communication_Demo\SLAVE\obj/../Libraries/seekfree_libraries/zf_qtimer.c:49

    if(TIMER1_CHB_A9 == phaseB)       gpio_init(A9, GPI, 0, IN_FLOAT);
    3c14:	fe842703          	lw	a4,-24(s0)
    3c18:	4785                	li	a5,1
    3c1a:	00f71963          	bne	a4,a5,3c2c <timer_gpio_quad_init+0xd0>
D:\A_Dual1\Dual-core_Communication_Demo\Dual-core_Communication_Demo\SLAVE\obj/../Libraries/seekfree_libraries/zf_qtimer.c:49 (discriminator 1)
    3c1e:	4691                	li	a3,4
    3c20:	4601                	li	a2,0
    3c22:	4581                	li	a1,0
    3c24:	4525                	li	a0,9
    3c26:	a11ff0ef          	jal	ra,3636 <gpio_init>
D:\A_Dual1\Dual-core_Communication_Demo\Dual-core_Communication_Demo\SLAVE\obj/../Libraries/seekfree_libraries/zf_qtimer.c:57 (discriminator 1)
    else if(TIMER3_CHB_A7 == phaseB)  gpio_init(A7, GPI, 0, IN_FLOAT);
    else if(TIMER3_CHB_C7 == phaseB)  gpio_init(C7, GPI, 0, IN_FLOAT);
    else if(TIMER3_CHB_B5 == phaseB)  gpio_init(B5, GPI, 0, IN_FLOAT);
    else if(TIMER4_CHB_B7 == phaseB)  gpio_init(B7, GPI, 0, IN_FLOAT);

}
    3c2a:	a861                	j	3cc2 <timer_gpio_quad_init+0x166>
D:\A_Dual1\Dual-core_Communication_Demo\Dual-core_Communication_Demo\SLAVE\obj/../Libraries/seekfree_libraries/zf_qtimer.c:50
    else if(TIMER2_CHB_A1 == phaseB)  gpio_init(A1, GPI, 0, IN_FLOAT);
    3c2c:	fe842703          	lw	a4,-24(s0)
    3c30:	478d                	li	a5,3
    3c32:	00f71963          	bne	a4,a5,3c44 <timer_gpio_quad_init+0xe8>
D:\A_Dual1\Dual-core_Communication_Demo\Dual-core_Communication_Demo\SLAVE\obj/../Libraries/seekfree_libraries/zf_qtimer.c:50 (discriminator 1)
    3c36:	4691                	li	a3,4
    3c38:	4601                	li	a2,0
    3c3a:	4581                	li	a1,0
    3c3c:	4505                	li	a0,1
    3c3e:	9f9ff0ef          	jal	ra,3636 <gpio_init>
D:\A_Dual1\Dual-core_Communication_Demo\Dual-core_Communication_Demo\SLAVE\obj/../Libraries/seekfree_libraries/zf_qtimer.c:57 (discriminator 1)
}
    3c42:	a041                	j	3cc2 <timer_gpio_quad_init+0x166>
D:\A_Dual1\Dual-core_Communication_Demo\Dual-core_Communication_Demo\SLAVE\obj/../Libraries/seekfree_libraries/zf_qtimer.c:51
    else if(TIMER2_CHB_B3 == phaseB)  gpio_init(B3, GPI, 0, IN_FLOAT);
    3c44:	fe842703          	lw	a4,-24(s0)
    3c48:	4795                	li	a5,5
    3c4a:	00f71a63          	bne	a4,a5,3c5e <timer_gpio_quad_init+0x102>
D:\A_Dual1\Dual-core_Communication_Demo\Dual-core_Communication_Demo\SLAVE\obj/../Libraries/seekfree_libraries/zf_qtimer.c:51 (discriminator 1)
    3c4e:	4691                	li	a3,4
    3c50:	4601                	li	a2,0
    3c52:	4581                	li	a1,0
    3c54:	02300513          	li	a0,35
    3c58:	9dfff0ef          	jal	ra,3636 <gpio_init>
D:\A_Dual1\Dual-core_Communication_Demo\Dual-core_Communication_Demo\SLAVE\obj/../Libraries/seekfree_libraries/zf_qtimer.c:57 (discriminator 1)
}
    3c5c:	a09d                	j	3cc2 <timer_gpio_quad_init+0x166>
D:\A_Dual1\Dual-core_Communication_Demo\Dual-core_Communication_Demo\SLAVE\obj/../Libraries/seekfree_libraries/zf_qtimer.c:52
    else if(TIMER3_CHB_A7 == phaseB)  gpio_init(A7, GPI, 0, IN_FLOAT);
    3c5e:	fe842703          	lw	a4,-24(s0)
    3c62:	479d                	li	a5,7
    3c64:	00f71963          	bne	a4,a5,3c76 <timer_gpio_quad_init+0x11a>
D:\A_Dual1\Dual-core_Communication_Demo\Dual-core_Communication_Demo\SLAVE\obj/../Libraries/seekfree_libraries/zf_qtimer.c:52 (discriminator 1)
    3c68:	4691                	li	a3,4
    3c6a:	4601                	li	a2,0
    3c6c:	4581                	li	a1,0
    3c6e:	451d                	li	a0,7
    3c70:	9c7ff0ef          	jal	ra,3636 <gpio_init>
D:\A_Dual1\Dual-core_Communication_Demo\Dual-core_Communication_Demo\SLAVE\obj/../Libraries/seekfree_libraries/zf_qtimer.c:57 (discriminator 1)
}
    3c74:	a0b9                	j	3cc2 <timer_gpio_quad_init+0x166>
D:\A_Dual1\Dual-core_Communication_Demo\Dual-core_Communication_Demo\SLAVE\obj/../Libraries/seekfree_libraries/zf_qtimer.c:53
    else if(TIMER3_CHB_C7 == phaseB)  gpio_init(C7, GPI, 0, IN_FLOAT);
    3c76:	fe842703          	lw	a4,-24(s0)
    3c7a:	47a5                	li	a5,9
    3c7c:	00f71a63          	bne	a4,a5,3c90 <timer_gpio_quad_init+0x134>
D:\A_Dual1\Dual-core_Communication_Demo\Dual-core_Communication_Demo\SLAVE\obj/../Libraries/seekfree_libraries/zf_qtimer.c:53 (discriminator 1)
    3c80:	4691                	li	a3,4
    3c82:	4601                	li	a2,0
    3c84:	4581                	li	a1,0
    3c86:	04700513          	li	a0,71
    3c8a:	9adff0ef          	jal	ra,3636 <gpio_init>
D:\A_Dual1\Dual-core_Communication_Demo\Dual-core_Communication_Demo\SLAVE\obj/../Libraries/seekfree_libraries/zf_qtimer.c:57 (discriminator 1)
}
    3c8e:	a815                	j	3cc2 <timer_gpio_quad_init+0x166>
D:\A_Dual1\Dual-core_Communication_Demo\Dual-core_Communication_Demo\SLAVE\obj/../Libraries/seekfree_libraries/zf_qtimer.c:54
    else if(TIMER3_CHB_B5 == phaseB)  gpio_init(B5, GPI, 0, IN_FLOAT);
    3c90:	fe842703          	lw	a4,-24(s0)
    3c94:	47ad                	li	a5,11
    3c96:	00f71a63          	bne	a4,a5,3caa <timer_gpio_quad_init+0x14e>
D:\A_Dual1\Dual-core_Communication_Demo\Dual-core_Communication_Demo\SLAVE\obj/../Libraries/seekfree_libraries/zf_qtimer.c:54 (discriminator 1)
    3c9a:	4691                	li	a3,4
    3c9c:	4601                	li	a2,0
    3c9e:	4581                	li	a1,0
    3ca0:	02500513          	li	a0,37
    3ca4:	993ff0ef          	jal	ra,3636 <gpio_init>
D:\A_Dual1\Dual-core_Communication_Demo\Dual-core_Communication_Demo\SLAVE\obj/../Libraries/seekfree_libraries/zf_qtimer.c:57 (discriminator 1)
}
    3ca8:	a829                	j	3cc2 <timer_gpio_quad_init+0x166>
D:\A_Dual1\Dual-core_Communication_Demo\Dual-core_Communication_Demo\SLAVE\obj/../Libraries/seekfree_libraries/zf_qtimer.c:55
    else if(TIMER4_CHB_B7 == phaseB)  gpio_init(B7, GPI, 0, IN_FLOAT);
    3caa:	fe842703          	lw	a4,-24(s0)
    3cae:	47b5                	li	a5,13
    3cb0:	00f71963          	bne	a4,a5,3cc2 <timer_gpio_quad_init+0x166>
D:\A_Dual1\Dual-core_Communication_Demo\Dual-core_Communication_Demo\SLAVE\obj/../Libraries/seekfree_libraries/zf_qtimer.c:55 (discriminator 1)
    3cb4:	4691                	li	a3,4
    3cb6:	4601                	li	a2,0
    3cb8:	4581                	li	a1,0
    3cba:	02700513          	li	a0,39
    3cbe:	979ff0ef          	jal	ra,3636 <gpio_init>
D:\A_Dual1\Dual-core_Communication_Demo\Dual-core_Communication_Demo\SLAVE\obj/../Libraries/seekfree_libraries/zf_qtimer.c:57
}
    3cc2:	0001                	nop
    3cc4:	40f2                	lw	ra,28(sp)
    3cc6:	4462                	lw	s0,24(sp)
    3cc8:	6105                	addi	sp,sp,32
    3cca:	8082                	ret

00003ccc <timer_quad_init>:
timer_quad_init():
D:\A_Dual1\Dual-core_Communication_Demo\Dual-core_Communication_Demo\SLAVE\obj/../Libraries/seekfree_libraries/zf_qtimer.c:69
//  @param      phaseB      B
//  @return     void
//  Sample usage:           
//-------------------------------------------------------------------------------------------------------------------
void timer_quad_init(TIMERN_enum timern, TIMER_PIN_enum phaseA, TIMER_PIN_enum phaseB)
{
    3ccc:	7179                	addi	sp,sp,-48
    3cce:	d606                	sw	ra,44(sp)
    3cd0:	d422                	sw	s0,40(sp)
    3cd2:	1800                	addi	s0,sp,48
    3cd4:	fca42e23          	sw	a0,-36(s0)
    3cd8:	fcb42c23          	sw	a1,-40(s0)
    3cdc:	fcc42a23          	sw	a2,-44(s0)
D:\A_Dual1\Dual-core_Communication_Demo\Dual-core_Communication_Demo\SLAVE\obj/../Libraries/seekfree_libraries/zf_qtimer.c:72
    TIM_TimeBaseInitTypeDef TIM_TimeBaseStructure;

    if(TIMER_1 == timern)       RCC_APB2PeriphClockCmd(RCC_APB2Periph_TIM1, ENABLE);//1
    3ce0:	fdc42783          	lw	a5,-36(s0)
    3ce4:	eb81                	bnez	a5,3cf4 <timer_quad_init+0x28>
D:\A_Dual1\Dual-core_Communication_Demo\Dual-core_Communication_Demo\SLAVE\obj/../Libraries/seekfree_libraries/zf_qtimer.c:72 (discriminator 1)
    3ce6:	4585                	li	a1,1
    3ce8:	6785                	lui	a5,0x1
    3cea:	80078513          	addi	a0,a5,-2048 # 800 <__stack_size>
    3cee:	b17fd0ef          	jal	ra,1804 <RCC_APB2PeriphClockCmd>
    3cf2:	a835                	j	3d2e <timer_quad_init+0x62>
D:\A_Dual1\Dual-core_Communication_Demo\Dual-core_Communication_Demo\SLAVE\obj/../Libraries/seekfree_libraries/zf_qtimer.c:73
    else  if(TIMER_2 == timern) RCC_APB1PeriphClockCmd(RCC_APB1Periph_TIM2, ENABLE);//2
    3cf4:	fdc42703          	lw	a4,-36(s0)
    3cf8:	4785                	li	a5,1
    3cfa:	00f71763          	bne	a4,a5,3d08 <timer_quad_init+0x3c>
D:\A_Dual1\Dual-core_Communication_Demo\Dual-core_Communication_Demo\SLAVE\obj/../Libraries/seekfree_libraries/zf_qtimer.c:73 (discriminator 1)
    3cfe:	4585                	li	a1,1
    3d00:	4505                	li	a0,1
    3d02:	b49fd0ef          	jal	ra,184a <RCC_APB1PeriphClockCmd>
    3d06:	a025                	j	3d2e <timer_quad_init+0x62>
D:\A_Dual1\Dual-core_Communication_Demo\Dual-core_Communication_Demo\SLAVE\obj/../Libraries/seekfree_libraries/zf_qtimer.c:74
    else  if(TIMER_3 == timern) RCC_APB1PeriphClockCmd(RCC_APB1Periph_TIM3, ENABLE);//3
    3d08:	fdc42703          	lw	a4,-36(s0)
    3d0c:	4789                	li	a5,2
    3d0e:	00f71763          	bne	a4,a5,3d1c <timer_quad_init+0x50>
D:\A_Dual1\Dual-core_Communication_Demo\Dual-core_Communication_Demo\SLAVE\obj/../Libraries/seekfree_libraries/zf_qtimer.c:74 (discriminator 1)
    3d12:	4585                	li	a1,1
    3d14:	4509                	li	a0,2
    3d16:	b35fd0ef          	jal	ra,184a <RCC_APB1PeriphClockCmd>
    3d1a:	a811                	j	3d2e <timer_quad_init+0x62>
D:\A_Dual1\Dual-core_Communication_Demo\Dual-core_Communication_Demo\SLAVE\obj/../Libraries/seekfree_libraries/zf_qtimer.c:75
    else  if(TIMER_4 == timern) RCC_APB1PeriphClockCmd(RCC_APB1Periph_TIM4, ENABLE);//4
    3d1c:	fdc42703          	lw	a4,-36(s0)
    3d20:	478d                	li	a5,3
    3d22:	00f71663          	bne	a4,a5,3d2e <timer_quad_init+0x62>
D:\A_Dual1\Dual-core_Communication_Demo\Dual-core_Communication_Demo\SLAVE\obj/../Libraries/seekfree_libraries/zf_qtimer.c:75 (discriminator 1)
    3d26:	4585                	li	a1,1
    3d28:	4511                	li	a0,4
    3d2a:	b21fd0ef          	jal	ra,184a <RCC_APB1PeriphClockCmd>
D:\A_Dual1\Dual-core_Communication_Demo\Dual-core_Communication_Demo\SLAVE\obj/../Libraries/seekfree_libraries/zf_qtimer.c:77

    timer_gpio_quad_init(phaseA, phaseB);                                           //
    3d2e:	fd442583          	lw	a1,-44(s0)
    3d32:	fd842503          	lw	a0,-40(s0)
    3d36:	e27ff0ef          	jal	ra,3b5c <timer_gpio_quad_init>
D:\A_Dual1\Dual-core_Communication_Demo\Dual-core_Communication_Demo\SLAVE\obj/../Libraries/seekfree_libraries/zf_qtimer.c:79

    RCC_APB2PeriphClockCmd(RCC_APB2Periph_AFIO, ENABLE);                            //AFIO
    3d3a:	4585                	li	a1,1
    3d3c:	4505                	li	a0,1
    3d3e:	ac7fd0ef          	jal	ra,1804 <RCC_APB2PeriphClockCmd>
D:\A_Dual1\Dual-core_Communication_Demo\Dual-core_Communication_Demo\SLAVE\obj/../Libraries/seekfree_libraries/zf_qtimer.c:81

    if(TIMER2_CHA_A15 == phaseA && TIMER2_CHB_B3 == phaseB)                         //
    3d42:	fd842703          	lw	a4,-40(s0)
    3d46:	4791                	li	a5,4
    3d48:	00f71f63          	bne	a4,a5,3d66 <timer_quad_init+0x9a>
D:\A_Dual1\Dual-core_Communication_Demo\Dual-core_Communication_Demo\SLAVE\obj/../Libraries/seekfree_libraries/zf_qtimer.c:81 (discriminator 1)
    3d4c:	fd442703          	lw	a4,-44(s0)
    3d50:	4795                	li	a5,5
    3d52:	00f71a63          	bne	a4,a5,3d66 <timer_quad_init+0x9a>
D:\A_Dual1\Dual-core_Communication_Demo\Dual-core_Communication_Demo\SLAVE\obj/../Libraries/seekfree_libraries/zf_qtimer.c:82
        GPIO_PinRemapConfig(GPIO_FullRemap_TIM2, ENABLE);
    3d56:	4585                	li	a1,1
    3d58:	001807b7          	lui	a5,0x180
    3d5c:	30078513          	addi	a0,a5,768 # 180300 <_data_lma+0x1762e8>
    3d60:	d14fd0ef          	jal	ra,1274 <GPIO_PinRemapConfig>
    3d64:	a0a1                	j	3dac <timer_quad_init+0xe0>
D:\A_Dual1\Dual-core_Communication_Demo\Dual-core_Communication_Demo\SLAVE\obj/../Libraries/seekfree_libraries/zf_qtimer.c:83
    else    if(TIMER3_CHA_C6 == phaseA && TIMER3_CHB_C7 == phaseB)
    3d66:	fd842703          	lw	a4,-40(s0)
    3d6a:	47a1                	li	a5,8
    3d6c:	00f71f63          	bne	a4,a5,3d8a <timer_quad_init+0xbe>
D:\A_Dual1\Dual-core_Communication_Demo\Dual-core_Communication_Demo\SLAVE\obj/../Libraries/seekfree_libraries/zf_qtimer.c:83 (discriminator 1)
    3d70:	fd442703          	lw	a4,-44(s0)
    3d74:	47a5                	li	a5,9
    3d76:	00f71a63          	bne	a4,a5,3d8a <timer_quad_init+0xbe>
D:\A_Dual1\Dual-core_Communication_Demo\Dual-core_Communication_Demo\SLAVE\obj/../Libraries/seekfree_libraries/zf_qtimer.c:84
        GPIO_PinRemapConfig(GPIO_FullRemap_TIM3, ENABLE);
    3d7a:	4585                	li	a1,1
    3d7c:	001a17b7          	lui	a5,0x1a1
    3d80:	c0078513          	addi	a0,a5,-1024 # 1a0c00 <_data_lma+0x196be8>
    3d84:	cf0fd0ef          	jal	ra,1274 <GPIO_PinRemapConfig>
    3d88:	a015                	j	3dac <timer_quad_init+0xe0>
D:\A_Dual1\Dual-core_Communication_Demo\Dual-core_Communication_Demo\SLAVE\obj/../Libraries/seekfree_libraries/zf_qtimer.c:85
    else    if(TIMER3_CHA_B4 == phaseA && TIMER3_CHB_B5 == phaseB)
    3d8a:	fd842703          	lw	a4,-40(s0)
    3d8e:	47a9                	li	a5,10
    3d90:	00f71e63          	bne	a4,a5,3dac <timer_quad_init+0xe0>
D:\A_Dual1\Dual-core_Communication_Demo\Dual-core_Communication_Demo\SLAVE\obj/../Libraries/seekfree_libraries/zf_qtimer.c:85 (discriminator 1)
    3d94:	fd442703          	lw	a4,-44(s0)
    3d98:	47ad                	li	a5,11
    3d9a:	00f71963          	bne	a4,a5,3dac <timer_quad_init+0xe0>
D:\A_Dual1\Dual-core_Communication_Demo\Dual-core_Communication_Demo\SLAVE\obj/../Libraries/seekfree_libraries/zf_qtimer.c:86
        GPIO_PinRemapConfig(GPIO_PartialRemap_TIM3, ENABLE);
    3d9e:	4585                	li	a1,1
    3da0:	001a17b7          	lui	a5,0x1a1
    3da4:	80078513          	addi	a0,a5,-2048 # 1a0800 <_data_lma+0x1967e8>
    3da8:	cccfd0ef          	jal	ra,1274 <GPIO_PinRemapConfig>
D:\A_Dual1\Dual-core_Communication_Demo\Dual-core_Communication_Demo\SLAVE\obj/../Libraries/seekfree_libraries/zf_qtimer.c:88

    TIM_TimeBaseStructInit(&TIM_TimeBaseStructure);
    3dac:	fe440793          	addi	a5,s0,-28
    3db0:	853e                	mv	a0,a5
    3db2:	d2bfd0ef          	jal	ra,1adc <TIM_TimeBaseStructInit>
D:\A_Dual1\Dual-core_Communication_Demo\Dual-core_Communication_Demo\SLAVE\obj/../Libraries/seekfree_libraries/zf_qtimer.c:89
    TIM_TimeBaseStructure.TIM_Prescaler = 1;                                        //
    3db6:	4785                	li	a5,1
    3db8:	fef41223          	sh	a5,-28(s0)
D:\A_Dual1\Dual-core_Communication_Demo\Dual-core_Communication_Demo\SLAVE\obj/../Libraries/seekfree_libraries/zf_qtimer.c:90
    TIM_TimeBaseStructure.TIM_Period = 0xFFFF;                                      //
    3dbc:	57fd                	li	a5,-1
    3dbe:	fef41423          	sh	a5,-24(s0)
D:\A_Dual1\Dual-core_Communication_Demo\Dual-core_Communication_Demo\SLAVE\obj/../Libraries/seekfree_libraries/zf_qtimer.c:91
    TIM_TimeBaseStructure.TIM_ClockDivision = TIM_CKD_DIV1;                         //
    3dc2:	fe041523          	sh	zero,-22(s0)
D:\A_Dual1\Dual-core_Communication_Demo\Dual-core_Communication_Demo\SLAVE\obj/../Libraries/seekfree_libraries/zf_qtimer.c:92
    TIM_TimeBaseStructure.TIM_CounterMode = TIM_CounterMode_Up;                     //TIM
    3dc6:	fe041323          	sh	zero,-26(s0)
D:\A_Dual1\Dual-core_Communication_Demo\Dual-core_Communication_Demo\SLAVE\obj/../Libraries/seekfree_libraries/zf_qtimer.c:93
    TIM_TimeBaseStructure.TIM_RepetitionCounter = 0;                                //
    3dca:	fe040623          	sb	zero,-20(s0)
D:\A_Dual1\Dual-core_Communication_Demo\Dual-core_Communication_Demo\SLAVE\obj/../Libraries/seekfree_libraries/zf_qtimer.c:94
    TIM_TimeBaseInit((TIM_TypeDef*)(TIMERN[timern]), &TIM_TimeBaseStructure);       //
    3dce:	67a9                	lui	a5,0xa
    3dd0:	fdc42703          	lw	a4,-36(s0)
    3dd4:	070a                	slli	a4,a4,0x2
    3dd6:	d7478793          	addi	a5,a5,-652 # 9d74 <TIMERN>
    3dda:	97ba                	add	a5,a5,a4
    3ddc:	439c                	lw	a5,0(a5)
    3dde:	873e                	mv	a4,a5
    3de0:	fe440793          	addi	a5,s0,-28
    3de4:	85be                	mv	a1,a5
    3de6:	853a                	mv	a0,a4
    3de8:	bfbfd0ef          	jal	ra,19e2 <TIM_TimeBaseInit>
D:\A_Dual1\Dual-core_Communication_Demo\Dual-core_Communication_Demo\SLAVE\obj/../Libraries/seekfree_libraries/zf_qtimer.c:95
    TIM_EncoderInterfaceConfig((TIM_TypeDef*)(TIMERN[timern]), TIM_EncoderMode_TI2 , TIM_ICPolarity_Rising, TIM_ICPolarity_Rising);//
    3dec:	67a9                	lui	a5,0xa
    3dee:	fdc42703          	lw	a4,-36(s0)
    3df2:	070a                	slli	a4,a4,0x2
    3df4:	d7478793          	addi	a5,a5,-652 # 9d74 <TIMERN>
    3df8:	97ba                	add	a5,a5,a4
    3dfa:	439c                	lw	a5,0(a5)
    3dfc:	4681                	li	a3,0
    3dfe:	4601                	li	a2,0
    3e00:	4589                	li	a1,2
    3e02:	853e                	mv	a0,a5
    3e04:	fa1fd0ef          	jal	ra,1da4 <TIM_EncoderInterfaceConfig>
D:\A_Dual1\Dual-core_Communication_Demo\Dual-core_Communication_Demo\SLAVE\obj/../Libraries/seekfree_libraries/zf_qtimer.c:97

    TIM_Cmd((TIM_TypeDef*)(TIMERN[timern]), ENABLE);                                //
    3e08:	67a9                	lui	a5,0xa
    3e0a:	fdc42703          	lw	a4,-36(s0)
    3e0e:	070a                	slli	a4,a4,0x2
    3e10:	d7478793          	addi	a5,a5,-652 # 9d74 <TIMERN>
    3e14:	97ba                	add	a5,a5,a4
    3e16:	439c                	lw	a5,0(a5)
    3e18:	4585                	li	a1,1
    3e1a:	853e                	mv	a0,a5
    3e1c:	cfdfd0ef          	jal	ra,1b18 <TIM_Cmd>
D:\A_Dual1\Dual-core_Communication_Demo\Dual-core_Communication_Demo\SLAVE\obj/../Libraries/seekfree_libraries/zf_qtimer.c:98
}
    3e20:	0001                	nop
    3e22:	50b2                	lw	ra,44(sp)
    3e24:	5422                	lw	s0,40(sp)
    3e26:	6145                	addi	sp,sp,48
    3e28:	8082                	ret

00003e2a <timer_quad_get>:
timer_quad_get():
D:\A_Dual1\Dual-core_Communication_Demo\Dual-core_Communication_Demo\SLAVE\obj/../Libraries/seekfree_libraries/zf_qtimer.c:107
//  @param      timern      
//  @return     void
//  Sample usage:
//-------------------------------------------------------------------------------------------------------------------
int16 timer_quad_get(TIMERN_enum timern)
{
    3e2a:	7179                	addi	sp,sp,-48
    3e2c:	d622                	sw	s0,44(sp)
    3e2e:	1800                	addi	s0,sp,48
    3e30:	fca42e23          	sw	a0,-36(s0)
D:\A_Dual1\Dual-core_Communication_Demo\Dual-core_Communication_Demo\SLAVE\obj/../Libraries/seekfree_libraries/zf_qtimer.c:108
    int16 count = ((TIM_TypeDef*)(TIMERN[timern]))->CNT;
    3e34:	67a9                	lui	a5,0xa
    3e36:	fdc42703          	lw	a4,-36(s0)
    3e3a:	070a                	slli	a4,a4,0x2
    3e3c:	d7478793          	addi	a5,a5,-652 # 9d74 <TIMERN>
    3e40:	97ba                	add	a5,a5,a4
    3e42:	439c                	lw	a5,0(a5)
    3e44:	0247d783          	lhu	a5,36(a5)
    3e48:	07c2                	slli	a5,a5,0x10
    3e4a:	83c1                	srli	a5,a5,0x10
    3e4c:	fef41723          	sh	a5,-18(s0)
D:\A_Dual1\Dual-core_Communication_Demo\Dual-core_Communication_Demo\SLAVE\obj/../Libraries/seekfree_libraries/zf_qtimer.c:109
    return count;
    3e50:	fee41783          	lh	a5,-18(s0)
D:\A_Dual1\Dual-core_Communication_Demo\Dual-core_Communication_Demo\SLAVE\obj/../Libraries/seekfree_libraries/zf_qtimer.c:110
}
    3e54:	853e                	mv	a0,a5
    3e56:	5432                	lw	s0,44(sp)
    3e58:	6145                	addi	sp,sp,48
    3e5a:	8082                	ret

00003e5c <timer_quad_clear>:
timer_quad_clear():
D:\A_Dual1\Dual-core_Communication_Demo\Dual-core_Communication_Demo\SLAVE\obj/../Libraries/seekfree_libraries/zf_qtimer.c:119
//  @param      timern      
//  @return     void
//  Sample usage:
//-------------------------------------------------------------------------------------------------------------------
void timer_quad_clear(TIMERN_enum timern)
{
    3e5c:	1101                	addi	sp,sp,-32
    3e5e:	ce22                	sw	s0,28(sp)
    3e60:	1000                	addi	s0,sp,32
    3e62:	fea42623          	sw	a0,-20(s0)
D:\A_Dual1\Dual-core_Communication_Demo\Dual-core_Communication_Demo\SLAVE\obj/../Libraries/seekfree_libraries/zf_qtimer.c:120
    ((TIM_TypeDef*)(TIMERN[timern]))->CNT = 0;
    3e66:	67a9                	lui	a5,0xa
    3e68:	fec42703          	lw	a4,-20(s0)
    3e6c:	070a                	slli	a4,a4,0x2
    3e6e:	d7478793          	addi	a5,a5,-652 # 9d74 <TIMERN>
    3e72:	97ba                	add	a5,a5,a4
    3e74:	439c                	lw	a5,0(a5)
    3e76:	02079223          	sh	zero,36(a5)
D:\A_Dual1\Dual-core_Communication_Demo\Dual-core_Communication_Demo\SLAVE\obj/../Libraries/seekfree_libraries/zf_qtimer.c:121
}
    3e7a:	0001                	nop
    3e7c:	4472                	lw	s0,28(sp)
    3e7e:	6105                	addi	sp,sp,32
    3e80:	8082                	ret

00003e82 <spi_gpio_init>:
spi_gpio_init():
D:\A_Dual1\Dual-core_Communication_Demo\Dual-core_Communication_Demo\SLAVE\obj/../Libraries/seekfree_libraries/zf_spi.c:41
//  @param      cs_pin      (common.hPIN_enum)
//  @return     void
//  Sample usage:             
//-------------------------------------------------------------------------------------------------------------------
void spi_gpio_init(SPI_PIN_enum sck_pin, SPI_PIN_enum mosi_pin, SPI_PIN_enum miso_pin, PIN_enum cs_pin)
{
    3e82:	1101                	addi	sp,sp,-32
    3e84:	ce06                	sw	ra,28(sp)
    3e86:	cc22                	sw	s0,24(sp)
    3e88:	1000                	addi	s0,sp,32
    3e8a:	fea42623          	sw	a0,-20(s0)
    3e8e:	feb42423          	sw	a1,-24(s0)
    3e92:	fec42223          	sw	a2,-28(s0)
    3e96:	fed42023          	sw	a3,-32(s0)
D:\A_Dual1\Dual-core_Communication_Demo\Dual-core_Communication_Demo\SLAVE\obj/../Libraries/seekfree_libraries/zf_spi.c:42
    if(SPI1_SCK_PA5 == sck_pin) gpio_init(A5, GPO, 1, SPEED_50MHZ|OUT_AF_PP);
    3e9a:	fec42783          	lw	a5,-20(s0)
    3e9e:	eb89                	bnez	a5,3eb0 <spi_gpio_init+0x2e>
D:\A_Dual1\Dual-core_Communication_Demo\Dual-core_Communication_Demo\SLAVE\obj/../Libraries/seekfree_libraries/zf_spi.c:42 (discriminator 1)
    3ea0:	31800693          	li	a3,792
    3ea4:	4605                	li	a2,1
    3ea6:	4585                	li	a1,1
    3ea8:	4515                	li	a0,5
    3eaa:	f8cff0ef          	jal	ra,3636 <gpio_init>
    3eae:	a899                	j	3f04 <spi_gpio_init+0x82>
D:\A_Dual1\Dual-core_Communication_Demo\Dual-core_Communication_Demo\SLAVE\obj/../Libraries/seekfree_libraries/zf_spi.c:43
    else if(SPI1_SCK_PB3 == sck_pin) gpio_init(B3, GPO, 1, SPEED_50MHZ|OUT_AF_PP);
    3eb0:	fec42703          	lw	a4,-20(s0)
    3eb4:	47c1                	li	a5,16
    3eb6:	00f71b63          	bne	a4,a5,3ecc <spi_gpio_init+0x4a>
D:\A_Dual1\Dual-core_Communication_Demo\Dual-core_Communication_Demo\SLAVE\obj/../Libraries/seekfree_libraries/zf_spi.c:43 (discriminator 1)
    3eba:	31800693          	li	a3,792
    3ebe:	4605                	li	a2,1
    3ec0:	4585                	li	a1,1
    3ec2:	02300513          	li	a0,35
    3ec6:	f70ff0ef          	jal	ra,3636 <gpio_init>
    3eca:	a82d                	j	3f04 <spi_gpio_init+0x82>
D:\A_Dual1\Dual-core_Communication_Demo\Dual-core_Communication_Demo\SLAVE\obj/../Libraries/seekfree_libraries/zf_spi.c:44
    else if(SPI2_SCK_PB13 == sck_pin) gpio_init(B13, GPO, 1, SPEED_50MHZ|OUT_AF_PP);
    3ecc:	fec42703          	lw	a4,-20(s0)
    3ed0:	02000793          	li	a5,32
    3ed4:	00f71b63          	bne	a4,a5,3eea <spi_gpio_init+0x68>
D:\A_Dual1\Dual-core_Communication_Demo\Dual-core_Communication_Demo\SLAVE\obj/../Libraries/seekfree_libraries/zf_spi.c:44 (discriminator 1)
    3ed8:	31800693          	li	a3,792
    3edc:	4605                	li	a2,1
    3ede:	4585                	li	a1,1
    3ee0:	02d00513          	li	a0,45
    3ee4:	f52ff0ef          	jal	ra,3636 <gpio_init>
    3ee8:	a831                	j	3f04 <spi_gpio_init+0x82>
D:\A_Dual1\Dual-core_Communication_Demo\Dual-core_Communication_Demo\SLAVE\obj/../Libraries/seekfree_libraries/zf_spi.c:45
    else assert(0);         //
    3eea:	67a5                	lui	a5,0x9
    3eec:	6e078693          	addi	a3,a5,1760 # 96e0 <_exit+0xbc>
    3ef0:	67a9                	lui	a5,0xa
    3ef2:	d8478613          	addi	a2,a5,-636 # 9d84 <__func__.3348>
    3ef6:	02d00593          	li	a1,45
    3efa:	67a5                	lui	a5,0x9
    3efc:	6e478513          	addi	a0,a5,1764 # 96e4 <_exit+0xc0>
    3f00:	484040ef          	jal	ra,8384 <__assert_func>
D:\A_Dual1\Dual-core_Communication_Demo\Dual-core_Communication_Demo\SLAVE\obj/../Libraries/seekfree_libraries/zf_spi.c:47

    if(SPI1_MOSI_PA7 == mosi_pin) gpio_init(A7, GPO, 1, SPEED_50MHZ|OUT_AF_PP);
    3f04:	fe842703          	lw	a4,-24(s0)
    3f08:	4785                	li	a5,1
    3f0a:	00f71a63          	bne	a4,a5,3f1e <spi_gpio_init+0x9c>
D:\A_Dual1\Dual-core_Communication_Demo\Dual-core_Communication_Demo\SLAVE\obj/../Libraries/seekfree_libraries/zf_spi.c:47 (discriminator 1)
    3f0e:	31800693          	li	a3,792
    3f12:	4605                	li	a2,1
    3f14:	4585                	li	a1,1
    3f16:	451d                	li	a0,7
    3f18:	f1eff0ef          	jal	ra,3636 <gpio_init>
    3f1c:	a899                	j	3f72 <spi_gpio_init+0xf0>
D:\A_Dual1\Dual-core_Communication_Demo\Dual-core_Communication_Demo\SLAVE\obj/../Libraries/seekfree_libraries/zf_spi.c:48
    else if(SPI1_MOSI_PB5 == mosi_pin) gpio_init(B5, GPO, 1, SPEED_50MHZ|OUT_AF_PP);
    3f1e:	fe842703          	lw	a4,-24(s0)
    3f22:	47c5                	li	a5,17
    3f24:	00f71b63          	bne	a4,a5,3f3a <spi_gpio_init+0xb8>
D:\A_Dual1\Dual-core_Communication_Demo\Dual-core_Communication_Demo\SLAVE\obj/../Libraries/seekfree_libraries/zf_spi.c:48 (discriminator 1)
    3f28:	31800693          	li	a3,792
    3f2c:	4605                	li	a2,1
    3f2e:	4585                	li	a1,1
    3f30:	02500513          	li	a0,37
    3f34:	f02ff0ef          	jal	ra,3636 <gpio_init>
    3f38:	a82d                	j	3f72 <spi_gpio_init+0xf0>
D:\A_Dual1\Dual-core_Communication_Demo\Dual-core_Communication_Demo\SLAVE\obj/../Libraries/seekfree_libraries/zf_spi.c:49
    else if(SPI2_MOSI_PB15 == mosi_pin) gpio_init(B15, GPO, 1, SPEED_50MHZ|OUT_AF_PP);
    3f3a:	fe842703          	lw	a4,-24(s0)
    3f3e:	02100793          	li	a5,33
    3f42:	00f71b63          	bne	a4,a5,3f58 <spi_gpio_init+0xd6>
D:\A_Dual1\Dual-core_Communication_Demo\Dual-core_Communication_Demo\SLAVE\obj/../Libraries/seekfree_libraries/zf_spi.c:49 (discriminator 1)
    3f46:	31800693          	li	a3,792
    3f4a:	4605                	li	a2,1
    3f4c:	4585                	li	a1,1
    3f4e:	02f00513          	li	a0,47
    3f52:	ee4ff0ef          	jal	ra,3636 <gpio_init>
    3f56:	a831                	j	3f72 <spi_gpio_init+0xf0>
D:\A_Dual1\Dual-core_Communication_Demo\Dual-core_Communication_Demo\SLAVE\obj/../Libraries/seekfree_libraries/zf_spi.c:50
    else assert(0);         //
    3f58:	67a5                	lui	a5,0x9
    3f5a:	6e078693          	addi	a3,a5,1760 # 96e0 <_exit+0xbc>
    3f5e:	67a9                	lui	a5,0xa
    3f60:	d8478613          	addi	a2,a5,-636 # 9d84 <__func__.3348>
    3f64:	03200593          	li	a1,50
    3f68:	67a5                	lui	a5,0x9
    3f6a:	6e478513          	addi	a0,a5,1764 # 96e4 <_exit+0xc0>
    3f6e:	416040ef          	jal	ra,8384 <__assert_func>
D:\A_Dual1\Dual-core_Communication_Demo\Dual-core_Communication_Demo\SLAVE\obj/../Libraries/seekfree_libraries/zf_spi.c:52

    if(SPI1_MISO_PA6 == miso_pin) gpio_init(A6, GPO, 1, SPEED_50MHZ|OUT_AF_PP);
    3f72:	fe442703          	lw	a4,-28(s0)
    3f76:	4789                	li	a5,2
    3f78:	00f71a63          	bne	a4,a5,3f8c <spi_gpio_init+0x10a>
D:\A_Dual1\Dual-core_Communication_Demo\Dual-core_Communication_Demo\SLAVE\obj/../Libraries/seekfree_libraries/zf_spi.c:52 (discriminator 1)
    3f7c:	31800693          	li	a3,792
    3f80:	4605                	li	a2,1
    3f82:	4585                	li	a1,1
    3f84:	4519                	li	a0,6
    3f86:	eb0ff0ef          	jal	ra,3636 <gpio_init>
    3f8a:	a0b5                	j	3ff6 <spi_gpio_init+0x174>
D:\A_Dual1\Dual-core_Communication_Demo\Dual-core_Communication_Demo\SLAVE\obj/../Libraries/seekfree_libraries/zf_spi.c:53
    else if(SPI1_MISO_PB4 == miso_pin) gpio_init(B4, GPO, 1, SPEED_50MHZ|OUT_AF_PP);
    3f8c:	fe442703          	lw	a4,-28(s0)
    3f90:	47c9                	li	a5,18
    3f92:	00f71b63          	bne	a4,a5,3fa8 <spi_gpio_init+0x126>
D:\A_Dual1\Dual-core_Communication_Demo\Dual-core_Communication_Demo\SLAVE\obj/../Libraries/seekfree_libraries/zf_spi.c:53 (discriminator 1)
    3f96:	31800693          	li	a3,792
    3f9a:	4605                	li	a2,1
    3f9c:	4585                	li	a1,1
    3f9e:	02400513          	li	a0,36
    3fa2:	e94ff0ef          	jal	ra,3636 <gpio_init>
    3fa6:	a881                	j	3ff6 <spi_gpio_init+0x174>
D:\A_Dual1\Dual-core_Communication_Demo\Dual-core_Communication_Demo\SLAVE\obj/../Libraries/seekfree_libraries/zf_spi.c:54
    else if(SPI2_MISO_PB14 == miso_pin) gpio_init(B14, GPO, 1, SPEED_50MHZ|OUT_AF_PP);
    3fa8:	fe442703          	lw	a4,-28(s0)
    3fac:	02200793          	li	a5,34
    3fb0:	00f71b63          	bne	a4,a5,3fc6 <spi_gpio_init+0x144>
D:\A_Dual1\Dual-core_Communication_Demo\Dual-core_Communication_Demo\SLAVE\obj/../Libraries/seekfree_libraries/zf_spi.c:54 (discriminator 1)
    3fb4:	31800693          	li	a3,792
    3fb8:	4605                	li	a2,1
    3fba:	4585                	li	a1,1
    3fbc:	02e00513          	li	a0,46
    3fc0:	e76ff0ef          	jal	ra,3636 <gpio_init>
    3fc4:	a80d                	j	3ff6 <spi_gpio_init+0x174>
D:\A_Dual1\Dual-core_Communication_Demo\Dual-core_Communication_Demo\SLAVE\obj/../Libraries/seekfree_libraries/zf_spi.c:55
    else if(SPI_MISO_NULL == miso_pin)  miso_pin = SPI_MISO_NULL;
    3fc6:	fe442703          	lw	a4,-28(s0)
    3fca:	02300793          	li	a5,35
    3fce:	00f71763          	bne	a4,a5,3fdc <spi_gpio_init+0x15a>
D:\A_Dual1\Dual-core_Communication_Demo\Dual-core_Communication_Demo\SLAVE\obj/../Libraries/seekfree_libraries/zf_spi.c:55 (discriminator 1)
    3fd2:	02300793          	li	a5,35
    3fd6:	fef42223          	sw	a5,-28(s0)
    3fda:	a831                	j	3ff6 <spi_gpio_init+0x174>
D:\A_Dual1\Dual-core_Communication_Demo\Dual-core_Communication_Demo\SLAVE\obj/../Libraries/seekfree_libraries/zf_spi.c:56
    else  assert(0);         //
    3fdc:	67a5                	lui	a5,0x9
    3fde:	6e078693          	addi	a3,a5,1760 # 96e0 <_exit+0xbc>
    3fe2:	67a9                	lui	a5,0xa
    3fe4:	d8478613          	addi	a2,a5,-636 # 9d84 <__func__.3348>
    3fe8:	03800593          	li	a1,56
    3fec:	67a5                	lui	a5,0x9
    3fee:	6e478513          	addi	a0,a5,1764 # 96e4 <_exit+0xc0>
    3ff2:	392040ef          	jal	ra,8384 <__assert_func>
D:\A_Dual1\Dual-core_Communication_Demo\Dual-core_Communication_Demo\SLAVE\obj/../Libraries/seekfree_libraries/zf_spi.c:59


    gpio_init(cs_pin, GPO, 1, SPEED_50MHZ|OUT_PP);
    3ff6:	31000693          	li	a3,784
    3ffa:	4605                	li	a2,1
    3ffc:	4585                	li	a1,1
    3ffe:	fe042503          	lw	a0,-32(s0)
    4002:	e34ff0ef          	jal	ra,3636 <gpio_init>
D:\A_Dual1\Dual-core_Communication_Demo\Dual-core_Communication_Demo\SLAVE\obj/../Libraries/seekfree_libraries/zf_spi.c:61

}
    4006:	0001                	nop
    4008:	40f2                	lw	ra,28(sp)
    400a:	4462                	lw	s0,24(sp)
    400c:	6105                	addi	sp,sp,32
    400e:	8082                	ret

00004010 <spi_init>:
spi_init():
D:\A_Dual1\Dual-core_Communication_Demo\Dual-core_Communication_Demo\SLAVE\obj/../Libraries/seekfree_libraries/zf_spi.c:85
        SPI_PIN_enum mosi_pin,
        SPI_PIN_enum miso_pin,
        PIN_enum cs_pin,
        uint8 mode,
        SPI_SPEED_enum BaudRatePrescaler)
{
    4010:	715d                	addi	sp,sp,-80
    4012:	c686                	sw	ra,76(sp)
    4014:	c4a2                	sw	s0,72(sp)
    4016:	0880                	addi	s0,sp,80
    4018:	fca42623          	sw	a0,-52(s0)
    401c:	fcb42423          	sw	a1,-56(s0)
    4020:	fcc42223          	sw	a2,-60(s0)
    4024:	fcd42023          	sw	a3,-64(s0)
    4028:	fae42e23          	sw	a4,-68(s0)
    402c:	fb042a23          	sw	a6,-76(s0)
    4030:	faf40da3          	sb	a5,-69(s0)
D:\A_Dual1\Dual-core_Communication_Demo\Dual-core_Communication_Demo\SLAVE\obj/../Libraries/seekfree_libraries/zf_spi.c:89

    SPI_InitTypeDef  SPI_InitStructure;

    if(SPI_1 == spi_n)
    4034:	fcc42783          	lw	a5,-52(s0)
    4038:	eb81                	bnez	a5,4048 <spi_init+0x38>
D:\A_Dual1\Dual-core_Communication_Demo\Dual-core_Communication_Demo\SLAVE\obj/../Libraries/seekfree_libraries/zf_spi.c:91
    {
        RCC_APB2PeriphClockCmd(RCC_APB2Periph_SPI1 | RCC_APB2Periph_AFIO, ENABLE);                //SPI1
    403a:	4585                	li	a1,1
    403c:	6785                	lui	a5,0x1
    403e:	00178513          	addi	a0,a5,1 # 1001 <EXTI_ClearITPendingBit+0xf>
    4042:	fc2fd0ef          	jal	ra,1804 <RCC_APB2PeriphClockCmd>
    4046:	a821                	j	405e <spi_init+0x4e>
D:\A_Dual1\Dual-core_Communication_Demo\Dual-core_Communication_Demo\SLAVE\obj/../Libraries/seekfree_libraries/zf_spi.c:93
    }
    else if(SPI_2 == spi_n)
    4048:	fcc42703          	lw	a4,-52(s0)
    404c:	4785                	li	a5,1
    404e:	00f71863          	bne	a4,a5,405e <spi_init+0x4e>
D:\A_Dual1\Dual-core_Communication_Demo\Dual-core_Communication_Demo\SLAVE\obj/../Libraries/seekfree_libraries/zf_spi.c:95
    {
        RCC_APB1PeriphClockCmd(RCC_APB1Periph_SPI2 | RCC_APB2Periph_AFIO, ENABLE);                //SPI2
    4052:	4585                	li	a1,1
    4054:	6791                	lui	a5,0x4
    4056:	00178513          	addi	a0,a5,1 # 4001 <spi_gpio_init+0x17f>
    405a:	ff0fd0ef          	jal	ra,184a <RCC_APB1PeriphClockCmd>
D:\A_Dual1\Dual-core_Communication_Demo\Dual-core_Communication_Demo\SLAVE\obj/../Libraries/seekfree_libraries/zf_spi.c:98
    }

    spi_gpio_init(sck_pin, mosi_pin, miso_pin, cs_pin);
    405e:	fbc42683          	lw	a3,-68(s0)
    4062:	fc042603          	lw	a2,-64(s0)
    4066:	fc442583          	lw	a1,-60(s0)
    406a:	fc842503          	lw	a0,-56(s0)
    406e:	e15ff0ef          	jal	ra,3e82 <spi_gpio_init>
D:\A_Dual1\Dual-core_Communication_Demo\Dual-core_Communication_Demo\SLAVE\obj/../Libraries/seekfree_libraries/zf_spi.c:100

    SPI_InitStructure.SPI_Direction = SPI_Direction_2Lines_FullDuplex;      //SPI
    4072:	fc041e23          	sh	zero,-36(s0)
D:\A_Dual1\Dual-core_Communication_Demo\Dual-core_Communication_Demo\SLAVE\obj/../Libraries/seekfree_libraries/zf_spi.c:101
    SPI_InitStructure.SPI_Mode = SPI_Mode_Master;                           //SPI:SPI
    4076:	10400793          	li	a5,260
    407a:	fcf41f23          	sh	a5,-34(s0)
D:\A_Dual1\Dual-core_Communication_Demo\Dual-core_Communication_Demo\SLAVE\obj/../Libraries/seekfree_libraries/zf_spi.c:102
    SPI_InitStructure.SPI_DataSize = SPI_DataSize_8b;                       //SPI:SPI8
    407e:	fe041023          	sh	zero,-32(s0)
D:\A_Dual1\Dual-core_Communication_Demo\Dual-core_Communication_Demo\SLAVE\obj/../Libraries/seekfree_libraries/zf_spi.c:104

    switch(mode)
    4082:	fbb44783          	lbu	a5,-69(s0)
    4086:	4705                	li	a4,1
    4088:	02e78363          	beq	a5,a4,40ae <spi_init+0x9e>
    408c:	4705                	li	a4,1
    408e:	00f74463          	blt	a4,a5,4096 <spi_init+0x86>
    4092:	cb89                	beqz	a5,40a4 <spi_init+0x94>
    4094:	a081                	j	40d4 <spi_init+0xc4>
    4096:	4709                	li	a4,2
    4098:	02e78163          	beq	a5,a4,40ba <spi_init+0xaa>
    409c:	470d                	li	a4,3
    409e:	02e78463          	beq	a5,a4,40c6 <spi_init+0xb6>
    40a2:	a80d                	j	40d4 <spi_init+0xc4>
D:\A_Dual1\Dual-core_Communication_Demo\Dual-core_Communication_Demo\SLAVE\obj/../Libraries/seekfree_libraries/zf_spi.c:108
    {
        case 0:
        {
            SPI_InitStructure.SPI_CPOL = SPI_CPOL_Low;                      //
    40a4:	fe041123          	sh	zero,-30(s0)
D:\A_Dual1\Dual-core_Communication_Demo\Dual-core_Communication_Demo\SLAVE\obj/../Libraries/seekfree_libraries/zf_spi.c:109
            SPI_InitStructure.SPI_CPHA = SPI_CPHA_1Edge;                    //
    40a8:	fe041223          	sh	zero,-28(s0)
D:\A_Dual1\Dual-core_Communication_Demo\Dual-core_Communication_Demo\SLAVE\obj/../Libraries/seekfree_libraries/zf_spi.c:110
        }break;
    40ac:	a025                	j	40d4 <spi_init+0xc4>
D:\A_Dual1\Dual-core_Communication_Demo\Dual-core_Communication_Demo\SLAVE\obj/../Libraries/seekfree_libraries/zf_spi.c:113
        case 1:
        {
            SPI_InitStructure.SPI_CPOL = SPI_CPOL_Low;                      //
    40ae:	fe041123          	sh	zero,-30(s0)
D:\A_Dual1\Dual-core_Communication_Demo\Dual-core_Communication_Demo\SLAVE\obj/../Libraries/seekfree_libraries/zf_spi.c:114
            SPI_InitStructure.SPI_CPHA = SPI_CPHA_2Edge;                    //
    40b2:	4785                	li	a5,1
    40b4:	fef41223          	sh	a5,-28(s0)
D:\A_Dual1\Dual-core_Communication_Demo\Dual-core_Communication_Demo\SLAVE\obj/../Libraries/seekfree_libraries/zf_spi.c:115
        }break;
    40b8:	a831                	j	40d4 <spi_init+0xc4>
D:\A_Dual1\Dual-core_Communication_Demo\Dual-core_Communication_Demo\SLAVE\obj/../Libraries/seekfree_libraries/zf_spi.c:118
        case 2:
        {
            SPI_InitStructure.SPI_CPOL = SPI_CPOL_High;                     //
    40ba:	4789                	li	a5,2
    40bc:	fef41123          	sh	a5,-30(s0)
D:\A_Dual1\Dual-core_Communication_Demo\Dual-core_Communication_Demo\SLAVE\obj/../Libraries/seekfree_libraries/zf_spi.c:119
            SPI_InitStructure.SPI_CPHA = SPI_CPHA_1Edge;                    //
    40c0:	fe041223          	sh	zero,-28(s0)
D:\A_Dual1\Dual-core_Communication_Demo\Dual-core_Communication_Demo\SLAVE\obj/../Libraries/seekfree_libraries/zf_spi.c:120
        }break;
    40c4:	a801                	j	40d4 <spi_init+0xc4>
D:\A_Dual1\Dual-core_Communication_Demo\Dual-core_Communication_Demo\SLAVE\obj/../Libraries/seekfree_libraries/zf_spi.c:123
        case 3:
        {
            SPI_InitStructure.SPI_CPOL = SPI_CPOL_High;                     //
    40c6:	4789                	li	a5,2
    40c8:	fef41123          	sh	a5,-30(s0)
D:\A_Dual1\Dual-core_Communication_Demo\Dual-core_Communication_Demo\SLAVE\obj/../Libraries/seekfree_libraries/zf_spi.c:124
            SPI_InitStructure.SPI_CPHA = SPI_CPHA_2Edge;                    //
    40cc:	4785                	li	a5,1
    40ce:	fef41223          	sh	a5,-28(s0)
D:\A_Dual1\Dual-core_Communication_Demo\Dual-core_Communication_Demo\SLAVE\obj/../Libraries/seekfree_libraries/zf_spi.c:125
        }break;
    40d2:	0001                	nop
D:\A_Dual1\Dual-core_Communication_Demo\Dual-core_Communication_Demo\SLAVE\obj/../Libraries/seekfree_libraries/zf_spi.c:128
    }

    SPI_InitStructure.SPI_NSS = SPI_NSS_Soft;                               //NSS
    40d4:	20000793          	li	a5,512
    40d8:	fef41323          	sh	a5,-26(s0)
D:\A_Dual1\Dual-core_Communication_Demo\Dual-core_Communication_Demo\SLAVE\obj/../Libraries/seekfree_libraries/zf_spi.c:129
    SPI_InitStructure.SPI_BaudRatePrescaler = BaudRatePrescaler << 3;       //
    40dc:	fb442783          	lw	a5,-76(s0)
    40e0:	07c2                	slli	a5,a5,0x10
    40e2:	83c1                	srli	a5,a5,0x10
    40e4:	078e                	slli	a5,a5,0x3
    40e6:	07c2                	slli	a5,a5,0x10
    40e8:	83c1                	srli	a5,a5,0x10
    40ea:	fef41423          	sh	a5,-24(s0)
D:\A_Dual1\Dual-core_Communication_Demo\Dual-core_Communication_Demo\SLAVE\obj/../Libraries/seekfree_libraries/zf_spi.c:130
    SPI_InitStructure.SPI_FirstBit = SPI_FirstBit_MSB;                      //MSBLSB:MSB
    40ee:	fe041523          	sh	zero,-22(s0)
D:\A_Dual1\Dual-core_Communication_Demo\Dual-core_Communication_Demo\SLAVE\obj/../Libraries/seekfree_libraries/zf_spi.c:131
    SPI_InitStructure.SPI_CRCPolynomial = 7;                                //CRC
    40f2:	479d                	li	a5,7
    40f4:	fef41623          	sh	a5,-20(s0)
D:\A_Dual1\Dual-core_Communication_Demo\Dual-core_Communication_Demo\SLAVE\obj/../Libraries/seekfree_libraries/zf_spi.c:132
    SPI_Init((SPI_TypeDef *)(SPIN[spi_n]), &SPI_InitStructure);             //SPI_InitStructSPIx
    40f8:	fcc42703          	lw	a4,-52(s0)
    40fc:	070a                	slli	a4,a4,0x2
    40fe:	81018793          	addi	a5,gp,-2032 # 20000128 <SPIN>
    4102:	97ba                	add	a5,a5,a4
    4104:	439c                	lw	a5,0(a5)
    4106:	873e                	mv	a4,a5
    4108:	fdc40793          	addi	a5,s0,-36
    410c:	85be                	mv	a1,a5
    410e:	853a                	mv	a0,a4
    4110:	f80fd0ef          	jal	ra,1890 <SPI_Init>
D:\A_Dual1\Dual-core_Communication_Demo\Dual-core_Communication_Demo\SLAVE\obj/../Libraries/seekfree_libraries/zf_spi.c:134

    if(SPI1_SCK_PB3 == sck_pin) GPIO_PinRemapConfig(GPIO_Remap_SPI1, ENABLE);
    4114:	fc842703          	lw	a4,-56(s0)
    4118:	47c1                	li	a5,16
    411a:	00f71663          	bne	a4,a5,4126 <spi_init+0x116>
D:\A_Dual1\Dual-core_Communication_Demo\Dual-core_Communication_Demo\SLAVE\obj/../Libraries/seekfree_libraries/zf_spi.c:134 (discriminator 1)
    411e:	4585                	li	a1,1
    4120:	4505                	li	a0,1
    4122:	952fd0ef          	jal	ra,1274 <GPIO_PinRemapConfig>
D:\A_Dual1\Dual-core_Communication_Demo\Dual-core_Communication_Demo\SLAVE\obj/../Libraries/seekfree_libraries/zf_spi.c:136

    SPI_Cmd(((SPI_TypeDef *)(SPIN[spi_n])), ENABLE);                         //SPI
    4126:	fcc42703          	lw	a4,-52(s0)
    412a:	070a                	slli	a4,a4,0x2
    412c:	81018793          	addi	a5,gp,-2032 # 20000128 <SPIN>
    4130:	97ba                	add	a5,a5,a4
    4132:	439c                	lw	a5,0(a5)
    4134:	4585                	li	a1,1
    4136:	853e                	mv	a0,a5
    4138:	851fd0ef          	jal	ra,1988 <SPI_Cmd>
D:\A_Dual1\Dual-core_Communication_Demo\Dual-core_Communication_Demo\SLAVE\obj/../Libraries/seekfree_libraries/zf_spi.c:138

}
    413c:	0001                	nop
    413e:	40b6                	lw	ra,76(sp)
    4140:	4426                	lw	s0,72(sp)
    4142:	6161                	addi	sp,sp,80
    4144:	8082                	ret

00004146 <spi_mosi>:
spi_mosi():
D:\A_Dual1\Dual-core_Communication_Demo\Dual-core_Communication_Demo\SLAVE\obj/../Libraries/seekfree_libraries/zf_spi.c:151
//  @return     void
//  @since      v2.0
//  Sample usage:               spi_mosi(SPI_1, buf, buf, 1);    //modatamidata1
//-------------------------------------------------------------------------------------------------------------------
void spi_mosi(SPIN_enum spi_n, uint8 *modata, uint8 *midata, uint32 len)
{
    4146:	1101                	addi	sp,sp,-32
    4148:	ce22                	sw	s0,28(sp)
    414a:	1000                	addi	s0,sp,32
    414c:	fea42623          	sw	a0,-20(s0)
    4150:	feb42423          	sw	a1,-24(s0)
    4154:	fec42223          	sw	a2,-28(s0)
    4158:	fed42023          	sw	a3,-32(s0)
D:\A_Dual1\Dual-core_Communication_Demo\Dual-core_Communication_Demo\SLAVE\obj/../Libraries/seekfree_libraries/zf_spi.c:152
    while(len--)
    415c:	a859                	j	41f2 <spi_mosi+0xac>
D:\A_Dual1\Dual-core_Communication_Demo\Dual-core_Communication_Demo\SLAVE\obj/../Libraries/seekfree_libraries/zf_spi.c:154
    {
        while((((SPI_TypeDef *)(SPIN[spi_n]))->STATR & SPI_I2S_FLAG_TXE) == RESET);
    415e:	0001                	nop
D:\A_Dual1\Dual-core_Communication_Demo\Dual-core_Communication_Demo\SLAVE\obj/../Libraries/seekfree_libraries/zf_spi.c:154 (discriminator 1)
    4160:	fec42703          	lw	a4,-20(s0)
    4164:	070a                	slli	a4,a4,0x2
    4166:	81018793          	addi	a5,gp,-2032 # 20000128 <SPIN>
    416a:	97ba                	add	a5,a5,a4
    416c:	439c                	lw	a5,0(a5)
    416e:	0087d783          	lhu	a5,8(a5)
    4172:	07c2                	slli	a5,a5,0x10
    4174:	83c1                	srli	a5,a5,0x10
    4176:	8b89                	andi	a5,a5,2
    4178:	d7e5                	beqz	a5,4160 <spi_mosi+0x1a>
D:\A_Dual1\Dual-core_Communication_Demo\Dual-core_Communication_Demo\SLAVE\obj/../Libraries/seekfree_libraries/zf_spi.c:155
        ((SPI_TypeDef *)(SPIN[spi_n]))->DATAR = *(modata++);
    417a:	fe842783          	lw	a5,-24(s0)
    417e:	00178713          	addi	a4,a5,1
    4182:	fee42423          	sw	a4,-24(s0)
    4186:	0007c683          	lbu	a3,0(a5)
    418a:	fec42703          	lw	a4,-20(s0)
    418e:	070a                	slli	a4,a4,0x2
    4190:	81018793          	addi	a5,gp,-2032 # 20000128 <SPIN>
    4194:	97ba                	add	a5,a5,a4
    4196:	439c                	lw	a5,0(a5)
    4198:	873e                	mv	a4,a5
    419a:	01069793          	slli	a5,a3,0x10
    419e:	83c1                	srli	a5,a5,0x10
    41a0:	00f71623          	sh	a5,12(a4)
D:\A_Dual1\Dual-core_Communication_Demo\Dual-core_Communication_Demo\SLAVE\obj/../Libraries/seekfree_libraries/zf_spi.c:156
        if(NULL != midata)
    41a4:	fe442783          	lw	a5,-28(s0)
    41a8:	c7a9                	beqz	a5,41f2 <spi_mosi+0xac>
D:\A_Dual1\Dual-core_Communication_Demo\Dual-core_Communication_Demo\SLAVE\obj/../Libraries/seekfree_libraries/zf_spi.c:158
        {
            while((((SPI_TypeDef *)(SPIN[spi_n]))->STATR & SPI_I2S_FLAG_RXNE) == RESET);
    41aa:	0001                	nop
D:\A_Dual1\Dual-core_Communication_Demo\Dual-core_Communication_Demo\SLAVE\obj/../Libraries/seekfree_libraries/zf_spi.c:158 (discriminator 1)
    41ac:	fec42703          	lw	a4,-20(s0)
    41b0:	070a                	slli	a4,a4,0x2
    41b2:	81018793          	addi	a5,gp,-2032 # 20000128 <SPIN>
    41b6:	97ba                	add	a5,a5,a4
    41b8:	439c                	lw	a5,0(a5)
    41ba:	0087d783          	lhu	a5,8(a5)
    41be:	07c2                	slli	a5,a5,0x10
    41c0:	83c1                	srli	a5,a5,0x10
    41c2:	8b85                	andi	a5,a5,1
    41c4:	d7e5                	beqz	a5,41ac <spi_mosi+0x66>
D:\A_Dual1\Dual-core_Communication_Demo\Dual-core_Communication_Demo\SLAVE\obj/../Libraries/seekfree_libraries/zf_spi.c:159
            *(midata++) = ((SPI_TypeDef *)(SPIN[spi_n]))->DATAR;
    41c6:	fec42703          	lw	a4,-20(s0)
    41ca:	070a                	slli	a4,a4,0x2
    41cc:	81018793          	addi	a5,gp,-2032 # 20000128 <SPIN>
    41d0:	97ba                	add	a5,a5,a4
    41d2:	439c                	lw	a5,0(a5)
    41d4:	00c7d783          	lhu	a5,12(a5)
    41d8:	01079693          	slli	a3,a5,0x10
    41dc:	82c1                	srli	a3,a3,0x10
    41de:	fe442783          	lw	a5,-28(s0)
    41e2:	00178713          	addi	a4,a5,1
    41e6:	fee42223          	sw	a4,-28(s0)
    41ea:	0ff6f713          	andi	a4,a3,255
    41ee:	00e78023          	sb	a4,0(a5)
D:\A_Dual1\Dual-core_Communication_Demo\Dual-core_Communication_Demo\SLAVE\obj/../Libraries/seekfree_libraries/zf_spi.c:152
    while(len--)
    41f2:	fe042783          	lw	a5,-32(s0)
    41f6:	fff78713          	addi	a4,a5,-1
    41fa:	fee42023          	sw	a4,-32(s0)
    41fe:	f3a5                	bnez	a5,415e <spi_mosi+0x18>
D:\A_Dual1\Dual-core_Communication_Demo\Dual-core_Communication_Demo\SLAVE\obj/../Libraries/seekfree_libraries/zf_spi.c:162
        }
    }
}
    4200:	0001                	nop
    4202:	4472                	lw	s0,28(sp)
    4204:	6105                	addi	sp,sp,32
    4206:	8082                	ret

00004208 <systick_delay>:
systick_delay():
D:\A_Dual1\Dual-core_Communication_Demo\Dual-core_Communication_Demo\SLAVE\obj/../Libraries/seekfree_libraries/zf_systick.c:29
//  @param      time                us
//  @return     void
//  Sample usage:                   
//-------------------------------------------------------------------------------------------------------------------
void systick_delay(uint64 time)
{
    4208:	1101                	addi	sp,sp,-32
    420a:	ce22                	sw	s0,28(sp)
    420c:	1000                	addi	s0,sp,32
    420e:	fea42423          	sw	a0,-24(s0)
    4212:	feb42623          	sw	a1,-20(s0)
D:\A_Dual1\Dual-core_Communication_Demo\Dual-core_Communication_Demo\SLAVE\obj/../Libraries/seekfree_libraries/zf_systick.c:30
    SysTick->CTLR = 0;
    4216:	e000f737          	lui	a4,0xe000f
    421a:	00072023          	sw	zero,0(a4) # e000f000 <_eusrstack+0xc000a000>
D:\A_Dual1\Dual-core_Communication_Demo\Dual-core_Communication_Demo\SLAVE\obj/../Libraries/seekfree_libraries/zf_systick.c:31
    SysTick->CNTL0 = 0;
    421e:	e000f737          	lui	a4,0xe000f
    4222:	00070223          	sb	zero,4(a4) # e000f004 <_eusrstack+0xc000a004>
D:\A_Dual1\Dual-core_Communication_Demo\Dual-core_Communication_Demo\SLAVE\obj/../Libraries/seekfree_libraries/zf_systick.c:32
    SysTick->CNTL1 = 0;
    4226:	e000f737          	lui	a4,0xe000f
    422a:	000702a3          	sb	zero,5(a4) # e000f005 <_eusrstack+0xc000a005>
D:\A_Dual1\Dual-core_Communication_Demo\Dual-core_Communication_Demo\SLAVE\obj/../Libraries/seekfree_libraries/zf_systick.c:33
    SysTick->CNTL2 = 0;
    422e:	e000f737          	lui	a4,0xe000f
    4232:	00070323          	sb	zero,6(a4) # e000f006 <_eusrstack+0xc000a006>
D:\A_Dual1\Dual-core_Communication_Demo\Dual-core_Communication_Demo\SLAVE\obj/../Libraries/seekfree_libraries/zf_systick.c:34
    SysTick->CNTL3 = 0;
    4236:	e000f737          	lui	a4,0xe000f
    423a:	000703a3          	sb	zero,7(a4) # e000f007 <_eusrstack+0xc000a007>
D:\A_Dual1\Dual-core_Communication_Demo\Dual-core_Communication_Demo\SLAVE\obj/../Libraries/seekfree_libraries/zf_systick.c:35
    SysTick->CNTH0 = 0;
    423e:	e000f737          	lui	a4,0xe000f
    4242:	00070423          	sb	zero,8(a4) # e000f008 <_eusrstack+0xc000a008>
D:\A_Dual1\Dual-core_Communication_Demo\Dual-core_Communication_Demo\SLAVE\obj/../Libraries/seekfree_libraries/zf_systick.c:36
    SysTick->CNTH1 = 0;
    4246:	e000f737          	lui	a4,0xe000f
    424a:	000704a3          	sb	zero,9(a4) # e000f009 <_eusrstack+0xc000a009>
D:\A_Dual1\Dual-core_Communication_Demo\Dual-core_Communication_Demo\SLAVE\obj/../Libraries/seekfree_libraries/zf_systick.c:37
    SysTick->CNTH2 = 0;
    424e:	e000f737          	lui	a4,0xe000f
    4252:	00070523          	sb	zero,10(a4) # e000f00a <_eusrstack+0xc000a00a>
D:\A_Dual1\Dual-core_Communication_Demo\Dual-core_Communication_Demo\SLAVE\obj/../Libraries/seekfree_libraries/zf_systick.c:38
    SysTick->CNTH3 = 0;
    4256:	e000f737          	lui	a4,0xe000f
    425a:	000705a3          	sb	zero,11(a4) # e000f00b <_eusrstack+0xc000a00b>
D:\A_Dual1\Dual-core_Communication_Demo\Dual-core_Communication_Demo\SLAVE\obj/../Libraries/seekfree_libraries/zf_systick.c:39
    SysTick->CTLR = 1;          // systickHCLK/8  us
    425e:	e000f737          	lui	a4,0xe000f
    4262:	4685                	li	a3,1
    4264:	c314                	sw	a3,0(a4)
D:\A_Dual1\Dual-core_Communication_Demo\Dual-core_Communication_Demo\SLAVE\obj/../Libraries/seekfree_libraries/zf_systick.c:41

    while((*(volatile uint32*)0xE000F004) <= time);
    4266:	0001                	nop
D:\A_Dual1\Dual-core_Communication_Demo\Dual-core_Communication_Demo\SLAVE\obj/../Libraries/seekfree_libraries/zf_systick.c:41 (discriminator 1)
    4268:	e000f737          	lui	a4,0xe000f
    426c:	0711                	addi	a4,a4,4
    426e:	4318                	lw	a4,0(a4)
    4270:	87ba                	mv	a5,a4
    4272:	4801                	li	a6,0
    4274:	fec42703          	lw	a4,-20(s0)
    4278:	86c2                	mv	a3,a6
    427a:	00d76d63          	bltu	a4,a3,4294 <systick_delay+0x8c>
    427e:	fec42703          	lw	a4,-20(s0)
    4282:	86c2                	mv	a3,a6
    4284:	fed712e3          	bne	a4,a3,4268 <systick_delay+0x60>
    4288:	fe842703          	lw	a4,-24(s0)
    428c:	86be                	mv	a3,a5
    428e:	00d76363          	bltu	a4,a3,4294 <systick_delay+0x8c>
    4292:	bfd9                	j	4268 <systick_delay+0x60>
D:\A_Dual1\Dual-core_Communication_Demo\Dual-core_Communication_Demo\SLAVE\obj/../Libraries/seekfree_libraries/zf_systick.c:42
}
    4294:	0001                	nop
    4296:	4472                	lw	s0,28(sp)
    4298:	6105                	addi	sp,sp,32
    429a:	8082                	ret

0000429c <uart_gpio_init>:
uart_gpio_init():
D:\A_Dual1\Dual-core_Communication_Demo\Dual-core_Communication_Demo\SLAVE\obj/../Libraries/seekfree_libraries/zf_uart.c:38
//  @param      rx_pin      
//  @return     void
//  Sample usage:           
//-------------------------------------------------------------------------------------------------------------------
void uart_gpio_init(UARTPIN_enum tx_pin, UARTPIN_enum rx_pin)
{
    429c:	1101                	addi	sp,sp,-32
    429e:	ce06                	sw	ra,28(sp)
    42a0:	cc22                	sw	s0,24(sp)
    42a2:	1000                	addi	s0,sp,32
    42a4:	fea42623          	sw	a0,-20(s0)
    42a8:	feb42423          	sw	a1,-24(s0)
D:\A_Dual1\Dual-core_Communication_Demo\Dual-core_Communication_Demo\SLAVE\obj/../Libraries/seekfree_libraries/zf_uart.c:39
    if(tx_pin == UART1_TX_A9 && rx_pin == UART1_RX_A10)
    42ac:	fec42783          	lw	a5,-20(s0)
    42b0:	e785                	bnez	a5,42d8 <uart_gpio_init+0x3c>
D:\A_Dual1\Dual-core_Communication_Demo\Dual-core_Communication_Demo\SLAVE\obj/../Libraries/seekfree_libraries/zf_uart.c:39 (discriminator 1)
    42b2:	fe842703          	lw	a4,-24(s0)
    42b6:	4785                	li	a5,1
    42b8:	02f71063          	bne	a4,a5,42d8 <uart_gpio_init+0x3c>
D:\A_Dual1\Dual-core_Communication_Demo\Dual-core_Communication_Demo\SLAVE\obj/../Libraries/seekfree_libraries/zf_uart.c:41
    {
        gpio_init(A9, GPO, 0, SPEED_50MHZ|OUT_AF_PP);
    42bc:	31800693          	li	a3,792
    42c0:	4601                	li	a2,0
    42c2:	4585                	li	a1,1
    42c4:	4525                	li	a0,9
    42c6:	b70ff0ef          	jal	ra,3636 <gpio_init>
D:\A_Dual1\Dual-core_Communication_Demo\Dual-core_Communication_Demo\SLAVE\obj/../Libraries/seekfree_libraries/zf_uart.c:42
        gpio_init(A10, GPI, 0, IN_FLOAT);
    42ca:	4691                	li	a3,4
    42cc:	4601                	li	a2,0
    42ce:	4581                	li	a1,0
    42d0:	4529                	li	a0,10
    42d2:	b64ff0ef          	jal	ra,3636 <gpio_init>
D:\A_Dual1\Dual-core_Communication_Demo\Dual-core_Communication_Demo\SLAVE\obj/../Libraries/seekfree_libraries/zf_uart.c:67
    else if(tx_pin == UART3_TX_C10)
    {
        gpio_init(C10, GPO, 0, SPEED_50MHZ|OUT_AF_PP);
        gpio_init(C11, GPI, 0, IN_FLOAT);
    }
}
    42d6:	a065                	j	437e <uart_gpio_init+0xe2>
D:\A_Dual1\Dual-core_Communication_Demo\Dual-core_Communication_Demo\SLAVE\obj/../Libraries/seekfree_libraries/zf_uart.c:44
    else if(tx_pin == UART1_TX_B6)
    42d8:	fec42703          	lw	a4,-20(s0)
    42dc:	4789                	li	a5,2
    42de:	02f71263          	bne	a4,a5,4302 <uart_gpio_init+0x66>
D:\A_Dual1\Dual-core_Communication_Demo\Dual-core_Communication_Demo\SLAVE\obj/../Libraries/seekfree_libraries/zf_uart.c:46
        gpio_init(B6, GPO, 0, SPEED_50MHZ|OUT_AF_PP);
    42e2:	31800693          	li	a3,792
    42e6:	4601                	li	a2,0
    42e8:	4585                	li	a1,1
    42ea:	02600513          	li	a0,38
    42ee:	b48ff0ef          	jal	ra,3636 <gpio_init>
D:\A_Dual1\Dual-core_Communication_Demo\Dual-core_Communication_Demo\SLAVE\obj/../Libraries/seekfree_libraries/zf_uart.c:47
        gpio_init(B7, GPI, 0, IN_FLOAT);
    42f2:	4691                	li	a3,4
    42f4:	4601                	li	a2,0
    42f6:	4581                	li	a1,0
    42f8:	02700513          	li	a0,39
    42fc:	b3aff0ef          	jal	ra,3636 <gpio_init>
D:\A_Dual1\Dual-core_Communication_Demo\Dual-core_Communication_Demo\SLAVE\obj/../Libraries/seekfree_libraries/zf_uart.c:67
}
    4300:	a8bd                	j	437e <uart_gpio_init+0xe2>
D:\A_Dual1\Dual-core_Communication_Demo\Dual-core_Communication_Demo\SLAVE\obj/../Libraries/seekfree_libraries/zf_uart.c:50
    else if(tx_pin == UART2_TX_A2)
    4302:	fec42703          	lw	a4,-20(s0)
    4306:	47c1                	li	a5,16
    4308:	02f71063          	bne	a4,a5,4328 <uart_gpio_init+0x8c>
D:\A_Dual1\Dual-core_Communication_Demo\Dual-core_Communication_Demo\SLAVE\obj/../Libraries/seekfree_libraries/zf_uart.c:52
        gpio_init(A2, GPO, 0, SPEED_50MHZ|OUT_AF_PP);
    430c:	31800693          	li	a3,792
    4310:	4601                	li	a2,0
    4312:	4585                	li	a1,1
    4314:	4509                	li	a0,2
    4316:	b20ff0ef          	jal	ra,3636 <gpio_init>
D:\A_Dual1\Dual-core_Communication_Demo\Dual-core_Communication_Demo\SLAVE\obj/../Libraries/seekfree_libraries/zf_uart.c:53
        gpio_init(A3, GPI, 0, IN_FLOAT);
    431a:	4691                	li	a3,4
    431c:	4601                	li	a2,0
    431e:	4581                	li	a1,0
    4320:	450d                	li	a0,3
    4322:	b14ff0ef          	jal	ra,3636 <gpio_init>
D:\A_Dual1\Dual-core_Communication_Demo\Dual-core_Communication_Demo\SLAVE\obj/../Libraries/seekfree_libraries/zf_uart.c:67
}
    4326:	a8a1                	j	437e <uart_gpio_init+0xe2>
D:\A_Dual1\Dual-core_Communication_Demo\Dual-core_Communication_Demo\SLAVE\obj/../Libraries/seekfree_libraries/zf_uart.c:56
    else if(tx_pin == UART3_TX_B10)
    4328:	fec42703          	lw	a4,-20(s0)
    432c:	02000793          	li	a5,32
    4330:	02f71263          	bne	a4,a5,4354 <uart_gpio_init+0xb8>
D:\A_Dual1\Dual-core_Communication_Demo\Dual-core_Communication_Demo\SLAVE\obj/../Libraries/seekfree_libraries/zf_uart.c:58
        gpio_init(B10, GPO, 0, SPEED_50MHZ|OUT_AF_PP);
    4334:	31800693          	li	a3,792
    4338:	4601                	li	a2,0
    433a:	4585                	li	a1,1
    433c:	02a00513          	li	a0,42
    4340:	af6ff0ef          	jal	ra,3636 <gpio_init>
D:\A_Dual1\Dual-core_Communication_Demo\Dual-core_Communication_Demo\SLAVE\obj/../Libraries/seekfree_libraries/zf_uart.c:59
        gpio_init(B11, GPI, 0, IN_FLOAT);
    4344:	4691                	li	a3,4
    4346:	4601                	li	a2,0
    4348:	4581                	li	a1,0
    434a:	02b00513          	li	a0,43
    434e:	ae8ff0ef          	jal	ra,3636 <gpio_init>
D:\A_Dual1\Dual-core_Communication_Demo\Dual-core_Communication_Demo\SLAVE\obj/../Libraries/seekfree_libraries/zf_uart.c:67
}
    4352:	a035                	j	437e <uart_gpio_init+0xe2>
D:\A_Dual1\Dual-core_Communication_Demo\Dual-core_Communication_Demo\SLAVE\obj/../Libraries/seekfree_libraries/zf_uart.c:62
    else if(tx_pin == UART3_TX_C10)
    4354:	fec42703          	lw	a4,-20(s0)
    4358:	02200793          	li	a5,34
    435c:	02f71163          	bne	a4,a5,437e <uart_gpio_init+0xe2>
D:\A_Dual1\Dual-core_Communication_Demo\Dual-core_Communication_Demo\SLAVE\obj/../Libraries/seekfree_libraries/zf_uart.c:64
        gpio_init(C10, GPO, 0, SPEED_50MHZ|OUT_AF_PP);
    4360:	31800693          	li	a3,792
    4364:	4601                	li	a2,0
    4366:	4585                	li	a1,1
    4368:	04a00513          	li	a0,74
    436c:	acaff0ef          	jal	ra,3636 <gpio_init>
D:\A_Dual1\Dual-core_Communication_Demo\Dual-core_Communication_Demo\SLAVE\obj/../Libraries/seekfree_libraries/zf_uart.c:65
        gpio_init(C11, GPI, 0, IN_FLOAT);
    4370:	4691                	li	a3,4
    4372:	4601                	li	a2,0
    4374:	4581                	li	a1,0
    4376:	04b00513          	li	a0,75
    437a:	abcff0ef          	jal	ra,3636 <gpio_init>
D:\A_Dual1\Dual-core_Communication_Demo\Dual-core_Communication_Demo\SLAVE\obj/../Libraries/seekfree_libraries/zf_uart.c:67
}
    437e:	0001                	nop
    4380:	40f2                	lw	ra,28(sp)
    4382:	4462                	lw	s0,24(sp)
    4384:	6105                	addi	sp,sp,32
    4386:	8082                	ret

00004388 <uart_init>:
uart_init():
D:\A_Dual1\Dual-core_Communication_Demo\Dual-core_Communication_Demo\SLAVE\obj/../Libraries/seekfree_libraries/zf_uart.c:79
//  @param      rx_pin      
//  @return     void
//  Sample usage:           uart_init(UART_1, 115200, UART1_TX_A9, UART1_RX_A10); //1,TXA9,RXA10
//-------------------------------------------------------------------------------------------------------------------
void uart_init(UARTN_enum uartn, uint32 baud, UARTPIN_enum tx_pin, UARTPIN_enum rx_pin)
{
    4388:	7179                	addi	sp,sp,-48
    438a:	d606                	sw	ra,44(sp)
    438c:	d422                	sw	s0,40(sp)
    438e:	1800                	addi	s0,sp,48
    4390:	fca42e23          	sw	a0,-36(s0)
    4394:	fcb42c23          	sw	a1,-40(s0)
    4398:	fcc42a23          	sw	a2,-44(s0)
    439c:	fcd42823          	sw	a3,-48(s0)
D:\A_Dual1\Dual-core_Communication_Demo\Dual-core_Communication_Demo\SLAVE\obj/../Libraries/seekfree_libraries/zf_uart.c:83
    USART_InitTypeDef USART_InitStructure;


    RCC_APB2PeriphClockCmd(RCC_APB2Periph_AFIO, ENABLE);
    43a0:	4585                	li	a1,1
    43a2:	4505                	li	a0,1
    43a4:	c60fd0ef          	jal	ra,1804 <RCC_APB2PeriphClockCmd>
D:\A_Dual1\Dual-core_Communication_Demo\Dual-core_Communication_Demo\SLAVE\obj/../Libraries/seekfree_libraries/zf_uart.c:86

    //
    uart_gpio_init(tx_pin, rx_pin);
    43a8:	fd042583          	lw	a1,-48(s0)
    43ac:	fd442503          	lw	a0,-44(s0)
    43b0:	eedff0ef          	jal	ra,429c <uart_gpio_init>
D:\A_Dual1\Dual-core_Communication_Demo\Dual-core_Communication_Demo\SLAVE\obj/../Libraries/seekfree_libraries/zf_uart.c:88

    if(UART1_TX_B6 == tx_pin && UART1_RX_B7 == rx_pin)                         //
    43b4:	fd442703          	lw	a4,-44(s0)
    43b8:	4789                	li	a5,2
    43ba:	00f71b63          	bne	a4,a5,43d0 <uart_init+0x48>
D:\A_Dual1\Dual-core_Communication_Demo\Dual-core_Communication_Demo\SLAVE\obj/../Libraries/seekfree_libraries/zf_uart.c:88 (discriminator 1)
    43be:	fd042703          	lw	a4,-48(s0)
    43c2:	478d                	li	a5,3
    43c4:	00f71663          	bne	a4,a5,43d0 <uart_init+0x48>
D:\A_Dual1\Dual-core_Communication_Demo\Dual-core_Communication_Demo\SLAVE\obj/../Libraries/seekfree_libraries/zf_uart.c:89
        GPIO_PinRemapConfig(GPIO_Remap_USART1, ENABLE);
    43c8:	4585                	li	a1,1
    43ca:	4511                	li	a0,4
    43cc:	ea9fc0ef          	jal	ra,1274 <GPIO_PinRemapConfig>
D:\A_Dual1\Dual-core_Communication_Demo\Dual-core_Communication_Demo\SLAVE\obj/../Libraries/seekfree_libraries/zf_uart.c:90
    if(UART3_TX_C10 == tx_pin && UART3_RX_C11 == rx_pin)
    43d0:	fd442703          	lw	a4,-44(s0)
    43d4:	02200793          	li	a5,34
    43d8:	00f71f63          	bne	a4,a5,43f6 <uart_init+0x6e>
D:\A_Dual1\Dual-core_Communication_Demo\Dual-core_Communication_Demo\SLAVE\obj/../Libraries/seekfree_libraries/zf_uart.c:90 (discriminator 1)
    43dc:	fd042703          	lw	a4,-48(s0)
    43e0:	02300793          	li	a5,35
    43e4:	00f71963          	bne	a4,a5,43f6 <uart_init+0x6e>
D:\A_Dual1\Dual-core_Communication_Demo\Dual-core_Communication_Demo\SLAVE\obj/../Libraries/seekfree_libraries/zf_uart.c:91
        GPIO_PinRemapConfig(GPIO_PartialRemap_USART3, ENABLE);
    43e8:	4585                	li	a1,1
    43ea:	001407b7          	lui	a5,0x140
    43ee:	01078513          	addi	a0,a5,16 # 140010 <_data_lma+0x135ff8>
    43f2:	e83fc0ef          	jal	ra,1274 <GPIO_PinRemapConfig>
D:\A_Dual1\Dual-core_Communication_Demo\Dual-core_Communication_Demo\SLAVE\obj/../Libraries/seekfree_libraries/zf_uart.c:94

    //
    if(UART_1 == uartn) RCC_APB2PeriphClockCmd(RCC_APB2Periph_USART1, ENABLE);
    43f6:	fdc42783          	lw	a5,-36(s0)
    43fa:	e791                	bnez	a5,4406 <uart_init+0x7e>
D:\A_Dual1\Dual-core_Communication_Demo\Dual-core_Communication_Demo\SLAVE\obj/../Libraries/seekfree_libraries/zf_uart.c:94 (discriminator 1)
    43fc:	4585                	li	a1,1
    43fe:	6511                	lui	a0,0x4
    4400:	c04fd0ef          	jal	ra,1804 <RCC_APB2PeriphClockCmd>
    4404:	a035                	j	4430 <uart_init+0xa8>
D:\A_Dual1\Dual-core_Communication_Demo\Dual-core_Communication_Demo\SLAVE\obj/../Libraries/seekfree_libraries/zf_uart.c:95
    else if(UART_2 == uartn) RCC_APB1PeriphClockCmd(RCC_APB1Periph_USART2, ENABLE);
    4406:	fdc42703          	lw	a4,-36(s0)
    440a:	4785                	li	a5,1
    440c:	00f71863          	bne	a4,a5,441c <uart_init+0x94>
D:\A_Dual1\Dual-core_Communication_Demo\Dual-core_Communication_Demo\SLAVE\obj/../Libraries/seekfree_libraries/zf_uart.c:95 (discriminator 1)
    4410:	4585                	li	a1,1
    4412:	00020537          	lui	a0,0x20
    4416:	c34fd0ef          	jal	ra,184a <RCC_APB1PeriphClockCmd>
    441a:	a819                	j	4430 <uart_init+0xa8>
D:\A_Dual1\Dual-core_Communication_Demo\Dual-core_Communication_Demo\SLAVE\obj/../Libraries/seekfree_libraries/zf_uart.c:96
    else if(UART_3 == uartn) RCC_APB1PeriphClockCmd(RCC_APB1Periph_USART3, ENABLE);
    441c:	fdc42703          	lw	a4,-36(s0)
    4420:	4789                	li	a5,2
    4422:	00f71763          	bne	a4,a5,4430 <uart_init+0xa8>
D:\A_Dual1\Dual-core_Communication_Demo\Dual-core_Communication_Demo\SLAVE\obj/../Libraries/seekfree_libraries/zf_uart.c:96 (discriminator 1)
    4426:	4585                	li	a1,1
    4428:	00040537          	lui	a0,0x40
    442c:	c1efd0ef          	jal	ra,184a <RCC_APB1PeriphClockCmd>
D:\A_Dual1\Dual-core_Communication_Demo\Dual-core_Communication_Demo\SLAVE\obj/../Libraries/seekfree_libraries/zf_uart.c:99

    //
    USART_InitStructure.USART_BaudRate = baud;
    4430:	fd842783          	lw	a5,-40(s0)
    4434:	fef42023          	sw	a5,-32(s0)
D:\A_Dual1\Dual-core_Communication_Demo\Dual-core_Communication_Demo\SLAVE\obj/../Libraries/seekfree_libraries/zf_uart.c:100
    USART_InitStructure.USART_WordLength = USART_WordLength_8b;
    4438:	fe041223          	sh	zero,-28(s0)
D:\A_Dual1\Dual-core_Communication_Demo\Dual-core_Communication_Demo\SLAVE\obj/../Libraries/seekfree_libraries/zf_uart.c:101
    USART_InitStructure.USART_StopBits = USART_StopBits_1;
    443c:	fe041323          	sh	zero,-26(s0)
D:\A_Dual1\Dual-core_Communication_Demo\Dual-core_Communication_Demo\SLAVE\obj/../Libraries/seekfree_libraries/zf_uart.c:102
    USART_InitStructure.USART_Parity = USART_Parity_No;
    4440:	fe041423          	sh	zero,-24(s0)
D:\A_Dual1\Dual-core_Communication_Demo\Dual-core_Communication_Demo\SLAVE\obj/../Libraries/seekfree_libraries/zf_uart.c:103
    USART_InitStructure.USART_HardwareFlowControl = USART_HardwareFlowControl_None;
    4444:	fe041623          	sh	zero,-20(s0)
D:\A_Dual1\Dual-core_Communication_Demo\Dual-core_Communication_Demo\SLAVE\obj/../Libraries/seekfree_libraries/zf_uart.c:104
    USART_InitStructure.USART_Mode = USART_Mode_Tx | USART_Mode_Rx;
    4448:	47b1                	li	a5,12
    444a:	fef41523          	sh	a5,-22(s0)
D:\A_Dual1\Dual-core_Communication_Demo\Dual-core_Communication_Demo\SLAVE\obj/../Libraries/seekfree_libraries/zf_uart.c:107

    //
    USART_Init((USART_TypeDef*)UARTN[uartn], &USART_InitStructure);
    444e:	67a9                	lui	a5,0xa
    4450:	fdc42703          	lw	a4,-36(s0)
    4454:	070a                	slli	a4,a4,0x2
    4456:	d9478793          	addi	a5,a5,-620 # 9d94 <UARTN>
    445a:	97ba                	add	a5,a5,a4
    445c:	439c                	lw	a5,0(a5)
    445e:	873e                	mv	a4,a5
    4460:	fe040793          	addi	a5,s0,-32
    4464:	85be                	mv	a1,a5
    4466:	853a                	mv	a0,a4
    4468:	b61fd0ef          	jal	ra,1fc8 <USART_Init>
D:\A_Dual1\Dual-core_Communication_Demo\Dual-core_Communication_Demo\SLAVE\obj/../Libraries/seekfree_libraries/zf_uart.c:108
    USART_Cmd((USART_TypeDef*)UARTN[uartn], ENABLE);
    446c:	67a9                	lui	a5,0xa
    446e:	fdc42703          	lw	a4,-36(s0)
    4472:	070a                	slli	a4,a4,0x2
    4474:	d9478793          	addi	a5,a5,-620 # 9d94 <UARTN>
    4478:	97ba                	add	a5,a5,a4
    447a:	439c                	lw	a5,0(a5)
    447c:	4585                	li	a1,1
    447e:	853e                	mv	a0,a5
    4480:	d7dfd0ef          	jal	ra,21fc <USART_Cmd>
D:\A_Dual1\Dual-core_Communication_Demo\Dual-core_Communication_Demo\SLAVE\obj/../Libraries/seekfree_libraries/zf_uart.c:111


}
    4484:	0001                	nop
    4486:	50b2                	lw	ra,44(sp)
    4488:	5422                	lw	s0,40(sp)
    448a:	6145                	addi	sp,sp,48
    448c:	8082                	ret

0000448e <uart_putchar>:
uart_putchar():
D:\A_Dual1\Dual-core_Communication_Demo\Dual-core_Communication_Demo\SLAVE\obj/../Libraries/seekfree_libraries/zf_uart.c:122
//  @param      dat         
//  @return     void
//  Sample usage:           uart_putchar(UART_1, 0x43);        //10x43
//-------------------------------------------------------------------------------------------------------------------
void uart_putchar(UARTN_enum uartn, uint8 dat)
{
    448e:	1101                	addi	sp,sp,-32
    4490:	ce22                	sw	s0,28(sp)
    4492:	1000                	addi	s0,sp,32
    4494:	fea42623          	sw	a0,-20(s0)
    4498:	87ae                	mv	a5,a1
    449a:	fef405a3          	sb	a5,-21(s0)
D:\A_Dual1\Dual-core_Communication_Demo\Dual-core_Communication_Demo\SLAVE\obj/../Libraries/seekfree_libraries/zf_uart.c:123
    while((((USART_TypeDef*)UARTN[uartn])->STATR & USART_FLAG_TXE)==0);
    449e:	0001                	nop
D:\A_Dual1\Dual-core_Communication_Demo\Dual-core_Communication_Demo\SLAVE\obj/../Libraries/seekfree_libraries/zf_uart.c:123 (discriminator 1)
    44a0:	67a9                	lui	a5,0xa
    44a2:	fec42703          	lw	a4,-20(s0)
    44a6:	070a                	slli	a4,a4,0x2
    44a8:	d9478793          	addi	a5,a5,-620 # 9d94 <UARTN>
    44ac:	97ba                	add	a5,a5,a4
    44ae:	439c                	lw	a5,0(a5)
    44b0:	0007d783          	lhu	a5,0(a5)
    44b4:	07c2                	slli	a5,a5,0x10
    44b6:	83c1                	srli	a5,a5,0x10
    44b8:	0807f793          	andi	a5,a5,128
    44bc:	d3f5                	beqz	a5,44a0 <uart_putchar+0x12>
D:\A_Dual1\Dual-core_Communication_Demo\Dual-core_Communication_Demo\SLAVE\obj/../Libraries/seekfree_libraries/zf_uart.c:124
    ((USART_TypeDef*)UARTN[uartn])->DATAR = dat;
    44be:	67a9                	lui	a5,0xa
    44c0:	fec42703          	lw	a4,-20(s0)
    44c4:	070a                	slli	a4,a4,0x2
    44c6:	d9478793          	addi	a5,a5,-620 # 9d94 <UARTN>
    44ca:	97ba                	add	a5,a5,a4
    44cc:	439c                	lw	a5,0(a5)
    44ce:	873e                	mv	a4,a5
    44d0:	feb44783          	lbu	a5,-21(s0)
    44d4:	07c2                	slli	a5,a5,0x10
    44d6:	83c1                	srli	a5,a5,0x10
    44d8:	00f71223          	sh	a5,4(a4) # e000f004 <_eusrstack+0xc000a004>
D:\A_Dual1\Dual-core_Communication_Demo\Dual-core_Communication_Demo\SLAVE\obj/../Libraries/seekfree_libraries/zf_uart.c:125
}
    44dc:	0001                	nop
    44de:	4472                	lw	s0,28(sp)
    44e0:	6105                	addi	sp,sp,32
    44e2:	8082                	ret

000044e4 <uart_putbuff>:
uart_putbuff():
D:\A_Dual1\Dual-core_Communication_Demo\Dual-core_Communication_Demo\SLAVE\obj/../Libraries/seekfree_libraries/zf_uart.c:136
//  @param      len         
//  @return     void
//  Sample usage:           uart_putbuff(UART_1, buff, 10);     //110buff
//-------------------------------------------------------------------------------------------------------------------
void uart_putbuff(UARTN_enum uartn, uint8 *buff, uint32 len)
{
    44e4:	1101                	addi	sp,sp,-32
    44e6:	ce06                	sw	ra,28(sp)
    44e8:	cc22                	sw	s0,24(sp)
    44ea:	1000                	addi	s0,sp,32
    44ec:	fea42623          	sw	a0,-20(s0)
    44f0:	feb42423          	sw	a1,-24(s0)
    44f4:	fec42223          	sw	a2,-28(s0)
D:\A_Dual1\Dual-core_Communication_Demo\Dual-core_Communication_Demo\SLAVE\obj/../Libraries/seekfree_libraries/zf_uart.c:137
    while(len--)
    44f8:	a831                	j	4514 <uart_putbuff+0x30>
D:\A_Dual1\Dual-core_Communication_Demo\Dual-core_Communication_Demo\SLAVE\obj/../Libraries/seekfree_libraries/zf_uart.c:138
        uart_putchar(uartn, *buff++);
    44fa:	fe842783          	lw	a5,-24(s0)
    44fe:	00178713          	addi	a4,a5,1
    4502:	fee42423          	sw	a4,-24(s0)
    4506:	0007c783          	lbu	a5,0(a5)
    450a:	85be                	mv	a1,a5
    450c:	fec42503          	lw	a0,-20(s0)
    4510:	f7fff0ef          	jal	ra,448e <uart_putchar>
D:\A_Dual1\Dual-core_Communication_Demo\Dual-core_Communication_Demo\SLAVE\obj/../Libraries/seekfree_libraries/zf_uart.c:137
    while(len--)
    4514:	fe442783          	lw	a5,-28(s0)
    4518:	fff78713          	addi	a4,a5,-1
    451c:	fee42223          	sw	a4,-28(s0)
    4520:	ffe9                	bnez	a5,44fa <uart_putbuff+0x16>
D:\A_Dual1\Dual-core_Communication_Demo\Dual-core_Communication_Demo\SLAVE\obj/../Libraries/seekfree_libraries/zf_uart.c:139
}
    4522:	0001                	nop
    4524:	40f2                	lw	ra,28(sp)
    4526:	4462                	lw	s0,24(sp)
    4528:	6105                	addi	sp,sp,32
    452a:	8082                	ret

0000452c <uart_rx_irq>:
uart_rx_irq():
D:\A_Dual1\Dual-core_Communication_Demo\Dual-core_Communication_Demo\SLAVE\obj/../Libraries/seekfree_libraries/zf_uart.c:165
//  @param      status      
//  @return     void
//  Sample usage:           uart_rx_irq(UART_1, ENABLE);        //1
//-------------------------------------------------------------------------------------------------------------------
void uart_rx_irq(UARTN_enum uartn,uint8 status)
{
    452c:	1101                	addi	sp,sp,-32
    452e:	ce06                	sw	ra,28(sp)
    4530:	cc22                	sw	s0,24(sp)
    4532:	1000                	addi	s0,sp,32
    4534:	fea42623          	sw	a0,-20(s0)
    4538:	87ae                	mv	a5,a1
    453a:	fef405a3          	sb	a5,-21(s0)
D:\A_Dual1\Dual-core_Communication_Demo\Dual-core_Communication_Demo\SLAVE\obj/../Libraries/seekfree_libraries/zf_uart.c:166
    USART_ITConfig(((USART_TypeDef*)UARTN[uartn]), USART_IT_RXNE, ENABLE);
    453e:	67a9                	lui	a5,0xa
    4540:	fec42703          	lw	a4,-20(s0)
    4544:	070a                	slli	a4,a4,0x2
    4546:	d9478793          	addi	a5,a5,-620 # 9d94 <UARTN>
    454a:	97ba                	add	a5,a5,a4
    454c:	439c                	lw	a5,0(a5)
    454e:	4605                	li	a2,1
    4550:	52500593          	li	a1,1317
    4554:	853e                	mv	a0,a5
    4556:	d07fd0ef          	jal	ra,225c <USART_ITConfig>
D:\A_Dual1\Dual-core_Communication_Demo\Dual-core_Communication_Demo\SLAVE\obj/../Libraries/seekfree_libraries/zf_uart.c:167
    nvic_init(USART1_IRQn + uartn, 0, 0, status);
    455a:	fec42783          	lw	a5,-20(s0)
    455e:	03578793          	addi	a5,a5,53
    4562:	feb44703          	lbu	a4,-21(s0)
    4566:	86ba                	mv	a3,a4
    4568:	4601                	li	a2,0
    456a:	4581                	li	a1,0
    456c:	853e                	mv	a0,a5
    456e:	aeeff0ef          	jal	ra,385c <nvic_init>
D:\A_Dual1\Dual-core_Communication_Demo\Dual-core_Communication_Demo\SLAVE\obj/../Libraries/seekfree_libraries/zf_uart.c:168
}
    4572:	0001                	nop
    4574:	40f2                	lw	ra,28(sp)
    4576:	4462                	lw	s0,24(sp)
    4578:	6105                	addi	sp,sp,32
    457a:	8082                	ret

0000457c <board_init>:
board_init():
D:\A_Dual1\Dual-core_Communication_Demo\Dual-core_Communication_Demo\SLAVE\obj/../Libraries/board/board.c:9




void board_init(void)
{
    457c:	1141                	addi	sp,sp,-16
    457e:	c606                	sw	ra,12(sp)
    4580:	c422                	sw	s0,8(sp)
    4582:	0800                	addi	s0,sp,16
D:\A_Dual1\Dual-core_Communication_Demo\Dual-core_Communication_Demo\SLAVE\obj/../Libraries/board/board.c:11
    //
    sys_clk = 8000000 * (((RCC->CFGR0 >> 18)&0x0F) + 2);
    4584:	400217b7          	lui	a5,0x40021
    4588:	43dc                	lw	a5,4(a5)
    458a:	83c9                	srli	a5,a5,0x12
    458c:	00f7f713          	andi	a4,a5,15
    4590:	007a17b7          	lui	a5,0x7a1
    4594:	20078793          	addi	a5,a5,512 # 7a1200 <_data_lma+0x7971e8>
    4598:	02f70733          	mul	a4,a4,a5
    459c:	00f427b7          	lui	a5,0xf42
    45a0:	40078793          	addi	a5,a5,1024 # f42400 <_data_lma+0xf383e8>
    45a4:	973e                	add	a4,a4,a5
    45a6:	82e1ac23          	sw	a4,-1992(gp) # 20000150 <sys_clk>
D:\A_Dual1\Dual-core_Communication_Demo\Dual-core_Communication_Demo\SLAVE\obj/../Libraries/board/board.c:13
    //DEBUG
    uart_init(DEBUG_UART, DEBUG_UART_BAUD, DEBUG_UART_TX_PIN, DEBUG_UART_RX_PIN);
    45aa:	4685                	li	a3,1
    45ac:	4601                	li	a2,0
    45ae:	67f1                	lui	a5,0x1c
    45b0:	20078593          	addi	a1,a5,512 # 1c200 <_data_lma+0x121e8>
    45b4:	4501                	li	a0,0
    45b6:	dd3ff0ef          	jal	ra,4388 <uart_init>
D:\A_Dual1\Dual-core_Communication_Demo\Dual-core_Communication_Demo\SLAVE\obj/../Libraries/board/board.c:14
}
    45ba:	0001                	nop
    45bc:	40b2                	lw	ra,12(sp)
    45be:	4422                	lw	s0,8(sp)
    45c0:	0141                	addi	sp,sp,16
    45c2:	8082                	ret

000045c4 <_write>:
_write():
D:\A_Dual1\Dual-core_Communication_Demo\Dual-core_Communication_Demo\SLAVE\obj/../Libraries/board/board.c:25
//  @since      v1.0
//  Sample usage:              printfDEBUG
//-------------------------------------------------------------------------------------------------------------------
#if (1 == PRINTF_ENABLE)
int _write(int fd, char *buf, int size)
{
    45c4:	7179                	addi	sp,sp,-48
    45c6:	d606                	sw	ra,44(sp)
    45c8:	d422                	sw	s0,40(sp)
    45ca:	1800                	addi	s0,sp,48
    45cc:	fca42e23          	sw	a0,-36(s0)
    45d0:	fcb42c23          	sw	a1,-40(s0)
    45d4:	fcc42a23          	sw	a2,-44(s0)
D:\A_Dual1\Dual-core_Communication_Demo\Dual-core_Communication_Demo\SLAVE\obj/../Libraries/board/board.c:27
    int i;
    for(i=0; i<size; i++)
    45d8:	fe042623          	sw	zero,-20(s0)
    45dc:	a099                	j	4622 <_write+0x5e>
D:\A_Dual1\Dual-core_Communication_Demo\Dual-core_Communication_Demo\SLAVE\obj/../Libraries/board/board.c:29
    {
        while (USART_GetFlagStatus((USART_TypeDef*)UARTN[DEBUG_UART], USART_FLAG_TC) == RESET);
    45de:	0001                	nop
D:\A_Dual1\Dual-core_Communication_Demo\Dual-core_Communication_Demo\SLAVE\obj/../Libraries/board/board.c:29 (discriminator 1)
    45e0:	67a9                	lui	a5,0xa
    45e2:	d947a783          	lw	a5,-620(a5) # 9d94 <UARTN>
    45e6:	04000593          	li	a1,64
    45ea:	853e                	mv	a0,a5
    45ec:	d63fd0ef          	jal	ra,234e <USART_GetFlagStatus>
    45f0:	87aa                	mv	a5,a0
    45f2:	d7fd                	beqz	a5,45e0 <_write+0x1c>
D:\A_Dual1\Dual-core_Communication_Demo\Dual-core_Communication_Demo\SLAVE\obj/../Libraries/board/board.c:30 (discriminator 2)
        USART_SendData((USART_TypeDef*)UARTN[DEBUG_UART], *buf++);
    45f4:	67a9                	lui	a5,0xa
    45f6:	d947a783          	lw	a5,-620(a5) # 9d94 <UARTN>
    45fa:	86be                	mv	a3,a5
    45fc:	fd842783          	lw	a5,-40(s0)
    4600:	00178713          	addi	a4,a5,1
    4604:	fce42c23          	sw	a4,-40(s0)
    4608:	00078783          	lb	a5,0(a5)
    460c:	07c2                	slli	a5,a5,0x10
    460e:	83c1                	srli	a5,a5,0x10
    4610:	85be                	mv	a1,a5
    4612:	8536                	mv	a0,a3
    4614:	d0dfd0ef          	jal	ra,2320 <USART_SendData>
D:\A_Dual1\Dual-core_Communication_Demo\Dual-core_Communication_Demo\SLAVE\obj/../Libraries/board/board.c:27 (discriminator 2)
    for(i=0; i<size; i++)
    4618:	fec42783          	lw	a5,-20(s0)
    461c:	0785                	addi	a5,a5,1
    461e:	fef42623          	sw	a5,-20(s0)
D:\A_Dual1\Dual-core_Communication_Demo\Dual-core_Communication_Demo\SLAVE\obj/../Libraries/board/board.c:27 (discriminator 1)
    4622:	fec42703          	lw	a4,-20(s0)
    4626:	fd442783          	lw	a5,-44(s0)
    462a:	faf74ae3          	blt	a4,a5,45de <_write+0x1a>
D:\A_Dual1\Dual-core_Communication_Demo\Dual-core_Communication_Demo\SLAVE\obj/../Libraries/board/board.c:32
    }
    return size;
    462e:	fd442783          	lw	a5,-44(s0)
D:\A_Dual1\Dual-core_Communication_Demo\Dual-core_Communication_Demo\SLAVE\obj/../Libraries/board/board.c:33
}
    4632:	853e                	mv	a0,a5
    4634:	50b2                	lw	ra,44(sp)
    4636:	5422                	lw	s0,40(sp)
    4638:	6145                	addi	sp,sp,48
    463a:	8082                	ret

0000463c <SetSysClock>:
SetSysClock():
D:\A_Dual1\Dual-core_Communication_Demo\Dual-core_Communication_Demo\SLAVE\obj/../Libraries/board/clock_config.c:11
* Description    : Sets System clock frequency to 72MHz and configure HCLK, PCLK2 and PCLK1 prescalers.
* Input          : None
* Return         : None
*******************************************************************************************/
static void SetSysClock(void)
{
    463c:	1101                	addi	sp,sp,-32
    463e:	ce22                	sw	s0,28(sp)
    4640:	1000                	addi	s0,sp,32
D:\A_Dual1\Dual-core_Communication_Demo\Dual-core_Communication_Demo\SLAVE\obj/../Libraries/board/clock_config.c:12
    __IO uint32_t StartUpCounter = 0, HSEStatus = 0;
    4642:	fe042623          	sw	zero,-20(s0)
    4646:	fe042423          	sw	zero,-24(s0)
D:\A_Dual1\Dual-core_Communication_Demo\Dual-core_Communication_Demo\SLAVE\obj/../Libraries/board/clock_config.c:14

    RCC->CTLR |= ((uint32_t)RCC_HSEON);
    464a:	400217b7          	lui	a5,0x40021
    464e:	4394                	lw	a3,0(a5)
    4650:	400217b7          	lui	a5,0x40021
    4654:	6741                	lui	a4,0x10
    4656:	8f55                	or	a4,a4,a3
    4658:	c398                	sw	a4,0(a5)
D:\A_Dual1\Dual-core_Communication_Demo\Dual-core_Communication_Demo\SLAVE\obj/../Libraries/board/clock_config.c:19 (discriminator 2)

    /* Wait till HSE is ready and if Time out is reached exit */
    do
    {
        HSEStatus = RCC->CTLR & RCC_HSERDY;
    465a:	400217b7          	lui	a5,0x40021
    465e:	4398                	lw	a4,0(a5)
    4660:	000207b7          	lui	a5,0x20
    4664:	8ff9                	and	a5,a5,a4
    4666:	fef42423          	sw	a5,-24(s0)
D:\A_Dual1\Dual-core_Communication_Demo\Dual-core_Communication_Demo\SLAVE\obj/../Libraries/board/clock_config.c:20 (discriminator 2)
        StartUpCounter++;
    466a:	fec42783          	lw	a5,-20(s0)
    466e:	0785                	addi	a5,a5,1
    4670:	fef42623          	sw	a5,-20(s0)
D:\A_Dual1\Dual-core_Communication_Demo\Dual-core_Communication_Demo\SLAVE\obj/../Libraries/board/clock_config.c:21 (discriminator 2)
    } while((HSEStatus == 0) && (StartUpCounter != HSE_STARTUP_TIMEOUT));
    4674:	fe842783          	lw	a5,-24(s0)
    4678:	e799                	bnez	a5,4686 <SetSysClock+0x4a>
D:\A_Dual1\Dual-core_Communication_Demo\Dual-core_Communication_Demo\SLAVE\obj/../Libraries/board/clock_config.c:21 (discriminator 1)
    467a:	fec42703          	lw	a4,-20(s0)
    467e:	50000793          	li	a5,1280
    4682:	fcf71ce3          	bne	a4,a5,465a <SetSysClock+0x1e>
D:\A_Dual1\Dual-core_Communication_Demo\Dual-core_Communication_Demo\SLAVE\obj/../Libraries/board/clock_config.c:23

    if ((RCC->CTLR & RCC_HSERDY) != RESET)
    4686:	400217b7          	lui	a5,0x40021
    468a:	4398                	lw	a4,0(a5)
    468c:	000207b7          	lui	a5,0x20
    4690:	8ff9                	and	a5,a5,a4
    4692:	c789                	beqz	a5,469c <SetSysClock+0x60>
D:\A_Dual1\Dual-core_Communication_Demo\Dual-core_Communication_Demo\SLAVE\obj/../Libraries/board/clock_config.c:25
    {
        HSEStatus = (uint32_t)0x01;
    4694:	4785                	li	a5,1
    4696:	fef42423          	sw	a5,-24(s0)
    469a:	a019                	j	46a0 <SetSysClock+0x64>
D:\A_Dual1\Dual-core_Communication_Demo\Dual-core_Communication_Demo\SLAVE\obj/../Libraries/board/clock_config.c:29
    }
    else
    {
        HSEStatus = (uint32_t)0x00;
    469c:	fe042423          	sw	zero,-24(s0)
D:\A_Dual1\Dual-core_Communication_Demo\Dual-core_Communication_Demo\SLAVE\obj/../Libraries/board/clock_config.c:32
    }

    if (HSEStatus == (uint32_t)0x01)
    46a0:	fe842703          	lw	a4,-24(s0)
    46a4:	4785                	li	a5,1
    46a6:	0cf71763          	bne	a4,a5,4774 <SetSysClock+0x138>
D:\A_Dual1\Dual-core_Communication_Demo\Dual-core_Communication_Demo\SLAVE\obj/../Libraries/board/clock_config.c:35
    {
        /* Enable Prefetch Buffer */
        FLASH->ACTLR |= FLASH_ACTLR_PRFTBE;
    46aa:	400227b7          	lui	a5,0x40022
    46ae:	4398                	lw	a4,0(a5)
    46b0:	400227b7          	lui	a5,0x40022
    46b4:	01076713          	ori	a4,a4,16
    46b8:	c398                	sw	a4,0(a5)
D:\A_Dual1\Dual-core_Communication_Demo\Dual-core_Communication_Demo\SLAVE\obj/../Libraries/board/clock_config.c:38

        /* Flash 2 wait state */
        FLASH->ACTLR &= (uint32_t)((uint32_t)~FLASH_ACTLR_LATENCY);
    46ba:	400227b7          	lui	a5,0x40022
    46be:	4398                	lw	a4,0(a5)
    46c0:	400227b7          	lui	a5,0x40022
    46c4:	9b71                	andi	a4,a4,-4
    46c6:	c398                	sw	a4,0(a5)
D:\A_Dual1\Dual-core_Communication_Demo\Dual-core_Communication_Demo\SLAVE\obj/../Libraries/board/clock_config.c:39
        FLASH->ACTLR |= (uint32_t)FLASH_ACTLR_LATENCY_2;
    46c8:	400227b7          	lui	a5,0x40022
    46cc:	4398                	lw	a4,0(a5)
    46ce:	400227b7          	lui	a5,0x40022
    46d2:	00276713          	ori	a4,a4,2
    46d6:	c398                	sw	a4,0(a5)
D:\A_Dual1\Dual-core_Communication_Demo\Dual-core_Communication_Demo\SLAVE\obj/../Libraries/board/clock_config.c:42

        /* HCLK = SYSCLK */
        RCC->CFGR0 |= (uint32_t)RCC_HPRE_DIV1;
    46d8:	40021737          	lui	a4,0x40021
    46dc:	400217b7          	lui	a5,0x40021
    46e0:	4358                	lw	a4,4(a4)
    46e2:	c3d8                	sw	a4,4(a5)
D:\A_Dual1\Dual-core_Communication_Demo\Dual-core_Communication_Demo\SLAVE\obj/../Libraries/board/clock_config.c:44
        /* PCLK2 = HCLK */
        RCC->CFGR0 |= (uint32_t)RCC_PPRE2_DIV1;
    46e4:	40021737          	lui	a4,0x40021
    46e8:	400217b7          	lui	a5,0x40021
    46ec:	4358                	lw	a4,4(a4)
    46ee:	c3d8                	sw	a4,4(a5)
D:\A_Dual1\Dual-core_Communication_Demo\Dual-core_Communication_Demo\SLAVE\obj/../Libraries/board/clock_config.c:46
        /* PCLK1 = HCLK */
        RCC->CFGR0 |= (uint32_t)RCC_PPRE1_DIV1;
    46f0:	40021737          	lui	a4,0x40021
    46f4:	400217b7          	lui	a5,0x40021
    46f8:	4358                	lw	a4,4(a4)
    46fa:	c3d8                	sw	a4,4(a5)
D:\A_Dual1\Dual-core_Communication_Demo\Dual-core_Communication_Demo\SLAVE\obj/../Libraries/board/clock_config.c:49


        RCC->CFGR0 &= (uint32_t)((uint32_t)~(RCC_PLLSRC | RCC_PLLXTPRE |
    46fc:	400217b7          	lui	a5,0x40021
    4700:	43d4                	lw	a3,4(a5)
    4702:	400217b7          	lui	a5,0x40021
    4706:	ffc10737          	lui	a4,0xffc10
    470a:	177d                	addi	a4,a4,-1
    470c:	8f75                	and	a4,a4,a3
    470e:	c3d8                	sw	a4,4(a5)
D:\A_Dual1\Dual-core_Communication_Demo\Dual-core_Communication_Demo\SLAVE\obj/../Libraries/board/clock_config.c:52
                                            RCC_PLLMULL));
        /*  PLL configuration: PLLCLK = HSE * ?  */
        RCC->CFGR0 |= (uint32_t)(RCC_PLLSRC_HSE | RCC_PLLMULL11);
    4710:	400217b7          	lui	a5,0x40021
    4714:	43d4                	lw	a3,4(a5)
    4716:	400217b7          	lui	a5,0x40021
    471a:	00250737          	lui	a4,0x250
    471e:	8f55                	or	a4,a4,a3
    4720:	c3d8                	sw	a4,4(a5)
D:\A_Dual1\Dual-core_Communication_Demo\Dual-core_Communication_Demo\SLAVE\obj/../Libraries/board/clock_config.c:54
        /* Enable PLL */
        RCC->CTLR |= RCC_PLLON;
    4722:	400217b7          	lui	a5,0x40021
    4726:	4394                	lw	a3,0(a5)
    4728:	400217b7          	lui	a5,0x40021
    472c:	01000737          	lui	a4,0x1000
    4730:	8f55                	or	a4,a4,a3
    4732:	c398                	sw	a4,0(a5)
D:\A_Dual1\Dual-core_Communication_Demo\Dual-core_Communication_Demo\SLAVE\obj/../Libraries/board/clock_config.c:56
        /* Wait till PLL is ready */
        while((RCC->CTLR & RCC_PLLRDY) == 0)
    4734:	0001                	nop
D:\A_Dual1\Dual-core_Communication_Demo\Dual-core_Communication_Demo\SLAVE\obj/../Libraries/board/clock_config.c:56 (discriminator 1)
    4736:	400217b7          	lui	a5,0x40021
    473a:	4398                	lw	a4,0(a5)
    473c:	020007b7          	lui	a5,0x2000
    4740:	8ff9                	and	a5,a5,a4
    4742:	dbf5                	beqz	a5,4736 <SetSysClock+0xfa>
D:\A_Dual1\Dual-core_Communication_Demo\Dual-core_Communication_Demo\SLAVE\obj/../Libraries/board/clock_config.c:60
        {
        }
        /* Select PLL as system clock source */
        RCC->CFGR0 &= (uint32_t)((uint32_t)~(RCC_SW));
    4744:	400217b7          	lui	a5,0x40021
    4748:	43d8                	lw	a4,4(a5)
    474a:	400217b7          	lui	a5,0x40021
    474e:	9b71                	andi	a4,a4,-4
    4750:	c3d8                	sw	a4,4(a5)
D:\A_Dual1\Dual-core_Communication_Demo\Dual-core_Communication_Demo\SLAVE\obj/../Libraries/board/clock_config.c:61
        RCC->CFGR0 |= (uint32_t)RCC_SW_PLL;
    4752:	400217b7          	lui	a5,0x40021
    4756:	43d8                	lw	a4,4(a5)
    4758:	400217b7          	lui	a5,0x40021
    475c:	00276713          	ori	a4,a4,2
    4760:	c3d8                	sw	a4,4(a5)
D:\A_Dual1\Dual-core_Communication_Demo\Dual-core_Communication_Demo\SLAVE\obj/../Libraries/board/clock_config.c:63
        /* Wait till PLL is used as system clock source */
        while ((RCC->CFGR0 & (uint32_t)RCC_SWS) != (uint32_t)0x08)
    4762:	0001                	nop
D:\A_Dual1\Dual-core_Communication_Demo\Dual-core_Communication_Demo\SLAVE\obj/../Libraries/board/clock_config.c:63 (discriminator 1)
    4764:	400217b7          	lui	a5,0x40021
    4768:	43dc                	lw	a5,4(a5)
    476a:	00c7f713          	andi	a4,a5,12
    476e:	47a1                	li	a5,8
    4770:	fef71ae3          	bne	a4,a5,4764 <SetSysClock+0x128>
D:\A_Dual1\Dual-core_Communication_Demo\Dual-core_Communication_Demo\SLAVE\obj/../Libraries/board/clock_config.c:74
        /*
         * If HSE fails to start-up, the application will have wrong clock
     * configuration. User can add here some code to deal with this error
         */
    }
}
    4774:	0001                	nop
    4776:	4472                	lw	s0,28(sp)
    4778:	6105                	addi	sp,sp,32
    477a:	8082                	ret

0000477c <SystemInit>:
SystemInit():
D:\A_Dual1\Dual-core_Communication_Demo\Dual-core_Communication_Demo\SLAVE\obj/../Libraries/board/clock_config.c:84
*                  the PLL and update the SystemCoreClock variable.
* Input          : None
* Return         : None
*******************************************************************************************/
void SystemInit (void)
{
    477c:	1141                	addi	sp,sp,-16
    477e:	c606                	sw	ra,12(sp)
    4780:	c422                	sw	s0,8(sp)
    4782:	0800                	addi	s0,sp,16
D:\A_Dual1\Dual-core_Communication_Demo\Dual-core_Communication_Demo\SLAVE\obj/../Libraries/board/clock_config.c:85
    RCC->CTLR |= (uint32_t)0x00000001;
    4784:	400217b7          	lui	a5,0x40021
    4788:	4398                	lw	a4,0(a5)
    478a:	400217b7          	lui	a5,0x40021
    478e:	00176713          	ori	a4,a4,1
    4792:	c398                	sw	a4,0(a5)
D:\A_Dual1\Dual-core_Communication_Demo\Dual-core_Communication_Demo\SLAVE\obj/../Libraries/board/clock_config.c:86
    RCC->CFGR0 &= (uint32_t)0xF8FF0000;
    4794:	400217b7          	lui	a5,0x40021
    4798:	43d4                	lw	a3,4(a5)
    479a:	400217b7          	lui	a5,0x40021
    479e:	f8ff0737          	lui	a4,0xf8ff0
    47a2:	8f75                	and	a4,a4,a3
    47a4:	c3d8                	sw	a4,4(a5)
D:\A_Dual1\Dual-core_Communication_Demo\Dual-core_Communication_Demo\SLAVE\obj/../Libraries/board/clock_config.c:87
    RCC->CTLR &= (uint32_t)0xFEF6FFFF;
    47a6:	400217b7          	lui	a5,0x40021
    47aa:	4394                	lw	a3,0(a5)
    47ac:	400217b7          	lui	a5,0x40021
    47b0:	fef70737          	lui	a4,0xfef70
    47b4:	177d                	addi	a4,a4,-1
    47b6:	8f75                	and	a4,a4,a3
    47b8:	c398                	sw	a4,0(a5)
D:\A_Dual1\Dual-core_Communication_Demo\Dual-core_Communication_Demo\SLAVE\obj/../Libraries/board/clock_config.c:88
    RCC->CTLR &= (uint32_t)0xFFFBFFFF;
    47ba:	400217b7          	lui	a5,0x40021
    47be:	4394                	lw	a3,0(a5)
    47c0:	400217b7          	lui	a5,0x40021
    47c4:	fffc0737          	lui	a4,0xfffc0
    47c8:	177d                	addi	a4,a4,-1
    47ca:	8f75                	and	a4,a4,a3
    47cc:	c398                	sw	a4,0(a5)
D:\A_Dual1\Dual-core_Communication_Demo\Dual-core_Communication_Demo\SLAVE\obj/../Libraries/board/clock_config.c:89
    RCC->CFGR0 &= (uint32_t)0xFF80FFFF;
    47ce:	400217b7          	lui	a5,0x40021
    47d2:	43d4                	lw	a3,4(a5)
    47d4:	400217b7          	lui	a5,0x40021
    47d8:	ff810737          	lui	a4,0xff810
    47dc:	177d                	addi	a4,a4,-1
    47de:	8f75                	and	a4,a4,a3
    47e0:	c3d8                	sw	a4,4(a5)
D:\A_Dual1\Dual-core_Communication_Demo\Dual-core_Communication_Demo\SLAVE\obj/../Libraries/board/clock_config.c:90
    RCC->INTR = 0x009F0000;
    47e2:	400217b7          	lui	a5,0x40021
    47e6:	009f0737          	lui	a4,0x9f0
    47ea:	c798                	sw	a4,8(a5)
D:\A_Dual1\Dual-core_Communication_Demo\Dual-core_Communication_Demo\SLAVE\obj/../Libraries/board/clock_config.c:91
    SetSysClock();
    47ec:	e51ff0ef          	jal	ra,463c <SetSysClock>
D:\A_Dual1\Dual-core_Communication_Demo\Dual-core_Communication_Demo\SLAVE\obj/../Libraries/board/clock_config.c:92
}
    47f0:	0001                	nop
    47f2:	40b2                	lw	ra,12(sp)
    47f4:	4422                	lw	s0,8(sp)
    47f6:	0141                	addi	sp,sp,16
    47f8:	8082                	ret

000047fa <trackBorder_Get>:
trackBorder_Get():
D:\A_Dual1\Dual-core_Communication_Demo\Dual-core_Communication_Demo\SLAVE\obj/../CODE/TrackGet.c:103
}

uint8 trackBorder_Get_Cnt=0;
int16 last_start;
void trackBorder_Get(uint8 threshold)//
{
    47fa:	7139                	addi	sp,sp,-64
    47fc:	de06                	sw	ra,60(sp)
    47fe:	dc22                	sw	s0,56(sp)
    4800:	0080                	addi	s0,sp,64
    4802:	87aa                	mv	a5,a0
    4804:	fcf407a3          	sb	a5,-49(s0)
D:\A_Dual1\Dual-core_Communication_Demo\Dual-core_Communication_Demo\SLAVE\obj/../CODE/TrackGet.c:104
    memset(Border[LEFT],0,High*sizeof(int));//
    4808:	0c800613          	li	a2,200
    480c:	4581                	li	a1,0
    480e:	200027b7          	lui	a5,0x20002
    4812:	68c78513          	addi	a0,a5,1676 # 2000268c <Border>
    4816:	92bfb0ef          	jal	ra,140 <memset>
D:\A_Dual1\Dual-core_Communication_Demo\Dual-core_Communication_Demo\SLAVE\obj/../CODE/TrackGet.c:105
    memset(Border[CENTRE],Width/2,High*sizeof(int));
    481a:	0c800613          	li	a2,200
    481e:	05e00593          	li	a1,94
    4822:	200027b7          	lui	a5,0x20002
    4826:	6f078513          	addi	a0,a5,1776 # 200026f0 <Border+0x64>
    482a:	917fb0ef          	jal	ra,140 <memset>
D:\A_Dual1\Dual-core_Communication_Demo\Dual-core_Communication_Demo\SLAVE\obj/../CODE/TrackGet.c:106
    memset(Border[RIGHT],Width-1,High*sizeof(int));
    482e:	0c800613          	li	a2,200
    4832:	0bb00593          	li	a1,187
    4836:	200027b7          	lui	a5,0x20002
    483a:	75478513          	addi	a0,a5,1876 # 20002754 <Border+0xc8>
    483e:	903fb0ef          	jal	ra,140 <memset>
D:\A_Dual1\Dual-core_Communication_Demo\Dual-core_Communication_Demo\SLAVE\obj/../CODE/TrackGet.c:108

    centre_Delta_Exceed_Cnt=0;
    4842:	84018c23          	sb	zero,-1960(gp) # 20000170 <centre_Delta_Exceed_Cnt>
D:\A_Dual1\Dual-core_Communication_Demo\Dual-core_Communication_Demo\SLAVE\obj/../CODE/TrackGet.c:109
    leftLostLine_Cnt=0;//
    4846:	84019623          	sh	zero,-1972(gp) # 20000164 <leftLostLine_Cnt>
D:\A_Dual1\Dual-core_Communication_Demo\Dual-core_Communication_Demo\SLAVE\obj/../CODE/TrackGet.c:110
    rightLostLine_Cnt=0;
    484a:	84019723          	sh	zero,-1970(gp) # 20000166 <rightLostLine_Cnt>
D:\A_Dual1\Dual-core_Communication_Demo\Dual-core_Communication_Demo\SLAVE\obj/../CODE/TrackGet.c:111
    lostLeft_Sign=0;
    484e:	84019423          	sh	zero,-1976(gp) # 20000160 <lostLeft_Sign>
D:\A_Dual1\Dual-core_Communication_Demo\Dual-core_Communication_Demo\SLAVE\obj/../CODE/TrackGet.c:112
    lostRight_Sign=0;
    4852:	84019523          	sh	zero,-1974(gp) # 20000162 <lostRight_Sign>
D:\A_Dual1\Dual-core_Communication_Demo\Dual-core_Communication_Demo\SLAVE\obj/../CODE/TrackGet.c:113
    validLine=High-1;
    4856:	03100713          	li	a4,49
    485a:	84e19223          	sh	a4,-1980(gp) # 2000015c <validLine>
D:\A_Dual1\Dual-core_Communication_Demo\Dual-core_Communication_Demo\SLAVE\obj/../CODE/TrackGet.c:115

    int d_neg=-25,d_pos=25;//-15 15
    485e:	579d                	li	a5,-25
    4860:	fef42623          	sw	a5,-20(s0)
    4864:	47e5                	li	a5,25
    4866:	fef42423          	sw	a5,-24(s0)
D:\A_Dual1\Dual-core_Communication_Demo\Dual-core_Communication_Demo\SLAVE\obj/../CODE/TrackGet.c:116
    if(stateRing_Sign>=3&&stateRing_Sign<=4&&directRing_Sign==LEFT)
    486a:	85018703          	lb	a4,-1968(gp) # 20000168 <stateRing_Sign>
    486e:	4789                	li	a5,2
    4870:	00e7df63          	bge	a5,a4,488e <trackBorder_Get+0x94>
D:\A_Dual1\Dual-core_Communication_Demo\Dual-core_Communication_Demo\SLAVE\obj/../CODE/TrackGet.c:116 (discriminator 1)
    4874:	85018703          	lb	a4,-1968(gp) # 20000168 <stateRing_Sign>
    4878:	4791                	li	a5,4
    487a:	00e7ca63          	blt	a5,a4,488e <trackBorder_Get+0x94>
D:\A_Dual1\Dual-core_Communication_Demo\Dual-core_Communication_Demo\SLAVE\obj/../CODE/TrackGet.c:116 (discriminator 2)
    487e:	80a18783          	lb	a5,-2038(gp) # 20000122 <directRing_Sign>
    4882:	e791                	bnez	a5,488e <trackBorder_Get+0x94>
D:\A_Dual1\Dual-core_Communication_Demo\Dual-core_Communication_Demo\SLAVE\obj/../CODE/TrackGet.c:117
        d_neg=-90;
    4884:	fa600793          	li	a5,-90
    4888:	fef42623          	sw	a5,-20(s0)
    488c:	a025                	j	48b4 <trackBorder_Get+0xba>
D:\A_Dual1\Dual-core_Communication_Demo\Dual-core_Communication_Demo\SLAVE\obj/../CODE/TrackGet.c:118
    else if(stateRing_Sign>=3&&stateRing_Sign<=4&&directRing_Sign==RIGHT)
    488e:	85018703          	lb	a4,-1968(gp) # 20000168 <stateRing_Sign>
    4892:	4789                	li	a5,2
    4894:	02e7d063          	bge	a5,a4,48b4 <trackBorder_Get+0xba>
D:\A_Dual1\Dual-core_Communication_Demo\Dual-core_Communication_Demo\SLAVE\obj/../CODE/TrackGet.c:118 (discriminator 1)
    4898:	85018703          	lb	a4,-1968(gp) # 20000168 <stateRing_Sign>
    489c:	4791                	li	a5,4
    489e:	00e7cb63          	blt	a5,a4,48b4 <trackBorder_Get+0xba>
D:\A_Dual1\Dual-core_Communication_Demo\Dual-core_Communication_Demo\SLAVE\obj/../CODE/TrackGet.c:118 (discriminator 2)
    48a2:	80a18703          	lb	a4,-2038(gp) # 20000122 <directRing_Sign>
    48a6:	4789                	li	a5,2
    48a8:	00f71663          	bne	a4,a5,48b4 <trackBorder_Get+0xba>
D:\A_Dual1\Dual-core_Communication_Demo\Dual-core_Communication_Demo\SLAVE\obj/../CODE/TrackGet.c:119
        d_pos=90;
    48ac:	05a00793          	li	a5,90
    48b0:	fef42423          	sw	a5,-24(s0)
D:\A_Dual1\Dual-core_Communication_Demo\Dual-core_Communication_Demo\SLAVE\obj/../CODE/TrackGet.c:121

    for(int i=Width/2+d_neg;i<Width/2+d_pos;i++)//
    48b4:	fec42783          	lw	a5,-20(s0)
    48b8:	05e78793          	addi	a5,a5,94
    48bc:	fef42223          	sw	a5,-28(s0)
    48c0:	a051                	j	4944 <trackBorder_Get+0x14a>
D:\A_Dual1\Dual-core_Communication_Demo\Dual-core_Communication_Demo\SLAVE\obj/../CODE/TrackGet.c:123
    {
        int j=High-1;
    48c2:	03100793          	li	a5,49
    48c6:	fef42023          	sw	a5,-32(s0)
D:\A_Dual1\Dual-core_Communication_Demo\Dual-core_Communication_Demo\SLAVE\obj/../CODE/TrackGet.c:124
        while(mt9v03x_image[j][i]>threshold&&j>=0)
    48ca:	a031                	j	48d6 <trackBorder_Get+0xdc>
D:\A_Dual1\Dual-core_Communication_Demo\Dual-core_Communication_Demo\SLAVE\obj/../CODE/TrackGet.c:125
            j--;
    48cc:	fe042783          	lw	a5,-32(s0)
    48d0:	17fd                	addi	a5,a5,-1
    48d2:	fef42023          	sw	a5,-32(s0)
D:\A_Dual1\Dual-core_Communication_Demo\Dual-core_Communication_Demo\SLAVE\obj/../CODE/TrackGet.c:124
        while(mt9v03x_image[j][i]>threshold&&j>=0)
    48d6:	200007b7          	lui	a5,0x20000
    48da:	fe042683          	lw	a3,-32(s0)
    48de:	0bc00713          	li	a4,188
    48e2:	02e68733          	mul	a4,a3,a4
    48e6:	1c878793          	addi	a5,a5,456 # 200001c8 <mt9v03x_image>
    48ea:	973e                	add	a4,a4,a5
    48ec:	fe442783          	lw	a5,-28(s0)
    48f0:	97ba                	add	a5,a5,a4
    48f2:	0007c783          	lbu	a5,0(a5)
    48f6:	fcf44703          	lbu	a4,-49(s0)
    48fa:	00f77663          	bgeu	a4,a5,4906 <trackBorder_Get+0x10c>
D:\A_Dual1\Dual-core_Communication_Demo\Dual-core_Communication_Demo\SLAVE\obj/../CODE/TrackGet.c:124 (discriminator 1)
    48fe:	fe042783          	lw	a5,-32(s0)
    4902:	fc07d5e3          	bgez	a5,48cc <trackBorder_Get+0xd2>
D:\A_Dual1\Dual-core_Communication_Demo\Dual-core_Communication_Demo\SLAVE\obj/../CODE/TrackGet.c:126
        if(j-1<validLine)
    4906:	84419783          	lh	a5,-1980(gp) # 2000015c <validLine>
    490a:	873e                	mv	a4,a5
    490c:	fe042783          	lw	a5,-32(s0)
    4910:	02f74563          	blt	a4,a5,493a <trackBorder_Get+0x140>
D:\A_Dual1\Dual-core_Communication_Demo\Dual-core_Communication_Demo\SLAVE\obj/../CODE/TrackGet.c:128
        {
            validLine=j-1;
    4914:	fe042783          	lw	a5,-32(s0)
    4918:	07c2                	slli	a5,a5,0x10
    491a:	83c1                	srli	a5,a5,0x10
    491c:	17fd                	addi	a5,a5,-1
    491e:	07c2                	slli	a5,a5,0x10
    4920:	83c1                	srli	a5,a5,0x10
    4922:	01079713          	slli	a4,a5,0x10
    4926:	8741                	srai	a4,a4,0x10
    4928:	84e19223          	sh	a4,-1980(gp) # 2000015c <validLine>
D:\A_Dual1\Dual-core_Communication_Demo\Dual-core_Communication_Demo\SLAVE\obj/../CODE/TrackGet.c:129
            searsh_mid_line=i;
    492c:	fe442783          	lw	a5,-28(s0)
    4930:	01079713          	slli	a4,a5,0x10
    4934:	8741                	srai	a4,a4,0x10
    4936:	84e19323          	sh	a4,-1978(gp) # 2000015e <searsh_mid_line>
D:\A_Dual1\Dual-core_Communication_Demo\Dual-core_Communication_Demo\SLAVE\obj/../CODE/TrackGet.c:121 (discriminator 2)
    for(int i=Width/2+d_neg;i<Width/2+d_pos;i++)//
    493a:	fe442783          	lw	a5,-28(s0)
    493e:	0785                	addi	a5,a5,1
    4940:	fef42223          	sw	a5,-28(s0)
D:\A_Dual1\Dual-core_Communication_Demo\Dual-core_Communication_Demo\SLAVE\obj/../CODE/TrackGet.c:121 (discriminator 1)
    4944:	fe842783          	lw	a5,-24(s0)
    4948:	05d78793          	addi	a5,a5,93
    494c:	fe442703          	lw	a4,-28(s0)
    4950:	f6e7d9e3          	bge	a5,a4,48c2 <trackBorder_Get+0xc8>
D:\A_Dual1\Dual-core_Communication_Demo\Dual-core_Communication_Demo\SLAVE\obj/../CODE/TrackGet.c:133
        }
    }

    for(int i=High-1;i>=validLine;i--)//
    4954:	03100793          	li	a5,49
    4958:	fcf42e23          	sw	a5,-36(s0)
    495c:	aca1                	j	4bb4 <trackBorder_Get+0x3ba>
D:\A_Dual1\Dual-core_Communication_Demo\Dual-core_Communication_Demo\SLAVE\obj/../CODE/TrackGet.c:135
    {
        for(int j=searsh_mid_line-delta;j>=0;j=j-delta)//
    495e:	84619783          	lh	a5,-1978(gp) # 2000015e <searsh_mid_line>
    4962:	873e                	mv	a4,a5
    4964:	80819783          	lh	a5,-2040(gp) # 20000120 <delta>
    4968:	40f707b3          	sub	a5,a4,a5
    496c:	fcf42c23          	sw	a5,-40(s0)
    4970:	a869                	j	4a0a <trackBorder_Get+0x210>
D:\A_Dual1\Dual-core_Communication_Demo\Dual-core_Communication_Demo\SLAVE\obj/../CODE/TrackGet.c:137
        {
            if(mt9v03x_image[i][j]<threshold)
    4972:	200007b7          	lui	a5,0x20000
    4976:	fdc42683          	lw	a3,-36(s0)
    497a:	0bc00713          	li	a4,188
    497e:	02e68733          	mul	a4,a3,a4
    4982:	1c878793          	addi	a5,a5,456 # 200001c8 <mt9v03x_image>
    4986:	973e                	add	a4,a4,a5
    4988:	fd842783          	lw	a5,-40(s0)
    498c:	97ba                	add	a5,a5,a4
    498e:	0007c783          	lbu	a5,0(a5)
    4992:	fcf44703          	lbu	a4,-49(s0)
    4996:	02e7f363          	bgeu	a5,a4,49bc <trackBorder_Get+0x1c2>
D:\A_Dual1\Dual-core_Communication_Demo\Dual-core_Communication_Demo\SLAVE\obj/../CODE/TrackGet.c:139
            {
                EdgeL=j;
    499a:	fd842783          	lw	a5,-40(s0)
    499e:	01079713          	slli	a4,a5,0x10
    49a2:	8741                	srai	a4,a4,0x10
    49a4:	84e19023          	sh	a4,-1984(gp) # 20000158 <EdgeL>
D:\A_Dual1\Dual-core_Communication_Demo\Dual-core_Communication_Demo\SLAVE\obj/../CODE/TrackGet.c:140
                islost_record[LEFT][i]=0;
    49a8:	200027b7          	lui	a5,0x20002
    49ac:	7b878713          	addi	a4,a5,1976 # 200027b8 <islost_record>
    49b0:	fdc42783          	lw	a5,-36(s0)
    49b4:	97ba                	add	a5,a5,a4
    49b6:	00078023          	sb	zero,0(a5)
D:\A_Dual1\Dual-core_Communication_Demo\Dual-core_Communication_Demo\SLAVE\obj/../CODE/TrackGet.c:141
                break;
    49ba:	a8a1                	j	4a12 <trackBorder_Get+0x218>
D:\A_Dual1\Dual-core_Communication_Demo\Dual-core_Communication_Demo\SLAVE\obj/../CODE/TrackGet.c:143
            }
            else if(j==0)//
    49bc:	fd842783          	lw	a5,-40(s0)
    49c0:	ef8d                	bnez	a5,49fa <trackBorder_Get+0x200>
D:\A_Dual1\Dual-core_Communication_Demo\Dual-core_Communication_Demo\SLAVE\obj/../CODE/TrackGet.c:145
            {
                EdgeL=0;
    49c2:	84019023          	sh	zero,-1984(gp) # 20000158 <EdgeL>
D:\A_Dual1\Dual-core_Communication_Demo\Dual-core_Communication_Demo\SLAVE\obj/../CODE/TrackGet.c:146
                lostLeft_Sign=1;
    49c6:	4705                	li	a4,1
    49c8:	84e19423          	sh	a4,-1976(gp) # 20000160 <lostLeft_Sign>
D:\A_Dual1\Dual-core_Communication_Demo\Dual-core_Communication_Demo\SLAVE\obj/../CODE/TrackGet.c:147
                islost_record[LEFT][i]=1;
    49cc:	200027b7          	lui	a5,0x20002
    49d0:	7b878713          	addi	a4,a5,1976 # 200027b8 <islost_record>
    49d4:	fdc42783          	lw	a5,-36(s0)
    49d8:	97ba                	add	a5,a5,a4
    49da:	4705                	li	a4,1
    49dc:	00e78023          	sb	a4,0(a5)
D:\A_Dual1\Dual-core_Communication_Demo\Dual-core_Communication_Demo\SLAVE\obj/../CODE/TrackGet.c:148
                leftLostLine_Cnt++;
    49e0:	84c19783          	lh	a5,-1972(gp) # 20000164 <leftLostLine_Cnt>
    49e4:	07c2                	slli	a5,a5,0x10
    49e6:	83c1                	srli	a5,a5,0x10
    49e8:	0785                	addi	a5,a5,1
    49ea:	07c2                	slli	a5,a5,0x10
    49ec:	83c1                	srli	a5,a5,0x10
    49ee:	01079713          	slli	a4,a5,0x10
    49f2:	8741                	srai	a4,a4,0x10
    49f4:	84e19623          	sh	a4,-1972(gp) # 20000164 <leftLostLine_Cnt>
D:\A_Dual1\Dual-core_Communication_Demo\Dual-core_Communication_Demo\SLAVE\obj/../CODE/TrackGet.c:149
                break;
    49f8:	a829                	j	4a12 <trackBorder_Get+0x218>
D:\A_Dual1\Dual-core_Communication_Demo\Dual-core_Communication_Demo\SLAVE\obj/../CODE/TrackGet.c:135 (discriminator 2)
        for(int j=searsh_mid_line-delta;j>=0;j=j-delta)//
    49fa:	80819783          	lh	a5,-2040(gp) # 20000120 <delta>
    49fe:	873e                	mv	a4,a5
    4a00:	fd842783          	lw	a5,-40(s0)
    4a04:	8f99                	sub	a5,a5,a4
    4a06:	fcf42c23          	sw	a5,-40(s0)
D:\A_Dual1\Dual-core_Communication_Demo\Dual-core_Communication_Demo\SLAVE\obj/../CODE/TrackGet.c:135 (discriminator 1)
    4a0a:	fd842783          	lw	a5,-40(s0)
    4a0e:	f607d2e3          	bgez	a5,4972 <trackBorder_Get+0x178>
D:\A_Dual1\Dual-core_Communication_Demo\Dual-core_Communication_Demo\SLAVE\obj/../CODE/TrackGet.c:152
            }
        }
        for(int j=searsh_mid_line+delta;j<Width-1;j=j+delta)//
    4a12:	84619783          	lh	a5,-1978(gp) # 2000015e <searsh_mid_line>
    4a16:	873e                	mv	a4,a5
    4a18:	80819783          	lh	a5,-2040(gp) # 20000120 <delta>
    4a1c:	97ba                	add	a5,a5,a4
    4a1e:	fcf42a23          	sw	a5,-44(s0)
    4a22:	a055                	j	4ac6 <trackBorder_Get+0x2cc>
D:\A_Dual1\Dual-core_Communication_Demo\Dual-core_Communication_Demo\SLAVE\obj/../CODE/TrackGet.c:154
        {
            if(mt9v03x_image[i][j]<threshold)
    4a24:	200007b7          	lui	a5,0x20000
    4a28:	fdc42683          	lw	a3,-36(s0)
    4a2c:	0bc00713          	li	a4,188
    4a30:	02e68733          	mul	a4,a3,a4
    4a34:	1c878793          	addi	a5,a5,456 # 200001c8 <mt9v03x_image>
    4a38:	973e                	add	a4,a4,a5
    4a3a:	fd442783          	lw	a5,-44(s0)
    4a3e:	97ba                	add	a5,a5,a4
    4a40:	0007c783          	lbu	a5,0(a5)
    4a44:	fcf44703          	lbu	a4,-49(s0)
    4a48:	02e7f363          	bgeu	a5,a4,4a6e <trackBorder_Get+0x274>
D:\A_Dual1\Dual-core_Communication_Demo\Dual-core_Communication_Demo\SLAVE\obj/../CODE/TrackGet.c:156
            {
                EdgeR=j;
    4a4c:	fd442783          	lw	a5,-44(s0)
    4a50:	01079713          	slli	a4,a5,0x10
    4a54:	8741                	srai	a4,a4,0x10
    4a56:	84e19123          	sh	a4,-1982(gp) # 2000015a <EdgeR>
D:\A_Dual1\Dual-core_Communication_Demo\Dual-core_Communication_Demo\SLAVE\obj/../CODE/TrackGet.c:157
                islost_record[RIGHT][i]=0;
    4a5a:	200027b7          	lui	a5,0x20002
    4a5e:	fdc42703          	lw	a4,-36(s0)
    4a62:	7b878793          	addi	a5,a5,1976 # 200027b8 <islost_record>
    4a66:	97ba                	add	a5,a5,a4
    4a68:	06078223          	sb	zero,100(a5)
D:\A_Dual1\Dual-core_Communication_Demo\Dual-core_Communication_Demo\SLAVE\obj/../CODE/TrackGet.c:158
                break;
    4a6c:	a09d                	j	4ad2 <trackBorder_Get+0x2d8>
D:\A_Dual1\Dual-core_Communication_Demo\Dual-core_Communication_Demo\SLAVE\obj/../CODE/TrackGet.c:160
            }
            else if(j==Width-2)//
    4a6e:	fd442703          	lw	a4,-44(s0)
    4a72:	0ba00793          	li	a5,186
    4a76:	04f71063          	bne	a4,a5,4ab6 <trackBorder_Get+0x2bc>
D:\A_Dual1\Dual-core_Communication_Demo\Dual-core_Communication_Demo\SLAVE\obj/../CODE/TrackGet.c:162
            {
                EdgeR=Width-2;
    4a7a:	0ba00713          	li	a4,186
    4a7e:	84e19123          	sh	a4,-1982(gp) # 2000015a <EdgeR>
D:\A_Dual1\Dual-core_Communication_Demo\Dual-core_Communication_Demo\SLAVE\obj/../CODE/TrackGet.c:163
                lostRight_Sign=1;
    4a82:	4705                	li	a4,1
    4a84:	84e19523          	sh	a4,-1974(gp) # 20000162 <lostRight_Sign>
D:\A_Dual1\Dual-core_Communication_Demo\Dual-core_Communication_Demo\SLAVE\obj/../CODE/TrackGet.c:164
                islost_record[RIGHT][i]=1;
    4a88:	200027b7          	lui	a5,0x20002
    4a8c:	fdc42703          	lw	a4,-36(s0)
    4a90:	7b878793          	addi	a5,a5,1976 # 200027b8 <islost_record>
    4a94:	97ba                	add	a5,a5,a4
    4a96:	4705                	li	a4,1
    4a98:	06e78223          	sb	a4,100(a5)
D:\A_Dual1\Dual-core_Communication_Demo\Dual-core_Communication_Demo\SLAVE\obj/../CODE/TrackGet.c:165
                rightLostLine_Cnt++;
    4a9c:	84e19783          	lh	a5,-1970(gp) # 20000166 <rightLostLine_Cnt>
    4aa0:	07c2                	slli	a5,a5,0x10
    4aa2:	83c1                	srli	a5,a5,0x10
    4aa4:	0785                	addi	a5,a5,1
    4aa6:	07c2                	slli	a5,a5,0x10
    4aa8:	83c1                	srli	a5,a5,0x10
    4aaa:	01079713          	slli	a4,a5,0x10
    4aae:	8741                	srai	a4,a4,0x10
    4ab0:	84e19723          	sh	a4,-1970(gp) # 20000166 <rightLostLine_Cnt>
D:\A_Dual1\Dual-core_Communication_Demo\Dual-core_Communication_Demo\SLAVE\obj/../CODE/TrackGet.c:166
                break;
    4ab4:	a839                	j	4ad2 <trackBorder_Get+0x2d8>
D:\A_Dual1\Dual-core_Communication_Demo\Dual-core_Communication_Demo\SLAVE\obj/../CODE/TrackGet.c:152 (discriminator 2)
        for(int j=searsh_mid_line+delta;j<Width-1;j=j+delta)//
    4ab6:	80819783          	lh	a5,-2040(gp) # 20000120 <delta>
    4aba:	873e                	mv	a4,a5
    4abc:	fd442783          	lw	a5,-44(s0)
    4ac0:	97ba                	add	a5,a5,a4
    4ac2:	fcf42a23          	sw	a5,-44(s0)
D:\A_Dual1\Dual-core_Communication_Demo\Dual-core_Communication_Demo\SLAVE\obj/../CODE/TrackGet.c:152 (discriminator 1)
    4ac6:	fd442703          	lw	a4,-44(s0)
    4aca:	0ba00793          	li	a5,186
    4ace:	f4e7dbe3          	bge	a5,a4,4a24 <trackBorder_Get+0x22a>
D:\A_Dual1\Dual-core_Communication_Demo\Dual-core_Communication_Demo\SLAVE\obj/../CODE/TrackGet.c:170
            }
        }

        Border[LEFT][i]=EdgeL;//
    4ad2:	84019703          	lh	a4,-1984(gp) # 20000158 <EdgeL>
    4ad6:	200027b7          	lui	a5,0x20002
    4ada:	fdc42683          	lw	a3,-36(s0)
    4ade:	0686                	slli	a3,a3,0x1
    4ae0:	68c78793          	addi	a5,a5,1676 # 2000268c <Border>
    4ae4:	97b6                	add	a5,a5,a3
    4ae6:	00e79023          	sh	a4,0(a5)
D:\A_Dual1\Dual-core_Communication_Demo\Dual-core_Communication_Demo\SLAVE\obj/../CODE/TrackGet.c:171
        Border[RIGHT][i]=EdgeR;//
    4aea:	84219703          	lh	a4,-1982(gp) # 2000015a <EdgeR>
    4aee:	200027b7          	lui	a5,0x20002
    4af2:	fdc42683          	lw	a3,-36(s0)
    4af6:	06468693          	addi	a3,a3,100 # 40010064 <_eusrstack+0x2000b064>
    4afa:	0686                	slli	a3,a3,0x1
    4afc:	68c78793          	addi	a5,a5,1676 # 2000268c <Border>
    4b00:	97b6                	add	a5,a5,a3
    4b02:	00e79023          	sh	a4,0(a5)
D:\A_Dual1\Dual-core_Communication_Demo\Dual-core_Communication_Demo\SLAVE\obj/../CODE/TrackGet.c:172
        Border[CENTRE][i]=(EdgeL+EdgeR)>>1;//
    4b06:	84019783          	lh	a5,-1984(gp) # 20000158 <EdgeL>
    4b0a:	873e                	mv	a4,a5
    4b0c:	84219783          	lh	a5,-1982(gp) # 2000015a <EdgeR>
    4b10:	97ba                	add	a5,a5,a4
    4b12:	8785                	srai	a5,a5,0x1
    4b14:	01079713          	slli	a4,a5,0x10
    4b18:	8741                	srai	a4,a4,0x10
    4b1a:	200027b7          	lui	a5,0x20002
    4b1e:	fdc42683          	lw	a3,-36(s0)
    4b22:	03268693          	addi	a3,a3,50
    4b26:	0686                	slli	a3,a3,0x1
    4b28:	68c78793          	addi	a5,a5,1676 # 2000268c <Border>
    4b2c:	97b6                	add	a5,a5,a3
    4b2e:	00e79023          	sh	a4,0(a5)
D:\A_Dual1\Dual-core_Communication_Demo\Dual-core_Communication_Demo\SLAVE\obj/../CODE/TrackGet.c:173
        if(i<High-1)
    4b32:	fdc42703          	lw	a4,-36(s0)
    4b36:	03000793          	li	a5,48
    4b3a:	06e7c863          	blt	a5,a4,4baa <trackBorder_Get+0x3b0>
D:\A_Dual1\Dual-core_Communication_Demo\Dual-core_Communication_Demo\SLAVE\obj/../CODE/TrackGet.c:175
        {
            int16 tmp=Border[CENTRE][i]-Border[CENTRE][i+1];
    4b3e:	200027b7          	lui	a5,0x20002
    4b42:	fdc42703          	lw	a4,-36(s0)
    4b46:	03270713          	addi	a4,a4,50 # 9f0032 <_data_lma+0x9e601a>
    4b4a:	0706                	slli	a4,a4,0x1
    4b4c:	68c78793          	addi	a5,a5,1676 # 2000268c <Border>
    4b50:	97ba                	add	a5,a5,a4
    4b52:	00079783          	lh	a5,0(a5)
    4b56:	01079713          	slli	a4,a5,0x10
    4b5a:	8341                	srli	a4,a4,0x10
    4b5c:	fdc42783          	lw	a5,-36(s0)
    4b60:	00178693          	addi	a3,a5,1
    4b64:	200027b7          	lui	a5,0x20002
    4b68:	03268693          	addi	a3,a3,50
    4b6c:	0686                	slli	a3,a3,0x1
    4b6e:	68c78793          	addi	a5,a5,1676 # 2000268c <Border>
    4b72:	97b6                	add	a5,a5,a3
    4b74:	00079783          	lh	a5,0(a5)
    4b78:	07c2                	slli	a5,a5,0x10
    4b7a:	83c1                	srli	a5,a5,0x10
    4b7c:	40f707b3          	sub	a5,a4,a5
    4b80:	07c2                	slli	a5,a5,0x10
    4b82:	83c1                	srli	a5,a5,0x10
    4b84:	fcf41923          	sh	a5,-46(s0)
D:\A_Dual1\Dual-core_Communication_Demo\Dual-core_Communication_Demo\SLAVE\obj/../CODE/TrackGet.c:176
            if(tmp>22||tmp<-22)
    4b88:	fd241703          	lh	a4,-46(s0)
    4b8c:	47d9                	li	a5,22
    4b8e:	00e7c763          	blt	a5,a4,4b9c <trackBorder_Get+0x3a2>
D:\A_Dual1\Dual-core_Communication_Demo\Dual-core_Communication_Demo\SLAVE\obj/../CODE/TrackGet.c:176 (discriminator 1)
    4b92:	fd241703          	lh	a4,-46(s0)
    4b96:	57a9                	li	a5,-22
    4b98:	00f75963          	bge	a4,a5,4baa <trackBorder_Get+0x3b0>
D:\A_Dual1\Dual-core_Communication_Demo\Dual-core_Communication_Demo\SLAVE\obj/../CODE/TrackGet.c:177
                centre_Delta_Exceed_Cnt++;
    4b9c:	8581c783          	lbu	a5,-1960(gp) # 20000170 <centre_Delta_Exceed_Cnt>
    4ba0:	0785                	addi	a5,a5,1
    4ba2:	0ff7f713          	andi	a4,a5,255
    4ba6:	84e18c23          	sb	a4,-1960(gp) # 20000170 <centre_Delta_Exceed_Cnt>
D:\A_Dual1\Dual-core_Communication_Demo\Dual-core_Communication_Demo\SLAVE\obj/../CODE/TrackGet.c:133 (discriminator 2)
    for(int i=High-1;i>=validLine;i--)//
    4baa:	fdc42783          	lw	a5,-36(s0)
    4bae:	17fd                	addi	a5,a5,-1
    4bb0:	fcf42e23          	sw	a5,-36(s0)
D:\A_Dual1\Dual-core_Communication_Demo\Dual-core_Communication_Demo\SLAVE\obj/../CODE/TrackGet.c:133 (discriminator 1)
    4bb4:	84419783          	lh	a5,-1980(gp) # 2000015c <validLine>
    4bb8:	873e                	mv	a4,a5
    4bba:	fdc42783          	lw	a5,-36(s0)
    4bbe:	dae7d0e3          	bge	a5,a4,495e <trackBorder_Get+0x164>
D:\A_Dual1\Dual-core_Communication_Demo\Dual-core_Communication_Demo\SLAVE\obj/../CODE/TrackGet.c:180
        }
    }
}
    4bc2:	0001                	nop
    4bc4:	50f2                	lw	ra,60(sp)
    4bc6:	5462                	lw	s0,56(sp)
    4bc8:	6121                	addi	sp,sp,64
    4bca:	8082                	ret

00004bcc <is_Straight>:
is_Straight():
D:\A_Dual1\Dual-core_Communication_Demo\Dual-core_Communication_Demo\SLAVE\obj/../CODE/TrackGet.c:185



uint8 is_Straight(uint8 start_Index,uint8 end_Index,uint8 side)//
{
    4bcc:	7179                	addi	sp,sp,-48
    4bce:	d622                	sw	s0,44(sp)
    4bd0:	1800                	addi	s0,sp,48
    4bd2:	87aa                	mv	a5,a0
    4bd4:	86ae                	mv	a3,a1
    4bd6:	8732                	mv	a4,a2
    4bd8:	fcf40fa3          	sb	a5,-33(s0)
    4bdc:	87b6                	mv	a5,a3
    4bde:	fcf40f23          	sb	a5,-34(s0)
    4be2:	87ba                	mv	a5,a4
    4be4:	fcf40ea3          	sb	a5,-35(s0)
D:\A_Dual1\Dual-core_Communication_Demo\Dual-core_Communication_Demo\SLAVE\obj/../CODE/TrackGet.c:186
    int white_Cnt=0;
    4be8:	fe042623          	sw	zero,-20(s0)
D:\A_Dual1\Dual-core_Communication_Demo\Dual-core_Communication_Demo\SLAVE\obj/../CODE/TrackGet.c:187
    if(start_Index==end_Index)
    4bec:	fdf44703          	lbu	a4,-33(s0)
    4bf0:	fde44783          	lbu	a5,-34(s0)
    4bf4:	00f71463          	bne	a4,a5,4bfc <is_Straight+0x30>
D:\A_Dual1\Dual-core_Communication_Demo\Dual-core_Communication_Demo\SLAVE\obj/../CODE/TrackGet.c:188
        return 1;
    4bf8:	4785                	li	a5,1
    4bfa:	aa71                	j	4d96 <is_Straight+0x1ca>
D:\A_Dual1\Dual-core_Communication_Demo\Dual-core_Communication_Demo\SLAVE\obj/../CODE/TrackGet.c:191
    else
    {
        uint8 start=start_Index<end_Index?start_Index:end_Index;
    4bfc:	fdf44603          	lbu	a2,-33(s0)
    4c00:	fde44783          	lbu	a5,-34(s0)
    4c04:	0ff7f693          	andi	a3,a5,255
    4c08:	0ff67713          	andi	a4,a2,255
    4c0c:	00d77363          	bgeu	a4,a3,4c12 <is_Straight+0x46>
    4c10:	87b2                	mv	a5,a2
    4c12:	fef40523          	sb	a5,-22(s0)
D:\A_Dual1\Dual-core_Communication_Demo\Dual-core_Communication_Demo\SLAVE\obj/../CODE/TrackGet.c:192
        uint8 end=start_Index>end_Index?start_Index:end_Index;
    4c16:	fdf44603          	lbu	a2,-33(s0)
    4c1a:	fde44783          	lbu	a5,-34(s0)
    4c1e:	0ff7f693          	andi	a3,a5,255
    4c22:	0ff67713          	andi	a4,a2,255
    4c26:	00e6f363          	bgeu	a3,a4,4c2c <is_Straight+0x60>
    4c2a:	87b2                	mv	a5,a2
    4c2c:	fef404a3          	sb	a5,-23(s0)
D:\A_Dual1\Dual-core_Communication_Demo\Dual-core_Communication_Demo\SLAVE\obj/../CODE/TrackGet.c:193
        int8 delta=Border[side][start]-Border[side][start+1];
    4c30:	fdd44603          	lbu	a2,-35(s0)
    4c34:	fea44703          	lbu	a4,-22(s0)
    4c38:	200027b7          	lui	a5,0x20002
    4c3c:	03200693          	li	a3,50
    4c40:	02d606b3          	mul	a3,a2,a3
    4c44:	9736                	add	a4,a4,a3
    4c46:	0706                	slli	a4,a4,0x1
    4c48:	68c78793          	addi	a5,a5,1676 # 2000268c <Border>
    4c4c:	97ba                	add	a5,a5,a4
    4c4e:	00079783          	lh	a5,0(a5)
    4c52:	0ff7f713          	andi	a4,a5,255
    4c56:	fdd44583          	lbu	a1,-35(s0)
    4c5a:	fea44783          	lbu	a5,-22(s0)
    4c5e:	00178693          	addi	a3,a5,1
    4c62:	200027b7          	lui	a5,0x20002
    4c66:	03200613          	li	a2,50
    4c6a:	02c58633          	mul	a2,a1,a2
    4c6e:	96b2                	add	a3,a3,a2
    4c70:	0686                	slli	a3,a3,0x1
    4c72:	68c78793          	addi	a5,a5,1676 # 2000268c <Border>
    4c76:	97b6                	add	a5,a5,a3
    4c78:	00079783          	lh	a5,0(a5)
    4c7c:	0ff7f793          	andi	a5,a5,255
    4c80:	40f707b3          	sub	a5,a4,a5
    4c84:	0ff7f793          	andi	a5,a5,255
    4c88:	fef40423          	sb	a5,-24(s0)
D:\A_Dual1\Dual-core_Communication_Demo\Dual-core_Communication_Demo\SLAVE\obj/../CODE/TrackGet.c:194
        for(uint8 i=start+1;i<end;i++)
    4c8c:	fea44783          	lbu	a5,-22(s0)
    4c90:	0785                	addi	a5,a5,1
    4c92:	fef405a3          	sb	a5,-21(s0)
    4c96:	a8cd                	j	4d88 <is_Straight+0x1bc>
D:\A_Dual1\Dual-core_Communication_Demo\Dual-core_Communication_Demo\SLAVE\obj/../CODE/TrackGet.c:196
        {
            int8 tmp=Border[side][i]-Border[side][i+1];
    4c98:	fdd44603          	lbu	a2,-35(s0)
    4c9c:	feb44703          	lbu	a4,-21(s0)
    4ca0:	200027b7          	lui	a5,0x20002
    4ca4:	03200693          	li	a3,50
    4ca8:	02d606b3          	mul	a3,a2,a3
    4cac:	9736                	add	a4,a4,a3
    4cae:	0706                	slli	a4,a4,0x1
    4cb0:	68c78793          	addi	a5,a5,1676 # 2000268c <Border>
    4cb4:	97ba                	add	a5,a5,a4
    4cb6:	00079783          	lh	a5,0(a5)
    4cba:	0ff7f713          	andi	a4,a5,255
    4cbe:	fdd44583          	lbu	a1,-35(s0)
    4cc2:	feb44783          	lbu	a5,-21(s0)
    4cc6:	00178693          	addi	a3,a5,1
    4cca:	200027b7          	lui	a5,0x20002
    4cce:	03200613          	li	a2,50
    4cd2:	02c58633          	mul	a2,a1,a2
    4cd6:	96b2                	add	a3,a3,a2
    4cd8:	0686                	slli	a3,a3,0x1
    4cda:	68c78793          	addi	a5,a5,1676 # 2000268c <Border>
    4cde:	97b6                	add	a5,a5,a3
    4ce0:	00079783          	lh	a5,0(a5)
    4ce4:	0ff7f793          	andi	a5,a5,255
    4ce8:	40f707b3          	sub	a5,a4,a5
    4cec:	0ff7f793          	andi	a5,a5,255
    4cf0:	fef403a3          	sb	a5,-25(s0)
D:\A_Dual1\Dual-core_Communication_Demo\Dual-core_Communication_Demo\SLAVE\obj/../CODE/TrackGet.c:197
            if(Border[side][i]==0||Border[side][i]==Width-1)
    4cf4:	fdd44603          	lbu	a2,-35(s0)
    4cf8:	feb44703          	lbu	a4,-21(s0)
    4cfc:	200027b7          	lui	a5,0x20002
    4d00:	03200693          	li	a3,50
    4d04:	02d606b3          	mul	a3,a2,a3
    4d08:	9736                	add	a4,a4,a3
    4d0a:	0706                	slli	a4,a4,0x1
    4d0c:	68c78793          	addi	a5,a5,1676 # 2000268c <Border>
    4d10:	97ba                	add	a5,a5,a4
    4d12:	00079783          	lh	a5,0(a5)
    4d16:	c795                	beqz	a5,4d42 <is_Straight+0x176>
D:\A_Dual1\Dual-core_Communication_Demo\Dual-core_Communication_Demo\SLAVE\obj/../CODE/TrackGet.c:197 (discriminator 1)
    4d18:	fdd44603          	lbu	a2,-35(s0)
    4d1c:	feb44703          	lbu	a4,-21(s0)
    4d20:	200027b7          	lui	a5,0x20002
    4d24:	03200693          	li	a3,50
    4d28:	02d606b3          	mul	a3,a2,a3
    4d2c:	9736                	add	a4,a4,a3
    4d2e:	0706                	slli	a4,a4,0x1
    4d30:	68c78793          	addi	a5,a5,1676 # 2000268c <Border>
    4d34:	97ba                	add	a5,a5,a4
    4d36:	00079703          	lh	a4,0(a5)
    4d3a:	0bb00793          	li	a5,187
    4d3e:	00f71763          	bne	a4,a5,4d4c <is_Straight+0x180>
D:\A_Dual1\Dual-core_Communication_Demo\Dual-core_Communication_Demo\SLAVE\obj/../CODE/TrackGet.c:198
                white_Cnt++;
    4d42:	fec42783          	lw	a5,-20(s0)
    4d46:	0785                	addi	a5,a5,1
    4d48:	fef42623          	sw	a5,-20(s0)
D:\A_Dual1\Dual-core_Communication_Demo\Dual-core_Communication_Demo\SLAVE\obj/../CODE/TrackGet.c:199
            if(white_Cnt>10)
    4d4c:	fec42703          	lw	a4,-20(s0)
    4d50:	47a9                	li	a5,10
    4d52:	00e7d463          	bge	a5,a4,4d5a <is_Straight+0x18e>
D:\A_Dual1\Dual-core_Communication_Demo\Dual-core_Communication_Demo\SLAVE\obj/../CODE/TrackGet.c:200
                return 0;
    4d56:	4781                	li	a5,0
    4d58:	a83d                	j	4d96 <is_Straight+0x1ca>
D:\A_Dual1\Dual-core_Communication_Demo\Dual-core_Communication_Demo\SLAVE\obj/../CODE/TrackGet.c:201
            if(tmp-delta>1||tmp-delta<-1)
    4d5a:	fe740703          	lb	a4,-25(s0)
    4d5e:	fe840783          	lb	a5,-24(s0)
    4d62:	8f1d                	sub	a4,a4,a5
    4d64:	4785                	li	a5,1
    4d66:	00e7ca63          	blt	a5,a4,4d7a <is_Straight+0x1ae>
D:\A_Dual1\Dual-core_Communication_Demo\Dual-core_Communication_Demo\SLAVE\obj/../CODE/TrackGet.c:201 (discriminator 1)
    4d6a:	fe740703          	lb	a4,-25(s0)
    4d6e:	fe840783          	lb	a5,-24(s0)
    4d72:	8f1d                	sub	a4,a4,a5
    4d74:	57fd                	li	a5,-1
    4d76:	00f75463          	bge	a4,a5,4d7e <is_Straight+0x1b2>
D:\A_Dual1\Dual-core_Communication_Demo\Dual-core_Communication_Demo\SLAVE\obj/../CODE/TrackGet.c:202
                return 0;
    4d7a:	4781                	li	a5,0
    4d7c:	a829                	j	4d96 <is_Straight+0x1ca>
D:\A_Dual1\Dual-core_Communication_Demo\Dual-core_Communication_Demo\SLAVE\obj/../CODE/TrackGet.c:194 (discriminator 2)
        for(uint8 i=start+1;i<end;i++)
    4d7e:	feb44783          	lbu	a5,-21(s0)
    4d82:	0785                	addi	a5,a5,1
    4d84:	fef405a3          	sb	a5,-21(s0)
D:\A_Dual1\Dual-core_Communication_Demo\Dual-core_Communication_Demo\SLAVE\obj/../CODE/TrackGet.c:194 (discriminator 1)
    4d88:	feb44703          	lbu	a4,-21(s0)
    4d8c:	fe944783          	lbu	a5,-23(s0)
    4d90:	f0f764e3          	bltu	a4,a5,4c98 <is_Straight+0xcc>
D:\A_Dual1\Dual-core_Communication_Demo\Dual-core_Communication_Demo\SLAVE\obj/../CODE/TrackGet.c:204
        }
        return 1;
    4d94:	4785                	li	a5,1
D:\A_Dual1\Dual-core_Communication_Demo\Dual-core_Communication_Demo\SLAVE\obj/../CODE/TrackGet.c:206
    }
}
    4d96:	853e                	mv	a0,a5
    4d98:	5432                	lw	s0,44(sp)
    4d9a:	6145                	addi	sp,sp,48
    4d9c:	8082                	ret

00004d9e <find_Inflection_C>:
find_Inflection_C():
D:\A_Dual1\Dual-core_Communication_Demo\Dual-core_Communication_Demo\SLAVE\obj/../CODE/TrackGet.c:216
}

int16 inflection_A,inflection_B,inflection_C;//

uint8 find_Inflection_C(int16 start,int16 end,int dir)//
{
    4d9e:	7179                	addi	sp,sp,-48
    4da0:	d622                	sw	s0,44(sp)
    4da2:	1800                	addi	s0,sp,48
    4da4:	87aa                	mv	a5,a0
    4da6:	872e                	mv	a4,a1
    4da8:	fcc42c23          	sw	a2,-40(s0)
    4dac:	fcf41f23          	sh	a5,-34(s0)
    4db0:	87ba                	mv	a5,a4
    4db2:	fcf41e23          	sh	a5,-36(s0)
D:\A_Dual1\Dual-core_Communication_Demo\Dual-core_Communication_Demo\SLAVE\obj/../CODE/TrackGet.c:217
    if(dir==LEFT)
    4db6:	fd842783          	lw	a5,-40(s0)
    4dba:	12079263          	bnez	a5,4ede <find_Inflection_C+0x140>
D:\A_Dual1\Dual-core_Communication_Demo\Dual-core_Communication_Demo\SLAVE\obj/../CODE/TrackGet.c:219
    {
        for(int16 i=start+5;i<=end-3;i++)
    4dbe:	fde45783          	lhu	a5,-34(s0)
    4dc2:	0795                	addi	a5,a5,5
    4dc4:	07c2                	slli	a5,a5,0x10
    4dc6:	83c1                	srli	a5,a5,0x10
    4dc8:	fef41723          	sh	a5,-18(s0)
    4dcc:	a201                	j	4ecc <find_Inflection_C+0x12e>
D:\A_Dual1\Dual-core_Communication_Demo\Dual-core_Communication_Demo\SLAVE\obj/../CODE/TrackGet.c:221
        {
            if((Border[LEFT][i]-Border[LEFT][i+1]>5)
    4dce:	fee41703          	lh	a4,-18(s0)
    4dd2:	200027b7          	lui	a5,0x20002
    4dd6:	0706                	slli	a4,a4,0x1
    4dd8:	68c78793          	addi	a5,a5,1676 # 2000268c <Border>
    4ddc:	97ba                	add	a5,a5,a4
    4dde:	00079783          	lh	a5,0(a5)
    4de2:	86be                	mv	a3,a5
    4de4:	fee41783          	lh	a5,-18(s0)
    4de8:	00178713          	addi	a4,a5,1
    4dec:	200027b7          	lui	a5,0x20002
    4df0:	0706                	slli	a4,a4,0x1
    4df2:	68c78793          	addi	a5,a5,1676 # 2000268c <Border>
    4df6:	97ba                	add	a5,a5,a4
    4df8:	00079783          	lh	a5,0(a5)
    4dfc:	40f68733          	sub	a4,a3,a5
    4e00:	4795                	li	a5,5
    4e02:	0ae7dc63          	bge	a5,a4,4eba <find_Inflection_C+0x11c>
D:\A_Dual1\Dual-core_Communication_Demo\Dual-core_Communication_Demo\SLAVE\obj/../CODE/TrackGet.c:222
            &&(Border[LEFT][i]-Border[LEFT][i+2]>5)
    4e06:	fee41703          	lh	a4,-18(s0)
    4e0a:	200027b7          	lui	a5,0x20002
    4e0e:	0706                	slli	a4,a4,0x1
    4e10:	68c78793          	addi	a5,a5,1676 # 2000268c <Border>
    4e14:	97ba                	add	a5,a5,a4
    4e16:	00079783          	lh	a5,0(a5)
    4e1a:	86be                	mv	a3,a5
    4e1c:	fee41783          	lh	a5,-18(s0)
    4e20:	00278713          	addi	a4,a5,2
    4e24:	200027b7          	lui	a5,0x20002
    4e28:	0706                	slli	a4,a4,0x1
    4e2a:	68c78793          	addi	a5,a5,1676 # 2000268c <Border>
    4e2e:	97ba                	add	a5,a5,a4
    4e30:	00079783          	lh	a5,0(a5)
    4e34:	40f68733          	sub	a4,a3,a5
    4e38:	4795                	li	a5,5
    4e3a:	08e7d063          	bge	a5,a4,4eba <find_Inflection_C+0x11c>
D:\A_Dual1\Dual-core_Communication_Demo\Dual-core_Communication_Demo\SLAVE\obj/../CODE/TrackGet.c:223
            &&(Border[LEFT][i]-Border[LEFT][i+3]>5))
    4e3e:	fee41703          	lh	a4,-18(s0)
    4e42:	200027b7          	lui	a5,0x20002
    4e46:	0706                	slli	a4,a4,0x1
    4e48:	68c78793          	addi	a5,a5,1676 # 2000268c <Border>
    4e4c:	97ba                	add	a5,a5,a4
    4e4e:	00079783          	lh	a5,0(a5)
    4e52:	86be                	mv	a3,a5
    4e54:	fee41783          	lh	a5,-18(s0)
    4e58:	00378713          	addi	a4,a5,3
    4e5c:	200027b7          	lui	a5,0x20002
    4e60:	0706                	slli	a4,a4,0x1
    4e62:	68c78793          	addi	a5,a5,1676 # 2000268c <Border>
    4e66:	97ba                	add	a5,a5,a4
    4e68:	00079783          	lh	a5,0(a5)
    4e6c:	40f68733          	sub	a4,a3,a5
    4e70:	4795                	li	a5,5
    4e72:	04e7d463          	bge	a5,a4,4eba <find_Inflection_C+0x11c>
D:\A_Dual1\Dual-core_Communication_Demo\Dual-core_Communication_Demo\SLAVE\obj/../CODE/TrackGet.c:225
            {
                if(i-start<10&&islost_record[LEFT][i+3]==1)
    4e76:	fee41703          	lh	a4,-18(s0)
    4e7a:	fde41783          	lh	a5,-34(s0)
    4e7e:	8f1d                	sub	a4,a4,a5
    4e80:	47a5                	li	a5,9
    4e82:	02e7c663          	blt	a5,a4,4eae <find_Inflection_C+0x110>
D:\A_Dual1\Dual-core_Communication_Demo\Dual-core_Communication_Demo\SLAVE\obj/../CODE/TrackGet.c:225 (discriminator 1)
    4e86:	fee41783          	lh	a5,-18(s0)
    4e8a:	00378713          	addi	a4,a5,3
    4e8e:	200027b7          	lui	a5,0x20002
    4e92:	7b878793          	addi	a5,a5,1976 # 200027b8 <islost_record>
    4e96:	97ba                	add	a5,a5,a4
    4e98:	0007c703          	lbu	a4,0(a5)
    4e9c:	4785                	li	a5,1
    4e9e:	00f71863          	bne	a4,a5,4eae <find_Inflection_C+0x110>
D:\A_Dual1\Dual-core_Communication_Demo\Dual-core_Communication_Demo\SLAVE\obj/../CODE/TrackGet.c:227
                {
                    inflection_C=i;
    4ea2:	fee45703          	lhu	a4,-18(s0)
    4ea6:	84e19f23          	sh	a4,-1954(gp) # 20000176 <inflection_C>
D:\A_Dual1\Dual-core_Communication_Demo\Dual-core_Communication_Demo\SLAVE\obj/../CODE/TrackGet.c:228
                    return 1;
    4eaa:	4785                	li	a5,1
    4eac:	aa8d                	j	501e <find_Inflection_C+0x280>
D:\A_Dual1\Dual-core_Communication_Demo\Dual-core_Communication_Demo\SLAVE\obj/../CODE/TrackGet.c:232
                }
                else
                {
                    inflection_C=i;
    4eae:	fee45703          	lhu	a4,-18(s0)
    4eb2:	84e19f23          	sh	a4,-1954(gp) # 20000176 <inflection_C>
D:\A_Dual1\Dual-core_Communication_Demo\Dual-core_Communication_Demo\SLAVE\obj/../CODE/TrackGet.c:233
                    return 1;
    4eb6:	4785                	li	a5,1
    4eb8:	a29d                	j	501e <find_Inflection_C+0x280>
D:\A_Dual1\Dual-core_Communication_Demo\Dual-core_Communication_Demo\SLAVE\obj/../CODE/TrackGet.c:219 (discriminator 2)
        for(int16 i=start+5;i<=end-3;i++)
    4eba:	fee41783          	lh	a5,-18(s0)
    4ebe:	07c2                	slli	a5,a5,0x10
    4ec0:	83c1                	srli	a5,a5,0x10
    4ec2:	0785                	addi	a5,a5,1
    4ec4:	07c2                	slli	a5,a5,0x10
    4ec6:	83c1                	srli	a5,a5,0x10
    4ec8:	fef41723          	sh	a5,-18(s0)
D:\A_Dual1\Dual-core_Communication_Demo\Dual-core_Communication_Demo\SLAVE\obj/../CODE/TrackGet.c:219 (discriminator 1)
    4ecc:	fdc41783          	lh	a5,-36(s0)
    4ed0:	ffe78713          	addi	a4,a5,-2
    4ed4:	fee41783          	lh	a5,-18(s0)
    4ed8:	eee7cbe3          	blt	a5,a4,4dce <find_Inflection_C+0x30>
    4edc:	aa25                	j	5014 <find_Inflection_C+0x276>
D:\A_Dual1\Dual-core_Communication_Demo\Dual-core_Communication_Demo\SLAVE\obj/../CODE/TrackGet.c:240
            }
        }
    }
    else
    {
        for(int16 i=start+5;i<=end-3;i++)
    4ede:	fde45783          	lhu	a5,-34(s0)
    4ee2:	0795                	addi	a5,a5,5
    4ee4:	07c2                	slli	a5,a5,0x10
    4ee6:	83c1                	srli	a5,a5,0x10
    4ee8:	fef41623          	sh	a5,-20(s0)
    4eec:	aa21                	j	5004 <find_Inflection_C+0x266>
D:\A_Dual1\Dual-core_Communication_Demo\Dual-core_Communication_Demo\SLAVE\obj/../CODE/TrackGet.c:242
        {
            if((Border[RIGHT][i]-Border[RIGHT][i+1]<-5)
    4eee:	fec41703          	lh	a4,-20(s0)
    4ef2:	200027b7          	lui	a5,0x20002
    4ef6:	06470713          	addi	a4,a4,100
    4efa:	0706                	slli	a4,a4,0x1
    4efc:	68c78793          	addi	a5,a5,1676 # 2000268c <Border>
    4f00:	97ba                	add	a5,a5,a4
    4f02:	00079783          	lh	a5,0(a5)
    4f06:	86be                	mv	a3,a5
    4f08:	fec41783          	lh	a5,-20(s0)
    4f0c:	00178713          	addi	a4,a5,1
    4f10:	200027b7          	lui	a5,0x20002
    4f14:	06470713          	addi	a4,a4,100
    4f18:	0706                	slli	a4,a4,0x1
    4f1a:	68c78793          	addi	a5,a5,1676 # 2000268c <Border>
    4f1e:	97ba                	add	a5,a5,a4
    4f20:	00079783          	lh	a5,0(a5)
    4f24:	40f68733          	sub	a4,a3,a5
    4f28:	57ed                	li	a5,-5
    4f2a:	0cf75463          	bge	a4,a5,4ff2 <find_Inflection_C+0x254>
D:\A_Dual1\Dual-core_Communication_Demo\Dual-core_Communication_Demo\SLAVE\obj/../CODE/TrackGet.c:243
            &&(Border[RIGHT][i]-Border[RIGHT][i+2]<-5)
    4f2e:	fec41703          	lh	a4,-20(s0)
    4f32:	200027b7          	lui	a5,0x20002
    4f36:	06470713          	addi	a4,a4,100
    4f3a:	0706                	slli	a4,a4,0x1
    4f3c:	68c78793          	addi	a5,a5,1676 # 2000268c <Border>
    4f40:	97ba                	add	a5,a5,a4
    4f42:	00079783          	lh	a5,0(a5)
    4f46:	86be                	mv	a3,a5
    4f48:	fec41783          	lh	a5,-20(s0)
    4f4c:	00278713          	addi	a4,a5,2
    4f50:	200027b7          	lui	a5,0x20002
    4f54:	06470713          	addi	a4,a4,100
    4f58:	0706                	slli	a4,a4,0x1
    4f5a:	68c78793          	addi	a5,a5,1676 # 2000268c <Border>
    4f5e:	97ba                	add	a5,a5,a4
    4f60:	00079783          	lh	a5,0(a5)
    4f64:	40f68733          	sub	a4,a3,a5
    4f68:	57ed                	li	a5,-5
    4f6a:	08f75463          	bge	a4,a5,4ff2 <find_Inflection_C+0x254>
D:\A_Dual1\Dual-core_Communication_Demo\Dual-core_Communication_Demo\SLAVE\obj/../CODE/TrackGet.c:244
            &&(Border[RIGHT][i]-Border[RIGHT][i+3]<-5))
    4f6e:	fec41703          	lh	a4,-20(s0)
    4f72:	200027b7          	lui	a5,0x20002
    4f76:	06470713          	addi	a4,a4,100
    4f7a:	0706                	slli	a4,a4,0x1
    4f7c:	68c78793          	addi	a5,a5,1676 # 2000268c <Border>
    4f80:	97ba                	add	a5,a5,a4
    4f82:	00079783          	lh	a5,0(a5)
    4f86:	86be                	mv	a3,a5
    4f88:	fec41783          	lh	a5,-20(s0)
    4f8c:	00378713          	addi	a4,a5,3
    4f90:	200027b7          	lui	a5,0x20002
    4f94:	06470713          	addi	a4,a4,100
    4f98:	0706                	slli	a4,a4,0x1
    4f9a:	68c78793          	addi	a5,a5,1676 # 2000268c <Border>
    4f9e:	97ba                	add	a5,a5,a4
    4fa0:	00079783          	lh	a5,0(a5)
    4fa4:	40f68733          	sub	a4,a3,a5
    4fa8:	57ed                	li	a5,-5
    4faa:	04f75463          	bge	a4,a5,4ff2 <find_Inflection_C+0x254>
D:\A_Dual1\Dual-core_Communication_Demo\Dual-core_Communication_Demo\SLAVE\obj/../CODE/TrackGet.c:246
            {
                if(i-start<10&&islost_record[RIGHT][i+3]==1)
    4fae:	fec41703          	lh	a4,-20(s0)
    4fb2:	fde41783          	lh	a5,-34(s0)
    4fb6:	8f1d                	sub	a4,a4,a5
    4fb8:	47a5                	li	a5,9
    4fba:	02e7c663          	blt	a5,a4,4fe6 <find_Inflection_C+0x248>
D:\A_Dual1\Dual-core_Communication_Demo\Dual-core_Communication_Demo\SLAVE\obj/../CODE/TrackGet.c:246 (discriminator 1)
    4fbe:	fec41783          	lh	a5,-20(s0)
    4fc2:	00378713          	addi	a4,a5,3
    4fc6:	200027b7          	lui	a5,0x20002
    4fca:	7b878793          	addi	a5,a5,1976 # 200027b8 <islost_record>
    4fce:	97ba                	add	a5,a5,a4
    4fd0:	0647c703          	lbu	a4,100(a5)
    4fd4:	4785                	li	a5,1
    4fd6:	00f71863          	bne	a4,a5,4fe6 <find_Inflection_C+0x248>
D:\A_Dual1\Dual-core_Communication_Demo\Dual-core_Communication_Demo\SLAVE\obj/../CODE/TrackGet.c:248
                {
                    inflection_C=i;
    4fda:	fec45703          	lhu	a4,-20(s0)
    4fde:	84e19f23          	sh	a4,-1954(gp) # 20000176 <inflection_C>
D:\A_Dual1\Dual-core_Communication_Demo\Dual-core_Communication_Demo\SLAVE\obj/../CODE/TrackGet.c:249
                    return 1;
    4fe2:	4785                	li	a5,1
    4fe4:	a82d                	j	501e <find_Inflection_C+0x280>
D:\A_Dual1\Dual-core_Communication_Demo\Dual-core_Communication_Demo\SLAVE\obj/../CODE/TrackGet.c:253
                }
                else
                {
                    inflection_C=i;
    4fe6:	fec45703          	lhu	a4,-20(s0)
    4fea:	84e19f23          	sh	a4,-1954(gp) # 20000176 <inflection_C>
D:\A_Dual1\Dual-core_Communication_Demo\Dual-core_Communication_Demo\SLAVE\obj/../CODE/TrackGet.c:254
                    return 1;
    4fee:	4785                	li	a5,1
    4ff0:	a03d                	j	501e <find_Inflection_C+0x280>
D:\A_Dual1\Dual-core_Communication_Demo\Dual-core_Communication_Demo\SLAVE\obj/../CODE/TrackGet.c:240 (discriminator 2)
        for(int16 i=start+5;i<=end-3;i++)
    4ff2:	fec41783          	lh	a5,-20(s0)
    4ff6:	07c2                	slli	a5,a5,0x10
    4ff8:	83c1                	srli	a5,a5,0x10
    4ffa:	0785                	addi	a5,a5,1
    4ffc:	07c2                	slli	a5,a5,0x10
    4ffe:	83c1                	srli	a5,a5,0x10
    5000:	fef41623          	sh	a5,-20(s0)
D:\A_Dual1\Dual-core_Communication_Demo\Dual-core_Communication_Demo\SLAVE\obj/../CODE/TrackGet.c:240 (discriminator 1)
    5004:	fdc41783          	lh	a5,-36(s0)
    5008:	ffe78713          	addi	a4,a5,-2
    500c:	fec41783          	lh	a5,-20(s0)
    5010:	ece7cfe3          	blt	a5,a4,4eee <find_Inflection_C+0x150>
D:\A_Dual1\Dual-core_Communication_Demo\Dual-core_Communication_Demo\SLAVE\obj/../CODE/TrackGet.c:259
                }
            }
        }
    }
    inflection_C=255;
    5014:	0ff00713          	li	a4,255
    5018:	84e19f23          	sh	a4,-1954(gp) # 20000176 <inflection_C>
D:\A_Dual1\Dual-core_Communication_Demo\Dual-core_Communication_Demo\SLAVE\obj/../CODE/TrackGet.c:260
    return 0;
    501c:	4781                	li	a5,0
D:\A_Dual1\Dual-core_Communication_Demo\Dual-core_Communication_Demo\SLAVE\obj/../CODE/TrackGet.c:261
}
    501e:	853e                	mv	a0,a5
    5020:	5432                	lw	s0,44(sp)
    5022:	6145                	addi	sp,sp,48
    5024:	8082                	ret

00005026 <find_Inflection_B>:
find_Inflection_B():
D:\A_Dual1\Dual-core_Communication_Demo\Dual-core_Communication_Demo\SLAVE\obj/../CODE/TrackGet.c:264

uint8 find_Inflection_B(int16 start,int16 end,int dir)//
{
    5026:	7179                	addi	sp,sp,-48
    5028:	d622                	sw	s0,44(sp)
    502a:	1800                	addi	s0,sp,48
    502c:	87aa                	mv	a5,a0
    502e:	872e                	mv	a4,a1
    5030:	fcc42c23          	sw	a2,-40(s0)
    5034:	fcf41f23          	sh	a5,-34(s0)
    5038:	87ba                	mv	a5,a4
    503a:	fcf41e23          	sh	a5,-36(s0)
D:\A_Dual1\Dual-core_Communication_Demo\Dual-core_Communication_Demo\SLAVE\obj/../CODE/TrackGet.c:265
    if(dir==LEFT)
    503e:	fd842783          	lw	a5,-40(s0)
    5042:	e7cd                	bnez	a5,50ec <find_Inflection_B+0xc6>
D:\A_Dual1\Dual-core_Communication_Demo\Dual-core_Communication_Demo\SLAVE\obj/../CODE/TrackGet.c:267
    {
        for(int16 i=end-1;i>=start+1;i--)
    5044:	fdc45783          	lhu	a5,-36(s0)
    5048:	17fd                	addi	a5,a5,-1
    504a:	07c2                	slli	a5,a5,0x10
    504c:	83c1                	srli	a5,a5,0x10
    504e:	fef41723          	sh	a5,-18(s0)
    5052:	a071                	j	50de <find_Inflection_B+0xb8>
D:\A_Dual1\Dual-core_Communication_Demo\Dual-core_Communication_Demo\SLAVE\obj/../CODE/TrackGet.c:271
            if(//(islost_record[LEFT][i-1]==0)
            //&&(islost_record[LEFT][i]==0)
            //&&(islost_record[LEFT][i+1]==0)
            /*&&*/(Border[LEFT][i]-Border[LEFT][i-2]>0)
    5054:	fee41703          	lh	a4,-18(s0)
    5058:	200027b7          	lui	a5,0x20002
    505c:	0706                	slli	a4,a4,0x1
    505e:	68c78793          	addi	a5,a5,1676 # 2000268c <Border>
    5062:	97ba                	add	a5,a5,a4
    5064:	00079783          	lh	a5,0(a5)
    5068:	86be                	mv	a3,a5
    506a:	fee41783          	lh	a5,-18(s0)
    506e:	ffe78713          	addi	a4,a5,-2
    5072:	200027b7          	lui	a5,0x20002
    5076:	0706                	slli	a4,a4,0x1
    5078:	68c78793          	addi	a5,a5,1676 # 2000268c <Border>
    507c:	97ba                	add	a5,a5,a4
    507e:	00079783          	lh	a5,0(a5)
    5082:	40f687b3          	sub	a5,a3,a5
D:\A_Dual1\Dual-core_Communication_Demo\Dual-core_Communication_Demo\SLAVE\obj/../CODE/TrackGet.c:268
            if(//(islost_record[LEFT][i-1]==0)
    5086:	04f05363          	blez	a5,50cc <find_Inflection_B+0xa6>
D:\A_Dual1\Dual-core_Communication_Demo\Dual-core_Communication_Demo\SLAVE\obj/../CODE/TrackGet.c:272
            &&(Border[LEFT][i]-Border[LEFT][i+2]>0))
    508a:	fee41703          	lh	a4,-18(s0)
    508e:	200027b7          	lui	a5,0x20002
    5092:	0706                	slli	a4,a4,0x1
    5094:	68c78793          	addi	a5,a5,1676 # 2000268c <Border>
    5098:	97ba                	add	a5,a5,a4
    509a:	00079783          	lh	a5,0(a5)
    509e:	86be                	mv	a3,a5
    50a0:	fee41783          	lh	a5,-18(s0)
    50a4:	00278713          	addi	a4,a5,2
    50a8:	200027b7          	lui	a5,0x20002
    50ac:	0706                	slli	a4,a4,0x1
    50ae:	68c78793          	addi	a5,a5,1676 # 2000268c <Border>
    50b2:	97ba                	add	a5,a5,a4
    50b4:	00079783          	lh	a5,0(a5)
    50b8:	40f687b3          	sub	a5,a3,a5
    50bc:	00f05863          	blez	a5,50cc <find_Inflection_B+0xa6>
D:\A_Dual1\Dual-core_Communication_Demo\Dual-core_Communication_Demo\SLAVE\obj/../CODE/TrackGet.c:274
            {
                inflection_B=i;
    50c0:	fee45703          	lhu	a4,-18(s0)
    50c4:	84e19e23          	sh	a4,-1956(gp) # 20000174 <inflection_B>
D:\A_Dual1\Dual-core_Communication_Demo\Dual-core_Communication_Demo\SLAVE\obj/../CODE/TrackGet.c:275
                return 1;
    50c8:	4785                	li	a5,1
    50ca:	a0cd                	j	51ac <find_Inflection_B+0x186>
D:\A_Dual1\Dual-core_Communication_Demo\Dual-core_Communication_Demo\SLAVE\obj/../CODE/TrackGet.c:267 (discriminator 2)
        for(int16 i=end-1;i>=start+1;i--)
    50cc:	fee41783          	lh	a5,-18(s0)
    50d0:	07c2                	slli	a5,a5,0x10
    50d2:	83c1                	srli	a5,a5,0x10
    50d4:	17fd                	addi	a5,a5,-1
    50d6:	07c2                	slli	a5,a5,0x10
    50d8:	83c1                	srli	a5,a5,0x10
    50da:	fef41723          	sh	a5,-18(s0)
D:\A_Dual1\Dual-core_Communication_Demo\Dual-core_Communication_Demo\SLAVE\obj/../CODE/TrackGet.c:267 (discriminator 1)
    50de:	fde41703          	lh	a4,-34(s0)
    50e2:	fee41783          	lh	a5,-18(s0)
    50e6:	f6f747e3          	blt	a4,a5,5054 <find_Inflection_B+0x2e>
    50ea:	a865                	j	51a2 <find_Inflection_B+0x17c>
D:\A_Dual1\Dual-core_Communication_Demo\Dual-core_Communication_Demo\SLAVE\obj/../CODE/TrackGet.c:280
            }
    }
    else
    {
        for(int16 i=end-1;i>=start+1;i--)
    50ec:	fdc45783          	lhu	a5,-36(s0)
    50f0:	17fd                	addi	a5,a5,-1
    50f2:	07c2                	slli	a5,a5,0x10
    50f4:	83c1                	srli	a5,a5,0x10
    50f6:	fef41623          	sh	a5,-20(s0)
    50fa:	a871                	j	5196 <find_Inflection_B+0x170>
D:\A_Dual1\Dual-core_Communication_Demo\Dual-core_Communication_Demo\SLAVE\obj/../CODE/TrackGet.c:284
            if(/*(islost_record[RIGHT][i-1]==0)
            &&(islost_record[RIGHT][i]==0)
            &&(islost_record[RIGHT][i+1]==0)
            &&*/(Border[RIGHT][i]-Border[RIGHT][i-2]<0)
    50fc:	fec41703          	lh	a4,-20(s0)
    5100:	200027b7          	lui	a5,0x20002
    5104:	06470713          	addi	a4,a4,100
    5108:	0706                	slli	a4,a4,0x1
    510a:	68c78793          	addi	a5,a5,1676 # 2000268c <Border>
    510e:	97ba                	add	a5,a5,a4
    5110:	00079783          	lh	a5,0(a5)
    5114:	86be                	mv	a3,a5
    5116:	fec41783          	lh	a5,-20(s0)
    511a:	ffe78713          	addi	a4,a5,-2
    511e:	200027b7          	lui	a5,0x20002
    5122:	06470713          	addi	a4,a4,100
    5126:	0706                	slli	a4,a4,0x1
    5128:	68c78793          	addi	a5,a5,1676 # 2000268c <Border>
    512c:	97ba                	add	a5,a5,a4
    512e:	00079783          	lh	a5,0(a5)
    5132:	40f687b3          	sub	a5,a3,a5
D:\A_Dual1\Dual-core_Communication_Demo\Dual-core_Communication_Demo\SLAVE\obj/../CODE/TrackGet.c:281
            if(/*(islost_record[RIGHT][i-1]==0)
    5136:	0407d763          	bgez	a5,5184 <find_Inflection_B+0x15e>
D:\A_Dual1\Dual-core_Communication_Demo\Dual-core_Communication_Demo\SLAVE\obj/../CODE/TrackGet.c:285
            &&(Border[RIGHT][i]-Border[RIGHT][i+2]<0))
    513a:	fec41703          	lh	a4,-20(s0)
    513e:	200027b7          	lui	a5,0x20002
    5142:	06470713          	addi	a4,a4,100
    5146:	0706                	slli	a4,a4,0x1
    5148:	68c78793          	addi	a5,a5,1676 # 2000268c <Border>
    514c:	97ba                	add	a5,a5,a4
    514e:	00079783          	lh	a5,0(a5)
    5152:	86be                	mv	a3,a5
    5154:	fec41783          	lh	a5,-20(s0)
    5158:	00278713          	addi	a4,a5,2
    515c:	200027b7          	lui	a5,0x20002
    5160:	06470713          	addi	a4,a4,100
    5164:	0706                	slli	a4,a4,0x1
    5166:	68c78793          	addi	a5,a5,1676 # 2000268c <Border>
    516a:	97ba                	add	a5,a5,a4
    516c:	00079783          	lh	a5,0(a5)
    5170:	40f687b3          	sub	a5,a3,a5
    5174:	0007d863          	bgez	a5,5184 <find_Inflection_B+0x15e>
D:\A_Dual1\Dual-core_Communication_Demo\Dual-core_Communication_Demo\SLAVE\obj/../CODE/TrackGet.c:287
            {
                inflection_B=i;
    5178:	fec45703          	lhu	a4,-20(s0)
    517c:	84e19e23          	sh	a4,-1956(gp) # 20000174 <inflection_B>
D:\A_Dual1\Dual-core_Communication_Demo\Dual-core_Communication_Demo\SLAVE\obj/../CODE/TrackGet.c:288
                return 1;
    5180:	4785                	li	a5,1
    5182:	a02d                	j	51ac <find_Inflection_B+0x186>
D:\A_Dual1\Dual-core_Communication_Demo\Dual-core_Communication_Demo\SLAVE\obj/../CODE/TrackGet.c:280 (discriminator 2)
        for(int16 i=end-1;i>=start+1;i--)
    5184:	fec41783          	lh	a5,-20(s0)
    5188:	07c2                	slli	a5,a5,0x10
    518a:	83c1                	srli	a5,a5,0x10
    518c:	17fd                	addi	a5,a5,-1
    518e:	07c2                	slli	a5,a5,0x10
    5190:	83c1                	srli	a5,a5,0x10
    5192:	fef41623          	sh	a5,-20(s0)
D:\A_Dual1\Dual-core_Communication_Demo\Dual-core_Communication_Demo\SLAVE\obj/../CODE/TrackGet.c:280 (discriminator 1)
    5196:	fde41703          	lh	a4,-34(s0)
    519a:	fec41783          	lh	a5,-20(s0)
    519e:	f4f74fe3          	blt	a4,a5,50fc <find_Inflection_B+0xd6>
D:\A_Dual1\Dual-core_Communication_Demo\Dual-core_Communication_Demo\SLAVE\obj/../CODE/TrackGet.c:291
            }
    }
    inflection_B=255;
    51a2:	0ff00713          	li	a4,255
    51a6:	84e19e23          	sh	a4,-1956(gp) # 20000174 <inflection_B>
D:\A_Dual1\Dual-core_Communication_Demo\Dual-core_Communication_Demo\SLAVE\obj/../CODE/TrackGet.c:292
    return 0;
    51aa:	4781                	li	a5,0
D:\A_Dual1\Dual-core_Communication_Demo\Dual-core_Communication_Demo\SLAVE\obj/../CODE/TrackGet.c:293
}
    51ac:	853e                	mv	a0,a5
    51ae:	5432                	lw	s0,44(sp)
    51b0:	6145                	addi	sp,sp,48
    51b2:	8082                	ret

000051b4 <find_Inflection_A>:
find_Inflection_A():
D:\A_Dual1\Dual-core_Communication_Demo\Dual-core_Communication_Demo\SLAVE\obj/../CODE/TrackGet.c:296

uint8 find_Inflection_A(int16 start,int16 end,int dir,int sign)//
{
    51b4:	7179                	addi	sp,sp,-48
    51b6:	d622                	sw	s0,44(sp)
    51b8:	1800                	addi	s0,sp,48
    51ba:	87aa                	mv	a5,a0
    51bc:	872e                	mv	a4,a1
    51be:	fcc42c23          	sw	a2,-40(s0)
    51c2:	fcd42a23          	sw	a3,-44(s0)
    51c6:	fcf41f23          	sh	a5,-34(s0)
    51ca:	87ba                	mv	a5,a4
    51cc:	fcf41e23          	sh	a5,-36(s0)
D:\A_Dual1\Dual-core_Communication_Demo\Dual-core_Communication_Demo\SLAVE\obj/../CODE/TrackGet.c:297
    if(dir==LEFT)
    51d0:	fd842783          	lw	a5,-40(s0)
    51d4:	1a079663          	bnez	a5,5380 <find_Inflection_A+0x1cc>
D:\A_Dual1\Dual-core_Communication_Demo\Dual-core_Communication_Demo\SLAVE\obj/../CODE/TrackGet.c:299
    {
        if(sign==0)//A
    51d8:	fd442783          	lw	a5,-44(s0)
    51dc:	e3dd                	bnez	a5,5282 <find_Inflection_A+0xce>
D:\A_Dual1\Dual-core_Communication_Demo\Dual-core_Communication_Demo\SLAVE\obj/../CODE/TrackGet.c:301
        {
            for(int16 i=end-1;i>=start;i--)
    51de:	fdc45783          	lhu	a5,-36(s0)
    51e2:	17fd                	addi	a5,a5,-1
    51e4:	07c2                	slli	a5,a5,0x10
    51e6:	83c1                	srli	a5,a5,0x10
    51e8:	fef41723          	sh	a5,-18(s0)
    51ec:	a061                	j	5274 <find_Inflection_A+0xc0>
D:\A_Dual1\Dual-core_Communication_Demo\Dual-core_Communication_Demo\SLAVE\obj/../CODE/TrackGet.c:302
                if((islost_record[LEFT][i]==0)
    51ee:	fee41703          	lh	a4,-18(s0)
    51f2:	200027b7          	lui	a5,0x20002
    51f6:	7b878793          	addi	a5,a5,1976 # 200027b8 <islost_record>
    51fa:	97ba                	add	a5,a5,a4
    51fc:	0007c783          	lbu	a5,0(a5)
    5200:	e3ad                	bnez	a5,5262 <find_Inflection_A+0xae>
D:\A_Dual1\Dual-core_Communication_Demo\Dual-core_Communication_Demo\SLAVE\obj/../CODE/TrackGet.c:303
                &&(islost_record[LEFT][i-1]==1)
    5202:	fee41783          	lh	a5,-18(s0)
    5206:	fff78713          	addi	a4,a5,-1
    520a:	200027b7          	lui	a5,0x20002
    520e:	7b878793          	addi	a5,a5,1976 # 200027b8 <islost_record>
    5212:	97ba                	add	a5,a5,a4
    5214:	0007c703          	lbu	a4,0(a5)
    5218:	4785                	li	a5,1
    521a:	04f71463          	bne	a4,a5,5262 <find_Inflection_A+0xae>
D:\A_Dual1\Dual-core_Communication_Demo\Dual-core_Communication_Demo\SLAVE\obj/../CODE/TrackGet.c:304
                &&(Border[LEFT][i]-Border[LEFT][i-1]>10))
    521e:	fee41703          	lh	a4,-18(s0)
    5222:	200027b7          	lui	a5,0x20002
    5226:	0706                	slli	a4,a4,0x1
    5228:	68c78793          	addi	a5,a5,1676 # 2000268c <Border>
    522c:	97ba                	add	a5,a5,a4
    522e:	00079783          	lh	a5,0(a5)
    5232:	86be                	mv	a3,a5
    5234:	fee41783          	lh	a5,-18(s0)
    5238:	fff78713          	addi	a4,a5,-1
    523c:	200027b7          	lui	a5,0x20002
    5240:	0706                	slli	a4,a4,0x1
    5242:	68c78793          	addi	a5,a5,1676 # 2000268c <Border>
    5246:	97ba                	add	a5,a5,a4
    5248:	00079783          	lh	a5,0(a5)
    524c:	40f68733          	sub	a4,a3,a5
    5250:	47a9                	li	a5,10
    5252:	00e7d863          	bge	a5,a4,5262 <find_Inflection_A+0xae>
D:\A_Dual1\Dual-core_Communication_Demo\Dual-core_Communication_Demo\SLAVE\obj/../CODE/TrackGet.c:306
                {
                    inflection_A=i;
    5256:	fee45703          	lhu	a4,-18(s0)
    525a:	84e19d23          	sh	a4,-1958(gp) # 20000172 <inflection_A>
D:\A_Dual1\Dual-core_Communication_Demo\Dual-core_Communication_Demo\SLAVE\obj/../CODE/TrackGet.c:307
                    return 1;
    525e:	4785                	li	a5,1
    5260:	a4c1                	j	5520 <find_Inflection_A+0x36c>
D:\A_Dual1\Dual-core_Communication_Demo\Dual-core_Communication_Demo\SLAVE\obj/../CODE/TrackGet.c:301 (discriminator 2)
            for(int16 i=end-1;i>=start;i--)
    5262:	fee41783          	lh	a5,-18(s0)
    5266:	07c2                	slli	a5,a5,0x10
    5268:	83c1                	srli	a5,a5,0x10
    526a:	17fd                	addi	a5,a5,-1
    526c:	07c2                	slli	a5,a5,0x10
    526e:	83c1                	srli	a5,a5,0x10
    5270:	fef41723          	sh	a5,-18(s0)
D:\A_Dual1\Dual-core_Communication_Demo\Dual-core_Communication_Demo\SLAVE\obj/../CODE/TrackGet.c:301 (discriminator 1)
    5274:	fee41703          	lh	a4,-18(s0)
    5278:	fde41783          	lh	a5,-34(s0)
    527c:	f6f759e3          	bge	a4,a5,51ee <find_Inflection_A+0x3a>
    5280:	ac59                	j	5516 <find_Inflection_A+0x362>
D:\A_Dual1\Dual-core_Communication_Demo\Dual-core_Communication_Demo\SLAVE\obj/../CODE/TrackGet.c:310
                }
        }
        else if(sign==1)//A
    5282:	fd442703          	lw	a4,-44(s0)
    5286:	4785                	li	a5,1
    5288:	28f71763          	bne	a4,a5,5516 <find_Inflection_A+0x362>
D:\A_Dual1\Dual-core_Communication_Demo\Dual-core_Communication_Demo\SLAVE\obj/../CODE/TrackGet.c:312
        {
            for(int16 i=end;i>=start+3;i--)
    528c:	fdc45783          	lhu	a5,-36(s0)
    5290:	fef41623          	sh	a5,-20(s0)
    5294:	a8e9                	j	536e <find_Inflection_A+0x1ba>
D:\A_Dual1\Dual-core_Communication_Demo\Dual-core_Communication_Demo\SLAVE\obj/../CODE/TrackGet.c:313
                if((Border[RIGHT][i]-Border[RIGHT][i-1]<0)
    5296:	fec41703          	lh	a4,-20(s0)
    529a:	200027b7          	lui	a5,0x20002
    529e:	06470713          	addi	a4,a4,100
    52a2:	0706                	slli	a4,a4,0x1
    52a4:	68c78793          	addi	a5,a5,1676 # 2000268c <Border>
    52a8:	97ba                	add	a5,a5,a4
    52aa:	00079783          	lh	a5,0(a5)
    52ae:	86be                	mv	a3,a5
    52b0:	fec41783          	lh	a5,-20(s0)
    52b4:	fff78713          	addi	a4,a5,-1
    52b8:	200027b7          	lui	a5,0x20002
    52bc:	06470713          	addi	a4,a4,100
    52c0:	0706                	slli	a4,a4,0x1
    52c2:	68c78793          	addi	a5,a5,1676 # 2000268c <Border>
    52c6:	97ba                	add	a5,a5,a4
    52c8:	00079783          	lh	a5,0(a5)
    52cc:	40f687b3          	sub	a5,a3,a5
    52d0:	0807d663          	bgez	a5,535c <find_Inflection_A+0x1a8>
D:\A_Dual1\Dual-core_Communication_Demo\Dual-core_Communication_Demo\SLAVE\obj/../CODE/TrackGet.c:314
                &&(Border[RIGHT][i]-Border[RIGHT][i-2]<0)
    52d4:	fec41703          	lh	a4,-20(s0)
    52d8:	200027b7          	lui	a5,0x20002
    52dc:	06470713          	addi	a4,a4,100
    52e0:	0706                	slli	a4,a4,0x1
    52e2:	68c78793          	addi	a5,a5,1676 # 2000268c <Border>
    52e6:	97ba                	add	a5,a5,a4
    52e8:	00079783          	lh	a5,0(a5)
    52ec:	86be                	mv	a3,a5
    52ee:	fec41783          	lh	a5,-20(s0)
    52f2:	ffe78713          	addi	a4,a5,-2
    52f6:	200027b7          	lui	a5,0x20002
    52fa:	06470713          	addi	a4,a4,100
    52fe:	0706                	slli	a4,a4,0x1
    5300:	68c78793          	addi	a5,a5,1676 # 2000268c <Border>
    5304:	97ba                	add	a5,a5,a4
    5306:	00079783          	lh	a5,0(a5)
    530a:	40f687b3          	sub	a5,a3,a5
    530e:	0407d763          	bgez	a5,535c <find_Inflection_A+0x1a8>
D:\A_Dual1\Dual-core_Communication_Demo\Dual-core_Communication_Demo\SLAVE\obj/../CODE/TrackGet.c:315
                &&(Border[RIGHT][i]-Border[RIGHT][i-3]<0))
    5312:	fec41703          	lh	a4,-20(s0)
    5316:	200027b7          	lui	a5,0x20002
    531a:	06470713          	addi	a4,a4,100
    531e:	0706                	slli	a4,a4,0x1
    5320:	68c78793          	addi	a5,a5,1676 # 2000268c <Border>
    5324:	97ba                	add	a5,a5,a4
    5326:	00079783          	lh	a5,0(a5)
    532a:	86be                	mv	a3,a5
    532c:	fec41783          	lh	a5,-20(s0)
    5330:	ffd78713          	addi	a4,a5,-3
    5334:	200027b7          	lui	a5,0x20002
    5338:	06470713          	addi	a4,a4,100
    533c:	0706                	slli	a4,a4,0x1
    533e:	68c78793          	addi	a5,a5,1676 # 2000268c <Border>
    5342:	97ba                	add	a5,a5,a4
    5344:	00079783          	lh	a5,0(a5)
    5348:	40f687b3          	sub	a5,a3,a5
    534c:	0007d863          	bgez	a5,535c <find_Inflection_A+0x1a8>
D:\A_Dual1\Dual-core_Communication_Demo\Dual-core_Communication_Demo\SLAVE\obj/../CODE/TrackGet.c:317
                {
                    inflection_A=i;
    5350:	fec45703          	lhu	a4,-20(s0)
    5354:	84e19d23          	sh	a4,-1958(gp) # 20000172 <inflection_A>
D:\A_Dual1\Dual-core_Communication_Demo\Dual-core_Communication_Demo\SLAVE\obj/../CODE/TrackGet.c:318
                    return 1;
    5358:	4785                	li	a5,1
    535a:	a2d9                	j	5520 <find_Inflection_A+0x36c>
D:\A_Dual1\Dual-core_Communication_Demo\Dual-core_Communication_Demo\SLAVE\obj/../CODE/TrackGet.c:312 (discriminator 2)
            for(int16 i=end;i>=start+3;i--)
    535c:	fec41783          	lh	a5,-20(s0)
    5360:	07c2                	slli	a5,a5,0x10
    5362:	83c1                	srli	a5,a5,0x10
    5364:	17fd                	addi	a5,a5,-1
    5366:	07c2                	slli	a5,a5,0x10
    5368:	83c1                	srli	a5,a5,0x10
    536a:	fef41623          	sh	a5,-20(s0)
D:\A_Dual1\Dual-core_Communication_Demo\Dual-core_Communication_Demo\SLAVE\obj/../CODE/TrackGet.c:312 (discriminator 1)
    536e:	fde41783          	lh	a5,-34(s0)
    5372:	00278713          	addi	a4,a5,2
    5376:	fec41783          	lh	a5,-20(s0)
    537a:	f0f74ee3          	blt	a4,a5,5296 <find_Inflection_A+0xe2>
    537e:	aa61                	j	5516 <find_Inflection_A+0x362>
D:\A_Dual1\Dual-core_Communication_Demo\Dual-core_Communication_Demo\SLAVE\obj/../CODE/TrackGet.c:324
                }
        }
    }
    else
    {
        if(sign==0)//A
    5380:	fd442783          	lw	a5,-44(s0)
    5384:	e7dd                	bnez	a5,5432 <find_Inflection_A+0x27e>
D:\A_Dual1\Dual-core_Communication_Demo\Dual-core_Communication_Demo\SLAVE\obj/../CODE/TrackGet.c:326
        {
            for(int16 i=end-1;i>=start;i--)
    5386:	fdc45783          	lhu	a5,-36(s0)
    538a:	17fd                	addi	a5,a5,-1
    538c:	07c2                	slli	a5,a5,0x10
    538e:	83c1                	srli	a5,a5,0x10
    5390:	fef41523          	sh	a5,-22(s0)
    5394:	a841                	j	5424 <find_Inflection_A+0x270>
D:\A_Dual1\Dual-core_Communication_Demo\Dual-core_Communication_Demo\SLAVE\obj/../CODE/TrackGet.c:327
                if((islost_record[RIGHT][i]==0)
    5396:	fea41703          	lh	a4,-22(s0)
    539a:	200027b7          	lui	a5,0x20002
    539e:	7b878793          	addi	a5,a5,1976 # 200027b8 <islost_record>
    53a2:	97ba                	add	a5,a5,a4
    53a4:	0647c783          	lbu	a5,100(a5)
    53a8:	e7ad                	bnez	a5,5412 <find_Inflection_A+0x25e>
D:\A_Dual1\Dual-core_Communication_Demo\Dual-core_Communication_Demo\SLAVE\obj/../CODE/TrackGet.c:328
                &&(islost_record[RIGHT][i-1]==1)
    53aa:	fea41783          	lh	a5,-22(s0)
    53ae:	fff78713          	addi	a4,a5,-1
    53b2:	200027b7          	lui	a5,0x20002
    53b6:	7b878793          	addi	a5,a5,1976 # 200027b8 <islost_record>
    53ba:	97ba                	add	a5,a5,a4
    53bc:	0647c703          	lbu	a4,100(a5)
    53c0:	4785                	li	a5,1
    53c2:	04f71863          	bne	a4,a5,5412 <find_Inflection_A+0x25e>
D:\A_Dual1\Dual-core_Communication_Demo\Dual-core_Communication_Demo\SLAVE\obj/../CODE/TrackGet.c:329
                &&(Border[RIGHT][i]-Border[RIGHT][i-1]<-10))
    53c6:	fea41703          	lh	a4,-22(s0)
    53ca:	200027b7          	lui	a5,0x20002
    53ce:	06470713          	addi	a4,a4,100
    53d2:	0706                	slli	a4,a4,0x1
    53d4:	68c78793          	addi	a5,a5,1676 # 2000268c <Border>
    53d8:	97ba                	add	a5,a5,a4
    53da:	00079783          	lh	a5,0(a5)
    53de:	86be                	mv	a3,a5
    53e0:	fea41783          	lh	a5,-22(s0)
    53e4:	fff78713          	addi	a4,a5,-1
    53e8:	200027b7          	lui	a5,0x20002
    53ec:	06470713          	addi	a4,a4,100
    53f0:	0706                	slli	a4,a4,0x1
    53f2:	68c78793          	addi	a5,a5,1676 # 2000268c <Border>
    53f6:	97ba                	add	a5,a5,a4
    53f8:	00079783          	lh	a5,0(a5)
    53fc:	40f68733          	sub	a4,a3,a5
    5400:	57d9                	li	a5,-10
    5402:	00f75863          	bge	a4,a5,5412 <find_Inflection_A+0x25e>
D:\A_Dual1\Dual-core_Communication_Demo\Dual-core_Communication_Demo\SLAVE\obj/../CODE/TrackGet.c:331
                {
                    inflection_A=i;
    5406:	fea45703          	lhu	a4,-22(s0)
    540a:	84e19d23          	sh	a4,-1958(gp) # 20000172 <inflection_A>
D:\A_Dual1\Dual-core_Communication_Demo\Dual-core_Communication_Demo\SLAVE\obj/../CODE/TrackGet.c:332
                    return 1;
    540e:	4785                	li	a5,1
    5410:	aa01                	j	5520 <find_Inflection_A+0x36c>
D:\A_Dual1\Dual-core_Communication_Demo\Dual-core_Communication_Demo\SLAVE\obj/../CODE/TrackGet.c:326 (discriminator 2)
            for(int16 i=end-1;i>=start;i--)
    5412:	fea41783          	lh	a5,-22(s0)
    5416:	07c2                	slli	a5,a5,0x10
    5418:	83c1                	srli	a5,a5,0x10
    541a:	17fd                	addi	a5,a5,-1
    541c:	07c2                	slli	a5,a5,0x10
    541e:	83c1                	srli	a5,a5,0x10
    5420:	fef41523          	sh	a5,-22(s0)
D:\A_Dual1\Dual-core_Communication_Demo\Dual-core_Communication_Demo\SLAVE\obj/../CODE/TrackGet.c:326 (discriminator 1)
    5424:	fea41703          	lh	a4,-22(s0)
    5428:	fde41783          	lh	a5,-34(s0)
    542c:	f6f755e3          	bge	a4,a5,5396 <find_Inflection_A+0x1e2>
    5430:	a0dd                	j	5516 <find_Inflection_A+0x362>
D:\A_Dual1\Dual-core_Communication_Demo\Dual-core_Communication_Demo\SLAVE\obj/../CODE/TrackGet.c:335
                }
        }
        else if(sign==1)//A
    5432:	fd442703          	lw	a4,-44(s0)
    5436:	4785                	li	a5,1
    5438:	0cf71f63          	bne	a4,a5,5516 <find_Inflection_A+0x362>
D:\A_Dual1\Dual-core_Communication_Demo\Dual-core_Communication_Demo\SLAVE\obj/../CODE/TrackGet.c:337
        {
            for(int16 i=end;i>=start+6;i--)
    543c:	fdc45783          	lhu	a5,-36(s0)
    5440:	fef41423          	sh	a5,-24(s0)
    5444:	a0c9                	j	5506 <find_Inflection_A+0x352>
D:\A_Dual1\Dual-core_Communication_Demo\Dual-core_Communication_Demo\SLAVE\obj/../CODE/TrackGet.c:338
                if((Border[LEFT][i]-Border[LEFT][i-2]>0)
    5446:	fe841703          	lh	a4,-24(s0)
    544a:	200027b7          	lui	a5,0x20002
    544e:	0706                	slli	a4,a4,0x1
    5450:	68c78793          	addi	a5,a5,1676 # 2000268c <Border>
    5454:	97ba                	add	a5,a5,a4
    5456:	00079783          	lh	a5,0(a5)
    545a:	86be                	mv	a3,a5
    545c:	fe841783          	lh	a5,-24(s0)
    5460:	ffe78713          	addi	a4,a5,-2
    5464:	200027b7          	lui	a5,0x20002
    5468:	0706                	slli	a4,a4,0x1
    546a:	68c78793          	addi	a5,a5,1676 # 2000268c <Border>
    546e:	97ba                	add	a5,a5,a4
    5470:	00079783          	lh	a5,0(a5)
    5474:	40f687b3          	sub	a5,a3,a5
    5478:	06f05e63          	blez	a5,54f4 <find_Inflection_A+0x340>
D:\A_Dual1\Dual-core_Communication_Demo\Dual-core_Communication_Demo\SLAVE\obj/../CODE/TrackGet.c:339
                &&(Border[LEFT][i]-Border[LEFT][i-4]>0)
    547c:	fe841703          	lh	a4,-24(s0)
    5480:	200027b7          	lui	a5,0x20002
    5484:	0706                	slli	a4,a4,0x1
    5486:	68c78793          	addi	a5,a5,1676 # 2000268c <Border>
    548a:	97ba                	add	a5,a5,a4
    548c:	00079783          	lh	a5,0(a5)
    5490:	86be                	mv	a3,a5
    5492:	fe841783          	lh	a5,-24(s0)
    5496:	ffc78713          	addi	a4,a5,-4
    549a:	200027b7          	lui	a5,0x20002
    549e:	0706                	slli	a4,a4,0x1
    54a0:	68c78793          	addi	a5,a5,1676 # 2000268c <Border>
    54a4:	97ba                	add	a5,a5,a4
    54a6:	00079783          	lh	a5,0(a5)
    54aa:	40f687b3          	sub	a5,a3,a5
    54ae:	04f05363          	blez	a5,54f4 <find_Inflection_A+0x340>
D:\A_Dual1\Dual-core_Communication_Demo\Dual-core_Communication_Demo\SLAVE\obj/../CODE/TrackGet.c:340
                &&(Border[LEFT][i]-Border[LEFT][i-6]>0))
    54b2:	fe841703          	lh	a4,-24(s0)
    54b6:	200027b7          	lui	a5,0x20002
    54ba:	0706                	slli	a4,a4,0x1
    54bc:	68c78793          	addi	a5,a5,1676 # 2000268c <Border>
    54c0:	97ba                	add	a5,a5,a4
    54c2:	00079783          	lh	a5,0(a5)
    54c6:	86be                	mv	a3,a5
    54c8:	fe841783          	lh	a5,-24(s0)
    54cc:	ffa78713          	addi	a4,a5,-6
    54d0:	200027b7          	lui	a5,0x20002
    54d4:	0706                	slli	a4,a4,0x1
    54d6:	68c78793          	addi	a5,a5,1676 # 2000268c <Border>
    54da:	97ba                	add	a5,a5,a4
    54dc:	00079783          	lh	a5,0(a5)
    54e0:	40f687b3          	sub	a5,a3,a5
    54e4:	00f05863          	blez	a5,54f4 <find_Inflection_A+0x340>
D:\A_Dual1\Dual-core_Communication_Demo\Dual-core_Communication_Demo\SLAVE\obj/../CODE/TrackGet.c:342
                {
                    inflection_A=i;
    54e8:	fe845703          	lhu	a4,-24(s0)
    54ec:	84e19d23          	sh	a4,-1958(gp) # 20000172 <inflection_A>
D:\A_Dual1\Dual-core_Communication_Demo\Dual-core_Communication_Demo\SLAVE\obj/../CODE/TrackGet.c:343
                    return 1;
    54f0:	4785                	li	a5,1
    54f2:	a03d                	j	5520 <find_Inflection_A+0x36c>
D:\A_Dual1\Dual-core_Communication_Demo\Dual-core_Communication_Demo\SLAVE\obj/../CODE/TrackGet.c:337 (discriminator 2)
            for(int16 i=end;i>=start+6;i--)
    54f4:	fe841783          	lh	a5,-24(s0)
    54f8:	07c2                	slli	a5,a5,0x10
    54fa:	83c1                	srli	a5,a5,0x10
    54fc:	17fd                	addi	a5,a5,-1
    54fe:	07c2                	slli	a5,a5,0x10
    5500:	83c1                	srli	a5,a5,0x10
    5502:	fef41423          	sh	a5,-24(s0)
D:\A_Dual1\Dual-core_Communication_Demo\Dual-core_Communication_Demo\SLAVE\obj/../CODE/TrackGet.c:337 (discriminator 1)
    5506:	fde41783          	lh	a5,-34(s0)
    550a:	00578713          	addi	a4,a5,5
    550e:	fe841783          	lh	a5,-24(s0)
    5512:	f2f74ae3          	blt	a4,a5,5446 <find_Inflection_A+0x292>
D:\A_Dual1\Dual-core_Communication_Demo\Dual-core_Communication_Demo\SLAVE\obj/../CODE/TrackGet.c:347
                }
        }
    }
    inflection_A=255;
    5516:	0ff00713          	li	a4,255
    551a:	84e19d23          	sh	a4,-1958(gp) # 20000172 <inflection_A>
D:\A_Dual1\Dual-core_Communication_Demo\Dual-core_Communication_Demo\SLAVE\obj/../CODE/TrackGet.c:348
    return 0;
    551e:	4781                	li	a5,0
D:\A_Dual1\Dual-core_Communication_Demo\Dual-core_Communication_Demo\SLAVE\obj/../CODE/TrackGet.c:349
}
    5520:	853e                	mv	a0,a5
    5522:	5432                	lw	s0,44(sp)
    5524:	6145                	addi	sp,sp,48
    5526:	8082                	ret

00005528 <centre_line_get>:
centre_line_get():
D:\A_Dual1\Dual-core_Communication_Demo\Dual-core_Communication_Demo\SLAVE\obj/../CODE/TrackGet.c:352

int16 centre_line_get()//
{
    5528:	7179                	addi	sp,sp,-48
    552a:	d606                	sw	ra,44(sp)
    552c:	d422                	sw	s0,40(sp)
    552e:	d226                	sw	s1,36(sp)
    5530:	1800                	addi	s0,sp,48
D:\A_Dual1\Dual-core_Communication_Demo\Dual-core_Communication_Demo\SLAVE\obj/../CODE/TrackGet.c:353
    int16 sum_A=0,sum_B=0;
    5532:	fe041723          	sh	zero,-18(s0)
    5536:	fe041623          	sh	zero,-20(s0)
D:\A_Dual1\Dual-core_Communication_Demo\Dual-core_Communication_Demo\SLAVE\obj/../CODE/TrackGet.c:354
    int16 cnt=1;
    553a:	4785                	li	a5,1
    553c:	fef41523          	sh	a5,-22(s0)
D:\A_Dual1\Dual-core_Communication_Demo\Dual-core_Communication_Demo\SLAVE\obj/../CODE/TrackGet.c:355
    float k=1.6;
    5540:	67a5                	lui	a5,0x9
    5542:	7107a783          	lw	a5,1808(a5) # 9710 <_exit+0xec>
    5546:	fcf42e23          	sw	a5,-36(s0)
D:\A_Dual1\Dual-core_Communication_Demo\Dual-core_Communication_Demo\SLAVE\obj/../CODE/TrackGet.c:357

    Border[CENTRE][High-1]=(Border[LEFT][High-1]+Border[RIGHT][High-1])>>1;
    554a:	200027b7          	lui	a5,0x20002
    554e:	68c78793          	addi	a5,a5,1676 # 2000268c <Border>
    5552:	06279783          	lh	a5,98(a5)
    5556:	873e                	mv	a4,a5
    5558:	200027b7          	lui	a5,0x20002
    555c:	68c78793          	addi	a5,a5,1676 # 2000268c <Border>
    5560:	12a79783          	lh	a5,298(a5)
    5564:	97ba                	add	a5,a5,a4
    5566:	8785                	srai	a5,a5,0x1
    5568:	01079713          	slli	a4,a5,0x10
    556c:	8741                	srai	a4,a4,0x10
    556e:	200027b7          	lui	a5,0x20002
    5572:	68c78793          	addi	a5,a5,1676 # 2000268c <Border>
    5576:	0ce79323          	sh	a4,198(a5)
D:\A_Dual1\Dual-core_Communication_Demo\Dual-core_Communication_Demo\SLAVE\obj/../CODE/TrackGet.c:359

    for(int i=High-2;i>=validLine;i--)
    557a:	03000793          	li	a5,48
    557e:	fef42223          	sw	a5,-28(s0)
    5582:	a445                	j	5822 <centre_line_get+0x2fa>
D:\A_Dual1\Dual-core_Communication_Demo\Dual-core_Communication_Demo\SLAVE\obj/../CODE/TrackGet.c:361
    {
        Border[CENTRE][i]=(Border[LEFT][i]+Border[RIGHT][i])>>1;
    5584:	200027b7          	lui	a5,0x20002
    5588:	fe442703          	lw	a4,-28(s0)
    558c:	0706                	slli	a4,a4,0x1
    558e:	68c78793          	addi	a5,a5,1676 # 2000268c <Border>
    5592:	97ba                	add	a5,a5,a4
    5594:	00079783          	lh	a5,0(a5)
    5598:	86be                	mv	a3,a5
    559a:	200027b7          	lui	a5,0x20002
    559e:	fe442703          	lw	a4,-28(s0)
    55a2:	06470713          	addi	a4,a4,100
    55a6:	0706                	slli	a4,a4,0x1
    55a8:	68c78793          	addi	a5,a5,1676 # 2000268c <Border>
    55ac:	97ba                	add	a5,a5,a4
    55ae:	00079783          	lh	a5,0(a5)
    55b2:	97b6                	add	a5,a5,a3
    55b4:	8785                	srai	a5,a5,0x1
    55b6:	01079713          	slli	a4,a5,0x10
    55ba:	8741                	srai	a4,a4,0x10
    55bc:	200027b7          	lui	a5,0x20002
    55c0:	fe442683          	lw	a3,-28(s0)
    55c4:	03268693          	addi	a3,a3,50
    55c8:	0686                	slli	a3,a3,0x1
    55ca:	68c78793          	addi	a5,a5,1676 # 2000268c <Border>
    55ce:	97b6                	add	a5,a5,a3
    55d0:	00e79023          	sh	a4,0(a5)
D:\A_Dual1\Dual-core_Communication_Demo\Dual-core_Communication_Demo\SLAVE\obj/../CODE/TrackGet.c:363

        if(stateRing_Sign==2)
    55d4:	85018703          	lb	a4,-1968(gp) # 20000168 <stateRing_Sign>
    55d8:	4789                	li	a5,2
    55da:	1af71c63          	bne	a4,a5,5792 <centre_line_get+0x26a>
D:\A_Dual1\Dual-core_Communication_Demo\Dual-core_Communication_Demo\SLAVE\obj/../CODE/TrackGet.c:365
        {
            if(directRing_Sign==LEFT&&Border[CENTRE][i]-Border[CENTRE][i+1]>5)
    55de:	80a18783          	lb	a5,-2038(gp) # 20000122 <directRing_Sign>
    55e2:	ebe1                	bnez	a5,56b2 <centre_line_get+0x18a>
D:\A_Dual1\Dual-core_Communication_Demo\Dual-core_Communication_Demo\SLAVE\obj/../CODE/TrackGet.c:365 (discriminator 1)
    55e4:	200027b7          	lui	a5,0x20002
    55e8:	fe442703          	lw	a4,-28(s0)
    55ec:	03270713          	addi	a4,a4,50
    55f0:	0706                	slli	a4,a4,0x1
    55f2:	68c78793          	addi	a5,a5,1676 # 2000268c <Border>
    55f6:	97ba                	add	a5,a5,a4
    55f8:	00079783          	lh	a5,0(a5)
    55fc:	86be                	mv	a3,a5
    55fe:	fe442783          	lw	a5,-28(s0)
    5602:	00178713          	addi	a4,a5,1
    5606:	200027b7          	lui	a5,0x20002
    560a:	03270713          	addi	a4,a4,50
    560e:	0706                	slli	a4,a4,0x1
    5610:	68c78793          	addi	a5,a5,1676 # 2000268c <Border>
    5614:	97ba                	add	a5,a5,a4
    5616:	00079783          	lh	a5,0(a5)
    561a:	40f68733          	sub	a4,a3,a5
    561e:	4795                	li	a5,5
    5620:	08e7d963          	bge	a5,a4,56b2 <centre_line_get+0x18a>
D:\A_Dual1\Dual-core_Communication_Demo\Dual-core_Communication_Demo\SLAVE\obj/../CODE/TrackGet.c:367
            {
                int16 tmp=Border[CENTRE][i+cnt]-k*cnt;
    5624:	fea41703          	lh	a4,-22(s0)
    5628:	fe442783          	lw	a5,-28(s0)
    562c:	973e                	add	a4,a4,a5
    562e:	200027b7          	lui	a5,0x20002
    5632:	03270713          	addi	a4,a4,50
    5636:	0706                	slli	a4,a4,0x1
    5638:	68c78793          	addi	a5,a5,1676 # 2000268c <Border>
    563c:	97ba                	add	a5,a5,a4
    563e:	00079783          	lh	a5,0(a5)
    5642:	853e                	mv	a0,a5
    5644:	405020ef          	jal	ra,8248 <__floatsisf>
    5648:	84aa                	mv	s1,a0
    564a:	fea41783          	lh	a5,-22(s0)
    564e:	853e                	mv	a0,a5
    5650:	3f9020ef          	jal	ra,8248 <__floatsisf>
    5654:	87aa                	mv	a5,a0
    5656:	fdc42583          	lw	a1,-36(s0)
    565a:	853e                	mv	a0,a5
    565c:	572020ef          	jal	ra,7bce <__mulsf3>
    5660:	87aa                	mv	a5,a0
    5662:	85be                	mv	a1,a5
    5664:	8526                	mv	a0,s1
    5666:	7f8020ef          	jal	ra,7e5e <__subsf3>
    566a:	87aa                	mv	a5,a0
    566c:	853e                	mv	a0,a5
    566e:	379020ef          	jal	ra,81e6 <__fixsfsi>
    5672:	87aa                	mv	a5,a0
    5674:	fef41123          	sh	a5,-30(s0)
D:\A_Dual1\Dual-core_Communication_Demo\Dual-core_Communication_Demo\SLAVE\obj/../CODE/TrackGet.c:368
                if(tmp<0)
    5678:	fe241783          	lh	a5,-30(s0)
    567c:	0007d463          	bgez	a5,5684 <centre_line_get+0x15c>
D:\A_Dual1\Dual-core_Communication_Demo\Dual-core_Communication_Demo\SLAVE\obj/../CODE/TrackGet.c:369
                    tmp=0;
    5680:	fe041123          	sh	zero,-30(s0)
D:\A_Dual1\Dual-core_Communication_Demo\Dual-core_Communication_Demo\SLAVE\obj/../CODE/TrackGet.c:370
                Border[CENTRE][i]=tmp;
    5684:	200027b7          	lui	a5,0x20002
    5688:	fe442703          	lw	a4,-28(s0)
    568c:	03270713          	addi	a4,a4,50
    5690:	0706                	slli	a4,a4,0x1
    5692:	68c78793          	addi	a5,a5,1676 # 2000268c <Border>
    5696:	97ba                	add	a5,a5,a4
    5698:	fe245703          	lhu	a4,-30(s0)
    569c:	00e79023          	sh	a4,0(a5)
D:\A_Dual1\Dual-core_Communication_Demo\Dual-core_Communication_Demo\SLAVE\obj/../CODE/TrackGet.c:371
                cnt++;
    56a0:	fea41783          	lh	a5,-22(s0)
    56a4:	07c2                	slli	a5,a5,0x10
    56a6:	83c1                	srli	a5,a5,0x10
    56a8:	0785                	addi	a5,a5,1
    56aa:	07c2                	slli	a5,a5,0x10
    56ac:	83c1                	srli	a5,a5,0x10
    56ae:	fef41523          	sh	a5,-22(s0)
D:\A_Dual1\Dual-core_Communication_Demo\Dual-core_Communication_Demo\SLAVE\obj/../CODE/TrackGet.c:373
            }
            if(directRing_Sign==RIGHT&&Border[CENTRE][i]-Border[CENTRE][i+1]<-5)
    56b2:	80a18703          	lb	a4,-2038(gp) # 20000122 <directRing_Sign>
    56b6:	4789                	li	a5,2
    56b8:	0cf71d63          	bne	a4,a5,5792 <centre_line_get+0x26a>
D:\A_Dual1\Dual-core_Communication_Demo\Dual-core_Communication_Demo\SLAVE\obj/../CODE/TrackGet.c:373 (discriminator 1)
    56bc:	200027b7          	lui	a5,0x20002
    56c0:	fe442703          	lw	a4,-28(s0)
    56c4:	03270713          	addi	a4,a4,50
    56c8:	0706                	slli	a4,a4,0x1
    56ca:	68c78793          	addi	a5,a5,1676 # 2000268c <Border>
    56ce:	97ba                	add	a5,a5,a4
    56d0:	00079783          	lh	a5,0(a5)
    56d4:	86be                	mv	a3,a5
    56d6:	fe442783          	lw	a5,-28(s0)
    56da:	00178713          	addi	a4,a5,1
    56de:	200027b7          	lui	a5,0x20002
    56e2:	03270713          	addi	a4,a4,50
    56e6:	0706                	slli	a4,a4,0x1
    56e8:	68c78793          	addi	a5,a5,1676 # 2000268c <Border>
    56ec:	97ba                	add	a5,a5,a4
    56ee:	00079783          	lh	a5,0(a5)
    56f2:	40f68733          	sub	a4,a3,a5
    56f6:	57ed                	li	a5,-5
    56f8:	08f75d63          	bge	a4,a5,5792 <centre_line_get+0x26a>
D:\A_Dual1\Dual-core_Communication_Demo\Dual-core_Communication_Demo\SLAVE\obj/../CODE/TrackGet.c:375
            {
                int16 tmp=Border[CENTRE][i+cnt]+k*cnt;
    56fc:	fea41703          	lh	a4,-22(s0)
    5700:	fe442783          	lw	a5,-28(s0)
    5704:	973e                	add	a4,a4,a5
    5706:	200027b7          	lui	a5,0x20002
    570a:	03270713          	addi	a4,a4,50
    570e:	0706                	slli	a4,a4,0x1
    5710:	68c78793          	addi	a5,a5,1676 # 2000268c <Border>
    5714:	97ba                	add	a5,a5,a4
    5716:	00079783          	lh	a5,0(a5)
    571a:	853e                	mv	a0,a5
    571c:	32d020ef          	jal	ra,8248 <__floatsisf>
    5720:	84aa                	mv	s1,a0
    5722:	fea41783          	lh	a5,-22(s0)
    5726:	853e                	mv	a0,a5
    5728:	321020ef          	jal	ra,8248 <__floatsisf>
    572c:	87aa                	mv	a5,a0
    572e:	fdc42583          	lw	a1,-36(s0)
    5732:	853e                	mv	a0,a5
    5734:	49a020ef          	jal	ra,7bce <__mulsf3>
    5738:	87aa                	mv	a5,a0
    573a:	85be                	mv	a1,a5
    573c:	8526                	mv	a0,s1
    573e:	014020ef          	jal	ra,7752 <__addsf3>
    5742:	87aa                	mv	a5,a0
    5744:	853e                	mv	a0,a5
    5746:	2a1020ef          	jal	ra,81e6 <__fixsfsi>
    574a:	87aa                	mv	a5,a0
    574c:	fef41023          	sh	a5,-32(s0)
D:\A_Dual1\Dual-core_Communication_Demo\Dual-core_Communication_Demo\SLAVE\obj/../CODE/TrackGet.c:376
                if(tmp>Width-1)
    5750:	fe041703          	lh	a4,-32(s0)
    5754:	0bb00793          	li	a5,187
    5758:	00e7d663          	bge	a5,a4,5764 <centre_line_get+0x23c>
D:\A_Dual1\Dual-core_Communication_Demo\Dual-core_Communication_Demo\SLAVE\obj/../CODE/TrackGet.c:377
                    tmp=Width-1;
    575c:	0bb00793          	li	a5,187
    5760:	fef41023          	sh	a5,-32(s0)
D:\A_Dual1\Dual-core_Communication_Demo\Dual-core_Communication_Demo\SLAVE\obj/../CODE/TrackGet.c:378
                Border[CENTRE][i]=tmp;
    5764:	200027b7          	lui	a5,0x20002
    5768:	fe442703          	lw	a4,-28(s0)
    576c:	03270713          	addi	a4,a4,50
    5770:	0706                	slli	a4,a4,0x1
    5772:	68c78793          	addi	a5,a5,1676 # 2000268c <Border>
    5776:	97ba                	add	a5,a5,a4
    5778:	fe045703          	lhu	a4,-32(s0)
    577c:	00e79023          	sh	a4,0(a5)
D:\A_Dual1\Dual-core_Communication_Demo\Dual-core_Communication_Demo\SLAVE\obj/../CODE/TrackGet.c:379
                cnt++;
    5780:	fea41783          	lh	a5,-22(s0)
    5784:	07c2                	slli	a5,a5,0x10
    5786:	83c1                	srli	a5,a5,0x10
    5788:	0785                	addi	a5,a5,1
    578a:	07c2                	slli	a5,a5,0x10
    578c:	83c1                	srli	a5,a5,0x10
    578e:	fef41523          	sh	a5,-22(s0)
D:\A_Dual1\Dual-core_Communication_Demo\Dual-core_Communication_Demo\SLAVE\obj/../CODE/TrackGet.c:383 (discriminator 2)
            }
        }

        sum_A=sum_A+direct_Weight[High-1-i]*(Border[CENTRE][i]-Width/2);
    5792:	03100713          	li	a4,49
    5796:	fe442783          	lw	a5,-28(s0)
    579a:	8f1d                	sub	a4,a4,a5
    579c:	200007b7          	lui	a5,0x20000
    57a0:	0706                	slli	a4,a4,0x1
    57a2:	05478793          	addi	a5,a5,84 # 20000054 <direct_Weight>
    57a6:	97ba                	add	a5,a5,a4
    57a8:	00079783          	lh	a5,0(a5)
    57ac:	01079713          	slli	a4,a5,0x10
    57b0:	8341                	srli	a4,a4,0x10
    57b2:	200027b7          	lui	a5,0x20002
    57b6:	fe442683          	lw	a3,-28(s0)
    57ba:	03268693          	addi	a3,a3,50
    57be:	0686                	slli	a3,a3,0x1
    57c0:	68c78793          	addi	a5,a5,1676 # 2000268c <Border>
    57c4:	97b6                	add	a5,a5,a3
    57c6:	00079783          	lh	a5,0(a5)
    57ca:	fa278793          	addi	a5,a5,-94
    57ce:	07c2                	slli	a5,a5,0x10
    57d0:	83c1                	srli	a5,a5,0x10
    57d2:	02f707b3          	mul	a5,a4,a5
    57d6:	01079713          	slli	a4,a5,0x10
    57da:	8341                	srli	a4,a4,0x10
    57dc:	fee45783          	lhu	a5,-18(s0)
    57e0:	97ba                	add	a5,a5,a4
    57e2:	07c2                	slli	a5,a5,0x10
    57e4:	83c1                	srli	a5,a5,0x10
    57e6:	fef41723          	sh	a5,-18(s0)
D:\A_Dual1\Dual-core_Communication_Demo\Dual-core_Communication_Demo\SLAVE\obj/../CODE/TrackGet.c:384 (discriminator 2)
        sum_B=sum_B+direct_Weight[High-1-i];
    57ea:	03100713          	li	a4,49
    57ee:	fe442783          	lw	a5,-28(s0)
    57f2:	8f1d                	sub	a4,a4,a5
    57f4:	200007b7          	lui	a5,0x20000
    57f8:	0706                	slli	a4,a4,0x1
    57fa:	05478793          	addi	a5,a5,84 # 20000054 <direct_Weight>
    57fe:	97ba                	add	a5,a5,a4
    5800:	00079783          	lh	a5,0(a5)
    5804:	01079713          	slli	a4,a5,0x10
    5808:	8341                	srli	a4,a4,0x10
    580a:	fec45783          	lhu	a5,-20(s0)
    580e:	97ba                	add	a5,a5,a4
    5810:	07c2                	slli	a5,a5,0x10
    5812:	83c1                	srli	a5,a5,0x10
    5814:	fef41623          	sh	a5,-20(s0)
D:\A_Dual1\Dual-core_Communication_Demo\Dual-core_Communication_Demo\SLAVE\obj/../CODE/TrackGet.c:359 (discriminator 2)
    for(int i=High-2;i>=validLine;i--)
    5818:	fe442783          	lw	a5,-28(s0)
    581c:	17fd                	addi	a5,a5,-1
    581e:	fef42223          	sw	a5,-28(s0)
D:\A_Dual1\Dual-core_Communication_Demo\Dual-core_Communication_Demo\SLAVE\obj/../CODE/TrackGet.c:359 (discriminator 1)
    5822:	84419783          	lh	a5,-1980(gp) # 2000015c <validLine>
    5826:	873e                	mv	a4,a5
    5828:	fe442783          	lw	a5,-28(s0)
    582c:	d4e7dce3          	bge	a5,a4,5584 <centre_line_get+0x5c>
D:\A_Dual1\Dual-core_Communication_Demo\Dual-core_Communication_Demo\SLAVE\obj/../CODE/TrackGet.c:386
    }
    return sum_A/sum_B;
    5830:	fee41703          	lh	a4,-18(s0)
    5834:	fec41783          	lh	a5,-20(s0)
    5838:	02f747b3          	div	a5,a4,a5
    583c:	07c2                	slli	a5,a5,0x10
    583e:	87c1                	srai	a5,a5,0x10
D:\A_Dual1\Dual-core_Communication_Demo\Dual-core_Communication_Demo\SLAVE\obj/../CODE/TrackGet.c:387
}
    5840:	853e                	mv	a0,a5
    5842:	50b2                	lw	ra,44(sp)
    5844:	5422                	lw	s0,40(sp)
    5846:	5492                	lw	s1,36(sp)
    5848:	6145                	addi	sp,sp,48
    584a:	8082                	ret

0000584c <judge_Ring>:
judge_Ring():
D:\A_Dual1\Dual-core_Communication_Demo\Dual-core_Communication_Demo\SLAVE\obj/../CODE/TrackGet.c:390

void judge_Ring()//
{
    584c:	1141                	addi	sp,sp,-16
    584e:	c606                	sw	ra,12(sp)
    5850:	c422                	sw	s0,8(sp)
    5852:	0800                	addi	s0,sp,16
D:\A_Dual1\Dual-core_Communication_Demo\Dual-core_Communication_Demo\SLAVE\obj/../CODE/TrackGet.c:391
    switch(stateRing_Sign)
    5854:	85018783          	lb	a5,-1968(gp) # 20000168 <stateRing_Sign>
    5858:	4715                	li	a4,5
    585a:	1cf76863          	bltu	a4,a5,5a2a <judge_Ring+0x1de>
    585e:	00279713          	slli	a4,a5,0x2
    5862:	67a9                	lui	a5,0xa
    5864:	da478793          	addi	a5,a5,-604 # 9da4 <UARTN+0x10>
    5868:	97ba                	add	a5,a5,a4
    586a:	439c                	lw	a5,0(a5)
    586c:	8782                	jr	a5
D:\A_Dual1\Dual-core_Communication_Demo\Dual-core_Communication_Demo\SLAVE\obj/../CODE/TrackGet.c:394
    {
    case 0://
        if(centre_Delta_Exceed_Cnt>=2)//
    586e:	8581c703          	lbu	a4,-1960(gp) # 20000170 <centre_Delta_Exceed_Cnt>
    5872:	4785                	li	a5,1
    5874:	18e7ff63          	bgeu	a5,a4,5a12 <judge_Ring+0x1c6>
D:\A_Dual1\Dual-core_Communication_Demo\Dual-core_Communication_Demo\SLAVE\obj/../CODE/TrackGet.c:396
        {
            if(is_Straight(High-1, Default_Straight_Judge, LEFT)
    5878:	4601                	li	a2,0
    587a:	45bd                	li	a1,15
    587c:	03100513          	li	a0,49
    5880:	b4cff0ef          	jal	ra,4bcc <is_Straight>
    5884:	87aa                	mv	a5,a0
    5886:	c795                	beqz	a5,58b2 <judge_Ring+0x66>
D:\A_Dual1\Dual-core_Communication_Demo\Dual-core_Communication_Demo\SLAVE\obj/../CODE/TrackGet.c:397
                &&find_Inflection_A(validLine, High-1, RIGHT,0))//
    5888:	84419783          	lh	a5,-1980(gp) # 2000015c <validLine>
    588c:	4681                	li	a3,0
    588e:	4609                	li	a2,2
    5890:	03100593          	li	a1,49
    5894:	853e                	mv	a0,a5
    5896:	91fff0ef          	jal	ra,51b4 <find_Inflection_A>
    589a:	87aa                	mv	a5,a0
    589c:	cb99                	beqz	a5,58b2 <judge_Ring+0x66>
D:\A_Dual1\Dual-core_Communication_Demo\Dual-core_Communication_Demo\SLAVE\obj/../CODE/TrackGet.c:399
            {
                stateRing_Sign=1;
    589e:	4705                	li	a4,1
    58a0:	84e18823          	sb	a4,-1968(gp) # 20000168 <stateRing_Sign>
D:\A_Dual1\Dual-core_Communication_Demo\Dual-core_Communication_Demo\SLAVE\obj/../CODE/TrackGet.c:400
                track=Ring;
    58a4:	470d                	li	a4,3
    58a6:	84e1aa23          	sw	a4,-1964(gp) # 2000016c <track>
D:\A_Dual1\Dual-core_Communication_Demo\Dual-core_Communication_Demo\SLAVE\obj/../CODE/TrackGet.c:401
                directRing_Sign=RIGHT;
    58aa:	4709                	li	a4,2
    58ac:	80e18523          	sb	a4,-2038(gp) # 20000122 <directRing_Sign>
D:\A_Dual1\Dual-core_Communication_Demo\Dual-core_Communication_Demo\SLAVE\obj/../CODE/TrackGet.c:411
                stateRing_Sign=1;
                track=Ring;
                directRing_Sign=LEFT;
            }
        }
        break;
    58b0:	a28d                	j	5a12 <judge_Ring+0x1c6>
D:\A_Dual1\Dual-core_Communication_Demo\Dual-core_Communication_Demo\SLAVE\obj/../CODE/TrackGet.c:403
            else if(is_Straight(High-1, Default_Straight_Judge, RIGHT)
    58b2:	4609                	li	a2,2
    58b4:	45bd                	li	a1,15
    58b6:	03100513          	li	a0,49
    58ba:	b12ff0ef          	jal	ra,4bcc <is_Straight>
    58be:	87aa                	mv	a5,a0
    58c0:	14078963          	beqz	a5,5a12 <judge_Ring+0x1c6>
D:\A_Dual1\Dual-core_Communication_Demo\Dual-core_Communication_Demo\SLAVE\obj/../CODE/TrackGet.c:404
                &&find_Inflection_A(validLine, High-1, LEFT,0))//
    58c4:	84419783          	lh	a5,-1980(gp) # 2000015c <validLine>
    58c8:	4681                	li	a3,0
    58ca:	4601                	li	a2,0
    58cc:	03100593          	li	a1,49
    58d0:	853e                	mv	a0,a5
    58d2:	8e3ff0ef          	jal	ra,51b4 <find_Inflection_A>
    58d6:	87aa                	mv	a5,a0
    58d8:	12078d63          	beqz	a5,5a12 <judge_Ring+0x1c6>
D:\A_Dual1\Dual-core_Communication_Demo\Dual-core_Communication_Demo\SLAVE\obj/../CODE/TrackGet.c:406
                stateRing_Sign=1;
    58dc:	4705                	li	a4,1
    58de:	84e18823          	sb	a4,-1968(gp) # 20000168 <stateRing_Sign>
D:\A_Dual1\Dual-core_Communication_Demo\Dual-core_Communication_Demo\SLAVE\obj/../CODE/TrackGet.c:407
                track=Ring;
    58e2:	470d                	li	a4,3
    58e4:	84e1aa23          	sw	a4,-1964(gp) # 2000016c <track>
D:\A_Dual1\Dual-core_Communication_Demo\Dual-core_Communication_Demo\SLAVE\obj/../CODE/TrackGet.c:408
                directRing_Sign=LEFT;
    58e8:	80018523          	sb	zero,-2038(gp) # 20000122 <directRing_Sign>
D:\A_Dual1\Dual-core_Communication_Demo\Dual-core_Communication_Demo\SLAVE\obj/../CODE/TrackGet.c:411
        break;
    58ec:	a21d                	j	5a12 <judge_Ring+0x1c6>
D:\A_Dual1\Dual-core_Communication_Demo\Dual-core_Communication_Demo\SLAVE\obj/../CODE/TrackGet.c:413
    case 1://1A
        if(find_Inflection_A(validLine, High-1, directRing_Sign,0)==0)
    58ee:	84419703          	lh	a4,-1980(gp) # 2000015c <validLine>
    58f2:	80a18783          	lb	a5,-2038(gp) # 20000122 <directRing_Sign>
    58f6:	4681                	li	a3,0
    58f8:	863e                	mv	a2,a5
    58fa:	03100593          	li	a1,49
    58fe:	853a                	mv	a0,a4
    5900:	8b5ff0ef          	jal	ra,51b4 <find_Inflection_A>
    5904:	87aa                	mv	a5,a0
    5906:	10079863          	bnez	a5,5a16 <judge_Ring+0x1ca>
D:\A_Dual1\Dual-core_Communication_Demo\Dual-core_Communication_Demo\SLAVE\obj/../CODE/TrackGet.c:414
            stateRing_Sign=2;
    590a:	4709                	li	a4,2
    590c:	84e18823          	sb	a4,-1968(gp) # 20000168 <stateRing_Sign>
D:\A_Dual1\Dual-core_Communication_Demo\Dual-core_Communication_Demo\SLAVE\obj/../CODE/TrackGet.c:415
        break;
    5910:	a219                	j	5a16 <judge_Ring+0x1ca>
D:\A_Dual1\Dual-core_Communication_Demo\Dual-core_Communication_Demo\SLAVE\obj/../CODE/TrackGet.c:417
    case 2://2C
        if(find_Inflection_C(validLine, High-1, directRing_Sign)==0)
    5912:	84419703          	lh	a4,-1980(gp) # 2000015c <validLine>
    5916:	80a18783          	lb	a5,-2038(gp) # 20000122 <directRing_Sign>
    591a:	863e                	mv	a2,a5
    591c:	03100593          	li	a1,49
    5920:	853a                	mv	a0,a4
    5922:	c7cff0ef          	jal	ra,4d9e <find_Inflection_C>
    5926:	87aa                	mv	a5,a0
    5928:	0e079963          	bnez	a5,5a1a <judge_Ring+0x1ce>
D:\A_Dual1\Dual-core_Communication_Demo\Dual-core_Communication_Demo\SLAVE\obj/../CODE/TrackGet.c:418
            stateRing_Sign=3;
    592c:	470d                	li	a4,3
    592e:	84e18823          	sb	a4,-1968(gp) # 20000168 <stateRing_Sign>
D:\A_Dual1\Dual-core_Communication_Demo\Dual-core_Communication_Demo\SLAVE\obj/../CODE/TrackGet.c:419
        break;
    5932:	a0e5                	j	5a1a <judge_Ring+0x1ce>
D:\A_Dual1\Dual-core_Communication_Demo\Dual-core_Communication_Demo\SLAVE\obj/../CODE/TrackGet.c:421
    case 3://A
        if(directRing_Sign==LEFT
    5934:	80a18783          	lb	a5,-2038(gp) # 20000122 <directRing_Sign>
    5938:	e39d                	bnez	a5,595e <judge_Ring+0x112>
D:\A_Dual1\Dual-core_Communication_Demo\Dual-core_Communication_Demo\SLAVE\obj/../CODE/TrackGet.c:422
        &&(find_Inflection_A(validLine, High-1, LEFT,1)==1))
    593a:	84419783          	lh	a5,-1980(gp) # 2000015c <validLine>
    593e:	4685                	li	a3,1
    5940:	4601                	li	a2,0
    5942:	03100593          	li	a1,49
    5946:	853e                	mv	a0,a5
    5948:	86dff0ef          	jal	ra,51b4 <find_Inflection_A>
    594c:	87aa                	mv	a5,a0
    594e:	873e                	mv	a4,a5
    5950:	4785                	li	a5,1
    5952:	00f71663          	bne	a4,a5,595e <judge_Ring+0x112>
D:\A_Dual1\Dual-core_Communication_Demo\Dual-core_Communication_Demo\SLAVE\obj/../CODE/TrackGet.c:423
            stateRing_Sign=4;
    5956:	4711                	li	a4,4
    5958:	84e18823          	sb	a4,-1968(gp) # 20000168 <stateRing_Sign>
D:\A_Dual1\Dual-core_Communication_Demo\Dual-core_Communication_Demo\SLAVE\obj/../CODE/TrackGet.c:427
        else if(directRing_Sign==RIGHT
        &&(find_Inflection_A(validLine, High-1, RIGHT,1)==1))
            stateRing_Sign=4;
        break;
    595c:	a0c9                	j	5a1e <judge_Ring+0x1d2>
D:\A_Dual1\Dual-core_Communication_Demo\Dual-core_Communication_Demo\SLAVE\obj/../CODE/TrackGet.c:424
        else if(directRing_Sign==RIGHT
    595e:	80a18703          	lb	a4,-2038(gp) # 20000122 <directRing_Sign>
    5962:	4789                	li	a5,2
    5964:	0af71d63          	bne	a4,a5,5a1e <judge_Ring+0x1d2>
D:\A_Dual1\Dual-core_Communication_Demo\Dual-core_Communication_Demo\SLAVE\obj/../CODE/TrackGet.c:425
        &&(find_Inflection_A(validLine, High-1, RIGHT,1)==1))
    5968:	84419783          	lh	a5,-1980(gp) # 2000015c <validLine>
    596c:	4685                	li	a3,1
    596e:	4609                	li	a2,2
    5970:	03100593          	li	a1,49
    5974:	853e                	mv	a0,a5
    5976:	83fff0ef          	jal	ra,51b4 <find_Inflection_A>
    597a:	87aa                	mv	a5,a0
    597c:	873e                	mv	a4,a5
    597e:	4785                	li	a5,1
    5980:	08f71f63          	bne	a4,a5,5a1e <judge_Ring+0x1d2>
D:\A_Dual1\Dual-core_Communication_Demo\Dual-core_Communication_Demo\SLAVE\obj/../CODE/TrackGet.c:426
            stateRing_Sign=4;
    5984:	4711                	li	a4,4
    5986:	84e18823          	sb	a4,-1968(gp) # 20000168 <stateRing_Sign>
D:\A_Dual1\Dual-core_Communication_Demo\Dual-core_Communication_Demo\SLAVE\obj/../CODE/TrackGet.c:427
        break;
    598a:	a851                	j	5a1e <judge_Ring+0x1d2>
D:\A_Dual1\Dual-core_Communication_Demo\Dual-core_Communication_Demo\SLAVE\obj/../CODE/TrackGet.c:429
    case 4://3C
        if((validLine<20)&&(directRing_Sign==LEFT)&&(find_Inflection_A(validLine, High-1, LEFT, 1)==0))
    598c:	84419703          	lh	a4,-1980(gp) # 2000015c <validLine>
    5990:	47cd                	li	a5,19
    5992:	02e7c463          	blt	a5,a4,59ba <judge_Ring+0x16e>
D:\A_Dual1\Dual-core_Communication_Demo\Dual-core_Communication_Demo\SLAVE\obj/../CODE/TrackGet.c:429 (discriminator 1)
    5996:	80a18783          	lb	a5,-2038(gp) # 20000122 <directRing_Sign>
    599a:	e385                	bnez	a5,59ba <judge_Ring+0x16e>
D:\A_Dual1\Dual-core_Communication_Demo\Dual-core_Communication_Demo\SLAVE\obj/../CODE/TrackGet.c:429 (discriminator 2)
    599c:	84419783          	lh	a5,-1980(gp) # 2000015c <validLine>
    59a0:	4685                	li	a3,1
    59a2:	4601                	li	a2,0
    59a4:	03100593          	li	a1,49
    59a8:	853e                	mv	a0,a5
    59aa:	80bff0ef          	jal	ra,51b4 <find_Inflection_A>
    59ae:	87aa                	mv	a5,a0
    59b0:	e789                	bnez	a5,59ba <judge_Ring+0x16e>
D:\A_Dual1\Dual-core_Communication_Demo\Dual-core_Communication_Demo\SLAVE\obj/../CODE/TrackGet.c:430
            stateRing_Sign=5;
    59b2:	4715                	li	a4,5
    59b4:	84e18823          	sb	a4,-1968(gp) # 20000168 <stateRing_Sign>
D:\A_Dual1\Dual-core_Communication_Demo\Dual-core_Communication_Demo\SLAVE\obj/../CODE/TrackGet.c:433
        else if((validLine<20)&&(directRing_Sign==RIGHT)&&(find_Inflection_A(validLine, High-1, RIGHT, 1)==0))
            stateRing_Sign=5;
        break;
    59b8:	a0ad                	j	5a22 <judge_Ring+0x1d6>
D:\A_Dual1\Dual-core_Communication_Demo\Dual-core_Communication_Demo\SLAVE\obj/../CODE/TrackGet.c:431
        else if((validLine<20)&&(directRing_Sign==RIGHT)&&(find_Inflection_A(validLine, High-1, RIGHT, 1)==0))
    59ba:	84419703          	lh	a4,-1980(gp) # 2000015c <validLine>
    59be:	47cd                	li	a5,19
    59c0:	06e7c163          	blt	a5,a4,5a22 <judge_Ring+0x1d6>
D:\A_Dual1\Dual-core_Communication_Demo\Dual-core_Communication_Demo\SLAVE\obj/../CODE/TrackGet.c:431 (discriminator 1)
    59c4:	80a18703          	lb	a4,-2038(gp) # 20000122 <directRing_Sign>
    59c8:	4789                	li	a5,2
    59ca:	04f71c63          	bne	a4,a5,5a22 <judge_Ring+0x1d6>
D:\A_Dual1\Dual-core_Communication_Demo\Dual-core_Communication_Demo\SLAVE\obj/../CODE/TrackGet.c:431 (discriminator 2)
    59ce:	84419783          	lh	a5,-1980(gp) # 2000015c <validLine>
    59d2:	4685                	li	a3,1
    59d4:	4609                	li	a2,2
    59d6:	03100593          	li	a1,49
    59da:	853e                	mv	a0,a5
    59dc:	fd8ff0ef          	jal	ra,51b4 <find_Inflection_A>
    59e0:	87aa                	mv	a5,a0
    59e2:	e3a1                	bnez	a5,5a22 <judge_Ring+0x1d6>
D:\A_Dual1\Dual-core_Communication_Demo\Dual-core_Communication_Demo\SLAVE\obj/../CODE/TrackGet.c:432
            stateRing_Sign=5;
    59e4:	4715                	li	a4,5
    59e6:	84e18823          	sb	a4,-1968(gp) # 20000168 <stateRing_Sign>
D:\A_Dual1\Dual-core_Communication_Demo\Dual-core_Communication_Demo\SLAVE\obj/../CODE/TrackGet.c:433
        break;
    59ea:	a825                	j	5a22 <judge_Ring+0x1d6>
D:\A_Dual1\Dual-core_Communication_Demo\Dual-core_Communication_Demo\SLAVE\obj/../CODE/TrackGet.c:435
    case 5://4
        if(islost_record[LEFT][40]==0&&islost_record[RIGHT][40]==0)
    59ec:	200027b7          	lui	a5,0x20002
    59f0:	7b878793          	addi	a5,a5,1976 # 200027b8 <islost_record>
    59f4:	0287c783          	lbu	a5,40(a5)
    59f8:	e79d                	bnez	a5,5a26 <judge_Ring+0x1da>
D:\A_Dual1\Dual-core_Communication_Demo\Dual-core_Communication_Demo\SLAVE\obj/../CODE/TrackGet.c:435 (discriminator 1)
    59fa:	200027b7          	lui	a5,0x20002
    59fe:	7b878793          	addi	a5,a5,1976 # 200027b8 <islost_record>
    5a02:	08c7c783          	lbu	a5,140(a5)
    5a06:	e385                	bnez	a5,5a26 <judge_Ring+0x1da>
D:\A_Dual1\Dual-core_Communication_Demo\Dual-core_Communication_Demo\SLAVE\obj/../CODE/TrackGet.c:437
        {
                stateRing_Sign=0;
    5a08:	84018823          	sb	zero,-1968(gp) # 20000168 <stateRing_Sign>
D:\A_Dual1\Dual-core_Communication_Demo\Dual-core_Communication_Demo\SLAVE\obj/../CODE/TrackGet.c:438
                track=Straight;
    5a0c:	8401aa23          	sw	zero,-1964(gp) # 2000016c <track>
D:\A_Dual1\Dual-core_Communication_Demo\Dual-core_Communication_Demo\SLAVE\obj/../CODE/TrackGet.c:440
        }
        break;
    5a10:	a819                	j	5a26 <judge_Ring+0x1da>
D:\A_Dual1\Dual-core_Communication_Demo\Dual-core_Communication_Demo\SLAVE\obj/../CODE/TrackGet.c:411
        break;
    5a12:	0001                	nop
    5a14:	a811                	j	5a28 <judge_Ring+0x1dc>
D:\A_Dual1\Dual-core_Communication_Demo\Dual-core_Communication_Demo\SLAVE\obj/../CODE/TrackGet.c:415
        break;
    5a16:	0001                	nop
    5a18:	a801                	j	5a28 <judge_Ring+0x1dc>
D:\A_Dual1\Dual-core_Communication_Demo\Dual-core_Communication_Demo\SLAVE\obj/../CODE/TrackGet.c:419
        break;
    5a1a:	0001                	nop
    5a1c:	a031                	j	5a28 <judge_Ring+0x1dc>
D:\A_Dual1\Dual-core_Communication_Demo\Dual-core_Communication_Demo\SLAVE\obj/../CODE/TrackGet.c:427
        break;
    5a1e:	0001                	nop
    5a20:	a021                	j	5a28 <judge_Ring+0x1dc>
D:\A_Dual1\Dual-core_Communication_Demo\Dual-core_Communication_Demo\SLAVE\obj/../CODE/TrackGet.c:433
        break;
    5a22:	0001                	nop
    5a24:	a011                	j	5a28 <judge_Ring+0x1dc>
D:\A_Dual1\Dual-core_Communication_Demo\Dual-core_Communication_Demo\SLAVE\obj/../CODE/TrackGet.c:440
        break;
    5a26:	0001                	nop
D:\A_Dual1\Dual-core_Communication_Demo\Dual-core_Communication_Demo\SLAVE\obj/../CODE/TrackGet.c:442
    }
    return;
    5a28:	0001                	nop
    5a2a:	0001                	nop
D:\A_Dual1\Dual-core_Communication_Demo\Dual-core_Communication_Demo\SLAVE\obj/../CODE/TrackGet.c:443
}
    5a2c:	40b2                	lw	ra,12(sp)
    5a2e:	4422                	lw	s0,8(sp)
    5a30:	0141                	addi	sp,sp,16
    5a32:	8082                	ret

00005a34 <repair_Ring>:
repair_Ring():
D:\A_Dual1\Dual-core_Communication_Demo\Dual-core_Communication_Demo\SLAVE\obj/../CODE/TrackGet.c:446

void repair_Ring(uint8 threshold)//
{
    5a34:	711d                	addi	sp,sp,-96
    5a36:	ce86                	sw	ra,92(sp)
    5a38:	cca2                	sw	s0,88(sp)
    5a3a:	caa6                	sw	s1,84(sp)
    5a3c:	c8ca                	sw	s2,80(sp)
    5a3e:	c6ce                	sw	s3,76(sp)
    5a40:	1080                	addi	s0,sp,96
    5a42:	87aa                	mv	a5,a0
    5a44:	faf407a3          	sb	a5,-81(s0)
D:\A_Dual1\Dual-core_Communication_Demo\Dual-core_Communication_Demo\SLAVE\obj/../CODE/TrackGet.c:447
    switch(stateRing_Sign)
    5a48:	85018783          	lb	a5,-1968(gp) # 20000168 <stateRing_Sign>
    5a4c:	4709                	li	a4,2
    5a4e:	28e78b63          	beq	a5,a4,5ce4 <repair_Ring+0x2b0>
    5a52:	4715                	li	a4,5
    5a54:	70e78d63          	beq	a5,a4,616e <repair_Ring+0x73a>
    5a58:	4705                	li	a4,1
    5a5a:	0ee794e3          	bne	a5,a4,6342 <repair_Ring+0x90e>
D:\A_Dual1\Dual-core_Communication_Demo\Dual-core_Communication_Demo\SLAVE\obj/../CODE/TrackGet.c:450
    {
    case 1://1
        if(directRing_Sign==LEFT)//
    5a5e:	80a18783          	lb	a5,-2038(gp) # 20000122 <directRing_Sign>
    5a62:	12079e63          	bnez	a5,5b9e <repair_Ring+0x16a>
D:\A_Dual1\Dual-core_Communication_Demo\Dual-core_Communication_Demo\SLAVE\obj/../CODE/TrackGet.c:452
        {
            int16 i=inflection_A-1;
    5a66:	85a19783          	lh	a5,-1958(gp) # 20000172 <inflection_A>
    5a6a:	07c2                	slli	a5,a5,0x10
    5a6c:	83c1                	srli	a5,a5,0x10
    5a6e:	17fd                	addi	a5,a5,-1
    5a70:	07c2                	slli	a5,a5,0x10
    5a72:	83c1                	srli	a5,a5,0x10
    5a74:	fcf41f23          	sh	a5,-34(s0)
D:\A_Dual1\Dual-core_Communication_Demo\Dual-core_Communication_Demo\SLAVE\obj/../CODE/TrackGet.c:453
            repair_Cnt=1;
    5a78:	4705                	li	a4,1
    5a7a:	84e19923          	sh	a4,-1966(gp) # 2000016a <repair_Cnt>
D:\A_Dual1\Dual-core_Communication_Demo\Dual-core_Communication_Demo\SLAVE\obj/../CODE/TrackGet.c:454
            int16 tmp=Border[LEFT][inflection_A]+0.7*repair_Cnt;
    5a7e:	85a19783          	lh	a5,-1958(gp) # 20000172 <inflection_A>
    5a82:	873e                	mv	a4,a5
    5a84:	200027b7          	lui	a5,0x20002
    5a88:	0706                	slli	a4,a4,0x1
    5a8a:	68c78793          	addi	a5,a5,1676 # 2000268c <Border>
    5a8e:	97ba                	add	a5,a5,a4
    5a90:	00079783          	lh	a5,0(a5)
    5a94:	853e                	mv	a0,a5
    5a96:	44b010ef          	jal	ra,76e0 <__floatsidf>
    5a9a:	892a                	mv	s2,a0
    5a9c:	89ae                	mv	s3,a1
    5a9e:	85219783          	lh	a5,-1966(gp) # 2000016a <repair_Cnt>
    5aa2:	853e                	mv	a0,a5
    5aa4:	43d010ef          	jal	ra,76e0 <__floatsidf>
    5aa8:	67a5                	lui	a5,0x9
    5aaa:	7187a603          	lw	a2,1816(a5) # 9718 <_exit+0xf4>
    5aae:	71c7a683          	lw	a3,1820(a5)
    5ab2:	7d1000ef          	jal	ra,6a82 <__muldf3>
    5ab6:	87aa                	mv	a5,a0
    5ab8:	882e                	mv	a6,a1
    5aba:	863e                	mv	a2,a5
    5abc:	86c2                	mv	a3,a6
    5abe:	854a                	mv	a0,s2
    5ac0:	85ce                	mv	a1,s3
    5ac2:	091000ef          	jal	ra,6352 <__adddf3>
    5ac6:	87aa                	mv	a5,a0
    5ac8:	882e                	mv	a6,a1
    5aca:	853e                	mv	a0,a5
    5acc:	85c2                	mv	a1,a6
    5ace:	3ab010ef          	jal	ra,7678 <__fixdfsi>
    5ad2:	87aa                	mv	a5,a0
    5ad4:	fcf41e23          	sh	a5,-36(s0)
D:\A_Dual1\Dual-core_Communication_Demo\Dual-core_Communication_Demo\SLAVE\obj/../CODE/TrackGet.c:455
            while(i>=0&&tmp>Border[LEFT][i])
    5ad8:	a879                	j	5b76 <repair_Ring+0x142>
D:\A_Dual1\Dual-core_Communication_Demo\Dual-core_Communication_Demo\SLAVE\obj/../CODE/TrackGet.c:457
            {
                Border[LEFT][i]=tmp;
    5ada:	fde41703          	lh	a4,-34(s0)
    5ade:	200027b7          	lui	a5,0x20002
    5ae2:	0706                	slli	a4,a4,0x1
    5ae4:	68c78793          	addi	a5,a5,1676 # 2000268c <Border>
    5ae8:	97ba                	add	a5,a5,a4
    5aea:	fdc45703          	lhu	a4,-36(s0)
    5aee:	00e79023          	sh	a4,0(a5)
D:\A_Dual1\Dual-core_Communication_Demo\Dual-core_Communication_Demo\SLAVE\obj/../CODE/TrackGet.c:458
                repair_Cnt++;
    5af2:	85219783          	lh	a5,-1966(gp) # 2000016a <repair_Cnt>
    5af6:	07c2                	slli	a5,a5,0x10
    5af8:	83c1                	srli	a5,a5,0x10
    5afa:	0785                	addi	a5,a5,1
    5afc:	07c2                	slli	a5,a5,0x10
    5afe:	83c1                	srli	a5,a5,0x10
    5b00:	01079713          	slli	a4,a5,0x10
    5b04:	8741                	srai	a4,a4,0x10
    5b06:	84e19923          	sh	a4,-1966(gp) # 2000016a <repair_Cnt>
D:\A_Dual1\Dual-core_Communication_Demo\Dual-core_Communication_Demo\SLAVE\obj/../CODE/TrackGet.c:459
                i--;
    5b0a:	fde41783          	lh	a5,-34(s0)
    5b0e:	07c2                	slli	a5,a5,0x10
    5b10:	83c1                	srli	a5,a5,0x10
    5b12:	17fd                	addi	a5,a5,-1
    5b14:	07c2                	slli	a5,a5,0x10
    5b16:	83c1                	srli	a5,a5,0x10
    5b18:	fcf41f23          	sh	a5,-34(s0)
D:\A_Dual1\Dual-core_Communication_Demo\Dual-core_Communication_Demo\SLAVE\obj/../CODE/TrackGet.c:460
                tmp=Border[LEFT][inflection_A]+0.7*repair_Cnt;
    5b1c:	85a19783          	lh	a5,-1958(gp) # 20000172 <inflection_A>
    5b20:	873e                	mv	a4,a5
    5b22:	200027b7          	lui	a5,0x20002
    5b26:	0706                	slli	a4,a4,0x1
    5b28:	68c78793          	addi	a5,a5,1676 # 2000268c <Border>
    5b2c:	97ba                	add	a5,a5,a4
    5b2e:	00079783          	lh	a5,0(a5)
    5b32:	853e                	mv	a0,a5
    5b34:	3ad010ef          	jal	ra,76e0 <__floatsidf>
    5b38:	892a                	mv	s2,a0
    5b3a:	89ae                	mv	s3,a1
    5b3c:	85219783          	lh	a5,-1966(gp) # 2000016a <repair_Cnt>
    5b40:	853e                	mv	a0,a5
    5b42:	39f010ef          	jal	ra,76e0 <__floatsidf>
    5b46:	67a5                	lui	a5,0x9
    5b48:	7187a603          	lw	a2,1816(a5) # 9718 <_exit+0xf4>
    5b4c:	71c7a683          	lw	a3,1820(a5)
    5b50:	733000ef          	jal	ra,6a82 <__muldf3>
    5b54:	87aa                	mv	a5,a0
    5b56:	882e                	mv	a6,a1
    5b58:	863e                	mv	a2,a5
    5b5a:	86c2                	mv	a3,a6
    5b5c:	854a                	mv	a0,s2
    5b5e:	85ce                	mv	a1,s3
    5b60:	7f2000ef          	jal	ra,6352 <__adddf3>
    5b64:	87aa                	mv	a5,a0
    5b66:	882e                	mv	a6,a1
    5b68:	853e                	mv	a0,a5
    5b6a:	85c2                	mv	a1,a6
    5b6c:	30d010ef          	jal	ra,7678 <__fixdfsi>
    5b70:	87aa                	mv	a5,a0
    5b72:	fcf41e23          	sh	a5,-36(s0)
D:\A_Dual1\Dual-core_Communication_Demo\Dual-core_Communication_Demo\SLAVE\obj/../CODE/TrackGet.c:455
            while(i>=0&&tmp>Border[LEFT][i])
    5b76:	fde41783          	lh	a5,-34(s0)
    5b7a:	7a07cf63          	bltz	a5,6338 <repair_Ring+0x904>
D:\A_Dual1\Dual-core_Communication_Demo\Dual-core_Communication_Demo\SLAVE\obj/../CODE/TrackGet.c:455 (discriminator 1)
    5b7e:	fde41703          	lh	a4,-34(s0)
    5b82:	200027b7          	lui	a5,0x20002
    5b86:	0706                	slli	a4,a4,0x1
    5b88:	68c78793          	addi	a5,a5,1676 # 2000268c <Border>
    5b8c:	97ba                	add	a5,a5,a4
    5b8e:	00079783          	lh	a5,0(a5)
    5b92:	fdc41703          	lh	a4,-36(s0)
    5b96:	f4e7c2e3          	blt	a5,a4,5ada <repair_Ring+0xa6>
D:\A_Dual1\Dual-core_Communication_Demo\Dual-core_Communication_Demo\SLAVE\obj/../CODE/TrackGet.c:476
                repair_Cnt++;
                i--;
                tmp=Border[RIGHT][inflection_A]-0.6*repair_Cnt;
            }
        }
        break;
    5b9a:	79e0006f          	j	6338 <repair_Ring+0x904>
D:\A_Dual1\Dual-core_Communication_Demo\Dual-core_Communication_Demo\SLAVE\obj/../CODE/TrackGet.c:465
            int16 i=inflection_A-1;
    5b9e:	85a19783          	lh	a5,-1958(gp) # 20000172 <inflection_A>
    5ba2:	07c2                	slli	a5,a5,0x10
    5ba4:	83c1                	srli	a5,a5,0x10
    5ba6:	17fd                	addi	a5,a5,-1
    5ba8:	07c2                	slli	a5,a5,0x10
    5baa:	83c1                	srli	a5,a5,0x10
    5bac:	fcf41d23          	sh	a5,-38(s0)
D:\A_Dual1\Dual-core_Communication_Demo\Dual-core_Communication_Demo\SLAVE\obj/../CODE/TrackGet.c:466
            repair_Cnt=1;
    5bb0:	4705                	li	a4,1
    5bb2:	84e19923          	sh	a4,-1966(gp) # 2000016a <repair_Cnt>
D:\A_Dual1\Dual-core_Communication_Demo\Dual-core_Communication_Demo\SLAVE\obj/../CODE/TrackGet.c:467
            int16 tmp=Border[RIGHT][inflection_A]-0.6*repair_Cnt;
    5bb6:	85a19783          	lh	a5,-1958(gp) # 20000172 <inflection_A>
    5bba:	873e                	mv	a4,a5
    5bbc:	200027b7          	lui	a5,0x20002
    5bc0:	06470713          	addi	a4,a4,100
    5bc4:	0706                	slli	a4,a4,0x1
    5bc6:	68c78793          	addi	a5,a5,1676 # 2000268c <Border>
    5bca:	97ba                	add	a5,a5,a4
    5bcc:	00079783          	lh	a5,0(a5)
    5bd0:	853e                	mv	a0,a5
    5bd2:	30f010ef          	jal	ra,76e0 <__floatsidf>
    5bd6:	892a                	mv	s2,a0
    5bd8:	89ae                	mv	s3,a1
    5bda:	85219783          	lh	a5,-1966(gp) # 2000016a <repair_Cnt>
    5bde:	853e                	mv	a0,a5
    5be0:	301010ef          	jal	ra,76e0 <__floatsidf>
    5be4:	67a5                	lui	a5,0x9
    5be6:	7207a603          	lw	a2,1824(a5) # 9720 <_exit+0xfc>
    5bea:	7247a683          	lw	a3,1828(a5)
    5bee:	695000ef          	jal	ra,6a82 <__muldf3>
    5bf2:	87aa                	mv	a5,a0
    5bf4:	882e                	mv	a6,a1
    5bf6:	863e                	mv	a2,a5
    5bf8:	86c2                	mv	a3,a6
    5bfa:	854a                	mv	a0,s2
    5bfc:	85ce                	mv	a1,s3
    5bfe:	33c010ef          	jal	ra,6f3a <__subdf3>
    5c02:	87aa                	mv	a5,a0
    5c04:	882e                	mv	a6,a1
    5c06:	853e                	mv	a0,a5
    5c08:	85c2                	mv	a1,a6
    5c0a:	26f010ef          	jal	ra,7678 <__fixdfsi>
    5c0e:	87aa                	mv	a5,a0
    5c10:	fcf41c23          	sh	a5,-40(s0)
D:\A_Dual1\Dual-core_Communication_Demo\Dual-core_Communication_Demo\SLAVE\obj/../CODE/TrackGet.c:468
            while(i>=0&&tmp<Border[RIGHT][i])
    5c14:	a05d                	j	5cba <repair_Ring+0x286>
D:\A_Dual1\Dual-core_Communication_Demo\Dual-core_Communication_Demo\SLAVE\obj/../CODE/TrackGet.c:470
                Border[RIGHT][i]=tmp;
    5c16:	fda41703          	lh	a4,-38(s0)
    5c1a:	200027b7          	lui	a5,0x20002
    5c1e:	06470713          	addi	a4,a4,100
    5c22:	0706                	slli	a4,a4,0x1
    5c24:	68c78793          	addi	a5,a5,1676 # 2000268c <Border>
    5c28:	97ba                	add	a5,a5,a4
    5c2a:	fd845703          	lhu	a4,-40(s0)
    5c2e:	00e79023          	sh	a4,0(a5)
D:\A_Dual1\Dual-core_Communication_Demo\Dual-core_Communication_Demo\SLAVE\obj/../CODE/TrackGet.c:471
                repair_Cnt++;
    5c32:	85219783          	lh	a5,-1966(gp) # 2000016a <repair_Cnt>
    5c36:	07c2                	slli	a5,a5,0x10
    5c38:	83c1                	srli	a5,a5,0x10
    5c3a:	0785                	addi	a5,a5,1
    5c3c:	07c2                	slli	a5,a5,0x10
    5c3e:	83c1                	srli	a5,a5,0x10
    5c40:	01079713          	slli	a4,a5,0x10
    5c44:	8741                	srai	a4,a4,0x10
    5c46:	84e19923          	sh	a4,-1966(gp) # 2000016a <repair_Cnt>
D:\A_Dual1\Dual-core_Communication_Demo\Dual-core_Communication_Demo\SLAVE\obj/../CODE/TrackGet.c:472
                i--;
    5c4a:	fda41783          	lh	a5,-38(s0)
    5c4e:	07c2                	slli	a5,a5,0x10
    5c50:	83c1                	srli	a5,a5,0x10
    5c52:	17fd                	addi	a5,a5,-1
    5c54:	07c2                	slli	a5,a5,0x10
    5c56:	83c1                	srli	a5,a5,0x10
    5c58:	fcf41d23          	sh	a5,-38(s0)
D:\A_Dual1\Dual-core_Communication_Demo\Dual-core_Communication_Demo\SLAVE\obj/../CODE/TrackGet.c:473
                tmp=Border[RIGHT][inflection_A]-0.6*repair_Cnt;
    5c5c:	85a19783          	lh	a5,-1958(gp) # 20000172 <inflection_A>
    5c60:	873e                	mv	a4,a5
    5c62:	200027b7          	lui	a5,0x20002
    5c66:	06470713          	addi	a4,a4,100
    5c6a:	0706                	slli	a4,a4,0x1
    5c6c:	68c78793          	addi	a5,a5,1676 # 2000268c <Border>
    5c70:	97ba                	add	a5,a5,a4
    5c72:	00079783          	lh	a5,0(a5)
    5c76:	853e                	mv	a0,a5
    5c78:	269010ef          	jal	ra,76e0 <__floatsidf>
    5c7c:	892a                	mv	s2,a0
    5c7e:	89ae                	mv	s3,a1
    5c80:	85219783          	lh	a5,-1966(gp) # 2000016a <repair_Cnt>
    5c84:	853e                	mv	a0,a5
    5c86:	25b010ef          	jal	ra,76e0 <__floatsidf>
    5c8a:	67a5                	lui	a5,0x9
    5c8c:	7207a603          	lw	a2,1824(a5) # 9720 <_exit+0xfc>
    5c90:	7247a683          	lw	a3,1828(a5)
    5c94:	5ef000ef          	jal	ra,6a82 <__muldf3>
    5c98:	87aa                	mv	a5,a0
    5c9a:	882e                	mv	a6,a1
    5c9c:	863e                	mv	a2,a5
    5c9e:	86c2                	mv	a3,a6
    5ca0:	854a                	mv	a0,s2
    5ca2:	85ce                	mv	a1,s3
    5ca4:	296010ef          	jal	ra,6f3a <__subdf3>
    5ca8:	87aa                	mv	a5,a0
    5caa:	882e                	mv	a6,a1
    5cac:	853e                	mv	a0,a5
    5cae:	85c2                	mv	a1,a6
    5cb0:	1c9010ef          	jal	ra,7678 <__fixdfsi>
    5cb4:	87aa                	mv	a5,a0
    5cb6:	fcf41c23          	sh	a5,-40(s0)
D:\A_Dual1\Dual-core_Communication_Demo\Dual-core_Communication_Demo\SLAVE\obj/../CODE/TrackGet.c:468
            while(i>=0&&tmp<Border[RIGHT][i])
    5cba:	fda41783          	lh	a5,-38(s0)
    5cbe:	6607cd63          	bltz	a5,6338 <repair_Ring+0x904>
D:\A_Dual1\Dual-core_Communication_Demo\Dual-core_Communication_Demo\SLAVE\obj/../CODE/TrackGet.c:468 (discriminator 1)
    5cc2:	fda41703          	lh	a4,-38(s0)
    5cc6:	200027b7          	lui	a5,0x20002
    5cca:	06470713          	addi	a4,a4,100
    5cce:	0706                	slli	a4,a4,0x1
    5cd0:	68c78793          	addi	a5,a5,1676 # 2000268c <Border>
    5cd4:	97ba                	add	a5,a5,a4
    5cd6:	00079783          	lh	a5,0(a5)
    5cda:	fd841703          	lh	a4,-40(s0)
    5cde:	f2f74ce3          	blt	a4,a5,5c16 <repair_Ring+0x1e2>
D:\A_Dual1\Dual-core_Communication_Demo\Dual-core_Communication_Demo\SLAVE\obj/../CODE/TrackGet.c:476
        break;
    5ce2:	ad99                	j	6338 <repair_Ring+0x904>
D:\A_Dual1\Dual-core_Communication_Demo\Dual-core_Communication_Demo\SLAVE\obj/../CODE/TrackGet.c:478
    case 2://2
        if(directRing_Sign==LEFT)//
    5ce4:	80a18783          	lb	a5,-2038(gp) # 20000122 <directRing_Sign>
    5ce8:	24079163          	bnez	a5,5f2a <repair_Ring+0x4f6>
D:\A_Dual1\Dual-core_Communication_Demo\Dual-core_Communication_Demo\SLAVE\obj/../CODE/TrackGet.c:480
        {
            int16 i=inflection_C+1;
    5cec:	85e19783          	lh	a5,-1954(gp) # 20000176 <inflection_C>
    5cf0:	07c2                	slli	a5,a5,0x10
    5cf2:	83c1                	srli	a5,a5,0x10
    5cf4:	0785                	addi	a5,a5,1
    5cf6:	07c2                	slli	a5,a5,0x10
    5cf8:	83c1                	srli	a5,a5,0x10
    5cfa:	fcf41b23          	sh	a5,-42(s0)
D:\A_Dual1\Dual-core_Communication_Demo\Dual-core_Communication_Demo\SLAVE\obj/../CODE/TrackGet.c:481
            repair_Cnt=1;
    5cfe:	4705                	li	a4,1
    5d00:	84e19923          	sh	a4,-1966(gp) # 2000016a <repair_Cnt>
D:\A_Dual1\Dual-core_Communication_Demo\Dual-core_Communication_Demo\SLAVE\obj/../CODE/TrackGet.c:483
            float k;
            k=2.7;//1.8
    5d04:	67a5                	lui	a5,0x9
    5d06:	7287a783          	lw	a5,1832(a5) # 9728 <_exit+0x104>
    5d0a:	faf42c23          	sw	a5,-72(s0)
D:\A_Dual1\Dual-core_Communication_Demo\Dual-core_Communication_Demo\SLAVE\obj/../CODE/TrackGet.c:484
            while(i<High&&Border[LEFT][inflection_C]+k*repair_Cnt<Border[RIGHT][i])//C
    5d0e:	a065                	j	5db6 <repair_Ring+0x382>
D:\A_Dual1\Dual-core_Communication_Demo\Dual-core_Communication_Demo\SLAVE\obj/../CODE/TrackGet.c:486
            {
               int16 tmp=Border[LEFT][inflection_C]+k*repair_Cnt;//
    5d10:	85e19783          	lh	a5,-1954(gp) # 20000176 <inflection_C>
    5d14:	873e                	mv	a4,a5
    5d16:	200027b7          	lui	a5,0x20002
    5d1a:	0706                	slli	a4,a4,0x1
    5d1c:	68c78793          	addi	a5,a5,1676 # 2000268c <Border>
    5d20:	97ba                	add	a5,a5,a4
    5d22:	00079783          	lh	a5,0(a5)
    5d26:	853e                	mv	a0,a5
    5d28:	520020ef          	jal	ra,8248 <__floatsisf>
    5d2c:	84aa                	mv	s1,a0
    5d2e:	85219783          	lh	a5,-1966(gp) # 2000016a <repair_Cnt>
    5d32:	853e                	mv	a0,a5
    5d34:	514020ef          	jal	ra,8248 <__floatsisf>
    5d38:	87aa                	mv	a5,a0
    5d3a:	fb842583          	lw	a1,-72(s0)
    5d3e:	853e                	mv	a0,a5
    5d40:	68f010ef          	jal	ra,7bce <__mulsf3>
    5d44:	87aa                	mv	a5,a0
    5d46:	85be                	mv	a1,a5
    5d48:	8526                	mv	a0,s1
    5d4a:	209010ef          	jal	ra,7752 <__addsf3>
    5d4e:	87aa                	mv	a5,a0
    5d50:	853e                	mv	a0,a5
    5d52:	494020ef          	jal	ra,81e6 <__fixsfsi>
    5d56:	87aa                	mv	a5,a0
    5d58:	fcf41a23          	sh	a5,-44(s0)
D:\A_Dual1\Dual-core_Communication_Demo\Dual-core_Communication_Demo\SLAVE\obj/../CODE/TrackGet.c:487
               if(tmp>Width-1)
    5d5c:	fd441703          	lh	a4,-44(s0)
    5d60:	0bb00793          	li	a5,187
    5d64:	00e7d663          	bge	a5,a4,5d70 <repair_Ring+0x33c>
D:\A_Dual1\Dual-core_Communication_Demo\Dual-core_Communication_Demo\SLAVE\obj/../CODE/TrackGet.c:488
                   tmp=Width-1;
    5d68:	0bb00793          	li	a5,187
    5d6c:	fcf41a23          	sh	a5,-44(s0)
D:\A_Dual1\Dual-core_Communication_Demo\Dual-core_Communication_Demo\SLAVE\obj/../CODE/TrackGet.c:489
               Border[RIGHT][i]=tmp;
    5d70:	fd641703          	lh	a4,-42(s0)
    5d74:	200027b7          	lui	a5,0x20002
    5d78:	06470713          	addi	a4,a4,100
    5d7c:	0706                	slli	a4,a4,0x1
    5d7e:	68c78793          	addi	a5,a5,1676 # 2000268c <Border>
    5d82:	97ba                	add	a5,a5,a4
    5d84:	fd445703          	lhu	a4,-44(s0)
    5d88:	00e79023          	sh	a4,0(a5)
D:\A_Dual1\Dual-core_Communication_Demo\Dual-core_Communication_Demo\SLAVE\obj/../CODE/TrackGet.c:490
               repair_Cnt++;
    5d8c:	85219783          	lh	a5,-1966(gp) # 2000016a <repair_Cnt>
    5d90:	07c2                	slli	a5,a5,0x10
    5d92:	83c1                	srli	a5,a5,0x10
    5d94:	0785                	addi	a5,a5,1
    5d96:	07c2                	slli	a5,a5,0x10
    5d98:	83c1                	srli	a5,a5,0x10
    5d9a:	01079713          	slli	a4,a5,0x10
    5d9e:	8741                	srai	a4,a4,0x10
    5da0:	84e19923          	sh	a4,-1966(gp) # 2000016a <repair_Cnt>
D:\A_Dual1\Dual-core_Communication_Demo\Dual-core_Communication_Demo\SLAVE\obj/../CODE/TrackGet.c:491
               i++;
    5da4:	fd641783          	lh	a5,-42(s0)
    5da8:	07c2                	slli	a5,a5,0x10
    5daa:	83c1                	srli	a5,a5,0x10
    5dac:	0785                	addi	a5,a5,1
    5dae:	07c2                	slli	a5,a5,0x10
    5db0:	83c1                	srli	a5,a5,0x10
    5db2:	fcf41b23          	sh	a5,-42(s0)
D:\A_Dual1\Dual-core_Communication_Demo\Dual-core_Communication_Demo\SLAVE\obj/../CODE/TrackGet.c:484
            while(i<High&&Border[LEFT][inflection_C]+k*repair_Cnt<Border[RIGHT][i])//C
    5db6:	fd641703          	lh	a4,-42(s0)
    5dba:	03100793          	li	a5,49
    5dbe:	06e7ca63          	blt	a5,a4,5e32 <repair_Ring+0x3fe>
D:\A_Dual1\Dual-core_Communication_Demo\Dual-core_Communication_Demo\SLAVE\obj/../CODE/TrackGet.c:484 (discriminator 1)
    5dc2:	85e19783          	lh	a5,-1954(gp) # 20000176 <inflection_C>
    5dc6:	873e                	mv	a4,a5
    5dc8:	200027b7          	lui	a5,0x20002
    5dcc:	0706                	slli	a4,a4,0x1
    5dce:	68c78793          	addi	a5,a5,1676 # 2000268c <Border>
    5dd2:	97ba                	add	a5,a5,a4
    5dd4:	00079783          	lh	a5,0(a5)
    5dd8:	853e                	mv	a0,a5
    5dda:	46e020ef          	jal	ra,8248 <__floatsisf>
    5dde:	84aa                	mv	s1,a0
    5de0:	85219783          	lh	a5,-1966(gp) # 2000016a <repair_Cnt>
    5de4:	853e                	mv	a0,a5
    5de6:	462020ef          	jal	ra,8248 <__floatsisf>
    5dea:	87aa                	mv	a5,a0
    5dec:	fb842583          	lw	a1,-72(s0)
    5df0:	853e                	mv	a0,a5
    5df2:	5dd010ef          	jal	ra,7bce <__mulsf3>
    5df6:	87aa                	mv	a5,a0
    5df8:	85be                	mv	a1,a5
    5dfa:	8526                	mv	a0,s1
    5dfc:	157010ef          	jal	ra,7752 <__addsf3>
    5e00:	87aa                	mv	a5,a0
    5e02:	84be                	mv	s1,a5
    5e04:	fd641703          	lh	a4,-42(s0)
    5e08:	200027b7          	lui	a5,0x20002
    5e0c:	06470713          	addi	a4,a4,100
    5e10:	0706                	slli	a4,a4,0x1
    5e12:	68c78793          	addi	a5,a5,1676 # 2000268c <Border>
    5e16:	97ba                	add	a5,a5,a4
    5e18:	00079783          	lh	a5,0(a5)
    5e1c:	853e                	mv	a0,a5
    5e1e:	42a020ef          	jal	ra,8248 <__floatsisf>
    5e22:	87aa                	mv	a5,a0
    5e24:	85be                	mv	a1,a5
    5e26:	8526                	mv	a0,s1
    5e28:	51b010ef          	jal	ra,7b42 <__lesf2>
    5e2c:	87aa                	mv	a5,a0
    5e2e:	ee07c1e3          	bltz	a5,5d10 <repair_Ring+0x2dc>
D:\A_Dual1\Dual-core_Communication_Demo\Dual-core_Communication_Demo\SLAVE\obj/../CODE/TrackGet.c:494
            }

            if(find_Inflection_B(inflection_C+2, High-1, LEFT)==1)//BB
    5e32:	85e19783          	lh	a5,-1954(gp) # 20000176 <inflection_C>
    5e36:	07c2                	slli	a5,a5,0x10
    5e38:	83c1                	srli	a5,a5,0x10
    5e3a:	0789                	addi	a5,a5,2
    5e3c:	07c2                	slli	a5,a5,0x10
    5e3e:	83c1                	srli	a5,a5,0x10
    5e40:	07c2                	slli	a5,a5,0x10
    5e42:	87c1                	srai	a5,a5,0x10
    5e44:	4601                	li	a2,0
    5e46:	03100593          	li	a1,49
    5e4a:	853e                	mv	a0,a5
    5e4c:	9daff0ef          	jal	ra,5026 <find_Inflection_B>
    5e50:	87aa                	mv	a5,a0
    5e52:	873e                	mv	a4,a5
    5e54:	4785                	li	a5,1
    5e56:	4ef71363          	bne	a4,a5,633c <repair_Ring+0x908>
D:\A_Dual1\Dual-core_Communication_Demo\Dual-core_Communication_Demo\SLAVE\obj/../CODE/TrackGet.c:496
            {
               repair_Cnt=1;
    5e5a:	4705                	li	a4,1
    5e5c:	84e19923          	sh	a4,-1966(gp) # 2000016a <repair_Cnt>
D:\A_Dual1\Dual-core_Communication_Demo\Dual-core_Communication_Demo\SLAVE\obj/../CODE/TrackGet.c:497
               for(i=inflection_B+1;i<High;i++)
    5e60:	85c19783          	lh	a5,-1956(gp) # 20000174 <inflection_B>
    5e64:	07c2                	slli	a5,a5,0x10
    5e66:	83c1                	srli	a5,a5,0x10
    5e68:	0785                	addi	a5,a5,1
    5e6a:	07c2                	slli	a5,a5,0x10
    5e6c:	83c1                	srli	a5,a5,0x10
    5e6e:	fcf41b23          	sh	a5,-42(s0)
    5e72:	a06d                	j	5f1c <repair_Ring+0x4e8>
D:\A_Dual1\Dual-core_Communication_Demo\Dual-core_Communication_Demo\SLAVE\obj/../CODE/TrackGet.c:499
               {
                   int16 tmp=Border[LEFT][inflection_B]-1.2*repair_Cnt;//
    5e74:	85c19783          	lh	a5,-1956(gp) # 20000174 <inflection_B>
    5e78:	873e                	mv	a4,a5
    5e7a:	200027b7          	lui	a5,0x20002
    5e7e:	0706                	slli	a4,a4,0x1
    5e80:	68c78793          	addi	a5,a5,1676 # 2000268c <Border>
    5e84:	97ba                	add	a5,a5,a4
    5e86:	00079783          	lh	a5,0(a5)
    5e8a:	853e                	mv	a0,a5
    5e8c:	055010ef          	jal	ra,76e0 <__floatsidf>
    5e90:	892a                	mv	s2,a0
    5e92:	89ae                	mv	s3,a1
    5e94:	85219783          	lh	a5,-1966(gp) # 2000016a <repair_Cnt>
    5e98:	853e                	mv	a0,a5
    5e9a:	047010ef          	jal	ra,76e0 <__floatsidf>
    5e9e:	67a5                	lui	a5,0x9
    5ea0:	7307a603          	lw	a2,1840(a5) # 9730 <_exit+0x10c>
    5ea4:	7347a683          	lw	a3,1844(a5)
    5ea8:	3db000ef          	jal	ra,6a82 <__muldf3>
    5eac:	87aa                	mv	a5,a0
    5eae:	882e                	mv	a6,a1
    5eb0:	863e                	mv	a2,a5
    5eb2:	86c2                	mv	a3,a6
    5eb4:	854a                	mv	a0,s2
    5eb6:	85ce                	mv	a1,s3
    5eb8:	082010ef          	jal	ra,6f3a <__subdf3>
    5ebc:	87aa                	mv	a5,a0
    5ebe:	882e                	mv	a6,a1
    5ec0:	853e                	mv	a0,a5
    5ec2:	85c2                	mv	a1,a6
    5ec4:	7b4010ef          	jal	ra,7678 <__fixdfsi>
    5ec8:	87aa                	mv	a5,a0
    5eca:	fcf41923          	sh	a5,-46(s0)
D:\A_Dual1\Dual-core_Communication_Demo\Dual-core_Communication_Demo\SLAVE\obj/../CODE/TrackGet.c:500
                   if(tmp<0)
    5ece:	fd241783          	lh	a5,-46(s0)
    5ed2:	0007d463          	bgez	a5,5eda <repair_Ring+0x4a6>
D:\A_Dual1\Dual-core_Communication_Demo\Dual-core_Communication_Demo\SLAVE\obj/../CODE/TrackGet.c:501
                       tmp=0;
    5ed6:	fc041923          	sh	zero,-46(s0)
D:\A_Dual1\Dual-core_Communication_Demo\Dual-core_Communication_Demo\SLAVE\obj/../CODE/TrackGet.c:502 (discriminator 2)
                   Border[LEFT][i]=tmp;
    5eda:	fd641703          	lh	a4,-42(s0)
    5ede:	200027b7          	lui	a5,0x20002
    5ee2:	0706                	slli	a4,a4,0x1
    5ee4:	68c78793          	addi	a5,a5,1676 # 2000268c <Border>
    5ee8:	97ba                	add	a5,a5,a4
    5eea:	fd245703          	lhu	a4,-46(s0)
    5eee:	00e79023          	sh	a4,0(a5)
D:\A_Dual1\Dual-core_Communication_Demo\Dual-core_Communication_Demo\SLAVE\obj/../CODE/TrackGet.c:503 (discriminator 2)
                   repair_Cnt++;
    5ef2:	85219783          	lh	a5,-1966(gp) # 2000016a <repair_Cnt>
    5ef6:	07c2                	slli	a5,a5,0x10
    5ef8:	83c1                	srli	a5,a5,0x10
    5efa:	0785                	addi	a5,a5,1
    5efc:	07c2                	slli	a5,a5,0x10
    5efe:	83c1                	srli	a5,a5,0x10
    5f00:	01079713          	slli	a4,a5,0x10
    5f04:	8741                	srai	a4,a4,0x10
    5f06:	84e19923          	sh	a4,-1966(gp) # 2000016a <repair_Cnt>
D:\A_Dual1\Dual-core_Communication_Demo\Dual-core_Communication_Demo\SLAVE\obj/../CODE/TrackGet.c:497 (discriminator 2)
               for(i=inflection_B+1;i<High;i++)
    5f0a:	fd641783          	lh	a5,-42(s0)
    5f0e:	07c2                	slli	a5,a5,0x10
    5f10:	83c1                	srli	a5,a5,0x10
    5f12:	0785                	addi	a5,a5,1
    5f14:	07c2                	slli	a5,a5,0x10
    5f16:	83c1                	srli	a5,a5,0x10
    5f18:	fcf41b23          	sh	a5,-42(s0)
D:\A_Dual1\Dual-core_Communication_Demo\Dual-core_Communication_Demo\SLAVE\obj/../CODE/TrackGet.c:497 (discriminator 1)
    5f1c:	fd641703          	lh	a4,-42(s0)
    5f20:	03100793          	li	a5,49
    5f24:	f4e7d8e3          	bge	a5,a4,5e74 <repair_Ring+0x440>
D:\A_Dual1\Dual-core_Communication_Demo\Dual-core_Communication_Demo\SLAVE\obj/../CODE/TrackGet.c:538
                   repair_Cnt++;
               }
            }

        }
        break;
    5f28:	a911                	j	633c <repair_Ring+0x908>
D:\A_Dual1\Dual-core_Communication_Demo\Dual-core_Communication_Demo\SLAVE\obj/../CODE/TrackGet.c:509
            int16 i=inflection_C+1;
    5f2a:	85e19783          	lh	a5,-1954(gp) # 20000176 <inflection_C>
    5f2e:	07c2                	slli	a5,a5,0x10
    5f30:	83c1                	srli	a5,a5,0x10
    5f32:	0785                	addi	a5,a5,1
    5f34:	07c2                	slli	a5,a5,0x10
    5f36:	83c1                	srli	a5,a5,0x10
    5f38:	fcf41823          	sh	a5,-48(s0)
D:\A_Dual1\Dual-core_Communication_Demo\Dual-core_Communication_Demo\SLAVE\obj/../CODE/TrackGet.c:510
            repair_Cnt=1;
    5f3c:	4705                	li	a4,1
    5f3e:	84e19923          	sh	a4,-1966(gp) # 2000016a <repair_Cnt>
D:\A_Dual1\Dual-core_Communication_Demo\Dual-core_Communication_Demo\SLAVE\obj/../CODE/TrackGet.c:512
            k=2.7;//2
    5f42:	67a5                	lui	a5,0x9
    5f44:	7287a783          	lw	a5,1832(a5) # 9728 <_exit+0x104>
    5f48:	faf42a23          	sw	a5,-76(s0)
D:\A_Dual1\Dual-core_Communication_Demo\Dual-core_Communication_Demo\SLAVE\obj/../CODE/TrackGet.c:514
            while(i<High&&Border[RIGHT][inflection_C]-k*repair_Cnt>Border[LEFT][i])//C
    5f4c:	a045                	j	5fec <repair_Ring+0x5b8>
D:\A_Dual1\Dual-core_Communication_Demo\Dual-core_Communication_Demo\SLAVE\obj/../CODE/TrackGet.c:516
               int16 tmp=Border[RIGHT][inflection_C]-k*repair_Cnt;//
    5f4e:	85e19783          	lh	a5,-1954(gp) # 20000176 <inflection_C>
    5f52:	873e                	mv	a4,a5
    5f54:	200027b7          	lui	a5,0x20002
    5f58:	06470713          	addi	a4,a4,100
    5f5c:	0706                	slli	a4,a4,0x1
    5f5e:	68c78793          	addi	a5,a5,1676 # 2000268c <Border>
    5f62:	97ba                	add	a5,a5,a4
    5f64:	00079783          	lh	a5,0(a5)
    5f68:	853e                	mv	a0,a5
    5f6a:	2de020ef          	jal	ra,8248 <__floatsisf>
    5f6e:	84aa                	mv	s1,a0
    5f70:	85219783          	lh	a5,-1966(gp) # 2000016a <repair_Cnt>
    5f74:	853e                	mv	a0,a5
    5f76:	2d2020ef          	jal	ra,8248 <__floatsisf>
    5f7a:	87aa                	mv	a5,a0
    5f7c:	fb442583          	lw	a1,-76(s0)
    5f80:	853e                	mv	a0,a5
    5f82:	44d010ef          	jal	ra,7bce <__mulsf3>
    5f86:	87aa                	mv	a5,a0
    5f88:	85be                	mv	a1,a5
    5f8a:	8526                	mv	a0,s1
    5f8c:	6d3010ef          	jal	ra,7e5e <__subsf3>
    5f90:	87aa                	mv	a5,a0
    5f92:	853e                	mv	a0,a5
    5f94:	252020ef          	jal	ra,81e6 <__fixsfsi>
    5f98:	87aa                	mv	a5,a0
    5f9a:	fcf41723          	sh	a5,-50(s0)
D:\A_Dual1\Dual-core_Communication_Demo\Dual-core_Communication_Demo\SLAVE\obj/../CODE/TrackGet.c:517
               if(tmp<0)
    5f9e:	fce41783          	lh	a5,-50(s0)
    5fa2:	0007d463          	bgez	a5,5faa <repair_Ring+0x576>
D:\A_Dual1\Dual-core_Communication_Demo\Dual-core_Communication_Demo\SLAVE\obj/../CODE/TrackGet.c:518
                   tmp=0;
    5fa6:	fc041723          	sh	zero,-50(s0)
D:\A_Dual1\Dual-core_Communication_Demo\Dual-core_Communication_Demo\SLAVE\obj/../CODE/TrackGet.c:519
               Border[LEFT][i]=tmp;
    5faa:	fd041703          	lh	a4,-48(s0)
    5fae:	200027b7          	lui	a5,0x20002
    5fb2:	0706                	slli	a4,a4,0x1
    5fb4:	68c78793          	addi	a5,a5,1676 # 2000268c <Border>
    5fb8:	97ba                	add	a5,a5,a4
    5fba:	fce45703          	lhu	a4,-50(s0)
    5fbe:	00e79023          	sh	a4,0(a5)
D:\A_Dual1\Dual-core_Communication_Demo\Dual-core_Communication_Demo\SLAVE\obj/../CODE/TrackGet.c:520
               repair_Cnt++;
    5fc2:	85219783          	lh	a5,-1966(gp) # 2000016a <repair_Cnt>
    5fc6:	07c2                	slli	a5,a5,0x10
    5fc8:	83c1                	srli	a5,a5,0x10
    5fca:	0785                	addi	a5,a5,1
    5fcc:	07c2                	slli	a5,a5,0x10
    5fce:	83c1                	srli	a5,a5,0x10
    5fd0:	01079713          	slli	a4,a5,0x10
    5fd4:	8741                	srai	a4,a4,0x10
    5fd6:	84e19923          	sh	a4,-1966(gp) # 2000016a <repair_Cnt>
D:\A_Dual1\Dual-core_Communication_Demo\Dual-core_Communication_Demo\SLAVE\obj/../CODE/TrackGet.c:521
               i++;
    5fda:	fd041783          	lh	a5,-48(s0)
    5fde:	07c2                	slli	a5,a5,0x10
    5fe0:	83c1                	srli	a5,a5,0x10
    5fe2:	0785                	addi	a5,a5,1
    5fe4:	07c2                	slli	a5,a5,0x10
    5fe6:	83c1                	srli	a5,a5,0x10
    5fe8:	fcf41823          	sh	a5,-48(s0)
D:\A_Dual1\Dual-core_Communication_Demo\Dual-core_Communication_Demo\SLAVE\obj/../CODE/TrackGet.c:514
            while(i<High&&Border[RIGHT][inflection_C]-k*repair_Cnt>Border[LEFT][i])//C
    5fec:	fd041703          	lh	a4,-48(s0)
    5ff0:	03100793          	li	a5,49
    5ff4:	06e7ca63          	blt	a5,a4,6068 <repair_Ring+0x634>
D:\A_Dual1\Dual-core_Communication_Demo\Dual-core_Communication_Demo\SLAVE\obj/../CODE/TrackGet.c:514 (discriminator 1)
    5ff8:	85e19783          	lh	a5,-1954(gp) # 20000176 <inflection_C>
    5ffc:	873e                	mv	a4,a5
    5ffe:	200027b7          	lui	a5,0x20002
    6002:	06470713          	addi	a4,a4,100
    6006:	0706                	slli	a4,a4,0x1
    6008:	68c78793          	addi	a5,a5,1676 # 2000268c <Border>
    600c:	97ba                	add	a5,a5,a4
    600e:	00079783          	lh	a5,0(a5)
    6012:	853e                	mv	a0,a5
    6014:	234020ef          	jal	ra,8248 <__floatsisf>
    6018:	84aa                	mv	s1,a0
    601a:	85219783          	lh	a5,-1966(gp) # 2000016a <repair_Cnt>
    601e:	853e                	mv	a0,a5
    6020:	228020ef          	jal	ra,8248 <__floatsisf>
    6024:	87aa                	mv	a5,a0
    6026:	fb442583          	lw	a1,-76(s0)
    602a:	853e                	mv	a0,a5
    602c:	3a3010ef          	jal	ra,7bce <__mulsf3>
    6030:	87aa                	mv	a5,a0
    6032:	85be                	mv	a1,a5
    6034:	8526                	mv	a0,s1
    6036:	629010ef          	jal	ra,7e5e <__subsf3>
    603a:	87aa                	mv	a5,a0
    603c:	84be                	mv	s1,a5
    603e:	fd041703          	lh	a4,-48(s0)
    6042:	200027b7          	lui	a5,0x20002
    6046:	0706                	slli	a4,a4,0x1
    6048:	68c78793          	addi	a5,a5,1676 # 2000268c <Border>
    604c:	97ba                	add	a5,a5,a4
    604e:	00079783          	lh	a5,0(a5)
    6052:	853e                	mv	a0,a5
    6054:	1f4020ef          	jal	ra,8248 <__floatsisf>
    6058:	87aa                	mv	a5,a0
    605a:	85be                	mv	a1,a5
    605c:	8526                	mv	a0,s1
    605e:	25f010ef          	jal	ra,7abc <__gesf2>
    6062:	87aa                	mv	a5,a0
    6064:	eef045e3          	bgtz	a5,5f4e <repair_Ring+0x51a>
D:\A_Dual1\Dual-core_Communication_Demo\Dual-core_Communication_Demo\SLAVE\obj/../CODE/TrackGet.c:524
            if(find_Inflection_B(inflection_C+2, High-1, RIGHT)==1)//BB
    6068:	85e19783          	lh	a5,-1954(gp) # 20000176 <inflection_C>
    606c:	07c2                	slli	a5,a5,0x10
    606e:	83c1                	srli	a5,a5,0x10
    6070:	0789                	addi	a5,a5,2
    6072:	07c2                	slli	a5,a5,0x10
    6074:	83c1                	srli	a5,a5,0x10
    6076:	07c2                	slli	a5,a5,0x10
    6078:	87c1                	srai	a5,a5,0x10
    607a:	4609                	li	a2,2
    607c:	03100593          	li	a1,49
    6080:	853e                	mv	a0,a5
    6082:	fa5fe0ef          	jal	ra,5026 <find_Inflection_B>
    6086:	87aa                	mv	a5,a0
    6088:	873e                	mv	a4,a5
    608a:	4785                	li	a5,1
    608c:	2af71863          	bne	a4,a5,633c <repair_Ring+0x908>
D:\A_Dual1\Dual-core_Communication_Demo\Dual-core_Communication_Demo\SLAVE\obj/../CODE/TrackGet.c:526
               repair_Cnt=1;
    6090:	4705                	li	a4,1
    6092:	84e19923          	sh	a4,-1966(gp) # 2000016a <repair_Cnt>
D:\A_Dual1\Dual-core_Communication_Demo\Dual-core_Communication_Demo\SLAVE\obj/../CODE/TrackGet.c:527
               for(i=inflection_B+1;i<High;i++)
    6096:	85c19783          	lh	a5,-1956(gp) # 20000174 <inflection_B>
    609a:	07c2                	slli	a5,a5,0x10
    609c:	83c1                	srli	a5,a5,0x10
    609e:	0785                	addi	a5,a5,1
    60a0:	07c2                	slli	a5,a5,0x10
    60a2:	83c1                	srli	a5,a5,0x10
    60a4:	fcf41823          	sh	a5,-48(s0)
    60a8:	a865                	j	6160 <repair_Ring+0x72c>
D:\A_Dual1\Dual-core_Communication_Demo\Dual-core_Communication_Demo\SLAVE\obj/../CODE/TrackGet.c:529
                   int16 tmp=Border[RIGHT][inflection_B]+1.2*repair_Cnt;//
    60aa:	85c19783          	lh	a5,-1956(gp) # 20000174 <inflection_B>
    60ae:	873e                	mv	a4,a5
    60b0:	200027b7          	lui	a5,0x20002
    60b4:	06470713          	addi	a4,a4,100
    60b8:	0706                	slli	a4,a4,0x1
    60ba:	68c78793          	addi	a5,a5,1676 # 2000268c <Border>
    60be:	97ba                	add	a5,a5,a4
    60c0:	00079783          	lh	a5,0(a5)
    60c4:	853e                	mv	a0,a5
    60c6:	61a010ef          	jal	ra,76e0 <__floatsidf>
    60ca:	892a                	mv	s2,a0
    60cc:	89ae                	mv	s3,a1
    60ce:	85219783          	lh	a5,-1966(gp) # 2000016a <repair_Cnt>
    60d2:	853e                	mv	a0,a5
    60d4:	60c010ef          	jal	ra,76e0 <__floatsidf>
    60d8:	67a5                	lui	a5,0x9
    60da:	7307a603          	lw	a2,1840(a5) # 9730 <_exit+0x10c>
    60de:	7347a683          	lw	a3,1844(a5)
    60e2:	1a1000ef          	jal	ra,6a82 <__muldf3>
    60e6:	87aa                	mv	a5,a0
    60e8:	882e                	mv	a6,a1
    60ea:	863e                	mv	a2,a5
    60ec:	86c2                	mv	a3,a6
    60ee:	854a                	mv	a0,s2
    60f0:	85ce                	mv	a1,s3
    60f2:	2485                	jal	6352 <__adddf3>
    60f4:	87aa                	mv	a5,a0
    60f6:	882e                	mv	a6,a1
    60f8:	853e                	mv	a0,a5
    60fa:	85c2                	mv	a1,a6
    60fc:	57c010ef          	jal	ra,7678 <__fixdfsi>
    6100:	87aa                	mv	a5,a0
    6102:	fcf41623          	sh	a5,-52(s0)
D:\A_Dual1\Dual-core_Communication_Demo\Dual-core_Communication_Demo\SLAVE\obj/../CODE/TrackGet.c:530
                   if(tmp>Width-1)
    6106:	fcc41703          	lh	a4,-52(s0)
    610a:	0bb00793          	li	a5,187
    610e:	00e7d663          	bge	a5,a4,611a <repair_Ring+0x6e6>
D:\A_Dual1\Dual-core_Communication_Demo\Dual-core_Communication_Demo\SLAVE\obj/../CODE/TrackGet.c:531
                       tmp=Width-1;
    6112:	0bb00793          	li	a5,187
    6116:	fcf41623          	sh	a5,-52(s0)
D:\A_Dual1\Dual-core_Communication_Demo\Dual-core_Communication_Demo\SLAVE\obj/../CODE/TrackGet.c:532 (discriminator 2)
                   Border[RIGHT][i]=tmp;
    611a:	fd041703          	lh	a4,-48(s0)
    611e:	200027b7          	lui	a5,0x20002
    6122:	06470713          	addi	a4,a4,100
    6126:	0706                	slli	a4,a4,0x1
    6128:	68c78793          	addi	a5,a5,1676 # 2000268c <Border>
    612c:	97ba                	add	a5,a5,a4
    612e:	fcc45703          	lhu	a4,-52(s0)
    6132:	00e79023          	sh	a4,0(a5)
D:\A_Dual1\Dual-core_Communication_Demo\Dual-core_Communication_Demo\SLAVE\obj/../CODE/TrackGet.c:533 (discriminator 2)
                   repair_Cnt++;
    6136:	85219783          	lh	a5,-1966(gp) # 2000016a <repair_Cnt>
    613a:	07c2                	slli	a5,a5,0x10
    613c:	83c1                	srli	a5,a5,0x10
    613e:	0785                	addi	a5,a5,1
    6140:	07c2                	slli	a5,a5,0x10
    6142:	83c1                	srli	a5,a5,0x10
    6144:	01079713          	slli	a4,a5,0x10
    6148:	8741                	srai	a4,a4,0x10
    614a:	84e19923          	sh	a4,-1966(gp) # 2000016a <repair_Cnt>
D:\A_Dual1\Dual-core_Communication_Demo\Dual-core_Communication_Demo\SLAVE\obj/../CODE/TrackGet.c:527 (discriminator 2)
               for(i=inflection_B+1;i<High;i++)
    614e:	fd041783          	lh	a5,-48(s0)
    6152:	07c2                	slli	a5,a5,0x10
    6154:	83c1                	srli	a5,a5,0x10
    6156:	0785                	addi	a5,a5,1
    6158:	07c2                	slli	a5,a5,0x10
    615a:	83c1                	srli	a5,a5,0x10
    615c:	fcf41823          	sh	a5,-48(s0)
D:\A_Dual1\Dual-core_Communication_Demo\Dual-core_Communication_Demo\SLAVE\obj/../CODE/TrackGet.c:527 (discriminator 1)
    6160:	fd041703          	lh	a4,-48(s0)
    6164:	03100793          	li	a5,49
    6168:	f4e7d1e3          	bge	a5,a4,60aa <repair_Ring+0x676>
D:\A_Dual1\Dual-core_Communication_Demo\Dual-core_Communication_Demo\SLAVE\obj/../CODE/TrackGet.c:538
        break;
    616c:	aac1                	j	633c <repair_Ring+0x908>
D:\A_Dual1\Dual-core_Communication_Demo\Dual-core_Communication_Demo\SLAVE\obj/../CODE/TrackGet.c:540
    case 5://4
        if(directRing_Sign==LEFT)
    616e:	80a18783          	lb	a5,-2038(gp) # 20000122 <directRing_Sign>
    6172:	0c079f63          	bnez	a5,6250 <repair_Ring+0x81c>
D:\A_Dual1\Dual-core_Communication_Demo\Dual-core_Communication_Demo\SLAVE\obj/../CODE/TrackGet.c:542
        {
            if(find_Inflection_C(validLine, High-1, LEFT)==1)
    6176:	84419783          	lh	a5,-1980(gp) # 2000015c <validLine>
    617a:	4601                	li	a2,0
    617c:	03100593          	li	a1,49
    6180:	853e                	mv	a0,a5
    6182:	c1dfe0ef          	jal	ra,4d9e <find_Inflection_C>
    6186:	87aa                	mv	a5,a0
    6188:	873e                	mv	a4,a5
    618a:	4785                	li	a5,1
    618c:	1af71a63          	bne	a4,a5,6340 <repair_Ring+0x90c>
D:\A_Dual1\Dual-core_Communication_Demo\Dual-core_Communication_Demo\SLAVE\obj/../CODE/TrackGet.c:544
            {
                repair_Cnt=1;
    6190:	4705                	li	a4,1
    6192:	84e19923          	sh	a4,-1966(gp) # 2000016a <repair_Cnt>
D:\A_Dual1\Dual-core_Communication_Demo\Dual-core_Communication_Demo\SLAVE\obj/../CODE/TrackGet.c:545
                for(int i=inflection_C+1;i<High;i++)
    6196:	85e19783          	lh	a5,-1954(gp) # 20000176 <inflection_C>
    619a:	0785                	addi	a5,a5,1
    619c:	fcf42423          	sw	a5,-56(s0)
    61a0:	a04d                	j	6242 <repair_Ring+0x80e>
D:\A_Dual1\Dual-core_Communication_Demo\Dual-core_Communication_Demo\SLAVE\obj/../CODE/TrackGet.c:547
                {
                    int16 tmp=Border[LEFT][inflection_C]-1.1*repair_Cnt;
    61a2:	85e19783          	lh	a5,-1954(gp) # 20000176 <inflection_C>
    61a6:	873e                	mv	a4,a5
    61a8:	200027b7          	lui	a5,0x20002
    61ac:	0706                	slli	a4,a4,0x1
    61ae:	68c78793          	addi	a5,a5,1676 # 2000268c <Border>
    61b2:	97ba                	add	a5,a5,a4
    61b4:	00079783          	lh	a5,0(a5)
    61b8:	853e                	mv	a0,a5
    61ba:	526010ef          	jal	ra,76e0 <__floatsidf>
    61be:	892a                	mv	s2,a0
    61c0:	89ae                	mv	s3,a1
    61c2:	85219783          	lh	a5,-1966(gp) # 2000016a <repair_Cnt>
    61c6:	853e                	mv	a0,a5
    61c8:	518010ef          	jal	ra,76e0 <__floatsidf>
    61cc:	67a5                	lui	a5,0x9
    61ce:	7387a603          	lw	a2,1848(a5) # 9738 <_exit+0x114>
    61d2:	73c7a683          	lw	a3,1852(a5)
    61d6:	0ad000ef          	jal	ra,6a82 <__muldf3>
    61da:	87aa                	mv	a5,a0
    61dc:	882e                	mv	a6,a1
    61de:	863e                	mv	a2,a5
    61e0:	86c2                	mv	a3,a6
    61e2:	854a                	mv	a0,s2
    61e4:	85ce                	mv	a1,s3
    61e6:	555000ef          	jal	ra,6f3a <__subdf3>
    61ea:	87aa                	mv	a5,a0
    61ec:	882e                	mv	a6,a1
    61ee:	853e                	mv	a0,a5
    61f0:	85c2                	mv	a1,a6
    61f2:	486010ef          	jal	ra,7678 <__fixdfsi>
    61f6:	87aa                	mv	a5,a0
    61f8:	fcf41323          	sh	a5,-58(s0)
D:\A_Dual1\Dual-core_Communication_Demo\Dual-core_Communication_Demo\SLAVE\obj/../CODE/TrackGet.c:548
                    if(tmp<0)
    61fc:	fc641783          	lh	a5,-58(s0)
    6200:	0007d463          	bgez	a5,6208 <repair_Ring+0x7d4>
D:\A_Dual1\Dual-core_Communication_Demo\Dual-core_Communication_Demo\SLAVE\obj/../CODE/TrackGet.c:549
                        tmp=0;
    6204:	fc041323          	sh	zero,-58(s0)
D:\A_Dual1\Dual-core_Communication_Demo\Dual-core_Communication_Demo\SLAVE\obj/../CODE/TrackGet.c:550 (discriminator 2)
                    Border[LEFT][i]=tmp;
    6208:	200027b7          	lui	a5,0x20002
    620c:	fc842703          	lw	a4,-56(s0)
    6210:	0706                	slli	a4,a4,0x1
    6212:	68c78793          	addi	a5,a5,1676 # 2000268c <Border>
    6216:	97ba                	add	a5,a5,a4
    6218:	fc645703          	lhu	a4,-58(s0)
    621c:	00e79023          	sh	a4,0(a5)
D:\A_Dual1\Dual-core_Communication_Demo\Dual-core_Communication_Demo\SLAVE\obj/../CODE/TrackGet.c:551 (discriminator 2)
                    repair_Cnt++;
    6220:	85219783          	lh	a5,-1966(gp) # 2000016a <repair_Cnt>
    6224:	07c2                	slli	a5,a5,0x10
    6226:	83c1                	srli	a5,a5,0x10
    6228:	0785                	addi	a5,a5,1
    622a:	07c2                	slli	a5,a5,0x10
    622c:	83c1                	srli	a5,a5,0x10
    622e:	01079713          	slli	a4,a5,0x10
    6232:	8741                	srai	a4,a4,0x10
    6234:	84e19923          	sh	a4,-1966(gp) # 2000016a <repair_Cnt>
D:\A_Dual1\Dual-core_Communication_Demo\Dual-core_Communication_Demo\SLAVE\obj/../CODE/TrackGet.c:545 (discriminator 2)
                for(int i=inflection_C+1;i<High;i++)
    6238:	fc842783          	lw	a5,-56(s0)
    623c:	0785                	addi	a5,a5,1
    623e:	fcf42423          	sw	a5,-56(s0)
D:\A_Dual1\Dual-core_Communication_Demo\Dual-core_Communication_Demo\SLAVE\obj/../CODE/TrackGet.c:545 (discriminator 1)
    6242:	fc842703          	lw	a4,-56(s0)
    6246:	03100793          	li	a5,49
    624a:	f4e7dce3          	bge	a5,a4,61a2 <repair_Ring+0x76e>
D:\A_Dual1\Dual-core_Communication_Demo\Dual-core_Communication_Demo\SLAVE\obj/../CODE/TrackGet.c:570
                    Border[RIGHT][i]=tmp;
                    repair_Cnt++;
                }
            }
        }
        break;
    624e:	a8cd                	j	6340 <repair_Ring+0x90c>
D:\A_Dual1\Dual-core_Communication_Demo\Dual-core_Communication_Demo\SLAVE\obj/../CODE/TrackGet.c:557
            if(find_Inflection_C(validLine, High-1, RIGHT)==1)
    6250:	84419783          	lh	a5,-1980(gp) # 2000015c <validLine>
    6254:	4609                	li	a2,2
    6256:	03100593          	li	a1,49
    625a:	853e                	mv	a0,a5
    625c:	b43fe0ef          	jal	ra,4d9e <find_Inflection_C>
    6260:	87aa                	mv	a5,a0
    6262:	873e                	mv	a4,a5
    6264:	4785                	li	a5,1
    6266:	0cf71d63          	bne	a4,a5,6340 <repair_Ring+0x90c>
D:\A_Dual1\Dual-core_Communication_Demo\Dual-core_Communication_Demo\SLAVE\obj/../CODE/TrackGet.c:559
                repair_Cnt=1;
    626a:	4705                	li	a4,1
    626c:	84e19923          	sh	a4,-1966(gp) # 2000016a <repair_Cnt>
D:\A_Dual1\Dual-core_Communication_Demo\Dual-core_Communication_Demo\SLAVE\obj/../CODE/TrackGet.c:560
                for(int i=inflection_C+1;i<High;i++)
    6270:	85e19783          	lh	a5,-1954(gp) # 20000176 <inflection_C>
    6274:	0785                	addi	a5,a5,1
    6276:	fcf42023          	sw	a5,-64(s0)
    627a:	a845                	j	632a <repair_Ring+0x8f6>
D:\A_Dual1\Dual-core_Communication_Demo\Dual-core_Communication_Demo\SLAVE\obj/../CODE/TrackGet.c:562
                    int16 tmp=Border[RIGHT][inflection_C]+1.1*repair_Cnt;
    627c:	85e19783          	lh	a5,-1954(gp) # 20000176 <inflection_C>
    6280:	873e                	mv	a4,a5
    6282:	200027b7          	lui	a5,0x20002
    6286:	06470713          	addi	a4,a4,100
    628a:	0706                	slli	a4,a4,0x1
    628c:	68c78793          	addi	a5,a5,1676 # 2000268c <Border>
    6290:	97ba                	add	a5,a5,a4
    6292:	00079783          	lh	a5,0(a5)
    6296:	853e                	mv	a0,a5
    6298:	448010ef          	jal	ra,76e0 <__floatsidf>
    629c:	892a                	mv	s2,a0
    629e:	89ae                	mv	s3,a1
    62a0:	85219783          	lh	a5,-1966(gp) # 2000016a <repair_Cnt>
    62a4:	853e                	mv	a0,a5
    62a6:	43a010ef          	jal	ra,76e0 <__floatsidf>
    62aa:	67a5                	lui	a5,0x9
    62ac:	7387a603          	lw	a2,1848(a5) # 9738 <_exit+0x114>
    62b0:	73c7a683          	lw	a3,1852(a5)
    62b4:	7ce000ef          	jal	ra,6a82 <__muldf3>
    62b8:	87aa                	mv	a5,a0
    62ba:	882e                	mv	a6,a1
    62bc:	863e                	mv	a2,a5
    62be:	86c2                	mv	a3,a6
    62c0:	854a                	mv	a0,s2
    62c2:	85ce                	mv	a1,s3
    62c4:	2079                	jal	6352 <__adddf3>
    62c6:	87aa                	mv	a5,a0
    62c8:	882e                	mv	a6,a1
    62ca:	853e                	mv	a0,a5
    62cc:	85c2                	mv	a1,a6
    62ce:	3aa010ef          	jal	ra,7678 <__fixdfsi>
    62d2:	87aa                	mv	a5,a0
    62d4:	faf41f23          	sh	a5,-66(s0)
D:\A_Dual1\Dual-core_Communication_Demo\Dual-core_Communication_Demo\SLAVE\obj/../CODE/TrackGet.c:563
                    if(tmp>Width-1)
    62d8:	fbe41703          	lh	a4,-66(s0)
    62dc:	0bb00793          	li	a5,187
    62e0:	00e7d663          	bge	a5,a4,62ec <repair_Ring+0x8b8>
D:\A_Dual1\Dual-core_Communication_Demo\Dual-core_Communication_Demo\SLAVE\obj/../CODE/TrackGet.c:564
                        tmp=Width-1;
    62e4:	0bb00793          	li	a5,187
    62e8:	faf41f23          	sh	a5,-66(s0)
D:\A_Dual1\Dual-core_Communication_Demo\Dual-core_Communication_Demo\SLAVE\obj/../CODE/TrackGet.c:565 (discriminator 2)
                    Border[RIGHT][i]=tmp;
    62ec:	200027b7          	lui	a5,0x20002
    62f0:	fc042703          	lw	a4,-64(s0)
    62f4:	06470713          	addi	a4,a4,100
    62f8:	0706                	slli	a4,a4,0x1
    62fa:	68c78793          	addi	a5,a5,1676 # 2000268c <Border>
    62fe:	97ba                	add	a5,a5,a4
    6300:	fbe45703          	lhu	a4,-66(s0)
    6304:	00e79023          	sh	a4,0(a5)
D:\A_Dual1\Dual-core_Communication_Demo\Dual-core_Communication_Demo\SLAVE\obj/../CODE/TrackGet.c:566 (discriminator 2)
                    repair_Cnt++;
    6308:	85219783          	lh	a5,-1966(gp) # 2000016a <repair_Cnt>
    630c:	07c2                	slli	a5,a5,0x10
    630e:	83c1                	srli	a5,a5,0x10
    6310:	0785                	addi	a5,a5,1
    6312:	07c2                	slli	a5,a5,0x10
    6314:	83c1                	srli	a5,a5,0x10
    6316:	01079713          	slli	a4,a5,0x10
    631a:	8741                	srai	a4,a4,0x10
    631c:	84e19923          	sh	a4,-1966(gp) # 2000016a <repair_Cnt>
D:\A_Dual1\Dual-core_Communication_Demo\Dual-core_Communication_Demo\SLAVE\obj/../CODE/TrackGet.c:560 (discriminator 2)
                for(int i=inflection_C+1;i<High;i++)
    6320:	fc042783          	lw	a5,-64(s0)
    6324:	0785                	addi	a5,a5,1
    6326:	fcf42023          	sw	a5,-64(s0)
D:\A_Dual1\Dual-core_Communication_Demo\Dual-core_Communication_Demo\SLAVE\obj/../CODE/TrackGet.c:560 (discriminator 1)
    632a:	fc042703          	lw	a4,-64(s0)
    632e:	03100793          	li	a5,49
    6332:	f4e7d5e3          	bge	a5,a4,627c <repair_Ring+0x848>
D:\A_Dual1\Dual-core_Communication_Demo\Dual-core_Communication_Demo\SLAVE\obj/../CODE/TrackGet.c:570
        break;
    6336:	a029                	j	6340 <repair_Ring+0x90c>
D:\A_Dual1\Dual-core_Communication_Demo\Dual-core_Communication_Demo\SLAVE\obj/../CODE/TrackGet.c:476
        break;
    6338:	0001                	nop
    633a:	a021                	j	6342 <repair_Ring+0x90e>
D:\A_Dual1\Dual-core_Communication_Demo\Dual-core_Communication_Demo\SLAVE\obj/../CODE/TrackGet.c:538
        break;
    633c:	0001                	nop
    633e:	a011                	j	6342 <repair_Ring+0x90e>
D:\A_Dual1\Dual-core_Communication_Demo\Dual-core_Communication_Demo\SLAVE\obj/../CODE/TrackGet.c:570
        break;
    6340:	0001                	nop
D:\A_Dual1\Dual-core_Communication_Demo\Dual-core_Communication_Demo\SLAVE\obj/../CODE/TrackGet.c:572
    }
}
    6342:	0001                	nop
    6344:	40f6                	lw	ra,92(sp)
    6346:	4466                	lw	s0,88(sp)
    6348:	44d6                	lw	s1,84(sp)
    634a:	4946                	lw	s2,80(sp)
    634c:	49b6                	lw	s3,76(sp)
    634e:	6125                	addi	sp,sp,96
    6350:	8082                	ret

00006352 <__adddf3>:
__adddf3():
    6352:	00100837          	lui	a6,0x100
    6356:	1101                	addi	sp,sp,-32
    6358:	187d                	addi	a6,a6,-1
    635a:	00b87733          	and	a4,a6,a1
    635e:	ca26                	sw	s1,20(sp)
    6360:	00d87833          	and	a6,a6,a3
    6364:	0145d493          	srli	s1,a1,0x14
    6368:	0146d313          	srli	t1,a3,0x14
    636c:	00371e13          	slli	t3,a4,0x3
    6370:	c64e                	sw	s3,12(sp)
    6372:	01d55713          	srli	a4,a0,0x1d
    6376:	080e                	slli	a6,a6,0x3
    6378:	01d65793          	srli	a5,a2,0x1d
    637c:	7ff4f493          	andi	s1,s1,2047
    6380:	7ff37313          	andi	t1,t1,2047
    6384:	ce06                	sw	ra,28(sp)
    6386:	cc22                	sw	s0,24(sp)
    6388:	c84a                	sw	s2,16(sp)
    638a:	01f5d993          	srli	s3,a1,0x1f
    638e:	01f6de93          	srli	t4,a3,0x1f
    6392:	01c76733          	or	a4,a4,t3
    6396:	00351f13          	slli	t5,a0,0x3
    639a:	0107e833          	or	a6,a5,a6
    639e:	00361f93          	slli	t6,a2,0x3
    63a2:	40648e33          	sub	t3,s1,t1
    63a6:	19d98063          	beq	s3,t4,6526 <__adddf3+0x1d4>
    63aa:	13c05663          	blez	t3,64d6 <__adddf3+0x184>
    63ae:	1c030463          	beqz	t1,6576 <__adddf3+0x224>
    63b2:	008006b7          	lui	a3,0x800
    63b6:	7ff00793          	li	a5,2047
    63ba:	00d86833          	or	a6,a6,a3
    63be:	36f48f63          	beq	s1,a5,673c <__adddf3+0x3ea>
    63c2:	03800793          	li	a5,56
    63c6:	35c7c063          	blt	a5,t3,6706 <__adddf3+0x3b4>
    63ca:	47fd                	li	a5,31
    63cc:	47c7cd63          	blt	a5,t3,6846 <__adddf3+0x4f4>
    63d0:	02000513          	li	a0,32
    63d4:	41c50533          	sub	a0,a0,t3
    63d8:	01cfd7b3          	srl	a5,t6,t3
    63dc:	00a816b3          	sll	a3,a6,a0
    63e0:	00af9933          	sll	s2,t6,a0
    63e4:	8edd                	or	a3,a3,a5
    63e6:	01203933          	snez	s2,s2
    63ea:	01c857b3          	srl	a5,a6,t3
    63ee:	0126e933          	or	s2,a3,s2
    63f2:	8f1d                	sub	a4,a4,a5
    63f4:	412f0933          	sub	s2,t5,s2
    63f8:	012f37b3          	sltu	a5,t5,s2
    63fc:	40f70633          	sub	a2,a4,a5
    6400:	00861793          	slli	a5,a2,0x8
    6404:	2407d463          	bgez	a5,664c <__adddf3+0x2fa>
    6408:	00800737          	lui	a4,0x800
    640c:	177d                	addi	a4,a4,-1
    640e:	00e67433          	and	s0,a2,a4
    6412:	2c040c63          	beqz	s0,66ea <__adddf3+0x398>
    6416:	8522                	mv	a0,s0
    6418:	6f7010ef          	jal	ra,830e <__clzsi2>
    641c:	ff850713          	addi	a4,a0,-8 # 3fff8 <_data_lma+0x35fe0>
    6420:	02000793          	li	a5,32
    6424:	8f99                	sub	a5,a5,a4
    6426:	00f957b3          	srl	a5,s2,a5
    642a:	00e41633          	sll	a2,s0,a4
    642e:	8fd1                	or	a5,a5,a2
    6430:	00e91933          	sll	s2,s2,a4
    6434:	2a974163          	blt	a4,s1,66d6 <__adddf3+0x384>
    6438:	40970533          	sub	a0,a4,s1
    643c:	00150613          	addi	a2,a0,1
    6440:	477d                	li	a4,31
    6442:	38c74d63          	blt	a4,a2,67dc <__adddf3+0x48a>
    6446:	02000713          	li	a4,32
    644a:	8f11                	sub	a4,a4,a2
    644c:	00c956b3          	srl	a3,s2,a2
    6450:	00e91933          	sll	s2,s2,a4
    6454:	00e79733          	sll	a4,a5,a4
    6458:	8f55                	or	a4,a4,a3
    645a:	01203933          	snez	s2,s2
    645e:	01276933          	or	s2,a4,s2
    6462:	00c7d633          	srl	a2,a5,a2
    6466:	4481                	li	s1,0
    6468:	00797793          	andi	a5,s2,7
    646c:	cf81                	beqz	a5,6484 <__adddf3+0x132>
    646e:	00f97713          	andi	a4,s2,15
    6472:	4791                	li	a5,4
    6474:	00f70863          	beq	a4,a5,6484 <__adddf3+0x132>
    6478:	00490713          	addi	a4,s2,4
    647c:	01273933          	sltu	s2,a4,s2
    6480:	964a                	add	a2,a2,s2
    6482:	893a                	mv	s2,a4
    6484:	00861793          	slli	a5,a2,0x8
    6488:	1c07d663          	bgez	a5,6654 <__adddf3+0x302>
    648c:	00148513          	addi	a0,s1,1
    6490:	7ff00793          	li	a5,2047
    6494:	85ce                	mv	a1,s3
    6496:	20f50463          	beq	a0,a5,669e <__adddf3+0x34c>
    649a:	ff8007b7          	lui	a5,0xff800
    649e:	17fd                	addi	a5,a5,-1
    64a0:	8ff1                	and	a5,a5,a2
    64a2:	01d79893          	slli	a7,a5,0x1d
    64a6:	00395913          	srli	s2,s2,0x3
    64aa:	07a6                	slli	a5,a5,0x9
    64ac:	0128e8b3          	or	a7,a7,s2
    64b0:	83b1                	srli	a5,a5,0xc
    64b2:	7ff57513          	andi	a0,a0,2047
    64b6:	00c79693          	slli	a3,a5,0xc
    64ba:	0552                	slli	a0,a0,0x14
    64bc:	40f2                	lw	ra,28(sp)
    64be:	4462                	lw	s0,24(sp)
    64c0:	82b1                	srli	a3,a3,0xc
    64c2:	05fe                	slli	a1,a1,0x1f
    64c4:	8ec9                	or	a3,a3,a0
    64c6:	8ecd                	or	a3,a3,a1
    64c8:	44d2                	lw	s1,20(sp)
    64ca:	4942                	lw	s2,16(sp)
    64cc:	49b2                	lw	s3,12(sp)
    64ce:	8546                	mv	a0,a7
    64d0:	85b6                	mv	a1,a3
    64d2:	6105                	addi	sp,sp,32
    64d4:	8082                	ret
    64d6:	0a0e1e63          	bnez	t3,6592 <__adddf3+0x240>
    64da:	00148313          	addi	t1,s1,1
    64de:	7fe37313          	andi	t1,t1,2046
    64e2:	22031763          	bnez	t1,6710 <__adddf3+0x3be>
    64e6:	01e767b3          	or	a5,a4,t5
    64ea:	01f868b3          	or	a7,a6,t6
    64ee:	1a049d63          	bnez	s1,66a8 <__adddf3+0x356>
    64f2:	40078763          	beqz	a5,6900 <__adddf3+0x5ae>
    64f6:	44088663          	beqz	a7,6942 <__adddf3+0x5f0>
    64fa:	41ff0933          	sub	s2,t5,t6
    64fe:	410707b3          	sub	a5,a4,a6
    6502:	012f3633          	sltu	a2,t5,s2
    6506:	40c78633          	sub	a2,a5,a2
    650a:	00861793          	slli	a5,a2,0x8
    650e:	4c07d663          	bgez	a5,69da <__adddf3+0x688>
    6512:	41ef8933          	sub	s2,t6,t5
    6516:	40e807b3          	sub	a5,a6,a4
    651a:	012fb633          	sltu	a2,t6,s2
    651e:	40c78633          	sub	a2,a5,a2
    6522:	89f6                	mv	s3,t4
    6524:	b791                	j	6468 <__adddf3+0x116>
    6526:	0fc05063          	blez	t3,6606 <__adddf3+0x2b4>
    652a:	0c030063          	beqz	t1,65ea <__adddf3+0x298>
    652e:	008006b7          	lui	a3,0x800
    6532:	7ff00793          	li	a5,2047
    6536:	00d86833          	or	a6,a6,a3
    653a:	3af48a63          	beq	s1,a5,68ee <__adddf3+0x59c>
    653e:	03800793          	li	a5,56
    6542:	13c7cb63          	blt	a5,t3,6678 <__adddf3+0x326>
    6546:	47fd                	li	a5,31
    6548:	35c7df63          	bge	a5,t3,68a6 <__adddf3+0x554>
    654c:	fe0e0913          	addi	s2,t3,-32
    6550:	02000793          	li	a5,32
    6554:	012856b3          	srl	a3,a6,s2
    6558:	00fe0a63          	beq	t3,a5,656c <__adddf3+0x21a>
    655c:	04000913          	li	s2,64
    6560:	41c90933          	sub	s2,s2,t3
    6564:	01281933          	sll	s2,a6,s2
    6568:	012fefb3          	or	t6,t6,s2
    656c:	01f03933          	snez	s2,t6
    6570:	00d96933          	or	s2,s2,a3
    6574:	a231                	j	6680 <__adddf3+0x32e>
    6576:	01f867b3          	or	a5,a6,t6
    657a:	1c078a63          	beqz	a5,674e <__adddf3+0x3fc>
    657e:	fffe0793          	addi	a5,t3,-1
    6582:	38078c63          	beqz	a5,691a <__adddf3+0x5c8>
    6586:	7ff00693          	li	a3,2047
    658a:	1ade0963          	beq	t3,a3,673c <__adddf3+0x3ea>
    658e:	8e3e                	mv	t3,a5
    6590:	bd0d                	j	63c2 <__adddf3+0x70>
    6592:	409305b3          	sub	a1,t1,s1
    6596:	22049163          	bnez	s1,67b8 <__adddf3+0x466>
    659a:	01e767b3          	or	a5,a4,t5
    659e:	32078763          	beqz	a5,68cc <__adddf3+0x57a>
    65a2:	fff58793          	addi	a5,a1,-1 # 3fff <spi_gpio_init+0x17d>
    65a6:	44078163          	beqz	a5,69e8 <__adddf3+0x696>
    65aa:	7ff00693          	li	a3,2047
    65ae:	20d58c63          	beq	a1,a3,67c6 <__adddf3+0x474>
    65b2:	85be                	mv	a1,a5
    65b4:	03800793          	li	a5,56
    65b8:	2ab7cc63          	blt	a5,a1,6870 <__adddf3+0x51e>
    65bc:	47fd                	li	a5,31
    65be:	3cb7cf63          	blt	a5,a1,699c <__adddf3+0x64a>
    65c2:	02000793          	li	a5,32
    65c6:	8f8d                	sub	a5,a5,a1
    65c8:	00f71933          	sll	s2,a4,a5
    65cc:	00bf56b3          	srl	a3,t5,a1
    65d0:	00ff17b3          	sll	a5,t5,a5
    65d4:	00d96933          	or	s2,s2,a3
    65d8:	00f037b3          	snez	a5,a5
    65dc:	00b75733          	srl	a4,a4,a1
    65e0:	00f96933          	or	s2,s2,a5
    65e4:	40e80833          	sub	a6,a6,a4
    65e8:	ac41                	j	6878 <__adddf3+0x526>
    65ea:	01f867b3          	or	a5,a6,t6
    65ee:	34078063          	beqz	a5,692e <__adddf3+0x5dc>
    65f2:	fffe0793          	addi	a5,t3,-1
    65f6:	20078a63          	beqz	a5,680a <__adddf3+0x4b8>
    65fa:	7ff00693          	li	a3,2047
    65fe:	2ede0863          	beq	t3,a3,68ee <__adddf3+0x59c>
    6602:	8e3e                	mv	t3,a5
    6604:	bf2d                	j	653e <__adddf3+0x1ec>
    6606:	140e1e63          	bnez	t3,6762 <__adddf3+0x410>
    660a:	00148693          	addi	a3,s1,1
    660e:	7fe6f793          	andi	a5,a3,2046
    6612:	34079163          	bnez	a5,6954 <__adddf3+0x602>
    6616:	01e767b3          	or	a5,a4,t5
    661a:	2c049563          	bnez	s1,68e4 <__adddf3+0x592>
    661e:	3e078063          	beqz	a5,69fe <__adddf3+0x6ac>
    6622:	01f867b3          	or	a5,a6,t6
    6626:	30078e63          	beqz	a5,6942 <__adddf3+0x5f0>
    662a:	01ff0933          	add	s2,t5,t6
    662e:	010707b3          	add	a5,a4,a6
    6632:	01e93f33          	sltu	t5,s2,t5
    6636:	01e78633          	add	a2,a5,t5
    663a:	00861793          	slli	a5,a2,0x8
    663e:	0007d763          	bgez	a5,664c <__adddf3+0x2fa>
    6642:	ff8007b7          	lui	a5,0xff800
    6646:	17fd                	addi	a5,a5,-1
    6648:	8e7d                	and	a2,a2,a5
    664a:	4485                	li	s1,1
    664c:	00797793          	andi	a5,s2,7
    6650:	e0079fe3          	bnez	a5,646e <__adddf3+0x11c>
    6654:	01d61793          	slli	a5,a2,0x1d
    6658:	00395893          	srli	a7,s2,0x3
    665c:	00f8e8b3          	or	a7,a7,a5
    6660:	00365793          	srli	a5,a2,0x3
    6664:	7ff00713          	li	a4,2047
    6668:	04e48d63          	beq	s1,a4,66c2 <__adddf3+0x370>
    666c:	07b2                	slli	a5,a5,0xc
    666e:	83b1                	srli	a5,a5,0xc
    6670:	7ff4f513          	andi	a0,s1,2047
    6674:	85ce                	mv	a1,s3
    6676:	b581                	j	64b6 <__adddf3+0x164>
    6678:	01f86933          	or	s2,a6,t6
    667c:	01203933          	snez	s2,s2
    6680:	997a                	add	s2,s2,t5
    6682:	01e937b3          	sltu	a5,s2,t5
    6686:	00e78633          	add	a2,a5,a4
    668a:	00861793          	slli	a5,a2,0x8
    668e:	fa07dfe3          	bgez	a5,664c <__adddf3+0x2fa>
    6692:	0485                	addi	s1,s1,1
    6694:	7ff00793          	li	a5,2047
    6698:	18f49663          	bne	s1,a5,6824 <__adddf3+0x4d2>
    669c:	85ce                	mv	a1,s3
    669e:	7ff00513          	li	a0,2047
    66a2:	4781                	li	a5,0
    66a4:	4881                	li	a7,0
    66a6:	bd01                	j	64b6 <__adddf3+0x164>
    66a8:	ebc1                	bnez	a5,6738 <__adddf3+0x3e6>
    66aa:	3a088463          	beqz	a7,6a52 <__adddf3+0x700>
    66ae:	00361693          	slli	a3,a2,0x3
    66b2:	01d81793          	slli	a5,a6,0x1d
    66b6:	828d                	srli	a3,a3,0x3
    66b8:	00d7e8b3          	or	a7,a5,a3
    66bc:	89f6                	mv	s3,t4
    66be:	00385793          	srli	a5,a6,0x3
    66c2:	00f8e7b3          	or	a5,a7,a5
    66c6:	dbf9                	beqz	a5,669c <__adddf3+0x34a>
    66c8:	4581                	li	a1,0
    66ca:	7ff00513          	li	a0,2047
    66ce:	000807b7          	lui	a5,0x80
    66d2:	4881                	li	a7,0
    66d4:	b3cd                	j	64b6 <__adddf3+0x164>
    66d6:	ff800637          	lui	a2,0xff800
    66da:	167d                	addi	a2,a2,-1
    66dc:	8e7d                	and	a2,a2,a5
    66de:	00797793          	andi	a5,s2,7
    66e2:	8c99                	sub	s1,s1,a4
    66e4:	d80795e3          	bnez	a5,646e <__adddf3+0x11c>
    66e8:	b7b5                	j	6654 <__adddf3+0x302>
    66ea:	854a                	mv	a0,s2
    66ec:	423010ef          	jal	ra,830e <__clzsi2>
    66f0:	01850713          	addi	a4,a0,24
    66f4:	47fd                	li	a5,31
    66f6:	d2e7d5e3          	bge	a5,a4,6420 <__adddf3+0xce>
    66fa:	ff850613          	addi	a2,a0,-8
    66fe:	00c917b3          	sll	a5,s2,a2
    6702:	4901                	li	s2,0
    6704:	bb05                	j	6434 <__adddf3+0xe2>
    6706:	01f86933          	or	s2,a6,t6
    670a:	01203933          	snez	s2,s2
    670e:	b1dd                	j	63f4 <__adddf3+0xa2>
    6710:	41ff0933          	sub	s2,t5,t6
    6714:	41070633          	sub	a2,a4,a6
    6718:	012f3433          	sltu	s0,t5,s2
    671c:	40860433          	sub	s0,a2,s0
    6720:	00841793          	slli	a5,s0,0x8
    6724:	2407cd63          	bltz	a5,697e <__adddf3+0x62c>
    6728:	008968b3          	or	a7,s2,s0
    672c:	ce0893e3          	bnez	a7,6412 <__adddf3+0xc0>
    6730:	4781                	li	a5,0
    6732:	4981                	li	s3,0
    6734:	4481                	li	s1,0
    6736:	bf1d                	j	666c <__adddf3+0x31a>
    6738:	f80898e3          	bnez	a7,66c8 <__adddf3+0x376>
    673c:	050e                	slli	a0,a0,0x3
    673e:	01d71793          	slli	a5,a4,0x1d
    6742:	810d                	srli	a0,a0,0x3
    6744:	00a7e8b3          	or	a7,a5,a0
    6748:	00375793          	srli	a5,a4,0x3
    674c:	bf9d                	j	66c2 <__adddf3+0x370>
    674e:	050e                	slli	a0,a0,0x3
    6750:	01d71793          	slli	a5,a4,0x1d
    6754:	810d                	srli	a0,a0,0x3
    6756:	00a7e8b3          	or	a7,a5,a0
    675a:	84f2                	mv	s1,t3
    675c:	00375793          	srli	a5,a4,0x3
    6760:	b711                	j	6664 <__adddf3+0x312>
    6762:	40930533          	sub	a0,t1,s1
    6766:	12048263          	beqz	s1,688a <__adddf3+0x538>
    676a:	008006b7          	lui	a3,0x800
    676e:	7ff00793          	li	a5,2047
    6772:	8f55                	or	a4,a4,a3
    6774:	2ef30d63          	beq	t1,a5,6a6e <__adddf3+0x71c>
    6778:	03800793          	li	a5,56
    677c:	20a7cb63          	blt	a5,a0,6992 <__adddf3+0x640>
    6780:	47fd                	li	a5,31
    6782:	2aa7c363          	blt	a5,a0,6a28 <__adddf3+0x6d6>
    6786:	02000793          	li	a5,32
    678a:	8f89                	sub	a5,a5,a0
    678c:	00f71933          	sll	s2,a4,a5
    6790:	00af56b3          	srl	a3,t5,a0
    6794:	00ff17b3          	sll	a5,t5,a5
    6798:	00d96933          	or	s2,s2,a3
    679c:	00f037b3          	snez	a5,a5
    67a0:	00a75733          	srl	a4,a4,a0
    67a4:	00f96933          	or	s2,s2,a5
    67a8:	983a                	add	a6,a6,a4
    67aa:	997e                	add	s2,s2,t6
    67ac:	01f937b3          	sltu	a5,s2,t6
    67b0:	01078633          	add	a2,a5,a6
    67b4:	849a                	mv	s1,t1
    67b6:	bdd1                	j	668a <__adddf3+0x338>
    67b8:	008006b7          	lui	a3,0x800
    67bc:	7ff00793          	li	a5,2047
    67c0:	8f55                	or	a4,a4,a3
    67c2:	def319e3          	bne	t1,a5,65b4 <__adddf3+0x262>
    67c6:	00361793          	slli	a5,a2,0x3
    67ca:	838d                	srli	a5,a5,0x3
    67cc:	01d81893          	slli	a7,a6,0x1d
    67d0:	0117e8b3          	or	a7,a5,a7
    67d4:	89f6                	mv	s3,t4
    67d6:	00385793          	srli	a5,a6,0x3
    67da:	b5e5                	j	66c2 <__adddf3+0x370>
    67dc:	fe150713          	addi	a4,a0,-31
    67e0:	02000693          	li	a3,32
    67e4:	00e7d733          	srl	a4,a5,a4
    67e8:	00d60a63          	beq	a2,a3,67fc <__adddf3+0x4aa>
    67ec:	04000693          	li	a3,64
    67f0:	40c68633          	sub	a2,a3,a2
    67f4:	00c79633          	sll	a2,a5,a2
    67f8:	00c96933          	or	s2,s2,a2
    67fc:	01203933          	snez	s2,s2
    6800:	00e96933          	or	s2,s2,a4
    6804:	4601                	li	a2,0
    6806:	4481                	li	s1,0
    6808:	b591                	j	664c <__adddf3+0x2fa>
    680a:	01ff0933          	add	s2,t5,t6
    680e:	010707b3          	add	a5,a4,a6
    6812:	01e93633          	sltu	a2,s2,t5
    6816:	963e                	add	a2,a2,a5
    6818:	00861793          	slli	a5,a2,0x8
    681c:	4485                	li	s1,1
    681e:	e207d7e3          	bgez	a5,664c <__adddf3+0x2fa>
    6822:	4489                	li	s1,2
    6824:	ff8007b7          	lui	a5,0xff800
    6828:	17fd                	addi	a5,a5,-1
    682a:	8ff1                	and	a5,a5,a2
    682c:	00195713          	srli	a4,s2,0x1
    6830:	00197913          	andi	s2,s2,1
    6834:	01276933          	or	s2,a4,s2
    6838:	01f79893          	slli	a7,a5,0x1f
    683c:	0128e933          	or	s2,a7,s2
    6840:	0017d613          	srli	a2,a5,0x1
    6844:	b115                	j	6468 <__adddf3+0x116>
    6846:	fe0e0913          	addi	s2,t3,-32
    684a:	02000793          	li	a5,32
    684e:	012856b3          	srl	a3,a6,s2
    6852:	00fe0a63          	beq	t3,a5,6866 <__adddf3+0x514>
    6856:	04000913          	li	s2,64
    685a:	41c90933          	sub	s2,s2,t3
    685e:	01281933          	sll	s2,a6,s2
    6862:	012fefb3          	or	t6,t6,s2
    6866:	01f03933          	snez	s2,t6
    686a:	00d96933          	or	s2,s2,a3
    686e:	b659                	j	63f4 <__adddf3+0xa2>
    6870:	01e76933          	or	s2,a4,t5
    6874:	01203933          	snez	s2,s2
    6878:	412f8933          	sub	s2,t6,s2
    687c:	012fb7b3          	sltu	a5,t6,s2
    6880:	40f80633          	sub	a2,a6,a5
    6884:	849a                	mv	s1,t1
    6886:	89f6                	mv	s3,t4
    6888:	bea5                	j	6400 <__adddf3+0xae>
    688a:	01e767b3          	or	a5,a4,t5
    688e:	18078263          	beqz	a5,6a12 <__adddf3+0x6c0>
    6892:	fff50793          	addi	a5,a0,-1
    6896:	1c078463          	beqz	a5,6a5e <__adddf3+0x70c>
    689a:	7ff00693          	li	a3,2047
    689e:	12d50463          	beq	a0,a3,69c6 <__adddf3+0x674>
    68a2:	853e                	mv	a0,a5
    68a4:	bdd1                	j	6778 <__adddf3+0x426>
    68a6:	02000793          	li	a5,32
    68aa:	41c787b3          	sub	a5,a5,t3
    68ae:	00f816b3          	sll	a3,a6,a5
    68b2:	00ff9933          	sll	s2,t6,a5
    68b6:	01cfd633          	srl	a2,t6,t3
    68ba:	8ed1                	or	a3,a3,a2
    68bc:	01203933          	snez	s2,s2
    68c0:	01c857b3          	srl	a5,a6,t3
    68c4:	0126e933          	or	s2,a3,s2
    68c8:	973e                	add	a4,a4,a5
    68ca:	bb5d                	j	6680 <__adddf3+0x32e>
    68cc:	00361793          	slli	a5,a2,0x3
    68d0:	838d                	srli	a5,a5,0x3
    68d2:	01d81893          	slli	a7,a6,0x1d
    68d6:	0117e8b3          	or	a7,a5,a7
    68da:	84ae                	mv	s1,a1
    68dc:	00385793          	srli	a5,a6,0x3
    68e0:	89f6                	mv	s3,t4
    68e2:	b349                	j	6664 <__adddf3+0x312>
    68e4:	c3ed                	beqz	a5,69c6 <__adddf3+0x674>
    68e6:	01f86933          	or	s2,a6,t6
    68ea:	dc091fe3          	bnez	s2,66c8 <__adddf3+0x376>
    68ee:	050e                	slli	a0,a0,0x3
    68f0:	01d71793          	slli	a5,a4,0x1d
    68f4:	810d                	srli	a0,a0,0x3
    68f6:	00f568b3          	or	a7,a0,a5
    68fa:	00375793          	srli	a5,a4,0x3
    68fe:	b3d1                	j	66c2 <__adddf3+0x370>
    6900:	0e088163          	beqz	a7,69e2 <__adddf3+0x690>
    6904:	00361693          	slli	a3,a2,0x3
    6908:	01d81793          	slli	a5,a6,0x1d
    690c:	828d                	srli	a3,a3,0x3
    690e:	00d7e8b3          	or	a7,a5,a3
    6912:	89f6                	mv	s3,t4
    6914:	00385793          	srli	a5,a6,0x3
    6918:	bb91                	j	666c <__adddf3+0x31a>
    691a:	41ff0933          	sub	s2,t5,t6
    691e:	410707b3          	sub	a5,a4,a6
    6922:	012f3f33          	sltu	t5,t5,s2
    6926:	41e78633          	sub	a2,a5,t5
    692a:	4485                	li	s1,1
    692c:	bcd1                	j	6400 <__adddf3+0xae>
    692e:	050e                	slli	a0,a0,0x3
    6930:	01d71793          	slli	a5,a4,0x1d
    6934:	810d                	srli	a0,a0,0x3
    6936:	00f568b3          	or	a7,a0,a5
    693a:	84f2                	mv	s1,t3
    693c:	00375793          	srli	a5,a4,0x3
    6940:	b315                	j	6664 <__adddf3+0x312>
    6942:	050e                	slli	a0,a0,0x3
    6944:	01d71793          	slli	a5,a4,0x1d
    6948:	810d                	srli	a0,a0,0x3
    694a:	00a7e8b3          	or	a7,a5,a0
    694e:	00375793          	srli	a5,a4,0x3
    6952:	bb29                	j	666c <__adddf3+0x31a>
    6954:	7ff00793          	li	a5,2047
    6958:	d4f682e3          	beq	a3,a5,669c <__adddf3+0x34a>
    695c:	01ff0933          	add	s2,t5,t6
    6960:	01e93633          	sltu	a2,s2,t5
    6964:	010707b3          	add	a5,a4,a6
    6968:	97b2                	add	a5,a5,a2
    696a:	01f79893          	slli	a7,a5,0x1f
    696e:	00195913          	srli	s2,s2,0x1
    6972:	0128e933          	or	s2,a7,s2
    6976:	0017d613          	srli	a2,a5,0x1
    697a:	84b6                	mv	s1,a3
    697c:	b9c1                	j	664c <__adddf3+0x2fa>
    697e:	41ef8933          	sub	s2,t6,t5
    6982:	40e80733          	sub	a4,a6,a4
    6986:	012fb633          	sltu	a2,t6,s2
    698a:	40c70433          	sub	s0,a4,a2
    698e:	89f6                	mv	s3,t4
    6990:	b449                	j	6412 <__adddf3+0xc0>
    6992:	01e76933          	or	s2,a4,t5
    6996:	01203933          	snez	s2,s2
    699a:	bd01                	j	67aa <__adddf3+0x458>
    699c:	fe058793          	addi	a5,a1,-32
    69a0:	02000693          	li	a3,32
    69a4:	00f757b3          	srl	a5,a4,a5
    69a8:	00d58a63          	beq	a1,a3,69bc <__adddf3+0x66a>
    69ac:	04000693          	li	a3,64
    69b0:	40b685b3          	sub	a1,a3,a1
    69b4:	00b71733          	sll	a4,a4,a1
    69b8:	00ef6f33          	or	t5,t5,a4
    69bc:	01e03933          	snez	s2,t5
    69c0:	00f96933          	or	s2,s2,a5
    69c4:	bd55                	j	6878 <__adddf3+0x526>
    69c6:	00361793          	slli	a5,a2,0x3
    69ca:	838d                	srli	a5,a5,0x3
    69cc:	01d81893          	slli	a7,a6,0x1d
    69d0:	0117e8b3          	or	a7,a5,a7
    69d4:	00385793          	srli	a5,a6,0x3
    69d8:	b1ed                	j	66c2 <__adddf3+0x370>
    69da:	00c968b3          	or	a7,s2,a2
    69de:	c60897e3          	bnez	a7,664c <__adddf3+0x2fa>
    69e2:	4781                	li	a5,0
    69e4:	4981                	li	s3,0
    69e6:	b159                	j	666c <__adddf3+0x31a>
    69e8:	41ef8933          	sub	s2,t6,t5
    69ec:	40e807b3          	sub	a5,a6,a4
    69f0:	012fb633          	sltu	a2,t6,s2
    69f4:	40c78633          	sub	a2,a5,a2
    69f8:	89f6                	mv	s3,t4
    69fa:	4485                	li	s1,1
    69fc:	b411                	j	6400 <__adddf3+0xae>
    69fe:	00361693          	slli	a3,a2,0x3
    6a02:	01d81793          	slli	a5,a6,0x1d
    6a06:	828d                	srli	a3,a3,0x3
    6a08:	00d7e8b3          	or	a7,a5,a3
    6a0c:	00385793          	srli	a5,a6,0x3
    6a10:	b9b1                	j	666c <__adddf3+0x31a>
    6a12:	00361693          	slli	a3,a2,0x3
    6a16:	01d81793          	slli	a5,a6,0x1d
    6a1a:	828d                	srli	a3,a3,0x3
    6a1c:	00d7e8b3          	or	a7,a5,a3
    6a20:	84aa                	mv	s1,a0
    6a22:	00385793          	srli	a5,a6,0x3
    6a26:	b93d                	j	6664 <__adddf3+0x312>
    6a28:	fe050793          	addi	a5,a0,-32
    6a2c:	02000693          	li	a3,32
    6a30:	00f757b3          	srl	a5,a4,a5
    6a34:	00d50a63          	beq	a0,a3,6a48 <__adddf3+0x6f6>
    6a38:	04000693          	li	a3,64
    6a3c:	40a68533          	sub	a0,a3,a0
    6a40:	00a71733          	sll	a4,a4,a0
    6a44:	00ef6f33          	or	t5,t5,a4
    6a48:	01e03933          	snez	s2,t5
    6a4c:	00f96933          	or	s2,s2,a5
    6a50:	bba9                	j	67aa <__adddf3+0x458>
    6a52:	4581                	li	a1,0
    6a54:	7ff00513          	li	a0,2047
    6a58:	000807b7          	lui	a5,0x80
    6a5c:	bca9                	j	64b6 <__adddf3+0x164>
    6a5e:	01ff0933          	add	s2,t5,t6
    6a62:	010707b3          	add	a5,a4,a6
    6a66:	01f93633          	sltu	a2,s2,t6
    6a6a:	963e                	add	a2,a2,a5
    6a6c:	b375                	j	6818 <__adddf3+0x4c6>
    6a6e:	00361693          	slli	a3,a2,0x3
    6a72:	01d81793          	slli	a5,a6,0x1d
    6a76:	828d                	srli	a3,a3,0x3
    6a78:	00d7e8b3          	or	a7,a5,a3
    6a7c:	00385793          	srli	a5,a6,0x3
    6a80:	b189                	j	66c2 <__adddf3+0x370>

00006a82 <__muldf3>:
__muldf3():
    6a82:	7139                	addi	sp,sp,-64
    6a84:	d84a                	sw	s2,48(sp)
    6a86:	0145d913          	srli	s2,a1,0x14
    6a8a:	d64e                	sw	s3,44(sp)
    6a8c:	d452                	sw	s4,40(sp)
    6a8e:	d256                	sw	s5,36(sp)
    6a90:	00c59993          	slli	s3,a1,0xc
    6a94:	de06                	sw	ra,60(sp)
    6a96:	dc22                	sw	s0,56(sp)
    6a98:	da26                	sw	s1,52(sp)
    6a9a:	d05a                	sw	s6,32(sp)
    6a9c:	ce5e                	sw	s7,28(sp)
    6a9e:	7ff97913          	andi	s2,s2,2047
    6aa2:	8a2a                	mv	s4,a0
    6aa4:	00c9d993          	srli	s3,s3,0xc
    6aa8:	01f5da93          	srli	s5,a1,0x1f
    6aac:	0e090d63          	beqz	s2,6ba6 <__muldf3+0x124>
    6ab0:	7ff00793          	li	a5,2047
    6ab4:	18f90663          	beq	s2,a5,6c40 <__muldf3+0x1be>
    6ab8:	01d55413          	srli	s0,a0,0x1d
    6abc:	098e                	slli	s3,s3,0x3
    6abe:	013469b3          	or	s3,s0,s3
    6ac2:	00800437          	lui	s0,0x800
    6ac6:	0089e433          	or	s0,s3,s0
    6aca:	00351493          	slli	s1,a0,0x3
    6ace:	c0190913          	addi	s2,s2,-1023
    6ad2:	4981                	li	s3,0
    6ad4:	4b81                	li	s7,0
    6ad6:	0146d713          	srli	a4,a3,0x14
    6ada:	00c69a13          	slli	s4,a3,0xc
    6ade:	7ff77713          	andi	a4,a4,2047
    6ae2:	85b2                	mv	a1,a2
    6ae4:	00ca5a13          	srli	s4,s4,0xc
    6ae8:	01f6db13          	srli	s6,a3,0x1f
    6aec:	10070b63          	beqz	a4,6c02 <__muldf3+0x180>
    6af0:	7ff00793          	li	a5,2047
    6af4:	04f70363          	beq	a4,a5,6b3a <__muldf3+0xb8>
    6af8:	01d65793          	srli	a5,a2,0x1d
    6afc:	0a0e                	slli	s4,s4,0x3
    6afe:	0147ea33          	or	s4,a5,s4
    6b02:	c0170713          	addi	a4,a4,-1023 # 7ffc01 <_data_lma+0x7f5be9>
    6b06:	008007b7          	lui	a5,0x800
    6b0a:	00fa67b3          	or	a5,s4,a5
    6b0e:	00361593          	slli	a1,a2,0x3
    6b12:	993a                	add	s2,s2,a4
    6b14:	4881                	li	a7,0
    6b16:	016ac733          	xor	a4,s5,s6
    6b1a:	46bd                	li	a3,15
    6b1c:	853a                	mv	a0,a4
    6b1e:	00190813          	addi	a6,s2,1
    6b22:	1736e863          	bltu	a3,s3,6c92 <__muldf3+0x210>
    6b26:	00003617          	auipc	a2,0x3
    6b2a:	29660613          	addi	a2,a2,662 # 9dbc <UARTN+0x28>
    6b2e:	098a                	slli	s3,s3,0x2
    6b30:	99b2                	add	s3,s3,a2
    6b32:	0009a683          	lw	a3,0(s3)
    6b36:	96b2                	add	a3,a3,a2
    6b38:	8682                	jr	a3
    6b3a:	00ca67b3          	or	a5,s4,a2
    6b3e:	7ff90913          	addi	s2,s2,2047
    6b42:	12079963          	bnez	a5,6c74 <__muldf3+0x1f2>
    6b46:	0029e993          	ori	s3,s3,2
    6b4a:	4581                	li	a1,0
    6b4c:	4889                	li	a7,2
    6b4e:	b7e1                	j	6b16 <__muldf3+0x94>
    6b50:	4701                	li	a4,0
    6b52:	7ff00793          	li	a5,2047
    6b56:	00080437          	lui	s0,0x80
    6b5a:	4481                	li	s1,0
    6b5c:	0432                	slli	s0,s0,0xc
    6b5e:	07d2                	slli	a5,a5,0x14
    6b60:	8031                	srli	s0,s0,0xc
    6b62:	077e                	slli	a4,a4,0x1f
    6b64:	8c5d                	or	s0,s0,a5
    6b66:	8c59                	or	s0,s0,a4
    6b68:	85a2                	mv	a1,s0
    6b6a:	50f2                	lw	ra,60(sp)
    6b6c:	5462                	lw	s0,56(sp)
    6b6e:	8526                	mv	a0,s1
    6b70:	5942                	lw	s2,48(sp)
    6b72:	54d2                	lw	s1,52(sp)
    6b74:	59b2                	lw	s3,44(sp)
    6b76:	5a22                	lw	s4,40(sp)
    6b78:	5a92                	lw	s5,36(sp)
    6b7a:	5b02                	lw	s6,32(sp)
    6b7c:	4bf2                	lw	s7,28(sp)
    6b7e:	6121                	addi	sp,sp,64
    6b80:	8082                	ret
    6b82:	855a                	mv	a0,s6
    6b84:	843e                	mv	s0,a5
    6b86:	84ae                	mv	s1,a1
    6b88:	8bc6                	mv	s7,a7
    6b8a:	4789                	li	a5,2
    6b8c:	0efb8d63          	beq	s7,a5,6c86 <__muldf3+0x204>
    6b90:	478d                	li	a5,3
    6b92:	fafb8fe3          	beq	s7,a5,6b50 <__muldf3+0xce>
    6b96:	4785                	li	a5,1
    6b98:	872a                	mv	a4,a0
    6b9a:	38fb9e63          	bne	s7,a5,6f36 <__muldf3+0x4b4>
    6b9e:	4781                	li	a5,0
    6ba0:	4401                	li	s0,0
    6ba2:	4481                	li	s1,0
    6ba4:	bf65                	j	6b5c <__muldf3+0xda>
    6ba6:	00a9e433          	or	s0,s3,a0
    6baa:	c061                	beqz	s0,6c6a <__muldf3+0x1e8>
    6bac:	c636                	sw	a3,12(sp)
    6bae:	c432                	sw	a2,8(sp)
    6bb0:	2a098c63          	beqz	s3,6e68 <__muldf3+0x3e6>
    6bb4:	854e                	mv	a0,s3
    6bb6:	758010ef          	jal	ra,830e <__clzsi2>
    6bba:	4622                	lw	a2,8(sp)
    6bbc:	46b2                	lw	a3,12(sp)
    6bbe:	87aa                	mv	a5,a0
    6bc0:	ff550713          	addi	a4,a0,-11
    6bc4:	4475                	li	s0,29
    6bc6:	ff878493          	addi	s1,a5,-8 # 7ffff8 <_data_lma+0x7f5fe0>
    6bca:	8c19                	sub	s0,s0,a4
    6bcc:	009999b3          	sll	s3,s3,s1
    6bd0:	008a5433          	srl	s0,s4,s0
    6bd4:	01346433          	or	s0,s0,s3
    6bd8:	009a14b3          	sll	s1,s4,s1
    6bdc:	0146d713          	srli	a4,a3,0x14
    6be0:	c0d00913          	li	s2,-1011
    6be4:	00c69a13          	slli	s4,a3,0xc
    6be8:	7ff77713          	andi	a4,a4,2047
    6bec:	40f90933          	sub	s2,s2,a5
    6bf0:	4981                	li	s3,0
    6bf2:	4b81                	li	s7,0
    6bf4:	85b2                	mv	a1,a2
    6bf6:	00ca5a13          	srli	s4,s4,0xc
    6bfa:	01f6db13          	srli	s6,a3,0x1f
    6bfe:	ee0719e3          	bnez	a4,6af0 <__muldf3+0x6e>
    6c02:	00ca67b3          	or	a5,s4,a2
    6c06:	c7b1                	beqz	a5,6c52 <__muldf3+0x1d0>
    6c08:	220a0f63          	beqz	s4,6e46 <__muldf3+0x3c4>
    6c0c:	8552                	mv	a0,s4
    6c0e:	c432                	sw	a2,8(sp)
    6c10:	6fe010ef          	jal	ra,830e <__clzsi2>
    6c14:	4622                	lw	a2,8(sp)
    6c16:	872a                	mv	a4,a0
    6c18:	ff550693          	addi	a3,a0,-11
    6c1c:	47f5                	li	a5,29
    6c1e:	ff870593          	addi	a1,a4,-8
    6c22:	8f95                	sub	a5,a5,a3
    6c24:	00ba1a33          	sll	s4,s4,a1
    6c28:	00f657b3          	srl	a5,a2,a5
    6c2c:	0147e7b3          	or	a5,a5,s4
    6c30:	00b615b3          	sll	a1,a2,a1
    6c34:	40e90933          	sub	s2,s2,a4
    6c38:	c0d90913          	addi	s2,s2,-1011
    6c3c:	4881                	li	a7,0
    6c3e:	bde1                	j	6b16 <__muldf3+0x94>
    6c40:	00a9e433          	or	s0,s3,a0
    6c44:	ec01                	bnez	s0,6c5c <__muldf3+0x1da>
    6c46:	49a1                	li	s3,8
    6c48:	4481                	li	s1,0
    6c4a:	7ff00913          	li	s2,2047
    6c4e:	4b89                	li	s7,2
    6c50:	b559                	j	6ad6 <__muldf3+0x54>
    6c52:	0019e993          	ori	s3,s3,1
    6c56:	4581                	li	a1,0
    6c58:	4885                	li	a7,1
    6c5a:	bd75                	j	6b16 <__muldf3+0x94>
    6c5c:	844e                	mv	s0,s3
    6c5e:	84aa                	mv	s1,a0
    6c60:	49b1                	li	s3,12
    6c62:	7ff00913          	li	s2,2047
    6c66:	4b8d                	li	s7,3
    6c68:	b5bd                	j	6ad6 <__muldf3+0x54>
    6c6a:	4991                	li	s3,4
    6c6c:	4481                	li	s1,0
    6c6e:	4901                	li	s2,0
    6c70:	4b85                	li	s7,1
    6c72:	b595                	j	6ad6 <__muldf3+0x54>
    6c74:	0039e993          	ori	s3,s3,3
    6c78:	87d2                	mv	a5,s4
    6c7a:	488d                	li	a7,3
    6c7c:	bd69                	j	6b16 <__muldf3+0x94>
    6c7e:	4789                	li	a5,2
    6c80:	8556                	mv	a0,s5
    6c82:	f0fb97e3          	bne	s7,a5,6b90 <__muldf3+0x10e>
    6c86:	872a                	mv	a4,a0
    6c88:	7ff00793          	li	a5,2047
    6c8c:	4401                	li	s0,0
    6c8e:	4481                	li	s1,0
    6c90:	b5f1                	j	6b5c <__muldf3+0xda>
    6c92:	6ec1                	lui	t4,0x10
    6c94:	fffe8613          	addi	a2,t4,-1 # ffff <_data_lma+0x5fe7>
    6c98:	0104d693          	srli	a3,s1,0x10
    6c9c:	0105de13          	srli	t3,a1,0x10
    6ca0:	8cf1                	and	s1,s1,a2
    6ca2:	8df1                	and	a1,a1,a2
    6ca4:	02958633          	mul	a2,a1,s1
    6ca8:	02b68333          	mul	t1,a3,a1
    6cac:	01065893          	srli	a7,a2,0x10
    6cb0:	029e0533          	mul	a0,t3,s1
    6cb4:	951a                	add	a0,a0,t1
    6cb6:	98aa                	add	a7,a7,a0
    6cb8:	03c682b3          	mul	t0,a3,t3
    6cbc:	0068f363          	bgeu	a7,t1,6cc2 <__muldf3+0x240>
    6cc0:	92f6                	add	t0,t0,t4
    6cc2:	6fc1                	lui	t6,0x10
    6cc4:	ffff8313          	addi	t1,t6,-1 # ffff <_data_lma+0x5fe7>
    6cc8:	0067f533          	and	a0,a5,t1
    6ccc:	0107d393          	srli	t2,a5,0x10
    6cd0:	0068f7b3          	and	a5,a7,t1
    6cd4:	07c2                	slli	a5,a5,0x10
    6cd6:	00667333          	and	t1,a2,t1
    6cda:	933e                	add	t1,t1,a5
    6cdc:	02950633          	mul	a2,a0,s1
    6ce0:	0108d893          	srli	a7,a7,0x10
    6ce4:	02a687b3          	mul	a5,a3,a0
    6ce8:	01065f13          	srli	t5,a2,0x10
    6cec:	029384b3          	mul	s1,t2,s1
    6cf0:	94be                	add	s1,s1,a5
    6cf2:	94fa                	add	s1,s1,t5
    6cf4:	02768eb3          	mul	t4,a3,t2
    6cf8:	00f4f363          	bgeu	s1,a5,6cfe <__muldf3+0x27c>
    6cfc:	9efe                	add	t4,t4,t6
    6cfe:	6a41                	lui	s4,0x10
    6d00:	fffa0793          	addi	a5,s4,-1 # ffff <_data_lma+0x5fe7>
    6d04:	01045f93          	srli	t6,s0,0x10
    6d08:	00f476b3          	and	a3,s0,a5
    6d0c:	00f4f9b3          	and	s3,s1,a5
    6d10:	8e7d                	and	a2,a2,a5
    6d12:	80c1                	srli	s1,s1,0x10
    6d14:	02d58433          	mul	s0,a1,a3
    6d18:	09c2                	slli	s3,s3,0x10
    6d1a:	01d48f33          	add	t5,s1,t4
    6d1e:	99b2                	add	s3,s3,a2
    6d20:	98ce                	add	a7,a7,s3
    6d22:	02de07b3          	mul	a5,t3,a3
    6d26:	01045e93          	srli	t4,s0,0x10
    6d2a:	02bf85b3          	mul	a1,t6,a1
    6d2e:	97ae                	add	a5,a5,a1
    6d30:	9ebe                	add	t4,t4,a5
    6d32:	03fe0e33          	mul	t3,t3,t6
    6d36:	00bef363          	bgeu	t4,a1,6d3c <__muldf3+0x2ba>
    6d3a:	9e52                	add	t3,t3,s4
    6d3c:	67c1                	lui	a5,0x10
    6d3e:	fff78593          	addi	a1,a5,-1 # ffff <_data_lma+0x5fe7>
    6d42:	00bef633          	and	a2,t4,a1
    6d46:	8c6d                	and	s0,s0,a1
    6d48:	0642                	slli	a2,a2,0x10
    6d4a:	9622                	add	a2,a2,s0
    6d4c:	010ede93          	srli	t4,t4,0x10
    6d50:	02d505b3          	mul	a1,a0,a3
    6d54:	9e76                	add	t3,t3,t4
    6d56:	02af8533          	mul	a0,t6,a0
    6d5a:	0105d413          	srli	s0,a1,0x10
    6d5e:	02d386b3          	mul	a3,t2,a3
    6d62:	96aa                	add	a3,a3,a0
    6d64:	96a2                	add	a3,a3,s0
    6d66:	03f38fb3          	mul	t6,t2,t6
    6d6a:	00a6f363          	bgeu	a3,a0,6d70 <__muldf3+0x2ee>
    6d6e:	9fbe                	add	t6,t6,a5
    6d70:	6541                	lui	a0,0x10
    6d72:	157d                	addi	a0,a0,-1
    6d74:	00a6f7b3          	and	a5,a3,a0
    6d78:	07c2                	slli	a5,a5,0x10
    6d7a:	8d6d                	and	a0,a0,a1
    6d7c:	97aa                	add	a5,a5,a0
    6d7e:	005885b3          	add	a1,a7,t0
    6d82:	0135b9b3          	sltu	s3,a1,s3
    6d86:	97fa                	add	a5,a5,t5
    6d88:	95b2                	add	a1,a1,a2
    6d8a:	01378433          	add	s0,a5,s3
    6d8e:	00c5b633          	sltu	a2,a1,a2
    6d92:	01c40eb3          	add	t4,s0,t3
    6d96:	00ce8533          	add	a0,t4,a2
    6d9a:	01343433          	sltu	s0,s0,s3
    6d9e:	01e7b7b3          	sltu	a5,a5,t5
    6da2:	8fc1                	or	a5,a5,s0
    6da4:	01cebe33          	sltu	t3,t4,t3
    6da8:	0106d413          	srli	s0,a3,0x10
    6dac:	00c53633          	sltu	a2,a0,a2
    6db0:	943e                	add	s0,s0,a5
    6db2:	00ce6633          	or	a2,t3,a2
    6db6:	00959493          	slli	s1,a1,0x9
    6dba:	9432                	add	s0,s0,a2
    6dbc:	947e                	add	s0,s0,t6
    6dbe:	0064e4b3          	or	s1,s1,t1
    6dc2:	0426                	slli	s0,s0,0x9
    6dc4:	01755693          	srli	a3,a0,0x17
    6dc8:	009034b3          	snez	s1,s1
    6dcc:	81dd                	srli	a1,a1,0x17
    6dce:	00951793          	slli	a5,a0,0x9
    6dd2:	8ccd                	or	s1,s1,a1
    6dd4:	8c55                	or	s0,s0,a3
    6dd6:	8cdd                	or	s1,s1,a5
    6dd8:	00741793          	slli	a5,s0,0x7
    6ddc:	0007db63          	bgez	a5,6df2 <__muldf3+0x370>
    6de0:	0014d793          	srli	a5,s1,0x1
    6de4:	8885                	andi	s1,s1,1
    6de6:	01f41693          	slli	a3,s0,0x1f
    6dea:	8cdd                	or	s1,s1,a5
    6dec:	8cd5                	or	s1,s1,a3
    6dee:	8005                	srli	s0,s0,0x1
    6df0:	8942                	mv	s2,a6
    6df2:	3ff90793          	addi	a5,s2,1023
    6df6:	08f05963          	blez	a5,6e88 <__muldf3+0x406>
    6dfa:	0074f693          	andi	a3,s1,7
    6dfe:	ce81                	beqz	a3,6e16 <__muldf3+0x394>
    6e00:	00f4f693          	andi	a3,s1,15
    6e04:	4611                	li	a2,4
    6e06:	00c68863          	beq	a3,a2,6e16 <__muldf3+0x394>
    6e0a:	00448693          	addi	a3,s1,4
    6e0e:	0096b4b3          	sltu	s1,a3,s1
    6e12:	9426                	add	s0,s0,s1
    6e14:	84b6                	mv	s1,a3
    6e16:	00741693          	slli	a3,s0,0x7
    6e1a:	0006d863          	bgez	a3,6e2a <__muldf3+0x3a8>
    6e1e:	ff0007b7          	lui	a5,0xff000
    6e22:	17fd                	addi	a5,a5,-1
    6e24:	8c7d                	and	s0,s0,a5
    6e26:	40090793          	addi	a5,s2,1024
    6e2a:	7fe00693          	li	a3,2046
    6e2e:	0ef6cf63          	blt	a3,a5,6f2c <__muldf3+0x4aa>
    6e32:	0034d693          	srli	a3,s1,0x3
    6e36:	01d41493          	slli	s1,s0,0x1d
    6e3a:	0426                	slli	s0,s0,0x9
    6e3c:	8cd5                	or	s1,s1,a3
    6e3e:	8031                	srli	s0,s0,0xc
    6e40:	7ff7f793          	andi	a5,a5,2047
    6e44:	bb21                	j	6b5c <__muldf3+0xda>
    6e46:	8532                	mv	a0,a2
    6e48:	c432                	sw	a2,8(sp)
    6e4a:	4c4010ef          	jal	ra,830e <__clzsi2>
    6e4e:	01550693          	addi	a3,a0,21 # 10015 <_data_lma+0x5ffd>
    6e52:	47f1                	li	a5,28
    6e54:	02050713          	addi	a4,a0,32
    6e58:	4622                	lw	a2,8(sp)
    6e5a:	dcd7d1e3          	bge	a5,a3,6c1c <__muldf3+0x19a>
    6e5e:	1561                	addi	a0,a0,-8
    6e60:	00a617b3          	sll	a5,a2,a0
    6e64:	4581                	li	a1,0
    6e66:	b3f9                	j	6c34 <__muldf3+0x1b2>
    6e68:	4a6010ef          	jal	ra,830e <__clzsi2>
    6e6c:	01550713          	addi	a4,a0,21
    6e70:	45f1                	li	a1,28
    6e72:	02050793          	addi	a5,a0,32
    6e76:	4622                	lw	a2,8(sp)
    6e78:	46b2                	lw	a3,12(sp)
    6e7a:	d4e5d5e3          	bge	a1,a4,6bc4 <__muldf3+0x142>
    6e7e:	1561                	addi	a0,a0,-8
    6e80:	00aa1433          	sll	s0,s4,a0
    6e84:	4481                	li	s1,0
    6e86:	bb99                	j	6bdc <__muldf3+0x15a>
    6e88:	4685                	li	a3,1
    6e8a:	8e9d                	sub	a3,a3,a5
    6e8c:	e7b1                	bnez	a5,6ed8 <__muldf3+0x456>
    6e8e:	41e90913          	addi	s2,s2,1054
    6e92:	012497b3          	sll	a5,s1,s2
    6e96:	00d4d4b3          	srl	s1,s1,a3
    6e9a:	01241933          	sll	s2,s0,s2
    6e9e:	00f037b3          	snez	a5,a5
    6ea2:	009964b3          	or	s1,s2,s1
    6ea6:	8cdd                	or	s1,s1,a5
    6ea8:	0074f793          	andi	a5,s1,7
    6eac:	00d456b3          	srl	a3,s0,a3
    6eb0:	cf81                	beqz	a5,6ec8 <__muldf3+0x446>
    6eb2:	00f4f793          	andi	a5,s1,15
    6eb6:	4611                	li	a2,4
    6eb8:	00c78863          	beq	a5,a2,6ec8 <__muldf3+0x446>
    6ebc:	00448793          	addi	a5,s1,4
    6ec0:	0097b4b3          	sltu	s1,a5,s1
    6ec4:	96a6                	add	a3,a3,s1
    6ec6:	84be                	mv	s1,a5
    6ec8:	00869793          	slli	a5,a3,0x8
    6ecc:	0407d863          	bgez	a5,6f1c <__muldf3+0x49a>
    6ed0:	4785                	li	a5,1
    6ed2:	4401                	li	s0,0
    6ed4:	4481                	li	s1,0
    6ed6:	b159                	j	6b5c <__muldf3+0xda>
    6ed8:	03800613          	li	a2,56
    6edc:	ccd641e3          	blt	a2,a3,6b9e <__muldf3+0x11c>
    6ee0:	467d                	li	a2,31
    6ee2:	fad656e3          	bge	a2,a3,6e8e <__muldf3+0x40c>
    6ee6:	5605                	li	a2,-31
    6ee8:	40f607b3          	sub	a5,a2,a5
    6eec:	02000593          	li	a1,32
    6ef0:	00f45633          	srl	a2,s0,a5
    6ef4:	00b68763          	beq	a3,a1,6f02 <__muldf3+0x480>
    6ef8:	43e90913          	addi	s2,s2,1086
    6efc:	012417b3          	sll	a5,s0,s2
    6f00:	8cdd                	or	s1,s1,a5
    6f02:	009034b3          	snez	s1,s1
    6f06:	8cd1                	or	s1,s1,a2
    6f08:	0074f693          	andi	a3,s1,7
    6f0c:	4401                	li	s0,0
    6f0e:	ca99                	beqz	a3,6f24 <__muldf3+0x4a2>
    6f10:	00f4f793          	andi	a5,s1,15
    6f14:	4611                	li	a2,4
    6f16:	4681                	li	a3,0
    6f18:	fac792e3          	bne	a5,a2,6ebc <__muldf3+0x43a>
    6f1c:	00969413          	slli	s0,a3,0x9
    6f20:	8031                	srli	s0,s0,0xc
    6f22:	06f6                	slli	a3,a3,0x1d
    6f24:	808d                	srli	s1,s1,0x3
    6f26:	8cd5                	or	s1,s1,a3
    6f28:	4781                	li	a5,0
    6f2a:	b90d                	j	6b5c <__muldf3+0xda>
    6f2c:	7ff00793          	li	a5,2047
    6f30:	4401                	li	s0,0
    6f32:	4481                	li	s1,0
    6f34:	b125                	j	6b5c <__muldf3+0xda>
    6f36:	8942                	mv	s2,a6
    6f38:	bd6d                	j	6df2 <__muldf3+0x370>

00006f3a <__subdf3>:
__subdf3():
    6f3a:	00100737          	lui	a4,0x100
    6f3e:	177d                	addi	a4,a4,-1
    6f40:	1101                	addi	sp,sp,-32
    6f42:	00b77333          	and	t1,a4,a1
    6f46:	0146d893          	srli	a7,a3,0x14
    6f4a:	8f75                	and	a4,a4,a3
    6f4c:	01d65e93          	srli	t4,a2,0x1d
    6f50:	cc22                	sw	s0,24(sp)
    6f52:	ca26                	sw	s1,20(sp)
    6f54:	030e                	slli	t1,t1,0x3
    6f56:	0145d493          	srli	s1,a1,0x14
    6f5a:	01d55793          	srli	a5,a0,0x1d
    6f5e:	070e                	slli	a4,a4,0x3
    6f60:	ce06                	sw	ra,28(sp)
    6f62:	c84a                	sw	s2,16(sp)
    6f64:	c64e                	sw	s3,12(sp)
    6f66:	7ff8f893          	andi	a7,a7,2047
    6f6a:	7ff00e13          	li	t3,2047
    6f6e:	00eee733          	or	a4,t4,a4
    6f72:	7ff4f493          	andi	s1,s1,2047
    6f76:	01f5d413          	srli	s0,a1,0x1f
    6f7a:	0067e333          	or	t1,a5,t1
    6f7e:	00351f13          	slli	t5,a0,0x3
    6f82:	82fd                	srli	a3,a3,0x1f
    6f84:	00361e93          	slli	t4,a2,0x3
    6f88:	19c88063          	beq	a7,t3,7108 <__subdf3+0x1ce>
    6f8c:	0016c693          	xori	a3,a3,1
    6f90:	411485b3          	sub	a1,s1,a7
    6f94:	12d40563          	beq	s0,a3,70be <__subdf3+0x184>
    6f98:	18b05163          	blez	a1,711a <__subdf3+0x1e0>
    6f9c:	1a088b63          	beqz	a7,7152 <__subdf3+0x218>
    6fa0:	008007b7          	lui	a5,0x800
    6fa4:	8f5d                	or	a4,a4,a5
    6fa6:	59c48163          	beq	s1,t3,7528 <__subdf3+0x5ee>
    6faa:	03800793          	li	a5,56
    6fae:	34b7c463          	blt	a5,a1,72f6 <__subdf3+0x3bc>
    6fb2:	47fd                	li	a5,31
    6fb4:	48b7c563          	blt	a5,a1,743e <__subdf3+0x504>
    6fb8:	02000793          	li	a5,32
    6fbc:	8f8d                	sub	a5,a5,a1
    6fbe:	00bed9b3          	srl	s3,t4,a1
    6fc2:	00f71833          	sll	a6,a4,a5
    6fc6:	00fe9eb3          	sll	t4,t4,a5
    6fca:	01386833          	or	a6,a6,s3
    6fce:	00b75733          	srl	a4,a4,a1
    6fd2:	01d039b3          	snez	s3,t4
    6fd6:	01386833          	or	a6,a6,s3
    6fda:	40e30333          	sub	t1,t1,a4
    6fde:	410f09b3          	sub	s3,t5,a6
    6fe2:	013f37b3          	sltu	a5,t5,s3
    6fe6:	40f30633          	sub	a2,t1,a5
    6fea:	00861793          	slli	a5,a2,0x8
    6fee:	2407d363          	bgez	a5,7234 <__subdf3+0x2fa>
    6ff2:	00800937          	lui	s2,0x800
    6ff6:	197d                	addi	s2,s2,-1
    6ff8:	01267933          	and	s2,a2,s2
    6ffc:	2c090f63          	beqz	s2,72da <__subdf3+0x3a0>
    7000:	854a                	mv	a0,s2
    7002:	30c010ef          	jal	ra,830e <__clzsi2>
    7006:	ff850713          	addi	a4,a0,-8
    700a:	02000793          	li	a5,32
    700e:	8f99                	sub	a5,a5,a4
    7010:	00f9d7b3          	srl	a5,s3,a5
    7014:	00e91633          	sll	a2,s2,a4
    7018:	8fd1                	or	a5,a5,a2
    701a:	00e999b3          	sll	s3,s3,a4
    701e:	2a974463          	blt	a4,s1,72c6 <__subdf3+0x38c>
    7022:	8f05                	sub	a4,a4,s1
    7024:	00170613          	addi	a2,a4,1 # 100001 <_data_lma+0xf5fe9>
    7028:	46fd                	li	a3,31
    702a:	3ac6c563          	blt	a3,a2,73d4 <__subdf3+0x49a>
    702e:	02000713          	li	a4,32
    7032:	8f11                	sub	a4,a4,a2
    7034:	00c9d6b3          	srl	a3,s3,a2
    7038:	00e99833          	sll	a6,s3,a4
    703c:	00e79733          	sll	a4,a5,a4
    7040:	8f55                	or	a4,a4,a3
    7042:	01003833          	snez	a6,a6
    7046:	010769b3          	or	s3,a4,a6
    704a:	00c7d633          	srl	a2,a5,a2
    704e:	4481                	li	s1,0
    7050:	0079f793          	andi	a5,s3,7
    7054:	cf81                	beqz	a5,706c <__subdf3+0x132>
    7056:	00f9f693          	andi	a3,s3,15
    705a:	4791                	li	a5,4
    705c:	00f68863          	beq	a3,a5,706c <__subdf3+0x132>
    7060:	00498693          	addi	a3,s3,4
    7064:	0136b833          	sltu	a6,a3,s3
    7068:	9642                	add	a2,a2,a6
    706a:	89b6                	mv	s3,a3
    706c:	00861793          	slli	a5,a2,0x8
    7070:	1c07d663          	bgez	a5,723c <__subdf3+0x302>
    7074:	00148713          	addi	a4,s1,1
    7078:	7ff00793          	li	a5,2047
    707c:	8805                	andi	s0,s0,1
    707e:	20f70663          	beq	a4,a5,728a <__subdf3+0x350>
    7082:	ff8007b7          	lui	a5,0xff800
    7086:	17fd                	addi	a5,a5,-1
    7088:	8ff1                	and	a5,a5,a2
    708a:	01d79813          	slli	a6,a5,0x1d
    708e:	0039d993          	srli	s3,s3,0x3
    7092:	07a6                	slli	a5,a5,0x9
    7094:	01386833          	or	a6,a6,s3
    7098:	83b1                	srli	a5,a5,0xc
    709a:	7ff77713          	andi	a4,a4,2047
    709e:	00c79693          	slli	a3,a5,0xc
    70a2:	0752                	slli	a4,a4,0x14
    70a4:	82b1                	srli	a3,a3,0xc
    70a6:	047e                	slli	s0,s0,0x1f
    70a8:	8ed9                	or	a3,a3,a4
    70aa:	8ec1                	or	a3,a3,s0
    70ac:	40f2                	lw	ra,28(sp)
    70ae:	4462                	lw	s0,24(sp)
    70b0:	44d2                	lw	s1,20(sp)
    70b2:	4942                	lw	s2,16(sp)
    70b4:	49b2                	lw	s3,12(sp)
    70b6:	8542                	mv	a0,a6
    70b8:	85b6                	mv	a1,a3
    70ba:	6105                	addi	sp,sp,32
    70bc:	8082                	ret
    70be:	0ab05663          	blez	a1,716a <__subdf3+0x230>
    70c2:	12088a63          	beqz	a7,71f6 <__subdf3+0x2bc>
    70c6:	008007b7          	lui	a5,0x800
    70ca:	8f5d                	or	a4,a4,a5
    70cc:	2dc48763          	beq	s1,t3,739a <__subdf3+0x460>
    70d0:	03800793          	li	a5,56
    70d4:	18b7c763          	blt	a5,a1,7262 <__subdf3+0x328>
    70d8:	47fd                	li	a5,31
    70da:	3cb7d263          	bge	a5,a1,749e <__subdf3+0x564>
    70de:	fe058813          	addi	a6,a1,-32
    70e2:	02000793          	li	a5,32
    70e6:	010759b3          	srl	s3,a4,a6
    70ea:	00f58a63          	beq	a1,a5,70fe <__subdf3+0x1c4>
    70ee:	04000793          	li	a5,64
    70f2:	40b785b3          	sub	a1,a5,a1
    70f6:	00b71733          	sll	a4,a4,a1
    70fa:	00eeeeb3          	or	t4,t4,a4
    70fe:	01d03833          	snez	a6,t4
    7102:	01386833          	or	a6,a6,s3
    7106:	a295                	j	726a <__subdf3+0x330>
    7108:	01d767b3          	or	a5,a4,t4
    710c:	80148593          	addi	a1,s1,-2047
    7110:	e399                	bnez	a5,7116 <__subdf3+0x1dc>
    7112:	0016c693          	xori	a3,a3,1
    7116:	04d40a63          	beq	s0,a3,716a <__subdf3+0x230>
    711a:	e1d1                	bnez	a1,719e <__subdf3+0x264>
    711c:	00148793          	addi	a5,s1,1
    7120:	7fe7f793          	andi	a5,a5,2046
    7124:	1e079963          	bnez	a5,7316 <__subdf3+0x3dc>
    7128:	01e367b3          	or	a5,t1,t5
    712c:	01d76833          	or	a6,a4,t4
    7130:	16049263          	bnez	s1,7294 <__subdf3+0x35a>
    7134:	3c078263          	beqz	a5,74f8 <__subdf3+0x5be>
    7138:	42081663          	bnez	a6,7564 <__subdf3+0x62a>
    713c:	00351813          	slli	a6,a0,0x3
    7140:	01d31693          	slli	a3,t1,0x1d
    7144:	00385813          	srli	a6,a6,0x3
    7148:	0106e833          	or	a6,a3,a6
    714c:	00335793          	srli	a5,t1,0x3
    7150:	a219                	j	7256 <__subdf3+0x31c>
    7152:	01d767b3          	or	a5,a4,t4
    7156:	1a078563          	beqz	a5,7300 <__subdf3+0x3c6>
    715a:	fff58793          	addi	a5,a1,-1
    715e:	3a078b63          	beqz	a5,7514 <__subdf3+0x5da>
    7162:	23c58c63          	beq	a1,t3,739a <__subdf3+0x460>
    7166:	85be                	mv	a1,a5
    7168:	b589                	j	6faa <__subdf3+0x70>
    716a:	1c059963          	bnez	a1,733c <__subdf3+0x402>
    716e:	00148693          	addi	a3,s1,1
    7172:	7fe6f793          	andi	a5,a3,2046
    7176:	efc1                	bnez	a5,720e <__subdf3+0x2d4>
    7178:	01e367b3          	or	a5,t1,t5
    717c:	36049063          	bnez	s1,74dc <__subdf3+0x5a2>
    7180:	44078d63          	beqz	a5,75da <__subdf3+0x6a0>
    7184:	01d767b3          	or	a5,a4,t4
    7188:	46079463          	bnez	a5,75f0 <__subdf3+0x6b6>
    718c:	050e                	slli	a0,a0,0x3
    718e:	01d31813          	slli	a6,t1,0x1d
    7192:	810d                	srli	a0,a0,0x3
    7194:	00a86833          	or	a6,a6,a0
    7198:	00335793          	srli	a5,t1,0x3
    719c:	a86d                	j	7256 <__subdf3+0x31c>
    719e:	409885b3          	sub	a1,a7,s1
    71a2:	20049763          	bnez	s1,73b0 <__subdf3+0x476>
    71a6:	01e367b3          	or	a5,t1,t5
    71aa:	30078d63          	beqz	a5,74c4 <__subdf3+0x58a>
    71ae:	fff58793          	addi	a5,a1,-1
    71b2:	40078963          	beqz	a5,75c4 <__subdf3+0x68a>
    71b6:	7ff00513          	li	a0,2047
    71ba:	20a58363          	beq	a1,a0,73c0 <__subdf3+0x486>
    71be:	85be                	mv	a1,a5
    71c0:	03800793          	li	a5,56
    71c4:	2ab7c263          	blt	a5,a1,7468 <__subdf3+0x52e>
    71c8:	47fd                	li	a5,31
    71ca:	3cb7c863          	blt	a5,a1,759a <__subdf3+0x660>
    71ce:	02000793          	li	a5,32
    71d2:	8f8d                	sub	a5,a5,a1
    71d4:	00f31833          	sll	a6,t1,a5
    71d8:	00bf5633          	srl	a2,t5,a1
    71dc:	00ff17b3          	sll	a5,t5,a5
    71e0:	00c86833          	or	a6,a6,a2
    71e4:	00f039b3          	snez	s3,a5
    71e8:	00b35333          	srl	t1,t1,a1
    71ec:	01386833          	or	a6,a6,s3
    71f0:	40670733          	sub	a4,a4,t1
    71f4:	acb5                	j	7470 <__subdf3+0x536>
    71f6:	01d767b3          	or	a5,a4,t4
    71fa:	10078363          	beqz	a5,7300 <__subdf3+0x3c6>
    71fe:	fff58793          	addi	a5,a1,-1
    7202:	1e078f63          	beqz	a5,7400 <__subdf3+0x4c6>
    7206:	2fc58063          	beq	a1,t3,74e6 <__subdf3+0x5ac>
    720a:	85be                	mv	a1,a5
    720c:	b5d1                	j	70d0 <__subdf3+0x196>
    720e:	7ff00793          	li	a5,2047
    7212:	06f68b63          	beq	a3,a5,7288 <__subdf3+0x34e>
    7216:	9efa                	add	t4,t4,t5
    7218:	01eeb633          	sltu	a2,t4,t5
    721c:	00e307b3          	add	a5,t1,a4
    7220:	97b2                	add	a5,a5,a2
    7222:	01f79813          	slli	a6,a5,0x1f
    7226:	001ede93          	srli	t4,t4,0x1
    722a:	01d869b3          	or	s3,a6,t4
    722e:	0017d613          	srli	a2,a5,0x1
    7232:	84b6                	mv	s1,a3
    7234:	0079f793          	andi	a5,s3,7
    7238:	e0079fe3          	bnez	a5,7056 <__subdf3+0x11c>
    723c:	01d61793          	slli	a5,a2,0x1d
    7240:	0039d813          	srli	a6,s3,0x3
    7244:	00f86833          	or	a6,a6,a5
    7248:	85a6                	mv	a1,s1
    724a:	00365793          	srli	a5,a2,0x3
    724e:	7ff00713          	li	a4,2047
    7252:	06e58063          	beq	a1,a4,72b2 <__subdf3+0x378>
    7256:	07b2                	slli	a5,a5,0xc
    7258:	83b1                	srli	a5,a5,0xc
    725a:	7ff5f713          	andi	a4,a1,2047
    725e:	8805                	andi	s0,s0,1
    7260:	bd3d                	j	709e <__subdf3+0x164>
    7262:	01d76733          	or	a4,a4,t4
    7266:	00e03833          	snez	a6,a4
    726a:	01e809b3          	add	s3,a6,t5
    726e:	01e9b7b3          	sltu	a5,s3,t5
    7272:	00678633          	add	a2,a5,t1
    7276:	00861793          	slli	a5,a2,0x8
    727a:	fa07dde3          	bgez	a5,7234 <__subdf3+0x2fa>
    727e:	0485                	addi	s1,s1,1
    7280:	7ff00793          	li	a5,2047
    7284:	18f49c63          	bne	s1,a5,741c <__subdf3+0x4e2>
    7288:	8805                	andi	s0,s0,1
    728a:	7ff00713          	li	a4,2047
    728e:	4781                	li	a5,0
    7290:	4801                	li	a6,0
    7292:	b531                	j	709e <__subdf3+0x164>
    7294:	10079163          	bnez	a5,7396 <__subdf3+0x45c>
    7298:	3c080163          	beqz	a6,765a <__subdf3+0x720>
    729c:	00361813          	slli	a6,a2,0x3
    72a0:	01d71793          	slli	a5,a4,0x1d
    72a4:	00385813          	srli	a6,a6,0x3
    72a8:	00f86833          	or	a6,a6,a5
    72ac:	8436                	mv	s0,a3
    72ae:	00375793          	srli	a5,a4,0x3
    72b2:	00f867b3          	or	a5,a6,a5
    72b6:	dbe9                	beqz	a5,7288 <__subdf3+0x34e>
    72b8:	4401                	li	s0,0
    72ba:	7ff00713          	li	a4,2047
    72be:	000807b7          	lui	a5,0x80
    72c2:	4801                	li	a6,0
    72c4:	bbe9                	j	709e <__subdf3+0x164>
    72c6:	ff800637          	lui	a2,0xff800
    72ca:	167d                	addi	a2,a2,-1
    72cc:	8e7d                	and	a2,a2,a5
    72ce:	0079f793          	andi	a5,s3,7
    72d2:	8c99                	sub	s1,s1,a4
    72d4:	d80791e3          	bnez	a5,7056 <__subdf3+0x11c>
    72d8:	b795                	j	723c <__subdf3+0x302>
    72da:	854e                	mv	a0,s3
    72dc:	032010ef          	jal	ra,830e <__clzsi2>
    72e0:	01850713          	addi	a4,a0,24
    72e4:	47fd                	li	a5,31
    72e6:	d2e7d2e3          	bge	a5,a4,700a <__subdf3+0xd0>
    72ea:	ff850613          	addi	a2,a0,-8
    72ee:	00c997b3          	sll	a5,s3,a2
    72f2:	4981                	li	s3,0
    72f4:	b32d                	j	701e <__subdf3+0xe4>
    72f6:	01d76833          	or	a6,a4,t4
    72fa:	01003833          	snez	a6,a6
    72fe:	b1c5                	j	6fde <__subdf3+0xa4>
    7300:	00351813          	slli	a6,a0,0x3
    7304:	01d31793          	slli	a5,t1,0x1d
    7308:	00385813          	srli	a6,a6,0x3
    730c:	00f86833          	or	a6,a6,a5
    7310:	00335793          	srli	a5,t1,0x3
    7314:	bf2d                	j	724e <__subdf3+0x314>
    7316:	41df09b3          	sub	s3,t5,t4
    731a:	40e30933          	sub	s2,t1,a4
    731e:	013f3633          	sltu	a2,t5,s3
    7322:	40c90933          	sub	s2,s2,a2
    7326:	00891793          	slli	a5,s2,0x8
    732a:	2007ca63          	bltz	a5,753e <__subdf3+0x604>
    732e:	0129e833          	or	a6,s3,s2
    7332:	cc0815e3          	bnez	a6,6ffc <__subdf3+0xc2>
    7336:	4781                	li	a5,0
    7338:	4401                	li	s0,0
    733a:	bf31                	j	7256 <__subdf3+0x31c>
    733c:	409885b3          	sub	a1,a7,s1
    7340:	14048163          	beqz	s1,7482 <__subdf3+0x548>
    7344:	008006b7          	lui	a3,0x800
    7348:	7ff00793          	li	a5,2047
    734c:	00d36333          	or	t1,t1,a3
    7350:	20f88163          	beq	a7,a5,7552 <__subdf3+0x618>
    7354:	03800793          	li	a5,56
    7358:	22b7cc63          	blt	a5,a1,7590 <__subdf3+0x656>
    735c:	47fd                	li	a5,31
    735e:	2cb7c963          	blt	a5,a1,7630 <__subdf3+0x6f6>
    7362:	02000793          	li	a5,32
    7366:	8f8d                	sub	a5,a5,a1
    7368:	00f31833          	sll	a6,t1,a5
    736c:	00bf56b3          	srl	a3,t5,a1
    7370:	00ff17b3          	sll	a5,t5,a5
    7374:	00d86833          	or	a6,a6,a3
    7378:	00f039b3          	snez	s3,a5
    737c:	00b35333          	srl	t1,t1,a1
    7380:	01386833          	or	a6,a6,s3
    7384:	971a                	add	a4,a4,t1
    7386:	01d809b3          	add	s3,a6,t4
    738a:	01d9b7b3          	sltu	a5,s3,t4
    738e:	00e78633          	add	a2,a5,a4
    7392:	84c6                	mv	s1,a7
    7394:	b5cd                	j	7276 <__subdf3+0x33c>
    7396:	f20811e3          	bnez	a6,72b8 <__subdf3+0x37e>
    739a:	00351813          	slli	a6,a0,0x3
    739e:	01d31793          	slli	a5,t1,0x1d
    73a2:	00385813          	srli	a6,a6,0x3
    73a6:	00f86833          	or	a6,a6,a5
    73aa:	00335793          	srli	a5,t1,0x3
    73ae:	b711                	j	72b2 <__subdf3+0x378>
    73b0:	00800537          	lui	a0,0x800
    73b4:	7ff00793          	li	a5,2047
    73b8:	00a36333          	or	t1,t1,a0
    73bc:	e0f892e3          	bne	a7,a5,71c0 <__subdf3+0x286>
    73c0:	060e                	slli	a2,a2,0x3
    73c2:	01d71813          	slli	a6,a4,0x1d
    73c6:	820d                	srli	a2,a2,0x3
    73c8:	00c86833          	or	a6,a6,a2
    73cc:	00375793          	srli	a5,a4,0x3
    73d0:	8436                	mv	s0,a3
    73d2:	b5c5                	j	72b2 <__subdf3+0x378>
    73d4:	1705                	addi	a4,a4,-31
    73d6:	02000693          	li	a3,32
    73da:	00e7d733          	srl	a4,a5,a4
    73de:	00d60a63          	beq	a2,a3,73f2 <__subdf3+0x4b8>
    73e2:	04000693          	li	a3,64
    73e6:	40c68633          	sub	a2,a3,a2
    73ea:	00c79633          	sll	a2,a5,a2
    73ee:	00c9e9b3          	or	s3,s3,a2
    73f2:	01303833          	snez	a6,s3
    73f6:	00e869b3          	or	s3,a6,a4
    73fa:	4601                	li	a2,0
    73fc:	4481                	li	s1,0
    73fe:	bd1d                	j	7234 <__subdf3+0x2fa>
    7400:	01df09b3          	add	s3,t5,t4
    7404:	00e307b3          	add	a5,t1,a4
    7408:	01e9bf33          	sltu	t5,s3,t5
    740c:	01e78633          	add	a2,a5,t5
    7410:	00861793          	slli	a5,a2,0x8
    7414:	4485                	li	s1,1
    7416:	e007dfe3          	bgez	a5,7234 <__subdf3+0x2fa>
    741a:	4489                	li	s1,2
    741c:	ff8007b7          	lui	a5,0xff800
    7420:	17fd                	addi	a5,a5,-1
    7422:	8ff1                	and	a5,a5,a2
    7424:	0019d713          	srli	a4,s3,0x1
    7428:	0019f813          	andi	a6,s3,1
    742c:	01076833          	or	a6,a4,a6
    7430:	01f79993          	slli	s3,a5,0x1f
    7434:	0109e9b3          	or	s3,s3,a6
    7438:	0017d613          	srli	a2,a5,0x1
    743c:	b911                	j	7050 <__subdf3+0x116>
    743e:	fe058813          	addi	a6,a1,-32
    7442:	02000793          	li	a5,32
    7446:	010759b3          	srl	s3,a4,a6
    744a:	00f58a63          	beq	a1,a5,745e <__subdf3+0x524>
    744e:	04000793          	li	a5,64
    7452:	40b785b3          	sub	a1,a5,a1
    7456:	00b71733          	sll	a4,a4,a1
    745a:	00eeeeb3          	or	t4,t4,a4
    745e:	01d03833          	snez	a6,t4
    7462:	01386833          	or	a6,a6,s3
    7466:	bea5                	j	6fde <__subdf3+0xa4>
    7468:	01e36333          	or	t1,t1,t5
    746c:	00603833          	snez	a6,t1
    7470:	410e89b3          	sub	s3,t4,a6
    7474:	013eb7b3          	sltu	a5,t4,s3
    7478:	40f70633          	sub	a2,a4,a5
    747c:	84c6                	mv	s1,a7
    747e:	8436                	mv	s0,a3
    7480:	b6ad                	j	6fea <__subdf3+0xb0>
    7482:	01e367b3          	or	a5,t1,t5
    7486:	18078763          	beqz	a5,7614 <__subdf3+0x6da>
    748a:	fff58793          	addi	a5,a1,-1
    748e:	1c078c63          	beqz	a5,7666 <__subdf3+0x72c>
    7492:	7ff00693          	li	a3,2047
    7496:	0ad58e63          	beq	a1,a3,7552 <__subdf3+0x618>
    749a:	85be                	mv	a1,a5
    749c:	bd65                	j	7354 <__subdf3+0x41a>
    749e:	02000793          	li	a5,32
    74a2:	8f8d                	sub	a5,a5,a1
    74a4:	00bed9b3          	srl	s3,t4,a1
    74a8:	00f71833          	sll	a6,a4,a5
    74ac:	00fe9eb3          	sll	t4,t4,a5
    74b0:	01386833          	or	a6,a6,s3
    74b4:	00b75733          	srl	a4,a4,a1
    74b8:	01d039b3          	snez	s3,t4
    74bc:	01386833          	or	a6,a6,s3
    74c0:	933a                	add	t1,t1,a4
    74c2:	b365                	j	726a <__subdf3+0x330>
    74c4:	00361813          	slli	a6,a2,0x3
    74c8:	01d71793          	slli	a5,a4,0x1d
    74cc:	00385813          	srli	a6,a6,0x3
    74d0:	0107e833          	or	a6,a5,a6
    74d4:	8436                	mv	s0,a3
    74d6:	00375793          	srli	a5,a4,0x3
    74da:	bb95                	j	724e <__subdf3+0x314>
    74dc:	cbbd                	beqz	a5,7552 <__subdf3+0x618>
    74de:	01d76733          	or	a4,a4,t4
    74e2:	dc071be3          	bnez	a4,72b8 <__subdf3+0x37e>
    74e6:	050e                	slli	a0,a0,0x3
    74e8:	01d31813          	slli	a6,t1,0x1d
    74ec:	810d                	srli	a0,a0,0x3
    74ee:	00a86833          	or	a6,a6,a0
    74f2:	00335793          	srli	a5,t1,0x3
    74f6:	bb75                	j	72b2 <__subdf3+0x378>
    74f8:	e2080fe3          	beqz	a6,7336 <__subdf3+0x3fc>
    74fc:	00361813          	slli	a6,a2,0x3
    7500:	01d71793          	slli	a5,a4,0x1d
    7504:	00385813          	srli	a6,a6,0x3
    7508:	00f86833          	or	a6,a6,a5
    750c:	8436                	mv	s0,a3
    750e:	00375793          	srli	a5,a4,0x3
    7512:	b391                	j	7256 <__subdf3+0x31c>
    7514:	41df09b3          	sub	s3,t5,t4
    7518:	40e307b3          	sub	a5,t1,a4
    751c:	013f3f33          	sltu	t5,t5,s3
    7520:	41e78633          	sub	a2,a5,t5
    7524:	4485                	li	s1,1
    7526:	b4d1                	j	6fea <__subdf3+0xb0>
    7528:	00351813          	slli	a6,a0,0x3
    752c:	01d31693          	slli	a3,t1,0x1d
    7530:	00385813          	srli	a6,a6,0x3
    7534:	0106e833          	or	a6,a3,a6
    7538:	00335793          	srli	a5,t1,0x3
    753c:	bb9d                	j	72b2 <__subdf3+0x378>
    753e:	41ee89b3          	sub	s3,t4,t5
    7542:	40670633          	sub	a2,a4,t1
    7546:	013eb933          	sltu	s2,t4,s3
    754a:	41260933          	sub	s2,a2,s2
    754e:	8436                	mv	s0,a3
    7550:	b475                	j	6ffc <__subdf3+0xc2>
    7552:	060e                	slli	a2,a2,0x3
    7554:	01d71813          	slli	a6,a4,0x1d
    7558:	820d                	srli	a2,a2,0x3
    755a:	00c86833          	or	a6,a6,a2
    755e:	00375793          	srli	a5,a4,0x3
    7562:	bb81                	j	72b2 <__subdf3+0x378>
    7564:	41df09b3          	sub	s3,t5,t4
    7568:	40e307b3          	sub	a5,t1,a4
    756c:	013f3633          	sltu	a2,t5,s3
    7570:	40c78633          	sub	a2,a5,a2
    7574:	00861793          	slli	a5,a2,0x8
    7578:	0a07d763          	bgez	a5,7626 <__subdf3+0x6ec>
    757c:	41ee89b3          	sub	s3,t4,t5
    7580:	406707b3          	sub	a5,a4,t1
    7584:	013ebeb3          	sltu	t4,t4,s3
    7588:	41d78633          	sub	a2,a5,t4
    758c:	8436                	mv	s0,a3
    758e:	b4c9                	j	7050 <__subdf3+0x116>
    7590:	01e36333          	or	t1,t1,t5
    7594:	00603833          	snez	a6,t1
    7598:	b3fd                	j	7386 <__subdf3+0x44c>
    759a:	fe058813          	addi	a6,a1,-32
    759e:	02000793          	li	a5,32
    75a2:	010359b3          	srl	s3,t1,a6
    75a6:	00f58a63          	beq	a1,a5,75ba <__subdf3+0x680>
    75aa:	04000793          	li	a5,64
    75ae:	40b785b3          	sub	a1,a5,a1
    75b2:	00b31333          	sll	t1,t1,a1
    75b6:	006f6f33          	or	t5,t5,t1
    75ba:	01e03833          	snez	a6,t5
    75be:	01386833          	or	a6,a6,s3
    75c2:	b57d                	j	7470 <__subdf3+0x536>
    75c4:	41ee89b3          	sub	s3,t4,t5
    75c8:	406707b3          	sub	a5,a4,t1
    75cc:	013ebeb3          	sltu	t4,t4,s3
    75d0:	41d78633          	sub	a2,a5,t4
    75d4:	8436                	mv	s0,a3
    75d6:	4485                	li	s1,1
    75d8:	bc09                	j	6fea <__subdf3+0xb0>
    75da:	00361813          	slli	a6,a2,0x3
    75de:	01d71793          	slli	a5,a4,0x1d
    75e2:	00385813          	srli	a6,a6,0x3
    75e6:	00f86833          	or	a6,a6,a5
    75ea:	00375793          	srli	a5,a4,0x3
    75ee:	b1a5                	j	7256 <__subdf3+0x31c>
    75f0:	01df09b3          	add	s3,t5,t4
    75f4:	00e307b3          	add	a5,t1,a4
    75f8:	01e9bf33          	sltu	t5,s3,t5
    75fc:	01e78633          	add	a2,a5,t5
    7600:	00861793          	slli	a5,a2,0x8
    7604:	c207d8e3          	bgez	a5,7234 <__subdf3+0x2fa>
    7608:	ff8007b7          	lui	a5,0xff800
    760c:	17fd                	addi	a5,a5,-1
    760e:	8e7d                	and	a2,a2,a5
    7610:	4485                	li	s1,1
    7612:	b10d                	j	7234 <__subdf3+0x2fa>
    7614:	060e                	slli	a2,a2,0x3
    7616:	01d71813          	slli	a6,a4,0x1d
    761a:	820d                	srli	a2,a2,0x3
    761c:	00c86833          	or	a6,a6,a2
    7620:	00375793          	srli	a5,a4,0x3
    7624:	b12d                	j	724e <__subdf3+0x314>
    7626:	00c9e833          	or	a6,s3,a2
    762a:	d00806e3          	beqz	a6,7336 <__subdf3+0x3fc>
    762e:	b119                	j	7234 <__subdf3+0x2fa>
    7630:	fe058813          	addi	a6,a1,-32
    7634:	02000793          	li	a5,32
    7638:	010359b3          	srl	s3,t1,a6
    763c:	00f58a63          	beq	a1,a5,7650 <__subdf3+0x716>
    7640:	04000793          	li	a5,64
    7644:	40b785b3          	sub	a1,a5,a1
    7648:	00b31333          	sll	t1,t1,a1
    764c:	006f6f33          	or	t5,t5,t1
    7650:	01e03833          	snez	a6,t5
    7654:	01386833          	or	a6,a6,s3
    7658:	b33d                	j	7386 <__subdf3+0x44c>
    765a:	4401                	li	s0,0
    765c:	7ff00713          	li	a4,2047
    7660:	000807b7          	lui	a5,0x80
    7664:	bc2d                	j	709e <__subdf3+0x164>
    7666:	01df09b3          	add	s3,t5,t4
    766a:	00e307b3          	add	a5,t1,a4
    766e:	01d9beb3          	sltu	t4,s3,t4
    7672:	01d78633          	add	a2,a5,t4
    7676:	bb69                	j	7410 <__subdf3+0x4d6>

00007678 <__fixdfsi>:
__fixdfsi():
    7678:	0145d793          	srli	a5,a1,0x14
    767c:	001006b7          	lui	a3,0x100
    7680:	fff68713          	addi	a4,a3,-1 # fffff <_data_lma+0xf5fe7>
    7684:	7ff7f793          	andi	a5,a5,2047
    7688:	3fe00613          	li	a2,1022
    768c:	8f6d                	and	a4,a4,a1
    768e:	81fd                	srli	a1,a1,0x1f
    7690:	00f65c63          	bge	a2,a5,76a8 <__fixdfsi+0x30>
    7694:	41d00613          	li	a2,1053
    7698:	00f65a63          	bge	a2,a5,76ac <__fixdfsi+0x34>
    769c:	80000537          	lui	a0,0x80000
    76a0:	fff54513          	not	a0,a0
    76a4:	952e                	add	a0,a0,a1
    76a6:	8082                	ret
    76a8:	4501                	li	a0,0
    76aa:	8082                	ret
    76ac:	43300613          	li	a2,1075
    76b0:	8e1d                	sub	a2,a2,a5
    76b2:	487d                	li	a6,31
    76b4:	8f55                	or	a4,a4,a3
    76b6:	00c85d63          	bge	a6,a2,76d0 <__fixdfsi+0x58>
    76ba:	41300693          	li	a3,1043
    76be:	40f687b3          	sub	a5,a3,a5
    76c2:	00f757b3          	srl	a5,a4,a5
    76c6:	40f00533          	neg	a0,a5
    76ca:	f1e5                	bnez	a1,76aa <__fixdfsi+0x32>
    76cc:	853e                	mv	a0,a5
    76ce:	8082                	ret
    76d0:	bed78793          	addi	a5,a5,-1043 # 7fbed <_data_lma+0x75bd5>
    76d4:	00f717b3          	sll	a5,a4,a5
    76d8:	00c55533          	srl	a0,a0,a2
    76dc:	8fc9                	or	a5,a5,a0
    76de:	b7e5                	j	76c6 <__fixdfsi+0x4e>

000076e0 <__floatsidf>:
__floatsidf():
    76e0:	1141                	addi	sp,sp,-16
    76e2:	c606                	sw	ra,12(sp)
    76e4:	c422                	sw	s0,8(sp)
    76e6:	c226                	sw	s1,4(sp)
    76e8:	cd0d                	beqz	a0,7722 <__floatsidf+0x42>
    76ea:	41f55793          	srai	a5,a0,0x1f
    76ee:	00a7c4b3          	xor	s1,a5,a0
    76f2:	8c9d                	sub	s1,s1,a5
    76f4:	842a                	mv	s0,a0
    76f6:	8526                	mv	a0,s1
    76f8:	417000ef          	jal	ra,830e <__clzsi2>
    76fc:	41e00693          	li	a3,1054
    7700:	8e89                	sub	a3,a3,a0
    7702:	47a9                	li	a5,10
    7704:	807d                	srli	s0,s0,0x1f
    7706:	7ff6f693          	andi	a3,a3,2047
    770a:	02a7cd63          	blt	a5,a0,7744 <__floatsidf+0x64>
    770e:	472d                	li	a4,11
    7710:	8f09                	sub	a4,a4,a0
    7712:	00e4d7b3          	srl	a5,s1,a4
    7716:	0555                	addi	a0,a0,21
    7718:	07b2                	slli	a5,a5,0xc
    771a:	00a494b3          	sll	s1,s1,a0
    771e:	83b1                	srli	a5,a5,0xc
    7720:	a029                	j	772a <__floatsidf+0x4a>
    7722:	4401                	li	s0,0
    7724:	4681                	li	a3,0
    7726:	4781                	li	a5,0
    7728:	4481                	li	s1,0
    772a:	07b2                	slli	a5,a5,0xc
    772c:	06d2                	slli	a3,a3,0x14
    772e:	83b1                	srli	a5,a5,0xc
    7730:	047e                	slli	s0,s0,0x1f
    7732:	8fd5                	or	a5,a5,a3
    7734:	8fc1                	or	a5,a5,s0
    7736:	40b2                	lw	ra,12(sp)
    7738:	4422                	lw	s0,8(sp)
    773a:	8526                	mv	a0,s1
    773c:	85be                	mv	a1,a5
    773e:	4492                	lw	s1,4(sp)
    7740:	0141                	addi	sp,sp,16
    7742:	8082                	ret
    7744:	1555                	addi	a0,a0,-11
    7746:	00a497b3          	sll	a5,s1,a0
    774a:	07b2                	slli	a5,a5,0xc
    774c:	83b1                	srli	a5,a5,0xc
    774e:	4481                	li	s1,0
    7750:	bfe9                	j	772a <__floatsidf+0x4a>

00007752 <__addsf3>:
__addsf3():
    7752:	1141                	addi	sp,sp,-16
    7754:	00800737          	lui	a4,0x800
    7758:	177d                	addi	a4,a4,-1
    775a:	0175d813          	srli	a6,a1,0x17
    775e:	c226                	sw	s1,4(sp)
    7760:	01755493          	srli	s1,a0,0x17
    7764:	00a77333          	and	t1,a4,a0
    7768:	0ff4f493          	andi	s1,s1,255
    776c:	00b776b3          	and	a3,a4,a1
    7770:	c04a                	sw	s2,0(sp)
    7772:	0ff87813          	andi	a6,a6,255
    7776:	01f55913          	srli	s2,a0,0x1f
    777a:	c606                	sw	ra,12(sp)
    777c:	c422                	sw	s0,8(sp)
    777e:	81fd                	srli	a1,a1,0x1f
    7780:	879a                	mv	a5,t1
    7782:	8526                	mv	a0,s1
    7784:	864a                	mv	a2,s2
    7786:	00331e13          	slli	t3,t1,0x3
    778a:	00369e93          	slli	t4,a3,0x3
    778e:	410488b3          	sub	a7,s1,a6
    7792:	0eb90a63          	beq	s2,a1,7886 <__addsf3+0x134>
    7796:	0d105063          	blez	a7,7856 <__addsf3+0x104>
    779a:	14080463          	beqz	a6,78e2 <__addsf3+0x190>
    779e:	0ff00793          	li	a5,255
    77a2:	14f48b63          	beq	s1,a5,78f8 <__addsf3+0x1a6>
    77a6:	040007b7          	lui	a5,0x4000
    77aa:	00feeeb3          	or	t4,t4,a5
    77ae:	47ed                	li	a5,27
    77b0:	2917c163          	blt	a5,a7,7a32 <__addsf3+0x2e0>
    77b4:	02000793          	li	a5,32
    77b8:	411787b3          	sub	a5,a5,a7
    77bc:	00fe97b3          	sll	a5,t4,a5
    77c0:	011ed8b3          	srl	a7,t4,a7
    77c4:	00f037b3          	snez	a5,a5
    77c8:	00f8e7b3          	or	a5,a7,a5
    77cc:	40fe07b3          	sub	a5,t3,a5
    77d0:	00579713          	slli	a4,a5,0x5
    77d4:	18075e63          	bgez	a4,7970 <__addsf3+0x21e>
    77d8:	04000437          	lui	s0,0x4000
    77dc:	147d                	addi	s0,s0,-1
    77de:	8c7d                	and	s0,s0,a5
    77e0:	8522                	mv	a0,s0
    77e2:	32d000ef          	jal	ra,830e <__clzsi2>
    77e6:	156d                	addi	a0,a0,-5
    77e8:	00a417b3          	sll	a5,s0,a0
    77ec:	1a954863          	blt	a0,s1,799c <__addsf3+0x24a>
    77f0:	8d05                	sub	a0,a0,s1
    77f2:	00150413          	addi	s0,a0,1 # 80000001 <_eusrstack+0x5fffb001>
    77f6:	02000713          	li	a4,32
    77fa:	8f01                	sub	a4,a4,s0
    77fc:	00e79733          	sll	a4,a5,a4
    7800:	00e03733          	snez	a4,a4
    7804:	0087d7b3          	srl	a5,a5,s0
    7808:	8fd9                	or	a5,a5,a4
    780a:	4481                	li	s1,0
    780c:	0077f713          	andi	a4,a5,7
    7810:	c719                	beqz	a4,781e <__addsf3+0xcc>
    7812:	00f7f713          	andi	a4,a5,15
    7816:	4691                	li	a3,4
    7818:	00d70363          	beq	a4,a3,781e <__addsf3+0xcc>
    781c:	0791                	addi	a5,a5,4
    781e:	00579713          	slli	a4,a5,0x5
    7822:	14075b63          	bgez	a4,7978 <__addsf3+0x226>
    7826:	0485                	addi	s1,s1,1
    7828:	0ff00713          	li	a4,255
    782c:	864a                	mv	a2,s2
    782e:	16e48363          	beq	s1,a4,7994 <__addsf3+0x242>
    7832:	079a                	slli	a5,a5,0x6
    7834:	83a5                	srli	a5,a5,0x9
    7836:	0ff4f513          	andi	a0,s1,255
    783a:	40b2                	lw	ra,12(sp)
    783c:	4422                	lw	s0,8(sp)
    783e:	07a6                	slli	a5,a5,0x9
    7840:	01751493          	slli	s1,a0,0x17
    7844:	0097d513          	srli	a0,a5,0x9
    7848:	8d45                	or	a0,a0,s1
    784a:	067e                	slli	a2,a2,0x1f
    784c:	4492                	lw	s1,4(sp)
    784e:	4902                	lw	s2,0(sp)
    7850:	8d51                	or	a0,a0,a2
    7852:	0141                	addi	sp,sp,16
    7854:	8082                	ret
    7856:	0a089963          	bnez	a7,7908 <__addsf3+0x1b6>
    785a:	00148713          	addi	a4,s1,1
    785e:	0fe77713          	andi	a4,a4,254
    7862:	14071763          	bnez	a4,79b0 <__addsf3+0x25e>
    7866:	22049063          	bnez	s1,7a86 <__addsf3+0x334>
    786a:	1e0e0d63          	beqz	t3,7a64 <__addsf3+0x312>
    786e:	fc0e86e3          	beqz	t4,783a <__addsf3+0xe8>
    7872:	41de07b3          	sub	a5,t3,t4
    7876:	00579713          	slli	a4,a5,0x5
    787a:	22075063          	bgez	a4,7a9a <__addsf3+0x348>
    787e:	41ce87b3          	sub	a5,t4,t3
    7882:	892e                	mv	s2,a1
    7884:	b761                	j	780c <__addsf3+0xba>
    7886:	0b105c63          	blez	a7,793e <__addsf3+0x1ec>
    788a:	08080e63          	beqz	a6,7926 <__addsf3+0x1d4>
    788e:	0ff00793          	li	a5,255
    7892:	06f48363          	beq	s1,a5,78f8 <__addsf3+0x1a6>
    7896:	040007b7          	lui	a5,0x4000
    789a:	00feeeb3          	or	t4,t4,a5
    789e:	47ed                	li	a5,27
    78a0:	1f17c963          	blt	a5,a7,7a92 <__addsf3+0x340>
    78a4:	02000793          	li	a5,32
    78a8:	411787b3          	sub	a5,a5,a7
    78ac:	00fe97b3          	sll	a5,t4,a5
    78b0:	011ed8b3          	srl	a7,t4,a7
    78b4:	00f037b3          	snez	a5,a5
    78b8:	00f8e7b3          	or	a5,a7,a5
    78bc:	97f2                	add	a5,a5,t3
    78be:	00579713          	slli	a4,a5,0x5
    78c2:	0a075763          	bgez	a4,7970 <__addsf3+0x21e>
    78c6:	0485                	addi	s1,s1,1
    78c8:	0ff00713          	li	a4,255
    78cc:	0ce48463          	beq	s1,a4,7994 <__addsf3+0x242>
    78d0:	7e0006b7          	lui	a3,0x7e000
    78d4:	0017d713          	srli	a4,a5,0x1
    78d8:	16fd                	addi	a3,a3,-1
    78da:	8b85                	andi	a5,a5,1
    78dc:	8f75                	and	a4,a4,a3
    78de:	8fd9                	or	a5,a5,a4
    78e0:	b735                	j	780c <__addsf3+0xba>
    78e2:	080e8d63          	beqz	t4,797c <__addsf3+0x22a>
    78e6:	18fd                	addi	a7,a7,-1
    78e8:	41de07b3          	sub	a5,t3,t4
    78ec:	ee0882e3          	beqz	a7,77d0 <__addsf3+0x7e>
    78f0:	0ff00793          	li	a5,255
    78f4:	eaf49de3          	bne	s1,a5,77ae <__addsf3+0x5c>
    78f8:	08030d63          	beqz	t1,7992 <__addsf3+0x240>
    78fc:	4601                	li	a2,0
    78fe:	0ff00513          	li	a0,255
    7902:	004007b7          	lui	a5,0x400
    7906:	bf15                	j	783a <__addsf3+0xe8>
    7908:	40980733          	sub	a4,a6,s1
    790c:	e8ed                	bnez	s1,79fe <__addsf3+0x2ac>
    790e:	140e0263          	beqz	t3,7a52 <__addsf3+0x300>
    7912:	177d                	addi	a4,a4,-1
    7914:	18070863          	beqz	a4,7aa4 <__addsf3+0x352>
    7918:	0ff00793          	li	a5,255
    791c:	0ef81963          	bne	a6,a5,7a0e <__addsf3+0x2bc>
    7920:	892e                	mv	s2,a1
    7922:	8336                	mv	t1,a3
    7924:	bfd1                	j	78f8 <__addsf3+0x1a6>
    7926:	040e8b63          	beqz	t4,797c <__addsf3+0x22a>
    792a:	18fd                	addi	a7,a7,-1
    792c:	01de07b3          	add	a5,t3,t4
    7930:	f80887e3          	beqz	a7,78be <__addsf3+0x16c>
    7934:	0ff00793          	li	a5,255
    7938:	f6f493e3          	bne	s1,a5,789e <__addsf3+0x14c>
    793c:	bf75                	j	78f8 <__addsf3+0x1a6>
    793e:	08089563          	bnez	a7,79c8 <__addsf3+0x276>
    7942:	0485                	addi	s1,s1,1
    7944:	0fe4f713          	andi	a4,s1,254
    7948:	12071363          	bnez	a4,7a6e <__addsf3+0x31c>
    794c:	10051763          	bnez	a0,7a5a <__addsf3+0x308>
    7950:	140e0f63          	beqz	t3,7aae <__addsf3+0x35c>
    7954:	ee0e83e3          	beqz	t4,783a <__addsf3+0xe8>
    7958:	01de07b3          	add	a5,t3,t4
    795c:	00579713          	slli	a4,a5,0x5
    7960:	4481                	li	s1,0
    7962:	00075763          	bgez	a4,7970 <__addsf3+0x21e>
    7966:	fc000737          	lui	a4,0xfc000
    796a:	177d                	addi	a4,a4,-1
    796c:	8ff9                	and	a5,a5,a4
    796e:	4485                	li	s1,1
    7970:	0077f713          	andi	a4,a5,7
    7974:	e8071fe3          	bnez	a4,7812 <__addsf3+0xc0>
    7978:	0037d313          	srli	t1,a5,0x3
    797c:	0ff00793          	li	a5,255
    7980:	f6f48ce3          	beq	s1,a5,78f8 <__addsf3+0x1a6>
    7984:	00931793          	slli	a5,t1,0x9
    7988:	83a5                	srli	a5,a5,0x9
    798a:	0ff4f513          	andi	a0,s1,255
    798e:	864a                	mv	a2,s2
    7990:	b56d                	j	783a <__addsf3+0xe8>
    7992:	864a                	mv	a2,s2
    7994:	0ff00513          	li	a0,255
    7998:	4781                	li	a5,0
    799a:	b545                	j	783a <__addsf3+0xe8>
    799c:	fc000737          	lui	a4,0xfc000
    79a0:	177d                	addi	a4,a4,-1
    79a2:	8ff9                	and	a5,a5,a4
    79a4:	0077f713          	andi	a4,a5,7
    79a8:	8c89                	sub	s1,s1,a0
    79aa:	e60714e3          	bnez	a4,7812 <__addsf3+0xc0>
    79ae:	b7e9                	j	7978 <__addsf3+0x226>
    79b0:	41de0433          	sub	s0,t3,t4
    79b4:	00541793          	slli	a5,s0,0x5
    79b8:	0c07c363          	bltz	a5,7a7e <__addsf3+0x32c>
    79bc:	e20412e3          	bnez	s0,77e0 <__addsf3+0x8e>
    79c0:	4601                	li	a2,0
    79c2:	4501                	li	a0,0
    79c4:	4781                	li	a5,0
    79c6:	bd95                	j	783a <__addsf3+0xe8>
    79c8:	40980733          	sub	a4,a6,s1
    79cc:	c4ad                	beqz	s1,7a36 <__addsf3+0x2e4>
    79ce:	0ff00793          	li	a5,255
    79d2:	f4f808e3          	beq	a6,a5,7922 <__addsf3+0x1d0>
    79d6:	040007b7          	lui	a5,0x4000
    79da:	00fe6e33          	or	t3,t3,a5
    79de:	47ed                	li	a5,27
    79e0:	0ce7cc63          	blt	a5,a4,7ab8 <__addsf3+0x366>
    79e4:	02000793          	li	a5,32
    79e8:	8f99                	sub	a5,a5,a4
    79ea:	00fe17b3          	sll	a5,t3,a5
    79ee:	00ee5733          	srl	a4,t3,a4
    79f2:	00f037b3          	snez	a5,a5
    79f6:	8fd9                	or	a5,a5,a4
    79f8:	97f6                	add	a5,a5,t4
    79fa:	84c2                	mv	s1,a6
    79fc:	b5c9                	j	78be <__addsf3+0x16c>
    79fe:	0ff00793          	li	a5,255
    7a02:	f0f80fe3          	beq	a6,a5,7920 <__addsf3+0x1ce>
    7a06:	040007b7          	lui	a5,0x4000
    7a0a:	00fe6e33          	or	t3,t3,a5
    7a0e:	47ed                	li	a5,27
    7a10:	08e7c363          	blt	a5,a4,7a96 <__addsf3+0x344>
    7a14:	02000693          	li	a3,32
    7a18:	8e99                	sub	a3,a3,a4
    7a1a:	00de16b3          	sll	a3,t3,a3
    7a1e:	00ee57b3          	srl	a5,t3,a4
    7a22:	00d03733          	snez	a4,a3
    7a26:	8fd9                	or	a5,a5,a4
    7a28:	40fe87b3          	sub	a5,t4,a5
    7a2c:	84c2                	mv	s1,a6
    7a2e:	892e                	mv	s2,a1
    7a30:	b345                	j	77d0 <__addsf3+0x7e>
    7a32:	4785                	li	a5,1
    7a34:	bb61                	j	77cc <__addsf3+0x7a>
    7a36:	060e0e63          	beqz	t3,7ab2 <__addsf3+0x360>
    7a3a:	177d                	addi	a4,a4,-1
    7a3c:	01de07b3          	add	a5,t3,t4
    7a40:	84c2                	mv	s1,a6
    7a42:	e6070ee3          	beqz	a4,78be <__addsf3+0x16c>
    7a46:	0ff00793          	li	a5,255
    7a4a:	f8f81ae3          	bne	a6,a5,79de <__addsf3+0x28c>
    7a4e:	8336                	mv	t1,a3
    7a50:	b565                	j	78f8 <__addsf3+0x1a6>
    7a52:	8336                	mv	t1,a3
    7a54:	84c2                	mv	s1,a6
    7a56:	892e                	mv	s2,a1
    7a58:	b715                	j	797c <__addsf3+0x22a>
    7a5a:	ec0e04e3          	beqz	t3,7922 <__addsf3+0x1d0>
    7a5e:	e80e8de3          	beqz	t4,78f8 <__addsf3+0x1a6>
    7a62:	bd69                	j	78fc <__addsf3+0x1aa>
    7a64:	020e8d63          	beqz	t4,7a9e <__addsf3+0x34c>
    7a68:	862e                	mv	a2,a1
    7a6a:	87b6                	mv	a5,a3
    7a6c:	b3f9                	j	783a <__addsf3+0xe8>
    7a6e:	0ff00793          	li	a5,255
    7a72:	f2f481e3          	beq	s1,a5,7994 <__addsf3+0x242>
    7a76:	01de07b3          	add	a5,t3,t4
    7a7a:	8385                	srli	a5,a5,0x1
    7a7c:	bdd5                	j	7970 <__addsf3+0x21e>
    7a7e:	41ce8433          	sub	s0,t4,t3
    7a82:	892e                	mv	s2,a1
    7a84:	bbb1                	j	77e0 <__addsf3+0x8e>
    7a86:	fc0e1ce3          	bnez	t3,7a5e <__addsf3+0x30c>
    7a8a:	e60e89e3          	beqz	t4,78fc <__addsf3+0x1aa>
    7a8e:	892e                	mv	s2,a1
    7a90:	bd49                	j	7922 <__addsf3+0x1d0>
    7a92:	4785                	li	a5,1
    7a94:	b525                	j	78bc <__addsf3+0x16a>
    7a96:	4785                	li	a5,1
    7a98:	bf41                	j	7a28 <__addsf3+0x2d6>
    7a9a:	ec079be3          	bnez	a5,7970 <__addsf3+0x21e>
    7a9e:	4601                	li	a2,0
    7aa0:	4781                	li	a5,0
    7aa2:	bb61                	j	783a <__addsf3+0xe8>
    7aa4:	41ce87b3          	sub	a5,t4,t3
    7aa8:	84c2                	mv	s1,a6
    7aaa:	892e                	mv	s2,a1
    7aac:	b315                	j	77d0 <__addsf3+0x7e>
    7aae:	87b6                	mv	a5,a3
    7ab0:	b369                	j	783a <__addsf3+0xe8>
    7ab2:	8336                	mv	t1,a3
    7ab4:	84c2                	mv	s1,a6
    7ab6:	b5d9                	j	797c <__addsf3+0x22a>
    7ab8:	4785                	li	a5,1
    7aba:	bf3d                	j	79f8 <__addsf3+0x2a6>

00007abc <__gesf2>:
__gtsf2():
    7abc:	01755693          	srli	a3,a0,0x17
    7ac0:	008007b7          	lui	a5,0x800
    7ac4:	17fd                	addi	a5,a5,-1
    7ac6:	0175d613          	srli	a2,a1,0x17
    7aca:	0ff6f693          	andi	a3,a3,255
    7ace:	0ff00813          	li	a6,255
    7ad2:	00a7f8b3          	and	a7,a5,a0
    7ad6:	01f55713          	srli	a4,a0,0x1f
    7ada:	8fed                	and	a5,a5,a1
    7adc:	0ff67613          	andi	a2,a2,255
    7ae0:	81fd                	srli	a1,a1,0x1f
    7ae2:	03068163          	beq	a3,a6,7b04 <__gesf2+0x48>
    7ae6:	01060c63          	beq	a2,a6,7afe <__gesf2+0x42>
    7aea:	e28d                	bnez	a3,7b0c <__gesf2+0x50>
    7aec:	e211                	bnez	a2,7af0 <__gesf2+0x34>
    7aee:	c3b1                	beqz	a5,7b32 <__gesf2+0x76>
    7af0:	02088e63          	beqz	a7,7b2c <__gesf2+0x70>
    7af4:	04b70563          	beq	a4,a1,7b3e <__gesf2+0x82>
    7af8:	4505                	li	a0,1
    7afa:	e71d                	bnez	a4,7b28 <__gesf2+0x6c>
    7afc:	8082                	ret
    7afe:	d7f5                	beqz	a5,7aea <__gesf2+0x2e>
    7b00:	5579                	li	a0,-2
    7b02:	8082                	ret
    7b04:	fe089ee3          	bnez	a7,7b00 <__gesf2+0x44>
    7b08:	02d60963          	beq	a2,a3,7b3a <__gesf2+0x7e>
    7b0c:	e211                	bnez	a2,7b10 <__gesf2+0x54>
    7b0e:	d7ed                	beqz	a5,7af8 <__gesf2+0x3c>
    7b10:	feb714e3          	bne	a4,a1,7af8 <__gesf2+0x3c>
    7b14:	fed642e3          	blt	a2,a3,7af8 <__gesf2+0x3c>
    7b18:	00c6c763          	blt	a3,a2,7b26 <__gesf2+0x6a>
    7b1c:	fd17eee3          	bltu	a5,a7,7af8 <__gesf2+0x3c>
    7b20:	4501                	li	a0,0
    7b22:	fcf8fde3          	bgeu	a7,a5,7afc <__gesf2+0x40>
    7b26:	e701                	bnez	a4,7b2e <__gesf2+0x72>
    7b28:	557d                	li	a0,-1
    7b2a:	8082                	ret
    7b2c:	ddf5                	beqz	a1,7b28 <__gesf2+0x6c>
    7b2e:	4505                	li	a0,1
    7b30:	8082                	ret
    7b32:	4501                	li	a0,0
    7b34:	fc0892e3          	bnez	a7,7af8 <__gesf2+0x3c>
    7b38:	8082                	ret
    7b3a:	dbf9                	beqz	a5,7b10 <__gesf2+0x54>
    7b3c:	b7d1                	j	7b00 <__gesf2+0x44>
    7b3e:	4681                	li	a3,0
    7b40:	bfe1                	j	7b18 <__gesf2+0x5c>

00007b42 <__lesf2>:
__lesf2():
    7b42:	01755693          	srli	a3,a0,0x17
    7b46:	008007b7          	lui	a5,0x800
    7b4a:	17fd                	addi	a5,a5,-1
    7b4c:	0175d613          	srli	a2,a1,0x17
    7b50:	0ff6f693          	andi	a3,a3,255
    7b54:	0ff00813          	li	a6,255
    7b58:	00a7f8b3          	and	a7,a5,a0
    7b5c:	01f55713          	srli	a4,a0,0x1f
    7b60:	8fed                	and	a5,a5,a1
    7b62:	0ff67613          	andi	a2,a2,255
    7b66:	81fd                	srli	a1,a1,0x1f
    7b68:	03068763          	beq	a3,a6,7b96 <__lesf2+0x54>
    7b6c:	01060963          	beq	a2,a6,7b7e <__lesf2+0x3c>
    7b70:	ea85                	bnez	a3,7ba0 <__lesf2+0x5e>
    7b72:	ea11                	bnez	a2,7b86 <__lesf2+0x44>
    7b74:	eb89                	bnez	a5,7b86 <__lesf2+0x44>
    7b76:	4501                	li	a0,0
    7b78:	00089b63          	bnez	a7,7b8e <__lesf2+0x4c>
    7b7c:	8082                	ret
    7b7e:	4509                	li	a0,2
    7b80:	fff5                	bnez	a5,7b7c <__lesf2+0x3a>
    7b82:	dae5                	beqz	a3,7b72 <__lesf2+0x30>
    7b84:	a831                	j	7ba0 <__lesf2+0x5e>
    7b86:	02088c63          	beqz	a7,7bbe <__lesf2+0x7c>
    7b8a:	04b70063          	beq	a4,a1,7bca <__lesf2+0x88>
    7b8e:	4505                	li	a0,1
    7b90:	d775                	beqz	a4,7b7c <__lesf2+0x3a>
    7b92:	557d                	li	a0,-1
    7b94:	8082                	ret
    7b96:	4509                	li	a0,2
    7b98:	02089863          	bnez	a7,7bc8 <__lesf2+0x86>
    7b9c:	02d60463          	beq	a2,a3,7bc4 <__lesf2+0x82>
    7ba0:	e211                	bnez	a2,7ba4 <__lesf2+0x62>
    7ba2:	d7f5                	beqz	a5,7b8e <__lesf2+0x4c>
    7ba4:	feb715e3          	bne	a4,a1,7b8e <__lesf2+0x4c>
    7ba8:	fed643e3          	blt	a2,a3,7b8e <__lesf2+0x4c>
    7bac:	00c6c763          	blt	a3,a2,7bba <__lesf2+0x78>
    7bb0:	fd17efe3          	bltu	a5,a7,7b8e <__lesf2+0x4c>
    7bb4:	4501                	li	a0,0
    7bb6:	fcf8f3e3          	bgeu	a7,a5,7b7c <__lesf2+0x3a>
    7bba:	e319                	bnez	a4,7bc0 <__lesf2+0x7e>
    7bbc:	bfd9                	j	7b92 <__lesf2+0x50>
    7bbe:	d9f1                	beqz	a1,7b92 <__lesf2+0x50>
    7bc0:	4505                	li	a0,1
    7bc2:	8082                	ret
    7bc4:	d3e5                	beqz	a5,7ba4 <__lesf2+0x62>
    7bc6:	8082                	ret
    7bc8:	8082                	ret
    7bca:	4681                	li	a3,0
    7bcc:	b7c5                	j	7bac <__lesf2+0x6a>

00007bce <__mulsf3>:
__mulsf3():
    7bce:	7179                	addi	sp,sp,-48
    7bd0:	d422                	sw	s0,40(sp)
    7bd2:	01755413          	srli	s0,a0,0x17
    7bd6:	ce4e                	sw	s3,28(sp)
    7bd8:	cc52                	sw	s4,24(sp)
    7bda:	00951993          	slli	s3,a0,0x9
    7bde:	d606                	sw	ra,44(sp)
    7be0:	d226                	sw	s1,36(sp)
    7be2:	d04a                	sw	s2,32(sp)
    7be4:	ca56                	sw	s5,20(sp)
    7be6:	c85a                	sw	s6,16(sp)
    7be8:	0ff47413          	andi	s0,s0,255
    7bec:	0099d993          	srli	s3,s3,0x9
    7bf0:	01f55a13          	srli	s4,a0,0x1f
    7bf4:	c469                	beqz	s0,7cbe <__mulsf3+0xf0>
    7bf6:	0ff00793          	li	a5,255
    7bfa:	0ef40863          	beq	s0,a5,7cea <__mulsf3+0x11c>
    7bfe:	00399793          	slli	a5,s3,0x3
    7c02:	04000737          	lui	a4,0x4000
    7c06:	00e7e9b3          	or	s3,a5,a4
    7c0a:	f8140413          	addi	s0,s0,-127 # 3ffff81 <_data_lma+0x3ff5f69>
    7c0e:	4481                	li	s1,0
    7c10:	4b01                	li	s6,0
    7c12:	0175d713          	srli	a4,a1,0x17
    7c16:	00959a93          	slli	s5,a1,0x9
    7c1a:	0ff77713          	andi	a4,a4,255
    7c1e:	009ada93          	srli	s5,s5,0x9
    7c22:	01f5d913          	srli	s2,a1,0x1f
    7c26:	cf45                	beqz	a4,7cde <__mulsf3+0x110>
    7c28:	0ff00793          	li	a5,255
    7c2c:	02f70c63          	beq	a4,a5,7c64 <__mulsf3+0x96>
    7c30:	0a8e                	slli	s5,s5,0x3
    7c32:	f8170713          	addi	a4,a4,-127 # 3ffff81 <_data_lma+0x3ff5f69>
    7c36:	040007b7          	lui	a5,0x4000
    7c3a:	00faeab3          	or	s5,s5,a5
    7c3e:	943a                	add	s0,s0,a4
    7c40:	4601                	li	a2,0
    7c42:	012a4533          	xor	a0,s4,s2
    7c46:	47bd                	li	a5,15
    7c48:	86aa                	mv	a3,a0
    7c4a:	00140593          	addi	a1,s0,1
    7c4e:	1097e063          	bltu	a5,s1,7d4e <__mulsf3+0x180>
    7c52:	00002717          	auipc	a4,0x2
    7c56:	1aa70713          	addi	a4,a4,426 # 9dfc <UARTN+0x68>
    7c5a:	048a                	slli	s1,s1,0x2
    7c5c:	94ba                	add	s1,s1,a4
    7c5e:	409c                	lw	a5,0(s1)
    7c60:	97ba                	add	a5,a5,a4
    7c62:	8782                	jr	a5
    7c64:	0ff40413          	addi	s0,s0,255
    7c68:	0c0a9663          	bnez	s5,7d34 <__mulsf3+0x166>
    7c6c:	0024e493          	ori	s1,s1,2
    7c70:	4609                	li	a2,2
    7c72:	bfc1                	j	7c42 <__mulsf3+0x74>
    7c74:	4501                	li	a0,0
    7c76:	0ff00713          	li	a4,255
    7c7a:	004007b7          	lui	a5,0x400
    7c7e:	50b2                	lw	ra,44(sp)
    7c80:	5422                	lw	s0,40(sp)
    7c82:	07a6                	slli	a5,a5,0x9
    7c84:	075e                	slli	a4,a4,0x17
    7c86:	83a5                	srli	a5,a5,0x9
    7c88:	057e                	slli	a0,a0,0x1f
    7c8a:	8fd9                	or	a5,a5,a4
    7c8c:	5492                	lw	s1,36(sp)
    7c8e:	5902                	lw	s2,32(sp)
    7c90:	49f2                	lw	s3,28(sp)
    7c92:	4a62                	lw	s4,24(sp)
    7c94:	4ad2                	lw	s5,20(sp)
    7c96:	4b42                	lw	s6,16(sp)
    7c98:	8d5d                	or	a0,a0,a5
    7c9a:	6145                	addi	sp,sp,48
    7c9c:	8082                	ret
    7c9e:	86ca                	mv	a3,s2
    7ca0:	89d6                	mv	s3,s5
    7ca2:	8b32                	mv	s6,a2
    7ca4:	4789                	li	a5,2
    7ca6:	08fb0f63          	beq	s6,a5,7d44 <__mulsf3+0x176>
    7caa:	478d                	li	a5,3
    7cac:	fcfb04e3          	beq	s6,a5,7c74 <__mulsf3+0xa6>
    7cb0:	4785                	li	a5,1
    7cb2:	8536                	mv	a0,a3
    7cb4:	1afb1063          	bne	s6,a5,7e54 <__mulsf3+0x286>
    7cb8:	4701                	li	a4,0
    7cba:	4781                	li	a5,0
    7cbc:	b7c9                	j	7c7e <__mulsf3+0xb0>
    7cbe:	04099d63          	bnez	s3,7d18 <__mulsf3+0x14a>
    7cc2:	0175d713          	srli	a4,a1,0x17
    7cc6:	00959a93          	slli	s5,a1,0x9
    7cca:	0ff77713          	andi	a4,a4,255
    7cce:	4491                	li	s1,4
    7cd0:	4401                	li	s0,0
    7cd2:	4b05                	li	s6,1
    7cd4:	009ada93          	srli	s5,s5,0x9
    7cd8:	01f5d913          	srli	s2,a1,0x1f
    7cdc:	f731                	bnez	a4,7c28 <__mulsf3+0x5a>
    7cde:	000a9d63          	bnez	s5,7cf8 <__mulsf3+0x12a>
    7ce2:	0014e493          	ori	s1,s1,1
    7ce6:	4605                	li	a2,1
    7ce8:	bfa9                	j	7c42 <__mulsf3+0x74>
    7cea:	02099263          	bnez	s3,7d0e <__mulsf3+0x140>
    7cee:	44a1                	li	s1,8
    7cf0:	0ff00413          	li	s0,255
    7cf4:	4b09                	li	s6,2
    7cf6:	bf31                	j	7c12 <__mulsf3+0x44>
    7cf8:	8556                	mv	a0,s5
    7cfa:	2d11                	jal	830e <__clzsi2>
    7cfc:	ffb50793          	addi	a5,a0,-5
    7d00:	8c09                	sub	s0,s0,a0
    7d02:	00fa9ab3          	sll	s5,s5,a5
    7d06:	f8a40413          	addi	s0,s0,-118
    7d0a:	4601                	li	a2,0
    7d0c:	bf1d                	j	7c42 <__mulsf3+0x74>
    7d0e:	44b1                	li	s1,12
    7d10:	0ff00413          	li	s0,255
    7d14:	4b0d                	li	s6,3
    7d16:	bdf5                	j	7c12 <__mulsf3+0x44>
    7d18:	854e                	mv	a0,s3
    7d1a:	c62e                	sw	a1,12(sp)
    7d1c:	2bcd                	jal	830e <__clzsi2>
    7d1e:	ffb50793          	addi	a5,a0,-5
    7d22:	f8a00413          	li	s0,-118
    7d26:	00f999b3          	sll	s3,s3,a5
    7d2a:	8c09                	sub	s0,s0,a0
    7d2c:	4481                	li	s1,0
    7d2e:	4b01                	li	s6,0
    7d30:	45b2                	lw	a1,12(sp)
    7d32:	b5c5                	j	7c12 <__mulsf3+0x44>
    7d34:	0034e493          	ori	s1,s1,3
    7d38:	460d                	li	a2,3
    7d3a:	b721                	j	7c42 <__mulsf3+0x74>
    7d3c:	4789                	li	a5,2
    7d3e:	86d2                	mv	a3,s4
    7d40:	f6fb15e3          	bne	s6,a5,7caa <__mulsf3+0xdc>
    7d44:	8536                	mv	a0,a3
    7d46:	0ff00713          	li	a4,255
    7d4a:	4781                	li	a5,0
    7d4c:	bf0d                	j	7c7e <__mulsf3+0xb0>
    7d4e:	6341                	lui	t1,0x10
    7d50:	fff30693          	addi	a3,t1,-1 # ffff <_data_lma+0x5fe7>
    7d54:	0109d613          	srli	a2,s3,0x10
    7d58:	010ad893          	srli	a7,s5,0x10
    7d5c:	00d9f7b3          	and	a5,s3,a3
    7d60:	00dafab3          	and	s5,s5,a3
    7d64:	03578833          	mul	a6,a5,s5
    7d68:	02f889b3          	mul	s3,a7,a5
    7d6c:	01085713          	srli	a4,a6,0x10
    7d70:	03560ab3          	mul	s5,a2,s5
    7d74:	99d6                	add	s3,s3,s5
    7d76:	974e                	add	a4,a4,s3
    7d78:	03160633          	mul	a2,a2,a7
    7d7c:	01577363          	bgeu	a4,s5,7d82 <__mulsf3+0x1b4>
    7d80:	961a                	add	a2,a2,t1
    7d82:	67c1                	lui	a5,0x10
    7d84:	17fd                	addi	a5,a5,-1
    7d86:	00f776b3          	and	a3,a4,a5
    7d8a:	00f87833          	and	a6,a6,a5
    7d8e:	06c2                	slli	a3,a3,0x10
    7d90:	96c2                	add	a3,a3,a6
    7d92:	00669993          	slli	s3,a3,0x6
    7d96:	01075793          	srli	a5,a4,0x10
    7d9a:	013039b3          	snez	s3,s3
    7d9e:	82e9                	srli	a3,a3,0x1a
    7da0:	97b2                	add	a5,a5,a2
    7da2:	079a                	slli	a5,a5,0x6
    7da4:	00d9e6b3          	or	a3,s3,a3
    7da8:	00d7e9b3          	or	s3,a5,a3
    7dac:	00499793          	slli	a5,s3,0x4
    7db0:	0007d963          	bgez	a5,7dc2 <__mulsf3+0x1f4>
    7db4:	0019d713          	srli	a4,s3,0x1
    7db8:	0019f793          	andi	a5,s3,1
    7dbc:	00f769b3          	or	s3,a4,a5
    7dc0:	842e                	mv	s0,a1
    7dc2:	07f40713          	addi	a4,s0,127
    7dc6:	04e05063          	blez	a4,7e06 <__mulsf3+0x238>
    7dca:	0079f793          	andi	a5,s3,7
    7dce:	c799                	beqz	a5,7ddc <__mulsf3+0x20e>
    7dd0:	00f9f793          	andi	a5,s3,15
    7dd4:	4691                	li	a3,4
    7dd6:	00d78363          	beq	a5,a3,7ddc <__mulsf3+0x20e>
    7dda:	0991                	addi	s3,s3,4
    7ddc:	00499793          	slli	a5,s3,0x4
    7de0:	0007d963          	bgez	a5,7df2 <__mulsf3+0x224>
    7de4:	f80007b7          	lui	a5,0xf8000
    7de8:	17fd                	addi	a5,a5,-1
    7dea:	00f9f9b3          	and	s3,s3,a5
    7dee:	08040713          	addi	a4,s0,128
    7df2:	0fe00793          	li	a5,254
    7df6:	04e7cb63          	blt	a5,a4,7e4c <__mulsf3+0x27e>
    7dfa:	00699793          	slli	a5,s3,0x6
    7dfe:	83a5                	srli	a5,a5,0x9
    7e00:	0ff77713          	andi	a4,a4,255
    7e04:	bdad                	j	7c7e <__mulsf3+0xb0>
    7e06:	4785                	li	a5,1
    7e08:	40e786b3          	sub	a3,a5,a4
    7e0c:	c711                	beqz	a4,7e18 <__mulsf3+0x24a>
    7e0e:	466d                	li	a2,27
    7e10:	4701                	li	a4,0
    7e12:	4781                	li	a5,0
    7e14:	e6d645e3          	blt	a2,a3,7c7e <__mulsf3+0xb0>
    7e18:	09e40713          	addi	a4,s0,158
    7e1c:	00e99733          	sll	a4,s3,a4
    7e20:	00e03733          	snez	a4,a4
    7e24:	00d9d7b3          	srl	a5,s3,a3
    7e28:	8fd9                	or	a5,a5,a4
    7e2a:	0077f713          	andi	a4,a5,7
    7e2e:	c719                	beqz	a4,7e3c <__mulsf3+0x26e>
    7e30:	00f7f713          	andi	a4,a5,15
    7e34:	4691                	li	a3,4
    7e36:	00d70363          	beq	a4,a3,7e3c <__mulsf3+0x26e>
    7e3a:	0791                	addi	a5,a5,4
    7e3c:	00579713          	slli	a4,a5,0x5
    7e40:	00074c63          	bltz	a4,7e58 <__mulsf3+0x28a>
    7e44:	079a                	slli	a5,a5,0x6
    7e46:	83a5                	srli	a5,a5,0x9
    7e48:	4701                	li	a4,0
    7e4a:	bd15                	j	7c7e <__mulsf3+0xb0>
    7e4c:	0ff00713          	li	a4,255
    7e50:	4781                	li	a5,0
    7e52:	b535                	j	7c7e <__mulsf3+0xb0>
    7e54:	842e                	mv	s0,a1
    7e56:	b7b5                	j	7dc2 <__mulsf3+0x1f4>
    7e58:	4705                	li	a4,1
    7e5a:	4781                	li	a5,0
    7e5c:	b50d                	j	7c7e <__mulsf3+0xb0>

00007e5e <__subsf3>:
__subsf3():
    7e5e:	00800737          	lui	a4,0x800
    7e62:	1141                	addi	sp,sp,-16
    7e64:	177d                	addi	a4,a4,-1
    7e66:	01755693          	srli	a3,a0,0x17
    7e6a:	0175d813          	srli	a6,a1,0x17
    7e6e:	00a777b3          	and	a5,a4,a0
    7e72:	0ff6f693          	andi	a3,a3,255
    7e76:	01f55e93          	srli	t4,a0,0x1f
    7e7a:	00b77633          	and	a2,a4,a1
    7e7e:	c226                	sw	s1,4(sp)
    7e80:	c04a                	sw	s2,0(sp)
    7e82:	0ff87813          	andi	a6,a6,255
    7e86:	c606                	sw	ra,12(sp)
    7e88:	c422                	sw	s0,8(sp)
    7e8a:	0ff00313          	li	t1,255
    7e8e:	8e3e                	mv	t3,a5
    7e90:	8936                	mv	s2,a3
    7e92:	84f6                	mv	s1,t4
    7e94:	00379f13          	slli	t5,a5,0x3
    7e98:	81fd                	srli	a1,a1,0x1f
    7e9a:	00361513          	slli	a0,a2,0x3
    7e9e:	410688b3          	sub	a7,a3,a6
    7ea2:	10680263          	beq	a6,t1,7fa6 <__subsf3+0x148>
    7ea6:	0015c593          	xori	a1,a1,1
    7eaa:	10be8c63          	beq	t4,a1,7fc2 <__subsf3+0x164>
    7eae:	0d105463          	blez	a7,7f76 <__subsf3+0x118>
    7eb2:	10081063          	bnez	a6,7fb2 <__subsf3+0x154>
    7eb6:	1e050463          	beqz	a0,809e <__subsf3+0x240>
    7eba:	18fd                	addi	a7,a7,-1
    7ebc:	40af07b3          	sub	a5,t5,a0
    7ec0:	02088663          	beqz	a7,7eec <__subsf3+0x8e>
    7ec4:	0ff00793          	li	a5,255
    7ec8:	16f68863          	beq	a3,a5,8038 <__subsf3+0x1da>
    7ecc:	47ed                	li	a5,27
    7ece:	2917c763          	blt	a5,a7,815c <__subsf3+0x2fe>
    7ed2:	02000713          	li	a4,32
    7ed6:	41170733          	sub	a4,a4,a7
    7eda:	00e51733          	sll	a4,a0,a4
    7ede:	011557b3          	srl	a5,a0,a7
    7ee2:	00e03733          	snez	a4,a4
    7ee6:	8fd9                	or	a5,a5,a4
    7ee8:	40ff07b3          	sub	a5,t5,a5
    7eec:	00579713          	slli	a4,a5,0x5
    7ef0:	1a075163          	bgez	a4,8092 <__subsf3+0x234>
    7ef4:	04000437          	lui	s0,0x4000
    7ef8:	147d                	addi	s0,s0,-1
    7efa:	8c7d                	and	s0,s0,a5
    7efc:	8522                	mv	a0,s0
    7efe:	2901                	jal	830e <__clzsi2>
    7f00:	156d                	addi	a0,a0,-5
    7f02:	00a417b3          	sll	a5,s0,a0
    7f06:	1b254e63          	blt	a0,s2,80c2 <__subsf3+0x264>
    7f0a:	41250533          	sub	a0,a0,s2
    7f0e:	00150413          	addi	s0,a0,1
    7f12:	02000713          	li	a4,32
    7f16:	8f01                	sub	a4,a4,s0
    7f18:	00e79733          	sll	a4,a5,a4
    7f1c:	00e03733          	snez	a4,a4
    7f20:	0087d7b3          	srl	a5,a5,s0
    7f24:	8fd9                	or	a5,a5,a4
    7f26:	4901                	li	s2,0
    7f28:	0077f713          	andi	a4,a5,7
    7f2c:	c719                	beqz	a4,7f3a <__subsf3+0xdc>
    7f2e:	00f7f713          	andi	a4,a5,15
    7f32:	4691                	li	a3,4
    7f34:	00d70363          	beq	a4,a3,7f3a <__subsf3+0xdc>
    7f38:	0791                	addi	a5,a5,4
    7f3a:	00579713          	slli	a4,a5,0x5
    7f3e:	14075e63          	bgez	a4,809a <__subsf3+0x23c>
    7f42:	00190693          	addi	a3,s2,1 # 800001 <_data_lma+0x7f5fe9>
    7f46:	0ff00713          	li	a4,255
    7f4a:	0014fe93          	andi	t4,s1,1
    7f4e:	16e68663          	beq	a3,a4,80ba <__subsf3+0x25c>
    7f52:	079a                	slli	a5,a5,0x6
    7f54:	83a5                	srli	a5,a5,0x9
    7f56:	0ff6f693          	andi	a3,a3,255
    7f5a:	07a6                	slli	a5,a5,0x9
    7f5c:	40b2                	lw	ra,12(sp)
    7f5e:	4422                	lw	s0,8(sp)
    7f60:	0097d513          	srli	a0,a5,0x9
    7f64:	06de                	slli	a3,a3,0x17
    7f66:	01fe9793          	slli	a5,t4,0x1f
    7f6a:	8d55                	or	a0,a0,a3
    7f6c:	4492                	lw	s1,4(sp)
    7f6e:	4902                	lw	s2,0(sp)
    7f70:	8d5d                	or	a0,a0,a5
    7f72:	0141                	addi	sp,sp,16
    7f74:	8082                	ret
    7f76:	0a089263          	bnez	a7,801a <__subsf3+0x1bc>
    7f7a:	00168713          	addi	a4,a3,1 # 7e000001 <_eusrstack+0x5dffb001>
    7f7e:	0fe77713          	andi	a4,a4,254
    7f82:	14071b63          	bnez	a4,80d8 <__subsf3+0x27a>
    7f86:	22069463          	bnez	a3,81ae <__subsf3+0x350>
    7f8a:	200f0263          	beqz	t5,818e <__subsf3+0x330>
    7f8e:	d571                	beqz	a0,7f5a <__subsf3+0xfc>
    7f90:	40af07b3          	sub	a5,t5,a0
    7f94:	00579713          	slli	a4,a5,0x5
    7f98:	22075563          	bgez	a4,81c2 <__subsf3+0x364>
    7f9c:	41e507b3          	sub	a5,a0,t5
    7fa0:	4901                	li	s2,0
    7fa2:	84ae                	mv	s1,a1
    7fa4:	b751                	j	7f28 <__subsf3+0xca>
    7fa6:	f00500e3          	beqz	a0,7ea6 <__subsf3+0x48>
    7faa:	0abe8a63          	beq	t4,a1,805e <__subsf3+0x200>
    7fae:	fd1054e3          	blez	a7,7f76 <__subsf3+0x118>
    7fb2:	0ff00793          	li	a5,255
    7fb6:	08f68163          	beq	a3,a5,8038 <__subsf3+0x1da>
    7fba:	040007b7          	lui	a5,0x4000
    7fbe:	8d5d                	or	a0,a0,a5
    7fc0:	b731                	j	7ecc <__subsf3+0x6e>
    7fc2:	09105e63          	blez	a7,805e <__subsf3+0x200>
    7fc6:	08080163          	beqz	a6,8048 <__subsf3+0x1ea>
    7fca:	0ff00793          	li	a5,255
    7fce:	06f68563          	beq	a3,a5,8038 <__subsf3+0x1da>
    7fd2:	040007b7          	lui	a5,0x4000
    7fd6:	8d5d                	or	a0,a0,a5
    7fd8:	47ed                	li	a5,27
    7fda:	1f17c063          	blt	a5,a7,81ba <__subsf3+0x35c>
    7fde:	02000713          	li	a4,32
    7fe2:	41170733          	sub	a4,a4,a7
    7fe6:	00e51733          	sll	a4,a0,a4
    7fea:	011557b3          	srl	a5,a0,a7
    7fee:	00e03733          	snez	a4,a4
    7ff2:	8fd9                	or	a5,a5,a4
    7ff4:	97fa                	add	a5,a5,t5
    7ff6:	00579713          	slli	a4,a5,0x5
    7ffa:	08075c63          	bgez	a4,8092 <__subsf3+0x234>
    7ffe:	0905                	addi	s2,s2,1
    8000:	0ff00713          	li	a4,255
    8004:	0ae90b63          	beq	s2,a4,80ba <__subsf3+0x25c>
    8008:	7e0006b7          	lui	a3,0x7e000
    800c:	0017d713          	srli	a4,a5,0x1
    8010:	16fd                	addi	a3,a3,-1
    8012:	8b85                	andi	a5,a5,1
    8014:	8f75                	and	a4,a4,a3
    8016:	8fd9                	or	a5,a5,a4
    8018:	bf01                	j	7f28 <__subsf3+0xca>
    801a:	40d80733          	sub	a4,a6,a3
    801e:	10069563          	bnez	a3,8128 <__subsf3+0x2ca>
    8022:	140f0d63          	beqz	t5,817c <__subsf3+0x31e>
    8026:	177d                	addi	a4,a4,-1
    8028:	1a070363          	beqz	a4,81ce <__subsf3+0x370>
    802c:	0ff00793          	li	a5,255
    8030:	10f81463          	bne	a6,a5,8138 <__subsf3+0x2da>
    8034:	84ae                	mv	s1,a1
    8036:	8e32                	mv	t3,a2
    8038:	060e0f63          	beqz	t3,80b6 <__subsf3+0x258>
    803c:	4e81                	li	t4,0
    803e:	0ff00693          	li	a3,255
    8042:	004007b7          	lui	a5,0x400
    8046:	bf11                	j	7f5a <__subsf3+0xfc>
    8048:	c939                	beqz	a0,809e <__subsf3+0x240>
    804a:	18fd                	addi	a7,a7,-1
    804c:	00af07b3          	add	a5,t5,a0
    8050:	fa0883e3          	beqz	a7,7ff6 <__subsf3+0x198>
    8054:	0ff00793          	li	a5,255
    8058:	f8f690e3          	bne	a3,a5,7fd8 <__subsf3+0x17a>
    805c:	bff1                	j	8038 <__subsf3+0x1da>
    805e:	08089963          	bnez	a7,80f0 <__subsf3+0x292>
    8062:	00168913          	addi	s2,a3,1 # 7e000001 <_eusrstack+0x5dffb001>
    8066:	0fe97713          	andi	a4,s2,254
    806a:	12071663          	bnez	a4,8196 <__subsf3+0x338>
    806e:	10069b63          	bnez	a3,8184 <__subsf3+0x326>
    8072:	160f0363          	beqz	t5,81d8 <__subsf3+0x37a>
    8076:	ee0502e3          	beqz	a0,7f5a <__subsf3+0xfc>
    807a:	00af07b3          	add	a5,t5,a0
    807e:	00579713          	slli	a4,a5,0x5
    8082:	4901                	li	s2,0
    8084:	00075763          	bgez	a4,8092 <__subsf3+0x234>
    8088:	fc000737          	lui	a4,0xfc000
    808c:	177d                	addi	a4,a4,-1
    808e:	8ff9                	and	a5,a5,a4
    8090:	4905                	li	s2,1
    8092:	0077f713          	andi	a4,a5,7
    8096:	e8071ce3          	bnez	a4,7f2e <__subsf3+0xd0>
    809a:	0037de13          	srli	t3,a5,0x3
    809e:	0ff00793          	li	a5,255
    80a2:	f8f90be3          	beq	s2,a5,8038 <__subsf3+0x1da>
    80a6:	009e1793          	slli	a5,t3,0x9
    80aa:	83a5                	srli	a5,a5,0x9
    80ac:	0ff97693          	andi	a3,s2,255
    80b0:	0014fe93          	andi	t4,s1,1
    80b4:	b55d                	j	7f5a <__subsf3+0xfc>
    80b6:	0014fe93          	andi	t4,s1,1
    80ba:	0ff00693          	li	a3,255
    80be:	4781                	li	a5,0
    80c0:	bd69                	j	7f5a <__subsf3+0xfc>
    80c2:	fc000737          	lui	a4,0xfc000
    80c6:	177d                	addi	a4,a4,-1
    80c8:	8ff9                	and	a5,a5,a4
    80ca:	0077f713          	andi	a4,a5,7
    80ce:	40a90933          	sub	s2,s2,a0
    80d2:	e4071ee3          	bnez	a4,7f2e <__subsf3+0xd0>
    80d6:	b7d1                	j	809a <__subsf3+0x23c>
    80d8:	40af0433          	sub	s0,t5,a0
    80dc:	00541793          	slli	a5,s0,0x5
    80e0:	0c07c363          	bltz	a5,81a6 <__subsf3+0x348>
    80e4:	e0041ce3          	bnez	s0,7efc <__subsf3+0x9e>
    80e8:	4e81                	li	t4,0
    80ea:	4681                	li	a3,0
    80ec:	4781                	li	a5,0
    80ee:	b5b5                	j	7f5a <__subsf3+0xfc>
    80f0:	40d80733          	sub	a4,a6,a3
    80f4:	c6b5                	beqz	a3,8160 <__subsf3+0x302>
    80f6:	0ff00793          	li	a5,255
    80fa:	f2f80ee3          	beq	a6,a5,8036 <__subsf3+0x1d8>
    80fe:	040007b7          	lui	a5,0x4000
    8102:	00ff6f33          	or	t5,t5,a5
    8106:	47ed                	li	a5,27
    8108:	0ce7cd63          	blt	a5,a4,81e2 <__subsf3+0x384>
    810c:	02000793          	li	a5,32
    8110:	8f99                	sub	a5,a5,a4
    8112:	00ff17b3          	sll	a5,t5,a5
    8116:	00ef5733          	srl	a4,t5,a4
    811a:	00f037b3          	snez	a5,a5
    811e:	8f5d                	or	a4,a4,a5
    8120:	00a707b3          	add	a5,a4,a0
    8124:	8942                	mv	s2,a6
    8126:	bdc1                	j	7ff6 <__subsf3+0x198>
    8128:	0ff00793          	li	a5,255
    812c:	f0f804e3          	beq	a6,a5,8034 <__subsf3+0x1d6>
    8130:	040007b7          	lui	a5,0x4000
    8134:	00ff6f33          	or	t5,t5,a5
    8138:	47ed                	li	a5,27
    813a:	08e7c263          	blt	a5,a4,81be <__subsf3+0x360>
    813e:	02000793          	li	a5,32
    8142:	8f99                	sub	a5,a5,a4
    8144:	00ff17b3          	sll	a5,t5,a5
    8148:	00ef5733          	srl	a4,t5,a4
    814c:	00f037b3          	snez	a5,a5
    8150:	8fd9                	or	a5,a5,a4
    8152:	40f507b3          	sub	a5,a0,a5
    8156:	8942                	mv	s2,a6
    8158:	84ae                	mv	s1,a1
    815a:	bb49                	j	7eec <__subsf3+0x8e>
    815c:	4785                	li	a5,1
    815e:	b369                	j	7ee8 <__subsf3+0x8a>
    8160:	060f0e63          	beqz	t5,81dc <__subsf3+0x37e>
    8164:	177d                	addi	a4,a4,-1
    8166:	00af07b3          	add	a5,t5,a0
    816a:	8942                	mv	s2,a6
    816c:	e80705e3          	beqz	a4,7ff6 <__subsf3+0x198>
    8170:	0ff00793          	li	a5,255
    8174:	f8f819e3          	bne	a6,a5,8106 <__subsf3+0x2a8>
    8178:	8e32                	mv	t3,a2
    817a:	bd7d                	j	8038 <__subsf3+0x1da>
    817c:	8e32                	mv	t3,a2
    817e:	8942                	mv	s2,a6
    8180:	84ae                	mv	s1,a1
    8182:	bf31                	j	809e <__subsf3+0x240>
    8184:	ea0f09e3          	beqz	t5,8036 <__subsf3+0x1d8>
    8188:	ea0508e3          	beqz	a0,8038 <__subsf3+0x1da>
    818c:	bd45                	j	803c <__subsf3+0x1de>
    818e:	cd0d                	beqz	a0,81c8 <__subsf3+0x36a>
    8190:	8eae                	mv	t4,a1
    8192:	87b2                	mv	a5,a2
    8194:	b3d9                	j	7f5a <__subsf3+0xfc>
    8196:	0ff00793          	li	a5,255
    819a:	f2f900e3          	beq	s2,a5,80ba <__subsf3+0x25c>
    819e:	00af07b3          	add	a5,t5,a0
    81a2:	8385                	srli	a5,a5,0x1
    81a4:	b5fd                	j	8092 <__subsf3+0x234>
    81a6:	41e50433          	sub	s0,a0,t5
    81aa:	84ae                	mv	s1,a1
    81ac:	bb81                	j	7efc <__subsf3+0x9e>
    81ae:	fc0f1de3          	bnez	t5,8188 <__subsf3+0x32a>
    81b2:	e80505e3          	beqz	a0,803c <__subsf3+0x1de>
    81b6:	84ae                	mv	s1,a1
    81b8:	bdbd                	j	8036 <__subsf3+0x1d8>
    81ba:	4785                	li	a5,1
    81bc:	bd25                	j	7ff4 <__subsf3+0x196>
    81be:	4785                	li	a5,1
    81c0:	bf49                	j	8152 <__subsf3+0x2f4>
    81c2:	4901                	li	s2,0
    81c4:	ec0797e3          	bnez	a5,8092 <__subsf3+0x234>
    81c8:	4e81                	li	t4,0
    81ca:	4781                	li	a5,0
    81cc:	b379                	j	7f5a <__subsf3+0xfc>
    81ce:	41e507b3          	sub	a5,a0,t5
    81d2:	8942                	mv	s2,a6
    81d4:	84ae                	mv	s1,a1
    81d6:	bb19                	j	7eec <__subsf3+0x8e>
    81d8:	87b2                	mv	a5,a2
    81da:	b341                	j	7f5a <__subsf3+0xfc>
    81dc:	8e32                	mv	t3,a2
    81de:	8942                	mv	s2,a6
    81e0:	bd7d                	j	809e <__subsf3+0x240>
    81e2:	4705                	li	a4,1
    81e4:	bf35                	j	8120 <__subsf3+0x2c2>

000081e6 <__fixsfsi>:
__fixsfsi():
    81e6:	00800637          	lui	a2,0x800
    81ea:	01755713          	srli	a4,a0,0x17
    81ee:	fff60793          	addi	a5,a2,-1 # 7fffff <_data_lma+0x7f5fe7>
    81f2:	0ff77713          	andi	a4,a4,255
    81f6:	07e00593          	li	a1,126
    81fa:	00a7f6b3          	and	a3,a5,a0
    81fe:	01f55793          	srli	a5,a0,0x1f
    8202:	00e5fc63          	bgeu	a1,a4,821a <__fixsfsi+0x34>
    8206:	09d00593          	li	a1,157
    820a:	00e5fa63          	bgeu	a1,a4,821e <__fixsfsi+0x38>
    820e:	80000537          	lui	a0,0x80000
    8212:	fff54513          	not	a0,a0
    8216:	953e                	add	a0,a0,a5
    8218:	8082                	ret
    821a:	4501                	li	a0,0
    821c:	8082                	ret
    821e:	09500593          	li	a1,149
    8222:	8ed1                	or	a3,a3,a2
    8224:	00e5cd63          	blt	a1,a4,823e <__fixsfsi+0x58>
    8228:	09600613          	li	a2,150
    822c:	40e60733          	sub	a4,a2,a4
    8230:	00e6d733          	srl	a4,a3,a4
    8234:	40e00533          	neg	a0,a4
    8238:	f3f5                	bnez	a5,821c <__fixsfsi+0x36>
    823a:	853a                	mv	a0,a4
    823c:	8082                	ret
    823e:	f6a70713          	addi	a4,a4,-150 # fbffff6a <_eusrstack+0xdbffaf6a>
    8242:	00e69733          	sll	a4,a3,a4
    8246:	b7fd                	j	8234 <__fixsfsi+0x4e>

00008248 <__floatsisf>:
__floatsisf():
    8248:	1141                	addi	sp,sp,-16
    824a:	c606                	sw	ra,12(sp)
    824c:	c422                	sw	s0,8(sp)
    824e:	c226                	sw	s1,4(sp)
    8250:	cd0d                	beqz	a0,828a <__floatsisf+0x42>
    8252:	41f55793          	srai	a5,a0,0x1f
    8256:	00a7c433          	xor	s0,a5,a0
    825a:	8c1d                	sub	s0,s0,a5
    825c:	84aa                	mv	s1,a0
    825e:	8522                	mv	a0,s0
    8260:	207d                	jal	830e <__clzsi2>
    8262:	09e00793          	li	a5,158
    8266:	40a78733          	sub	a4,a5,a0
    826a:	09600793          	li	a5,150
    826e:	80fd                	srli	s1,s1,0x1f
    8270:	02e7cc63          	blt	a5,a4,82a8 <__floatsisf+0x60>
    8274:	46a1                	li	a3,8
    8276:	0ff77793          	andi	a5,a4,255
    827a:	00a6d563          	bge	a3,a0,8284 <__floatsisf+0x3c>
    827e:	1561                	addi	a0,a0,-8
    8280:	00a41433          	sll	s0,s0,a0
    8284:	0426                	slli	s0,s0,0x9
    8286:	8025                	srli	s0,s0,0x9
    8288:	a021                	j	8290 <__floatsisf+0x48>
    828a:	4481                	li	s1,0
    828c:	4781                	li	a5,0
    828e:	4401                	li	s0,0
    8290:	0426                	slli	s0,s0,0x9
    8292:	00945513          	srli	a0,s0,0x9
    8296:	40b2                	lw	ra,12(sp)
    8298:	4422                	lw	s0,8(sp)
    829a:	07de                	slli	a5,a5,0x17
    829c:	04fe                	slli	s1,s1,0x1f
    829e:	8d5d                	or	a0,a0,a5
    82a0:	8d45                	or	a0,a0,s1
    82a2:	4492                	lw	s1,4(sp)
    82a4:	0141                	addi	sp,sp,16
    82a6:	8082                	ret
    82a8:	09900793          	li	a5,153
    82ac:	00e7dd63          	bge	a5,a4,82c6 <__floatsisf+0x7e>
    82b0:	01b50793          	addi	a5,a0,27 # 8000001b <_eusrstack+0x5fffb01b>
    82b4:	4695                	li	a3,5
    82b6:	00f417b3          	sll	a5,s0,a5
    82ba:	8e89                	sub	a3,a3,a0
    82bc:	00d45433          	srl	s0,s0,a3
    82c0:	00f037b3          	snez	a5,a5
    82c4:	8c5d                	or	s0,s0,a5
    82c6:	4795                	li	a5,5
    82c8:	00a7d663          	bge	a5,a0,82d4 <__floatsisf+0x8c>
    82cc:	ffb50793          	addi	a5,a0,-5
    82d0:	00f41433          	sll	s0,s0,a5
    82d4:	fc0006b7          	lui	a3,0xfc000
    82d8:	16fd                	addi	a3,a3,-1
    82da:	00747793          	andi	a5,s0,7
    82de:	00d47633          	and	a2,s0,a3
    82e2:	c385                	beqz	a5,8302 <__floatsisf+0xba>
    82e4:	00f47793          	andi	a5,s0,15
    82e8:	4591                	li	a1,4
    82ea:	00b78c63          	beq	a5,a1,8302 <__floatsisf+0xba>
    82ee:	0611                	addi	a2,a2,4
    82f0:	00561793          	slli	a5,a2,0x5
    82f4:	0007d763          	bgez	a5,8302 <__floatsisf+0xba>
    82f8:	09f00793          	li	a5,159
    82fc:	8e75                	and	a2,a2,a3
    82fe:	40a78733          	sub	a4,a5,a0
    8302:	00661413          	slli	s0,a2,0x6
    8306:	8025                	srli	s0,s0,0x9
    8308:	0ff77793          	andi	a5,a4,255
    830c:	b751                	j	8290 <__floatsisf+0x48>

0000830e <__clzsi2>:
__clzsi2():
    830e:	67c1                	lui	a5,0x10
    8310:	02f57e63          	bgeu	a0,a5,834c <__clzsi2+0x3e>
    8314:	0ff00793          	li	a5,255
    8318:	02000713          	li	a4,32
    831c:	00a7ec63          	bltu	a5,a0,8334 <__clzsi2+0x26>
    8320:	00002797          	auipc	a5,0x2
    8324:	b1c78793          	addi	a5,a5,-1252 # 9e3c <__clz_tab>
    8328:	97aa                	add	a5,a5,a0
    832a:	0007c503          	lbu	a0,0(a5)
    832e:	40a70533          	sub	a0,a4,a0
    8332:	8082                	ret
    8334:	8121                	srli	a0,a0,0x8
    8336:	00002797          	auipc	a5,0x2
    833a:	b0678793          	addi	a5,a5,-1274 # 9e3c <__clz_tab>
    833e:	97aa                	add	a5,a5,a0
    8340:	0007c503          	lbu	a0,0(a5)
    8344:	4761                	li	a4,24
    8346:	40a70533          	sub	a0,a4,a0
    834a:	8082                	ret
    834c:	010007b7          	lui	a5,0x1000
    8350:	00f56e63          	bltu	a0,a5,836c <__clzsi2+0x5e>
    8354:	8161                	srli	a0,a0,0x18
    8356:	00002797          	auipc	a5,0x2
    835a:	ae678793          	addi	a5,a5,-1306 # 9e3c <__clz_tab>
    835e:	97aa                	add	a5,a5,a0
    8360:	0007c503          	lbu	a0,0(a5)
    8364:	4721                	li	a4,8
    8366:	40a70533          	sub	a0,a4,a0
    836a:	8082                	ret
    836c:	8141                	srli	a0,a0,0x10
    836e:	00002797          	auipc	a5,0x2
    8372:	ace78793          	addi	a5,a5,-1330 # 9e3c <__clz_tab>
    8376:	97aa                	add	a5,a5,a0
    8378:	0007c503          	lbu	a0,0(a5)
    837c:	4741                	li	a4,16
    837e:	40a70533          	sub	a0,a4,a0
    8382:	8082                	ret

00008384 <__assert_func>:
__assert_func():
    8384:	80c18793          	addi	a5,gp,-2036 # 20000124 <_impure_ptr>
    8388:	439c                	lw	a5,0(a5)
    838a:	1141                	addi	sp,sp,-16
    838c:	8832                	mv	a6,a2
    838e:	c606                	sw	ra,12(sp)
    8390:	88aa                	mv	a7,a0
    8392:	872e                	mv	a4,a1
    8394:	47c8                	lw	a0,12(a5)
    8396:	8636                	mv	a2,a3
    8398:	00002797          	auipc	a5,0x2
    839c:	ba478793          	addi	a5,a5,-1116 # 9f3c <__clz_tab+0x100>
    83a0:	00081763          	bnez	a6,83ae <__assert_func+0x2a>
    83a4:	00002797          	auipc	a5,0x2
    83a8:	ba478793          	addi	a5,a5,-1116 # 9f48 <__clz_tab+0x10c>
    83ac:	883e                	mv	a6,a5
    83ae:	86c6                	mv	a3,a7
    83b0:	00002597          	auipc	a1,0x2
    83b4:	b9c58593          	addi	a1,a1,-1124 # 9f4c <__clz_tab+0x110>
    83b8:	2019                	jal	83be <fiprintf>
    83ba:	0b3000ef          	jal	ra,8c6c <abort>

000083be <fiprintf>:
fprintf():
    83be:	7139                	addi	sp,sp,-64
    83c0:	d432                	sw	a2,40(sp)
    83c2:	d636                	sw	a3,44(sp)
    83c4:	da3e                	sw	a5,52(sp)
    83c6:	d83a                	sw	a4,48(sp)
    83c8:	dc42                	sw	a6,56(sp)
    83ca:	de46                	sw	a7,60(sp)
    83cc:	80c18793          	addi	a5,gp,-2036 # 20000124 <_impure_ptr>
    83d0:	862e                	mv	a2,a1
    83d2:	85aa                	mv	a1,a0
    83d4:	4388                	lw	a0,0(a5)
    83d6:	1034                	addi	a3,sp,40
    83d8:	ce06                	sw	ra,28(sp)
    83da:	c636                	sw	a3,12(sp)
    83dc:	2895                	jal	8450 <_vfiprintf_r>
    83de:	40f2                	lw	ra,28(sp)
    83e0:	6121                	addi	sp,sp,64
    83e2:	8082                	ret

000083e4 <__sfputc_r>:
__sfputc_r():
    83e4:	461c                	lw	a5,8(a2)
    83e6:	17fd                	addi	a5,a5,-1
    83e8:	c61c                	sw	a5,8(a2)
    83ea:	0007d963          	bgez	a5,83fc <__sfputc_r+0x18>
    83ee:	4e18                	lw	a4,24(a2)
    83f0:	00e7c563          	blt	a5,a4,83fa <__sfputc_r+0x16>
    83f4:	47a9                	li	a5,10
    83f6:	00f59363          	bne	a1,a5,83fc <__sfputc_r+0x18>
    83fa:	a55d                	j	8aa0 <__swbuf_r>
    83fc:	421c                	lw	a5,0(a2)
    83fe:	852e                	mv	a0,a1
    8400:	00178713          	addi	a4,a5,1
    8404:	c218                	sw	a4,0(a2)
    8406:	00b78023          	sb	a1,0(a5)
    840a:	8082                	ret

0000840c <__sfputs_r>:
__sfputs_r():
    840c:	1101                	addi	sp,sp,-32
    840e:	cc22                	sw	s0,24(sp)
    8410:	ca26                	sw	s1,20(sp)
    8412:	c84a                	sw	s2,16(sp)
    8414:	c64e                	sw	s3,12(sp)
    8416:	c452                	sw	s4,8(sp)
    8418:	ce06                	sw	ra,28(sp)
    841a:	892a                	mv	s2,a0
    841c:	89ae                	mv	s3,a1
    841e:	8432                	mv	s0,a2
    8420:	00d604b3          	add	s1,a2,a3
    8424:	5a7d                	li	s4,-1
    8426:	00941463          	bne	s0,s1,842e <__sfputs_r+0x22>
    842a:	4501                	li	a0,0
    842c:	a811                	j	8440 <__sfputs_r+0x34>
    842e:	00044583          	lbu	a1,0(s0) # 4000000 <_data_lma+0x3ff5fe8>
    8432:	864e                	mv	a2,s3
    8434:	854a                	mv	a0,s2
    8436:	fafff0ef          	jal	ra,83e4 <__sfputc_r>
    843a:	0405                	addi	s0,s0,1
    843c:	ff4515e3          	bne	a0,s4,8426 <__sfputs_r+0x1a>
    8440:	40f2                	lw	ra,28(sp)
    8442:	4462                	lw	s0,24(sp)
    8444:	44d2                	lw	s1,20(sp)
    8446:	4942                	lw	s2,16(sp)
    8448:	49b2                	lw	s3,12(sp)
    844a:	4a22                	lw	s4,8(sp)
    844c:	6105                	addi	sp,sp,32
    844e:	8082                	ret

00008450 <_vfiprintf_r>:
_vfiprintf_r():
    8450:	7135                	addi	sp,sp,-160
    8452:	cd22                	sw	s0,152(sp)
    8454:	cb26                	sw	s1,148(sp)
    8456:	c94a                	sw	s2,144(sp)
    8458:	c74e                	sw	s3,140(sp)
    845a:	cf06                	sw	ra,156(sp)
    845c:	c552                	sw	s4,136(sp)
    845e:	c356                	sw	s5,132(sp)
    8460:	c15a                	sw	s6,128(sp)
    8462:	dede                	sw	s7,124(sp)
    8464:	dce2                	sw	s8,120(sp)
    8466:	dae6                	sw	s9,116(sp)
    8468:	89aa                	mv	s3,a0
    846a:	84ae                	mv	s1,a1
    846c:	8932                	mv	s2,a2
    846e:	8436                	mv	s0,a3
    8470:	c509                	beqz	a0,847a <_vfiprintf_r+0x2a>
    8472:	4d1c                	lw	a5,24(a0)
    8474:	e399                	bnez	a5,847a <_vfiprintf_r+0x2a>
    8476:	261000ef          	jal	ra,8ed6 <__sinit>
    847a:	00002797          	auipc	a5,0x2
    847e:	b5e78793          	addi	a5,a5,-1186 # 9fd8 <__sf_fake_stdin>
    8482:	0cf49d63          	bne	s1,a5,855c <_vfiprintf_r+0x10c>
    8486:	0049a483          	lw	s1,4(s3)
    848a:	00c4d783          	lhu	a5,12(s1)
    848e:	8ba1                	andi	a5,a5,8
    8490:	cbe5                	beqz	a5,8580 <_vfiprintf_r+0x130>
    8492:	489c                	lw	a5,16(s1)
    8494:	c7f5                	beqz	a5,8580 <_vfiprintf_r+0x130>
    8496:	02000793          	li	a5,32
    849a:	02f104a3          	sb	a5,41(sp)
    849e:	03000793          	li	a5,48
    84a2:	d202                	sw	zero,36(sp)
    84a4:	02f10523          	sb	a5,42(sp)
    84a8:	c622                	sw	s0,12(sp)
    84aa:	02500b93          	li	s7,37
    84ae:	00002a97          	auipc	s5,0x2
    84b2:	acea8a93          	addi	s5,s5,-1330 # 9f7c <__clz_tab+0x140>
    84b6:	4c05                	li	s8,1
    84b8:	4b29                	li	s6,10
    84ba:	844a                	mv	s0,s2
    84bc:	00044783          	lbu	a5,0(s0)
    84c0:	c399                	beqz	a5,84c6 <_vfiprintf_r+0x76>
    84c2:	0f779163          	bne	a5,s7,85a4 <_vfiprintf_r+0x154>
    84c6:	41240cb3          	sub	s9,s0,s2
    84ca:	000c8e63          	beqz	s9,84e6 <_vfiprintf_r+0x96>
    84ce:	86e6                	mv	a3,s9
    84d0:	864a                	mv	a2,s2
    84d2:	85a6                	mv	a1,s1
    84d4:	854e                	mv	a0,s3
    84d6:	f37ff0ef          	jal	ra,840c <__sfputs_r>
    84da:	57fd                	li	a5,-1
    84dc:	1ef50863          	beq	a0,a5,86cc <_vfiprintf_r+0x27c>
    84e0:	5692                	lw	a3,36(sp)
    84e2:	96e6                	add	a3,a3,s9
    84e4:	d236                	sw	a3,36(sp)
    84e6:	00044783          	lbu	a5,0(s0)
    84ea:	1e078163          	beqz	a5,86cc <_vfiprintf_r+0x27c>
    84ee:	57fd                	li	a5,-1
    84f0:	00140913          	addi	s2,s0,1
    84f4:	c802                	sw	zero,16(sp)
    84f6:	ce02                	sw	zero,28(sp)
    84f8:	ca3e                	sw	a5,20(sp)
    84fa:	cc02                	sw	zero,24(sp)
    84fc:	040109a3          	sb	zero,83(sp)
    8500:	d482                	sw	zero,104(sp)
    8502:	00094583          	lbu	a1,0(s2)
    8506:	4615                	li	a2,5
    8508:	8556                	mv	a0,s5
    850a:	43b000ef          	jal	ra,9144 <memchr>
    850e:	00190413          	addi	s0,s2,1
    8512:	47c2                	lw	a5,16(sp)
    8514:	e951                	bnez	a0,85a8 <_vfiprintf_r+0x158>
    8516:	0107f713          	andi	a4,a5,16
    851a:	c709                	beqz	a4,8524 <_vfiprintf_r+0xd4>
    851c:	02000713          	li	a4,32
    8520:	04e109a3          	sb	a4,83(sp)
    8524:	0087f713          	andi	a4,a5,8
    8528:	c709                	beqz	a4,8532 <_vfiprintf_r+0xe2>
    852a:	02b00713          	li	a4,43
    852e:	04e109a3          	sb	a4,83(sp)
    8532:	00094683          	lbu	a3,0(s2)
    8536:	02a00713          	li	a4,42
    853a:	06e68f63          	beq	a3,a4,85b8 <_vfiprintf_r+0x168>
    853e:	47f2                	lw	a5,28(sp)
    8540:	844a                	mv	s0,s2
    8542:	4681                	li	a3,0
    8544:	4625                	li	a2,9
    8546:	00044703          	lbu	a4,0(s0)
    854a:	00140593          	addi	a1,s0,1
    854e:	fd070713          	addi	a4,a4,-48
    8552:	0ae67863          	bgeu	a2,a4,8602 <_vfiprintf_r+0x1b2>
    8556:	caad                	beqz	a3,85c8 <_vfiprintf_r+0x178>
    8558:	ce3e                	sw	a5,28(sp)
    855a:	a0bd                	j	85c8 <_vfiprintf_r+0x178>
    855c:	00002797          	auipc	a5,0x2
    8560:	a9c78793          	addi	a5,a5,-1380 # 9ff8 <__sf_fake_stdout>
    8564:	00f49563          	bne	s1,a5,856e <_vfiprintf_r+0x11e>
    8568:	0089a483          	lw	s1,8(s3)
    856c:	bf39                	j	848a <_vfiprintf_r+0x3a>
    856e:	00002797          	auipc	a5,0x2
    8572:	a4a78793          	addi	a5,a5,-1462 # 9fb8 <__sf_fake_stderr>
    8576:	f0f49ae3          	bne	s1,a5,848a <_vfiprintf_r+0x3a>
    857a:	00c9a483          	lw	s1,12(s3)
    857e:	b731                	j	848a <_vfiprintf_r+0x3a>
    8580:	85a6                	mv	a1,s1
    8582:	854e                	mv	a0,s3
    8584:	2bf1                	jal	8b60 <__swsetup_r>
    8586:	d901                	beqz	a0,8496 <_vfiprintf_r+0x46>
    8588:	557d                	li	a0,-1
    858a:	40fa                	lw	ra,156(sp)
    858c:	446a                	lw	s0,152(sp)
    858e:	44da                	lw	s1,148(sp)
    8590:	494a                	lw	s2,144(sp)
    8592:	49ba                	lw	s3,140(sp)
    8594:	4a2a                	lw	s4,136(sp)
    8596:	4a9a                	lw	s5,132(sp)
    8598:	4b0a                	lw	s6,128(sp)
    859a:	5bf6                	lw	s7,124(sp)
    859c:	5c66                	lw	s8,120(sp)
    859e:	5cd6                	lw	s9,116(sp)
    85a0:	610d                	addi	sp,sp,160
    85a2:	8082                	ret
    85a4:	0405                	addi	s0,s0,1
    85a6:	bf19                	j	84bc <_vfiprintf_r+0x6c>
    85a8:	41550533          	sub	a0,a0,s5
    85ac:	00ac1533          	sll	a0,s8,a0
    85b0:	8fc9                	or	a5,a5,a0
    85b2:	c83e                	sw	a5,16(sp)
    85b4:	8922                	mv	s2,s0
    85b6:	b7b1                	j	8502 <_vfiprintf_r+0xb2>
    85b8:	4732                	lw	a4,12(sp)
    85ba:	00470693          	addi	a3,a4,4
    85be:	4318                	lw	a4,0(a4)
    85c0:	c636                	sw	a3,12(sp)
    85c2:	02074963          	bltz	a4,85f4 <_vfiprintf_r+0x1a4>
    85c6:	ce3a                	sw	a4,28(sp)
    85c8:	00044703          	lbu	a4,0(s0)
    85cc:	02e00793          	li	a5,46
    85d0:	04f71f63          	bne	a4,a5,862e <_vfiprintf_r+0x1de>
    85d4:	00144703          	lbu	a4,1(s0)
    85d8:	02a00793          	li	a5,42
    85dc:	02f71b63          	bne	a4,a5,8612 <_vfiprintf_r+0x1c2>
    85e0:	47b2                	lw	a5,12(sp)
    85e2:	0409                	addi	s0,s0,2
    85e4:	00478713          	addi	a4,a5,4
    85e8:	439c                	lw	a5,0(a5)
    85ea:	c63a                	sw	a4,12(sp)
    85ec:	0207c163          	bltz	a5,860e <_vfiprintf_r+0x1be>
    85f0:	ca3e                	sw	a5,20(sp)
    85f2:	a835                	j	862e <_vfiprintf_r+0x1de>
    85f4:	40e00733          	neg	a4,a4
    85f8:	0027e793          	ori	a5,a5,2
    85fc:	ce3a                	sw	a4,28(sp)
    85fe:	c83e                	sw	a5,16(sp)
    8600:	b7e1                	j	85c8 <_vfiprintf_r+0x178>
    8602:	036787b3          	mul	a5,a5,s6
    8606:	4685                	li	a3,1
    8608:	842e                	mv	s0,a1
    860a:	97ba                	add	a5,a5,a4
    860c:	bf2d                	j	8546 <_vfiprintf_r+0xf6>
    860e:	57fd                	li	a5,-1
    8610:	b7c5                	j	85f0 <_vfiprintf_r+0x1a0>
    8612:	0405                	addi	s0,s0,1
    8614:	ca02                	sw	zero,20(sp)
    8616:	4681                	li	a3,0
    8618:	4781                	li	a5,0
    861a:	4625                	li	a2,9
    861c:	00044703          	lbu	a4,0(s0)
    8620:	00140593          	addi	a1,s0,1
    8624:	fd070713          	addi	a4,a4,-48
    8628:	06e67863          	bgeu	a2,a4,8698 <_vfiprintf_r+0x248>
    862c:	f2f1                	bnez	a3,85f0 <_vfiprintf_r+0x1a0>
    862e:	00044583          	lbu	a1,0(s0)
    8632:	460d                	li	a2,3
    8634:	00002517          	auipc	a0,0x2
    8638:	95050513          	addi	a0,a0,-1712 # 9f84 <__clz_tab+0x148>
    863c:	309000ef          	jal	ra,9144 <memchr>
    8640:	cd11                	beqz	a0,865c <_vfiprintf_r+0x20c>
    8642:	00002797          	auipc	a5,0x2
    8646:	94278793          	addi	a5,a5,-1726 # 9f84 <__clz_tab+0x148>
    864a:	8d1d                	sub	a0,a0,a5
    864c:	04000793          	li	a5,64
    8650:	00a797b3          	sll	a5,a5,a0
    8654:	4542                	lw	a0,16(sp)
    8656:	0405                	addi	s0,s0,1
    8658:	8d5d                	or	a0,a0,a5
    865a:	c82a                	sw	a0,16(sp)
    865c:	00044583          	lbu	a1,0(s0)
    8660:	4619                	li	a2,6
    8662:	00002517          	auipc	a0,0x2
    8666:	92650513          	addi	a0,a0,-1754 # 9f88 <__clz_tab+0x14c>
    866a:	00140913          	addi	s2,s0,1
    866e:	02b10423          	sb	a1,40(sp)
    8672:	2d3000ef          	jal	ra,9144 <memchr>
    8676:	c13d                	beqz	a0,86dc <_vfiprintf_r+0x28c>
    8678:	ffff8797          	auipc	a5,0xffff8
    867c:	98878793          	addi	a5,a5,-1656 # 0 <_sinit>
    8680:	e795                	bnez	a5,86ac <_vfiprintf_r+0x25c>
    8682:	4742                	lw	a4,16(sp)
    8684:	47b2                	lw	a5,12(sp)
    8686:	10077713          	andi	a4,a4,256
    868a:	cf09                	beqz	a4,86a4 <_vfiprintf_r+0x254>
    868c:	0791                	addi	a5,a5,4
    868e:	c63e                	sw	a5,12(sp)
    8690:	5792                	lw	a5,36(sp)
    8692:	97d2                	add	a5,a5,s4
    8694:	d23e                	sw	a5,36(sp)
    8696:	b515                	j	84ba <_vfiprintf_r+0x6a>
    8698:	036787b3          	mul	a5,a5,s6
    869c:	4685                	li	a3,1
    869e:	842e                	mv	s0,a1
    86a0:	97ba                	add	a5,a5,a4
    86a2:	bfad                	j	861c <_vfiprintf_r+0x1cc>
    86a4:	079d                	addi	a5,a5,7
    86a6:	9be1                	andi	a5,a5,-8
    86a8:	07a1                	addi	a5,a5,8
    86aa:	b7d5                	j	868e <_vfiprintf_r+0x23e>
    86ac:	0078                	addi	a4,sp,12
    86ae:	00000697          	auipc	a3,0x0
    86b2:	d5e68693          	addi	a3,a3,-674 # 840c <__sfputs_r>
    86b6:	8626                	mv	a2,s1
    86b8:	080c                	addi	a1,sp,16
    86ba:	854e                	mv	a0,s3
    86bc:	00000097          	auipc	ra,0x0
    86c0:	000000e7          	jalr	zero # 0 <_sinit>
    86c4:	57fd                	li	a5,-1
    86c6:	8a2a                	mv	s4,a0
    86c8:	fcf514e3          	bne	a0,a5,8690 <_vfiprintf_r+0x240>
    86cc:	00c4d783          	lhu	a5,12(s1)
    86d0:	0407f793          	andi	a5,a5,64
    86d4:	ea079ae3          	bnez	a5,8588 <_vfiprintf_r+0x138>
    86d8:	5512                	lw	a0,36(sp)
    86da:	bd45                	j	858a <_vfiprintf_r+0x13a>
    86dc:	0078                	addi	a4,sp,12
    86de:	00000697          	auipc	a3,0x0
    86e2:	d2e68693          	addi	a3,a3,-722 # 840c <__sfputs_r>
    86e6:	8626                	mv	a2,s1
    86e8:	080c                	addi	a1,sp,16
    86ea:	854e                	mv	a0,s3
    86ec:	2a01                	jal	87fc <_printf_i>
    86ee:	bfd9                	j	86c4 <_vfiprintf_r+0x274>

000086f0 <_printf_common>:
_printf_common():
    86f0:	7179                	addi	sp,sp,-48
    86f2:	ca56                	sw	s5,20(sp)
    86f4:	499c                	lw	a5,16(a1)
    86f6:	8aba                	mv	s5,a4
    86f8:	4598                	lw	a4,8(a1)
    86fa:	d422                	sw	s0,40(sp)
    86fc:	d226                	sw	s1,36(sp)
    86fe:	ce4e                	sw	s3,28(sp)
    8700:	cc52                	sw	s4,24(sp)
    8702:	d606                	sw	ra,44(sp)
    8704:	d04a                	sw	s2,32(sp)
    8706:	c85a                	sw	s6,16(sp)
    8708:	c65e                	sw	s7,12(sp)
    870a:	89aa                	mv	s3,a0
    870c:	842e                	mv	s0,a1
    870e:	84b2                	mv	s1,a2
    8710:	8a36                	mv	s4,a3
    8712:	00e7d363          	bge	a5,a4,8718 <_printf_common+0x28>
    8716:	87ba                	mv	a5,a4
    8718:	c09c                	sw	a5,0(s1)
    871a:	04344703          	lbu	a4,67(s0)
    871e:	c319                	beqz	a4,8724 <_printf_common+0x34>
    8720:	0785                	addi	a5,a5,1
    8722:	c09c                	sw	a5,0(s1)
    8724:	401c                	lw	a5,0(s0)
    8726:	0207f793          	andi	a5,a5,32
    872a:	c781                	beqz	a5,8732 <_printf_common+0x42>
    872c:	409c                	lw	a5,0(s1)
    872e:	0789                	addi	a5,a5,2
    8730:	c09c                	sw	a5,0(s1)
    8732:	00042903          	lw	s2,0(s0)
    8736:	00697913          	andi	s2,s2,6
    873a:	00091a63          	bnez	s2,874e <_printf_common+0x5e>
    873e:	01940b13          	addi	s6,s0,25
    8742:	5bfd                	li	s7,-1
    8744:	445c                	lw	a5,12(s0)
    8746:	4098                	lw	a4,0(s1)
    8748:	8f99                	sub	a5,a5,a4
    874a:	04f94c63          	blt	s2,a5,87a2 <_printf_common+0xb2>
    874e:	401c                	lw	a5,0(s0)
    8750:	04344683          	lbu	a3,67(s0)
    8754:	0207f793          	andi	a5,a5,32
    8758:	00d036b3          	snez	a3,a3
    875c:	eba5                	bnez	a5,87cc <_printf_common+0xdc>
    875e:	04340613          	addi	a2,s0,67
    8762:	85d2                	mv	a1,s4
    8764:	854e                	mv	a0,s3
    8766:	9a82                	jalr	s5
    8768:	57fd                	li	a5,-1
    876a:	04f50363          	beq	a0,a5,87b0 <_printf_common+0xc0>
    876e:	401c                	lw	a5,0(s0)
    8770:	4611                	li	a2,4
    8772:	4098                	lw	a4,0(s1)
    8774:	8b99                	andi	a5,a5,6
    8776:	4454                	lw	a3,12(s0)
    8778:	4481                	li	s1,0
    877a:	00c79763          	bne	a5,a2,8788 <_printf_common+0x98>
    877e:	40e684b3          	sub	s1,a3,a4
    8782:	0004d363          	bgez	s1,8788 <_printf_common+0x98>
    8786:	4481                	li	s1,0
    8788:	441c                	lw	a5,8(s0)
    878a:	4818                	lw	a4,16(s0)
    878c:	00f75463          	bge	a4,a5,8794 <_printf_common+0xa4>
    8790:	8f99                	sub	a5,a5,a4
    8792:	94be                	add	s1,s1,a5
    8794:	4901                	li	s2,0
    8796:	0469                	addi	s0,s0,26
    8798:	5b7d                	li	s6,-1
    879a:	05249863          	bne	s1,s2,87ea <_printf_common+0xfa>
    879e:	4501                	li	a0,0
    87a0:	a809                	j	87b2 <_printf_common+0xc2>
    87a2:	4685                	li	a3,1
    87a4:	865a                	mv	a2,s6
    87a6:	85d2                	mv	a1,s4
    87a8:	854e                	mv	a0,s3
    87aa:	9a82                	jalr	s5
    87ac:	01751e63          	bne	a0,s7,87c8 <_printf_common+0xd8>
    87b0:	557d                	li	a0,-1
    87b2:	50b2                	lw	ra,44(sp)
    87b4:	5422                	lw	s0,40(sp)
    87b6:	5492                	lw	s1,36(sp)
    87b8:	5902                	lw	s2,32(sp)
    87ba:	49f2                	lw	s3,28(sp)
    87bc:	4a62                	lw	s4,24(sp)
    87be:	4ad2                	lw	s5,20(sp)
    87c0:	4b42                	lw	s6,16(sp)
    87c2:	4bb2                	lw	s7,12(sp)
    87c4:	6145                	addi	sp,sp,48
    87c6:	8082                	ret
    87c8:	0905                	addi	s2,s2,1
    87ca:	bfad                	j	8744 <_printf_common+0x54>
    87cc:	00d40733          	add	a4,s0,a3
    87d0:	03000613          	li	a2,48
    87d4:	04c701a3          	sb	a2,67(a4)
    87d8:	04544703          	lbu	a4,69(s0)
    87dc:	00168793          	addi	a5,a3,1
    87e0:	97a2                	add	a5,a5,s0
    87e2:	0689                	addi	a3,a3,2
    87e4:	04e781a3          	sb	a4,67(a5)
    87e8:	bf9d                	j	875e <_printf_common+0x6e>
    87ea:	4685                	li	a3,1
    87ec:	8622                	mv	a2,s0
    87ee:	85d2                	mv	a1,s4
    87f0:	854e                	mv	a0,s3
    87f2:	9a82                	jalr	s5
    87f4:	fb650ee3          	beq	a0,s6,87b0 <_printf_common+0xc0>
    87f8:	0905                	addi	s2,s2,1
    87fa:	b745                	j	879a <_printf_common+0xaa>

000087fc <_printf_i>:
_printf_i():
    87fc:	7179                	addi	sp,sp,-48
    87fe:	d422                	sw	s0,40(sp)
    8800:	d226                	sw	s1,36(sp)
    8802:	d04a                	sw	s2,32(sp)
    8804:	ce4e                	sw	s3,28(sp)
    8806:	d606                	sw	ra,44(sp)
    8808:	cc52                	sw	s4,24(sp)
    880a:	ca56                	sw	s5,20(sp)
    880c:	c85a                	sw	s6,16(sp)
    880e:	89b6                	mv	s3,a3
    8810:	0185c683          	lbu	a3,24(a1)
    8814:	06e00793          	li	a5,110
    8818:	8932                	mv	s2,a2
    881a:	84aa                	mv	s1,a0
    881c:	842e                	mv	s0,a1
    881e:	04358613          	addi	a2,a1,67
    8822:	1ef68163          	beq	a3,a5,8a04 <_printf_i+0x208>
    8826:	06d7e263          	bltu	a5,a3,888a <_printf_i+0x8e>
    882a:	06300793          	li	a5,99
    882e:	0af68263          	beq	a3,a5,88d2 <_printf_i+0xd6>
    8832:	00d7ed63          	bltu	a5,a3,884c <_printf_i+0x50>
    8836:	1e068b63          	beqz	a3,8a2c <_printf_i+0x230>
    883a:	05800793          	li	a5,88
    883e:	16f68763          	beq	a3,a5,89ac <_printf_i+0x1b0>
    8842:	04240a93          	addi	s5,s0,66
    8846:	04d40123          	sb	a3,66(s0)
    884a:	a869                	j	88e4 <_printf_i+0xe8>
    884c:	06400793          	li	a5,100
    8850:	00f68663          	beq	a3,a5,885c <_printf_i+0x60>
    8854:	06900793          	li	a5,105
    8858:	fef695e3          	bne	a3,a5,8842 <_printf_i+0x46>
    885c:	401c                	lw	a5,0(s0)
    885e:	4308                	lw	a0,0(a4)
    8860:	0807f693          	andi	a3,a5,128
    8864:	00450593          	addi	a1,a0,4
    8868:	c2c1                	beqz	a3,88e8 <_printf_i+0xec>
    886a:	411c                	lw	a5,0(a0)
    886c:	c30c                	sw	a1,0(a4)
    886e:	0007d863          	bgez	a5,887e <_printf_i+0x82>
    8872:	02d00713          	li	a4,45
    8876:	40f007b3          	neg	a5,a5
    887a:	04e401a3          	sb	a4,67(s0)
    887e:	00001697          	auipc	a3,0x1
    8882:	71268693          	addi	a3,a3,1810 # 9f90 <__clz_tab+0x154>
    8886:	4729                	li	a4,10
    8888:	a065                	j	8930 <_printf_i+0x134>
    888a:	07300793          	li	a5,115
    888e:	1af68363          	beq	a3,a5,8a34 <_printf_i+0x238>
    8892:	00d7ef63          	bltu	a5,a3,88b0 <_printf_i+0xb4>
    8896:	06f00793          	li	a5,111
    889a:	04f68f63          	beq	a3,a5,88f8 <_printf_i+0xfc>
    889e:	07000793          	li	a5,112
    88a2:	faf690e3          	bne	a3,a5,8842 <_printf_i+0x46>
    88a6:	419c                	lw	a5,0(a1)
    88a8:	0207e793          	ori	a5,a5,32
    88ac:	c19c                	sw	a5,0(a1)
    88ae:	a809                	j	88c0 <_printf_i+0xc4>
    88b0:	07500793          	li	a5,117
    88b4:	04f68263          	beq	a3,a5,88f8 <_printf_i+0xfc>
    88b8:	07800793          	li	a5,120
    88bc:	f8f693e3          	bne	a3,a5,8842 <_printf_i+0x46>
    88c0:	07800793          	li	a5,120
    88c4:	04f402a3          	sb	a5,69(s0)
    88c8:	00001697          	auipc	a3,0x1
    88cc:	6dc68693          	addi	a3,a3,1756 # 9fa4 <__clz_tab+0x168>
    88d0:	a0e5                	j	89b8 <_printf_i+0x1bc>
    88d2:	431c                	lw	a5,0(a4)
    88d4:	04258a93          	addi	s5,a1,66
    88d8:	00478693          	addi	a3,a5,4
    88dc:	439c                	lw	a5,0(a5)
    88de:	c314                	sw	a3,0(a4)
    88e0:	04f58123          	sb	a5,66(a1)
    88e4:	4785                	li	a5,1
    88e6:	a2b5                	j	8a52 <_printf_i+0x256>
    88e8:	0407f693          	andi	a3,a5,64
    88ec:	411c                	lw	a5,0(a0)
    88ee:	c30c                	sw	a1,0(a4)
    88f0:	debd                	beqz	a3,886e <_printf_i+0x72>
    88f2:	07c2                	slli	a5,a5,0x10
    88f4:	87c1                	srai	a5,a5,0x10
    88f6:	bfa5                	j	886e <_printf_i+0x72>
    88f8:	400c                	lw	a1,0(s0)
    88fa:	431c                	lw	a5,0(a4)
    88fc:	0805f813          	andi	a6,a1,128
    8900:	00478513          	addi	a0,a5,4
    8904:	00080563          	beqz	a6,890e <_printf_i+0x112>
    8908:	c308                	sw	a0,0(a4)
    890a:	439c                	lw	a5,0(a5)
    890c:	a039                	j	891a <_printf_i+0x11e>
    890e:	0405f593          	andi	a1,a1,64
    8912:	c308                	sw	a0,0(a4)
    8914:	d9fd                	beqz	a1,890a <_printf_i+0x10e>
    8916:	0007d783          	lhu	a5,0(a5)
    891a:	06f00713          	li	a4,111
    891e:	0ce68b63          	beq	a3,a4,89f4 <_printf_i+0x1f8>
    8922:	00001697          	auipc	a3,0x1
    8926:	66e68693          	addi	a3,a3,1646 # 9f90 <__clz_tab+0x154>
    892a:	4729                	li	a4,10
    892c:	040401a3          	sb	zero,67(s0)
    8930:	404c                	lw	a1,4(s0)
    8932:	c40c                	sw	a1,8(s0)
    8934:	0005c563          	bltz	a1,893e <_printf_i+0x142>
    8938:	4008                	lw	a0,0(s0)
    893a:	996d                	andi	a0,a0,-5
    893c:	c008                	sw	a0,0(s0)
    893e:	e399                	bnez	a5,8944 <_printf_i+0x148>
    8940:	8ab2                	mv	s5,a2
    8942:	cd91                	beqz	a1,895e <_printf_i+0x162>
    8944:	8ab2                	mv	s5,a2
    8946:	02e7f5b3          	remu	a1,a5,a4
    894a:	1afd                	addi	s5,s5,-1
    894c:	95b6                	add	a1,a1,a3
    894e:	0005c583          	lbu	a1,0(a1)
    8952:	00ba8023          	sb	a1,0(s5)
    8956:	02e7d5b3          	divu	a1,a5,a4
    895a:	0ae7f363          	bgeu	a5,a4,8a00 <_printf_i+0x204>
    895e:	47a1                	li	a5,8
    8960:	00f71e63          	bne	a4,a5,897c <_printf_i+0x180>
    8964:	401c                	lw	a5,0(s0)
    8966:	8b85                	andi	a5,a5,1
    8968:	cb91                	beqz	a5,897c <_printf_i+0x180>
    896a:	4058                	lw	a4,4(s0)
    896c:	481c                	lw	a5,16(s0)
    896e:	00e7c763          	blt	a5,a4,897c <_printf_i+0x180>
    8972:	03000793          	li	a5,48
    8976:	fefa8fa3          	sb	a5,-1(s5)
    897a:	1afd                	addi	s5,s5,-1
    897c:	41560633          	sub	a2,a2,s5
    8980:	c810                	sw	a2,16(s0)
    8982:	874e                	mv	a4,s3
    8984:	86ca                	mv	a3,s2
    8986:	0070                	addi	a2,sp,12
    8988:	85a2                	mv	a1,s0
    898a:	8526                	mv	a0,s1
    898c:	d65ff0ef          	jal	ra,86f0 <_printf_common>
    8990:	5a7d                	li	s4,-1
    8992:	0d451463          	bne	a0,s4,8a5a <_printf_i+0x25e>
    8996:	557d                	li	a0,-1
    8998:	50b2                	lw	ra,44(sp)
    899a:	5422                	lw	s0,40(sp)
    899c:	5492                	lw	s1,36(sp)
    899e:	5902                	lw	s2,32(sp)
    89a0:	49f2                	lw	s3,28(sp)
    89a2:	4a62                	lw	s4,24(sp)
    89a4:	4ad2                	lw	s5,20(sp)
    89a6:	4b42                	lw	s6,16(sp)
    89a8:	6145                	addi	sp,sp,48
    89aa:	8082                	ret
    89ac:	04d582a3          	sb	a3,69(a1)
    89b0:	00001697          	auipc	a3,0x1
    89b4:	5e068693          	addi	a3,a3,1504 # 9f90 <__clz_tab+0x154>
    89b8:	400c                	lw	a1,0(s0)
    89ba:	4308                	lw	a0,0(a4)
    89bc:	0805f813          	andi	a6,a1,128
    89c0:	411c                	lw	a5,0(a0)
    89c2:	0511                	addi	a0,a0,4
    89c4:	02080063          	beqz	a6,89e4 <_printf_i+0x1e8>
    89c8:	c308                	sw	a0,0(a4)
    89ca:	0015f713          	andi	a4,a1,1
    89ce:	c701                	beqz	a4,89d6 <_printf_i+0x1da>
    89d0:	0205e593          	ori	a1,a1,32
    89d4:	c00c                	sw	a1,0(s0)
    89d6:	4741                	li	a4,16
    89d8:	fbb1                	bnez	a5,892c <_printf_i+0x130>
    89da:	400c                	lw	a1,0(s0)
    89dc:	fdf5f593          	andi	a1,a1,-33
    89e0:	c00c                	sw	a1,0(s0)
    89e2:	b7a9                	j	892c <_printf_i+0x130>
    89e4:	0405f813          	andi	a6,a1,64
    89e8:	c308                	sw	a0,0(a4)
    89ea:	fe0800e3          	beqz	a6,89ca <_printf_i+0x1ce>
    89ee:	07c2                	slli	a5,a5,0x10
    89f0:	83c1                	srli	a5,a5,0x10
    89f2:	bfe1                	j	89ca <_printf_i+0x1ce>
    89f4:	00001697          	auipc	a3,0x1
    89f8:	59c68693          	addi	a3,a3,1436 # 9f90 <__clz_tab+0x154>
    89fc:	4721                	li	a4,8
    89fe:	b73d                	j	892c <_printf_i+0x130>
    8a00:	87ae                	mv	a5,a1
    8a02:	b791                	j	8946 <_printf_i+0x14a>
    8a04:	4194                	lw	a3,0(a1)
    8a06:	431c                	lw	a5,0(a4)
    8a08:	49cc                	lw	a1,20(a1)
    8a0a:	0806f813          	andi	a6,a3,128
    8a0e:	00478513          	addi	a0,a5,4
    8a12:	00080663          	beqz	a6,8a1e <_printf_i+0x222>
    8a16:	c308                	sw	a0,0(a4)
    8a18:	439c                	lw	a5,0(a5)
    8a1a:	c38c                	sw	a1,0(a5)
    8a1c:	a801                	j	8a2c <_printf_i+0x230>
    8a1e:	c308                	sw	a0,0(a4)
    8a20:	0406f693          	andi	a3,a3,64
    8a24:	439c                	lw	a5,0(a5)
    8a26:	daf5                	beqz	a3,8a1a <_printf_i+0x21e>
    8a28:	00b79023          	sh	a1,0(a5)
    8a2c:	00042823          	sw	zero,16(s0)
    8a30:	8ab2                	mv	s5,a2
    8a32:	bf81                	j	8982 <_printf_i+0x186>
    8a34:	431c                	lw	a5,0(a4)
    8a36:	41d0                	lw	a2,4(a1)
    8a38:	4581                	li	a1,0
    8a3a:	00478693          	addi	a3,a5,4
    8a3e:	c314                	sw	a3,0(a4)
    8a40:	0007aa83          	lw	s5,0(a5)
    8a44:	8556                	mv	a0,s5
    8a46:	2dfd                	jal	9144 <memchr>
    8a48:	c501                	beqz	a0,8a50 <_printf_i+0x254>
    8a4a:	41550533          	sub	a0,a0,s5
    8a4e:	c048                	sw	a0,4(s0)
    8a50:	405c                	lw	a5,4(s0)
    8a52:	c81c                	sw	a5,16(s0)
    8a54:	040401a3          	sb	zero,67(s0)
    8a58:	b72d                	j	8982 <_printf_i+0x186>
    8a5a:	4814                	lw	a3,16(s0)
    8a5c:	8656                	mv	a2,s5
    8a5e:	85ca                	mv	a1,s2
    8a60:	8526                	mv	a0,s1
    8a62:	9982                	jalr	s3
    8a64:	f34509e3          	beq	a0,s4,8996 <_printf_i+0x19a>
    8a68:	401c                	lw	a5,0(s0)
    8a6a:	8b89                	andi	a5,a5,2
    8a6c:	e78d                	bnez	a5,8a96 <_printf_i+0x29a>
    8a6e:	47b2                	lw	a5,12(sp)
    8a70:	4448                	lw	a0,12(s0)
    8a72:	f2f553e3          	bge	a0,a5,8998 <_printf_i+0x19c>
    8a76:	853e                	mv	a0,a5
    8a78:	b705                	j	8998 <_printf_i+0x19c>
    8a7a:	4685                	li	a3,1
    8a7c:	8656                	mv	a2,s5
    8a7e:	85ca                	mv	a1,s2
    8a80:	8526                	mv	a0,s1
    8a82:	9982                	jalr	s3
    8a84:	f16509e3          	beq	a0,s6,8996 <_printf_i+0x19a>
    8a88:	0a05                	addi	s4,s4,1
    8a8a:	445c                	lw	a5,12(s0)
    8a8c:	4732                	lw	a4,12(sp)
    8a8e:	8f99                	sub	a5,a5,a4
    8a90:	fefa45e3          	blt	s4,a5,8a7a <_printf_i+0x27e>
    8a94:	bfe9                	j	8a6e <_printf_i+0x272>
    8a96:	4a01                	li	s4,0
    8a98:	01940a93          	addi	s5,s0,25
    8a9c:	5b7d                	li	s6,-1
    8a9e:	b7f5                	j	8a8a <_printf_i+0x28e>

00008aa0 <__swbuf_r>:
__swbuf_r():
    8aa0:	1101                	addi	sp,sp,-32
    8aa2:	cc22                	sw	s0,24(sp)
    8aa4:	ca26                	sw	s1,20(sp)
    8aa6:	c84a                	sw	s2,16(sp)
    8aa8:	ce06                	sw	ra,28(sp)
    8aaa:	c64e                	sw	s3,12(sp)
    8aac:	84aa                	mv	s1,a0
    8aae:	892e                	mv	s2,a1
    8ab0:	8432                	mv	s0,a2
    8ab2:	c501                	beqz	a0,8aba <__swbuf_r+0x1a>
    8ab4:	4d1c                	lw	a5,24(a0)
    8ab6:	e391                	bnez	a5,8aba <__swbuf_r+0x1a>
    8ab8:	2939                	jal	8ed6 <__sinit>
    8aba:	00001797          	auipc	a5,0x1
    8abe:	51e78793          	addi	a5,a5,1310 # 9fd8 <__sf_fake_stdin>
    8ac2:	06f41963          	bne	s0,a5,8b34 <__swbuf_r+0x94>
    8ac6:	40c0                	lw	s0,4(s1)
    8ac8:	4c1c                	lw	a5,24(s0)
    8aca:	c41c                	sw	a5,8(s0)
    8acc:	00c45783          	lhu	a5,12(s0)
    8ad0:	8ba1                	andi	a5,a5,8
    8ad2:	c3c9                	beqz	a5,8b54 <__swbuf_r+0xb4>
    8ad4:	481c                	lw	a5,16(s0)
    8ad6:	cfbd                	beqz	a5,8b54 <__swbuf_r+0xb4>
    8ad8:	481c                	lw	a5,16(s0)
    8ada:	4008                	lw	a0,0(s0)
    8adc:	0ff97993          	andi	s3,s2,255
    8ae0:	0ff97913          	andi	s2,s2,255
    8ae4:	8d1d                	sub	a0,a0,a5
    8ae6:	485c                	lw	a5,20(s0)
    8ae8:	00f54663          	blt	a0,a5,8af4 <__swbuf_r+0x54>
    8aec:	85a2                	mv	a1,s0
    8aee:	8526                	mv	a0,s1
    8af0:	24d9                	jal	8db6 <_fflush_r>
    8af2:	e52d                	bnez	a0,8b5c <__swbuf_r+0xbc>
    8af4:	441c                	lw	a5,8(s0)
    8af6:	0505                	addi	a0,a0,1
    8af8:	17fd                	addi	a5,a5,-1
    8afa:	c41c                	sw	a5,8(s0)
    8afc:	401c                	lw	a5,0(s0)
    8afe:	00178713          	addi	a4,a5,1
    8b02:	c018                	sw	a4,0(s0)
    8b04:	01378023          	sb	s3,0(a5)
    8b08:	485c                	lw	a5,20(s0)
    8b0a:	00a78963          	beq	a5,a0,8b1c <__swbuf_r+0x7c>
    8b0e:	00c45783          	lhu	a5,12(s0)
    8b12:	8b85                	andi	a5,a5,1
    8b14:	cb81                	beqz	a5,8b24 <__swbuf_r+0x84>
    8b16:	47a9                	li	a5,10
    8b18:	00f91663          	bne	s2,a5,8b24 <__swbuf_r+0x84>
    8b1c:	85a2                	mv	a1,s0
    8b1e:	8526                	mv	a0,s1
    8b20:	2c59                	jal	8db6 <_fflush_r>
    8b22:	ed0d                	bnez	a0,8b5c <__swbuf_r+0xbc>
    8b24:	40f2                	lw	ra,28(sp)
    8b26:	4462                	lw	s0,24(sp)
    8b28:	854a                	mv	a0,s2
    8b2a:	44d2                	lw	s1,20(sp)
    8b2c:	4942                	lw	s2,16(sp)
    8b2e:	49b2                	lw	s3,12(sp)
    8b30:	6105                	addi	sp,sp,32
    8b32:	8082                	ret
    8b34:	00001797          	auipc	a5,0x1
    8b38:	4c478793          	addi	a5,a5,1220 # 9ff8 <__sf_fake_stdout>
    8b3c:	00f41463          	bne	s0,a5,8b44 <__swbuf_r+0xa4>
    8b40:	4480                	lw	s0,8(s1)
    8b42:	b759                	j	8ac8 <__swbuf_r+0x28>
    8b44:	00001797          	auipc	a5,0x1
    8b48:	47478793          	addi	a5,a5,1140 # 9fb8 <__sf_fake_stderr>
    8b4c:	f6f41ee3          	bne	s0,a5,8ac8 <__swbuf_r+0x28>
    8b50:	44c0                	lw	s0,12(s1)
    8b52:	bf9d                	j	8ac8 <__swbuf_r+0x28>
    8b54:	85a2                	mv	a1,s0
    8b56:	8526                	mv	a0,s1
    8b58:	2021                	jal	8b60 <__swsetup_r>
    8b5a:	dd3d                	beqz	a0,8ad8 <__swbuf_r+0x38>
    8b5c:	597d                	li	s2,-1
    8b5e:	b7d9                	j	8b24 <__swbuf_r+0x84>

00008b60 <__swsetup_r>:
__swsetup_r():
    8b60:	1141                	addi	sp,sp,-16
    8b62:	80c18793          	addi	a5,gp,-2036 # 20000124 <_impure_ptr>
    8b66:	c226                	sw	s1,4(sp)
    8b68:	4384                	lw	s1,0(a5)
    8b6a:	c422                	sw	s0,8(sp)
    8b6c:	c04a                	sw	s2,0(sp)
    8b6e:	c606                	sw	ra,12(sp)
    8b70:	892a                	mv	s2,a0
    8b72:	842e                	mv	s0,a1
    8b74:	c489                	beqz	s1,8b7e <__swsetup_r+0x1e>
    8b76:	4c9c                	lw	a5,24(s1)
    8b78:	e399                	bnez	a5,8b7e <__swsetup_r+0x1e>
    8b7a:	8526                	mv	a0,s1
    8b7c:	2ea9                	jal	8ed6 <__sinit>
    8b7e:	00001797          	auipc	a5,0x1
    8b82:	45a78793          	addi	a5,a5,1114 # 9fd8 <__sf_fake_stdin>
    8b86:	02f41c63          	bne	s0,a5,8bbe <__swsetup_r+0x5e>
    8b8a:	40c0                	lw	s0,4(s1)
    8b8c:	00c41703          	lh	a4,12(s0)
    8b90:	01071793          	slli	a5,a4,0x10
    8b94:	83c1                	srli	a5,a5,0x10
    8b96:	0087f693          	andi	a3,a5,8
    8b9a:	eeb5                	bnez	a3,8c16 <__swsetup_r+0xb6>
    8b9c:	0107f693          	andi	a3,a5,16
    8ba0:	ee9d                	bnez	a3,8bde <__swsetup_r+0x7e>
    8ba2:	47a5                	li	a5,9
    8ba4:	00f92023          	sw	a5,0(s2)
    8ba8:	04076713          	ori	a4,a4,64
    8bac:	00e41623          	sh	a4,12(s0)
    8bb0:	557d                	li	a0,-1
    8bb2:	40b2                	lw	ra,12(sp)
    8bb4:	4422                	lw	s0,8(sp)
    8bb6:	4492                	lw	s1,4(sp)
    8bb8:	4902                	lw	s2,0(sp)
    8bba:	0141                	addi	sp,sp,16
    8bbc:	8082                	ret
    8bbe:	00001797          	auipc	a5,0x1
    8bc2:	43a78793          	addi	a5,a5,1082 # 9ff8 <__sf_fake_stdout>
    8bc6:	00f41463          	bne	s0,a5,8bce <__swsetup_r+0x6e>
    8bca:	4480                	lw	s0,8(s1)
    8bcc:	b7c1                	j	8b8c <__swsetup_r+0x2c>
    8bce:	00001797          	auipc	a5,0x1
    8bd2:	3ea78793          	addi	a5,a5,1002 # 9fb8 <__sf_fake_stderr>
    8bd6:	faf41be3          	bne	s0,a5,8b8c <__swsetup_r+0x2c>
    8bda:	44c0                	lw	s0,12(s1)
    8bdc:	bf45                	j	8b8c <__swsetup_r+0x2c>
    8bde:	8b91                	andi	a5,a5,4
    8be0:	c78d                	beqz	a5,8c0a <__swsetup_r+0xaa>
    8be2:	584c                	lw	a1,52(s0)
    8be4:	c989                	beqz	a1,8bf6 <__swsetup_r+0x96>
    8be6:	04440793          	addi	a5,s0,68
    8bea:	00f58463          	beq	a1,a5,8bf2 <__swsetup_r+0x92>
    8bee:	854a                	mv	a0,s2
    8bf0:	23bd                	jal	915e <_free_r>
    8bf2:	02042a23          	sw	zero,52(s0)
    8bf6:	00c45783          	lhu	a5,12(s0)
    8bfa:	00042223          	sw	zero,4(s0)
    8bfe:	fdb7f793          	andi	a5,a5,-37
    8c02:	00f41623          	sh	a5,12(s0)
    8c06:	481c                	lw	a5,16(s0)
    8c08:	c01c                	sw	a5,0(s0)
    8c0a:	00c45783          	lhu	a5,12(s0)
    8c0e:	0087e793          	ori	a5,a5,8
    8c12:	00f41623          	sh	a5,12(s0)
    8c16:	481c                	lw	a5,16(s0)
    8c18:	ef81                	bnez	a5,8c30 <__swsetup_r+0xd0>
    8c1a:	00c45783          	lhu	a5,12(s0)
    8c1e:	20000713          	li	a4,512
    8c22:	2807f793          	andi	a5,a5,640
    8c26:	00e78563          	beq	a5,a4,8c30 <__swsetup_r+0xd0>
    8c2a:	85a2                	mv	a1,s0
    8c2c:	854a                	mv	a0,s2
    8c2e:	29a5                	jal	90a6 <__smakebuf_r>
    8c30:	00c45783          	lhu	a5,12(s0)
    8c34:	0017f713          	andi	a4,a5,1
    8c38:	c705                	beqz	a4,8c60 <__swsetup_r+0x100>
    8c3a:	485c                	lw	a5,20(s0)
    8c3c:	00042423          	sw	zero,8(s0)
    8c40:	40f007b3          	neg	a5,a5
    8c44:	cc1c                	sw	a5,24(s0)
    8c46:	481c                	lw	a5,16(s0)
    8c48:	4501                	li	a0,0
    8c4a:	f7a5                	bnez	a5,8bb2 <__swsetup_r+0x52>
    8c4c:	00c41783          	lh	a5,12(s0)
    8c50:	0807f713          	andi	a4,a5,128
    8c54:	df39                	beqz	a4,8bb2 <__swsetup_r+0x52>
    8c56:	0407e793          	ori	a5,a5,64
    8c5a:	00f41623          	sh	a5,12(s0)
    8c5e:	bf89                	j	8bb0 <__swsetup_r+0x50>
    8c60:	8b89                	andi	a5,a5,2
    8c62:	4701                	li	a4,0
    8c64:	e391                	bnez	a5,8c68 <__swsetup_r+0x108>
    8c66:	4858                	lw	a4,20(s0)
    8c68:	c418                	sw	a4,8(s0)
    8c6a:	bff1                	j	8c46 <__swsetup_r+0xe6>

00008c6c <abort>:
abort():
    8c6c:	1141                	addi	sp,sp,-16
    8c6e:	4519                	li	a0,6
    8c70:	c606                	sw	ra,12(sp)
    8c72:	2dc5                	jal	9362 <raise>
    8c74:	4505                	li	a0,1
    8c76:	1af000ef          	jal	ra,9624 <_exit>

00008c7a <__sflush_r>:
__sflush_r():
    8c7a:	00c5d783          	lhu	a5,12(a1)
    8c7e:	1101                	addi	sp,sp,-32
    8c80:	cc22                	sw	s0,24(sp)
    8c82:	ca26                	sw	s1,20(sp)
    8c84:	ce06                	sw	ra,28(sp)
    8c86:	c84a                	sw	s2,16(sp)
    8c88:	c64e                	sw	s3,12(sp)
    8c8a:	0087f713          	andi	a4,a5,8
    8c8e:	84aa                	mv	s1,a0
    8c90:	842e                	mv	s0,a1
    8c92:	ef71                	bnez	a4,8d6e <__sflush_r+0xf4>
    8c94:	41d8                	lw	a4,4(a1)
    8c96:	00e04d63          	bgtz	a4,8cb0 <__sflush_r+0x36>
    8c9a:	41b8                	lw	a4,64(a1)
    8c9c:	00e04a63          	bgtz	a4,8cb0 <__sflush_r+0x36>
    8ca0:	4501                	li	a0,0
    8ca2:	40f2                	lw	ra,28(sp)
    8ca4:	4462                	lw	s0,24(sp)
    8ca6:	44d2                	lw	s1,20(sp)
    8ca8:	4942                	lw	s2,16(sp)
    8caa:	49b2                	lw	s3,12(sp)
    8cac:	6105                	addi	sp,sp,32
    8cae:	8082                	ret
    8cb0:	5458                	lw	a4,44(s0)
    8cb2:	d77d                	beqz	a4,8ca0 <__sflush_r+0x26>
    8cb4:	0004a903          	lw	s2,0(s1)
    8cb8:	01379693          	slli	a3,a5,0x13
    8cbc:	0004a023          	sw	zero,0(s1)
    8cc0:	0606dd63          	bgez	a3,8d3a <__sflush_r+0xc0>
    8cc4:	4870                	lw	a2,84(s0)
    8cc6:	00c45783          	lhu	a5,12(s0)
    8cca:	8b91                	andi	a5,a5,4
    8ccc:	c799                	beqz	a5,8cda <__sflush_r+0x60>
    8cce:	405c                	lw	a5,4(s0)
    8cd0:	8e1d                	sub	a2,a2,a5
    8cd2:	585c                	lw	a5,52(s0)
    8cd4:	c399                	beqz	a5,8cda <__sflush_r+0x60>
    8cd6:	403c                	lw	a5,64(s0)
    8cd8:	8e1d                	sub	a2,a2,a5
    8cda:	545c                	lw	a5,44(s0)
    8cdc:	500c                	lw	a1,32(s0)
    8cde:	4681                	li	a3,0
    8ce0:	8526                	mv	a0,s1
    8ce2:	9782                	jalr	a5
    8ce4:	57fd                	li	a5,-1
    8ce6:	00c45703          	lhu	a4,12(s0)
    8cea:	00f51d63          	bne	a0,a5,8d04 <__sflush_r+0x8a>
    8cee:	4094                	lw	a3,0(s1)
    8cf0:	47f5                	li	a5,29
    8cf2:	06d7e863          	bltu	a5,a3,8d62 <__sflush_r+0xe8>
    8cf6:	204007b7          	lui	a5,0x20400
    8cfa:	0785                	addi	a5,a5,1
    8cfc:	00d7d7b3          	srl	a5,a5,a3
    8d00:	8b85                	andi	a5,a5,1
    8d02:	c3a5                	beqz	a5,8d62 <__sflush_r+0xe8>
    8d04:	481c                	lw	a5,16(s0)
    8d06:	00042223          	sw	zero,4(s0)
    8d0a:	c01c                	sw	a5,0(s0)
    8d0c:	01371793          	slli	a5,a4,0x13
    8d10:	0007d863          	bgez	a5,8d20 <__sflush_r+0xa6>
    8d14:	57fd                	li	a5,-1
    8d16:	00f51463          	bne	a0,a5,8d1e <__sflush_r+0xa4>
    8d1a:	409c                	lw	a5,0(s1)
    8d1c:	e391                	bnez	a5,8d20 <__sflush_r+0xa6>
    8d1e:	c868                	sw	a0,84(s0)
    8d20:	584c                	lw	a1,52(s0)
    8d22:	0124a023          	sw	s2,0(s1)
    8d26:	ddad                	beqz	a1,8ca0 <__sflush_r+0x26>
    8d28:	04440793          	addi	a5,s0,68
    8d2c:	00f58463          	beq	a1,a5,8d34 <__sflush_r+0xba>
    8d30:	8526                	mv	a0,s1
    8d32:	2135                	jal	915e <_free_r>
    8d34:	02042a23          	sw	zero,52(s0)
    8d38:	b7a5                	j	8ca0 <__sflush_r+0x26>
    8d3a:	500c                	lw	a1,32(s0)
    8d3c:	4601                	li	a2,0
    8d3e:	4685                	li	a3,1
    8d40:	8526                	mv	a0,s1
    8d42:	9702                	jalr	a4
    8d44:	57fd                	li	a5,-1
    8d46:	862a                	mv	a2,a0
    8d48:	f6f51fe3          	bne	a0,a5,8cc6 <__sflush_r+0x4c>
    8d4c:	409c                	lw	a5,0(s1)
    8d4e:	dfa5                	beqz	a5,8cc6 <__sflush_r+0x4c>
    8d50:	4775                	li	a4,29
    8d52:	00e78563          	beq	a5,a4,8d5c <__sflush_r+0xe2>
    8d56:	4759                	li	a4,22
    8d58:	04e79463          	bne	a5,a4,8da0 <__sflush_r+0x126>
    8d5c:	0124a023          	sw	s2,0(s1)
    8d60:	b781                	j	8ca0 <__sflush_r+0x26>
    8d62:	04076713          	ori	a4,a4,64
    8d66:	00e41623          	sh	a4,12(s0)
    8d6a:	557d                	li	a0,-1
    8d6c:	bf1d                	j	8ca2 <__sflush_r+0x28>
    8d6e:	0105a983          	lw	s3,16(a1)
    8d72:	f20987e3          	beqz	s3,8ca0 <__sflush_r+0x26>
    8d76:	0005a903          	lw	s2,0(a1)
    8d7a:	8b8d                	andi	a5,a5,3
    8d7c:	0135a023          	sw	s3,0(a1)
    8d80:	41390933          	sub	s2,s2,s3
    8d84:	4701                	li	a4,0
    8d86:	e391                	bnez	a5,8d8a <__sflush_r+0x110>
    8d88:	49d8                	lw	a4,20(a1)
    8d8a:	c418                	sw	a4,8(s0)
    8d8c:	f1205ae3          	blez	s2,8ca0 <__sflush_r+0x26>
    8d90:	541c                	lw	a5,40(s0)
    8d92:	500c                	lw	a1,32(s0)
    8d94:	86ca                	mv	a3,s2
    8d96:	864e                	mv	a2,s3
    8d98:	8526                	mv	a0,s1
    8d9a:	9782                	jalr	a5
    8d9c:	00a04963          	bgtz	a0,8dae <__sflush_r+0x134>
    8da0:	00c45783          	lhu	a5,12(s0)
    8da4:	0407e793          	ori	a5,a5,64
    8da8:	00f41623          	sh	a5,12(s0)
    8dac:	bf7d                	j	8d6a <__sflush_r+0xf0>
    8dae:	99aa                	add	s3,s3,a0
    8db0:	40a90933          	sub	s2,s2,a0
    8db4:	bfe1                	j	8d8c <__sflush_r+0x112>

00008db6 <_fflush_r>:
_fflush_r():
    8db6:	499c                	lw	a5,16(a1)
    8db8:	c3a5                	beqz	a5,8e18 <_fflush_r+0x62>
    8dba:	1101                	addi	sp,sp,-32
    8dbc:	cc22                	sw	s0,24(sp)
    8dbe:	ce06                	sw	ra,28(sp)
    8dc0:	842a                	mv	s0,a0
    8dc2:	c511                	beqz	a0,8dce <_fflush_r+0x18>
    8dc4:	4d1c                	lw	a5,24(a0)
    8dc6:	e781                	bnez	a5,8dce <_fflush_r+0x18>
    8dc8:	c62e                	sw	a1,12(sp)
    8dca:	2231                	jal	8ed6 <__sinit>
    8dcc:	45b2                	lw	a1,12(sp)
    8dce:	00001797          	auipc	a5,0x1
    8dd2:	20a78793          	addi	a5,a5,522 # 9fd8 <__sf_fake_stdin>
    8dd6:	00f59c63          	bne	a1,a5,8dee <_fflush_r+0x38>
    8dda:	404c                	lw	a1,4(s0)
    8ddc:	00c59783          	lh	a5,12(a1)
    8de0:	c79d                	beqz	a5,8e0e <_fflush_r+0x58>
    8de2:	8522                	mv	a0,s0
    8de4:	4462                	lw	s0,24(sp)
    8de6:	40f2                	lw	ra,28(sp)
    8de8:	6105                	addi	sp,sp,32
    8dea:	e91ff06f          	j	8c7a <__sflush_r>
    8dee:	00001797          	auipc	a5,0x1
    8df2:	20a78793          	addi	a5,a5,522 # 9ff8 <__sf_fake_stdout>
    8df6:	00f59463          	bne	a1,a5,8dfe <_fflush_r+0x48>
    8dfa:	440c                	lw	a1,8(s0)
    8dfc:	b7c5                	j	8ddc <_fflush_r+0x26>
    8dfe:	00001797          	auipc	a5,0x1
    8e02:	1ba78793          	addi	a5,a5,442 # 9fb8 <__sf_fake_stderr>
    8e06:	fcf59be3          	bne	a1,a5,8ddc <_fflush_r+0x26>
    8e0a:	444c                	lw	a1,12(s0)
    8e0c:	bfc1                	j	8ddc <_fflush_r+0x26>
    8e0e:	40f2                	lw	ra,28(sp)
    8e10:	4462                	lw	s0,24(sp)
    8e12:	4501                	li	a0,0
    8e14:	6105                	addi	sp,sp,32
    8e16:	8082                	ret
    8e18:	4501                	li	a0,0
    8e1a:	8082                	ret

00008e1c <std>:
std():
    8e1c:	1141                	addi	sp,sp,-16
    8e1e:	c422                	sw	s0,8(sp)
    8e20:	c606                	sw	ra,12(sp)
    8e22:	842a                	mv	s0,a0
    8e24:	00b51623          	sh	a1,12(a0)
    8e28:	00c51723          	sh	a2,14(a0)
    8e2c:	00052023          	sw	zero,0(a0)
    8e30:	00052223          	sw	zero,4(a0)
    8e34:	00052423          	sw	zero,8(a0)
    8e38:	06052223          	sw	zero,100(a0)
    8e3c:	00052823          	sw	zero,16(a0)
    8e40:	00052a23          	sw	zero,20(a0)
    8e44:	00052c23          	sw	zero,24(a0)
    8e48:	4621                	li	a2,8
    8e4a:	4581                	li	a1,0
    8e4c:	05c50513          	addi	a0,a0,92
    8e50:	af0f70ef          	jal	ra,140 <memset>
    8e54:	00000797          	auipc	a5,0x0
    8e58:	54e78793          	addi	a5,a5,1358 # 93a2 <__sread>
    8e5c:	d05c                	sw	a5,36(s0)
    8e5e:	00000797          	auipc	a5,0x0
    8e62:	57478793          	addi	a5,a5,1396 # 93d2 <__swrite>
    8e66:	d41c                	sw	a5,40(s0)
    8e68:	00000797          	auipc	a5,0x0
    8e6c:	5b878793          	addi	a5,a5,1464 # 9420 <__sseek>
    8e70:	d45c                	sw	a5,44(s0)
    8e72:	00000797          	auipc	a5,0x0
    8e76:	5e478793          	addi	a5,a5,1508 # 9456 <__sclose>
    8e7a:	d000                	sw	s0,32(s0)
    8e7c:	d81c                	sw	a5,48(s0)
    8e7e:	40b2                	lw	ra,12(sp)
    8e80:	4422                	lw	s0,8(sp)
    8e82:	0141                	addi	sp,sp,16
    8e84:	8082                	ret

00008e86 <_cleanup_r>:
_cleanup_r():
    8e86:	00000597          	auipc	a1,0x0
    8e8a:	f3058593          	addi	a1,a1,-208 # 8db6 <_fflush_r>
    8e8e:	aa91                	j	8fe2 <_fwalk_reent>

00008e90 <__sfmoreglue>:
__sfmoreglue():
    8e90:	1141                	addi	sp,sp,-16
    8e92:	c226                	sw	s1,4(sp)
    8e94:	06800613          	li	a2,104
    8e98:	fff58493          	addi	s1,a1,-1
    8e9c:	02c484b3          	mul	s1,s1,a2
    8ea0:	c04a                	sw	s2,0(sp)
    8ea2:	892e                	mv	s2,a1
    8ea4:	c422                	sw	s0,8(sp)
    8ea6:	c606                	sw	ra,12(sp)
    8ea8:	07448593          	addi	a1,s1,116
    8eac:	2e99                	jal	9202 <_malloc_r>
    8eae:	842a                	mv	s0,a0
    8eb0:	cd01                	beqz	a0,8ec8 <__sfmoreglue+0x38>
    8eb2:	00052023          	sw	zero,0(a0)
    8eb6:	01252223          	sw	s2,4(a0)
    8eba:	0531                	addi	a0,a0,12
    8ebc:	c408                	sw	a0,8(s0)
    8ebe:	06848613          	addi	a2,s1,104
    8ec2:	4581                	li	a1,0
    8ec4:	a7cf70ef          	jal	ra,140 <memset>
    8ec8:	8522                	mv	a0,s0
    8eca:	40b2                	lw	ra,12(sp)
    8ecc:	4422                	lw	s0,8(sp)
    8ece:	4492                	lw	s1,4(sp)
    8ed0:	4902                	lw	s2,0(sp)
    8ed2:	0141                	addi	sp,sp,16
    8ed4:	8082                	ret

00008ed6 <__sinit>:
__sinit():
    8ed6:	4d1c                	lw	a5,24(a0)
    8ed8:	e7a5                	bnez	a5,8f40 <__sinit+0x6a>
    8eda:	1141                	addi	sp,sp,-16
    8edc:	c606                	sw	ra,12(sp)
    8ede:	c422                	sw	s0,8(sp)
    8ee0:	00000797          	auipc	a5,0x0
    8ee4:	fa678793          	addi	a5,a5,-90 # 8e86 <_cleanup_r>
    8ee8:	d51c                	sw	a5,40(a0)
    8eea:	81818793          	addi	a5,gp,-2024 # 20000130 <_global_impure_ptr>
    8eee:	439c                	lw	a5,0(a5)
    8ef0:	04052423          	sw	zero,72(a0)
    8ef4:	04052623          	sw	zero,76(a0)
    8ef8:	04052823          	sw	zero,80(a0)
    8efc:	00f51463          	bne	a0,a5,8f04 <__sinit+0x2e>
    8f00:	4785                	li	a5,1
    8f02:	cd1c                	sw	a5,24(a0)
    8f04:	842a                	mv	s0,a0
    8f06:	2835                	jal	8f42 <__sfp>
    8f08:	c048                	sw	a0,4(s0)
    8f0a:	8522                	mv	a0,s0
    8f0c:	281d                	jal	8f42 <__sfp>
    8f0e:	c408                	sw	a0,8(s0)
    8f10:	8522                	mv	a0,s0
    8f12:	2805                	jal	8f42 <__sfp>
    8f14:	c448                	sw	a0,12(s0)
    8f16:	4048                	lw	a0,4(s0)
    8f18:	4601                	li	a2,0
    8f1a:	4591                	li	a1,4
    8f1c:	f01ff0ef          	jal	ra,8e1c <std>
    8f20:	4408                	lw	a0,8(s0)
    8f22:	4605                	li	a2,1
    8f24:	45a5                	li	a1,9
    8f26:	ef7ff0ef          	jal	ra,8e1c <std>
    8f2a:	4448                	lw	a0,12(s0)
    8f2c:	4609                	li	a2,2
    8f2e:	45c9                	li	a1,18
    8f30:	eedff0ef          	jal	ra,8e1c <std>
    8f34:	4785                	li	a5,1
    8f36:	cc1c                	sw	a5,24(s0)
    8f38:	40b2                	lw	ra,12(sp)
    8f3a:	4422                	lw	s0,8(sp)
    8f3c:	0141                	addi	sp,sp,16
    8f3e:	8082                	ret
    8f40:	8082                	ret

00008f42 <__sfp>:
__sfp():
    8f42:	1141                	addi	sp,sp,-16
    8f44:	81818793          	addi	a5,gp,-2024 # 20000130 <_global_impure_ptr>
    8f48:	c226                	sw	s1,4(sp)
    8f4a:	4384                	lw	s1,0(a5)
    8f4c:	c04a                	sw	s2,0(sp)
    8f4e:	c606                	sw	ra,12(sp)
    8f50:	4c9c                	lw	a5,24(s1)
    8f52:	c422                	sw	s0,8(sp)
    8f54:	892a                	mv	s2,a0
    8f56:	e781                	bnez	a5,8f5e <__sfp+0x1c>
    8f58:	8526                	mv	a0,s1
    8f5a:	f7dff0ef          	jal	ra,8ed6 <__sinit>
    8f5e:	04848493          	addi	s1,s1,72
    8f62:	4480                	lw	s0,8(s1)
    8f64:	40dc                	lw	a5,4(s1)
    8f66:	17fd                	addi	a5,a5,-1
    8f68:	0007d663          	bgez	a5,8f74 <__sfp+0x32>
    8f6c:	409c                	lw	a5,0(s1)
    8f6e:	cfb9                	beqz	a5,8fcc <__sfp+0x8a>
    8f70:	4084                	lw	s1,0(s1)
    8f72:	bfc5                	j	8f62 <__sfp+0x20>
    8f74:	00c41703          	lh	a4,12(s0)
    8f78:	e739                	bnez	a4,8fc6 <__sfp+0x84>
    8f7a:	77c1                	lui	a5,0xffff0
    8f7c:	0785                	addi	a5,a5,1
    8f7e:	06042223          	sw	zero,100(s0)
    8f82:	00042023          	sw	zero,0(s0)
    8f86:	00042223          	sw	zero,4(s0)
    8f8a:	00042423          	sw	zero,8(s0)
    8f8e:	c45c                	sw	a5,12(s0)
    8f90:	00042823          	sw	zero,16(s0)
    8f94:	00042a23          	sw	zero,20(s0)
    8f98:	00042c23          	sw	zero,24(s0)
    8f9c:	4621                	li	a2,8
    8f9e:	4581                	li	a1,0
    8fa0:	05c40513          	addi	a0,s0,92
    8fa4:	99cf70ef          	jal	ra,140 <memset>
    8fa8:	02042a23          	sw	zero,52(s0)
    8fac:	02042c23          	sw	zero,56(s0)
    8fb0:	04042423          	sw	zero,72(s0)
    8fb4:	04042623          	sw	zero,76(s0)
    8fb8:	8522                	mv	a0,s0
    8fba:	40b2                	lw	ra,12(sp)
    8fbc:	4422                	lw	s0,8(sp)
    8fbe:	4492                	lw	s1,4(sp)
    8fc0:	4902                	lw	s2,0(sp)
    8fc2:	0141                	addi	sp,sp,16
    8fc4:	8082                	ret
    8fc6:	06840413          	addi	s0,s0,104
    8fca:	bf71                	j	8f66 <__sfp+0x24>
    8fcc:	4591                	li	a1,4
    8fce:	854a                	mv	a0,s2
    8fd0:	ec1ff0ef          	jal	ra,8e90 <__sfmoreglue>
    8fd4:	c088                	sw	a0,0(s1)
    8fd6:	fd49                	bnez	a0,8f70 <__sfp+0x2e>
    8fd8:	47b1                	li	a5,12
    8fda:	00f92023          	sw	a5,0(s2)
    8fde:	4401                	li	s0,0
    8fe0:	bfe1                	j	8fb8 <__sfp+0x76>

00008fe2 <_fwalk_reent>:
_fwalk_reent():
    8fe2:	7179                	addi	sp,sp,-48
    8fe4:	d422                	sw	s0,40(sp)
    8fe6:	d04a                	sw	s2,32(sp)
    8fe8:	cc52                	sw	s4,24(sp)
    8fea:	ca56                	sw	s5,20(sp)
    8fec:	c85a                	sw	s6,16(sp)
    8fee:	c65e                	sw	s7,12(sp)
    8ff0:	d606                	sw	ra,44(sp)
    8ff2:	d226                	sw	s1,36(sp)
    8ff4:	ce4e                	sw	s3,28(sp)
    8ff6:	8a2a                	mv	s4,a0
    8ff8:	8aae                	mv	s5,a1
    8ffa:	04850413          	addi	s0,a0,72
    8ffe:	4901                	li	s2,0
    9000:	4b05                	li	s6,1
    9002:	5bfd                	li	s7,-1
    9004:	ec09                	bnez	s0,901e <_fwalk_reent+0x3c>
    9006:	50b2                	lw	ra,44(sp)
    9008:	5422                	lw	s0,40(sp)
    900a:	854a                	mv	a0,s2
    900c:	5492                	lw	s1,36(sp)
    900e:	5902                	lw	s2,32(sp)
    9010:	49f2                	lw	s3,28(sp)
    9012:	4a62                	lw	s4,24(sp)
    9014:	4ad2                	lw	s5,20(sp)
    9016:	4b42                	lw	s6,16(sp)
    9018:	4bb2                	lw	s7,12(sp)
    901a:	6145                	addi	sp,sp,48
    901c:	8082                	ret
    901e:	4404                	lw	s1,8(s0)
    9020:	00442983          	lw	s3,4(s0)
    9024:	19fd                	addi	s3,s3,-1
    9026:	0009d463          	bgez	s3,902e <_fwalk_reent+0x4c>
    902a:	4000                	lw	s0,0(s0)
    902c:	bfe1                	j	9004 <_fwalk_reent+0x22>
    902e:	00c4d783          	lhu	a5,12(s1)
    9032:	00fb7b63          	bgeu	s6,a5,9048 <_fwalk_reent+0x66>
    9036:	00e49783          	lh	a5,14(s1)
    903a:	01778763          	beq	a5,s7,9048 <_fwalk_reent+0x66>
    903e:	85a6                	mv	a1,s1
    9040:	8552                	mv	a0,s4
    9042:	9a82                	jalr	s5
    9044:	00a96933          	or	s2,s2,a0
    9048:	06848493          	addi	s1,s1,104
    904c:	bfe1                	j	9024 <_fwalk_reent+0x42>

0000904e <__swhatbuf_r>:
__swhatbuf_r():
    904e:	7119                	addi	sp,sp,-128
    9050:	daa6                	sw	s1,116(sp)
    9052:	84ae                	mv	s1,a1
    9054:	00e59583          	lh	a1,14(a1)
    9058:	dca2                	sw	s0,120(sp)
    905a:	de86                	sw	ra,124(sp)
    905c:	8432                	mv	s0,a2
    905e:	0005dc63          	bgez	a1,9076 <__swhatbuf_r+0x28>
    9062:	00c4d783          	lhu	a5,12(s1)
    9066:	0006a023          	sw	zero,0(a3)
    906a:	0807f793          	andi	a5,a5,128
    906e:	e39d                	bnez	a5,9094 <__swhatbuf_r+0x46>
    9070:	40000793          	li	a5,1024
    9074:	a015                	j	9098 <__swhatbuf_r+0x4a>
    9076:	0830                	addi	a2,sp,24
    9078:	c636                	sw	a3,12(sp)
    907a:	21a1                	jal	94c2 <_fstat_r>
    907c:	46b2                	lw	a3,12(sp)
    907e:	fe0542e3          	bltz	a0,9062 <__swhatbuf_r+0x14>
    9082:	4772                	lw	a4,28(sp)
    9084:	67bd                	lui	a5,0xf
    9086:	8ff9                	and	a5,a5,a4
    9088:	7779                	lui	a4,0xffffe
    908a:	97ba                	add	a5,a5,a4
    908c:	0017b793          	seqz	a5,a5
    9090:	c29c                	sw	a5,0(a3)
    9092:	bff9                	j	9070 <__swhatbuf_r+0x22>
    9094:	04000793          	li	a5,64
    9098:	c01c                	sw	a5,0(s0)
    909a:	50f6                	lw	ra,124(sp)
    909c:	5466                	lw	s0,120(sp)
    909e:	54d6                	lw	s1,116(sp)
    90a0:	4501                	li	a0,0
    90a2:	6109                	addi	sp,sp,128
    90a4:	8082                	ret

000090a6 <__smakebuf_r>:
__smakebuf_r():
    90a6:	00c5d783          	lhu	a5,12(a1)
    90aa:	1101                	addi	sp,sp,-32
    90ac:	cc22                	sw	s0,24(sp)
    90ae:	ce06                	sw	ra,28(sp)
    90b0:	ca26                	sw	s1,20(sp)
    90b2:	c84a                	sw	s2,16(sp)
    90b4:	8b89                	andi	a5,a5,2
    90b6:	842e                	mv	s0,a1
    90b8:	cf89                	beqz	a5,90d2 <__smakebuf_r+0x2c>
    90ba:	04740793          	addi	a5,s0,71
    90be:	c01c                	sw	a5,0(s0)
    90c0:	c81c                	sw	a5,16(s0)
    90c2:	4785                	li	a5,1
    90c4:	c85c                	sw	a5,20(s0)
    90c6:	40f2                	lw	ra,28(sp)
    90c8:	4462                	lw	s0,24(sp)
    90ca:	44d2                	lw	s1,20(sp)
    90cc:	4942                	lw	s2,16(sp)
    90ce:	6105                	addi	sp,sp,32
    90d0:	8082                	ret
    90d2:	0074                	addi	a3,sp,12
    90d4:	0030                	addi	a2,sp,8
    90d6:	84aa                	mv	s1,a0
    90d8:	f77ff0ef          	jal	ra,904e <__swhatbuf_r>
    90dc:	45a2                	lw	a1,8(sp)
    90de:	892a                	mv	s2,a0
    90e0:	8526                	mv	a0,s1
    90e2:	2205                	jal	9202 <_malloc_r>
    90e4:	ed01                	bnez	a0,90fc <__smakebuf_r+0x56>
    90e6:	00c41783          	lh	a5,12(s0)
    90ea:	2007f713          	andi	a4,a5,512
    90ee:	ff61                	bnez	a4,90c6 <__smakebuf_r+0x20>
    90f0:	9bf1                	andi	a5,a5,-4
    90f2:	0027e793          	ori	a5,a5,2
    90f6:	00f41623          	sh	a5,12(s0)
    90fa:	b7c1                	j	90ba <__smakebuf_r+0x14>
    90fc:	00000797          	auipc	a5,0x0
    9100:	d8a78793          	addi	a5,a5,-630 # 8e86 <_cleanup_r>
    9104:	d49c                	sw	a5,40(s1)
    9106:	00c45783          	lhu	a5,12(s0)
    910a:	c008                	sw	a0,0(s0)
    910c:	c808                	sw	a0,16(s0)
    910e:	0807e793          	ori	a5,a5,128
    9112:	00f41623          	sh	a5,12(s0)
    9116:	47a2                	lw	a5,8(sp)
    9118:	c85c                	sw	a5,20(s0)
    911a:	47b2                	lw	a5,12(sp)
    911c:	cf89                	beqz	a5,9136 <__smakebuf_r+0x90>
    911e:	00e41583          	lh	a1,14(s0)
    9122:	8526                	mv	a0,s1
    9124:	2ec1                	jal	94f4 <_isatty_r>
    9126:	c901                	beqz	a0,9136 <__smakebuf_r+0x90>
    9128:	00c45783          	lhu	a5,12(s0)
    912c:	9bf1                	andi	a5,a5,-4
    912e:	0017e793          	ori	a5,a5,1
    9132:	00f41623          	sh	a5,12(s0)
    9136:	00c45783          	lhu	a5,12(s0)
    913a:	00f96933          	or	s2,s2,a5
    913e:	01241623          	sh	s2,12(s0)
    9142:	b751                	j	90c6 <__smakebuf_r+0x20>

00009144 <memchr>:
memchr():
    9144:	0ff5f593          	andi	a1,a1,255
    9148:	962a                	add	a2,a2,a0
    914a:	00c51463          	bne	a0,a2,9152 <memchr+0xe>
    914e:	4501                	li	a0,0
    9150:	8082                	ret
    9152:	00054783          	lbu	a5,0(a0)
    9156:	feb78de3          	beq	a5,a1,9150 <memchr+0xc>
    915a:	0505                	addi	a0,a0,1
    915c:	b7fd                	j	914a <memchr+0x6>

0000915e <_free_r>:
_free_r():
    915e:	c1cd                	beqz	a1,9200 <_free_r+0xa2>
    9160:	ffc5a783          	lw	a5,-4(a1)
    9164:	1141                	addi	sp,sp,-16
    9166:	c422                	sw	s0,8(sp)
    9168:	c606                	sw	ra,12(sp)
    916a:	c226                	sw	s1,4(sp)
    916c:	ffc58413          	addi	s0,a1,-4
    9170:	0007d363          	bgez	a5,9176 <_free_r+0x18>
    9174:	943e                	add	s0,s0,a5
    9176:	84aa                	mv	s1,a0
    9178:	26c5                	jal	9558 <__malloc_lock>
    917a:	86018793          	addi	a5,gp,-1952 # 20000178 <__malloc_free_list>
    917e:	439c                	lw	a5,0(a5)
    9180:	eb99                	bnez	a5,9196 <_free_r+0x38>
    9182:	00042223          	sw	zero,4(s0)
    9186:	8681a023          	sw	s0,-1952(gp) # 20000178 <__malloc_free_list>
    918a:	4422                	lw	s0,8(sp)
    918c:	40b2                	lw	ra,12(sp)
    918e:	8526                	mv	a0,s1
    9190:	4492                	lw	s1,4(sp)
    9192:	0141                	addi	sp,sp,16
    9194:	a6d9                	j	955a <__malloc_unlock>
    9196:	00f47e63          	bgeu	s0,a5,91b2 <_free_r+0x54>
    919a:	4014                	lw	a3,0(s0)
    919c:	00d40733          	add	a4,s0,a3
    91a0:	00e79663          	bne	a5,a4,91ac <_free_r+0x4e>
    91a4:	4398                	lw	a4,0(a5)
    91a6:	43dc                	lw	a5,4(a5)
    91a8:	9736                	add	a4,a4,a3
    91aa:	c018                	sw	a4,0(s0)
    91ac:	c05c                	sw	a5,4(s0)
    91ae:	bfe1                	j	9186 <_free_r+0x28>
    91b0:	87ba                	mv	a5,a4
    91b2:	43d8                	lw	a4,4(a5)
    91b4:	c319                	beqz	a4,91ba <_free_r+0x5c>
    91b6:	fee47de3          	bgeu	s0,a4,91b0 <_free_r+0x52>
    91ba:	4394                	lw	a3,0(a5)
    91bc:	00d78633          	add	a2,a5,a3
    91c0:	00861f63          	bne	a2,s0,91de <_free_r+0x80>
    91c4:	4010                	lw	a2,0(s0)
    91c6:	96b2                	add	a3,a3,a2
    91c8:	c394                	sw	a3,0(a5)
    91ca:	00d78633          	add	a2,a5,a3
    91ce:	fac71ee3          	bne	a4,a2,918a <_free_r+0x2c>
    91d2:	4310                	lw	a2,0(a4)
    91d4:	4358                	lw	a4,4(a4)
    91d6:	96b2                	add	a3,a3,a2
    91d8:	c394                	sw	a3,0(a5)
    91da:	c3d8                	sw	a4,4(a5)
    91dc:	b77d                	j	918a <_free_r+0x2c>
    91de:	00c47563          	bgeu	s0,a2,91e8 <_free_r+0x8a>
    91e2:	47b1                	li	a5,12
    91e4:	c09c                	sw	a5,0(s1)
    91e6:	b755                	j	918a <_free_r+0x2c>
    91e8:	4010                	lw	a2,0(s0)
    91ea:	00c406b3          	add	a3,s0,a2
    91ee:	00d71663          	bne	a4,a3,91fa <_free_r+0x9c>
    91f2:	4314                	lw	a3,0(a4)
    91f4:	4358                	lw	a4,4(a4)
    91f6:	96b2                	add	a3,a3,a2
    91f8:	c014                	sw	a3,0(s0)
    91fa:	c058                	sw	a4,4(s0)
    91fc:	c3c0                	sw	s0,4(a5)
    91fe:	b771                	j	918a <_free_r+0x2c>
    9200:	8082                	ret

00009202 <_malloc_r>:
_malloc_r():
    9202:	1101                	addi	sp,sp,-32
    9204:	ca26                	sw	s1,20(sp)
    9206:	00358493          	addi	s1,a1,3
    920a:	98f1                	andi	s1,s1,-4
    920c:	ce06                	sw	ra,28(sp)
    920e:	cc22                	sw	s0,24(sp)
    9210:	c84a                	sw	s2,16(sp)
    9212:	c64e                	sw	s3,12(sp)
    9214:	04a1                	addi	s1,s1,8
    9216:	47b1                	li	a5,12
    9218:	04f4f163          	bgeu	s1,a5,925a <_malloc_r+0x58>
    921c:	44b1                	li	s1,12
    921e:	04b4e063          	bltu	s1,a1,925e <_malloc_r+0x5c>
    9222:	892a                	mv	s2,a0
    9224:	2e15                	jal	9558 <__malloc_lock>
    9226:	86018793          	addi	a5,gp,-1952 # 20000178 <__malloc_free_list>
    922a:	4398                	lw	a4,0(a5)
    922c:	843a                	mv	s0,a4
    922e:	e031                	bnez	s0,9272 <_malloc_r+0x70>
    9230:	86418793          	addi	a5,gp,-1948 # 2000017c <__malloc_sbrk_start>
    9234:	439c                	lw	a5,0(a5)
    9236:	e791                	bnez	a5,9242 <_malloc_r+0x40>
    9238:	4581                	li	a1,0
    923a:	854a                	mv	a0,s2
    923c:	2851                	jal	92d0 <_sbrk_r>
    923e:	86a1a223          	sw	a0,-1948(gp) # 2000017c <__malloc_sbrk_start>
    9242:	85a6                	mv	a1,s1
    9244:	854a                	mv	a0,s2
    9246:	2069                	jal	92d0 <_sbrk_r>
    9248:	59fd                	li	s3,-1
    924a:	07351763          	bne	a0,s3,92b8 <_malloc_r+0xb6>
    924e:	47b1                	li	a5,12
    9250:	00f92023          	sw	a5,0(s2)
    9254:	854a                	mv	a0,s2
    9256:	2611                	jal	955a <__malloc_unlock>
    9258:	a029                	j	9262 <_malloc_r+0x60>
    925a:	fc04d2e3          	bgez	s1,921e <_malloc_r+0x1c>
    925e:	47b1                	li	a5,12
    9260:	c11c                	sw	a5,0(a0)
    9262:	4501                	li	a0,0
    9264:	40f2                	lw	ra,28(sp)
    9266:	4462                	lw	s0,24(sp)
    9268:	44d2                	lw	s1,20(sp)
    926a:	4942                	lw	s2,16(sp)
    926c:	49b2                	lw	s3,12(sp)
    926e:	6105                	addi	sp,sp,32
    9270:	8082                	ret
    9272:	401c                	lw	a5,0(s0)
    9274:	8f85                	sub	a5,a5,s1
    9276:	0207ce63          	bltz	a5,92b2 <_malloc_r+0xb0>
    927a:	46ad                	li	a3,11
    927c:	00f6f663          	bgeu	a3,a5,9288 <_malloc_r+0x86>
    9280:	c01c                	sw	a5,0(s0)
    9282:	943e                	add	s0,s0,a5
    9284:	c004                	sw	s1,0(s0)
    9286:	a031                	j	9292 <_malloc_r+0x90>
    9288:	405c                	lw	a5,4(s0)
    928a:	02871263          	bne	a4,s0,92ae <_malloc_r+0xac>
    928e:	86f1a023          	sw	a5,-1952(gp) # 20000178 <__malloc_free_list>
    9292:	854a                	mv	a0,s2
    9294:	24d9                	jal	955a <__malloc_unlock>
    9296:	00b40513          	addi	a0,s0,11
    929a:	00440793          	addi	a5,s0,4
    929e:	9961                	andi	a0,a0,-8
    92a0:	40f50733          	sub	a4,a0,a5
    92a4:	d361                	beqz	a4,9264 <_malloc_r+0x62>
    92a6:	943a                	add	s0,s0,a4
    92a8:	8f89                	sub	a5,a5,a0
    92aa:	c01c                	sw	a5,0(s0)
    92ac:	bf65                	j	9264 <_malloc_r+0x62>
    92ae:	c35c                	sw	a5,4(a4)
    92b0:	b7cd                	j	9292 <_malloc_r+0x90>
    92b2:	8722                	mv	a4,s0
    92b4:	4040                	lw	s0,4(s0)
    92b6:	bfa5                	j	922e <_malloc_r+0x2c>
    92b8:	00350413          	addi	s0,a0,3
    92bc:	9871                	andi	s0,s0,-4
    92be:	fc8503e3          	beq	a0,s0,9284 <_malloc_r+0x82>
    92c2:	40a405b3          	sub	a1,s0,a0
    92c6:	854a                	mv	a0,s2
    92c8:	2021                	jal	92d0 <_sbrk_r>
    92ca:	fb351de3          	bne	a0,s3,9284 <_malloc_r+0x82>
    92ce:	b741                	j	924e <_malloc_r+0x4c>

000092d0 <_sbrk_r>:
_sbrk_r():
    92d0:	1141                	addi	sp,sp,-16
    92d2:	c422                	sw	s0,8(sp)
    92d4:	842a                	mv	s0,a0
    92d6:	852e                	mv	a0,a1
    92d8:	1fff9797          	auipc	a5,0x1fff9
    92dc:	5607ac23          	sw	zero,1400(a5) # 20002850 <errno>
    92e0:	c606                	sw	ra,12(sp)
    92e2:	2e39                	jal	9600 <_sbrk>
    92e4:	57fd                	li	a5,-1
    92e6:	00f51963          	bne	a0,a5,92f8 <_sbrk_r+0x28>
    92ea:	1fff9797          	auipc	a5,0x1fff9
    92ee:	56678793          	addi	a5,a5,1382 # 20002850 <errno>
    92f2:	439c                	lw	a5,0(a5)
    92f4:	c391                	beqz	a5,92f8 <_sbrk_r+0x28>
    92f6:	c01c                	sw	a5,0(s0)
    92f8:	40b2                	lw	ra,12(sp)
    92fa:	4422                	lw	s0,8(sp)
    92fc:	0141                	addi	sp,sp,16
    92fe:	8082                	ret

00009300 <_raise_r>:
_raise_r():
    9300:	47fd                	li	a5,31
    9302:	00b7f663          	bgeu	a5,a1,930e <_raise_r+0xe>
    9306:	47d9                	li	a5,22
    9308:	c11c                	sw	a5,0(a0)
    930a:	557d                	li	a0,-1
    930c:	8082                	ret
    930e:	417c                	lw	a5,68(a0)
    9310:	1101                	addi	sp,sp,-32
    9312:	cc22                	sw	s0,24(sp)
    9314:	ce06                	sw	ra,28(sp)
    9316:	862e                	mv	a2,a1
    9318:	842a                	mv	s0,a0
    931a:	c791                	beqz	a5,9326 <_raise_r+0x26>
    931c:	00259713          	slli	a4,a1,0x2
    9320:	97ba                	add	a5,a5,a4
    9322:	4398                	lw	a4,0(a5)
    9324:	eb19                	bnez	a4,933a <_raise_r+0x3a>
    9326:	8522                	mv	a0,s0
    9328:	c632                	sw	a2,12(sp)
    932a:	289d                	jal	93a0 <_getpid_r>
    932c:	85aa                	mv	a1,a0
    932e:	8522                	mv	a0,s0
    9330:	4462                	lw	s0,24(sp)
    9332:	4632                	lw	a2,12(sp)
    9334:	40f2                	lw	ra,28(sp)
    9336:	6105                	addi	sp,sp,32
    9338:	a81d                	j	936e <_kill_r>
    933a:	4685                	li	a3,1
    933c:	4501                	li	a0,0
    933e:	00d70863          	beq	a4,a3,934e <_raise_r+0x4e>
    9342:	56fd                	li	a3,-1
    9344:	00d71963          	bne	a4,a3,9356 <_raise_r+0x56>
    9348:	47d9                	li	a5,22
    934a:	c01c                	sw	a5,0(s0)
    934c:	4505                	li	a0,1
    934e:	40f2                	lw	ra,28(sp)
    9350:	4462                	lw	s0,24(sp)
    9352:	6105                	addi	sp,sp,32
    9354:	8082                	ret
    9356:	852e                	mv	a0,a1
    9358:	0007a023          	sw	zero,0(a5)
    935c:	9702                	jalr	a4
    935e:	4501                	li	a0,0
    9360:	b7fd                	j	934e <_raise_r+0x4e>

00009362 <raise>:
raise():
    9362:	80c18793          	addi	a5,gp,-2036 # 20000124 <_impure_ptr>
    9366:	85aa                	mv	a1,a0
    9368:	4388                	lw	a0,0(a5)
    936a:	f97ff06f          	j	9300 <_raise_r>

0000936e <_kill_r>:
_kill_r():
    936e:	1141                	addi	sp,sp,-16
    9370:	c422                	sw	s0,8(sp)
    9372:	842a                	mv	s0,a0
    9374:	852e                	mv	a0,a1
    9376:	85b2                	mv	a1,a2
    9378:	1fff9797          	auipc	a5,0x1fff9
    937c:	4c07ac23          	sw	zero,1240(a5) # 20002850 <errno>
    9380:	c606                	sw	ra,12(sp)
    9382:	24b9                	jal	95d0 <_kill>
    9384:	57fd                	li	a5,-1
    9386:	00f51963          	bne	a0,a5,9398 <_kill_r+0x2a>
    938a:	1fff9797          	auipc	a5,0x1fff9
    938e:	4c678793          	addi	a5,a5,1222 # 20002850 <errno>
    9392:	439c                	lw	a5,0(a5)
    9394:	c391                	beqz	a5,9398 <_kill_r+0x2a>
    9396:	c01c                	sw	a5,0(s0)
    9398:	40b2                	lw	ra,12(sp)
    939a:	4422                	lw	s0,8(sp)
    939c:	0141                	addi	sp,sp,16
    939e:	8082                	ret

000093a0 <_getpid_r>:
_getpid_r():
    93a0:	ac01                	j	95b0 <_getpid>

000093a2 <__sread>:
__sread():
    93a2:	1141                	addi	sp,sp,-16
    93a4:	c422                	sw	s0,8(sp)
    93a6:	842e                	mv	s0,a1
    93a8:	00e59583          	lh	a1,14(a1)
    93ac:	c606                	sw	ra,12(sp)
    93ae:	227d                	jal	955c <_read_r>
    93b0:	00054963          	bltz	a0,93c2 <__sread+0x20>
    93b4:	487c                	lw	a5,84(s0)
    93b6:	97aa                	add	a5,a5,a0
    93b8:	c87c                	sw	a5,84(s0)
    93ba:	40b2                	lw	ra,12(sp)
    93bc:	4422                	lw	s0,8(sp)
    93be:	0141                	addi	sp,sp,16
    93c0:	8082                	ret
    93c2:	00c45783          	lhu	a5,12(s0)
    93c6:	777d                	lui	a4,0xfffff
    93c8:	177d                	addi	a4,a4,-1
    93ca:	8ff9                	and	a5,a5,a4
    93cc:	00f41623          	sh	a5,12(s0)
    93d0:	b7ed                	j	93ba <__sread+0x18>

000093d2 <__swrite>:
__swrite():
    93d2:	00c5d783          	lhu	a5,12(a1)
    93d6:	1101                	addi	sp,sp,-32
    93d8:	cc22                	sw	s0,24(sp)
    93da:	ca26                	sw	s1,20(sp)
    93dc:	c84a                	sw	s2,16(sp)
    93de:	c64e                	sw	s3,12(sp)
    93e0:	ce06                	sw	ra,28(sp)
    93e2:	1007f793          	andi	a5,a5,256
    93e6:	84aa                	mv	s1,a0
    93e8:	842e                	mv	s0,a1
    93ea:	8932                	mv	s2,a2
    93ec:	89b6                	mv	s3,a3
    93ee:	c791                	beqz	a5,93fa <__swrite+0x28>
    93f0:	00e59583          	lh	a1,14(a1)
    93f4:	4689                	li	a3,2
    93f6:	4601                	li	a2,0
    93f8:	2235                	jal	9524 <_lseek_r>
    93fa:	00c45783          	lhu	a5,12(s0)
    93fe:	777d                	lui	a4,0xfffff
    9400:	177d                	addi	a4,a4,-1
    9402:	8ff9                	and	a5,a5,a4
    9404:	00f41623          	sh	a5,12(s0)
    9408:	00e41583          	lh	a1,14(s0)
    940c:	4462                	lw	s0,24(sp)
    940e:	40f2                	lw	ra,28(sp)
    9410:	86ce                	mv	a3,s3
    9412:	864a                	mv	a2,s2
    9414:	49b2                	lw	s3,12(sp)
    9416:	4942                	lw	s2,16(sp)
    9418:	8526                	mv	a0,s1
    941a:	44d2                	lw	s1,20(sp)
    941c:	6105                	addi	sp,sp,32
    941e:	a83d                	j	945c <_write_r>

00009420 <__sseek>:
__sseek():
    9420:	1141                	addi	sp,sp,-16
    9422:	c422                	sw	s0,8(sp)
    9424:	842e                	mv	s0,a1
    9426:	00e59583          	lh	a1,14(a1)
    942a:	c606                	sw	ra,12(sp)
    942c:	28e5                	jal	9524 <_lseek_r>
    942e:	57fd                	li	a5,-1
    9430:	00c45703          	lhu	a4,12(s0)
    9434:	00f51b63          	bne	a0,a5,944a <__sseek+0x2a>
    9438:	77fd                	lui	a5,0xfffff
    943a:	17fd                	addi	a5,a5,-1
    943c:	8ff9                	and	a5,a5,a4
    943e:	00f41623          	sh	a5,12(s0)
    9442:	40b2                	lw	ra,12(sp)
    9444:	4422                	lw	s0,8(sp)
    9446:	0141                	addi	sp,sp,16
    9448:	8082                	ret
    944a:	6785                	lui	a5,0x1
    944c:	8fd9                	or	a5,a5,a4
    944e:	00f41623          	sh	a5,12(s0)
    9452:	c868                	sw	a0,84(s0)
    9454:	b7fd                	j	9442 <__sseek+0x22>

00009456 <__sclose>:
__sclose():
    9456:	00e59583          	lh	a1,14(a1)
    945a:	a825                	j	9492 <_close_r>

0000945c <_write_r>:
_write_r():
    945c:	1141                	addi	sp,sp,-16
    945e:	c422                	sw	s0,8(sp)
    9460:	842a                	mv	s0,a0
    9462:	852e                	mv	a0,a1
    9464:	85b2                	mv	a1,a2
    9466:	8636                	mv	a2,a3
    9468:	1fff9797          	auipc	a5,0x1fff9
    946c:	3e07a423          	sw	zero,1000(a5) # 20002850 <errno>
    9470:	c606                	sw	ra,12(sp)
    9472:	952fb0ef          	jal	ra,45c4 <_write>
    9476:	57fd                	li	a5,-1
    9478:	00f51963          	bne	a0,a5,948a <_write_r+0x2e>
    947c:	1fff9797          	auipc	a5,0x1fff9
    9480:	3d478793          	addi	a5,a5,980 # 20002850 <errno>
    9484:	439c                	lw	a5,0(a5)
    9486:	c391                	beqz	a5,948a <_write_r+0x2e>
    9488:	c01c                	sw	a5,0(s0)
    948a:	40b2                	lw	ra,12(sp)
    948c:	4422                	lw	s0,8(sp)
    948e:	0141                	addi	sp,sp,16
    9490:	8082                	ret

00009492 <_close_r>:
_close_r():
    9492:	1141                	addi	sp,sp,-16
    9494:	c422                	sw	s0,8(sp)
    9496:	842a                	mv	s0,a0
    9498:	852e                	mv	a0,a1
    949a:	1fff9797          	auipc	a5,0x1fff9
    949e:	3a07ab23          	sw	zero,950(a5) # 20002850 <errno>
    94a2:	c606                	sw	ra,12(sp)
    94a4:	20f5                	jal	9590 <_close>
    94a6:	57fd                	li	a5,-1
    94a8:	00f51963          	bne	a0,a5,94ba <_close_r+0x28>
    94ac:	1fff9797          	auipc	a5,0x1fff9
    94b0:	3a478793          	addi	a5,a5,932 # 20002850 <errno>
    94b4:	439c                	lw	a5,0(a5)
    94b6:	c391                	beqz	a5,94ba <_close_r+0x28>
    94b8:	c01c                	sw	a5,0(s0)
    94ba:	40b2                	lw	ra,12(sp)
    94bc:	4422                	lw	s0,8(sp)
    94be:	0141                	addi	sp,sp,16
    94c0:	8082                	ret

000094c2 <_fstat_r>:
_fstat_r():
    94c2:	1141                	addi	sp,sp,-16
    94c4:	c422                	sw	s0,8(sp)
    94c6:	842a                	mv	s0,a0
    94c8:	852e                	mv	a0,a1
    94ca:	85b2                	mv	a1,a2
    94cc:	1fff9797          	auipc	a5,0x1fff9
    94d0:	3807a223          	sw	zero,900(a5) # 20002850 <errno>
    94d4:	c606                	sw	ra,12(sp)
    94d6:	20e9                	jal	95a0 <_fstat>
    94d8:	57fd                	li	a5,-1
    94da:	00f51963          	bne	a0,a5,94ec <_fstat_r+0x2a>
    94de:	1fff9797          	auipc	a5,0x1fff9
    94e2:	37278793          	addi	a5,a5,882 # 20002850 <errno>
    94e6:	439c                	lw	a5,0(a5)
    94e8:	c391                	beqz	a5,94ec <_fstat_r+0x2a>
    94ea:	c01c                	sw	a5,0(s0)
    94ec:	40b2                	lw	ra,12(sp)
    94ee:	4422                	lw	s0,8(sp)
    94f0:	0141                	addi	sp,sp,16
    94f2:	8082                	ret

000094f4 <_isatty_r>:
_isatty_r():
    94f4:	1141                	addi	sp,sp,-16
    94f6:	c422                	sw	s0,8(sp)
    94f8:	842a                	mv	s0,a0
    94fa:	852e                	mv	a0,a1
    94fc:	1fff9797          	auipc	a5,0x1fff9
    9500:	3407aa23          	sw	zero,852(a5) # 20002850 <errno>
    9504:	c606                	sw	ra,12(sp)
    9506:	286d                	jal	95c0 <_isatty>
    9508:	57fd                	li	a5,-1
    950a:	00f51963          	bne	a0,a5,951c <_isatty_r+0x28>
    950e:	1fff9797          	auipc	a5,0x1fff9
    9512:	34278793          	addi	a5,a5,834 # 20002850 <errno>
    9516:	439c                	lw	a5,0(a5)
    9518:	c391                	beqz	a5,951c <_isatty_r+0x28>
    951a:	c01c                	sw	a5,0(s0)
    951c:	40b2                	lw	ra,12(sp)
    951e:	4422                	lw	s0,8(sp)
    9520:	0141                	addi	sp,sp,16
    9522:	8082                	ret

00009524 <_lseek_r>:
_lseek_r():
    9524:	1141                	addi	sp,sp,-16
    9526:	c422                	sw	s0,8(sp)
    9528:	842a                	mv	s0,a0
    952a:	852e                	mv	a0,a1
    952c:	85b2                	mv	a1,a2
    952e:	8636                	mv	a2,a3
    9530:	1fff9797          	auipc	a5,0x1fff9
    9534:	3207a023          	sw	zero,800(a5) # 20002850 <errno>
    9538:	c606                	sw	ra,12(sp)
    953a:	205d                	jal	95e0 <_lseek>
    953c:	57fd                	li	a5,-1
    953e:	00f51963          	bne	a0,a5,9550 <_lseek_r+0x2c>
    9542:	1fff9797          	auipc	a5,0x1fff9
    9546:	30e78793          	addi	a5,a5,782 # 20002850 <errno>
    954a:	439c                	lw	a5,0(a5)
    954c:	c391                	beqz	a5,9550 <_lseek_r+0x2c>
    954e:	c01c                	sw	a5,0(s0)
    9550:	40b2                	lw	ra,12(sp)
    9552:	4422                	lw	s0,8(sp)
    9554:	0141                	addi	sp,sp,16
    9556:	8082                	ret

00009558 <__malloc_lock>:
__malloc_lock():
    9558:	8082                	ret

0000955a <__malloc_unlock>:
__malloc_unlock():
    955a:	8082                	ret

0000955c <_read_r>:
_read_r():
    955c:	1141                	addi	sp,sp,-16
    955e:	c422                	sw	s0,8(sp)
    9560:	842a                	mv	s0,a0
    9562:	852e                	mv	a0,a1
    9564:	85b2                	mv	a1,a2
    9566:	8636                	mv	a2,a3
    9568:	1fff9797          	auipc	a5,0x1fff9
    956c:	2e07a423          	sw	zero,744(a5) # 20002850 <errno>
    9570:	c606                	sw	ra,12(sp)
    9572:	28bd                	jal	95f0 <_read>
    9574:	57fd                	li	a5,-1
    9576:	00f51963          	bne	a0,a5,9588 <_read_r+0x2c>
    957a:	1fff9797          	auipc	a5,0x1fff9
    957e:	2d678793          	addi	a5,a5,726 # 20002850 <errno>
    9582:	439c                	lw	a5,0(a5)
    9584:	c391                	beqz	a5,9588 <_read_r+0x2c>
    9586:	c01c                	sw	a5,0(s0)
    9588:	40b2                	lw	ra,12(sp)
    958a:	4422                	lw	s0,8(sp)
    958c:	0141                	addi	sp,sp,16
    958e:	8082                	ret

00009590 <_close>:
_close():
    9590:	05800793          	li	a5,88
    9594:	1fff9717          	auipc	a4,0x1fff9
    9598:	2af72e23          	sw	a5,700(a4) # 20002850 <errno>
    959c:	557d                	li	a0,-1
    959e:	8082                	ret

000095a0 <_fstat>:
_fstat():
    95a0:	05800793          	li	a5,88
    95a4:	1fff9717          	auipc	a4,0x1fff9
    95a8:	2af72623          	sw	a5,684(a4) # 20002850 <errno>
    95ac:	557d                	li	a0,-1
    95ae:	8082                	ret

000095b0 <_getpid>:
_getpid():
    95b0:	05800793          	li	a5,88
    95b4:	1fff9717          	auipc	a4,0x1fff9
    95b8:	28f72e23          	sw	a5,668(a4) # 20002850 <errno>
    95bc:	557d                	li	a0,-1
    95be:	8082                	ret

000095c0 <_isatty>:
_isatty():
    95c0:	05800793          	li	a5,88
    95c4:	1fff9717          	auipc	a4,0x1fff9
    95c8:	28f72623          	sw	a5,652(a4) # 20002850 <errno>
    95cc:	4501                	li	a0,0
    95ce:	8082                	ret

000095d0 <_kill>:
_kill():
    95d0:	05800793          	li	a5,88
    95d4:	1fff9717          	auipc	a4,0x1fff9
    95d8:	26f72e23          	sw	a5,636(a4) # 20002850 <errno>
    95dc:	557d                	li	a0,-1
    95de:	8082                	ret

000095e0 <_lseek>:
_lseek():
    95e0:	05800793          	li	a5,88
    95e4:	1fff9717          	auipc	a4,0x1fff9
    95e8:	26f72623          	sw	a5,620(a4) # 20002850 <errno>
    95ec:	557d                	li	a0,-1
    95ee:	8082                	ret

000095f0 <_read>:
_read():
    95f0:	05800793          	li	a5,88
    95f4:	1fff9717          	auipc	a4,0x1fff9
    95f8:	24f72e23          	sw	a5,604(a4) # 20002850 <errno>
    95fc:	557d                	li	a0,-1
    95fe:	8082                	ret

00009600 <_sbrk>:
_sbrk():
    9600:	86818793          	addi	a5,gp,-1944 # 20000180 <heap_end.1518>
    9604:	439c                	lw	a5,0(a5)
    9606:	c791                	beqz	a5,9612 <_sbrk+0x12>
    9608:	953e                	add	a0,a0,a5
    960a:	86a1a423          	sw	a0,-1944(gp) # 20000180 <heap_end.1518>
    960e:	853e                	mv	a0,a5
    9610:	8082                	ret
    9612:	1fff9797          	auipc	a5,0x1fff9
    9616:	24278793          	addi	a5,a5,578 # 20002854 <_ebss>
    961a:	953e                	add	a0,a0,a5
    961c:	86a1a423          	sw	a0,-1944(gp) # 20000180 <heap_end.1518>
    9620:	853e                	mv	a0,a5
    9622:	8082                	ret

00009624 <_exit>:
_exit():
    9624:	a001                	j	9624 <_exit>
    9626:	0000                	unimp
    9628:	4654                	lw	a3,12(a2)
    962a:	5f54                	lw	a3,60(a4)
    962c:	5f58                	lw	a4,60(a4)
    962e:	414d                	li	sp,19
    9630:	3e58                	fld	fa4,184(a2)
    9632:	5f78                	lw	a4,124(a4)
    9634:	72617473          	csrrci	s0,0x726,2
    9638:	0074                	addi	a3,sp,12
    963a:	0000                	unimp
    963c:	2e2e                	fld	ft8,200(sp)
    963e:	62694c2f          	0x62694c2f
    9642:	6172                	flw	ft2,28(sp)
    9644:	6972                	flw	fs2,28(sp)
    9646:	7365                	lui	t1,0xffff9
    9648:	6565732f          	0x6565732f
    964c:	6572666b          	0x6572666b
    9650:	5f65                	li	t5,-7
    9652:	6570                	flw	fa2,76(a0)
    9654:	6972                	flw	fs2,28(sp)
    9656:	6870                	flw	fa2,84(s0)
    9658:	7265                	lui	tp,0xffff9
    965a:	6c61                	lui	s8,0x18
    965c:	4545532f          	0x4545532f
    9660:	4552464b          	0x4552464b
    9664:	5f45                	li	t5,-15
    9666:	3831                	jal	8e82 <std+0x66>
    9668:	4654                	lw	a3,12(a2)
    966a:	2e54                	fld	fa3,152(a2)
    966c:	00000063          	beqz	zero,966c <_exit+0x48>
    9670:	4654                	lw	a3,12(a2)
    9672:	5f54                	lw	a3,60(a4)
    9674:	5f59                	li	t5,-10
    9676:	414d                	li	sp,19
    9678:	3e58                	fld	fa4,184(a2)
    967a:	5f79                	li	t5,-2
    967c:	72617473          	csrrci	s0,0x726,2
    9680:	0074                	addi	a3,sp,12
    9682:	0000                	unimp
    9684:	4654                	lw	a3,12(a2)
    9686:	5f54                	lw	a3,60(a4)
    9688:	5f58                	lw	a4,60(a4)
    968a:	414d                	li	sp,19
    968c:	3e58                	fld	fa4,184(a2)
    968e:	5f78                	lw	a4,124(a4)
    9690:	6e65                	lui	t3,0x19
    9692:	0064                	addi	s1,sp,12
    9694:	4654                	lw	a3,12(a2)
    9696:	5f54                	lw	a3,60(a4)
    9698:	5f59                	li	t5,-10
    969a:	414d                	li	sp,19
    969c:	3e58                	fld	fa4,184(a2)
    969e:	5f79                	li	t5,-2
    96a0:	6e65                	lui	t3,0x19
    96a2:	0064                	addi	s1,sp,12
    96a4:	6425                	lui	s0,0x9
    96a6:	0000                	unimp
    96a8:	6625                	lui	a2,0x9
    96aa:	0000                	unimp
    96ac:	736d                	lui	t1,0xffffb
    96ae:	0000                	unimp
    96b0:	2e2e                	fld	ft8,200(sp)
    96b2:	62694c2f          	0x62694c2f
    96b6:	6172                	flw	ft2,28(sp)
    96b8:	6972                	flw	fs2,28(sp)
    96ba:	7365                	lui	t1,0xffff9
    96bc:	6565732f          	0x6565732f
    96c0:	6572666b          	0x6572666b
    96c4:	5f65                	li	t5,-7
    96c6:	696c                	flw	fa1,84(a0)
    96c8:	7262                	flw	ft4,56(sp)
    96ca:	7261                	lui	tp,0xffff8
    96cc:	6569                	lui	a0,0x1a
    96ce:	667a2f73          	csrrs	t5,0x667,s4
    96d2:	705f 7469 632e      	0x632e7469705f
    96d8:	0000                	unimp
    96da:	0000                	unimp
    96dc:	7375                	lui	t1,0xffffd
    96de:	0000                	unimp
    96e0:	0030                	addi	a2,sp,8
    96e2:	0000                	unimp
    96e4:	2e2e                	fld	ft8,200(sp)
    96e6:	62694c2f          	0x62694c2f
    96ea:	6172                	flw	ft2,28(sp)
    96ec:	6972                	flw	fs2,28(sp)
    96ee:	7365                	lui	t1,0xffff9
    96f0:	6565732f          	0x6565732f
    96f4:	6572666b          	0x6572666b
    96f8:	5f65                	li	t5,-7
    96fa:	696c                	flw	fa1,84(a0)
    96fc:	7262                	flw	ft4,56(sp)
    96fe:	7261                	lui	tp,0xffff8
    9700:	6569                	lui	a0,0x1a
    9702:	667a2f73          	csrrs	t5,0x667,s4
    9706:	735f 6970 632e      	0x632e6970735f
    970c:	0000                	unimp
    970e:	0000                	unimp
    9710:	cccd                	beqz	s1,97ca <tft_ascii+0x6e>
    9712:	3fcc                	fld	fa1,184(a5)
    9714:	0000                	unimp
    9716:	0000                	unimp
    9718:	6666                	flw	fa2,88(sp)
    971a:	6666                	flw	fa2,88(sp)
    971c:	6666                	flw	fa2,88(sp)
    971e:	3fe6                	fld	ft11,120(sp)
    9720:	33333333          	0x33333333
    9724:	3fe33333          	0x3fe33333
    9728:	cccd                	beqz	s1,97e2 <tft_ascii+0x86>
    972a:	402c                	lw	a1,64(s0)
    972c:	0000                	unimp
    972e:	0000                	unimp
    9730:	33333333          	0x33333333
    9734:	3ff33333          	0x3ff33333
    9738:	999a                	add	s3,s3,t1
    973a:	9999                	andi	a1,a1,-26
    973c:	9999                	andi	a1,a1,-26
    973e:	3ff1                	jal	971a <_exit+0xf6>
    9740:	0000                	unimp
    9742:	4244                	lw	s1,4(a2)
    9744:	0000                	unimp
    9746:	4000                	lw	s0,0(s0)
    9748:	0000                	unimp
    974a:	4080                	lw	s0,0(s1)

0000974c <__func__.3212>:
    974c:	636c 5f64 6573 5f74 6572 6967 6e6f 0000     lcd_set_region..

0000975c <tft_ascii>:
	...
    976c:	0000 0800 0808 0808 0808 0000 0808 0000     ................
    977c:	4800 2424 0012 0000 0000 0000 0000 0000     .H$$............
    978c:	0000 4800 4848 247e 2424 247e 2424 0000     ...HHH~$$$~$$$..
    979c:	0000 3c10 5252 1c12 5030 5250 3c52 1010     ...<RR..0PPRR<..
    97ac:	0000 2200 1525 0d15 582a 5454 2252 0000     ..."%...*XTTR"..
    97bc:	0000 0c00 1212 0a12 2576 1929 6e91 0000     ........v%)..n..
    97cc:	0600 0404 0002 0000 0000 0000 0000 0000     ................
    97dc:	4000 1020 0810 0808 0808 1008 2010 0040     .@ .......... @.
    97ec:	0200 0804 1008 1010 1010 0810 0408 0002     ................
    97fc:	0000 0000 0808 1c6b 6b1c 0808 0000 0000     ......k..k......
    980c:	0000 0000 1000 1010 10fe 1010 0000 0000     ................
	...
    9828:	0406 0204 0000 0000 0000 0000 007e 0000     ............~...
	...
    9848:	0606 0000 0000 2040 2020 1010 0808 0408     ......@   ......
    9858:	0204 0002 0000 1800 4224 4242 4242 4242     ........$BBBBBBB
    9868:	1824 0000 0000 1000 101c 1010 1010 1010     $...............
    9878:	7c10 0000 0000 3c00 4242 4042 1020 0408     .|.....<BBB@ ...
    9888:	7e42 0000 0000 3c00 4242 2040 2018 4240     B~.....<BB@ . @B
    9898:	3c42 0000 0000 2000 3030 2428 2224 20fe     B<..... 00($$". 
    98a8:	f820 0000 0000 7e00 0202 1e02 4022 4240      ......~...."@@B
    98b8:	1c22 0000 0000 1800 0224 3a02 4246 4242     ".......$..:FBBB
    98c8:	3844 0000 0000 7e00 2042 1020 0810 0808     D8.....~B  .....
    98d8:	0808 0000 0000 3c00 4242 2442 2418 4242     .......<BBB$.$BB
    98e8:	3c42 0000 0000 1c00 4222 4242 5c62 4040     B<......"BBBb\@@
    98f8:	1824 0000 0000 0000 0000 1818 0000 0000     $...............
    9908:	1818 0000 0000 0000 0000 0800 0000 0000     ................
    9918:	0800 0808 0000 4000 1020 0408 0402 1008     .......@ .......
    9928:	4020 0000 0000 0000 0000 007e 7e00 0000      @........~..~..
    9938:	0000 0000 0000 0200 0804 2010 2040 0810     ........... @ ..
    9948:	0204 0000 0000 3c00 4242 2046 1010 0010     .......<BBF ....
    9958:	1818 0000 0000 1c00 5a22 5555 5555 3a55     ........"ZUUUUU:
    9968:	3c42 0000 0000 0800 1808 1414 3c24 4222     B<..........$<"B
    9978:	e742 0000 0000 1f00 2222 1e22 4222 4242     B......."""."BBB
    9988:	1f22 0000 0000 7c00 4242 0101 0101 4201     "......|BB.....B
    9998:	1c22 0000 0000 1f00 4222 4242 4242 4242     "......."BBBBBBB
    99a8:	1f22 0000 0000 3f00 1242 1e12 1212 4202     "......?B......B
    99b8:	3f42 0000 0000 3f00 1242 1e12 1212 0202     B?.....?B.......
    99c8:	0702 0000 0000 3c00 2222 0101 7101 2221     .......<""...q!"
    99d8:	1c22 0000 0000 e700 4242 4242 427e 4242     ".......BBBB~BBB
    99e8:	e742 0000 0000 3e00 0808 0808 0808 0808     B......>........
    99f8:	3e08 0000 0000 7c00 1010 1010 1010 1010     .>.....|........
    9a08:	1010 0f11 0000 7700 1222 0e0a 120a 2212     .......w"......"
    9a18:	7722 0000 0000 0700 0202 0202 0202 0202     "w..............
    9a28:	7f42 0000 0000 7700 3636 3636 2a36 2a2a     B......w66666***
    9a38:	6b2a 0000 0000 e300 4646 4a4a 5252 6252     *k......FFJJRRRb
    9a48:	4762 0000 0000 1c00 4122 4141 4141 4141     bG......"AAAAAAA
    9a58:	1c22 0000 0000 3f00 4242 4242 023e 0202     "......?BBBB>...
    9a68:	0702 0000 0000 1c00 4122 4141 4141 4d41     ........"AAAAAAM
    9a78:	1c32 0060 0000 3f00 4242 3e42 1212 2222     2.`....?BBB>..""
    9a88:	c742 0000 0000 7c00 4242 0402 2018 4240     B......|BB... @B
    9a98:	3e42 0000 0000 7f00 0849 0808 0808 0808     B>......I.......
    9aa8:	1c08 0000 0000 e700 4242 4242 4242 4242     ........BBBBBBBB
    9ab8:	3c42 0000 0000 e700 4242 2422 1424 1814     B<......BB"$$...
    9ac8:	0808 0000 0000 6b00 2a2a 2a2a 362a 1414     .......k*****6..
    9ad8:	1414 0000 0000 e700 2442 1824 1818 2424     ........B$$...$$
    9ae8:	e742 0000 0000 7700 2222 1414 0808 0808     B......w""......
    9af8:	1c08 0000 0000 7e00 2021 1010 0408 4204     .......~! .....B
    9b08:	3f42 0000 7800 0808 0808 0808 0808 0808     B?...x..........
    9b18:	0808 0078 0000 0402 0404 0808 1008 2010     ..x............ 
    9b28:	2020 4040 1e00 1010 1010 1010 1010 1010       @@............
    9b38:	1010 001e 1800 0024 0000 0000 0000 0000     ......$.........
	...
    9b58:	0000 ff00 0600 0008 0000 0000 0000 0000     ................
	...
    9b70:	0000 1c00 3022 222c 6c32 0000 0000 0000     ...."0,"2l......
    9b80:	0203 1a02 4226 4242 1a26 0000 0000 0000     ....&BBB&.......
    9b90:	0000 3800 0244 0202 3844 0000 0000 0000     ...8D...D8......
    9ba0:	4060 7c40 4242 4242 dc62 0000 0000 0000     `@@|BBBBb.......
    9bb0:	0000 3c00 4242 027e 3c42 0000 0000 0000     ...<BB~.B<......
    9bc0:	4830 3e08 0808 0808 3e08 0000 0000 0000     0H.>.....>......
    9bd0:	0000 7c00 2222 021c 423c 3c42 0000 0000     ...|""..<BB<....
    9be0:	0203 3a02 4246 4242 e742 0000 0000 0c00     ...:FBBBB.......
    9bf0:	000c 0e00 0808 0808 3e08 0000 0000 3000     .........>.....0
    9c00:	0030 3800 2020 2020 2020 1e22 0000 0000     0..8      ".....
    9c10:	0203 7202 0a12 120e 7722 0000 0000 0800     ...r...."w......
    9c20:	080e 0808 0808 0808 3e08 0000 0000 0000     .........>......
    9c30:	0000 7f00 9292 9292 b792 0000 0000 0000     ................
    9c40:	0000 3b00 4246 4242 e742 0000 0000 0000     ...;FBBBB.......
    9c50:	0000 3c00 4242 4242 3c42 0000 0000 0000     ...<BBBBB<......
    9c60:	0000 1b00 4226 4242 1a26 0702 0000 0000     ....&BBB&.......
    9c70:	0000 5800 4264 4242 5864 e040 0000 0000     ...XdBBBdX@.....
    9c80:	0000 7700 044c 0404 1f04 0000 0000 0000     ...wL...........
    9c90:	0000 7c00 0242 403c 3e42 0000 0000 0000     ...|B.<@B>......
    9ca0:	0800 3e08 0808 0808 3048 0000 0000 0000     ...>....H0......
    9cb0:	0000 6300 4242 4242 dc62 0000 0000 0000     ...cBBBBb.......
    9cc0:	0000 7700 2222 1414 0808 0000 0000 0000     ...w""..........
    9cd0:	0000 db00 5291 2a5a 2424 0000 0000 0000     .....RZ*$$......
    9ce0:	0000 6e00 1824 1818 7624 0000 0000 0000     ...n$...$v......
    9cf0:	0000 e700 2442 1824 0818 0608 0000 0000     ....B$$.........
    9d00:	0000 7e00 1022 0808 7e44 0000 c000 2020     ...~"...D~....  
    9d10:	2020 2020 2010 2020 2020 00c0 1010 1010         .     ......
    9d20:	1010 1010 1010 1010 1010 1010 0300 0404     ................
    9d30:	0404 0404 0408 0404 0404 0003 5a04 0020     .............Z .
	...

00009d4c <GPION>:
    9d4c:	0800 4001 0c00 4001 1000 4001 1400 4001     ...@...@...@...@

00009d5c <__func__.3548>:
    9d5c:	6974 656d 5f72 6970 5f74 6e69 6574 7272     timer_pit_interr
    9d6c:	7075 5f74 736d 0000                         upt_ms..

00009d74 <TIMERN>:
    9d74:	2c00 4001 0000 4000 0400 4000 0800 4000     .,.@...@...@...@

00009d84 <__func__.3348>:
    9d84:	7073 5f69 7067 6f69 695f 696e 0074 0000     spi_gpio_init...

00009d94 <UARTN>:
    9d94:	3800 4001 4400 4000 4800 4000 4c00 4000     .8.@.D.@.H.@.L.@
    9da4:	586e 0000 58ee 0000 5912 0000 5934 0000     nX...X...Y..4Y..
    9db4:	598c 0000 59ec 0000 ced6 ffff cdc8 ffff     .Y...Y..........
    9dc4:	cdc8 ffff cdc6 ffff cdce ffff cdce ffff     ................
    9dd4:	cd94 ffff cdc6 ffff cdce ffff cd94 ffff     ................
    9de4:	cdce ffff cdc6 ffff cec2 ffff cec2 ffff     ................
    9df4:	cec2 ffff cd94 ffff df52 ffff dea4 ffff     ........R.......
    9e04:	dea4 ffff dea2 ffff dea8 ffff dea8 ffff     ................
    9e14:	de78 ffff dea2 ffff dea8 ffff de78 ffff     x...........x...
    9e24:	dea8 ffff dea2 ffff df40 ffff df40 ffff     ........@...@...
    9e34:	df40 ffff de78 ffff                         @...x...

00009e3c <__clz_tab>:
    9e3c:	0100 0202 0303 0303 0404 0404 0404 0404     ................
    9e4c:	0505 0505 0505 0505 0505 0505 0505 0505     ................
    9e5c:	0606 0606 0606 0606 0606 0606 0606 0606     ................
    9e6c:	0606 0606 0606 0606 0606 0606 0606 0606     ................
    9e7c:	0707 0707 0707 0707 0707 0707 0707 0707     ................
    9e8c:	0707 0707 0707 0707 0707 0707 0707 0707     ................
    9e9c:	0707 0707 0707 0707 0707 0707 0707 0707     ................
    9eac:	0707 0707 0707 0707 0707 0707 0707 0707     ................
    9ebc:	0808 0808 0808 0808 0808 0808 0808 0808     ................
    9ecc:	0808 0808 0808 0808 0808 0808 0808 0808     ................
    9edc:	0808 0808 0808 0808 0808 0808 0808 0808     ................
    9eec:	0808 0808 0808 0808 0808 0808 0808 0808     ................
    9efc:	0808 0808 0808 0808 0808 0808 0808 0808     ................
    9f0c:	0808 0808 0808 0808 0808 0808 0808 0808     ................
    9f1c:	0808 0808 0808 0808 0808 0808 0808 0808     ................
    9f2c:	0808 0808 0808 0808 0808 0808 0808 0808     ................
    9f3c:	202c 7566 636e 6974 6e6f 203a 0000 0000     , function: ....
    9f4c:	7361 6573 7472 6f69 206e 2522 2273 6620     assertion "%s" f
    9f5c:	6961 656c 3a64 6620 6c69 2065 2522 2273     ailed: file "%s"
    9f6c:	202c 696c 656e 2520 2564 2573 0a73 0000     , line %d%s%s...
    9f7c:	2d23 2b30 0020 0000 6c68 004c 6665 4567     #-0+ ...hlL.efgE
    9f8c:	4746 0000 3130 3332 3534 3736 3938 4241     FG..0123456789AB
    9f9c:	4443 4645 0000 0000 3130 3332 3534 3736     CDEF....01234567
    9fac:	3938 6261 6463 6665 0000 0000               89abcdef....

00009fb8 <__sf_fake_stderr>:
	...

00009fd8 <__sf_fake_stdin>:
	...

00009ff8 <__sf_fake_stdout>:
	...
