
SLAVE.elf:     file format elf32-littleriscv
SLAVE.elf
architecture: riscv:rv32, flags 0x00000112:
EXEC_P, HAS_SYMS, D_PAGED
start address 0x00000000

Program Header:
    LOAD off    0x00001000 vaddr 0x00000000 paddr 0x00000000 align 2**12
         filesz 0x000062d8 memsz 0x000062d8 flags r-x
    LOAD off    0x00008000 vaddr 0x20000000 paddr 0x000062d8 align 2**12
         filesz 0x00000138 memsz 0x00002770 flags rw-
    LOAD off    0x00008800 vaddr 0x20004800 paddr 0x20004800 align 2**12
         filesz 0x00000000 memsz 0x00000800 flags rw-

Sections:
Idx Name           Size      VMA       LMA       File off  Algn  Flags
  0 .init          00000038  00000000  00000000  00001000  2**1  CONTENTS, ALLOC, LOAD, READONLY, CODE
  1 .vector        00000108  00000038  00000038  00001038  2**1  CONTENTS, ALLOC, LOAD, READONLY, CODE
  2 .text          00006198  00000140  00000140  00001140  2**2  CONTENTS, ALLOC, LOAD, READONLY, CODE
  3 .fini          00000000  000062d8  000062d8  00008138  2**0  CONTENTS, ALLOC, LOAD, CODE
  4 .dalign        00000000  20000000  20000000  00008138  2**0  CONTENTS
  5 .dlalign       00000000  000062d8  000062d8  00008138  2**0  CONTENTS
  6 .data          00000138  20000000  000062d8  00008000  2**2  CONTENTS, ALLOC, LOAD, DATA
  7 .bss           00002638  20000138  00006410  00008138  2**2  ALLOC
  8 .stack         00000800  20004800  20004800  00008800  2**0  ALLOC
  9 .debug_info    00017dd5  00000000  00000000  00008138  2**0  CONTENTS, READONLY, DEBUGGING
 10 .debug_abbrev  00003be9  00000000  00000000  0001ff0d  2**0  CONTENTS, READONLY, DEBUGGING
 11 .debug_aranges 00000d00  00000000  00000000  00023af8  2**3  CONTENTS, READONLY, DEBUGGING
 12 .debug_ranges  00000b48  00000000  00000000  000247f8  2**3  CONTENTS, READONLY, DEBUGGING
 13 .debug_line    0000d0da  00000000  00000000  00025340  2**0  CONTENTS, READONLY, DEBUGGING
 14 .debug_str     00004046  00000000  00000000  0003241a  2**0  CONTENTS, READONLY, DEBUGGING
 15 .comment       00000033  00000000  00000000  00036460  2**0  CONTENTS, READONLY
 16 .debug_frame   00003828  00000000  00000000  00036494  2**2  CONTENTS, READONLY, DEBUGGING
 17 .stab          000000b4  00000000  00000000  00039cbc  2**2  CONTENTS, READONLY, DEBUGGING
 18 .stabstr       00000183  00000000  00000000  00039d70  2**0  CONTENTS, READONLY, DEBUGGING
SYMBOL TABLE:
00000000 l    d  .init	00000000 .init
00000038 l    d  .vector	00000000 .vector
00000140 l    d  .text	00000000 .text
000062d8 l    d  .fini	00000000 .fini
20000000 l    d  .dalign	00000000 .dalign
000062d8 l    d  .dlalign	00000000 .dlalign
20000000 l    d  .data	00000000 .data
20000138 l    d  .bss	00000000 .bss
20004800 l    d  .stack	00000000 .stack
00000000 l    d  .debug_info	00000000 .debug_info
00000000 l    d  .debug_abbrev	00000000 .debug_abbrev
00000000 l    d  .debug_aranges	00000000 .debug_aranges
00000000 l    d  .debug_ranges	00000000 .debug_ranges
00000000 l    d  .debug_line	00000000 .debug_line
00000000 l    d  .debug_str	00000000 .debug_str
00000000 l    d  .comment	00000000 .comment
00000000 l    d  .debug_frame	00000000 .debug_frame
00000000 l    d  .stab	00000000 .stab
00000000 l    d  .stabstr	00000000 .stabstr
00000000 l    df *ABS*	00000000 ./Libraries/wch_libraries/Startup/startup_ch32v10x.o
00000038 l       .vector	00000000 _vector_base
00000000 l    df *ABS*	00000000 isr.c
00000000 l    df *ABS*	00000000 main.c
00000000 l    df *ABS*	00000000 ch32v10x_dma.c
00000000 l    df *ABS*	00000000 ch32v10x_exti.c
00000000 l    df *ABS*	00000000 ch32v10x_gpio.c
00000000 l    df *ABS*	00000000 ch32v10x_misc.c
00001302 l     F .text	00000032 NVIC_EnableIRQ
00001334 l     F .text	00000032 NVIC_DisableIRQ
00001366 l     F .text	0000002a NVIC_SetPriority
00000000 l    df *ABS*	00000000 ch32v10x_rcc.c
20000000 l     O .data	00000010 APBAHBPrescTable
20000118 l     O .data	00000004 ADCPrescTable
00000000 l    df *ABS*	00000000 ch32v10x_spi.c
00000000 l    df *ABS*	00000000 ch32v10x_tim.c
00000000 l    df *ABS*	00000000 ch32v10x_usart.c
00000000 l    df *ABS*	00000000 SEEKFREE_IPS114_SPI.c
00000000 l    df *ABS*	00000000 SEEKFREE_MT9V03X.c
00000000 l    df *ABS*	00000000 SEEKFREE_UART_7725.c
00000000 l    df *ABS*	00000000 zf_camera.c
00000000 l    df *ABS*	00000000 zf_gpio.c
00000000 l    df *ABS*	00000000 zf_nvic.c
00000000 l    df *ABS*	00000000 zf_pit.c
000061b4 l     O .text	00000017 __func__.3548
00000000 l    df *ABS*	00000000 zf_qtimer.c
00000000 l    df *ABS*	00000000 zf_spi.c
000061dc l     O .text	0000000e __func__.3348
00000000 l    df *ABS*	00000000 zf_systick.c
00000000 l    df *ABS*	00000000 zf_uart.c
00000000 l    df *ABS*	00000000 board.c
00000000 l    df *ABS*	00000000 clock_config.c
00004390 l     F .text	00000140 SetSysClock
00000000 l    df *ABS*	00000000 TrackGet.c
00000000 l    df *ABS*	00000000 assert.c
00000000 l    df *ABS*	00000000 fprintf.c
00000000 l    df *ABS*	00000000 nano-vfprintf.c
0000490e l     F .text	00000028 __sfputc_r
00000000 l    df *ABS*	00000000 nano-vfprintf_i.c
00000000 l    df *ABS*	00000000 wbuf.c
00000000 l    df *ABS*	00000000 wsetup.c
00000000 l    df *ABS*	00000000 abort.c
00000000 l    df *ABS*	00000000 fflush.c
00000000 l    df *ABS*	00000000 findfp.c
00005346 l     F .text	0000006a std
00000000 l    df *ABS*	00000000 fwalk.c
00000000 l    df *ABS*	00000000 makebuf.c
00000000 l    df *ABS*	00000000 memchr.c
00000000 l    df *ABS*	00000000 nano-mallocr.c
00000000 l    df *ABS*	00000000 nano-mallocr.c
00000000 l    df *ABS*	00000000 sbrkr.c
00000000 l    df *ABS*	00000000 signal.c
00000000 l    df *ABS*	00000000 signalr.c
00000000 l    df *ABS*	00000000 stdio.c
00000000 l    df *ABS*	00000000 writer.c
00000000 l    df *ABS*	00000000 closer.c
00000000 l    df *ABS*	00000000 fstatr.c
00000000 l    df *ABS*	00000000 isattyr.c
00000000 l    df *ABS*	00000000 lseekr.c
00000000 l    df *ABS*	00000000 mlock.c
00000000 l    df *ABS*	00000000 readr.c
00000000 l    df *ABS*	00000000 close.c
00000000 l    df *ABS*	00000000 fstat.c
00000000 l    df *ABS*	00000000 getpid.c
00000000 l    df *ABS*	00000000 isatty.c
00000000 l    df *ABS*	00000000 kill.c
00000000 l    df *ABS*	00000000 lseek.c
00000000 l    df *ABS*	00000000 read.c
00000000 l    df *ABS*	00000000 sbrk.c
2000016c l     O .bss	00000004 heap_end.1518
00000000 l    df *ABS*	00000000 _exit.c
00000000 l    df *ABS*	00000000 SEEKFREE_FONT.c
00000000 l    df *ABS*	00000000 impure.c
200000b8 l     O .data	00000060 impure_data
00000000 l    df *ABS*	00000000 common.c
00000000 l    df *ABS*	00000000 reent.c
0000198c g     F .text	0000003c TIM_TimeBaseStructInit
00000242 g     F .text	00000016 EXTI2_IRQHandler
00005a1e g     F .text	00000030 _isatty_r
00002708 g     F .text	0000007e ips114_set_region
00005ada g     F .text	00000010 _getpid
00005a4e g     F .text	00000034 _lseek_r
00000bbe g     F .text	00000040 DMA_Cmd
20000138 g     O .bss	00000002 slave_encoder_left
0000353a g     F .text	00000080 gpio_interrupt_init
00005898 g     F .text	00000032 _kill_r
0000299c g     F .text	00000176 ips114_showint16
20000918 g       .data	00000000 __global_pointer$
00000364 g     F .text	00000090 TIM1_CC_IRQHandler
0000594a g     F .text	00000036 __sseek
00005400 g     F .text	0000006c __sinit
00004fca g     F .text	000000c0 __swbuf_r
00000520 g     F .text	00000008 HardFault_Handler
000053ba g     F .text	00000046 __sfmoreglue
00005a84 g     F .text	00000002 __malloc_unlock
00001390 g     F .text	000000c4 NVIC_Init
20000150 g     O .bss	00000004 sys_clk
00000510 g     F .text	00000010 NMI_Handler
00000258 g     F .text	00000010 EXTI3_IRQHandler
2000011c g     O .data	00000004 camera_type
00001a90 g     F .text	00000070 TIM_DMACmd
00001b00 g     F .text	0000008a TIM_ETRClockMode1Config
000021fe g     F .text	00000046 USART_GetFlagStatus
000059ec g     F .text	00000032 _fstat_r
000061cc g     O .text	00000010 TIMERN
2000276c g     O .bss	00000004 errno
20000034 g     O .data	00000020 GET_CFG
20000138 g       .bss	00000000 _sbss
00000800 g       *ABS*	00000000 __stack_size
20000170 g     O .bss	0000000b temp_buff
00000b16 g     F .text	000000a8 DMA_Init
2000014d g     O .bss	00000001 ov7725_uart_finish_flag
20000124 g     O .data	00000002 EdgeR
2000017c g     O .bss	000024b8 mt9v03x_image
000053b0 g     F .text	0000000a _cleanup_r
00001124 g     F .text	0000013c GPIO_PinRemapConfig
000001e8 g     F .text	00000010 EXTI0_IRQHandler
000019c8 g     F .text	00000058 TIM_Cmd
2000015c g     O .bss	00000002 lostLeft_Sign
20000010 g     O .data	00000024 MT9V03X_CFG
2000013a g     O .bss	00000002 slave_encoder_right
0000423a g     F .text	00000046 uart_putbuff
0000582a g     F .text	00000062 _raise_r
00005aca g     F .text	00000010 _fstat
00003d68 g     F .text	00000136 spi_init
000048ae g     F .text	0000003a __assert_func
00000038 g       .init	00000000 _einit
00003688 g     F .text	00000030 sys_recover_irq
00001e4a g     F .text	0000002e TIM_ClearITPendingBit
000016b4 g     F .text	00000046 RCC_APB2PeriphClockCmd
0000454e g     F .text	00000292 trackBorder_Get
00002fba g     F .text	00000036 mt9v03x_vsync
00005bb4 g     O .text	000005f0 tft_ascii
20002640 g     O .bss	0000012c Border
00000298 g     F .text	00000010 ADC1_2_IRQHandler
000058ca g     F .text	00000002 _getpid_r
00000ec2 g     F .text	0000022a GPIO_Init
000035ba g     F .text	000000ac nvic_init
000020ac g     F .text	00000060 USART_Cmd
000057fa g     F .text	00000030 _sbrk_r
000028ce g     F .text	000000ce ips114_showuint8
00005a86 g     F .text	00000034 _read_r
00002346 g     F .text	0000004e USART_ClearITPendingBit
2000012c g     O .data	00000008 SPIN
000016fa g     F .text	00000046 RCC_APB1PeriphClockCmd
00005aea g     F .text	00000010 _isatty
000038b6 g     F .text	00000170 timer_gpio_quad_init
20000134 g     O .data	00000004 _global_impure_ptr
00002dc2 g     F .text	000000c8 get_config
0000166e g     F .text	00000046 RCC_AHBPeriphClockCmd
000004c6 g     F .text	0000004a DMA1_Channel4_IRQHandler
2000013c g     O .bss	00000002 slave_position
00005196 g     F .text	0000000e abort
0000372c g     F .text	0000018a timer_pit_interrupt_ms
00005b2a g     F .text	00000024 _sbrk
00000c48 g     F .text	0000005c DMA_GetFlagStatus
000004b6 g     F .text	00000010 USART3_IRQHandler
00000ea2 g     F .text	00000020 EXTI_ClearITPendingBit
20002770 g       .bss	00000000 _ebss
00002244 g     F .text	00000102 USART_GetITStatus
000024a8 g     F .text	00000260 ips114_init
00002786 g     F .text	00000066 ips114_clear
20000054 g     O .data	00000064 direct_Weight
00002438 g     F .text	00000070 ips114_writedata_16bit
00003f60 g     F .text	00000094 systick_delay
0000301e g     F .text	00000070 ov7725_cof_uart_interrupt
000061ec g     O .text	00000010 UARTN
000048e8 g     F .text	00000026 fprintf
00000618 g     F .text	00000058 TIM4_IRQHandler
000010ec g     F .text	00000038 GPIO_WriteBit
2000014b g     O .bss	00000001 ov7725_uart_receive_num
00006278 g     O .text	00000020 __sf_fake_stderr
20002770 g       .bss	00000000 end
00003a26 g     F .text	0000015c timer_quad_init
20000158 g     O .bss	00000002 EdgeL
00001dda g     F .text	00000070 TIM_GetITStatus
00001454 g     F .text	0000021a RCC_GetClocksFreq
00004936 g     F .text	00000044 __sfputs_r
000040e0 g     F .text	00000104 uart_init
0000566e g     F .text	0000001a memchr
00000528 g     F .text	0000003a get_sensor_data
00001e78 g     F .text	00000234 USART_Init
00005688 g     F .text	000000a4 _free_r
0000041c g     F .text	00000030 TIM3_IRQHandler
00003700 g     F .text	0000002c EnableGlobalIRQ
00003ff4 g     F .text	000000ec uart_gpio_init
0000030c g     F .text	00000058 TIM1_TRG_COM_IRQHandler
2000015a g     O .bss	00000002 validLine
000030c4 g     F .text	0000002e ov7725_uart_dma
00000000 g       .init	00000000 _start
20000160 g     O .bss	00000002 leftLostLine_Cnt
00005b0a g     F .text	00000010 _lseek
2000014c g     O .bss	00000001 ov7725_uart_receive_flag
000030f2 g     F .text	0000015a camera_dma_init
00002b12 g     F .text	00000150 ips114_displayimage032
00001c06 g     F .text	0000004e TIM_SelectInputTrigger
00003666 g     F .text	00000022 close_all_irq
00000288 g     F .text	00000010 EXTI15_10_IRQHandler
000061a4 g     O .text	00000010 GPION
00001a20 g     F .text	00000070 TIM_ITConfig
0000210c g     F .text	000000c4 USART_ITConfig
00000cdc g     F .text	00000170 EXTI_Init
2000015e g     O .bss	00000002 lostRight_Sign
00002e8a g     F .text	00000028 mt9v03x_vsync_init
000059bc g     F .text	00000030 _close_r
20000000 g       .dalign	00000000 _data_vma
00002eca g     F .text	00000070 mt9v03x_dma_init
00002394 g     F .text	00000052 ips114_writeIndex
0000508a g     F .text	0000010c __swsetup_r
00000278 g     F .text	00000010 EXTI9_5_IRQHandler
0000546c g     F .text	000000a0 __sfp
00001260 g     F .text	000000a2 GPIO_EXTILineConfig
000042d0 g     F .text	00000048 board_init
000058cc g     F .text	00000030 __sread
00002cd2 g     F .text	000000f0 set_config
00005a82 g     F .text	00000002 __malloc_lock
000052e0 g     F .text	00000066 _fflush_r
00000e4c g     F .text	00000056 EXTI_GetITStatus
00006298 g     O .text	00000020 __sf_fake_stdin
00002ff0 g     F .text	0000002e mt9v03x_dma
00000140 g     F .text	000000a8 memset
00000670 g     F .text	0000021a main
00002f3a g     F .text	00000080 mt9v03x_init
20000122 g     O .data	00000002 delta
00005980 g     F .text	00000006 __sclose
0000572c g     F .text	000000ce _malloc_r
00000268 g     F .text	00000010 EXTI4_IRQHandler
20000120 g     O .data	00000002 centre_last
00001838 g     F .text	0000005a SPI_Cmd
000036b8 g     F .text	00000048 DisableGlobalIRQ
20000154 g     O .bss	00000004 camera_buffer_addr
000044d0 g     F .text	0000007e SystemInit
000047e0 g     F .text	000000ce centre_line_get
00000000 g       .init	00000000 _sinit
00005986 g     F .text	00000036 _write_r
20000143 g     O .bss	00000001 receive_num
20002634 g     O .bss	0000000c irq_status
00002eb2 g     F .text	00000018 mt9v03x_tim1_etr_init
00004c1a g     F .text	0000010c _printf_common
20000128 g     O .data	00000004 _impure_ptr
000002dc g     F .text	00000030 TIM1_UP_IRQHandler
20000140 g     O .bss	00000003 receive
000051a4 g     F .text	0000013c __sflush_r
0000308e g     F .text	00000036 ov7725_uart_vsync
0000324c g     F .text	0000014a camera_tim_etr_init
00000bfe g     F .text	0000004a DMA_ITConfig
000003f4 g     F .text	00000028 TIM2_IRQHandler
20005000 g       .stack	00000000 _eusrstack
20000144 g     O .bss	00000001 uart_receive_flag
00002c62 g     F .text	00000070 mt9v03x_uart_callback
20000145 g     O .bss	00000001 mt9v03x_finish_flag
000002a8 g     F .text	00000034 TIM1_BRK_IRQHandler
00005578 g     F .text	00000058 __swhatbuf_r
000021d0 g     F .text	0000002e USART_SendData
000001f8 g     F .text	0000004a EXTI1_IRQHandler
00001d82 g     F .text	00000058 TIM_SelectMasterSlaveMode
00004318 g     F .text	00000078 _write
20000138 g       .data	00000000 _edata
000023e6 g     F .text	00000052 ips114_writeData
00001892 g     F .text	000000fa TIM_TimeBaseInit
000062d8 g       .dlalign	00000000 _data_lma
0000045c g     F .text	0000005a USART2_IRQHandler
000058fc g     F .text	0000004e __swrite
000048e8 g     F .text	00000026 fiprintf
0000497a g     F .text	000002a0 _vfiprintf_r
00003e9e g     F .text	000000c2 spi_mosi
0000550c g     F .text	0000006c _fwalk_reent
00005afa g     F .text	00000010 _kill
000062b8 g     O .text	00000020 __sf_fake_stdout
00000ca4 g     F .text	00000038 DMA_ClearFlag
00005b1a g     F .text	00000010 _read
0000088a  w      .text	00000000 handle_reset
00005b4e g     F .text	00000002 _exit
00000562 g     F .text	000000b6 process_data
00003b82 g     F .text	00000032 timer_quad_get
0000044c g     F .text	00000010 USART1_IRQHandler
000055d0 g     F .text	0000009e __smakebuf_r
00004d26 g     F .text	000002a4 _printf_i
00001b8a g     F .text	0000007c TIM_ETRConfig
20000168 g     O .bss	00000004 __malloc_sbrk_start
00001d2c g     F .text	00000056 TIM_SelectSlaveMode
00004280 g     F .text	00000050 uart_rx_irq
00001740 g     F .text	000000f8 SPI_Init
00003bda g     F .text	0000018e spi_gpio_init
00003bb4 g     F .text	00000026 timer_quad_clear
00000908 g     F .text	0000020e DMA_DeInit
00003396 g     F .text	000001a4 gpio_init
20000164 g     O .bss	00000004 __malloc_free_list
00001c54 g     F .text	000000d8 TIM_EncoderInterfaceConfig
0000497a g     F .text	000002a0 _vfprintf_r
000041e4 g     F .text	00000056 uart_putchar
20000148 g     O .bss	00000003 ov7725_uart_receive
00005aba g     F .text	00000010 _close
0000588c g     F .text	0000000c raise
000027ec g     F .text	000000e2 ips114_showchar
20000162 g     O .bss	00000002 rightLostLine_Cnt



Disassembly of section .init:

00000000 <_sinit>:
_start():
C:\Users\windows\Desktop\A_Dual\A_Dual1\Dual-core_Communication_Demo\Dual-core_Communication_Demo\SLAVE\obj/../Libraries/wch_libraries/Startup/startup_ch32v10x.S:13

	.section	.init,"ax",@progbits
	.global	_start
	.align	1
_start:
	j	handle_reset
   0:	08b0006f          	j	88a <handle_reset>
   4:	00000013          	nop
   8:	00000013          	nop
   c:	00000013          	nop
  10:	00000013          	nop
  14:	00000013          	nop
  18:	00000013          	nop
  1c:	00000013          	nop
  20:	00000013          	nop
  24:	00000013          	nop
  28:	00000013          	nop
  2c:	00000013          	nop
  30:	00000013          	nop
  34:	00100073          	ebreak

Disassembly of section .vector:

00000038 <_vector_base>:
_vector_base():
C:\Users\windows\Desktop\A_Dual\A_Dual1\Dual-core_Communication_Demo\Dual-core_Communication_Demo\SLAVE\obj/../Libraries/wch_libraries/Startup/startup_ch32v10x.S:31
	.word 0x00100073
    .section    .vector,"ax",@progbits
    .align  1
_vector_base:
    .option norvc;
        j   _start
  38:	fc9ff06f          	j	0 <_sinit>
  3c:	0000                	unimp
  3e:	0000                	unimp
C:\Users\windows\Desktop\A_Dual\A_Dual1\Dual-core_Communication_Demo\Dual-core_Communication_Demo\SLAVE\obj/../Libraries/wch_libraries/Startup/startup_ch32v10x.S:33
    .word   0
        j   NMI_Handler                 /* NMI Handler */
  40:	4d00006f          	j	510 <NMI_Handler>
C:\Users\windows\Desktop\A_Dual\A_Dual1\Dual-core_Communication_Demo\Dual-core_Communication_Demo\SLAVE\obj/../Libraries/wch_libraries/Startup/startup_ch32v10x.S:34
        j   HardFault_Handler           /* Hard Fault Handler */
  44:	4dc0006f          	j	520 <HardFault_Handler>
	...
C:\Users\windows\Desktop\A_Dual\A_Dual1\Dual-core_Communication_Demo\Dual-core_Communication_Demo\SLAVE\obj/../Libraries/wch_libraries/Startup/startup_ch32v10x.S:43
    .word   0
    .word   0
    .word   0
    .word   0
    .word   0
        j   SysTick_Handler            /* SysTick Handler */
  68:	f99ff06f          	j	0 <_sinit>
  6c:	0000                	unimp
  6e:	0000                	unimp
C:\Users\windows\Desktop\A_Dual\A_Dual1\Dual-core_Communication_Demo\Dual-core_Communication_Demo\SLAVE\obj/../Libraries/wch_libraries/Startup/startup_ch32v10x.S:45
    .word   0
        j   SW_handler                 /* SW Handler */
  70:	f91ff06f          	j	0 <_sinit>
  74:	0000                	unimp
  76:	0000                	unimp
C:\Users\windows\Desktop\A_Dual\A_Dual1\Dual-core_Communication_Demo\Dual-core_Communication_Demo\SLAVE\obj/../Libraries/wch_libraries/Startup/startup_ch32v10x.S:48
    .word   0
    /* External Interrupts */
        j   WWDG_IRQHandler            /* Window Watchdog */
  78:	f89ff06f          	j	0 <_sinit>
C:\Users\windows\Desktop\A_Dual\A_Dual1\Dual-core_Communication_Demo\Dual-core_Communication_Demo\SLAVE\obj/../Libraries/wch_libraries/Startup/startup_ch32v10x.S:49
        j   PVD_IRQHandler             /* PVD through EXTI Line detect */
  7c:	f85ff06f          	j	0 <_sinit>
C:\Users\windows\Desktop\A_Dual\A_Dual1\Dual-core_Communication_Demo\Dual-core_Communication_Demo\SLAVE\obj/../Libraries/wch_libraries/Startup/startup_ch32v10x.S:50
        j   TAMPER_IRQHandler          /* TAMPER */
  80:	f81ff06f          	j	0 <_sinit>
C:\Users\windows\Desktop\A_Dual\A_Dual1\Dual-core_Communication_Demo\Dual-core_Communication_Demo\SLAVE\obj/../Libraries/wch_libraries/Startup/startup_ch32v10x.S:51
        j   RTC_IRQHandler             /* RTC */
  84:	f7dff06f          	j	0 <_sinit>
C:\Users\windows\Desktop\A_Dual\A_Dual1\Dual-core_Communication_Demo\Dual-core_Communication_Demo\SLAVE\obj/../Libraries/wch_libraries/Startup/startup_ch32v10x.S:52
        j   FLASH_IRQHandler           /* Flash */
  88:	f79ff06f          	j	0 <_sinit>
C:\Users\windows\Desktop\A_Dual\A_Dual1\Dual-core_Communication_Demo\Dual-core_Communication_Demo\SLAVE\obj/../Libraries/wch_libraries/Startup/startup_ch32v10x.S:53
        j   RCC_IRQHandler             /* RCC */
  8c:	f75ff06f          	j	0 <_sinit>
C:\Users\windows\Desktop\A_Dual\A_Dual1\Dual-core_Communication_Demo\Dual-core_Communication_Demo\SLAVE\obj/../Libraries/wch_libraries/Startup/startup_ch32v10x.S:54
        j   EXTI0_IRQHandler           /* EXTI Line 0 */
  90:	1580006f          	j	1e8 <EXTI0_IRQHandler>
C:\Users\windows\Desktop\A_Dual\A_Dual1\Dual-core_Communication_Demo\Dual-core_Communication_Demo\SLAVE\obj/../Libraries/wch_libraries/Startup/startup_ch32v10x.S:55
        j   EXTI1_IRQHandler           /* EXTI Line 1 */
  94:	1640006f          	j	1f8 <EXTI1_IRQHandler>
C:\Users\windows\Desktop\A_Dual\A_Dual1\Dual-core_Communication_Demo\Dual-core_Communication_Demo\SLAVE\obj/../Libraries/wch_libraries/Startup/startup_ch32v10x.S:56
        j   EXTI2_IRQHandler           /* EXTI Line 2 */
  98:	1aa0006f          	j	242 <EXTI2_IRQHandler>
C:\Users\windows\Desktop\A_Dual\A_Dual1\Dual-core_Communication_Demo\Dual-core_Communication_Demo\SLAVE\obj/../Libraries/wch_libraries/Startup/startup_ch32v10x.S:57
        j   EXTI3_IRQHandler           /* EXTI Line 3 */
  9c:	1bc0006f          	j	258 <EXTI3_IRQHandler>
C:\Users\windows\Desktop\A_Dual\A_Dual1\Dual-core_Communication_Demo\Dual-core_Communication_Demo\SLAVE\obj/../Libraries/wch_libraries/Startup/startup_ch32v10x.S:58
        j   EXTI4_IRQHandler           /* EXTI Line 4 */
  a0:	1c80006f          	j	268 <EXTI4_IRQHandler>
C:\Users\windows\Desktop\A_Dual\A_Dual1\Dual-core_Communication_Demo\Dual-core_Communication_Demo\SLAVE\obj/../Libraries/wch_libraries/Startup/startup_ch32v10x.S:59
        j   DMA1_Channel1_IRQHandler   /* DMA1 Channel 1 */
  a4:	f5dff06f          	j	0 <_sinit>
C:\Users\windows\Desktop\A_Dual\A_Dual1\Dual-core_Communication_Demo\Dual-core_Communication_Demo\SLAVE\obj/../Libraries/wch_libraries/Startup/startup_ch32v10x.S:60
        j   DMA1_Channel2_IRQHandler   /* DMA1 Channel 2 */
  a8:	f59ff06f          	j	0 <_sinit>
C:\Users\windows\Desktop\A_Dual\A_Dual1\Dual-core_Communication_Demo\Dual-core_Communication_Demo\SLAVE\obj/../Libraries/wch_libraries/Startup/startup_ch32v10x.S:61
        j   DMA1_Channel3_IRQHandler   /* DMA1 Channel 3 */
  ac:	f55ff06f          	j	0 <_sinit>
C:\Users\windows\Desktop\A_Dual\A_Dual1\Dual-core_Communication_Demo\Dual-core_Communication_Demo\SLAVE\obj/../Libraries/wch_libraries/Startup/startup_ch32v10x.S:62
        j   DMA1_Channel4_IRQHandler   /* DMA1 Channel 4 */
  b0:	4160006f          	j	4c6 <DMA1_Channel4_IRQHandler>
C:\Users\windows\Desktop\A_Dual\A_Dual1\Dual-core_Communication_Demo\Dual-core_Communication_Demo\SLAVE\obj/../Libraries/wch_libraries/Startup/startup_ch32v10x.S:63
        j   DMA1_Channel5_IRQHandler   /* DMA1 Channel 5 */
  b4:	f4dff06f          	j	0 <_sinit>
C:\Users\windows\Desktop\A_Dual\A_Dual1\Dual-core_Communication_Demo\Dual-core_Communication_Demo\SLAVE\obj/../Libraries/wch_libraries/Startup/startup_ch32v10x.S:64
        j   DMA1_Channel6_IRQHandler   /* DMA1 Channel 6 */
  b8:	f49ff06f          	j	0 <_sinit>
C:\Users\windows\Desktop\A_Dual\A_Dual1\Dual-core_Communication_Demo\Dual-core_Communication_Demo\SLAVE\obj/../Libraries/wch_libraries/Startup/startup_ch32v10x.S:65
        j   DMA1_Channel7_IRQHandler   /* DMA1 Channel 7 */
  bc:	f45ff06f          	j	0 <_sinit>
C:\Users\windows\Desktop\A_Dual\A_Dual1\Dual-core_Communication_Demo\Dual-core_Communication_Demo\SLAVE\obj/../Libraries/wch_libraries/Startup/startup_ch32v10x.S:66
        j   ADC1_2_IRQHandler          /* ADC1_2 */
  c0:	1d80006f          	j	298 <ADC1_2_IRQHandler>
	...
C:\Users\windows\Desktop\A_Dual\A_Dual1\Dual-core_Communication_Demo\Dual-core_Communication_Demo\SLAVE\obj/../Libraries/wch_libraries/Startup/startup_ch32v10x.S:71
        .word   0
        .word   0
        .word   0
        .word   0
        j   EXTI9_5_IRQHandler         /* EXTI Line 9..5 */
  d4:	1a40006f          	j	278 <EXTI9_5_IRQHandler>
C:\Users\windows\Desktop\A_Dual\A_Dual1\Dual-core_Communication_Demo\Dual-core_Communication_Demo\SLAVE\obj/../Libraries/wch_libraries/Startup/startup_ch32v10x.S:72
        j   TIM1_BRK_IRQHandler        /* TIM1 Break */
  d8:	1d00006f          	j	2a8 <TIM1_BRK_IRQHandler>
C:\Users\windows\Desktop\A_Dual\A_Dual1\Dual-core_Communication_Demo\Dual-core_Communication_Demo\SLAVE\obj/../Libraries/wch_libraries/Startup/startup_ch32v10x.S:73
        j   TIM1_UP_IRQHandler         /* TIM1 Update */
  dc:	2000006f          	j	2dc <TIM1_UP_IRQHandler>
C:\Users\windows\Desktop\A_Dual\A_Dual1\Dual-core_Communication_Demo\Dual-core_Communication_Demo\SLAVE\obj/../Libraries/wch_libraries/Startup/startup_ch32v10x.S:74
        j   TIM1_TRG_COM_IRQHandler    /* TIM1 Trigger and Commutation */
  e0:	22c0006f          	j	30c <TIM1_TRG_COM_IRQHandler>
C:\Users\windows\Desktop\A_Dual\A_Dual1\Dual-core_Communication_Demo\Dual-core_Communication_Demo\SLAVE\obj/../Libraries/wch_libraries/Startup/startup_ch32v10x.S:75
        j   TIM1_CC_IRQHandler         /* TIM1 Capture Compare */
  e4:	2800006f          	j	364 <TIM1_CC_IRQHandler>
C:\Users\windows\Desktop\A_Dual\A_Dual1\Dual-core_Communication_Demo\Dual-core_Communication_Demo\SLAVE\obj/../Libraries/wch_libraries/Startup/startup_ch32v10x.S:76
        j   TIM2_IRQHandler            /* TIM2 */
  e8:	30c0006f          	j	3f4 <TIM2_IRQHandler>
C:\Users\windows\Desktop\A_Dual\A_Dual1\Dual-core_Communication_Demo\Dual-core_Communication_Demo\SLAVE\obj/../Libraries/wch_libraries/Startup/startup_ch32v10x.S:77
        j   TIM3_IRQHandler            /* TIM3 */
  ec:	3300006f          	j	41c <TIM3_IRQHandler>
C:\Users\windows\Desktop\A_Dual\A_Dual1\Dual-core_Communication_Demo\Dual-core_Communication_Demo\SLAVE\obj/../Libraries/wch_libraries/Startup/startup_ch32v10x.S:78
        j   TIM4_IRQHandler            /* TIM4 */
  f0:	5280006f          	j	618 <TIM4_IRQHandler>
C:\Users\windows\Desktop\A_Dual\A_Dual1\Dual-core_Communication_Demo\Dual-core_Communication_Demo\SLAVE\obj/../Libraries/wch_libraries/Startup/startup_ch32v10x.S:79
        j   I2C1_EV_IRQHandler         /* I2C1 Event */
  f4:	f0dff06f          	j	0 <_sinit>
C:\Users\windows\Desktop\A_Dual\A_Dual1\Dual-core_Communication_Demo\Dual-core_Communication_Demo\SLAVE\obj/../Libraries/wch_libraries/Startup/startup_ch32v10x.S:80
        j   I2C1_ER_IRQHandler         /* I2C1 Error */
  f8:	f09ff06f          	j	0 <_sinit>
C:\Users\windows\Desktop\A_Dual\A_Dual1\Dual-core_Communication_Demo\Dual-core_Communication_Demo\SLAVE\obj/../Libraries/wch_libraries/Startup/startup_ch32v10x.S:81
        j   I2C2_EV_IRQHandler         /* I2C2 Event */
  fc:	f05ff06f          	j	0 <_sinit>
C:\Users\windows\Desktop\A_Dual\A_Dual1\Dual-core_Communication_Demo\Dual-core_Communication_Demo\SLAVE\obj/../Libraries/wch_libraries/Startup/startup_ch32v10x.S:82
        j   I2C2_ER_IRQHandler         /* I2C2 Error */
 100:	f01ff06f          	j	0 <_sinit>
C:\Users\windows\Desktop\A_Dual\A_Dual1\Dual-core_Communication_Demo\Dual-core_Communication_Demo\SLAVE\obj/../Libraries/wch_libraries/Startup/startup_ch32v10x.S:83
        j   SPI1_IRQHandler            /* SPI1 */
 104:	efdff06f          	j	0 <_sinit>
C:\Users\windows\Desktop\A_Dual\A_Dual1\Dual-core_Communication_Demo\Dual-core_Communication_Demo\SLAVE\obj/../Libraries/wch_libraries/Startup/startup_ch32v10x.S:84
        j   SPI2_IRQHandler            /* SPI2 */
 108:	ef9ff06f          	j	0 <_sinit>
C:\Users\windows\Desktop\A_Dual\A_Dual1\Dual-core_Communication_Demo\Dual-core_Communication_Demo\SLAVE\obj/../Libraries/wch_libraries/Startup/startup_ch32v10x.S:85
        j   USART1_IRQHandler          /* USART1 */
 10c:	3400006f          	j	44c <USART1_IRQHandler>
C:\Users\windows\Desktop\A_Dual\A_Dual1\Dual-core_Communication_Demo\Dual-core_Communication_Demo\SLAVE\obj/../Libraries/wch_libraries/Startup/startup_ch32v10x.S:86
        j   USART2_IRQHandler          /* USART2 */
 110:	34c0006f          	j	45c <USART2_IRQHandler>
C:\Users\windows\Desktop\A_Dual\A_Dual1\Dual-core_Communication_Demo\Dual-core_Communication_Demo\SLAVE\obj/../Libraries/wch_libraries/Startup/startup_ch32v10x.S:87
        j   USART3_IRQHandler          /* USART3 */
 114:	3a20006f          	j	4b6 <USART3_IRQHandler>
C:\Users\windows\Desktop\A_Dual\A_Dual1\Dual-core_Communication_Demo\Dual-core_Communication_Demo\SLAVE\obj/../Libraries/wch_libraries/Startup/startup_ch32v10x.S:88
        j   EXTI15_10_IRQHandler       /* EXTI Line 15..10 */
 118:	1700006f          	j	288 <EXTI15_10_IRQHandler>
C:\Users\windows\Desktop\A_Dual\A_Dual1\Dual-core_Communication_Demo\Dual-core_Communication_Demo\SLAVE\obj/../Libraries/wch_libraries/Startup/startup_ch32v10x.S:89
        j   RTCAlarm_IRQHandler        /* RTC Alarm through EXTI Line */
 11c:	ee5ff06f          	j	0 <_sinit>
C:\Users\windows\Desktop\A_Dual\A_Dual1\Dual-core_Communication_Demo\Dual-core_Communication_Demo\SLAVE\obj/../Libraries/wch_libraries/Startup/startup_ch32v10x.S:90
        j   USBWakeUp_IRQHandler       /* USB Wakeup from suspend */
 120:	ee1ff06f          	j	0 <_sinit>
C:\Users\windows\Desktop\A_Dual\A_Dual1\Dual-core_Communication_Demo\Dual-core_Communication_Demo\SLAVE\obj/../Libraries/wch_libraries/Startup/startup_ch32v10x.S:91
        j   USBHD_IRQHandler           /* USBHD */
 124:	eddff06f          	j	0 <_sinit>
	...

Disassembly of section .text:

00000140 <memset>:
memset():
     140:	433d                	li	t1,15
     142:	872a                	mv	a4,a0
     144:	02c37363          	bgeu	t1,a2,16a <memset+0x2a>
     148:	00f77793          	andi	a5,a4,15
     14c:	efbd                	bnez	a5,1ca <memset+0x8a>
     14e:	e5ad                	bnez	a1,1b8 <memset+0x78>
     150:	ff067693          	andi	a3,a2,-16
     154:	8a3d                	andi	a2,a2,15
     156:	96ba                	add	a3,a3,a4
     158:	c30c                	sw	a1,0(a4)
     15a:	c34c                	sw	a1,4(a4)
     15c:	c70c                	sw	a1,8(a4)
     15e:	c74c                	sw	a1,12(a4)
     160:	0741                	addi	a4,a4,16
     162:	fed76be3          	bltu	a4,a3,158 <memset+0x18>
     166:	e211                	bnez	a2,16a <memset+0x2a>
     168:	8082                	ret
     16a:	40c306b3          	sub	a3,t1,a2
     16e:	068a                	slli	a3,a3,0x2
     170:	00000297          	auipc	t0,0x0
     174:	9696                	add	a3,a3,t0
     176:	00a68067          	jr	10(a3)
     17a:	00b70723          	sb	a1,14(a4)
     17e:	00b706a3          	sb	a1,13(a4)
     182:	00b70623          	sb	a1,12(a4)
     186:	00b705a3          	sb	a1,11(a4)
     18a:	00b70523          	sb	a1,10(a4)
     18e:	00b704a3          	sb	a1,9(a4)
     192:	00b70423          	sb	a1,8(a4)
     196:	00b703a3          	sb	a1,7(a4)
     19a:	00b70323          	sb	a1,6(a4)
     19e:	00b702a3          	sb	a1,5(a4)
     1a2:	00b70223          	sb	a1,4(a4)
     1a6:	00b701a3          	sb	a1,3(a4)
     1aa:	00b70123          	sb	a1,2(a4)
     1ae:	00b700a3          	sb	a1,1(a4)
     1b2:	00b70023          	sb	a1,0(a4)
     1b6:	8082                	ret
     1b8:	0ff5f593          	andi	a1,a1,255
     1bc:	00859693          	slli	a3,a1,0x8
     1c0:	8dd5                	or	a1,a1,a3
     1c2:	01059693          	slli	a3,a1,0x10
     1c6:	8dd5                	or	a1,a1,a3
     1c8:	b761                	j	150 <memset+0x10>
     1ca:	00279693          	slli	a3,a5,0x2
     1ce:	00000297          	auipc	t0,0x0
     1d2:	9696                	add	a3,a3,t0
     1d4:	8286                	mv	t0,ra
     1d6:	fa8680e7          	jalr	-88(a3)
     1da:	8096                	mv	ra,t0
     1dc:	17c1                	addi	a5,a5,-16
     1de:	8f1d                	sub	a4,a4,a5
     1e0:	963e                	add	a2,a2,a5
     1e2:	f8c374e3          	bgeu	t1,a2,16a <memset+0x2a>
     1e6:	b7a5                	j	14e <memset+0xe>

000001e8 <EXTI0_IRQHandler>:
EXTI0_IRQHandler():
C:\Users\windows\Desktop\A_Dual\A_Dual1\Dual-core_Communication_Demo\Dual-core_Communication_Demo\SLAVE\obj/../USER/isr.c:63
//void RTCAlarm_IRQHandler(void) __attribute__((interrupt("WCH-Interrupt-fast")));
//void USBWakeUp_IRQHandler(void) __attribute__((interrupt("WCH-Interrupt-fast")));
//void USBHD_IRQHandler(void) __attribute__((interrupt("WCH-Interrupt-fast")));

void EXTI0_IRQHandler(void)
{
     1e8:	1141                	addi	sp,sp,-16
     1ea:	c622                	sw	s0,12(sp)
     1ec:	0800                	addi	s0,sp,16
C:\Users\windows\Desktop\A_Dual\A_Dual1\Dual-core_Communication_Demo\Dual-core_Communication_Demo\SLAVE\obj/../USER/isr.c:66


}
     1ee:	0001                	nop
     1f0:	4432                	lw	s0,12(sp)
     1f2:	0141                	addi	sp,sp,16
     1f4:	30200073          	mret

000001f8 <EXTI1_IRQHandler>:
EXTI1_IRQHandler():
C:\Users\windows\Desktop\A_Dual\A_Dual1\Dual-core_Communication_Demo\Dual-core_Communication_Demo\SLAVE\obj/../USER/isr.c:69

void EXTI1_IRQHandler(void)
{
     1f8:	1141                	addi	sp,sp,-16
     1fa:	c622                	sw	s0,12(sp)
     1fc:	0800                	addi	s0,sp,16
C:\Users\windows\Desktop\A_Dual\A_Dual1\Dual-core_Communication_Demo\Dual-core_Communication_Demo\SLAVE\obj/../USER/isr.c:70
    if(SET == EXTI_GetITStatus(EXTI_Line1))
     1fe:	4509                	li	a0,2
     200:	44d000ef          	jal	ra,e4c <EXTI_GetITStatus>
     204:	872a                	mv	a4,a0
     206:	4785                	li	a5,1
     208:	02f71863          	bne	a4,a5,238 <EXTI1_IRQHandler+0x40>
C:\Users\windows\Desktop\A_Dual\A_Dual1\Dual-core_Communication_Demo\Dual-core_Communication_Demo\SLAVE\obj/../USER/isr.c:72
    {
        if(camera_type == CAMERA_BIN_UART)
     20c:	200007b7          	lui	a5,0x20000
     210:	11c7a703          	lw	a4,284(a5) # 2000011c <camera_type>
     214:	4789                	li	a5,2
     216:	00f71563          	bne	a4,a5,220 <EXTI1_IRQHandler+0x28>
C:\Users\windows\Desktop\A_Dual\A_Dual1\Dual-core_Communication_Demo\Dual-core_Communication_Demo\SLAVE\obj/../USER/isr.c:73
            ov7725_uart_vsync();
     21a:	675020ef          	jal	ra,308e <ov7725_uart_vsync>
     21e:	a811                	j	232 <EXTI1_IRQHandler+0x3a>
C:\Users\windows\Desktop\A_Dual\A_Dual1\Dual-core_Communication_Demo\Dual-core_Communication_Demo\SLAVE\obj/../USER/isr.c:74
        else if(camera_type == CAMERA_GRAYSCALE)
     220:	200007b7          	lui	a5,0x20000
     224:	11c7a703          	lw	a4,284(a5) # 2000011c <camera_type>
     228:	4785                	li	a5,1
     22a:	00f71463          	bne	a4,a5,232 <EXTI1_IRQHandler+0x3a>
C:\Users\windows\Desktop\A_Dual\A_Dual1\Dual-core_Communication_Demo\Dual-core_Communication_Demo\SLAVE\obj/../USER/isr.c:75
            mt9v03x_vsync();
     22e:	58d020ef          	jal	ra,2fba <mt9v03x_vsync>
C:\Users\windows\Desktop\A_Dual\A_Dual1\Dual-core_Communication_Demo\Dual-core_Communication_Demo\SLAVE\obj/../USER/isr.c:76
        EXTI_ClearITPendingBit(EXTI_Line1);
     232:	4509                	li	a0,2
     234:	46f000ef          	jal	ra,ea2 <EXTI_ClearITPendingBit>
C:\Users\windows\Desktop\A_Dual\A_Dual1\Dual-core_Communication_Demo\Dual-core_Communication_Demo\SLAVE\obj/../USER/isr.c:79
    }

}
     238:	0001                	nop
     23a:	4432                	lw	s0,12(sp)
     23c:	0141                	addi	sp,sp,16
     23e:	30200073          	mret

00000242 <EXTI2_IRQHandler>:
EXTI2_IRQHandler():
C:\Users\windows\Desktop\A_Dual\A_Dual1\Dual-core_Communication_Demo\Dual-core_Communication_Demo\SLAVE\obj/../USER/isr.c:82

void EXTI2_IRQHandler(void)
{
     242:	1141                	addi	sp,sp,-16
     244:	c622                	sw	s0,12(sp)
     246:	0800                	addi	s0,sp,16
C:\Users\windows\Desktop\A_Dual\A_Dual1\Dual-core_Communication_Demo\Dual-core_Communication_Demo\SLAVE\obj/../USER/isr.c:83
    EXTI_ClearITPendingBit(EXTI_Line2);
     248:	4511                	li	a0,4
     24a:	459000ef          	jal	ra,ea2 <EXTI_ClearITPendingBit>
C:\Users\windows\Desktop\A_Dual\A_Dual1\Dual-core_Communication_Demo\Dual-core_Communication_Demo\SLAVE\obj/../USER/isr.c:84
}
     24e:	0001                	nop
     250:	4432                	lw	s0,12(sp)
     252:	0141                	addi	sp,sp,16
     254:	30200073          	mret

00000258 <EXTI3_IRQHandler>:
EXTI3_IRQHandler():
C:\Users\windows\Desktop\A_Dual\A_Dual1\Dual-core_Communication_Demo\Dual-core_Communication_Demo\SLAVE\obj/../USER/isr.c:87

void EXTI3_IRQHandler(void)
{
     258:	1141                	addi	sp,sp,-16
     25a:	c622                	sw	s0,12(sp)
     25c:	0800                	addi	s0,sp,16
C:\Users\windows\Desktop\A_Dual\A_Dual1\Dual-core_Communication_Demo\Dual-core_Communication_Demo\SLAVE\obj/../USER/isr.c:90


}
     25e:	0001                	nop
     260:	4432                	lw	s0,12(sp)
     262:	0141                	addi	sp,sp,16
     264:	30200073          	mret

00000268 <EXTI4_IRQHandler>:
EXTI4_IRQHandler():
C:\Users\windows\Desktop\A_Dual\A_Dual1\Dual-core_Communication_Demo\Dual-core_Communication_Demo\SLAVE\obj/../USER/isr.c:93

void EXTI4_IRQHandler(void)
{
     268:	1141                	addi	sp,sp,-16
     26a:	c622                	sw	s0,12(sp)
     26c:	0800                	addi	s0,sp,16
C:\Users\windows\Desktop\A_Dual\A_Dual1\Dual-core_Communication_Demo\Dual-core_Communication_Demo\SLAVE\obj/../USER/isr.c:96


}
     26e:	0001                	nop
     270:	4432                	lw	s0,12(sp)
     272:	0141                	addi	sp,sp,16
     274:	30200073          	mret

00000278 <EXTI9_5_IRQHandler>:
EXTI9_5_IRQHandler():
C:\Users\windows\Desktop\A_Dual\A_Dual1\Dual-core_Communication_Demo\Dual-core_Communication_Demo\SLAVE\obj/../USER/isr.c:99

void EXTI9_5_IRQHandler(void)
{
     278:	1141                	addi	sp,sp,-16
     27a:	c622                	sw	s0,12(sp)
     27c:	0800                	addi	s0,sp,16
C:\Users\windows\Desktop\A_Dual\A_Dual1\Dual-core_Communication_Demo\Dual-core_Communication_Demo\SLAVE\obj/../USER/isr.c:102


}
     27e:	0001                	nop
     280:	4432                	lw	s0,12(sp)
     282:	0141                	addi	sp,sp,16
     284:	30200073          	mret

00000288 <EXTI15_10_IRQHandler>:
EXTI15_10_IRQHandler():
C:\Users\windows\Desktop\A_Dual\A_Dual1\Dual-core_Communication_Demo\Dual-core_Communication_Demo\SLAVE\obj/../USER/isr.c:105

void EXTI15_10_IRQHandler(void)
{
     288:	1141                	addi	sp,sp,-16
     28a:	c622                	sw	s0,12(sp)
     28c:	0800                	addi	s0,sp,16
C:\Users\windows\Desktop\A_Dual\A_Dual1\Dual-core_Communication_Demo\Dual-core_Communication_Demo\SLAVE\obj/../USER/isr.c:107

}
     28e:	0001                	nop
     290:	4432                	lw	s0,12(sp)
     292:	0141                	addi	sp,sp,16
     294:	30200073          	mret

00000298 <ADC1_2_IRQHandler>:
ADC1_2_IRQHandler():
C:\Users\windows\Desktop\A_Dual\A_Dual1\Dual-core_Communication_Demo\Dual-core_Communication_Demo\SLAVE\obj/../USER/isr.c:110

void ADC1_2_IRQHandler(void)
{
     298:	1141                	addi	sp,sp,-16
     29a:	c622                	sw	s0,12(sp)
     29c:	0800                	addi	s0,sp,16
C:\Users\windows\Desktop\A_Dual\A_Dual1\Dual-core_Communication_Demo\Dual-core_Communication_Demo\SLAVE\obj/../USER/isr.c:113


}
     29e:	0001                	nop
     2a0:	4432                	lw	s0,12(sp)
     2a2:	0141                	addi	sp,sp,16
     2a4:	30200073          	mret

000002a8 <TIM1_BRK_IRQHandler>:
TIM1_BRK_IRQHandler():
C:\Users\windows\Desktop\A_Dual\A_Dual1\Dual-core_Communication_Demo\Dual-core_Communication_Demo\SLAVE\obj/../USER/isr.c:116

void TIM1_BRK_IRQHandler(void)
{
     2a8:	1141                	addi	sp,sp,-16
     2aa:	c622                	sw	s0,12(sp)
     2ac:	0800                	addi	s0,sp,16
C:\Users\windows\Desktop\A_Dual\A_Dual1\Dual-core_Communication_Demo\Dual-core_Communication_Demo\SLAVE\obj/../USER/isr.c:117
    if(TIM_GetITStatus(TIM1, TIM_IT_Break) != RESET)
     2ae:	08000593          	li	a1,128
     2b2:	400137b7          	lui	a5,0x40013
     2b6:	c0078513          	addi	a0,a5,-1024 # 40012c00 <_eusrstack+0x2000dc00>
     2ba:	321010ef          	jal	ra,1dda <TIM_GetITStatus>
     2be:	87aa                	mv	a5,a0
     2c0:	cb89                	beqz	a5,2d2 <TIM1_BRK_IRQHandler+0x2a>
C:\Users\windows\Desktop\A_Dual\A_Dual1\Dual-core_Communication_Demo\Dual-core_Communication_Demo\SLAVE\obj/../USER/isr.c:119
    {
        TIM_ClearITPendingBit(TIM1, TIM_IT_Break);
     2c2:	08000593          	li	a1,128
     2c6:	400137b7          	lui	a5,0x40013
     2ca:	c0078513          	addi	a0,a5,-1024 # 40012c00 <_eusrstack+0x2000dc00>
     2ce:	37d010ef          	jal	ra,1e4a <TIM_ClearITPendingBit>
C:\Users\windows\Desktop\A_Dual\A_Dual1\Dual-core_Communication_Demo\Dual-core_Communication_Demo\SLAVE\obj/../USER/isr.c:122

    }
}
     2d2:	0001                	nop
     2d4:	4432                	lw	s0,12(sp)
     2d6:	0141                	addi	sp,sp,16
     2d8:	30200073          	mret

000002dc <TIM1_UP_IRQHandler>:
TIM1_UP_IRQHandler():
C:\Users\windows\Desktop\A_Dual\A_Dual1\Dual-core_Communication_Demo\Dual-core_Communication_Demo\SLAVE\obj/../USER/isr.c:125

void TIM1_UP_IRQHandler(void)
{
     2dc:	1141                	addi	sp,sp,-16
     2de:	c622                	sw	s0,12(sp)
     2e0:	0800                	addi	s0,sp,16
C:\Users\windows\Desktop\A_Dual\A_Dual1\Dual-core_Communication_Demo\Dual-core_Communication_Demo\SLAVE\obj/../USER/isr.c:126
    if(TIM_GetITStatus(TIM1, TIM_IT_Update) != RESET)
     2e2:	4585                	li	a1,1
     2e4:	400137b7          	lui	a5,0x40013
     2e8:	c0078513          	addi	a0,a5,-1024 # 40012c00 <_eusrstack+0x2000dc00>
     2ec:	2ef010ef          	jal	ra,1dda <TIM_GetITStatus>
     2f0:	87aa                	mv	a5,a0
     2f2:	cb81                	beqz	a5,302 <TIM1_UP_IRQHandler+0x26>
C:\Users\windows\Desktop\A_Dual\A_Dual1\Dual-core_Communication_Demo\Dual-core_Communication_Demo\SLAVE\obj/../USER/isr.c:128
    {
        TIM_ClearITPendingBit(TIM1, TIM_IT_Update);
     2f4:	4585                	li	a1,1
     2f6:	400137b7          	lui	a5,0x40013
     2fa:	c0078513          	addi	a0,a5,-1024 # 40012c00 <_eusrstack+0x2000dc00>
     2fe:	34d010ef          	jal	ra,1e4a <TIM_ClearITPendingBit>
C:\Users\windows\Desktop\A_Dual\A_Dual1\Dual-core_Communication_Demo\Dual-core_Communication_Demo\SLAVE\obj/../USER/isr.c:131

    }
}
     302:	0001                	nop
     304:	4432                	lw	s0,12(sp)
     306:	0141                	addi	sp,sp,16
     308:	30200073          	mret

0000030c <TIM1_TRG_COM_IRQHandler>:
TIM1_TRG_COM_IRQHandler():
C:\Users\windows\Desktop\A_Dual\A_Dual1\Dual-core_Communication_Demo\Dual-core_Communication_Demo\SLAVE\obj/../USER/isr.c:134

void TIM1_TRG_COM_IRQHandler(void)
{
     30c:	1141                	addi	sp,sp,-16
     30e:	c622                	sw	s0,12(sp)
     310:	0800                	addi	s0,sp,16
C:\Users\windows\Desktop\A_Dual\A_Dual1\Dual-core_Communication_Demo\Dual-core_Communication_Demo\SLAVE\obj/../USER/isr.c:135
    if(TIM_GetITStatus(TIM1, TIM_IT_Trigger) != RESET)
     312:	04000593          	li	a1,64
     316:	400137b7          	lui	a5,0x40013
     31a:	c0078513          	addi	a0,a5,-1024 # 40012c00 <_eusrstack+0x2000dc00>
     31e:	2bd010ef          	jal	ra,1dda <TIM_GetITStatus>
     322:	87aa                	mv	a5,a0
     324:	cb89                	beqz	a5,336 <TIM1_TRG_COM_IRQHandler+0x2a>
C:\Users\windows\Desktop\A_Dual\A_Dual1\Dual-core_Communication_Demo\Dual-core_Communication_Demo\SLAVE\obj/../USER/isr.c:137
    {
        TIM_ClearITPendingBit(TIM1, TIM_IT_Trigger);
     326:	04000593          	li	a1,64
     32a:	400137b7          	lui	a5,0x40013
     32e:	c0078513          	addi	a0,a5,-1024 # 40012c00 <_eusrstack+0x2000dc00>
     332:	319010ef          	jal	ra,1e4a <TIM_ClearITPendingBit>
C:\Users\windows\Desktop\A_Dual\A_Dual1\Dual-core_Communication_Demo\Dual-core_Communication_Demo\SLAVE\obj/../USER/isr.c:140

    }
    if(TIM_GetITStatus(TIM1, TIM_IT_COM) != RESET)
     336:	02000593          	li	a1,32
     33a:	400137b7          	lui	a5,0x40013
     33e:	c0078513          	addi	a0,a5,-1024 # 40012c00 <_eusrstack+0x2000dc00>
     342:	299010ef          	jal	ra,1dda <TIM_GetITStatus>
     346:	87aa                	mv	a5,a0
     348:	cb89                	beqz	a5,35a <TIM1_TRG_COM_IRQHandler+0x4e>
C:\Users\windows\Desktop\A_Dual\A_Dual1\Dual-core_Communication_Demo\Dual-core_Communication_Demo\SLAVE\obj/../USER/isr.c:142
    {
        TIM_ClearITPendingBit(TIM1, TIM_IT_COM);
     34a:	02000593          	li	a1,32
     34e:	400137b7          	lui	a5,0x40013
     352:	c0078513          	addi	a0,a5,-1024 # 40012c00 <_eusrstack+0x2000dc00>
     356:	2f5010ef          	jal	ra,1e4a <TIM_ClearITPendingBit>
C:\Users\windows\Desktop\A_Dual\A_Dual1\Dual-core_Communication_Demo\Dual-core_Communication_Demo\SLAVE\obj/../USER/isr.c:145

    }
}
     35a:	0001                	nop
     35c:	4432                	lw	s0,12(sp)
     35e:	0141                	addi	sp,sp,16
     360:	30200073          	mret

00000364 <TIM1_CC_IRQHandler>:
TIM1_CC_IRQHandler():
C:\Users\windows\Desktop\A_Dual\A_Dual1\Dual-core_Communication_Demo\Dual-core_Communication_Demo\SLAVE\obj/../USER/isr.c:148

void TIM1_CC_IRQHandler(void)
{
     364:	1141                	addi	sp,sp,-16
     366:	c622                	sw	s0,12(sp)
     368:	0800                	addi	s0,sp,16
C:\Users\windows\Desktop\A_Dual\A_Dual1\Dual-core_Communication_Demo\Dual-core_Communication_Demo\SLAVE\obj/../USER/isr.c:149
    if(TIM_GetITStatus(TIM1, TIM_IT_CC1) != RESET)
     36a:	4589                	li	a1,2
     36c:	400137b7          	lui	a5,0x40013
     370:	c0078513          	addi	a0,a5,-1024 # 40012c00 <_eusrstack+0x2000dc00>
     374:	267010ef          	jal	ra,1dda <TIM_GetITStatus>
     378:	87aa                	mv	a5,a0
     37a:	cb81                	beqz	a5,38a <TIM1_CC_IRQHandler+0x26>
C:\Users\windows\Desktop\A_Dual\A_Dual1\Dual-core_Communication_Demo\Dual-core_Communication_Demo\SLAVE\obj/../USER/isr.c:151
    {
        TIM_ClearITPendingBit(TIM1, TIM_IT_CC1);
     37c:	4589                	li	a1,2
     37e:	400137b7          	lui	a5,0x40013
     382:	c0078513          	addi	a0,a5,-1024 # 40012c00 <_eusrstack+0x2000dc00>
     386:	2c5010ef          	jal	ra,1e4a <TIM_ClearITPendingBit>
C:\Users\windows\Desktop\A_Dual\A_Dual1\Dual-core_Communication_Demo\Dual-core_Communication_Demo\SLAVE\obj/../USER/isr.c:154

    }
    if(TIM_GetITStatus(TIM1, TIM_IT_CC2) != RESET)
     38a:	4591                	li	a1,4
     38c:	400137b7          	lui	a5,0x40013
     390:	c0078513          	addi	a0,a5,-1024 # 40012c00 <_eusrstack+0x2000dc00>
     394:	247010ef          	jal	ra,1dda <TIM_GetITStatus>
     398:	87aa                	mv	a5,a0
     39a:	cb81                	beqz	a5,3aa <TIM1_CC_IRQHandler+0x46>
C:\Users\windows\Desktop\A_Dual\A_Dual1\Dual-core_Communication_Demo\Dual-core_Communication_Demo\SLAVE\obj/../USER/isr.c:156
    {
        TIM_ClearITPendingBit(TIM1, TIM_IT_CC2);
     39c:	4591                	li	a1,4
     39e:	400137b7          	lui	a5,0x40013
     3a2:	c0078513          	addi	a0,a5,-1024 # 40012c00 <_eusrstack+0x2000dc00>
     3a6:	2a5010ef          	jal	ra,1e4a <TIM_ClearITPendingBit>
C:\Users\windows\Desktop\A_Dual\A_Dual1\Dual-core_Communication_Demo\Dual-core_Communication_Demo\SLAVE\obj/../USER/isr.c:159

    }
    if(TIM_GetITStatus(TIM1, TIM_IT_CC3) != RESET)
     3aa:	45a1                	li	a1,8
     3ac:	400137b7          	lui	a5,0x40013
     3b0:	c0078513          	addi	a0,a5,-1024 # 40012c00 <_eusrstack+0x2000dc00>
     3b4:	227010ef          	jal	ra,1dda <TIM_GetITStatus>
     3b8:	87aa                	mv	a5,a0
     3ba:	cb81                	beqz	a5,3ca <TIM1_CC_IRQHandler+0x66>
C:\Users\windows\Desktop\A_Dual\A_Dual1\Dual-core_Communication_Demo\Dual-core_Communication_Demo\SLAVE\obj/../USER/isr.c:161
    {
        TIM_ClearITPendingBit(TIM1, TIM_IT_CC3);
     3bc:	45a1                	li	a1,8
     3be:	400137b7          	lui	a5,0x40013
     3c2:	c0078513          	addi	a0,a5,-1024 # 40012c00 <_eusrstack+0x2000dc00>
     3c6:	285010ef          	jal	ra,1e4a <TIM_ClearITPendingBit>
C:\Users\windows\Desktop\A_Dual\A_Dual1\Dual-core_Communication_Demo\Dual-core_Communication_Demo\SLAVE\obj/../USER/isr.c:164

    }
    if(TIM_GetITStatus(TIM1, TIM_IT_CC4) != RESET)
     3ca:	45c1                	li	a1,16
     3cc:	400137b7          	lui	a5,0x40013
     3d0:	c0078513          	addi	a0,a5,-1024 # 40012c00 <_eusrstack+0x2000dc00>
     3d4:	207010ef          	jal	ra,1dda <TIM_GetITStatus>
     3d8:	87aa                	mv	a5,a0
     3da:	cb81                	beqz	a5,3ea <TIM1_CC_IRQHandler+0x86>
C:\Users\windows\Desktop\A_Dual\A_Dual1\Dual-core_Communication_Demo\Dual-core_Communication_Demo\SLAVE\obj/../USER/isr.c:166
    {
        TIM_ClearITPendingBit(TIM1, TIM_IT_CC4);
     3dc:	45c1                	li	a1,16
     3de:	400137b7          	lui	a5,0x40013
     3e2:	c0078513          	addi	a0,a5,-1024 # 40012c00 <_eusrstack+0x2000dc00>
     3e6:	265010ef          	jal	ra,1e4a <TIM_ClearITPendingBit>
C:\Users\windows\Desktop\A_Dual\A_Dual1\Dual-core_Communication_Demo\Dual-core_Communication_Demo\SLAVE\obj/../USER/isr.c:169

    }
}
     3ea:	0001                	nop
     3ec:	4432                	lw	s0,12(sp)
     3ee:	0141                	addi	sp,sp,16
     3f0:	30200073          	mret

000003f4 <TIM2_IRQHandler>:
TIM2_IRQHandler():
C:\Users\windows\Desktop\A_Dual\A_Dual1\Dual-core_Communication_Demo\Dual-core_Communication_Demo\SLAVE\obj/../USER/isr.c:172

void TIM2_IRQHandler(void)
{
     3f4:	1141                	addi	sp,sp,-16
     3f6:	c622                	sw	s0,12(sp)
     3f8:	0800                	addi	s0,sp,16
C:\Users\windows\Desktop\A_Dual\A_Dual1\Dual-core_Communication_Demo\Dual-core_Communication_Demo\SLAVE\obj/../USER/isr.c:174

    if(TIM_GetITStatus(TIM2, TIM_IT_Update) != RESET)
     3fa:	4585                	li	a1,1
     3fc:	40000537          	lui	a0,0x40000
     400:	1db010ef          	jal	ra,1dda <TIM_GetITStatus>
     404:	87aa                	mv	a5,a0
     406:	c791                	beqz	a5,412 <TIM2_IRQHandler+0x1e>
C:\Users\windows\Desktop\A_Dual\A_Dual1\Dual-core_Communication_Demo\Dual-core_Communication_Demo\SLAVE\obj/../USER/isr.c:176
    {
        TIM_ClearITPendingBit(TIM2, TIM_IT_Update );
     408:	4585                	li	a1,1
     40a:	40000537          	lui	a0,0x40000
     40e:	23d010ef          	jal	ra,1e4a <TIM_ClearITPendingBit>
C:\Users\windows\Desktop\A_Dual\A_Dual1\Dual-core_Communication_Demo\Dual-core_Communication_Demo\SLAVE\obj/../USER/isr.c:182
        //ccd_collect();//CCD
        //gpio_toggle(B5);
        //GPIO_PIN_RESET(B5);
        //GPIO_PIN_SET(B5);
    }
}
     412:	0001                	nop
     414:	4432                	lw	s0,12(sp)
     416:	0141                	addi	sp,sp,16
     418:	30200073          	mret

0000041c <TIM3_IRQHandler>:
TIM3_IRQHandler():
C:\Users\windows\Desktop\A_Dual\A_Dual1\Dual-core_Communication_Demo\Dual-core_Communication_Demo\SLAVE\obj/../USER/isr.c:185

void TIM3_IRQHandler(void)
{
     41c:	1141                	addi	sp,sp,-16
     41e:	c622                	sw	s0,12(sp)
     420:	0800                	addi	s0,sp,16
C:\Users\windows\Desktop\A_Dual\A_Dual1\Dual-core_Communication_Demo\Dual-core_Communication_Demo\SLAVE\obj/../USER/isr.c:186
    if(TIM_GetITStatus(TIM3, TIM_IT_Update) != RESET)
     422:	4585                	li	a1,1
     424:	400007b7          	lui	a5,0x40000
     428:	40078513          	addi	a0,a5,1024 # 40000400 <_eusrstack+0x1fffb400>
     42c:	1af010ef          	jal	ra,1dda <TIM_GetITStatus>
     430:	87aa                	mv	a5,a0
     432:	cb81                	beqz	a5,442 <TIM3_IRQHandler+0x26>
C:\Users\windows\Desktop\A_Dual\A_Dual1\Dual-core_Communication_Demo\Dual-core_Communication_Demo\SLAVE\obj/../USER/isr.c:188
    {
        TIM_ClearITPendingBit(TIM3, TIM_IT_Update );
     434:	4585                	li	a1,1
     436:	400007b7          	lui	a5,0x40000
     43a:	40078513          	addi	a0,a5,1024 # 40000400 <_eusrstack+0x1fffb400>
     43e:	20d010ef          	jal	ra,1e4a <TIM_ClearITPendingBit>
C:\Users\windows\Desktop\A_Dual\A_Dual1\Dual-core_Communication_Demo\Dual-core_Communication_Demo\SLAVE\obj/../USER/isr.c:191

    }
}
     442:	0001                	nop
     444:	4432                	lw	s0,12(sp)
     446:	0141                	addi	sp,sp,16
     448:	30200073          	mret

0000044c <USART1_IRQHandler>:
USART1_IRQHandler():
C:\Users\windows\Desktop\A_Dual\A_Dual1\Dual-core_Communication_Demo\Dual-core_Communication_Demo\SLAVE\obj/../USER/isr.c:203
//
//    }
//}

void USART1_IRQHandler(void)
{
     44c:	1141                	addi	sp,sp,-16
     44e:	c622                	sw	s0,12(sp)
     450:	0800                	addi	s0,sp,16
C:\Users\windows\Desktop\A_Dual\A_Dual1\Dual-core_Communication_Demo\Dual-core_Communication_Demo\SLAVE\obj/../USER/isr.c:205

}
     452:	0001                	nop
     454:	4432                	lw	s0,12(sp)
     456:	0141                	addi	sp,sp,16
     458:	30200073          	mret

0000045c <USART2_IRQHandler>:
USART2_IRQHandler():
C:\Users\windows\Desktop\A_Dual\A_Dual1\Dual-core_Communication_Demo\Dual-core_Communication_Demo\SLAVE\obj/../USER/isr.c:208

void USART2_IRQHandler(void)
{
     45c:	1141                	addi	sp,sp,-16
     45e:	c622                	sw	s0,12(sp)
     460:	0800                	addi	s0,sp,16
C:\Users\windows\Desktop\A_Dual\A_Dual1\Dual-core_Communication_Demo\Dual-core_Communication_Demo\SLAVE\obj/../USER/isr.c:209
    if(USART_GetITStatus(USART2, USART_IT_RXNE) != RESET)
     462:	52500593          	li	a1,1317
     466:	400047b7          	lui	a5,0x40004
     46a:	40078513          	addi	a0,a5,1024 # 40004400 <_eusrstack+0x1ffff400>
     46e:	5d7010ef          	jal	ra,2244 <USART_GetITStatus>
     472:	87aa                	mv	a5,a0
     474:	cf85                	beqz	a5,4ac <USART2_IRQHandler+0x50>
C:\Users\windows\Desktop\A_Dual\A_Dual1\Dual-core_Communication_Demo\Dual-core_Communication_Demo\SLAVE\obj/../USER/isr.c:211
    {
        USART_ClearITPendingBit(USART2, USART_IT_RXNE);
     476:	52500593          	li	a1,1317
     47a:	400047b7          	lui	a5,0x40004
     47e:	40078513          	addi	a0,a5,1024 # 40004400 <_eusrstack+0x1ffff400>
     482:	6c5010ef          	jal	ra,2346 <USART_ClearITPendingBit>
C:\Users\windows\Desktop\A_Dual\A_Dual1\Dual-core_Communication_Demo\Dual-core_Communication_Demo\SLAVE\obj/../USER/isr.c:212
        if(camera_type == CAMERA_BIN_UART)
     486:	200007b7          	lui	a5,0x20000
     48a:	11c7a703          	lw	a4,284(a5) # 2000011c <camera_type>
     48e:	4789                	li	a5,2
     490:	00f71563          	bne	a4,a5,49a <USART2_IRQHandler+0x3e>
C:\Users\windows\Desktop\A_Dual\A_Dual1\Dual-core_Communication_Demo\Dual-core_Communication_Demo\SLAVE\obj/../USER/isr.c:213
            ov7725_cof_uart_interrupt();
     494:	38b020ef          	jal	ra,301e <ov7725_cof_uart_interrupt>
C:\Users\windows\Desktop\A_Dual\A_Dual1\Dual-core_Communication_Demo\Dual-core_Communication_Demo\SLAVE\obj/../USER/isr.c:217
        else if(camera_type == CAMERA_GRAYSCALE)
            mt9v03x_uart_callback();
    }
}
     498:	a811                	j	4ac <USART2_IRQHandler+0x50>
C:\Users\windows\Desktop\A_Dual\A_Dual1\Dual-core_Communication_Demo\Dual-core_Communication_Demo\SLAVE\obj/../USER/isr.c:214
        else if(camera_type == CAMERA_GRAYSCALE)
     49a:	200007b7          	lui	a5,0x20000
     49e:	11c7a703          	lw	a4,284(a5) # 2000011c <camera_type>
     4a2:	4785                	li	a5,1
     4a4:	00f71463          	bne	a4,a5,4ac <USART2_IRQHandler+0x50>
C:\Users\windows\Desktop\A_Dual\A_Dual1\Dual-core_Communication_Demo\Dual-core_Communication_Demo\SLAVE\obj/../USER/isr.c:215
            mt9v03x_uart_callback();
     4a8:	7ba020ef          	jal	ra,2c62 <mt9v03x_uart_callback>
C:\Users\windows\Desktop\A_Dual\A_Dual1\Dual-core_Communication_Demo\Dual-core_Communication_Demo\SLAVE\obj/../USER/isr.c:217
}
     4ac:	0001                	nop
     4ae:	4432                	lw	s0,12(sp)
     4b0:	0141                	addi	sp,sp,16
     4b2:	30200073          	mret

000004b6 <USART3_IRQHandler>:
USART3_IRQHandler():
C:\Users\windows\Desktop\A_Dual\A_Dual1\Dual-core_Communication_Demo\Dual-core_Communication_Demo\SLAVE\obj/../USER/isr.c:220

void USART3_IRQHandler(void)
{
     4b6:	1141                	addi	sp,sp,-16
     4b8:	c622                	sw	s0,12(sp)
     4ba:	0800                	addi	s0,sp,16
C:\Users\windows\Desktop\A_Dual\A_Dual1\Dual-core_Communication_Demo\Dual-core_Communication_Demo\SLAVE\obj/../USER/isr.c:222

}
     4bc:	0001                	nop
     4be:	4432                	lw	s0,12(sp)
     4c0:	0141                	addi	sp,sp,16
     4c2:	30200073          	mret

000004c6 <DMA1_Channel4_IRQHandler>:
DMA1_Channel4_IRQHandler():
C:\Users\windows\Desktop\A_Dual\A_Dual1\Dual-core_Communication_Demo\Dual-core_Communication_Demo\SLAVE\obj/../USER/isr.c:225

void DMA1_Channel4_IRQHandler(void)
{
     4c6:	1141                	addi	sp,sp,-16
     4c8:	c622                	sw	s0,12(sp)
     4ca:	0800                	addi	s0,sp,16
C:\Users\windows\Desktop\A_Dual\A_Dual1\Dual-core_Communication_Demo\Dual-core_Communication_Demo\SLAVE\obj/../USER/isr.c:226
    if(SET == DMA_GetFlagStatus(DMA1_FLAG_TC4))
     4cc:	6509                	lui	a0,0x2
     4ce:	77a000ef          	jal	ra,c48 <DMA_GetFlagStatus>
     4d2:	872a                	mv	a4,a0
     4d4:	4785                	li	a5,1
     4d6:	02f71863          	bne	a4,a5,506 <DMA1_Channel4_IRQHandler+0x40>
C:\Users\windows\Desktop\A_Dual\A_Dual1\Dual-core_Communication_Demo\Dual-core_Communication_Demo\SLAVE\obj/../USER/isr.c:228
    {
        DMA_ClearFlag(DMA1_FLAG_TC4);
     4da:	6509                	lui	a0,0x2
     4dc:	7c8000ef          	jal	ra,ca4 <DMA_ClearFlag>
C:\Users\windows\Desktop\A_Dual\A_Dual1\Dual-core_Communication_Demo\Dual-core_Communication_Demo\SLAVE\obj/../USER/isr.c:229
        if(camera_type == CAMERA_BIN_UART)
     4e0:	200007b7          	lui	a5,0x20000
     4e4:	11c7a703          	lw	a4,284(a5) # 2000011c <camera_type>
     4e8:	4789                	li	a5,2
     4ea:	00f71563          	bne	a4,a5,4f4 <DMA1_Channel4_IRQHandler+0x2e>
C:\Users\windows\Desktop\A_Dual\A_Dual1\Dual-core_Communication_Demo\Dual-core_Communication_Demo\SLAVE\obj/../USER/isr.c:230
            ov7725_uart_dma();
     4ee:	3d7020ef          	jal	ra,30c4 <ov7725_uart_dma>
C:\Users\windows\Desktop\A_Dual\A_Dual1\Dual-core_Communication_Demo\Dual-core_Communication_Demo\SLAVE\obj/../USER/isr.c:234
        else if(camera_type == CAMERA_GRAYSCALE)
            mt9v03x_dma();
    }
}
     4f2:	a811                	j	506 <DMA1_Channel4_IRQHandler+0x40>
C:\Users\windows\Desktop\A_Dual\A_Dual1\Dual-core_Communication_Demo\Dual-core_Communication_Demo\SLAVE\obj/../USER/isr.c:231
        else if(camera_type == CAMERA_GRAYSCALE)
     4f4:	200007b7          	lui	a5,0x20000
     4f8:	11c7a703          	lw	a4,284(a5) # 2000011c <camera_type>
     4fc:	4785                	li	a5,1
     4fe:	00f71463          	bne	a4,a5,506 <DMA1_Channel4_IRQHandler+0x40>
C:\Users\windows\Desktop\A_Dual\A_Dual1\Dual-core_Communication_Demo\Dual-core_Communication_Demo\SLAVE\obj/../USER/isr.c:232
            mt9v03x_dma();
     502:	2ef020ef          	jal	ra,2ff0 <mt9v03x_dma>
C:\Users\windows\Desktop\A_Dual\A_Dual1\Dual-core_Communication_Demo\Dual-core_Communication_Demo\SLAVE\obj/../USER/isr.c:234
}
     506:	0001                	nop
     508:	4432                	lw	s0,12(sp)
     50a:	0141                	addi	sp,sp,16
     50c:	30200073          	mret

00000510 <NMI_Handler>:
NMI_Handler():
C:\Users\windows\Desktop\A_Dual\A_Dual1\Dual-core_Communication_Demo\Dual-core_Communication_Demo\SLAVE\obj/../USER/isr.c:243
* Description    : This function handles NMI exception.
* Input          : None
* Return         : None
*******************************************************************************/
void NMI_Handler(void)
{
     510:	1141                	addi	sp,sp,-16
     512:	c622                	sw	s0,12(sp)
     514:	0800                	addi	s0,sp,16
C:\Users\windows\Desktop\A_Dual\A_Dual1\Dual-core_Communication_Demo\Dual-core_Communication_Demo\SLAVE\obj/../USER/isr.c:245

}
     516:	0001                	nop
     518:	4432                	lw	s0,12(sp)
     51a:	0141                	addi	sp,sp,16
     51c:	30200073          	mret

00000520 <HardFault_Handler>:
HardFault_Handler():
C:\Users\windows\Desktop\A_Dual\A_Dual1\Dual-core_Communication_Demo\Dual-core_Communication_Demo\SLAVE\obj/../USER/isr.c:254
* Description    : This function handles Hard Fault exception.
* Input          : None
* Return         : None
*******************************************************************************/
void HardFault_Handler(void)
{
     520:	1141                	addi	sp,sp,-16
     522:	c622                	sw	s0,12(sp)
     524:	0800                	addi	s0,sp,16
C:\Users\windows\Desktop\A_Dual\A_Dual1\Dual-core_Communication_Demo\Dual-core_Communication_Demo\SLAVE\obj/../USER/isr.c:256 (discriminator 1)

  while (1)
     526:	a001                	j	526 <HardFault_Handler+0x6>

00000528 <get_sensor_data>:
get_sensor_data():
C:\Users\windows\Desktop\A_Dual\A_Dual1\Dual-core_Communication_Demo\Dual-core_Communication_Demo\SLAVE\obj/../USER/main.c:44
//  @return     void
//  @since      v1.0
//  Sample usage:
//-------------------------------------------------------------------------------------------------------------------
void get_sensor_data(void)
{
     528:	1141                	addi	sp,sp,-16
     52a:	c606                	sw	ra,12(sp)
     52c:	c422                	sw	s0,8(sp)
     52e:	0800                	addi	s0,sp,16
C:\Users\windows\Desktop\A_Dual\A_Dual1\Dual-core_Communication_Demo\Dual-core_Communication_Demo\SLAVE\obj/../USER/main.c:46
    //
    slave_encoder_left=timer_quad_get(TIMER_2);
     530:	4505                	li	a0,1
     532:	650030ef          	jal	ra,3b82 <timer_quad_get>
     536:	87aa                	mv	a5,a0
     538:	873e                	mv	a4,a5
     53a:	82e19023          	sh	a4,-2016(gp) # 20000138 <_edata>
C:\Users\windows\Desktop\A_Dual\A_Dual1\Dual-core_Communication_Demo\Dual-core_Communication_Demo\SLAVE\obj/../USER/main.c:47
    slave_encoder_right=timer_quad_get(TIMER_3);
     53e:	4509                	li	a0,2
     540:	642030ef          	jal	ra,3b82 <timer_quad_get>
     544:	87aa                	mv	a5,a0
     546:	873e                	mv	a4,a5
     548:	82e19123          	sh	a4,-2014(gp) # 2000013a <slave_encoder_right>
C:\Users\windows\Desktop\A_Dual\A_Dual1\Dual-core_Communication_Demo\Dual-core_Communication_Demo\SLAVE\obj/../USER/main.c:48
    timer_quad_clear(TIMER_2);
     54c:	4505                	li	a0,1
     54e:	666030ef          	jal	ra,3bb4 <timer_quad_clear>
C:\Users\windows\Desktop\A_Dual\A_Dual1\Dual-core_Communication_Demo\Dual-core_Communication_Demo\SLAVE\obj/../USER/main.c:49
    timer_quad_clear(TIMER_3);
     552:	4509                	li	a0,2
     554:	660030ef          	jal	ra,3bb4 <timer_quad_clear>
C:\Users\windows\Desktop\A_Dual\A_Dual1\Dual-core_Communication_Demo\Dual-core_Communication_Demo\SLAVE\obj/../USER/main.c:50
}
     558:	0001                	nop
     55a:	40b2                	lw	ra,12(sp)
     55c:	4422                	lw	s0,8(sp)
     55e:	0141                	addi	sp,sp,16
     560:	8082                	ret

00000562 <process_data>:
process_data():
C:\Users\windows\Desktop\A_Dual\A_Dual1\Dual-core_Communication_Demo\Dual-core_Communication_Demo\SLAVE\obj/../USER/main.c:60
//  @return     void
//  @since      v1.0
//  Sample usage:
//-------------------------------------------------------------------------------------------------------------------
void process_data(void)
{
     562:	1141                	addi	sp,sp,-16
     564:	c622                	sw	s0,12(sp)
     566:	0800                	addi	s0,sp,16
C:\Users\windows\Desktop\A_Dual\A_Dual1\Dual-core_Communication_Demo\Dual-core_Communication_Demo\SLAVE\obj/../USER/main.c:61
    temp_buff[0] = 0xD8;                         //
     568:	fd800713          	li	a4,-40
     56c:	84e18c23          	sb	a4,-1960(gp) # 20000170 <temp_buff>
C:\Users\windows\Desktop\A_Dual\A_Dual1\Dual-core_Communication_Demo\Dual-core_Communication_Demo\SLAVE\obj/../USER/main.c:62
    temp_buff[1] = 0xB0;                         //
     570:	85818793          	addi	a5,gp,-1960 # 20000170 <temp_buff>
     574:	fb000713          	li	a4,-80
     578:	00e780a3          	sb	a4,1(a5)
C:\Users\windows\Desktop\A_Dual\A_Dual1\Dual-core_Communication_Demo\Dual-core_Communication_Demo\SLAVE\obj/../USER/main.c:63
    temp_buff[2] = slave_encoder_left>>8;        //8
     57c:	82019783          	lh	a5,-2016(gp) # 20000138 <_edata>
     580:	87a1                	srai	a5,a5,0x8
     582:	07c2                	slli	a5,a5,0x10
     584:	87c1                	srai	a5,a5,0x10
     586:	0ff7f713          	andi	a4,a5,255
     58a:	85818793          	addi	a5,gp,-1960 # 20000170 <temp_buff>
     58e:	00e78123          	sb	a4,2(a5)
C:\Users\windows\Desktop\A_Dual\A_Dual1\Dual-core_Communication_Demo\Dual-core_Communication_Demo\SLAVE\obj/../USER/main.c:64
    temp_buff[3] = slave_encoder_left&0xFF;      //8
     592:	82019783          	lh	a5,-2016(gp) # 20000138 <_edata>
     596:	0ff7f713          	andi	a4,a5,255
     59a:	85818793          	addi	a5,gp,-1960 # 20000170 <temp_buff>
     59e:	00e781a3          	sb	a4,3(a5)
C:\Users\windows\Desktop\A_Dual\A_Dual1\Dual-core_Communication_Demo\Dual-core_Communication_Demo\SLAVE\obj/../USER/main.c:66

    temp_buff[4] = 0xB1;                         //
     5a2:	85818793          	addi	a5,gp,-1960 # 20000170 <temp_buff>
     5a6:	fb100713          	li	a4,-79
     5aa:	00e78223          	sb	a4,4(a5)
C:\Users\windows\Desktop\A_Dual\A_Dual1\Dual-core_Communication_Demo\Dual-core_Communication_Demo\SLAVE\obj/../USER/main.c:67
    temp_buff[5] = slave_encoder_right>>8;       //8
     5ae:	82219783          	lh	a5,-2014(gp) # 2000013a <slave_encoder_right>
     5b2:	87a1                	srai	a5,a5,0x8
     5b4:	07c2                	slli	a5,a5,0x10
     5b6:	87c1                	srai	a5,a5,0x10
     5b8:	0ff7f713          	andi	a4,a5,255
     5bc:	85818793          	addi	a5,gp,-1960 # 20000170 <temp_buff>
     5c0:	00e782a3          	sb	a4,5(a5)
C:\Users\windows\Desktop\A_Dual\A_Dual1\Dual-core_Communication_Demo\Dual-core_Communication_Demo\SLAVE\obj/../USER/main.c:68
    temp_buff[6] = slave_encoder_right&0xFF;     //8
     5c4:	82219783          	lh	a5,-2014(gp) # 2000013a <slave_encoder_right>
     5c8:	0ff7f713          	andi	a4,a5,255
     5cc:	85818793          	addi	a5,gp,-1960 # 20000170 <temp_buff>
     5d0:	00e78323          	sb	a4,6(a5)
C:\Users\windows\Desktop\A_Dual\A_Dual1\Dual-core_Communication_Demo\Dual-core_Communication_Demo\SLAVE\obj/../USER/main.c:70

    temp_buff[7] = 0xB2;                         //
     5d4:	85818793          	addi	a5,gp,-1960 # 20000170 <temp_buff>
     5d8:	fb200713          	li	a4,-78
     5dc:	00e783a3          	sb	a4,7(a5)
C:\Users\windows\Desktop\A_Dual\A_Dual1\Dual-core_Communication_Demo\Dual-core_Communication_Demo\SLAVE\obj/../USER/main.c:71
    temp_buff[8] = slave_position>>8;            //8
     5e0:	82419783          	lh	a5,-2012(gp) # 2000013c <slave_position>
     5e4:	87a1                	srai	a5,a5,0x8
     5e6:	07c2                	slli	a5,a5,0x10
     5e8:	87c1                	srai	a5,a5,0x10
     5ea:	0ff7f713          	andi	a4,a5,255
     5ee:	85818793          	addi	a5,gp,-1960 # 20000170 <temp_buff>
     5f2:	00e78423          	sb	a4,8(a5)
C:\Users\windows\Desktop\A_Dual\A_Dual1\Dual-core_Communication_Demo\Dual-core_Communication_Demo\SLAVE\obj/../USER/main.c:72
    temp_buff[9] = slave_position&0xFF;          //8
     5f6:	82419783          	lh	a5,-2012(gp) # 2000013c <slave_position>
     5fa:	0ff7f713          	andi	a4,a5,255
     5fe:	85818793          	addi	a5,gp,-1960 # 20000170 <temp_buff>
     602:	00e784a3          	sb	a4,9(a5)
C:\Users\windows\Desktop\A_Dual\A_Dual1\Dual-core_Communication_Demo\Dual-core_Communication_Demo\SLAVE\obj/../USER/main.c:74

    temp_buff[10] = 0xEE;                        //
     606:	85818793          	addi	a5,gp,-1960 # 20000170 <temp_buff>
     60a:	5739                	li	a4,-18
     60c:	00e78523          	sb	a4,10(a5)
C:\Users\windows\Desktop\A_Dual\A_Dual1\Dual-core_Communication_Demo\Dual-core_Communication_Demo\SLAVE\obj/../USER/main.c:75
}
     610:	0001                	nop
     612:	4432                	lw	s0,12(sp)
     614:	0141                	addi	sp,sp,16
     616:	8082                	ret

00000618 <TIM4_IRQHandler>:
TIM4_IRQHandler():
C:\Users\windows\Desktop\A_Dual\A_Dual1\Dual-core_Communication_Demo\Dual-core_Communication_Demo\SLAVE\obj/../USER/main.c:86
//  @since      v1.0
//  Sample usage:
//-------------------------------------------------------------------------------------------------------------------
void TIM4_IRQHandler(void) __attribute__((interrupt("WCH-Interrupt-fast")));
void TIM4_IRQHandler(void)
{
     618:	1141                	addi	sp,sp,-16
     61a:	c622                	sw	s0,12(sp)
     61c:	0800                	addi	s0,sp,16
C:\Users\windows\Desktop\A_Dual\A_Dual1\Dual-core_Communication_Demo\Dual-core_Communication_Demo\SLAVE\obj/../USER/main.c:87
    if(TIM_GetITStatus(TIM4, TIM_IT_Update) != RESET)
     61e:	4585                	li	a1,1
     620:	400017b7          	lui	a5,0x40001
     624:	80078513          	addi	a0,a5,-2048 # 40000800 <_eusrstack+0x1fffb800>
     628:	7b2010ef          	jal	ra,1dda <TIM_GetITStatus>
     62c:	87aa                	mv	a5,a0
     62e:	cf85                	beqz	a5,666 <TIM4_IRQHandler+0x4e>
C:\Users\windows\Desktop\A_Dual\A_Dual1\Dual-core_Communication_Demo\Dual-core_Communication_Demo\SLAVE\obj/../USER/main.c:89
    {
        TIM_ClearITPendingBit(TIM4, TIM_IT_Update);
     630:	4585                	li	a1,1
     632:	400017b7          	lui	a5,0x40001
     636:	80078513          	addi	a0,a5,-2048 # 40000800 <_eusrstack+0x1fffb800>
     63a:	011010ef          	jal	ra,1e4a <TIM_ClearITPendingBit>
C:\Users\windows\Desktop\A_Dual\A_Dual1\Dual-core_Communication_Demo\Dual-core_Communication_Demo\SLAVE\obj/../USER/main.c:90
        GPIO_PIN_SET(A0);                           //A0
     63e:	6799                	lui	a5,0x6
     640:	1a47a783          	lw	a5,420(a5) # 61a4 <GPION>
     644:	873e                	mv	a4,a5
     646:	4785                	li	a5,1
     648:	cb1c                	sw	a5,16(a4)
C:\Users\windows\Desktop\A_Dual\A_Dual1\Dual-core_Communication_Demo\Dual-core_Communication_Demo\SLAVE\obj/../USER/main.c:92

        get_sensor_data();                          //
     64a:	3df9                	jal	528 <get_sensor_data>
C:\Users\windows\Desktop\A_Dual\A_Dual1\Dual-core_Communication_Demo\Dual-core_Communication_Demo\SLAVE\obj/../USER/main.c:93
        process_data();                             //temp_buff
     64c:	3f19                	jal	562 <process_data>
C:\Users\windows\Desktop\A_Dual\A_Dual1\Dual-core_Communication_Demo\Dual-core_Communication_Demo\SLAVE\obj/../USER/main.c:94
        uart_putbuff(UART_3, temp_buff, LINE_LEN);  //3
     64e:	462d                	li	a2,11
     650:	85818593          	addi	a1,gp,-1960 # 20000170 <temp_buff>
     654:	4509                	li	a0,2
     656:	3e5030ef          	jal	ra,423a <uart_putbuff>
C:\Users\windows\Desktop\A_Dual\A_Dual1\Dual-core_Communication_Demo\Dual-core_Communication_Demo\SLAVE\obj/../USER/main.c:96

        GPIO_PIN_RESET(A0);                         //A0
     65a:	6799                	lui	a5,0x6
     65c:	1a47a783          	lw	a5,420(a5) # 61a4 <GPION>
     660:	873e                	mv	a4,a5
     662:	4785                	li	a5,1
     664:	cb5c                	sw	a5,20(a4)
C:\Users\windows\Desktop\A_Dual\A_Dual1\Dual-core_Communication_Demo\Dual-core_Communication_Demo\SLAVE\obj/../USER/main.c:98
    }
}
     666:	0001                	nop
     668:	4432                	lw	s0,12(sp)
     66a:	0141                	addi	sp,sp,16
     66c:	30200073          	mret

00000670 <main>:
main():
C:\Users\windows\Desktop\A_Dual\A_Dual1\Dual-core_Communication_Demo\Dual-core_Communication_Demo\SLAVE\obj/../USER/main.c:101

int main(void)
{
     670:	b2010113          	addi	sp,sp,-1248
     674:	4c112e23          	sw	ra,1244(sp)
     678:	4c812c23          	sw	s0,1240(sp)
     67c:	4e010413          	addi	s0,sp,1248
     680:	7379                	lui	t1,0xffffe
     682:	911a                	add	sp,sp,t1
C:\Users\windows\Desktop\A_Dual\A_Dual1\Dual-core_Communication_Demo\Dual-core_Communication_Demo\SLAVE\obj/../USER/main.c:102
    DisableGlobalIRQ();
     684:	034030ef          	jal	ra,36b8 <DisableGlobalIRQ>
C:\Users\windows\Desktop\A_Dual\A_Dual1\Dual-core_Communication_Demo\Dual-core_Communication_Demo\SLAVE\obj/../USER/main.c:103
    board_init();           //MPU  
     688:	449030ef          	jal	ra,42d0 <board_init>
C:\Users\windows\Desktop\A_Dual\A_Dual1\Dual-core_Communication_Demo\Dual-core_Communication_Demo\SLAVE\obj/../USER/main.c:105

    ips114_init();
     68c:	61d010ef          	jal	ra,24a8 <ips114_init>
C:\Users\windows\Desktop\A_Dual\A_Dual1\Dual-core_Communication_Demo\Dual-core_Communication_Demo\SLAVE\obj/../USER/main.c:106
    mt9v03x_init();
     690:	0ab020ef          	jal	ra,2f3a <mt9v03x_init>
C:\Users\windows\Desktop\A_Dual\A_Dual1\Dual-core_Communication_Demo\Dual-core_Communication_Demo\SLAVE\obj/../USER/main.c:108

    gpio_init(A0, GPO, 0, GPIO_PIN_CONFIG);                 //
     694:	31000693          	li	a3,784
     698:	4601                	li	a2,0
     69a:	4585                	li	a1,1
     69c:	4501                	li	a0,0
     69e:	4f9020ef          	jal	ra,3396 <gpio_init>
C:\Users\windows\Desktop\A_Dual\A_Dual1\Dual-core_Communication_Demo\Dual-core_Communication_Demo\SLAVE\obj/../USER/main.c:109
    uart_init(UART_3, 460800, UART3_TX_B10, UART3_RX_B11);  //3460800
     6a2:	02100693          	li	a3,33
     6a6:	02000613          	li	a2,32
     6aa:	000717b7          	lui	a5,0x71
     6ae:	80078593          	addi	a1,a5,-2048 # 70800 <_data_lma+0x6a528>
     6b2:	4509                	li	a0,2
     6b4:	22d030ef          	jal	ra,40e0 <uart_init>
C:\Users\windows\Desktop\A_Dual\A_Dual1\Dual-core_Communication_Demo\Dual-core_Communication_Demo\SLAVE\obj/../USER/main.c:110
    timer_pit_interrupt_ms(TIMER_4, 5);                     //4
     6b8:	4595                	li	a1,5
     6ba:	450d                	li	a0,3
     6bc:	070030ef          	jal	ra,372c <timer_pit_interrupt_ms>
C:\Users\windows\Desktop\A_Dual\A_Dual1\Dual-core_Communication_Demo\Dual-core_Communication_Demo\SLAVE\obj/../USER/main.c:112

    timer_quad_init(TIMER_2,TIMER2_CHA_A15,TIMER2_CHB_B3);//12
     6c0:	4615                	li	a2,5
     6c2:	4591                	li	a1,4
     6c4:	4505                	li	a0,1
     6c6:	360030ef          	jal	ra,3a26 <timer_quad_init>
C:\Users\windows\Desktop\A_Dual\A_Dual1\Dual-core_Communication_Demo\Dual-core_Communication_Demo\SLAVE\obj/../USER/main.c:113
    timer_quad_init(TIMER_3,TIMER3_CHA_B4,TIMER3_CHB_B5);//23
     6ca:	462d                	li	a2,11
     6cc:	45a9                	li	a1,10
     6ce:	4509                	li	a0,2
     6d0:	356030ef          	jal	ra,3a26 <timer_quad_init>
C:\Users\windows\Desktop\A_Dual\A_Dual1\Dual-core_Communication_Demo\Dual-core_Communication_Demo\SLAVE\obj/../USER/main.c:117

    //systick_delay_ms(200);
    //ips114_showstr(0,0,"test");
    EnableGlobalIRQ(0);
     6d4:	4501                	li	a0,0
     6d6:	02a030ef          	jal	ra,3700 <EnableGlobalIRQ>
C:\Users\windows\Desktop\A_Dual\A_Dual1\Dual-core_Communication_Demo\Dual-core_Communication_Demo\SLAVE\obj/../USER/main.c:120
    uint8 post_image[MT9V03X_H][MT9V03X_W];
    uint8 threshold,threshold_Last;
    uint8 count=0;
     6da:	fc040fa3          	sb	zero,-33(s0)
C:\Users\windows\Desktop\A_Dual\A_Dual1\Dual-core_Communication_Demo\Dual-core_Communication_Demo\SLAVE\obj/../USER/main.c:122
    int16 slave_last;
    uint8 cnt=0;
     6de:	fe0406a3          	sb	zero,-19(s0)
C:\Users\windows\Desktop\A_Dual\A_Dual1\Dual-core_Communication_Demo\Dual-core_Communication_Demo\SLAVE\obj/../USER/main.c:125
    while(1)
    {
        if(mt9v03x_finish_flag==1)
     6e2:	82d1c703          	lbu	a4,-2003(gp) # 20000145 <mt9v03x_finish_flag>
     6e6:	4785                	li	a5,1
     6e8:	fef71de3          	bne	a4,a5,6e2 <main+0x72>
C:\Users\windows\Desktop\A_Dual\A_Dual1\Dual-core_Communication_Demo\Dual-core_Communication_Demo\SLAVE\obj/../USER/main.c:128
       {
           //threshold=OTSU(mt9v03x_image[0]);
           trackBorder_Get(100);
     6ec:	06400513          	li	a0,100
     6f0:	65f030ef          	jal	ra,454e <trackBorder_Get>
C:\Users\windows\Desktop\A_Dual\A_Dual1\Dual-core_Communication_Demo\Dual-core_Communication_Demo\SLAVE\obj/../USER/main.c:129
           slave_position=centre_line_get();
     6f4:	0ec040ef          	jal	ra,47e0 <centre_line_get>
     6f8:	87aa                	mv	a5,a0
     6fa:	873e                	mv	a4,a5
     6fc:	82e19223          	sh	a4,-2012(gp) # 2000013c <slave_position>
C:\Users\windows\Desktop\A_Dual\A_Dual1\Dual-core_Communication_Demo\Dual-core_Communication_Demo\SLAVE\obj/../USER/main.c:130
           if(cnt==0)
     700:	fed44783          	lbu	a5,-19(s0)
     704:	eb89                	bnez	a5,716 <main+0xa6>
C:\Users\windows\Desktop\A_Dual\A_Dual1\Dual-core_Communication_Demo\Dual-core_Communication_Demo\SLAVE\obj/../USER/main.c:132
           {
               slave_last=slave_position;
     706:	8241d783          	lhu	a5,-2012(gp) # 2000013c <slave_position>
     70a:	fef41723          	sh	a5,-18(s0)
C:\Users\windows\Desktop\A_Dual\A_Dual1\Dual-core_Communication_Demo\Dual-core_Communication_Demo\SLAVE\obj/../USER/main.c:133
               cnt=1;
     70e:	4785                	li	a5,1
     710:	fef406a3          	sb	a5,-19(s0)
     714:	a835                	j	750 <main+0xe0>
C:\Users\windows\Desktop\A_Dual\A_Dual1\Dual-core_Communication_Demo\Dual-core_Communication_Demo\SLAVE\obj/../USER/main.c:137
           }
           else
           {
               if(slave_position-slave_last>50||slave_position-slave_last<-50)
     716:	82419783          	lh	a5,-2012(gp) # 2000013c <slave_position>
     71a:	873e                	mv	a4,a5
     71c:	fee41783          	lh	a5,-18(s0)
     720:	8f1d                	sub	a4,a4,a5
     722:	03200793          	li	a5,50
     726:	00e7cc63          	blt	a5,a4,73e <main+0xce>
C:\Users\windows\Desktop\A_Dual\A_Dual1\Dual-core_Communication_Demo\Dual-core_Communication_Demo\SLAVE\obj/../USER/main.c:137 (discriminator 1)
     72a:	82419783          	lh	a5,-2012(gp) # 2000013c <slave_position>
     72e:	873e                	mv	a4,a5
     730:	fee41783          	lh	a5,-18(s0)
     734:	8f1d                	sub	a4,a4,a5
     736:	fce00793          	li	a5,-50
     73a:	00f75763          	bge	a4,a5,748 <main+0xd8>
C:\Users\windows\Desktop\A_Dual\A_Dual1\Dual-core_Communication_Demo\Dual-core_Communication_Demo\SLAVE\obj/../USER/main.c:138
                   slave_position=slave_last;
     73e:	fee45703          	lhu	a4,-18(s0)
     742:	82e19223          	sh	a4,-2012(gp) # 2000013c <slave_position>
     746:	a029                	j	750 <main+0xe0>
C:\Users\windows\Desktop\A_Dual\A_Dual1\Dual-core_Communication_Demo\Dual-core_Communication_Demo\SLAVE\obj/../USER/main.c:140
               else
                   slave_last=slave_position;
     748:	8241d783          	lhu	a5,-2012(gp) # 2000013c <slave_position>
     74c:	fef41723          	sh	a5,-18(s0)
C:\Users\windows\Desktop\A_Dual\A_Dual1\Dual-core_Communication_Demo\Dual-core_Communication_Demo\SLAVE\obj/../USER/main.c:144
           }
           //slave_position=slave_position*0.6;

           for(int i=0;i<MT9V03X_H;i++)
     750:	fe042423          	sw	zero,-24(s0)
     754:	a851                	j	7e8 <main+0x178>
C:\Users\windows\Desktop\A_Dual\A_Dual1\Dual-core_Communication_Demo\Dual-core_Communication_Demo\SLAVE\obj/../USER/main.c:145
               for(int j=0;j<MT9V03X_W;j++)
     756:	fe042223          	sw	zero,-28(s0)
     75a:	a8a5                	j	7d2 <main+0x162>
C:\Users\windows\Desktop\A_Dual\A_Dual1\Dual-core_Communication_Demo\Dual-core_Communication_Demo\SLAVE\obj/../USER/main.c:147
               {
                   if(mt9v03x_image[i][j]>100)
     75c:	200007b7          	lui	a5,0x20000
     760:	fe842683          	lw	a3,-24(s0)
     764:	0bc00713          	li	a4,188
     768:	02e68733          	mul	a4,a3,a4
     76c:	17c78793          	addi	a5,a5,380 # 2000017c <mt9v03x_image>
     770:	973e                	add	a4,a4,a5
     772:	fe442783          	lw	a5,-28(s0)
     776:	97ba                	add	a5,a5,a4
     778:	0007c703          	lbu	a4,0(a5)
     77c:	06400793          	li	a5,100
     780:	02e7f463          	bgeu	a5,a4,7a8 <main+0x138>
C:\Users\windows\Desktop\A_Dual\A_Dual1\Dual-core_Communication_Demo\Dual-core_Communication_Demo\SLAVE\obj/../USER/main.c:148
                       post_image[i][j]=255;
     784:	77f9                	lui	a5,0xffffe
     786:	ff040713          	addi	a4,s0,-16
     78a:	973e                	add	a4,a4,a5
     78c:	fe842683          	lw	a3,-24(s0)
     790:	0bc00793          	li	a5,188
     794:	02f687b3          	mul	a5,a3,a5
     798:	973e                	add	a4,a4,a5
     79a:	fe442783          	lw	a5,-28(s0)
     79e:	97ba                	add	a5,a5,a4
     7a0:	577d                	li	a4,-1
     7a2:	b2e78a23          	sb	a4,-1228(a5) # ffffdb34 <_eusrstack+0xdfff8b34>
     7a6:	a00d                	j	7c8 <main+0x158>
C:\Users\windows\Desktop\A_Dual\A_Dual1\Dual-core_Communication_Demo\Dual-core_Communication_Demo\SLAVE\obj/../USER/main.c:150
                   else
                       post_image[i][j]=0;
     7a8:	77f9                	lui	a5,0xffffe
     7aa:	ff040713          	addi	a4,s0,-16
     7ae:	973e                	add	a4,a4,a5
     7b0:	fe842683          	lw	a3,-24(s0)
     7b4:	0bc00793          	li	a5,188
     7b8:	02f687b3          	mul	a5,a3,a5
     7bc:	973e                	add	a4,a4,a5
     7be:	fe442783          	lw	a5,-28(s0)
     7c2:	97ba                	add	a5,a5,a4
     7c4:	b2078a23          	sb	zero,-1228(a5) # ffffdb34 <_eusrstack+0xdfff8b34>
C:\Users\windows\Desktop\A_Dual\A_Dual1\Dual-core_Communication_Demo\Dual-core_Communication_Demo\SLAVE\obj/../USER/main.c:145 (discriminator 2)
               for(int j=0;j<MT9V03X_W;j++)
     7c8:	fe442783          	lw	a5,-28(s0)
     7cc:	0785                	addi	a5,a5,1
     7ce:	fef42223          	sw	a5,-28(s0)
C:\Users\windows\Desktop\A_Dual\A_Dual1\Dual-core_Communication_Demo\Dual-core_Communication_Demo\SLAVE\obj/../USER/main.c:145 (discriminator 1)
     7d2:	fe442703          	lw	a4,-28(s0)
     7d6:	0bb00793          	li	a5,187
     7da:	f8e7d1e3          	bge	a5,a4,75c <main+0xec>
C:\Users\windows\Desktop\A_Dual\A_Dual1\Dual-core_Communication_Demo\Dual-core_Communication_Demo\SLAVE\obj/../USER/main.c:144 (discriminator 2)
           for(int i=0;i<MT9V03X_H;i++)
     7de:	fe842783          	lw	a5,-24(s0)
     7e2:	0785                	addi	a5,a5,1
     7e4:	fef42423          	sw	a5,-24(s0)
C:\Users\windows\Desktop\A_Dual\A_Dual1\Dual-core_Communication_Demo\Dual-core_Communication_Demo\SLAVE\obj/../USER/main.c:144 (discriminator 1)
     7e8:	fe842703          	lw	a4,-24(s0)
     7ec:	03100793          	li	a5,49
     7f0:	f6e7d3e3          	bge	a5,a4,756 <main+0xe6>
C:\Users\windows\Desktop\A_Dual\A_Dual1\Dual-core_Communication_Demo\Dual-core_Communication_Demo\SLAVE\obj/../USER/main.c:152
               }
           for(int i=High-1;i>=validLine;i--)//validLine
     7f4:	03100793          	li	a5,49
     7f8:	fef42023          	sw	a5,-32(s0)
     7fc:	a089                	j	83e <__stack_size+0x3e>
C:\Users\windows\Desktop\A_Dual\A_Dual1\Dual-core_Communication_Demo\Dual-core_Communication_Demo\SLAVE\obj/../USER/main.c:153 (discriminator 3)
               post_image[i][Border[CENTRE][i]]=0;
     7fe:	200027b7          	lui	a5,0x20002
     802:	fe042703          	lw	a4,-32(s0)
     806:	03270713          	addi	a4,a4,50
     80a:	0706                	slli	a4,a4,0x1
     80c:	64078793          	addi	a5,a5,1600 # 20002640 <Border>
     810:	97ba                	add	a5,a5,a4
     812:	00079783          	lh	a5,0(a5)
     816:	863e                	mv	a2,a5
     818:	77f9                	lui	a5,0xffffe
     81a:	ff040713          	addi	a4,s0,-16
     81e:	973e                	add	a4,a4,a5
     820:	fe042683          	lw	a3,-32(s0)
     824:	0bc00793          	li	a5,188
     828:	02f687b3          	mul	a5,a3,a5
     82c:	97ba                	add	a5,a5,a4
     82e:	97b2                	add	a5,a5,a2
     830:	b2078a23          	sb	zero,-1228(a5) # ffffdb34 <_eusrstack+0xdfff8b34>
C:\Users\windows\Desktop\A_Dual\A_Dual1\Dual-core_Communication_Demo\Dual-core_Communication_Demo\SLAVE\obj/../USER/main.c:152 (discriminator 3)
           for(int i=High-1;i>=validLine;i--)//validLine
     834:	fe042783          	lw	a5,-32(s0)
     838:	17fd                	addi	a5,a5,-1
     83a:	fef42023          	sw	a5,-32(s0)
C:\Users\windows\Desktop\A_Dual\A_Dual1\Dual-core_Communication_Demo\Dual-core_Communication_Demo\SLAVE\obj/../USER/main.c:152 (discriminator 1)
     83e:	84219783          	lh	a5,-1982(gp) # 2000015a <validLine>
     842:	873e                	mv	a4,a5
     844:	fe042783          	lw	a5,-32(s0)
     848:	fae7dbe3          	bge	a5,a4,7fe <main+0x18e>
C:\Users\windows\Desktop\A_Dual\A_Dual1\Dual-core_Communication_Demo\Dual-core_Communication_Demo\SLAVE\obj/../USER/main.c:154
           ips114_displayimage032(post_image[0],MT9V03X_W,MT9V03X_H);
     84c:	77f9                	lui	a5,0xffffe
     84e:	b3478793          	addi	a5,a5,-1228 # ffffdb34 <_eusrstack+0xdfff8b34>
     852:	ff040713          	addi	a4,s0,-16
     856:	97ba                	add	a5,a5,a4
     858:	03200613          	li	a2,50
     85c:	0bc00593          	li	a1,188
     860:	853e                	mv	a0,a5
     862:	2b0020ef          	jal	ra,2b12 <ips114_displayimage032>
C:\Users\windows\Desktop\A_Dual\A_Dual1\Dual-core_Communication_Demo\Dual-core_Communication_Demo\SLAVE\obj/../USER/main.c:155
           ips114_showint16(0,5,slave_position);
     866:	82419783          	lh	a5,-2012(gp) # 2000013c <slave_position>
     86a:	863e                	mv	a2,a5
     86c:	4595                	li	a1,5
     86e:	4501                	li	a0,0
     870:	12c020ef          	jal	ra,299c <ips114_showint16>
C:\Users\windows\Desktop\A_Dual\A_Dual1\Dual-core_Communication_Demo\Dual-core_Communication_Demo\SLAVE\obj/../USER/main.c:156
           ips114_showuint8(80,5,threshold);
     874:	fde44783          	lbu	a5,-34(s0)
     878:	863e                	mv	a2,a5
     87a:	4595                	li	a1,5
     87c:	05000513          	li	a0,80
     880:	04e020ef          	jal	ra,28ce <ips114_showuint8>
C:\Users\windows\Desktop\A_Dual\A_Dual1\Dual-core_Communication_Demo\Dual-core_Communication_Demo\SLAVE\obj/../USER/main.c:158

           mt9v03x_finish_flag=0;
     884:	820186a3          	sb	zero,-2003(gp) # 20000145 <mt9v03x_finish_flag>
C:\Users\windows\Desktop\A_Dual\A_Dual1\Dual-core_Communication_Demo\Dual-core_Communication_Demo\SLAVE\obj/../USER/main.c:125
        if(mt9v03x_finish_flag==1)
     888:	bda9                	j	6e2 <main+0x72>

0000088a <handle_reset>:
handle_reset():
C:\Users\windows\Desktop\A_Dual\A_Dual1\Dual-core_Communication_Demo\Dual-core_Communication_Demo\SLAVE\obj/../Libraries/wch_libraries/Startup/startup_ch32v10x.S:147
	.weak	handle_reset
	.align	1
handle_reset:
.option push 
.option	norelax 
	la gp, __global_pointer$
     88a:	20000197          	auipc	gp,0x20000
     88e:	08e18193          	addi	gp,gp,142 # 20000918 <__global_pointer$>
C:\Users\windows\Desktop\A_Dual\A_Dual1\Dual-core_Communication_Demo\Dual-core_Communication_Demo\SLAVE\obj/../Libraries/wch_libraries/Startup/startup_ch32v10x.S:150
.option	pop 
1:
	la sp, _eusrstack 
     892:	20004117          	auipc	sp,0x20004
     896:	76e10113          	addi	sp,sp,1902 # 20005000 <_eusrstack>
C:\Users\windows\Desktop\A_Dual\A_Dual1\Dual-core_Communication_Demo\Dual-core_Communication_Demo\SLAVE\obj/../Libraries/wch_libraries/Startup/startup_ch32v10x.S:153
2:
	/* Load data section from flash to RAM */
	la a0, _data_lma
     89a:	00006517          	auipc	a0,0x6
     89e:	a3e50513          	addi	a0,a0,-1474 # 62d8 <_data_lma>
C:\Users\windows\Desktop\A_Dual\A_Dual1\Dual-core_Communication_Demo\Dual-core_Communication_Demo\SLAVE\obj/../Libraries/wch_libraries/Startup/startup_ch32v10x.S:154
	la a1, _data_vma
     8a2:	1ffff597          	auipc	a1,0x1ffff
     8a6:	75e58593          	addi	a1,a1,1886 # 20000000 <_data_vma>
C:\Users\windows\Desktop\A_Dual\A_Dual1\Dual-core_Communication_Demo\Dual-core_Communication_Demo\SLAVE\obj/../Libraries/wch_libraries/Startup/startup_ch32v10x.S:155
	la a2, _edata
     8aa:	82018613          	addi	a2,gp,-2016 # 20000138 <_edata>
C:\Users\windows\Desktop\A_Dual\A_Dual1\Dual-core_Communication_Demo\Dual-core_Communication_Demo\SLAVE\obj/../Libraries/wch_libraries/Startup/startup_ch32v10x.S:156
	bgeu a1, a2, 2f
     8ae:	00c5fa63          	bgeu	a1,a2,8c2 <handle_reset+0x38>
C:\Users\windows\Desktop\A_Dual\A_Dual1\Dual-core_Communication_Demo\Dual-core_Communication_Demo\SLAVE\obj/../Libraries/wch_libraries/Startup/startup_ch32v10x.S:158
1:
	lw t0, (a0)
     8b2:	00052283          	lw	t0,0(a0)
C:\Users\windows\Desktop\A_Dual\A_Dual1\Dual-core_Communication_Demo\Dual-core_Communication_Demo\SLAVE\obj/../Libraries/wch_libraries/Startup/startup_ch32v10x.S:159
	sw t0, (a1)
     8b6:	0055a023          	sw	t0,0(a1)
C:\Users\windows\Desktop\A_Dual\A_Dual1\Dual-core_Communication_Demo\Dual-core_Communication_Demo\SLAVE\obj/../Libraries/wch_libraries/Startup/startup_ch32v10x.S:160
	addi a0, a0, 4
     8ba:	0511                	addi	a0,a0,4
C:\Users\windows\Desktop\A_Dual\A_Dual1\Dual-core_Communication_Demo\Dual-core_Communication_Demo\SLAVE\obj/../Libraries/wch_libraries/Startup/startup_ch32v10x.S:161
	addi a1, a1, 4
     8bc:	0591                	addi	a1,a1,4
C:\Users\windows\Desktop\A_Dual\A_Dual1\Dual-core_Communication_Demo\Dual-core_Communication_Demo\SLAVE\obj/../Libraries/wch_libraries/Startup/startup_ch32v10x.S:162
	bltu a1, a2, 1b
     8be:	fec5eae3          	bltu	a1,a2,8b2 <handle_reset+0x28>
C:\Users\windows\Desktop\A_Dual\A_Dual1\Dual-core_Communication_Demo\Dual-core_Communication_Demo\SLAVE\obj/../Libraries/wch_libraries/Startup/startup_ch32v10x.S:165
2:
	/* clear bss section */
	la a0, _sbss
     8c2:	82018513          	addi	a0,gp,-2016 # 20000138 <_edata>
C:\Users\windows\Desktop\A_Dual\A_Dual1\Dual-core_Communication_Demo\Dual-core_Communication_Demo\SLAVE\obj/../Libraries/wch_libraries/Startup/startup_ch32v10x.S:166
	la a1, _ebss
     8c6:	20002597          	auipc	a1,0x20002
     8ca:	eaa58593          	addi	a1,a1,-342 # 20002770 <_ebss>
C:\Users\windows\Desktop\A_Dual\A_Dual1\Dual-core_Communication_Demo\Dual-core_Communication_Demo\SLAVE\obj/../Libraries/wch_libraries/Startup/startup_ch32v10x.S:167
	bgeu a0, a1, 2f
     8ce:	00b57763          	bgeu	a0,a1,8dc <handle_reset+0x52>
C:\Users\windows\Desktop\A_Dual\A_Dual1\Dual-core_Communication_Demo\Dual-core_Communication_Demo\SLAVE\obj/../Libraries/wch_libraries/Startup/startup_ch32v10x.S:169
1:
	sw zero, (a0)
     8d2:	00052023          	sw	zero,0(a0)
C:\Users\windows\Desktop\A_Dual\A_Dual1\Dual-core_Communication_Demo\Dual-core_Communication_Demo\SLAVE\obj/../Libraries/wch_libraries/Startup/startup_ch32v10x.S:170
	addi a0, a0, 4
     8d6:	0511                	addi	a0,a0,4
C:\Users\windows\Desktop\A_Dual\A_Dual1\Dual-core_Communication_Demo\Dual-core_Communication_Demo\SLAVE\obj/../Libraries/wch_libraries/Startup/startup_ch32v10x.S:171
	bltu a0, a1, 1b
     8d8:	feb56de3          	bltu	a0,a1,8d2 <handle_reset+0x48>
C:\Users\windows\Desktop\A_Dual\A_Dual1\Dual-core_Communication_Demo\Dual-core_Communication_Demo\SLAVE\obj/../Libraries/wch_libraries/Startup/startup_ch32v10x.S:174
2:
	/* enable all interrupt */
  li t0, 0x88
     8dc:	08800293          	li	t0,136
C:\Users\windows\Desktop\A_Dual\A_Dual1\Dual-core_Communication_Demo\Dual-core_Communication_Demo\SLAVE\obj/../Libraries/wch_libraries/Startup/startup_ch32v10x.S:175
  csrs mstatus, t0
     8e0:	3002a073          	csrs	mstatus,t0
C:\Users\windows\Desktop\A_Dual\A_Dual1\Dual-core_Communication_Demo\Dual-core_Communication_Demo\SLAVE\obj/../Libraries/wch_libraries/Startup/startup_ch32v10x.S:176
	la t0, _vector_base
     8e4:	fffff297          	auipc	t0,0xfffff
     8e8:	75428293          	addi	t0,t0,1876 # 38 <_einit>
C:\Users\windows\Desktop\A_Dual\A_Dual1\Dual-core_Communication_Demo\Dual-core_Communication_Demo\SLAVE\obj/../Libraries/wch_libraries/Startup/startup_ch32v10x.S:177
  ori t0, t0, 1
     8ec:	0012e293          	ori	t0,t0,1
C:\Users\windows\Desktop\A_Dual\A_Dual1\Dual-core_Communication_Demo\Dual-core_Communication_Demo\SLAVE\obj/../Libraries/wch_libraries/Startup/startup_ch32v10x.S:178
	csrw mtvec, t0
     8f0:	30529073          	csrw	mtvec,t0
C:\Users\windows\Desktop\A_Dual\A_Dual1\Dual-core_Communication_Demo\Dual-core_Communication_Demo\SLAVE\obj/../Libraries/wch_libraries/Startup/startup_ch32v10x.S:180

  jal  SystemInit
     8f4:	3dd030ef          	jal	ra,44d0 <SystemInit>
C:\Users\windows\Desktop\A_Dual\A_Dual1\Dual-core_Communication_Demo\Dual-core_Communication_Demo\SLAVE\obj/../Libraries/wch_libraries/Startup/startup_ch32v10x.S:181
	la t0, main
     8f8:	00000297          	auipc	t0,0x0
     8fc:	d7828293          	addi	t0,t0,-648 # 670 <main>
C:\Users\windows\Desktop\A_Dual\A_Dual1\Dual-core_Communication_Demo\Dual-core_Communication_Demo\SLAVE\obj/../Libraries/wch_libraries/Startup/startup_ch32v10x.S:182
	csrw mepc, t0
     900:	34129073          	csrw	mepc,t0
C:\Users\windows\Desktop\A_Dual\A_Dual1\Dual-core_Communication_Demo\Dual-core_Communication_Demo\SLAVE\obj/../Libraries/wch_libraries/Startup/startup_ch32v10x.S:183
	mret
     904:	30200073          	mret

00000908 <DMA_DeInit>:
DMA_DeInit():
C:\Users\windows\Desktop\A_Dual\A_Dual1\Dual-core_Communication_Demo\Dual-core_Communication_Demo\SLAVE\obj/../Libraries/wch_libraries/Peripheral/ch32v10x_dma.c:44
*                                1 to 7 for DMA1 and 1 to 5 for DMA2 to select the 
*                                DMA Channel.
* Return         : None
*********************************************************************************/
void DMA_DeInit(DMA_Channel_TypeDef* DMAy_Channelx)
{
     908:	1101                	addi	sp,sp,-32
     90a:	ce22                	sw	s0,28(sp)
     90c:	1000                	addi	s0,sp,32
     90e:	fea42623          	sw	a0,-20(s0)
C:\Users\windows\Desktop\A_Dual\A_Dual1\Dual-core_Communication_Demo\Dual-core_Communication_Demo\SLAVE\obj/../Libraries/wch_libraries/Peripheral/ch32v10x_dma.c:45
  DMAy_Channelx->CFGR &= (uint16_t)(~DMA_CFGR1_EN);  
     912:	fec42783          	lw	a5,-20(s0)
     916:	4398                	lw	a4,0(a5)
     918:	67c1                	lui	a5,0x10
     91a:	17f9                	addi	a5,a5,-2
     91c:	8f7d                	and	a4,a4,a5
     91e:	fec42783          	lw	a5,-20(s0)
     922:	c398                	sw	a4,0(a5)
C:\Users\windows\Desktop\A_Dual\A_Dual1\Dual-core_Communication_Demo\Dual-core_Communication_Demo\SLAVE\obj/../Libraries/wch_libraries/Peripheral/ch32v10x_dma.c:46
  DMAy_Channelx->CFGR  = 0;
     924:	fec42783          	lw	a5,-20(s0)
     928:	0007a023          	sw	zero,0(a5) # 10000 <_data_lma+0x9d28>
C:\Users\windows\Desktop\A_Dual\A_Dual1\Dual-core_Communication_Demo\Dual-core_Communication_Demo\SLAVE\obj/../Libraries/wch_libraries/Peripheral/ch32v10x_dma.c:47
  DMAy_Channelx->CNTR = 0;
     92c:	fec42783          	lw	a5,-20(s0)
     930:	0007a223          	sw	zero,4(a5)
C:\Users\windows\Desktop\A_Dual\A_Dual1\Dual-core_Communication_Demo\Dual-core_Communication_Demo\SLAVE\obj/../Libraries/wch_libraries/Peripheral/ch32v10x_dma.c:48
  DMAy_Channelx->PADDR  = 0;
     934:	fec42783          	lw	a5,-20(s0)
     938:	0007a423          	sw	zero,8(a5)
C:\Users\windows\Desktop\A_Dual\A_Dual1\Dual-core_Communication_Demo\Dual-core_Communication_Demo\SLAVE\obj/../Libraries/wch_libraries/Peripheral/ch32v10x_dma.c:49
  DMAy_Channelx->MADDR = 0;  
     93c:	fec42783          	lw	a5,-20(s0)
     940:	0007a623          	sw	zero,12(a5)
C:\Users\windows\Desktop\A_Dual\A_Dual1\Dual-core_Communication_Demo\Dual-core_Communication_Demo\SLAVE\obj/../Libraries/wch_libraries/Peripheral/ch32v10x_dma.c:50
  if (DMAy_Channelx == DMA1_Channel1)
     944:	fec42703          	lw	a4,-20(s0)
     948:	400207b7          	lui	a5,0x40020
     94c:	07a1                	addi	a5,a5,8
     94e:	00f71b63          	bne	a4,a5,964 <DMA_DeInit+0x5c>
C:\Users\windows\Desktop\A_Dual\A_Dual1\Dual-core_Communication_Demo\Dual-core_Communication_Demo\SLAVE\obj/../Libraries/wch_libraries/Peripheral/ch32v10x_dma.c:52
  {
    DMA1->INTFCR |= DMA1_Channel1_IT_Mask;
     952:	400207b7          	lui	a5,0x40020
     956:	43d8                	lw	a4,4(a5)
     958:	400207b7          	lui	a5,0x40020
     95c:	00f76713          	ori	a4,a4,15
     960:	c3d8                	sw	a4,4(a5)
C:\Users\windows\Desktop\A_Dual\A_Dual1\Dual-core_Communication_Demo\Dual-core_Communication_Demo\SLAVE\obj/../Libraries/wch_libraries/Peripheral/ch32v10x_dma.c:101
    if (DMAy_Channelx == DMA2_Channel5)
    {
      DMA2->INTFCR |= DMA2_Channel5_IT_Mask;
    }
  }
}
     962:	a275                	j	b0e <DMA_DeInit+0x206>
C:\Users\windows\Desktop\A_Dual\A_Dual1\Dual-core_Communication_Demo\Dual-core_Communication_Demo\SLAVE\obj/../Libraries/wch_libraries/Peripheral/ch32v10x_dma.c:54
  else if (DMAy_Channelx == DMA1_Channel2)
     964:	fec42703          	lw	a4,-20(s0)
     968:	400207b7          	lui	a5,0x40020
     96c:	07f1                	addi	a5,a5,28
     96e:	00f71b63          	bne	a4,a5,984 <DMA_DeInit+0x7c>
C:\Users\windows\Desktop\A_Dual\A_Dual1\Dual-core_Communication_Demo\Dual-core_Communication_Demo\SLAVE\obj/../Libraries/wch_libraries/Peripheral/ch32v10x_dma.c:56
    DMA1->INTFCR |= DMA1_Channel2_IT_Mask;
     972:	400207b7          	lui	a5,0x40020
     976:	43d8                	lw	a4,4(a5)
     978:	400207b7          	lui	a5,0x40020
     97c:	0f076713          	ori	a4,a4,240
     980:	c3d8                	sw	a4,4(a5)
C:\Users\windows\Desktop\A_Dual\A_Dual1\Dual-core_Communication_Demo\Dual-core_Communication_Demo\SLAVE\obj/../Libraries/wch_libraries/Peripheral/ch32v10x_dma.c:101
}
     982:	a271                	j	b0e <DMA_DeInit+0x206>
C:\Users\windows\Desktop\A_Dual\A_Dual1\Dual-core_Communication_Demo\Dual-core_Communication_Demo\SLAVE\obj/../Libraries/wch_libraries/Peripheral/ch32v10x_dma.c:58
  else if (DMAy_Channelx == DMA1_Channel3)
     984:	fec42703          	lw	a4,-20(s0)
     988:	400207b7          	lui	a5,0x40020
     98c:	03078793          	addi	a5,a5,48 # 40020030 <_eusrstack+0x2001b030>
     990:	00f71d63          	bne	a4,a5,9aa <DMA_DeInit+0xa2>
C:\Users\windows\Desktop\A_Dual\A_Dual1\Dual-core_Communication_Demo\Dual-core_Communication_Demo\SLAVE\obj/../Libraries/wch_libraries/Peripheral/ch32v10x_dma.c:60
    DMA1->INTFCR |= DMA1_Channel3_IT_Mask;
     994:	400207b7          	lui	a5,0x40020
     998:	43d4                	lw	a3,4(a5)
     99a:	400207b7          	lui	a5,0x40020
     99e:	6705                	lui	a4,0x1
     9a0:	f0070713          	addi	a4,a4,-256 # f00 <GPIO_Init+0x3e>
     9a4:	8f55                	or	a4,a4,a3
     9a6:	c3d8                	sw	a4,4(a5)
C:\Users\windows\Desktop\A_Dual\A_Dual1\Dual-core_Communication_Demo\Dual-core_Communication_Demo\SLAVE\obj/../Libraries/wch_libraries/Peripheral/ch32v10x_dma.c:101
}
     9a8:	a29d                	j	b0e <DMA_DeInit+0x206>
C:\Users\windows\Desktop\A_Dual\A_Dual1\Dual-core_Communication_Demo\Dual-core_Communication_Demo\SLAVE\obj/../Libraries/wch_libraries/Peripheral/ch32v10x_dma.c:62
  else if (DMAy_Channelx == DMA1_Channel4)
     9aa:	fec42703          	lw	a4,-20(s0)
     9ae:	400207b7          	lui	a5,0x40020
     9b2:	04478793          	addi	a5,a5,68 # 40020044 <_eusrstack+0x2001b044>
     9b6:	00f71b63          	bne	a4,a5,9cc <DMA_DeInit+0xc4>
C:\Users\windows\Desktop\A_Dual\A_Dual1\Dual-core_Communication_Demo\Dual-core_Communication_Demo\SLAVE\obj/../Libraries/wch_libraries/Peripheral/ch32v10x_dma.c:64
    DMA1->INTFCR |= DMA1_Channel4_IT_Mask;
     9ba:	400207b7          	lui	a5,0x40020
     9be:	43d4                	lw	a3,4(a5)
     9c0:	400207b7          	lui	a5,0x40020
     9c4:	673d                	lui	a4,0xf
     9c6:	8f55                	or	a4,a4,a3
     9c8:	c3d8                	sw	a4,4(a5)
C:\Users\windows\Desktop\A_Dual\A_Dual1\Dual-core_Communication_Demo\Dual-core_Communication_Demo\SLAVE\obj/../Libraries/wch_libraries/Peripheral/ch32v10x_dma.c:101
}
     9ca:	a291                	j	b0e <DMA_DeInit+0x206>
C:\Users\windows\Desktop\A_Dual\A_Dual1\Dual-core_Communication_Demo\Dual-core_Communication_Demo\SLAVE\obj/../Libraries/wch_libraries/Peripheral/ch32v10x_dma.c:66
  else if (DMAy_Channelx == DMA1_Channel5)
     9cc:	fec42703          	lw	a4,-20(s0)
     9d0:	400207b7          	lui	a5,0x40020
     9d4:	05878793          	addi	a5,a5,88 # 40020058 <_eusrstack+0x2001b058>
     9d8:	00f71c63          	bne	a4,a5,9f0 <DMA_DeInit+0xe8>
C:\Users\windows\Desktop\A_Dual\A_Dual1\Dual-core_Communication_Demo\Dual-core_Communication_Demo\SLAVE\obj/../Libraries/wch_libraries/Peripheral/ch32v10x_dma.c:68
    DMA1->INTFCR |= DMA1_Channel5_IT_Mask;
     9dc:	400207b7          	lui	a5,0x40020
     9e0:	43d4                	lw	a3,4(a5)
     9e2:	400207b7          	lui	a5,0x40020
     9e6:	000f0737          	lui	a4,0xf0
     9ea:	8f55                	or	a4,a4,a3
     9ec:	c3d8                	sw	a4,4(a5)
C:\Users\windows\Desktop\A_Dual\A_Dual1\Dual-core_Communication_Demo\Dual-core_Communication_Demo\SLAVE\obj/../Libraries/wch_libraries/Peripheral/ch32v10x_dma.c:101
}
     9ee:	a205                	j	b0e <DMA_DeInit+0x206>
C:\Users\windows\Desktop\A_Dual\A_Dual1\Dual-core_Communication_Demo\Dual-core_Communication_Demo\SLAVE\obj/../Libraries/wch_libraries/Peripheral/ch32v10x_dma.c:70
  else if (DMAy_Channelx == DMA1_Channel6)
     9f0:	fec42703          	lw	a4,-20(s0)
     9f4:	400207b7          	lui	a5,0x40020
     9f8:	06c78793          	addi	a5,a5,108 # 4002006c <_eusrstack+0x2001b06c>
     9fc:	00f71c63          	bne	a4,a5,a14 <DMA_DeInit+0x10c>
C:\Users\windows\Desktop\A_Dual\A_Dual1\Dual-core_Communication_Demo\Dual-core_Communication_Demo\SLAVE\obj/../Libraries/wch_libraries/Peripheral/ch32v10x_dma.c:72
    DMA1->INTFCR |= DMA1_Channel6_IT_Mask;
     a00:	400207b7          	lui	a5,0x40020
     a04:	43d4                	lw	a3,4(a5)
     a06:	400207b7          	lui	a5,0x40020
     a0a:	00f00737          	lui	a4,0xf00
     a0e:	8f55                	or	a4,a4,a3
     a10:	c3d8                	sw	a4,4(a5)
C:\Users\windows\Desktop\A_Dual\A_Dual1\Dual-core_Communication_Demo\Dual-core_Communication_Demo\SLAVE\obj/../Libraries/wch_libraries/Peripheral/ch32v10x_dma.c:101
}
     a12:	a8f5                	j	b0e <DMA_DeInit+0x206>
C:\Users\windows\Desktop\A_Dual\A_Dual1\Dual-core_Communication_Demo\Dual-core_Communication_Demo\SLAVE\obj/../Libraries/wch_libraries/Peripheral/ch32v10x_dma.c:74
  else if (DMAy_Channelx == DMA1_Channel7)
     a14:	fec42703          	lw	a4,-20(s0)
     a18:	400207b7          	lui	a5,0x40020
     a1c:	08078793          	addi	a5,a5,128 # 40020080 <_eusrstack+0x2001b080>
     a20:	00f71c63          	bne	a4,a5,a38 <DMA_DeInit+0x130>
C:\Users\windows\Desktop\A_Dual\A_Dual1\Dual-core_Communication_Demo\Dual-core_Communication_Demo\SLAVE\obj/../Libraries/wch_libraries/Peripheral/ch32v10x_dma.c:76
    DMA1->INTFCR |= DMA1_Channel7_IT_Mask;
     a24:	400207b7          	lui	a5,0x40020
     a28:	43d4                	lw	a3,4(a5)
     a2a:	400207b7          	lui	a5,0x40020
     a2e:	0f000737          	lui	a4,0xf000
     a32:	8f55                	or	a4,a4,a3
     a34:	c3d8                	sw	a4,4(a5)
C:\Users\windows\Desktop\A_Dual\A_Dual1\Dual-core_Communication_Demo\Dual-core_Communication_Demo\SLAVE\obj/../Libraries/wch_libraries/Peripheral/ch32v10x_dma.c:101
}
     a36:	a8e1                	j	b0e <DMA_DeInit+0x206>
C:\Users\windows\Desktop\A_Dual\A_Dual1\Dual-core_Communication_Demo\Dual-core_Communication_Demo\SLAVE\obj/../Libraries/wch_libraries/Peripheral/ch32v10x_dma.c:78
  else if (DMAy_Channelx == DMA2_Channel1)
     a38:	fec42703          	lw	a4,-20(s0)
     a3c:	400207b7          	lui	a5,0x40020
     a40:	40878793          	addi	a5,a5,1032 # 40020408 <_eusrstack+0x2001b408>
     a44:	00f71f63          	bne	a4,a5,a62 <DMA_DeInit+0x15a>
C:\Users\windows\Desktop\A_Dual\A_Dual1\Dual-core_Communication_Demo\Dual-core_Communication_Demo\SLAVE\obj/../Libraries/wch_libraries/Peripheral/ch32v10x_dma.c:80
    DMA2->INTFCR |= DMA2_Channel1_IT_Mask;
     a48:	400207b7          	lui	a5,0x40020
     a4c:	40078793          	addi	a5,a5,1024 # 40020400 <_eusrstack+0x2001b400>
     a50:	43d8                	lw	a4,4(a5)
     a52:	400207b7          	lui	a5,0x40020
     a56:	40078793          	addi	a5,a5,1024 # 40020400 <_eusrstack+0x2001b400>
     a5a:	00f76713          	ori	a4,a4,15
     a5e:	c3d8                	sw	a4,4(a5)
C:\Users\windows\Desktop\A_Dual\A_Dual1\Dual-core_Communication_Demo\Dual-core_Communication_Demo\SLAVE\obj/../Libraries/wch_libraries/Peripheral/ch32v10x_dma.c:101
}
     a60:	a07d                	j	b0e <DMA_DeInit+0x206>
C:\Users\windows\Desktop\A_Dual\A_Dual1\Dual-core_Communication_Demo\Dual-core_Communication_Demo\SLAVE\obj/../Libraries/wch_libraries/Peripheral/ch32v10x_dma.c:82
  else if (DMAy_Channelx == DMA2_Channel2)
     a62:	fec42703          	lw	a4,-20(s0)
     a66:	400207b7          	lui	a5,0x40020
     a6a:	41c78793          	addi	a5,a5,1052 # 4002041c <_eusrstack+0x2001b41c>
     a6e:	00f71f63          	bne	a4,a5,a8c <DMA_DeInit+0x184>
C:\Users\windows\Desktop\A_Dual\A_Dual1\Dual-core_Communication_Demo\Dual-core_Communication_Demo\SLAVE\obj/../Libraries/wch_libraries/Peripheral/ch32v10x_dma.c:84
    DMA2->INTFCR |= DMA2_Channel2_IT_Mask;
     a72:	400207b7          	lui	a5,0x40020
     a76:	40078793          	addi	a5,a5,1024 # 40020400 <_eusrstack+0x2001b400>
     a7a:	43d8                	lw	a4,4(a5)
     a7c:	400207b7          	lui	a5,0x40020
     a80:	40078793          	addi	a5,a5,1024 # 40020400 <_eusrstack+0x2001b400>
     a84:	0f076713          	ori	a4,a4,240
     a88:	c3d8                	sw	a4,4(a5)
C:\Users\windows\Desktop\A_Dual\A_Dual1\Dual-core_Communication_Demo\Dual-core_Communication_Demo\SLAVE\obj/../Libraries/wch_libraries/Peripheral/ch32v10x_dma.c:101
}
     a8a:	a051                	j	b0e <DMA_DeInit+0x206>
C:\Users\windows\Desktop\A_Dual\A_Dual1\Dual-core_Communication_Demo\Dual-core_Communication_Demo\SLAVE\obj/../Libraries/wch_libraries/Peripheral/ch32v10x_dma.c:86
  else if (DMAy_Channelx == DMA2_Channel3)
     a8c:	fec42703          	lw	a4,-20(s0)
     a90:	400207b7          	lui	a5,0x40020
     a94:	43078793          	addi	a5,a5,1072 # 40020430 <_eusrstack+0x2001b430>
     a98:	02f71163          	bne	a4,a5,aba <DMA_DeInit+0x1b2>
C:\Users\windows\Desktop\A_Dual\A_Dual1\Dual-core_Communication_Demo\Dual-core_Communication_Demo\SLAVE\obj/../Libraries/wch_libraries/Peripheral/ch32v10x_dma.c:88
    DMA2->INTFCR |= DMA2_Channel3_IT_Mask;
     a9c:	400207b7          	lui	a5,0x40020
     aa0:	40078793          	addi	a5,a5,1024 # 40020400 <_eusrstack+0x2001b400>
     aa4:	43d4                	lw	a3,4(a5)
     aa6:	400207b7          	lui	a5,0x40020
     aaa:	40078793          	addi	a5,a5,1024 # 40020400 <_eusrstack+0x2001b400>
     aae:	6705                	lui	a4,0x1
     ab0:	f0070713          	addi	a4,a4,-256 # f00 <GPIO_Init+0x3e>
     ab4:	8f55                	or	a4,a4,a3
     ab6:	c3d8                	sw	a4,4(a5)
C:\Users\windows\Desktop\A_Dual\A_Dual1\Dual-core_Communication_Demo\Dual-core_Communication_Demo\SLAVE\obj/../Libraries/wch_libraries/Peripheral/ch32v10x_dma.c:101
}
     ab8:	a899                	j	b0e <DMA_DeInit+0x206>
C:\Users\windows\Desktop\A_Dual\A_Dual1\Dual-core_Communication_Demo\Dual-core_Communication_Demo\SLAVE\obj/../Libraries/wch_libraries/Peripheral/ch32v10x_dma.c:90
  else if (DMAy_Channelx == DMA2_Channel4)
     aba:	fec42703          	lw	a4,-20(s0)
     abe:	400207b7          	lui	a5,0x40020
     ac2:	44478793          	addi	a5,a5,1092 # 40020444 <_eusrstack+0x2001b444>
     ac6:	00f71f63          	bne	a4,a5,ae4 <DMA_DeInit+0x1dc>
C:\Users\windows\Desktop\A_Dual\A_Dual1\Dual-core_Communication_Demo\Dual-core_Communication_Demo\SLAVE\obj/../Libraries/wch_libraries/Peripheral/ch32v10x_dma.c:92
    DMA2->INTFCR |= DMA2_Channel4_IT_Mask;
     aca:	400207b7          	lui	a5,0x40020
     ace:	40078793          	addi	a5,a5,1024 # 40020400 <_eusrstack+0x2001b400>
     ad2:	43d4                	lw	a3,4(a5)
     ad4:	400207b7          	lui	a5,0x40020
     ad8:	40078793          	addi	a5,a5,1024 # 40020400 <_eusrstack+0x2001b400>
     adc:	673d                	lui	a4,0xf
     ade:	8f55                	or	a4,a4,a3
     ae0:	c3d8                	sw	a4,4(a5)
C:\Users\windows\Desktop\A_Dual\A_Dual1\Dual-core_Communication_Demo\Dual-core_Communication_Demo\SLAVE\obj/../Libraries/wch_libraries/Peripheral/ch32v10x_dma.c:101
}
     ae2:	a035                	j	b0e <DMA_DeInit+0x206>
C:\Users\windows\Desktop\A_Dual\A_Dual1\Dual-core_Communication_Demo\Dual-core_Communication_Demo\SLAVE\obj/../Libraries/wch_libraries/Peripheral/ch32v10x_dma.c:96
    if (DMAy_Channelx == DMA2_Channel5)
     ae4:	fec42703          	lw	a4,-20(s0)
     ae8:	400207b7          	lui	a5,0x40020
     aec:	45878793          	addi	a5,a5,1112 # 40020458 <_eusrstack+0x2001b458>
     af0:	00f71f63          	bne	a4,a5,b0e <DMA_DeInit+0x206>
C:\Users\windows\Desktop\A_Dual\A_Dual1\Dual-core_Communication_Demo\Dual-core_Communication_Demo\SLAVE\obj/../Libraries/wch_libraries/Peripheral/ch32v10x_dma.c:98
      DMA2->INTFCR |= DMA2_Channel5_IT_Mask;
     af4:	400207b7          	lui	a5,0x40020
     af8:	40078793          	addi	a5,a5,1024 # 40020400 <_eusrstack+0x2001b400>
     afc:	43d4                	lw	a3,4(a5)
     afe:	400207b7          	lui	a5,0x40020
     b02:	40078793          	addi	a5,a5,1024 # 40020400 <_eusrstack+0x2001b400>
     b06:	000f0737          	lui	a4,0xf0
     b0a:	8f55                	or	a4,a4,a3
     b0c:	c3d8                	sw	a4,4(a5)
C:\Users\windows\Desktop\A_Dual\A_Dual1\Dual-core_Communication_Demo\Dual-core_Communication_Demo\SLAVE\obj/../Libraries/wch_libraries/Peripheral/ch32v10x_dma.c:101
}
     b0e:	0001                	nop
     b10:	4472                	lw	s0,28(sp)
     b12:	6105                	addi	sp,sp,32
     b14:	8082                	ret

00000b16 <DMA_Init>:
DMA_Init():
C:\Users\windows\Desktop\A_Dual\A_Dual1\Dual-core_Communication_Demo\Dual-core_Communication_Demo\SLAVE\obj/../Libraries/wch_libraries/Peripheral/ch32v10x_dma.c:117
*                                 contains the configuration information for the
*                                 specified DMA Channel.
* Return         : None
*********************************************************************************/
void DMA_Init(DMA_Channel_TypeDef* DMAy_Channelx, DMA_InitTypeDef* DMA_InitStruct)
{
     b16:	7179                	addi	sp,sp,-48
     b18:	d622                	sw	s0,44(sp)
     b1a:	1800                	addi	s0,sp,48
     b1c:	fca42e23          	sw	a0,-36(s0)
     b20:	fcb42c23          	sw	a1,-40(s0)
C:\Users\windows\Desktop\A_Dual\A_Dual1\Dual-core_Communication_Demo\Dual-core_Communication_Demo\SLAVE\obj/../Libraries/wch_libraries/Peripheral/ch32v10x_dma.c:118
  uint32_t tmpreg = 0;
     b24:	fe042623          	sw	zero,-20(s0)
C:\Users\windows\Desktop\A_Dual\A_Dual1\Dual-core_Communication_Demo\Dual-core_Communication_Demo\SLAVE\obj/../Libraries/wch_libraries/Peripheral/ch32v10x_dma.c:120

  tmpreg = DMAy_Channelx->CFGR;
     b28:	fdc42783          	lw	a5,-36(s0)
     b2c:	439c                	lw	a5,0(a5)
     b2e:	fef42623          	sw	a5,-20(s0)
C:\Users\windows\Desktop\A_Dual\A_Dual1\Dual-core_Communication_Demo\Dual-core_Communication_Demo\SLAVE\obj/../Libraries/wch_libraries/Peripheral/ch32v10x_dma.c:121
  tmpreg &= CFGR_CLEAR_Mask;
     b32:	fec42703          	lw	a4,-20(s0)
     b36:	77e1                	lui	a5,0xffff8
     b38:	07bd                	addi	a5,a5,15
     b3a:	8ff9                	and	a5,a5,a4
     b3c:	fef42623          	sw	a5,-20(s0)
C:\Users\windows\Desktop\A_Dual\A_Dual1\Dual-core_Communication_Demo\Dual-core_Communication_Demo\SLAVE\obj/../Libraries/wch_libraries/Peripheral/ch32v10x_dma.c:122
  tmpreg |= DMA_InitStruct->DMA_DIR | DMA_InitStruct->DMA_Mode |
     b40:	fd842783          	lw	a5,-40(s0)
     b44:	4798                	lw	a4,8(a5)
     b46:	fd842783          	lw	a5,-40(s0)
     b4a:	539c                	lw	a5,32(a5)
     b4c:	8f5d                	or	a4,a4,a5
C:\Users\windows\Desktop\A_Dual\A_Dual1\Dual-core_Communication_Demo\Dual-core_Communication_Demo\SLAVE\obj/../Libraries/wch_libraries/Peripheral/ch32v10x_dma.c:123
            DMA_InitStruct->DMA_PeripheralInc | DMA_InitStruct->DMA_MemoryInc |
     b4e:	fd842783          	lw	a5,-40(s0)
     b52:	4b9c                	lw	a5,16(a5)
C:\Users\windows\Desktop\A_Dual\A_Dual1\Dual-core_Communication_Demo\Dual-core_Communication_Demo\SLAVE\obj/../Libraries/wch_libraries/Peripheral/ch32v10x_dma.c:122
  tmpreg |= DMA_InitStruct->DMA_DIR | DMA_InitStruct->DMA_Mode |
     b54:	8f5d                	or	a4,a4,a5
C:\Users\windows\Desktop\A_Dual\A_Dual1\Dual-core_Communication_Demo\Dual-core_Communication_Demo\SLAVE\obj/../Libraries/wch_libraries/Peripheral/ch32v10x_dma.c:123
            DMA_InitStruct->DMA_PeripheralInc | DMA_InitStruct->DMA_MemoryInc |
     b56:	fd842783          	lw	a5,-40(s0)
     b5a:	4bdc                	lw	a5,20(a5)
     b5c:	8f5d                	or	a4,a4,a5
C:\Users\windows\Desktop\A_Dual\A_Dual1\Dual-core_Communication_Demo\Dual-core_Communication_Demo\SLAVE\obj/../Libraries/wch_libraries/Peripheral/ch32v10x_dma.c:124
            DMA_InitStruct->DMA_PeripheralDataSize | DMA_InitStruct->DMA_MemoryDataSize |
     b5e:	fd842783          	lw	a5,-40(s0)
     b62:	4f9c                	lw	a5,24(a5)
C:\Users\windows\Desktop\A_Dual\A_Dual1\Dual-core_Communication_Demo\Dual-core_Communication_Demo\SLAVE\obj/../Libraries/wch_libraries/Peripheral/ch32v10x_dma.c:123
            DMA_InitStruct->DMA_PeripheralInc | DMA_InitStruct->DMA_MemoryInc |
     b64:	8f5d                	or	a4,a4,a5
C:\Users\windows\Desktop\A_Dual\A_Dual1\Dual-core_Communication_Demo\Dual-core_Communication_Demo\SLAVE\obj/../Libraries/wch_libraries/Peripheral/ch32v10x_dma.c:124
            DMA_InitStruct->DMA_PeripheralDataSize | DMA_InitStruct->DMA_MemoryDataSize |
     b66:	fd842783          	lw	a5,-40(s0)
     b6a:	4fdc                	lw	a5,28(a5)
     b6c:	8f5d                	or	a4,a4,a5
C:\Users\windows\Desktop\A_Dual\A_Dual1\Dual-core_Communication_Demo\Dual-core_Communication_Demo\SLAVE\obj/../Libraries/wch_libraries/Peripheral/ch32v10x_dma.c:125
            DMA_InitStruct->DMA_Priority | DMA_InitStruct->DMA_M2M;
     b6e:	fd842783          	lw	a5,-40(s0)
     b72:	53dc                	lw	a5,36(a5)
C:\Users\windows\Desktop\A_Dual\A_Dual1\Dual-core_Communication_Demo\Dual-core_Communication_Demo\SLAVE\obj/../Libraries/wch_libraries/Peripheral/ch32v10x_dma.c:124
            DMA_InitStruct->DMA_PeripheralDataSize | DMA_InitStruct->DMA_MemoryDataSize |
     b74:	8f5d                	or	a4,a4,a5
C:\Users\windows\Desktop\A_Dual\A_Dual1\Dual-core_Communication_Demo\Dual-core_Communication_Demo\SLAVE\obj/../Libraries/wch_libraries/Peripheral/ch32v10x_dma.c:125
            DMA_InitStruct->DMA_Priority | DMA_InitStruct->DMA_M2M;
     b76:	fd842783          	lw	a5,-40(s0)
     b7a:	579c                	lw	a5,40(a5)
     b7c:	8fd9                	or	a5,a5,a4
C:\Users\windows\Desktop\A_Dual\A_Dual1\Dual-core_Communication_Demo\Dual-core_Communication_Demo\SLAVE\obj/../Libraries/wch_libraries/Peripheral/ch32v10x_dma.c:122
  tmpreg |= DMA_InitStruct->DMA_DIR | DMA_InitStruct->DMA_Mode |
     b7e:	fec42703          	lw	a4,-20(s0)
     b82:	8fd9                	or	a5,a5,a4
     b84:	fef42623          	sw	a5,-20(s0)
C:\Users\windows\Desktop\A_Dual\A_Dual1\Dual-core_Communication_Demo\Dual-core_Communication_Demo\SLAVE\obj/../Libraries/wch_libraries/Peripheral/ch32v10x_dma.c:127

  DMAy_Channelx->CFGR = tmpreg;
     b88:	fdc42783          	lw	a5,-36(s0)
     b8c:	fec42703          	lw	a4,-20(s0)
     b90:	c398                	sw	a4,0(a5)
C:\Users\windows\Desktop\A_Dual\A_Dual1\Dual-core_Communication_Demo\Dual-core_Communication_Demo\SLAVE\obj/../Libraries/wch_libraries/Peripheral/ch32v10x_dma.c:128
  DMAy_Channelx->CNTR = DMA_InitStruct->DMA_BufferSize;
     b92:	fd842783          	lw	a5,-40(s0)
     b96:	47d8                	lw	a4,12(a5)
     b98:	fdc42783          	lw	a5,-36(s0)
     b9c:	c3d8                	sw	a4,4(a5)
C:\Users\windows\Desktop\A_Dual\A_Dual1\Dual-core_Communication_Demo\Dual-core_Communication_Demo\SLAVE\obj/../Libraries/wch_libraries/Peripheral/ch32v10x_dma.c:129
  DMAy_Channelx->PADDR = DMA_InitStruct->DMA_PeripheralBaseAddr;
     b9e:	fd842783          	lw	a5,-40(s0)
     ba2:	4398                	lw	a4,0(a5)
     ba4:	fdc42783          	lw	a5,-36(s0)
     ba8:	c798                	sw	a4,8(a5)
C:\Users\windows\Desktop\A_Dual\A_Dual1\Dual-core_Communication_Demo\Dual-core_Communication_Demo\SLAVE\obj/../Libraries/wch_libraries/Peripheral/ch32v10x_dma.c:130
  DMAy_Channelx->MADDR = DMA_InitStruct->DMA_MemoryBaseAddr;
     baa:	fd842783          	lw	a5,-40(s0)
     bae:	43d8                	lw	a4,4(a5)
     bb0:	fdc42783          	lw	a5,-36(s0)
     bb4:	c7d8                	sw	a4,12(a5)
C:\Users\windows\Desktop\A_Dual\A_Dual1\Dual-core_Communication_Demo\Dual-core_Communication_Demo\SLAVE\obj/../Libraries/wch_libraries/Peripheral/ch32v10x_dma.c:131
}
     bb6:	0001                	nop
     bb8:	5432                	lw	s0,44(sp)
     bba:	6145                	addi	sp,sp,48
     bbc:	8082                	ret

00000bbe <DMA_Cmd>:
DMA_Cmd():
C:\Users\windows\Desktop\A_Dual\A_Dual1\Dual-core_Communication_Demo\Dual-core_Communication_Demo\SLAVE\obj/../Libraries/wch_libraries/Peripheral/ch32v10x_dma.c:168
*                                 the DMA Channel.
*                  NewState     : new state of the DMAy Channelx(ENABLE or DISABLE).
* Return         : None
*********************************************************************************/
void DMA_Cmd(DMA_Channel_TypeDef* DMAy_Channelx, FunctionalState NewState)
{
     bbe:	1101                	addi	sp,sp,-32
     bc0:	ce22                	sw	s0,28(sp)
     bc2:	1000                	addi	s0,sp,32
     bc4:	fea42623          	sw	a0,-20(s0)
     bc8:	feb42423          	sw	a1,-24(s0)
C:\Users\windows\Desktop\A_Dual\A_Dual1\Dual-core_Communication_Demo\Dual-core_Communication_Demo\SLAVE\obj/../Libraries/wch_libraries/Peripheral/ch32v10x_dma.c:169
  if (NewState != DISABLE)
     bcc:	fe842783          	lw	a5,-24(s0)
     bd0:	cb91                	beqz	a5,be4 <DMA_Cmd+0x26>
C:\Users\windows\Desktop\A_Dual\A_Dual1\Dual-core_Communication_Demo\Dual-core_Communication_Demo\SLAVE\obj/../Libraries/wch_libraries/Peripheral/ch32v10x_dma.c:171
  {
    DMAy_Channelx->CFGR |= DMA_CFGR1_EN;
     bd2:	fec42783          	lw	a5,-20(s0)
     bd6:	439c                	lw	a5,0(a5)
     bd8:	0017e713          	ori	a4,a5,1
     bdc:	fec42783          	lw	a5,-20(s0)
     be0:	c398                	sw	a4,0(a5)
C:\Users\windows\Desktop\A_Dual\A_Dual1\Dual-core_Communication_Demo\Dual-core_Communication_Demo\SLAVE\obj/../Libraries/wch_libraries/Peripheral/ch32v10x_dma.c:177
  }
  else
  {
    DMAy_Channelx->CFGR &= (uint16_t)(~DMA_CFGR1_EN);
  }
}
     be2:	a811                	j	bf6 <DMA_Cmd+0x38>
C:\Users\windows\Desktop\A_Dual\A_Dual1\Dual-core_Communication_Demo\Dual-core_Communication_Demo\SLAVE\obj/../Libraries/wch_libraries/Peripheral/ch32v10x_dma.c:175
    DMAy_Channelx->CFGR &= (uint16_t)(~DMA_CFGR1_EN);
     be4:	fec42783          	lw	a5,-20(s0)
     be8:	4398                	lw	a4,0(a5)
     bea:	67c1                	lui	a5,0x10
     bec:	17f9                	addi	a5,a5,-2
     bee:	8f7d                	and	a4,a4,a5
     bf0:	fec42783          	lw	a5,-20(s0)
     bf4:	c398                	sw	a4,0(a5)
C:\Users\windows\Desktop\A_Dual\A_Dual1\Dual-core_Communication_Demo\Dual-core_Communication_Demo\SLAVE\obj/../Libraries/wch_libraries/Peripheral/ch32v10x_dma.c:177
}
     bf6:	0001                	nop
     bf8:	4472                	lw	s0,28(sp)
     bfa:	6105                	addi	sp,sp,32
     bfc:	8082                	ret

00000bfe <DMA_ITConfig>:
DMA_ITConfig():
C:\Users\windows\Desktop\A_Dual\A_Dual1\Dual-core_Communication_Demo\Dual-core_Communication_Demo\SLAVE\obj/../Libraries/wch_libraries/Peripheral/ch32v10x_dma.c:194
*                     DMA_IT_TE :  Transfer error interrupt mask
*                  NewState     : new state of the DMAy Channelx(ENABLE or DISABLE).
* Return         : None
*********************************************************************************/
void DMA_ITConfig(DMA_Channel_TypeDef* DMAy_Channelx, uint32_t DMA_IT, FunctionalState NewState)
{
     bfe:	1101                	addi	sp,sp,-32
     c00:	ce22                	sw	s0,28(sp)
     c02:	1000                	addi	s0,sp,32
     c04:	fea42623          	sw	a0,-20(s0)
     c08:	feb42423          	sw	a1,-24(s0)
     c0c:	fec42223          	sw	a2,-28(s0)
C:\Users\windows\Desktop\A_Dual\A_Dual1\Dual-core_Communication_Demo\Dual-core_Communication_Demo\SLAVE\obj/../Libraries/wch_libraries/Peripheral/ch32v10x_dma.c:195
  if (NewState != DISABLE)
     c10:	fe442783          	lw	a5,-28(s0)
     c14:	cb99                	beqz	a5,c2a <DMA_ITConfig+0x2c>
C:\Users\windows\Desktop\A_Dual\A_Dual1\Dual-core_Communication_Demo\Dual-core_Communication_Demo\SLAVE\obj/../Libraries/wch_libraries/Peripheral/ch32v10x_dma.c:197
  {
    DMAy_Channelx->CFGR |= DMA_IT;
     c16:	fec42783          	lw	a5,-20(s0)
     c1a:	4398                	lw	a4,0(a5)
     c1c:	fe842783          	lw	a5,-24(s0)
     c20:	8f5d                	or	a4,a4,a5
     c22:	fec42783          	lw	a5,-20(s0)
     c26:	c398                	sw	a4,0(a5)
C:\Users\windows\Desktop\A_Dual\A_Dual1\Dual-core_Communication_Demo\Dual-core_Communication_Demo\SLAVE\obj/../Libraries/wch_libraries/Peripheral/ch32v10x_dma.c:203
  }
  else
  {
    DMAy_Channelx->CFGR &= ~DMA_IT;
  }
}
     c28:	a821                	j	c40 <DMA_ITConfig+0x42>
C:\Users\windows\Desktop\A_Dual\A_Dual1\Dual-core_Communication_Demo\Dual-core_Communication_Demo\SLAVE\obj/../Libraries/wch_libraries/Peripheral/ch32v10x_dma.c:201
    DMAy_Channelx->CFGR &= ~DMA_IT;
     c2a:	fec42783          	lw	a5,-20(s0)
     c2e:	4398                	lw	a4,0(a5)
     c30:	fe842783          	lw	a5,-24(s0)
     c34:	fff7c793          	not	a5,a5
     c38:	8f7d                	and	a4,a4,a5
     c3a:	fec42783          	lw	a5,-20(s0)
     c3e:	c398                	sw	a4,0(a5)
C:\Users\windows\Desktop\A_Dual\A_Dual1\Dual-core_Communication_Demo\Dual-core_Communication_Demo\SLAVE\obj/../Libraries/wch_libraries/Peripheral/ch32v10x_dma.c:203
}
     c40:	0001                	nop
     c42:	4472                	lw	s0,28(sp)
     c44:	6105                	addi	sp,sp,32
     c46:	8082                	ret

00000c48 <DMA_GetFlagStatus>:
DMA_GetFlagStatus():
C:\Users\windows\Desktop\A_Dual\A_Dual1\Dual-core_Communication_Demo\Dual-core_Communication_Demo\SLAVE\obj/../Libraries/wch_libraries/Peripheral/ch32v10x_dma.c:290
*                      DMA2_FLAG_HT5: DMA2 Channel5 half transfer flag.
*                      DMA2_FLAG_TE5: DMA2 Channel5 transfer error flag.
* Return         : The new state of DMAy_FLAG (SET or RESET). 
*********************************************************************************/
FlagStatus DMA_GetFlagStatus(uint32_t DMAy_FLAG)
{
     c48:	7179                	addi	sp,sp,-48
     c4a:	d622                	sw	s0,44(sp)
     c4c:	1800                	addi	s0,sp,48
     c4e:	fca42e23          	sw	a0,-36(s0)
C:\Users\windows\Desktop\A_Dual\A_Dual1\Dual-core_Communication_Demo\Dual-core_Communication_Demo\SLAVE\obj/../Libraries/wch_libraries/Peripheral/ch32v10x_dma.c:291
  FlagStatus bitstatus = RESET;
     c52:	fe042623          	sw	zero,-20(s0)
C:\Users\windows\Desktop\A_Dual\A_Dual1\Dual-core_Communication_Demo\Dual-core_Communication_Demo\SLAVE\obj/../Libraries/wch_libraries/Peripheral/ch32v10x_dma.c:292
  uint32_t tmpreg = 0;
     c56:	fe042423          	sw	zero,-24(s0)
C:\Users\windows\Desktop\A_Dual\A_Dual1\Dual-core_Communication_Demo\Dual-core_Communication_Demo\SLAVE\obj/../Libraries/wch_libraries/Peripheral/ch32v10x_dma.c:294
  
  if ((DMAy_FLAG & FLAG_Mask) != (uint32_t)RESET)
     c5a:	fdc42703          	lw	a4,-36(s0)
     c5e:	100007b7          	lui	a5,0x10000
     c62:	8ff9                	and	a5,a5,a4
     c64:	cb89                	beqz	a5,c76 <DMA_GetFlagStatus+0x2e>
C:\Users\windows\Desktop\A_Dual\A_Dual1\Dual-core_Communication_Demo\Dual-core_Communication_Demo\SLAVE\obj/../Libraries/wch_libraries/Peripheral/ch32v10x_dma.c:296
  {
    tmpreg = DMA2->INTFR ;
     c66:	400207b7          	lui	a5,0x40020
     c6a:	40078793          	addi	a5,a5,1024 # 40020400 <_eusrstack+0x2001b400>
     c6e:	439c                	lw	a5,0(a5)
     c70:	fef42423          	sw	a5,-24(s0)
     c74:	a031                	j	c80 <DMA_GetFlagStatus+0x38>
C:\Users\windows\Desktop\A_Dual\A_Dual1\Dual-core_Communication_Demo\Dual-core_Communication_Demo\SLAVE\obj/../Libraries/wch_libraries/Peripheral/ch32v10x_dma.c:300
  }
  else
  {
    tmpreg = DMA1->INTFR ;
     c76:	400207b7          	lui	a5,0x40020
     c7a:	439c                	lw	a5,0(a5)
     c7c:	fef42423          	sw	a5,-24(s0)
C:\Users\windows\Desktop\A_Dual\A_Dual1\Dual-core_Communication_Demo\Dual-core_Communication_Demo\SLAVE\obj/../Libraries/wch_libraries/Peripheral/ch32v10x_dma.c:303
  }

  if ((tmpreg & DMAy_FLAG) != (uint32_t)RESET)
     c80:	fe842703          	lw	a4,-24(s0)
     c84:	fdc42783          	lw	a5,-36(s0)
     c88:	8ff9                	and	a5,a5,a4
     c8a:	c789                	beqz	a5,c94 <DMA_GetFlagStatus+0x4c>
C:\Users\windows\Desktop\A_Dual\A_Dual1\Dual-core_Communication_Demo\Dual-core_Communication_Demo\SLAVE\obj/../Libraries/wch_libraries/Peripheral/ch32v10x_dma.c:305
  {
    bitstatus = SET;
     c8c:	4785                	li	a5,1
     c8e:	fef42623          	sw	a5,-20(s0)
     c92:	a019                	j	c98 <DMA_GetFlagStatus+0x50>
C:\Users\windows\Desktop\A_Dual\A_Dual1\Dual-core_Communication_Demo\Dual-core_Communication_Demo\SLAVE\obj/../Libraries/wch_libraries/Peripheral/ch32v10x_dma.c:309
  }
  else
  {
    bitstatus = RESET;
     c94:	fe042623          	sw	zero,-20(s0)
C:\Users\windows\Desktop\A_Dual\A_Dual1\Dual-core_Communication_Demo\Dual-core_Communication_Demo\SLAVE\obj/../Libraries/wch_libraries/Peripheral/ch32v10x_dma.c:312
  }
  
  return  bitstatus;
     c98:	fec42783          	lw	a5,-20(s0)
C:\Users\windows\Desktop\A_Dual\A_Dual1\Dual-core_Communication_Demo\Dual-core_Communication_Demo\SLAVE\obj/../Libraries/wch_libraries/Peripheral/ch32v10x_dma.c:313
}
     c9c:	853e                	mv	a0,a5
     c9e:	5432                	lw	s0,44(sp)
     ca0:	6145                	addi	sp,sp,48
     ca2:	8082                	ret

00000ca4 <DMA_ClearFlag>:
DMA_ClearFlag():
C:\Users\windows\Desktop\A_Dual\A_Dual1\Dual-core_Communication_Demo\Dual-core_Communication_Demo\SLAVE\obj/../Libraries/wch_libraries/Peripheral/ch32v10x_dma.c:371
*                      DMA2_FLAG_HT5: DMA2 Channel5 half transfer flag.
*                      DMA2_FLAG_TE5: DMA2 Channel5 transfer error flag.
* Return         : None 
*********************************************************************************/
void DMA_ClearFlag(uint32_t DMAy_FLAG)
{
     ca4:	1101                	addi	sp,sp,-32
     ca6:	ce22                	sw	s0,28(sp)
     ca8:	1000                	addi	s0,sp,32
     caa:	fea42623          	sw	a0,-20(s0)
C:\Users\windows\Desktop\A_Dual\A_Dual1\Dual-core_Communication_Demo\Dual-core_Communication_Demo\SLAVE\obj/../Libraries/wch_libraries/Peripheral/ch32v10x_dma.c:372
  if ((DMAy_FLAG & FLAG_Mask) != (uint32_t)RESET)
     cae:	fec42703          	lw	a4,-20(s0)
     cb2:	100007b7          	lui	a5,0x10000
     cb6:	8ff9                	and	a5,a5,a4
     cb8:	cb89                	beqz	a5,cca <DMA_ClearFlag+0x26>
C:\Users\windows\Desktop\A_Dual\A_Dual1\Dual-core_Communication_Demo\Dual-core_Communication_Demo\SLAVE\obj/../Libraries/wch_libraries/Peripheral/ch32v10x_dma.c:374
  {
    DMA2->INTFCR = DMAy_FLAG;
     cba:	400207b7          	lui	a5,0x40020
     cbe:	40078793          	addi	a5,a5,1024 # 40020400 <_eusrstack+0x2001b400>
     cc2:	fec42703          	lw	a4,-20(s0)
     cc6:	c3d8                	sw	a4,4(a5)
C:\Users\windows\Desktop\A_Dual\A_Dual1\Dual-core_Communication_Demo\Dual-core_Communication_Demo\SLAVE\obj/../Libraries/wch_libraries/Peripheral/ch32v10x_dma.c:380
  }
  else
  {
    DMA1->INTFCR = DMAy_FLAG;
  }
}
     cc8:	a031                	j	cd4 <DMA_ClearFlag+0x30>
C:\Users\windows\Desktop\A_Dual\A_Dual1\Dual-core_Communication_Demo\Dual-core_Communication_Demo\SLAVE\obj/../Libraries/wch_libraries/Peripheral/ch32v10x_dma.c:378
    DMA1->INTFCR = DMAy_FLAG;
     cca:	400207b7          	lui	a5,0x40020
     cce:	fec42703          	lw	a4,-20(s0)
     cd2:	c3d8                	sw	a4,4(a5)
C:\Users\windows\Desktop\A_Dual\A_Dual1\Dual-core_Communication_Demo\Dual-core_Communication_Demo\SLAVE\obj/../Libraries/wch_libraries/Peripheral/ch32v10x_dma.c:380
}
     cd4:	0001                	nop
     cd6:	4472                	lw	s0,28(sp)
     cd8:	6105                	addi	sp,sp,32
     cda:	8082                	ret

00000cdc <EXTI_Init>:
EXTI_Init():
C:\Users\windows\Desktop\A_Dual\A_Dual1\Dual-core_Communication_Demo\Dual-core_Communication_Demo\SLAVE\obj/../Libraries/wch_libraries/Peripheral/ch32v10x_exti.c:37
*                  parameters in the EXTI_InitStruct.
* Input          : EXTI_InitStruct: pointer to a EXTI_InitTypeDef structure
* Return         : None
*********************************************************************************/	
void EXTI_Init(EXTI_InitTypeDef* EXTI_InitStruct)
{
     cdc:	7179                	addi	sp,sp,-48
     cde:	d622                	sw	s0,44(sp)
     ce0:	1800                	addi	s0,sp,48
     ce2:	fca42e23          	sw	a0,-36(s0)
C:\Users\windows\Desktop\A_Dual\A_Dual1\Dual-core_Communication_Demo\Dual-core_Communication_Demo\SLAVE\obj/../Libraries/wch_libraries/Peripheral/ch32v10x_exti.c:38
  uint32_t tmp = 0;
     ce6:	fe042623          	sw	zero,-20(s0)
C:\Users\windows\Desktop\A_Dual\A_Dual1\Dual-core_Communication_Demo\Dual-core_Communication_Demo\SLAVE\obj/../Libraries/wch_libraries/Peripheral/ch32v10x_exti.c:40

  tmp = (uint32_t)EXTI_BASE;
     cea:	400107b7          	lui	a5,0x40010
     cee:	40078793          	addi	a5,a5,1024 # 40010400 <_eusrstack+0x2000b400>
     cf2:	fef42623          	sw	a5,-20(s0)
C:\Users\windows\Desktop\A_Dual\A_Dual1\Dual-core_Communication_Demo\Dual-core_Communication_Demo\SLAVE\obj/../Libraries/wch_libraries/Peripheral/ch32v10x_exti.c:41
  if (EXTI_InitStruct->EXTI_LineCmd != DISABLE)
     cf6:	fdc42783          	lw	a5,-36(s0)
     cfa:	47dc                	lw	a5,12(a5)
     cfc:	12078063          	beqz	a5,e1c <EXTI_Init+0x140>
C:\Users\windows\Desktop\A_Dual\A_Dual1\Dual-core_Communication_Demo\Dual-core_Communication_Demo\SLAVE\obj/../Libraries/wch_libraries/Peripheral/ch32v10x_exti.c:43
  {
    EXTI->INTENR &= ~EXTI_InitStruct->EXTI_Line;
     d00:	400107b7          	lui	a5,0x40010
     d04:	40078793          	addi	a5,a5,1024 # 40010400 <_eusrstack+0x2000b400>
     d08:	4394                	lw	a3,0(a5)
     d0a:	fdc42783          	lw	a5,-36(s0)
     d0e:	439c                	lw	a5,0(a5)
     d10:	fff7c713          	not	a4,a5
     d14:	400107b7          	lui	a5,0x40010
     d18:	40078793          	addi	a5,a5,1024 # 40010400 <_eusrstack+0x2000b400>
     d1c:	8f75                	and	a4,a4,a3
     d1e:	c398                	sw	a4,0(a5)
C:\Users\windows\Desktop\A_Dual\A_Dual1\Dual-core_Communication_Demo\Dual-core_Communication_Demo\SLAVE\obj/../Libraries/wch_libraries/Peripheral/ch32v10x_exti.c:44
    EXTI->EVENR &= ~EXTI_InitStruct->EXTI_Line;
     d20:	400107b7          	lui	a5,0x40010
     d24:	40078793          	addi	a5,a5,1024 # 40010400 <_eusrstack+0x2000b400>
     d28:	43d4                	lw	a3,4(a5)
     d2a:	fdc42783          	lw	a5,-36(s0)
     d2e:	439c                	lw	a5,0(a5)
     d30:	fff7c713          	not	a4,a5
     d34:	400107b7          	lui	a5,0x40010
     d38:	40078793          	addi	a5,a5,1024 # 40010400 <_eusrstack+0x2000b400>
     d3c:	8f75                	and	a4,a4,a3
     d3e:	c3d8                	sw	a4,4(a5)
C:\Users\windows\Desktop\A_Dual\A_Dual1\Dual-core_Communication_Demo\Dual-core_Communication_Demo\SLAVE\obj/../Libraries/wch_libraries/Peripheral/ch32v10x_exti.c:45
    tmp += EXTI_InitStruct->EXTI_Mode;
     d40:	fdc42783          	lw	a5,-36(s0)
     d44:	43dc                	lw	a5,4(a5)
     d46:	fec42703          	lw	a4,-20(s0)
     d4a:	97ba                	add	a5,a5,a4
     d4c:	fef42623          	sw	a5,-20(s0)
C:\Users\windows\Desktop\A_Dual\A_Dual1\Dual-core_Communication_Demo\Dual-core_Communication_Demo\SLAVE\obj/../Libraries/wch_libraries/Peripheral/ch32v10x_exti.c:46
    *(__IO uint32_t *) tmp |= EXTI_InitStruct->EXTI_Line;
     d50:	fec42783          	lw	a5,-20(s0)
     d54:	4394                	lw	a3,0(a5)
     d56:	fdc42783          	lw	a5,-36(s0)
     d5a:	4398                	lw	a4,0(a5)
     d5c:	fec42783          	lw	a5,-20(s0)
     d60:	8f55                	or	a4,a4,a3
     d62:	c398                	sw	a4,0(a5)
C:\Users\windows\Desktop\A_Dual\A_Dual1\Dual-core_Communication_Demo\Dual-core_Communication_Demo\SLAVE\obj/../Libraries/wch_libraries/Peripheral/ch32v10x_exti.c:47
    EXTI->RTENR &= ~EXTI_InitStruct->EXTI_Line;
     d64:	400107b7          	lui	a5,0x40010
     d68:	40078793          	addi	a5,a5,1024 # 40010400 <_eusrstack+0x2000b400>
     d6c:	4794                	lw	a3,8(a5)
     d6e:	fdc42783          	lw	a5,-36(s0)
     d72:	439c                	lw	a5,0(a5)
     d74:	fff7c713          	not	a4,a5
     d78:	400107b7          	lui	a5,0x40010
     d7c:	40078793          	addi	a5,a5,1024 # 40010400 <_eusrstack+0x2000b400>
     d80:	8f75                	and	a4,a4,a3
     d82:	c798                	sw	a4,8(a5)
C:\Users\windows\Desktop\A_Dual\A_Dual1\Dual-core_Communication_Demo\Dual-core_Communication_Demo\SLAVE\obj/../Libraries/wch_libraries/Peripheral/ch32v10x_exti.c:48
    EXTI->FTENR &= ~EXTI_InitStruct->EXTI_Line;
     d84:	400107b7          	lui	a5,0x40010
     d88:	40078793          	addi	a5,a5,1024 # 40010400 <_eusrstack+0x2000b400>
     d8c:	47d4                	lw	a3,12(a5)
     d8e:	fdc42783          	lw	a5,-36(s0)
     d92:	439c                	lw	a5,0(a5)
     d94:	fff7c713          	not	a4,a5
     d98:	400107b7          	lui	a5,0x40010
     d9c:	40078793          	addi	a5,a5,1024 # 40010400 <_eusrstack+0x2000b400>
     da0:	8f75                	and	a4,a4,a3
     da2:	c7d8                	sw	a4,12(a5)
C:\Users\windows\Desktop\A_Dual\A_Dual1\Dual-core_Communication_Demo\Dual-core_Communication_Demo\SLAVE\obj/../Libraries/wch_libraries/Peripheral/ch32v10x_exti.c:49
    if (EXTI_InitStruct->EXTI_Trigger == EXTI_Trigger_Rising_Falling)
     da4:	fdc42783          	lw	a5,-36(s0)
     da8:	4798                	lw	a4,8(a5)
     daa:	47c1                	li	a5,16
     dac:	02f71f63          	bne	a4,a5,dea <EXTI_Init+0x10e>
C:\Users\windows\Desktop\A_Dual\A_Dual1\Dual-core_Communication_Demo\Dual-core_Communication_Demo\SLAVE\obj/../Libraries/wch_libraries/Peripheral/ch32v10x_exti.c:51
    {
      EXTI->RTENR |= EXTI_InitStruct->EXTI_Line;
     db0:	400107b7          	lui	a5,0x40010
     db4:	40078793          	addi	a5,a5,1024 # 40010400 <_eusrstack+0x2000b400>
     db8:	4794                	lw	a3,8(a5)
     dba:	fdc42783          	lw	a5,-36(s0)
     dbe:	4398                	lw	a4,0(a5)
     dc0:	400107b7          	lui	a5,0x40010
     dc4:	40078793          	addi	a5,a5,1024 # 40010400 <_eusrstack+0x2000b400>
     dc8:	8f55                	or	a4,a4,a3
     dca:	c798                	sw	a4,8(a5)
C:\Users\windows\Desktop\A_Dual\A_Dual1\Dual-core_Communication_Demo\Dual-core_Communication_Demo\SLAVE\obj/../Libraries/wch_libraries/Peripheral/ch32v10x_exti.c:52
      EXTI->FTENR |= EXTI_InitStruct->EXTI_Line;
     dcc:	400107b7          	lui	a5,0x40010
     dd0:	40078793          	addi	a5,a5,1024 # 40010400 <_eusrstack+0x2000b400>
     dd4:	47d4                	lw	a3,12(a5)
     dd6:	fdc42783          	lw	a5,-36(s0)
     dda:	4398                	lw	a4,0(a5)
     ddc:	400107b7          	lui	a5,0x40010
     de0:	40078793          	addi	a5,a5,1024 # 40010400 <_eusrstack+0x2000b400>
     de4:	8f55                	or	a4,a4,a3
     de6:	c7d8                	sw	a4,12(a5)
C:\Users\windows\Desktop\A_Dual\A_Dual1\Dual-core_Communication_Demo\Dual-core_Communication_Demo\SLAVE\obj/../Libraries/wch_libraries/Peripheral/ch32v10x_exti.c:66
  else
  {
    tmp += EXTI_InitStruct->EXTI_Mode;
    *(__IO uint32_t *) tmp &= ~EXTI_InitStruct->EXTI_Line;
  }
}
     de8:	a8b1                	j	e44 <EXTI_Init+0x168>
C:\Users\windows\Desktop\A_Dual\A_Dual1\Dual-core_Communication_Demo\Dual-core_Communication_Demo\SLAVE\obj/../Libraries/wch_libraries/Peripheral/ch32v10x_exti.c:56
      tmp = (uint32_t)EXTI_BASE;
     dea:	400107b7          	lui	a5,0x40010
     dee:	40078793          	addi	a5,a5,1024 # 40010400 <_eusrstack+0x2000b400>
     df2:	fef42623          	sw	a5,-20(s0)
C:\Users\windows\Desktop\A_Dual\A_Dual1\Dual-core_Communication_Demo\Dual-core_Communication_Demo\SLAVE\obj/../Libraries/wch_libraries/Peripheral/ch32v10x_exti.c:57
      tmp += EXTI_InitStruct->EXTI_Trigger;
     df6:	fdc42783          	lw	a5,-36(s0)
     dfa:	479c                	lw	a5,8(a5)
     dfc:	fec42703          	lw	a4,-20(s0)
     e00:	97ba                	add	a5,a5,a4
     e02:	fef42623          	sw	a5,-20(s0)
C:\Users\windows\Desktop\A_Dual\A_Dual1\Dual-core_Communication_Demo\Dual-core_Communication_Demo\SLAVE\obj/../Libraries/wch_libraries/Peripheral/ch32v10x_exti.c:58
      *(__IO uint32_t *) tmp |= EXTI_InitStruct->EXTI_Line;
     e06:	fec42783          	lw	a5,-20(s0)
     e0a:	4394                	lw	a3,0(a5)
     e0c:	fdc42783          	lw	a5,-36(s0)
     e10:	4398                	lw	a4,0(a5)
     e12:	fec42783          	lw	a5,-20(s0)
     e16:	8f55                	or	a4,a4,a3
     e18:	c398                	sw	a4,0(a5)
C:\Users\windows\Desktop\A_Dual\A_Dual1\Dual-core_Communication_Demo\Dual-core_Communication_Demo\SLAVE\obj/../Libraries/wch_libraries/Peripheral/ch32v10x_exti.c:66
}
     e1a:	a02d                	j	e44 <EXTI_Init+0x168>
C:\Users\windows\Desktop\A_Dual\A_Dual1\Dual-core_Communication_Demo\Dual-core_Communication_Demo\SLAVE\obj/../Libraries/wch_libraries/Peripheral/ch32v10x_exti.c:63
    tmp += EXTI_InitStruct->EXTI_Mode;
     e1c:	fdc42783          	lw	a5,-36(s0)
     e20:	43dc                	lw	a5,4(a5)
     e22:	fec42703          	lw	a4,-20(s0)
     e26:	97ba                	add	a5,a5,a4
     e28:	fef42623          	sw	a5,-20(s0)
C:\Users\windows\Desktop\A_Dual\A_Dual1\Dual-core_Communication_Demo\Dual-core_Communication_Demo\SLAVE\obj/../Libraries/wch_libraries/Peripheral/ch32v10x_exti.c:64
    *(__IO uint32_t *) tmp &= ~EXTI_InitStruct->EXTI_Line;
     e2c:	fec42783          	lw	a5,-20(s0)
     e30:	4394                	lw	a3,0(a5)
     e32:	fdc42783          	lw	a5,-36(s0)
     e36:	439c                	lw	a5,0(a5)
     e38:	fff7c713          	not	a4,a5
     e3c:	fec42783          	lw	a5,-20(s0)
     e40:	8f75                	and	a4,a4,a3
     e42:	c398                	sw	a4,0(a5)
C:\Users\windows\Desktop\A_Dual\A_Dual1\Dual-core_Communication_Demo\Dual-core_Communication_Demo\SLAVE\obj/../Libraries/wch_libraries/Peripheral/ch32v10x_exti.c:66
}
     e44:	0001                	nop
     e46:	5432                	lw	s0,44(sp)
     e48:	6145                	addi	sp,sp,48
     e4a:	8082                	ret

00000e4c <EXTI_GetITStatus>:
EXTI_GetITStatus():
C:\Users\windows\Desktop\A_Dual\A_Dual1\Dual-core_Communication_Demo\Dual-core_Communication_Demo\SLAVE\obj/../Libraries/wch_libraries/Peripheral/ch32v10x_exti.c:131
* Description    : Checks whether the specified EXTI line is asserted or not.
* Input          : EXTI_Line: specifies the EXTI lines to be enabled or disabled.
* Return         : The new state of EXTI_Line (SET or RESET).
*********************************************************************************/	
ITStatus EXTI_GetITStatus(uint32_t EXTI_Line)
{
     e4c:	7179                	addi	sp,sp,-48
     e4e:	d622                	sw	s0,44(sp)
     e50:	1800                	addi	s0,sp,48
     e52:	fca42e23          	sw	a0,-36(s0)
C:\Users\windows\Desktop\A_Dual\A_Dual1\Dual-core_Communication_Demo\Dual-core_Communication_Demo\SLAVE\obj/../Libraries/wch_libraries/Peripheral/ch32v10x_exti.c:132
  ITStatus bitstatus = RESET;
     e56:	fe042623          	sw	zero,-20(s0)
C:\Users\windows\Desktop\A_Dual\A_Dual1\Dual-core_Communication_Demo\Dual-core_Communication_Demo\SLAVE\obj/../Libraries/wch_libraries/Peripheral/ch32v10x_exti.c:133
  uint32_t enablestatus = 0;
     e5a:	fe042423          	sw	zero,-24(s0)
C:\Users\windows\Desktop\A_Dual\A_Dual1\Dual-core_Communication_Demo\Dual-core_Communication_Demo\SLAVE\obj/../Libraries/wch_libraries/Peripheral/ch32v10x_exti.c:135
  
  enablestatus =  EXTI->INTENR & EXTI_Line;
     e5e:	400107b7          	lui	a5,0x40010
     e62:	40078793          	addi	a5,a5,1024 # 40010400 <_eusrstack+0x2000b400>
     e66:	439c                	lw	a5,0(a5)
     e68:	fdc42703          	lw	a4,-36(s0)
     e6c:	8ff9                	and	a5,a5,a4
     e6e:	fef42423          	sw	a5,-24(s0)
C:\Users\windows\Desktop\A_Dual\A_Dual1\Dual-core_Communication_Demo\Dual-core_Communication_Demo\SLAVE\obj/../Libraries/wch_libraries/Peripheral/ch32v10x_exti.c:136
  if (((EXTI->INTFR & EXTI_Line) != (uint32_t)RESET) && (enablestatus != (uint32_t)RESET))
     e72:	400107b7          	lui	a5,0x40010
     e76:	40078793          	addi	a5,a5,1024 # 40010400 <_eusrstack+0x2000b400>
     e7a:	4bd8                	lw	a4,20(a5)
     e7c:	fdc42783          	lw	a5,-36(s0)
     e80:	8ff9                	and	a5,a5,a4
     e82:	cb81                	beqz	a5,e92 <EXTI_GetITStatus+0x46>
C:\Users\windows\Desktop\A_Dual\A_Dual1\Dual-core_Communication_Demo\Dual-core_Communication_Demo\SLAVE\obj/../Libraries/wch_libraries/Peripheral/ch32v10x_exti.c:136 (discriminator 1)
     e84:	fe842783          	lw	a5,-24(s0)
     e88:	c789                	beqz	a5,e92 <EXTI_GetITStatus+0x46>
C:\Users\windows\Desktop\A_Dual\A_Dual1\Dual-core_Communication_Demo\Dual-core_Communication_Demo\SLAVE\obj/../Libraries/wch_libraries/Peripheral/ch32v10x_exti.c:138
  {
    bitstatus = SET;
     e8a:	4785                	li	a5,1
     e8c:	fef42623          	sw	a5,-20(s0)
     e90:	a019                	j	e96 <EXTI_GetITStatus+0x4a>
C:\Users\windows\Desktop\A_Dual\A_Dual1\Dual-core_Communication_Demo\Dual-core_Communication_Demo\SLAVE\obj/../Libraries/wch_libraries/Peripheral/ch32v10x_exti.c:142
  }
  else
  {
    bitstatus = RESET;
     e92:	fe042623          	sw	zero,-20(s0)
C:\Users\windows\Desktop\A_Dual\A_Dual1\Dual-core_Communication_Demo\Dual-core_Communication_Demo\SLAVE\obj/../Libraries/wch_libraries/Peripheral/ch32v10x_exti.c:144
  }
  return bitstatus;
     e96:	fec42783          	lw	a5,-20(s0)
C:\Users\windows\Desktop\A_Dual\A_Dual1\Dual-core_Communication_Demo\Dual-core_Communication_Demo\SLAVE\obj/../Libraries/wch_libraries/Peripheral/ch32v10x_exti.c:145
}
     e9a:	853e                	mv	a0,a5
     e9c:	5432                	lw	s0,44(sp)
     e9e:	6145                	addi	sp,sp,48
     ea0:	8082                	ret

00000ea2 <EXTI_ClearITPendingBit>:
EXTI_ClearITPendingBit():
C:\Users\windows\Desktop\A_Dual\A_Dual1\Dual-core_Communication_Demo\Dual-core_Communication_Demo\SLAVE\obj/../Libraries/wch_libraries/Peripheral/ch32v10x_exti.c:154
* Description    : Clears the EXTI's line pending bits.
* Input          : EXTI_Line: specifies the EXTI lines to be enabled or disabled.
* Return         : None
*********************************************************************************/
void EXTI_ClearITPendingBit(uint32_t EXTI_Line)
{  
     ea2:	1101                	addi	sp,sp,-32
     ea4:	ce22                	sw	s0,28(sp)
     ea6:	1000                	addi	s0,sp,32
     ea8:	fea42623          	sw	a0,-20(s0)
C:\Users\windows\Desktop\A_Dual\A_Dual1\Dual-core_Communication_Demo\Dual-core_Communication_Demo\SLAVE\obj/../Libraries/wch_libraries/Peripheral/ch32v10x_exti.c:155
  EXTI->INTFR = EXTI_Line;
     eac:	400107b7          	lui	a5,0x40010
     eb0:	40078793          	addi	a5,a5,1024 # 40010400 <_eusrstack+0x2000b400>
     eb4:	fec42703          	lw	a4,-20(s0)
     eb8:	cbd8                	sw	a4,20(a5)
C:\Users\windows\Desktop\A_Dual\A_Dual1\Dual-core_Communication_Demo\Dual-core_Communication_Demo\SLAVE\obj/../Libraries/wch_libraries/Peripheral/ch32v10x_exti.c:156
}
     eba:	0001                	nop
     ebc:	4472                	lw	s0,28(sp)
     ebe:	6105                	addi	sp,sp,32
     ec0:	8082                	ret

00000ec2 <GPIO_Init>:
GPIO_Init():
C:\Users\windows\Desktop\A_Dual\A_Dual1\Dual-core_Communication_Demo\Dual-core_Communication_Demo\SLAVE\obj/../Libraries/wch_libraries/Peripheral/ch32v10x_gpio.c:88
* Input          : GPIO_InitStruct: pointer to a GPIO_InitTypeDef structure that
*      contains the configuration information for the specified GPIO peripheral.
* Return         : None
*******************************************************************************/
void GPIO_Init(GPIO_TypeDef* GPIOx, GPIO_InitTypeDef* GPIO_InitStruct)
{
     ec2:	7139                	addi	sp,sp,-64
     ec4:	de22                	sw	s0,60(sp)
     ec6:	0080                	addi	s0,sp,64
     ec8:	fca42623          	sw	a0,-52(s0)
     ecc:	fcb42423          	sw	a1,-56(s0)
C:\Users\windows\Desktop\A_Dual\A_Dual1\Dual-core_Communication_Demo\Dual-core_Communication_Demo\SLAVE\obj/../Libraries/wch_libraries/Peripheral/ch32v10x_gpio.c:89
  uint32_t currentmode = 0x00, currentpin = 0x00, pinpos = 0x00, pos = 0x00;
     ed0:	fe042623          	sw	zero,-20(s0)
     ed4:	fe042023          	sw	zero,-32(s0)
     ed8:	fe042423          	sw	zero,-24(s0)
     edc:	fc042e23          	sw	zero,-36(s0)
C:\Users\windows\Desktop\A_Dual\A_Dual1\Dual-core_Communication_Demo\Dual-core_Communication_Demo\SLAVE\obj/../Libraries/wch_libraries/Peripheral/ch32v10x_gpio.c:90
  uint32_t tmpreg = 0x00, pinmask = 0x00;
     ee0:	fe042223          	sw	zero,-28(s0)
     ee4:	fc042c23          	sw	zero,-40(s0)
C:\Users\windows\Desktop\A_Dual\A_Dual1\Dual-core_Communication_Demo\Dual-core_Communication_Demo\SLAVE\obj/../Libraries/wch_libraries/Peripheral/ch32v10x_gpio.c:92

  currentmode = ((uint32_t)GPIO_InitStruct->GPIO_Mode) & ((uint32_t)0x0F);
     ee8:	fc842783          	lw	a5,-56(s0)
     eec:	479c                	lw	a5,8(a5)
     eee:	8bbd                	andi	a5,a5,15
     ef0:	fef42623          	sw	a5,-20(s0)
C:\Users\windows\Desktop\A_Dual\A_Dual1\Dual-core_Communication_Demo\Dual-core_Communication_Demo\SLAVE\obj/../Libraries/wch_libraries/Peripheral/ch32v10x_gpio.c:94
	
  if ((((uint32_t)GPIO_InitStruct->GPIO_Mode) & ((uint32_t)0x10)) != 0x00)
     ef4:	fc842783          	lw	a5,-56(s0)
     ef8:	479c                	lw	a5,8(a5)
     efa:	8bc1                	andi	a5,a5,16
     efc:	cb89                	beqz	a5,f0e <GPIO_Init+0x4c>
C:\Users\windows\Desktop\A_Dual\A_Dual1\Dual-core_Communication_Demo\Dual-core_Communication_Demo\SLAVE\obj/../Libraries/wch_libraries/Peripheral/ch32v10x_gpio.c:96
  { 
    currentmode |= (uint32_t)GPIO_InitStruct->GPIO_Speed;
     efe:	fc842783          	lw	a5,-56(s0)
     f02:	43dc                	lw	a5,4(a5)
     f04:	fec42703          	lw	a4,-20(s0)
     f08:	8fd9                	or	a5,a5,a4
     f0a:	fef42623          	sw	a5,-20(s0)
C:\Users\windows\Desktop\A_Dual\A_Dual1\Dual-core_Communication_Demo\Dual-core_Communication_Demo\SLAVE\obj/../Libraries/wch_libraries/Peripheral/ch32v10x_gpio.c:99
  }

  if (((uint32_t)GPIO_InitStruct->GPIO_Pin & ((uint32_t)0x00FF)) != 0x00)
     f0e:	fc842783          	lw	a5,-56(s0)
     f12:	0007d783          	lhu	a5,0(a5)
     f16:	0ff7f793          	andi	a5,a5,255
     f1a:	cff1                	beqz	a5,ff6 <GPIO_Init+0x134>
C:\Users\windows\Desktop\A_Dual\A_Dual1\Dual-core_Communication_Demo\Dual-core_Communication_Demo\SLAVE\obj/../Libraries/wch_libraries/Peripheral/ch32v10x_gpio.c:101
  {
    tmpreg = GPIOx->CFGLR;
     f1c:	fcc42783          	lw	a5,-52(s0)
     f20:	439c                	lw	a5,0(a5)
     f22:	fef42223          	sw	a5,-28(s0)
C:\Users\windows\Desktop\A_Dual\A_Dual1\Dual-core_Communication_Demo\Dual-core_Communication_Demo\SLAVE\obj/../Libraries/wch_libraries/Peripheral/ch32v10x_gpio.c:103
		
    for (pinpos = 0x00; pinpos < 0x08; pinpos++)
     f26:	fe042423          	sw	zero,-24(s0)
     f2a:	a865                	j	fe2 <GPIO_Init+0x120>
C:\Users\windows\Desktop\A_Dual\A_Dual1\Dual-core_Communication_Demo\Dual-core_Communication_Demo\SLAVE\obj/../Libraries/wch_libraries/Peripheral/ch32v10x_gpio.c:105
    {
      pos = ((uint32_t)0x01) << pinpos;
     f2c:	fe842783          	lw	a5,-24(s0)
     f30:	4705                	li	a4,1
     f32:	00f717b3          	sll	a5,a4,a5
     f36:	fcf42e23          	sw	a5,-36(s0)
C:\Users\windows\Desktop\A_Dual\A_Dual1\Dual-core_Communication_Demo\Dual-core_Communication_Demo\SLAVE\obj/../Libraries/wch_libraries/Peripheral/ch32v10x_gpio.c:106
      currentpin = (GPIO_InitStruct->GPIO_Pin) & pos;
     f3a:	fc842783          	lw	a5,-56(s0)
     f3e:	0007d783          	lhu	a5,0(a5)
     f42:	873e                	mv	a4,a5
     f44:	fdc42783          	lw	a5,-36(s0)
     f48:	8ff9                	and	a5,a5,a4
     f4a:	fef42023          	sw	a5,-32(s0)
C:\Users\windows\Desktop\A_Dual\A_Dual1\Dual-core_Communication_Demo\Dual-core_Communication_Demo\SLAVE\obj/../Libraries/wch_libraries/Peripheral/ch32v10x_gpio.c:108
			
      if (currentpin == pos)
     f4e:	fe042703          	lw	a4,-32(s0)
     f52:	fdc42783          	lw	a5,-36(s0)
     f56:	08f71163          	bne	a4,a5,fd8 <GPIO_Init+0x116>
C:\Users\windows\Desktop\A_Dual\A_Dual1\Dual-core_Communication_Demo\Dual-core_Communication_Demo\SLAVE\obj/../Libraries/wch_libraries/Peripheral/ch32v10x_gpio.c:110
      {
        pos = pinpos << 2;
     f5a:	fe842783          	lw	a5,-24(s0)
     f5e:	078a                	slli	a5,a5,0x2
     f60:	fcf42e23          	sw	a5,-36(s0)
C:\Users\windows\Desktop\A_Dual\A_Dual1\Dual-core_Communication_Demo\Dual-core_Communication_Demo\SLAVE\obj/../Libraries/wch_libraries/Peripheral/ch32v10x_gpio.c:111
        pinmask = ((uint32_t)0x0F) << pos;
     f64:	fdc42783          	lw	a5,-36(s0)
     f68:	473d                	li	a4,15
     f6a:	00f717b3          	sll	a5,a4,a5
     f6e:	fcf42c23          	sw	a5,-40(s0)
C:\Users\windows\Desktop\A_Dual\A_Dual1\Dual-core_Communication_Demo\Dual-core_Communication_Demo\SLAVE\obj/../Libraries/wch_libraries/Peripheral/ch32v10x_gpio.c:112
        tmpreg &= ~pinmask;
     f72:	fd842783          	lw	a5,-40(s0)
     f76:	fff7c793          	not	a5,a5
     f7a:	fe442703          	lw	a4,-28(s0)
     f7e:	8ff9                	and	a5,a5,a4
     f80:	fef42223          	sw	a5,-28(s0)
C:\Users\windows\Desktop\A_Dual\A_Dual1\Dual-core_Communication_Demo\Dual-core_Communication_Demo\SLAVE\obj/../Libraries/wch_libraries/Peripheral/ch32v10x_gpio.c:113
        tmpreg |= (currentmode << pos);
     f84:	fdc42783          	lw	a5,-36(s0)
     f88:	fec42703          	lw	a4,-20(s0)
     f8c:	00f717b3          	sll	a5,a4,a5
     f90:	fe442703          	lw	a4,-28(s0)
     f94:	8fd9                	or	a5,a5,a4
     f96:	fef42223          	sw	a5,-28(s0)
C:\Users\windows\Desktop\A_Dual\A_Dual1\Dual-core_Communication_Demo\Dual-core_Communication_Demo\SLAVE\obj/../Libraries/wch_libraries/Peripheral/ch32v10x_gpio.c:115

        if (GPIO_InitStruct->GPIO_Mode == GPIO_Mode_IPD)
     f9a:	fc842783          	lw	a5,-56(s0)
     f9e:	4798                	lw	a4,8(a5)
     fa0:	02800793          	li	a5,40
     fa4:	00f71b63          	bne	a4,a5,fba <GPIO_Init+0xf8>
C:\Users\windows\Desktop\A_Dual\A_Dual1\Dual-core_Communication_Demo\Dual-core_Communication_Demo\SLAVE\obj/../Libraries/wch_libraries/Peripheral/ch32v10x_gpio.c:117
        {
          GPIOx->BCR = (((uint32_t)0x01) << pinpos);
     fa8:	fe842783          	lw	a5,-24(s0)
     fac:	4705                	li	a4,1
     fae:	00f71733          	sll	a4,a4,a5
     fb2:	fcc42783          	lw	a5,-52(s0)
     fb6:	cbd8                	sw	a4,20(a5)
     fb8:	a005                	j	fd8 <GPIO_Init+0x116>
C:\Users\windows\Desktop\A_Dual\A_Dual1\Dual-core_Communication_Demo\Dual-core_Communication_Demo\SLAVE\obj/../Libraries/wch_libraries/Peripheral/ch32v10x_gpio.c:121
        }
        else
        {
          if (GPIO_InitStruct->GPIO_Mode == GPIO_Mode_IPU)
     fba:	fc842783          	lw	a5,-56(s0)
     fbe:	4798                	lw	a4,8(a5)
     fc0:	04800793          	li	a5,72
     fc4:	00f71a63          	bne	a4,a5,fd8 <GPIO_Init+0x116>
C:\Users\windows\Desktop\A_Dual\A_Dual1\Dual-core_Communication_Demo\Dual-core_Communication_Demo\SLAVE\obj/../Libraries/wch_libraries/Peripheral/ch32v10x_gpio.c:123
          {
            GPIOx->BSHR = (((uint32_t)0x01) << pinpos);
     fc8:	fe842783          	lw	a5,-24(s0)
     fcc:	4705                	li	a4,1
     fce:	00f71733          	sll	a4,a4,a5
     fd2:	fcc42783          	lw	a5,-52(s0)
     fd6:	cb98                	sw	a4,16(a5)
C:\Users\windows\Desktop\A_Dual\A_Dual1\Dual-core_Communication_Demo\Dual-core_Communication_Demo\SLAVE\obj/../Libraries/wch_libraries/Peripheral/ch32v10x_gpio.c:103 (discriminator 2)
    for (pinpos = 0x00; pinpos < 0x08; pinpos++)
     fd8:	fe842783          	lw	a5,-24(s0)
     fdc:	0785                	addi	a5,a5,1
     fde:	fef42423          	sw	a5,-24(s0)
C:\Users\windows\Desktop\A_Dual\A_Dual1\Dual-core_Communication_Demo\Dual-core_Communication_Demo\SLAVE\obj/../Libraries/wch_libraries/Peripheral/ch32v10x_gpio.c:103 (discriminator 1)
     fe2:	fe842703          	lw	a4,-24(s0)
     fe6:	479d                	li	a5,7
     fe8:	f4e7f2e3          	bgeu	a5,a4,f2c <GPIO_Init+0x6a>
C:\Users\windows\Desktop\A_Dual\A_Dual1\Dual-core_Communication_Demo\Dual-core_Communication_Demo\SLAVE\obj/../Libraries/wch_libraries/Peripheral/ch32v10x_gpio.c:128
          }
        }
      }
    }
    GPIOx->CFGLR = tmpreg;
     fec:	fcc42783          	lw	a5,-52(s0)
     ff0:	fe442703          	lw	a4,-28(s0)
     ff4:	c398                	sw	a4,0(a5)
C:\Users\windows\Desktop\A_Dual\A_Dual1\Dual-core_Communication_Demo\Dual-core_Communication_Demo\SLAVE\obj/../Libraries/wch_libraries/Peripheral/ch32v10x_gpio.c:131
  }

  if (GPIO_InitStruct->GPIO_Pin > 0x00FF)
     ff6:	fc842783          	lw	a5,-56(s0)
     ffa:	0007d703          	lhu	a4,0(a5)
     ffe:	0ff00793          	li	a5,255
    1002:	0ee7f163          	bgeu	a5,a4,10e4 <GPIO_Init+0x222>
C:\Users\windows\Desktop\A_Dual\A_Dual1\Dual-core_Communication_Demo\Dual-core_Communication_Demo\SLAVE\obj/../Libraries/wch_libraries/Peripheral/ch32v10x_gpio.c:133
  {
    tmpreg = GPIOx->CFGHR;
    1006:	fcc42783          	lw	a5,-52(s0)
    100a:	43dc                	lw	a5,4(a5)
    100c:	fef42223          	sw	a5,-28(s0)
C:\Users\windows\Desktop\A_Dual\A_Dual1\Dual-core_Communication_Demo\Dual-core_Communication_Demo\SLAVE\obj/../Libraries/wch_libraries/Peripheral/ch32v10x_gpio.c:135
		
    for (pinpos = 0x00; pinpos < 0x08; pinpos++)
    1010:	fe042423          	sw	zero,-24(s0)
    1014:	a875                	j	10d0 <GPIO_Init+0x20e>
C:\Users\windows\Desktop\A_Dual\A_Dual1\Dual-core_Communication_Demo\Dual-core_Communication_Demo\SLAVE\obj/../Libraries/wch_libraries/Peripheral/ch32v10x_gpio.c:137
    {
      pos = (((uint32_t)0x01) << (pinpos + 0x08));
    1016:	fe842783          	lw	a5,-24(s0)
    101a:	07a1                	addi	a5,a5,8
    101c:	4705                	li	a4,1
    101e:	00f717b3          	sll	a5,a4,a5
    1022:	fcf42e23          	sw	a5,-36(s0)
C:\Users\windows\Desktop\A_Dual\A_Dual1\Dual-core_Communication_Demo\Dual-core_Communication_Demo\SLAVE\obj/../Libraries/wch_libraries/Peripheral/ch32v10x_gpio.c:138
      currentpin = ((GPIO_InitStruct->GPIO_Pin) & pos);
    1026:	fc842783          	lw	a5,-56(s0)
    102a:	0007d783          	lhu	a5,0(a5)
    102e:	873e                	mv	a4,a5
    1030:	fdc42783          	lw	a5,-36(s0)
    1034:	8ff9                	and	a5,a5,a4
    1036:	fef42023          	sw	a5,-32(s0)
C:\Users\windows\Desktop\A_Dual\A_Dual1\Dual-core_Communication_Demo\Dual-core_Communication_Demo\SLAVE\obj/../Libraries/wch_libraries/Peripheral/ch32v10x_gpio.c:140
			
      if (currentpin == pos)
    103a:	fe042703          	lw	a4,-32(s0)
    103e:	fdc42783          	lw	a5,-36(s0)
    1042:	08f71263          	bne	a4,a5,10c6 <GPIO_Init+0x204>
C:\Users\windows\Desktop\A_Dual\A_Dual1\Dual-core_Communication_Demo\Dual-core_Communication_Demo\SLAVE\obj/../Libraries/wch_libraries/Peripheral/ch32v10x_gpio.c:142
      {
        pos = pinpos << 2;
    1046:	fe842783          	lw	a5,-24(s0)
    104a:	078a                	slli	a5,a5,0x2
    104c:	fcf42e23          	sw	a5,-36(s0)
C:\Users\windows\Desktop\A_Dual\A_Dual1\Dual-core_Communication_Demo\Dual-core_Communication_Demo\SLAVE\obj/../Libraries/wch_libraries/Peripheral/ch32v10x_gpio.c:143
        pinmask = ((uint32_t)0x0F) << pos;
    1050:	fdc42783          	lw	a5,-36(s0)
    1054:	473d                	li	a4,15
    1056:	00f717b3          	sll	a5,a4,a5
    105a:	fcf42c23          	sw	a5,-40(s0)
C:\Users\windows\Desktop\A_Dual\A_Dual1\Dual-core_Communication_Demo\Dual-core_Communication_Demo\SLAVE\obj/../Libraries/wch_libraries/Peripheral/ch32v10x_gpio.c:144
        tmpreg &= ~pinmask;
    105e:	fd842783          	lw	a5,-40(s0)
    1062:	fff7c793          	not	a5,a5
    1066:	fe442703          	lw	a4,-28(s0)
    106a:	8ff9                	and	a5,a5,a4
    106c:	fef42223          	sw	a5,-28(s0)
C:\Users\windows\Desktop\A_Dual\A_Dual1\Dual-core_Communication_Demo\Dual-core_Communication_Demo\SLAVE\obj/../Libraries/wch_libraries/Peripheral/ch32v10x_gpio.c:145
        tmpreg |= (currentmode << pos);
    1070:	fdc42783          	lw	a5,-36(s0)
    1074:	fec42703          	lw	a4,-20(s0)
    1078:	00f717b3          	sll	a5,a4,a5
    107c:	fe442703          	lw	a4,-28(s0)
    1080:	8fd9                	or	a5,a5,a4
    1082:	fef42223          	sw	a5,-28(s0)
C:\Users\windows\Desktop\A_Dual\A_Dual1\Dual-core_Communication_Demo\Dual-core_Communication_Demo\SLAVE\obj/../Libraries/wch_libraries/Peripheral/ch32v10x_gpio.c:147

        if (GPIO_InitStruct->GPIO_Mode == GPIO_Mode_IPD)
    1086:	fc842783          	lw	a5,-56(s0)
    108a:	4798                	lw	a4,8(a5)
    108c:	02800793          	li	a5,40
    1090:	00f71b63          	bne	a4,a5,10a6 <GPIO_Init+0x1e4>
C:\Users\windows\Desktop\A_Dual\A_Dual1\Dual-core_Communication_Demo\Dual-core_Communication_Demo\SLAVE\obj/../Libraries/wch_libraries/Peripheral/ch32v10x_gpio.c:149
        {
          GPIOx->BCR = (((uint32_t)0x01) << (pinpos + 0x08));
    1094:	fe842783          	lw	a5,-24(s0)
    1098:	07a1                	addi	a5,a5,8
    109a:	4705                	li	a4,1
    109c:	00f71733          	sll	a4,a4,a5
    10a0:	fcc42783          	lw	a5,-52(s0)
    10a4:	cbd8                	sw	a4,20(a5)
C:\Users\windows\Desktop\A_Dual\A_Dual1\Dual-core_Communication_Demo\Dual-core_Communication_Demo\SLAVE\obj/../Libraries/wch_libraries/Peripheral/ch32v10x_gpio.c:152
        }

        if (GPIO_InitStruct->GPIO_Mode == GPIO_Mode_IPU)
    10a6:	fc842783          	lw	a5,-56(s0)
    10aa:	4798                	lw	a4,8(a5)
    10ac:	04800793          	li	a5,72
    10b0:	00f71b63          	bne	a4,a5,10c6 <GPIO_Init+0x204>
C:\Users\windows\Desktop\A_Dual\A_Dual1\Dual-core_Communication_Demo\Dual-core_Communication_Demo\SLAVE\obj/../Libraries/wch_libraries/Peripheral/ch32v10x_gpio.c:154
        {
          GPIOx->BSHR = (((uint32_t)0x01) << (pinpos + 0x08));
    10b4:	fe842783          	lw	a5,-24(s0)
    10b8:	07a1                	addi	a5,a5,8
    10ba:	4705                	li	a4,1
    10bc:	00f71733          	sll	a4,a4,a5
    10c0:	fcc42783          	lw	a5,-52(s0)
    10c4:	cb98                	sw	a4,16(a5)
C:\Users\windows\Desktop\A_Dual\A_Dual1\Dual-core_Communication_Demo\Dual-core_Communication_Demo\SLAVE\obj/../Libraries/wch_libraries/Peripheral/ch32v10x_gpio.c:135 (discriminator 2)
    for (pinpos = 0x00; pinpos < 0x08; pinpos++)
    10c6:	fe842783          	lw	a5,-24(s0)
    10ca:	0785                	addi	a5,a5,1
    10cc:	fef42423          	sw	a5,-24(s0)
C:\Users\windows\Desktop\A_Dual\A_Dual1\Dual-core_Communication_Demo\Dual-core_Communication_Demo\SLAVE\obj/../Libraries/wch_libraries/Peripheral/ch32v10x_gpio.c:135 (discriminator 1)
    10d0:	fe842703          	lw	a4,-24(s0)
    10d4:	479d                	li	a5,7
    10d6:	f4e7f0e3          	bgeu	a5,a4,1016 <GPIO_Init+0x154>
C:\Users\windows\Desktop\A_Dual\A_Dual1\Dual-core_Communication_Demo\Dual-core_Communication_Demo\SLAVE\obj/../Libraries/wch_libraries/Peripheral/ch32v10x_gpio.c:158
        }
      }
    }
    GPIOx->CFGHR = tmpreg;
    10da:	fcc42783          	lw	a5,-52(s0)
    10de:	fe442703          	lw	a4,-28(s0)
    10e2:	c3d8                	sw	a4,4(a5)
C:\Users\windows\Desktop\A_Dual\A_Dual1\Dual-core_Communication_Demo\Dual-core_Communication_Demo\SLAVE\obj/../Libraries/wch_libraries/Peripheral/ch32v10x_gpio.c:160
  }
}
    10e4:	0001                	nop
    10e6:	5472                	lw	s0,60(sp)
    10e8:	6121                	addi	sp,sp,64
    10ea:	8082                	ret

000010ec <GPIO_WriteBit>:
GPIO_WriteBit():
C:\Users\windows\Desktop\A_Dual\A_Dual1\Dual-core_Communication_Demo\Dual-core_Communication_Demo\SLAVE\obj/../Libraries/wch_libraries/Peripheral/ch32v10x_gpio.c:282
*                    Bit_SetL: to clear the port pin.
*                    Bit_SetH: to set the port pin.                  
* Return         : None
*******************************************************************************/
void GPIO_WriteBit(GPIO_TypeDef* GPIOx, uint16_t GPIO_Pin, BitAction BitVal)
{
    10ec:	1101                	addi	sp,sp,-32
    10ee:	ce22                	sw	s0,28(sp)
    10f0:	1000                	addi	s0,sp,32
    10f2:	fea42623          	sw	a0,-20(s0)
    10f6:	87ae                	mv	a5,a1
    10f8:	fec42223          	sw	a2,-28(s0)
    10fc:	fef41523          	sh	a5,-22(s0)
C:\Users\windows\Desktop\A_Dual\A_Dual1\Dual-core_Communication_Demo\Dual-core_Communication_Demo\SLAVE\obj/../Libraries/wch_libraries/Peripheral/ch32v10x_gpio.c:283
  if (BitVal != Bit_RESET)
    1100:	fe442783          	lw	a5,-28(s0)
    1104:	c799                	beqz	a5,1112 <GPIO_WriteBit+0x26>
C:\Users\windows\Desktop\A_Dual\A_Dual1\Dual-core_Communication_Demo\Dual-core_Communication_Demo\SLAVE\obj/../Libraries/wch_libraries/Peripheral/ch32v10x_gpio.c:285
  {
    GPIOx->BSHR = GPIO_Pin;
    1106:	fea45703          	lhu	a4,-22(s0)
    110a:	fec42783          	lw	a5,-20(s0)
    110e:	cb98                	sw	a4,16(a5)
C:\Users\windows\Desktop\A_Dual\A_Dual1\Dual-core_Communication_Demo\Dual-core_Communication_Demo\SLAVE\obj/../Libraries/wch_libraries/Peripheral/ch32v10x_gpio.c:291
  }
  else
  {
    GPIOx->BCR = GPIO_Pin;
  }
}
    1110:	a031                	j	111c <GPIO_WriteBit+0x30>
C:\Users\windows\Desktop\A_Dual\A_Dual1\Dual-core_Communication_Demo\Dual-core_Communication_Demo\SLAVE\obj/../Libraries/wch_libraries/Peripheral/ch32v10x_gpio.c:289
    GPIOx->BCR = GPIO_Pin;
    1112:	fea45703          	lhu	a4,-22(s0)
    1116:	fec42783          	lw	a5,-20(s0)
    111a:	cbd8                	sw	a4,20(a5)
C:\Users\windows\Desktop\A_Dual\A_Dual1\Dual-core_Communication_Demo\Dual-core_Communication_Demo\SLAVE\obj/../Libraries/wch_libraries/Peripheral/ch32v10x_gpio.c:291
}
    111c:	0001                	nop
    111e:	4472                	lw	s0,28(sp)
    1120:	6105                	addi	sp,sp,32
    1122:	8082                	ret

00001124 <GPIO_PinRemapConfig>:
GPIO_PinRemapConfig():
C:\Users\windows\Desktop\A_Dual\A_Dual1\Dual-core_Communication_Demo\Dual-core_Communication_Demo\SLAVE\obj/../Libraries/wch_libraries/Peripheral/ch32v10x_gpio.c:402
*      only for High density Value line devices)     
*                  NewState: ENABLE or DISABLE.             
* Return         : None
*******************************************************************************/
void GPIO_PinRemapConfig(uint32_t GPIO_Remap, FunctionalState NewState)
{
    1124:	7179                	addi	sp,sp,-48
    1126:	d622                	sw	s0,44(sp)
    1128:	1800                	addi	s0,sp,48
    112a:	fca42e23          	sw	a0,-36(s0)
    112e:	fcb42c23          	sw	a1,-40(s0)
C:\Users\windows\Desktop\A_Dual\A_Dual1\Dual-core_Communication_Demo\Dual-core_Communication_Demo\SLAVE\obj/../Libraries/wch_libraries/Peripheral/ch32v10x_gpio.c:403
  uint32_t tmp = 0x00, tmp1 = 0x00, tmpreg = 0x00, tmpmask = 0x00;
    1132:	fe042423          	sw	zero,-24(s0)
    1136:	fe042223          	sw	zero,-28(s0)
    113a:	fe042623          	sw	zero,-20(s0)
    113e:	fe042023          	sw	zero,-32(s0)
C:\Users\windows\Desktop\A_Dual\A_Dual1\Dual-core_Communication_Demo\Dual-core_Communication_Demo\SLAVE\obj/../Libraries/wch_libraries/Peripheral/ch32v10x_gpio.c:405

  if((GPIO_Remap & 0x80000000) == 0x80000000)
    1142:	fdc42783          	lw	a5,-36(s0)
    1146:	0007d863          	bgez	a5,1156 <GPIO_PinRemapConfig+0x32>
C:\Users\windows\Desktop\A_Dual\A_Dual1\Dual-core_Communication_Demo\Dual-core_Communication_Demo\SLAVE\obj/../Libraries/wch_libraries/Peripheral/ch32v10x_gpio.c:407
  {
    tmpreg = AFIO->PCFR2;
    114a:	400107b7          	lui	a5,0x40010
    114e:	4fdc                	lw	a5,28(a5)
    1150:	fef42623          	sw	a5,-20(s0)
    1154:	a031                	j	1160 <GPIO_PinRemapConfig+0x3c>
C:\Users\windows\Desktop\A_Dual\A_Dual1\Dual-core_Communication_Demo\Dual-core_Communication_Demo\SLAVE\obj/../Libraries/wch_libraries/Peripheral/ch32v10x_gpio.c:411
  }
  else
  {
    tmpreg = AFIO->PCFR1;
    1156:	400107b7          	lui	a5,0x40010
    115a:	43dc                	lw	a5,4(a5)
    115c:	fef42623          	sw	a5,-20(s0)
C:\Users\windows\Desktop\A_Dual\A_Dual1\Dual-core_Communication_Demo\Dual-core_Communication_Demo\SLAVE\obj/../Libraries/wch_libraries/Peripheral/ch32v10x_gpio.c:414
  }

  tmpmask = (GPIO_Remap & DBGAFR_POSITION_MASK) >> 0x10;
    1160:	fdc42783          	lw	a5,-36(s0)
    1164:	83c1                	srli	a5,a5,0x10
    1166:	8bbd                	andi	a5,a5,15
    1168:	fef42023          	sw	a5,-32(s0)
C:\Users\windows\Desktop\A_Dual\A_Dual1\Dual-core_Communication_Demo\Dual-core_Communication_Demo\SLAVE\obj/../Libraries/wch_libraries/Peripheral/ch32v10x_gpio.c:415
  tmp = GPIO_Remap & LSB_MASK;
    116c:	fdc42703          	lw	a4,-36(s0)
    1170:	67c1                	lui	a5,0x10
    1172:	17fd                	addi	a5,a5,-1
    1174:	8ff9                	and	a5,a5,a4
    1176:	fef42423          	sw	a5,-24(s0)
C:\Users\windows\Desktop\A_Dual\A_Dual1\Dual-core_Communication_Demo\Dual-core_Communication_Demo\SLAVE\obj/../Libraries/wch_libraries/Peripheral/ch32v10x_gpio.c:417

  if ((GPIO_Remap & (DBGAFR_LOCATION_MASK | DBGAFR_NUMBITS_MASK)) == (DBGAFR_LOCATION_MASK | DBGAFR_NUMBITS_MASK))
    117a:	fdc42703          	lw	a4,-36(s0)
    117e:	003007b7          	lui	a5,0x300
    1182:	8f7d                	and	a4,a4,a5
    1184:	003007b7          	lui	a5,0x300
    1188:	02f71563          	bne	a4,a5,11b2 <GPIO_PinRemapConfig+0x8e>
C:\Users\windows\Desktop\A_Dual\A_Dual1\Dual-core_Communication_Demo\Dual-core_Communication_Demo\SLAVE\obj/../Libraries/wch_libraries/Peripheral/ch32v10x_gpio.c:419
  {
    tmpreg &= DBGAFR_SWJCFG_MASK;
    118c:	fec42703          	lw	a4,-20(s0)
    1190:	f10007b7          	lui	a5,0xf1000
    1194:	17fd                	addi	a5,a5,-1
    1196:	8ff9                	and	a5,a5,a4
    1198:	fef42623          	sw	a5,-20(s0)
C:\Users\windows\Desktop\A_Dual\A_Dual1\Dual-core_Communication_Demo\Dual-core_Communication_Demo\SLAVE\obj/../Libraries/wch_libraries/Peripheral/ch32v10x_gpio.c:420
    AFIO->PCFR1 &= DBGAFR_SWJCFG_MASK;
    119c:	400107b7          	lui	a5,0x40010
    11a0:	43d4                	lw	a3,4(a5)
    11a2:	400107b7          	lui	a5,0x40010
    11a6:	f1000737          	lui	a4,0xf1000
    11aa:	177d                	addi	a4,a4,-1
    11ac:	8f75                	and	a4,a4,a3
    11ae:	c3d8                	sw	a4,4(a5)
    11b0:	a0ad                	j	121a <GPIO_PinRemapConfig+0xf6>
C:\Users\windows\Desktop\A_Dual\A_Dual1\Dual-core_Communication_Demo\Dual-core_Communication_Demo\SLAVE\obj/../Libraries/wch_libraries/Peripheral/ch32v10x_gpio.c:422
  }
  else if ((GPIO_Remap & DBGAFR_NUMBITS_MASK) == DBGAFR_NUMBITS_MASK)
    11b2:	fdc42703          	lw	a4,-36(s0)
    11b6:	001007b7          	lui	a5,0x100
    11ba:	8ff9                	and	a5,a5,a4
    11bc:	cb8d                	beqz	a5,11ee <GPIO_PinRemapConfig+0xca>
C:\Users\windows\Desktop\A_Dual\A_Dual1\Dual-core_Communication_Demo\Dual-core_Communication_Demo\SLAVE\obj/../Libraries/wch_libraries/Peripheral/ch32v10x_gpio.c:424
  {
    tmp1 = ((uint32_t)0x03) << tmpmask;
    11be:	fe042783          	lw	a5,-32(s0)
    11c2:	470d                	li	a4,3
    11c4:	00f717b3          	sll	a5,a4,a5
    11c8:	fef42223          	sw	a5,-28(s0)
C:\Users\windows\Desktop\A_Dual\A_Dual1\Dual-core_Communication_Demo\Dual-core_Communication_Demo\SLAVE\obj/../Libraries/wch_libraries/Peripheral/ch32v10x_gpio.c:425
    tmpreg &= ~tmp1;
    11cc:	fe442783          	lw	a5,-28(s0)
    11d0:	fff7c793          	not	a5,a5
    11d4:	fec42703          	lw	a4,-20(s0)
    11d8:	8ff9                	and	a5,a5,a4
    11da:	fef42623          	sw	a5,-20(s0)
C:\Users\windows\Desktop\A_Dual\A_Dual1\Dual-core_Communication_Demo\Dual-core_Communication_Demo\SLAVE\obj/../Libraries/wch_libraries/Peripheral/ch32v10x_gpio.c:426
    tmpreg |= ~DBGAFR_SWJCFG_MASK;
    11de:	fec42703          	lw	a4,-20(s0)
    11e2:	0f0007b7          	lui	a5,0xf000
    11e6:	8fd9                	or	a5,a5,a4
    11e8:	fef42623          	sw	a5,-20(s0)
    11ec:	a03d                	j	121a <GPIO_PinRemapConfig+0xf6>
C:\Users\windows\Desktop\A_Dual\A_Dual1\Dual-core_Communication_Demo\Dual-core_Communication_Demo\SLAVE\obj/../Libraries/wch_libraries/Peripheral/ch32v10x_gpio.c:430
  }
  else
  {
    tmpreg &= ~(tmp << ((GPIO_Remap >> 0x15)*0x10));
    11ee:	fdc42783          	lw	a5,-36(s0)
    11f2:	83d5                	srli	a5,a5,0x15
    11f4:	0792                	slli	a5,a5,0x4
    11f6:	fe842703          	lw	a4,-24(s0)
    11fa:	00f717b3          	sll	a5,a4,a5
    11fe:	fff7c793          	not	a5,a5
    1202:	fec42703          	lw	a4,-20(s0)
    1206:	8ff9                	and	a5,a5,a4
    1208:	fef42623          	sw	a5,-20(s0)
C:\Users\windows\Desktop\A_Dual\A_Dual1\Dual-core_Communication_Demo\Dual-core_Communication_Demo\SLAVE\obj/../Libraries/wch_libraries/Peripheral/ch32v10x_gpio.c:431
    tmpreg |= ~DBGAFR_SWJCFG_MASK;
    120c:	fec42703          	lw	a4,-20(s0)
    1210:	0f0007b7          	lui	a5,0xf000
    1214:	8fd9                	or	a5,a5,a4
    1216:	fef42623          	sw	a5,-20(s0)
C:\Users\windows\Desktop\A_Dual\A_Dual1\Dual-core_Communication_Demo\Dual-core_Communication_Demo\SLAVE\obj/../Libraries/wch_libraries/Peripheral/ch32v10x_gpio.c:434
  }

  if (NewState != DISABLE)
    121a:	fd842783          	lw	a5,-40(s0)
    121e:	cf91                	beqz	a5,123a <GPIO_PinRemapConfig+0x116>
C:\Users\windows\Desktop\A_Dual\A_Dual1\Dual-core_Communication_Demo\Dual-core_Communication_Demo\SLAVE\obj/../Libraries/wch_libraries/Peripheral/ch32v10x_gpio.c:436
  {
    tmpreg |= (tmp << ((GPIO_Remap >> 0x15)*0x10));
    1220:	fdc42783          	lw	a5,-36(s0)
    1224:	83d5                	srli	a5,a5,0x15
    1226:	0792                	slli	a5,a5,0x4
    1228:	fe842703          	lw	a4,-24(s0)
    122c:	00f717b3          	sll	a5,a4,a5
    1230:	fec42703          	lw	a4,-20(s0)
    1234:	8fd9                	or	a5,a5,a4
    1236:	fef42623          	sw	a5,-20(s0)
C:\Users\windows\Desktop\A_Dual\A_Dual1\Dual-core_Communication_Demo\Dual-core_Communication_Demo\SLAVE\obj/../Libraries/wch_libraries/Peripheral/ch32v10x_gpio.c:439
  }

  if((GPIO_Remap & 0x80000000) == 0x80000000)
    123a:	fdc42783          	lw	a5,-36(s0)
    123e:	0007d863          	bgez	a5,124e <GPIO_PinRemapConfig+0x12a>
C:\Users\windows\Desktop\A_Dual\A_Dual1\Dual-core_Communication_Demo\Dual-core_Communication_Demo\SLAVE\obj/../Libraries/wch_libraries/Peripheral/ch32v10x_gpio.c:441
  {
    AFIO->PCFR2 = tmpreg;
    1242:	400107b7          	lui	a5,0x40010
    1246:	fec42703          	lw	a4,-20(s0)
    124a:	cfd8                	sw	a4,28(a5)
C:\Users\windows\Desktop\A_Dual\A_Dual1\Dual-core_Communication_Demo\Dual-core_Communication_Demo\SLAVE\obj/../Libraries/wch_libraries/Peripheral/ch32v10x_gpio.c:447
  }
  else
  {
    AFIO->PCFR1 = tmpreg;
  }  
}
    124c:	a031                	j	1258 <GPIO_PinRemapConfig+0x134>
C:\Users\windows\Desktop\A_Dual\A_Dual1\Dual-core_Communication_Demo\Dual-core_Communication_Demo\SLAVE\obj/../Libraries/wch_libraries/Peripheral/ch32v10x_gpio.c:445
    AFIO->PCFR1 = tmpreg;
    124e:	400107b7          	lui	a5,0x40010
    1252:	fec42703          	lw	a4,-20(s0)
    1256:	c3d8                	sw	a4,4(a5)
C:\Users\windows\Desktop\A_Dual\A_Dual1\Dual-core_Communication_Demo\Dual-core_Communication_Demo\SLAVE\obj/../Libraries/wch_libraries/Peripheral/ch32v10x_gpio.c:447
}
    1258:	0001                	nop
    125a:	5432                	lw	s0,44(sp)
    125c:	6145                	addi	sp,sp,48
    125e:	8082                	ret

00001260 <GPIO_EXTILineConfig>:
GPIO_EXTILineConfig():
C:\Users\windows\Desktop\A_Dual\A_Dual1\Dual-core_Communication_Demo\Dual-core_Communication_Demo\SLAVE\obj/../Libraries/wch_libraries/Peripheral/ch32v10x_gpio.c:459
*                  GPIO_PinSource: specifies the EXTI line to be configured.
*                    This parameter can be GPIO_PinSourcex where x can be (0..15).
* Return         : None
*******************************************************************************/
void GPIO_EXTILineConfig(uint8_t GPIO_PortSource, uint8_t GPIO_PinSource)
{
    1260:	7179                	addi	sp,sp,-48
    1262:	d622                	sw	s0,44(sp)
    1264:	1800                	addi	s0,sp,48
    1266:	87aa                	mv	a5,a0
    1268:	872e                	mv	a4,a1
    126a:	fcf40fa3          	sb	a5,-33(s0)
    126e:	87ba                	mv	a5,a4
    1270:	fcf40f23          	sb	a5,-34(s0)
C:\Users\windows\Desktop\A_Dual\A_Dual1\Dual-core_Communication_Demo\Dual-core_Communication_Demo\SLAVE\obj/../Libraries/wch_libraries/Peripheral/ch32v10x_gpio.c:460
  uint32_t tmp = 0x00;
    1274:	fe042623          	sw	zero,-20(s0)
C:\Users\windows\Desktop\A_Dual\A_Dual1\Dual-core_Communication_Demo\Dual-core_Communication_Demo\SLAVE\obj/../Libraries/wch_libraries/Peripheral/ch32v10x_gpio.c:462

  tmp = ((uint32_t)0x0F) << (0x04 * (GPIO_PinSource & (uint8_t)0x03));
    1278:	fde44783          	lbu	a5,-34(s0)
    127c:	8b8d                	andi	a5,a5,3
    127e:	078a                	slli	a5,a5,0x2
    1280:	473d                	li	a4,15
    1282:	00f717b3          	sll	a5,a4,a5
    1286:	fef42623          	sw	a5,-20(s0)
C:\Users\windows\Desktop\A_Dual\A_Dual1\Dual-core_Communication_Demo\Dual-core_Communication_Demo\SLAVE\obj/../Libraries/wch_libraries/Peripheral/ch32v10x_gpio.c:463
  AFIO->EXTICR[GPIO_PinSource >> 0x02] &= ~tmp;
    128a:	40010737          	lui	a4,0x40010
    128e:	fde44783          	lbu	a5,-34(s0)
    1292:	8389                	srli	a5,a5,0x2
    1294:	0ff7f793          	andi	a5,a5,255
    1298:	078a                	slli	a5,a5,0x2
    129a:	97ba                	add	a5,a5,a4
    129c:	4798                	lw	a4,8(a5)
    129e:	fec42783          	lw	a5,-20(s0)
    12a2:	fff7c793          	not	a5,a5
    12a6:	400106b7          	lui	a3,0x40010
    12aa:	fde44603          	lbu	a2,-34(s0)
    12ae:	8209                	srli	a2,a2,0x2
    12b0:	0ff67613          	andi	a2,a2,255
    12b4:	8f7d                	and	a4,a4,a5
    12b6:	00261793          	slli	a5,a2,0x2
    12ba:	97b6                	add	a5,a5,a3
    12bc:	c798                	sw	a4,8(a5)
C:\Users\windows\Desktop\A_Dual\A_Dual1\Dual-core_Communication_Demo\Dual-core_Communication_Demo\SLAVE\obj/../Libraries/wch_libraries/Peripheral/ch32v10x_gpio.c:464
  AFIO->EXTICR[GPIO_PinSource >> 0x02] |= (((uint32_t)GPIO_PortSource) << (0x04 * (GPIO_PinSource & (uint8_t)0x03)));
    12be:	40010737          	lui	a4,0x40010
    12c2:	fde44783          	lbu	a5,-34(s0)
    12c6:	8389                	srli	a5,a5,0x2
    12c8:	0ff7f793          	andi	a5,a5,255
    12cc:	078a                	slli	a5,a5,0x2
    12ce:	97ba                	add	a5,a5,a4
    12d0:	4798                	lw	a4,8(a5)
    12d2:	fdf44683          	lbu	a3,-33(s0)
    12d6:	fde44783          	lbu	a5,-34(s0)
    12da:	8b8d                	andi	a5,a5,3
    12dc:	078a                	slli	a5,a5,0x2
    12de:	00f697b3          	sll	a5,a3,a5
    12e2:	400106b7          	lui	a3,0x40010
    12e6:	fde44603          	lbu	a2,-34(s0)
    12ea:	8209                	srli	a2,a2,0x2
    12ec:	0ff67613          	andi	a2,a2,255
    12f0:	8f5d                	or	a4,a4,a5
    12f2:	00261793          	slli	a5,a2,0x2
    12f6:	97b6                	add	a5,a5,a3
    12f8:	c798                	sw	a4,8(a5)
C:\Users\windows\Desktop\A_Dual\A_Dual1\Dual-core_Communication_Demo\Dual-core_Communication_Demo\SLAVE\obj/../Libraries/wch_libraries/Peripheral/ch32v10x_gpio.c:465
}
    12fa:	0001                	nop
    12fc:	5432                	lw	s0,44(sp)
    12fe:	6145                	addi	sp,sp,48
    1300:	8082                	ret

00001302 <NVIC_EnableIRQ>:
NVIC_EnableIRQ():
C:\Users\windows\Desktop\A_Dual\A_Dual1\Dual-core_Communication_Demo\Dual-core_Communication_Demo\SLAVE\obj/../Libraries/wch_libraries/Core/core_riscv.h:126
* Function Name  : NVIC_EnableIRQ
* Description    : Enable Interrupt
* Input          : IRQn: Interrupt Numbers
* Return         : None
*******************************************************************************/
RV_STATIC_INLINE void NVIC_EnableIRQ(IRQn_Type IRQn){
    1302:	1101                	addi	sp,sp,-32
    1304:	ce22                	sw	s0,28(sp)
    1306:	1000                	addi	s0,sp,32
    1308:	fea42623          	sw	a0,-20(s0)
C:\Users\windows\Desktop\A_Dual\A_Dual1\Dual-core_Communication_Demo\Dual-core_Communication_Demo\SLAVE\obj/../Libraries/wch_libraries/Core/core_riscv.h:127
  NVIC->IENR[((uint32_t)(IRQn) >> 5)] = (1 << ((uint32_t)(IRQn) & 0x1F));
    130c:	fec42783          	lw	a5,-20(s0)
    1310:	8bfd                	andi	a5,a5,31
    1312:	4705                	li	a4,1
    1314:	00f716b3          	sll	a3,a4,a5
    1318:	e000e737          	lui	a4,0xe000e
    131c:	fec42783          	lw	a5,-20(s0)
    1320:	8395                	srli	a5,a5,0x5
    1322:	04078793          	addi	a5,a5,64 # 40010040 <_eusrstack+0x2000b040>
    1326:	078a                	slli	a5,a5,0x2
    1328:	97ba                	add	a5,a5,a4
    132a:	c394                	sw	a3,0(a5)
C:\Users\windows\Desktop\A_Dual\A_Dual1\Dual-core_Communication_Demo\Dual-core_Communication_Demo\SLAVE\obj/../Libraries/wch_libraries/Core/core_riscv.h:128
}
    132c:	0001                	nop
    132e:	4472                	lw	s0,28(sp)
    1330:	6105                	addi	sp,sp,32
    1332:	8082                	ret

00001334 <NVIC_DisableIRQ>:
NVIC_DisableIRQ():
C:\Users\windows\Desktop\A_Dual\A_Dual1\Dual-core_Communication_Demo\Dual-core_Communication_Demo\SLAVE\obj/../Libraries/wch_libraries/Core/core_riscv.h:137
* Description    : Disable Interrupt
* Input          : IRQn: Interrupt Numbers
* Return         : None
*******************************************************************************/
RV_STATIC_INLINE void NVIC_DisableIRQ(IRQn_Type IRQn)
{
    1334:	1101                	addi	sp,sp,-32
    1336:	ce22                	sw	s0,28(sp)
    1338:	1000                	addi	s0,sp,32
    133a:	fea42623          	sw	a0,-20(s0)
C:\Users\windows\Desktop\A_Dual\A_Dual1\Dual-core_Communication_Demo\Dual-core_Communication_Demo\SLAVE\obj/../Libraries/wch_libraries/Core/core_riscv.h:138
  NVIC->IRER[((uint32_t)(IRQn) >> 5)] = (1 << ((uint32_t)(IRQn) & 0x1F));
    133e:	fec42783          	lw	a5,-20(s0)
    1342:	8bfd                	andi	a5,a5,31
    1344:	4705                	li	a4,1
    1346:	00f716b3          	sll	a3,a4,a5
    134a:	e000e737          	lui	a4,0xe000e
    134e:	fec42783          	lw	a5,-20(s0)
    1352:	8395                	srli	a5,a5,0x5
    1354:	06078793          	addi	a5,a5,96
    1358:	078a                	slli	a5,a5,0x2
    135a:	97ba                	add	a5,a5,a4
    135c:	c394                	sw	a3,0(a5)
C:\Users\windows\Desktop\A_Dual\A_Dual1\Dual-core_Communication_Demo\Dual-core_Communication_Demo\SLAVE\obj/../Libraries/wch_libraries/Core/core_riscv.h:139
}
    135e:	0001                	nop
    1360:	4472                	lw	s0,28(sp)
    1362:	6105                	addi	sp,sp,32
    1364:	8082                	ret

00001366 <NVIC_SetPriority>:
NVIC_SetPriority():
C:\Users\windows\Desktop\A_Dual\A_Dual1\Dual-core_Communication_Demo\Dual-core_Communication_Demo\SLAVE\obj/../Libraries/wch_libraries/Core/core_riscv.h:208
*                  priority: bit7:pre-emption priority
*                            bit6-bit4: subpriority
* Return         : None
*******************************************************************************/
RV_STATIC_INLINE void NVIC_SetPriority(IRQn_Type IRQn, uint8_t priority)
{
    1366:	1101                	addi	sp,sp,-32
    1368:	ce22                	sw	s0,28(sp)
    136a:	1000                	addi	s0,sp,32
    136c:	fea42623          	sw	a0,-20(s0)
    1370:	87ae                	mv	a5,a1
    1372:	fef405a3          	sb	a5,-21(s0)
C:\Users\windows\Desktop\A_Dual\A_Dual1\Dual-core_Communication_Demo\Dual-core_Communication_Demo\SLAVE\obj/../Libraries/wch_libraries/Core/core_riscv.h:209
  NVIC->IPRIOR[(uint32_t)(IRQn)] = priority;
    1376:	e000e737          	lui	a4,0xe000e
    137a:	fec42783          	lw	a5,-20(s0)
    137e:	97ba                	add	a5,a5,a4
    1380:	feb44703          	lbu	a4,-21(s0)
    1384:	40e78023          	sb	a4,1024(a5)
C:\Users\windows\Desktop\A_Dual\A_Dual1\Dual-core_Communication_Demo\Dual-core_Communication_Demo\SLAVE\obj/../Libraries/wch_libraries/Core/core_riscv.h:210
}
    1388:	0001                	nop
    138a:	4472                	lw	s0,28(sp)
    138c:	6105                	addi	sp,sp,32
    138e:	8082                	ret

00001390 <NVIC_Init>:
NVIC_Init():
C:\Users\windows\Desktop\A_Dual\A_Dual1\Dual-core_Communication_Demo\Dual-core_Communication_Demo\SLAVE\obj/../Libraries/wch_libraries/Peripheral/ch32v10x_misc.c:44
* Input          : NVIC_InitStruct: pointer to a NVIC_InitTypeDef structure that contains the
*                                   configuration information for the specified NVIC peripheral.                 
* Return         : None
*******************************************************************************************/
void NVIC_Init(NVIC_InitTypeDef* NVIC_InitStruct)
{
    1390:	1101                	addi	sp,sp,-32
    1392:	ce06                	sw	ra,28(sp)
    1394:	cc22                	sw	s0,24(sp)
    1396:	1000                	addi	s0,sp,32
    1398:	fea42623          	sw	a0,-20(s0)
C:\Users\windows\Desktop\A_Dual\A_Dual1\Dual-core_Communication_Demo\Dual-core_Communication_Demo\SLAVE\obj/../Libraries/wch_libraries/Peripheral/ch32v10x_misc.c:47
	//uint8_t tmppre = 0;

	if((PFIC->CFGR&(1<<1)) != 0)                    //1
    139c:	e000e7b7          	lui	a5,0xe000e
    13a0:	47bc                	lw	a5,72(a5)
    13a2:	8b89                	andi	a5,a5,2
    13a4:	c38d                	beqz	a5,13c6 <NVIC_Init+0x36>
C:\Users\windows\Desktop\A_Dual\A_Dual1\Dual-core_Communication_Demo\Dual-core_Communication_Demo\SLAVE\obj/../Libraries/wch_libraries/Peripheral/ch32v10x_misc.c:49
	{
		NVIC_SetPriority( NVIC_InitStruct->NVIC_IRQChannel, NVIC_InitStruct->NVIC_IRQChannelSubPriority<<4);
    13a6:	fec42783          	lw	a5,-20(s0)
    13aa:	0007c783          	lbu	a5,0(a5) # e000e000 <_eusrstack+0xc0009000>
    13ae:	873e                	mv	a4,a5
    13b0:	fec42783          	lw	a5,-20(s0)
    13b4:	0027c783          	lbu	a5,2(a5)
    13b8:	0792                	slli	a5,a5,0x4
    13ba:	0ff7f793          	andi	a5,a5,255
    13be:	85be                	mv	a1,a5
    13c0:	853a                	mv	a0,a4
    13c2:	3755                	jal	1366 <NVIC_SetPriority>
    13c4:	a095                	j	1428 <NVIC_Init+0x98>
C:\Users\windows\Desktop\A_Dual\A_Dual1\Dual-core_Communication_Demo\Dual-core_Communication_Demo\SLAVE\obj/../Libraries/wch_libraries/Peripheral/ch32v10x_misc.c:51
	}
	else if((PFIC->CFGR&(1<<1)) == 0)               //0
    13c6:	e000e7b7          	lui	a5,0xe000e
    13ca:	47bc                	lw	a5,72(a5)
    13cc:	8b89                	andi	a5,a5,2
    13ce:	efa9                	bnez	a5,1428 <NVIC_Init+0x98>
C:\Users\windows\Desktop\A_Dual\A_Dual1\Dual-core_Communication_Demo\Dual-core_Communication_Demo\SLAVE\obj/../Libraries/wch_libraries/Peripheral/ch32v10x_misc.c:53
	{
        if(NVIC_InitStruct->NVIC_IRQChannelPreemptionPriority == 1)
    13d0:	fec42783          	lw	a5,-20(s0)
    13d4:	0017c703          	lbu	a4,1(a5) # e000e001 <_eusrstack+0xc0009001>
    13d8:	4785                	li	a5,1
    13da:	02f71863          	bne	a4,a5,140a <NVIC_Init+0x7a>
C:\Users\windows\Desktop\A_Dual\A_Dual1\Dual-core_Communication_Demo\Dual-core_Communication_Demo\SLAVE\obj/../Libraries/wch_libraries/Peripheral/ch32v10x_misc.c:55
        {
            NVIC_SetPriority( NVIC_InitStruct->NVIC_IRQChannel, (1<<7)|(NVIC_InitStruct->NVIC_IRQChannelSubPriority<<4));
    13de:	fec42783          	lw	a5,-20(s0)
    13e2:	0007c783          	lbu	a5,0(a5)
    13e6:	873e                	mv	a4,a5
    13e8:	fec42783          	lw	a5,-20(s0)
    13ec:	0027c783          	lbu	a5,2(a5)
    13f0:	0792                	slli	a5,a5,0x4
    13f2:	07e2                	slli	a5,a5,0x18
    13f4:	87e1                	srai	a5,a5,0x18
    13f6:	f807e793          	ori	a5,a5,-128
    13fa:	07e2                	slli	a5,a5,0x18
    13fc:	87e1                	srai	a5,a5,0x18
    13fe:	0ff7f793          	andi	a5,a5,255
    1402:	85be                	mv	a1,a5
    1404:	853a                	mv	a0,a4
    1406:	3785                	jal	1366 <NVIC_SetPriority>
    1408:	a005                	j	1428 <NVIC_Init+0x98>
C:\Users\windows\Desktop\A_Dual\A_Dual1\Dual-core_Communication_Demo\Dual-core_Communication_Demo\SLAVE\obj/../Libraries/wch_libraries/Peripheral/ch32v10x_misc.c:59
        }
        else
        {
            NVIC_SetPriority( NVIC_InitStruct->NVIC_IRQChannel, (0<<7)|(NVIC_InitStruct->NVIC_IRQChannelSubPriority<<4));
    140a:	fec42783          	lw	a5,-20(s0)
    140e:	0007c783          	lbu	a5,0(a5)
    1412:	873e                	mv	a4,a5
    1414:	fec42783          	lw	a5,-20(s0)
    1418:	0027c783          	lbu	a5,2(a5)
    141c:	0792                	slli	a5,a5,0x4
    141e:	0ff7f793          	andi	a5,a5,255
    1422:	85be                	mv	a1,a5
    1424:	853a                	mv	a0,a4
    1426:	3781                	jal	1366 <NVIC_SetPriority>
C:\Users\windows\Desktop\A_Dual\A_Dual1\Dual-core_Communication_Demo\Dual-core_Communication_Demo\SLAVE\obj/../Libraries/wch_libraries/Peripheral/ch32v10x_misc.c:93
//	else if(NVIC_Priority_Group == NVIC_PriorityGroup_4)
//	{
//		NVIC_SetPriority( NVIC_InitStruct->NVIC_IRQChannel, NVIC_InitStruct->NVIC_IRQChannelPreemptionPriority<<4);
//	}

  if (NVIC_InitStruct->NVIC_IRQChannelCmd != DISABLE)
    1428:	fec42783          	lw	a5,-20(s0)
    142c:	43dc                	lw	a5,4(a5)
    142e:	cb81                	beqz	a5,143e <NVIC_Init+0xae>
C:\Users\windows\Desktop\A_Dual\A_Dual1\Dual-core_Communication_Demo\Dual-core_Communication_Demo\SLAVE\obj/../Libraries/wch_libraries/Peripheral/ch32v10x_misc.c:95
  {
  	NVIC_EnableIRQ(NVIC_InitStruct->NVIC_IRQChannel);
    1430:	fec42783          	lw	a5,-20(s0)
    1434:	0007c783          	lbu	a5,0(a5)
    1438:	853e                	mv	a0,a5
    143a:	35e1                	jal	1302 <NVIC_EnableIRQ>
C:\Users\windows\Desktop\A_Dual\A_Dual1\Dual-core_Communication_Demo\Dual-core_Communication_Demo\SLAVE\obj/../Libraries/wch_libraries/Peripheral/ch32v10x_misc.c:101
  }
  else
  {
  	NVIC_DisableIRQ(NVIC_InitStruct->NVIC_IRQChannel);
  }
}
    143c:	a039                	j	144a <NVIC_Init+0xba>
C:\Users\windows\Desktop\A_Dual\A_Dual1\Dual-core_Communication_Demo\Dual-core_Communication_Demo\SLAVE\obj/../Libraries/wch_libraries/Peripheral/ch32v10x_misc.c:99
  	NVIC_DisableIRQ(NVIC_InitStruct->NVIC_IRQChannel);
    143e:	fec42783          	lw	a5,-20(s0)
    1442:	0007c783          	lbu	a5,0(a5)
    1446:	853e                	mv	a0,a5
    1448:	35f5                	jal	1334 <NVIC_DisableIRQ>
C:\Users\windows\Desktop\A_Dual\A_Dual1\Dual-core_Communication_Demo\Dual-core_Communication_Demo\SLAVE\obj/../Libraries/wch_libraries/Peripheral/ch32v10x_misc.c:101
}
    144a:	0001                	nop
    144c:	40f2                	lw	ra,28(sp)
    144e:	4462                	lw	s0,24(sp)
    1450:	6105                	addi	sp,sp,32
    1452:	8082                	ret

00001454 <RCC_GetClocksFreq>:
RCC_GetClocksFreq():
C:\Users\windows\Desktop\A_Dual\A_Dual1\Dual-core_Communication_Demo\Dual-core_Communication_Demo\SLAVE\obj/../Libraries/wch_libraries/Peripheral/ch32v10x_rcc.c:469
* Input          : The result of this function could be not correct when using
*      fractional value for HSE crystal.
* Return         : None
********************************************************************************/
void RCC_GetClocksFreq(RCC_ClocksTypeDef* RCC_Clocks)
{
    1454:	7179                	addi	sp,sp,-48
    1456:	d622                	sw	s0,44(sp)
    1458:	1800                	addi	s0,sp,48
    145a:	fca42e23          	sw	a0,-36(s0)
C:\Users\windows\Desktop\A_Dual\A_Dual1\Dual-core_Communication_Demo\Dual-core_Communication_Demo\SLAVE\obj/../Libraries/wch_libraries/Peripheral/ch32v10x_rcc.c:470
  uint32_t tmp = 0, pllmull = 0, pllsource = 0, presc = 0;
    145e:	fe042623          	sw	zero,-20(s0)
    1462:	fe042423          	sw	zero,-24(s0)
    1466:	fe042223          	sw	zero,-28(s0)
    146a:	fe042023          	sw	zero,-32(s0)
C:\Users\windows\Desktop\A_Dual\A_Dual1\Dual-core_Communication_Demo\Dual-core_Communication_Demo\SLAVE\obj/../Libraries/wch_libraries/Peripheral/ch32v10x_rcc.c:472
  
  tmp = RCC->CFGR0 & CFGR0_SWS_Mask;
    146e:	400217b7          	lui	a5,0x40021
    1472:	43dc                	lw	a5,4(a5)
    1474:	8bb1                	andi	a5,a5,12
    1476:	fef42623          	sw	a5,-20(s0)
    147a:	fec42703          	lw	a4,-20(s0)
    147e:	4791                	li	a5,4
    1480:	02f70263          	beq	a4,a5,14a4 <RCC_GetClocksFreq+0x50>
    1484:	fec42703          	lw	a4,-20(s0)
    1488:	47a1                	li	a5,8
    148a:	02f70563          	beq	a4,a5,14b4 <RCC_GetClocksFreq+0x60>
    148e:	fec42783          	lw	a5,-20(s0)
    1492:	e7c5                	bnez	a5,153a <RCC_GetClocksFreq+0xe6>
C:\Users\windows\Desktop\A_Dual\A_Dual1\Dual-core_Communication_Demo\Dual-core_Communication_Demo\SLAVE\obj/../Libraries/wch_libraries/Peripheral/ch32v10x_rcc.c:477
  
  switch (tmp)
  {
    case 0x00: 
      RCC_Clocks->SYSCLK_Frequency = HSI_VALUE;
    1494:	fdc42783          	lw	a5,-36(s0)
    1498:	007a1737          	lui	a4,0x7a1
    149c:	20070713          	addi	a4,a4,512 # 7a1200 <_data_lma+0x79af28>
    14a0:	c398                	sw	a4,0(a5)
C:\Users\windows\Desktop\A_Dual\A_Dual1\Dual-core_Communication_Demo\Dual-core_Communication_Demo\SLAVE\obj/../Libraries/wch_libraries/Peripheral/ch32v10x_rcc.c:478
      break;
    14a2:	a065                	j	154a <RCC_GetClocksFreq+0xf6>
C:\Users\windows\Desktop\A_Dual\A_Dual1\Dual-core_Communication_Demo\Dual-core_Communication_Demo\SLAVE\obj/../Libraries/wch_libraries/Peripheral/ch32v10x_rcc.c:481
		
    case 0x04:
      RCC_Clocks->SYSCLK_Frequency = HSE_VALUE;
    14a4:	fdc42783          	lw	a5,-36(s0)
    14a8:	007a1737          	lui	a4,0x7a1
    14ac:	20070713          	addi	a4,a4,512 # 7a1200 <_data_lma+0x79af28>
    14b0:	c398                	sw	a4,0(a5)
C:\Users\windows\Desktop\A_Dual\A_Dual1\Dual-core_Communication_Demo\Dual-core_Communication_Demo\SLAVE\obj/../Libraries/wch_libraries/Peripheral/ch32v10x_rcc.c:482
      break;
    14b2:	a861                	j	154a <RCC_GetClocksFreq+0xf6>
C:\Users\windows\Desktop\A_Dual\A_Dual1\Dual-core_Communication_Demo\Dual-core_Communication_Demo\SLAVE\obj/../Libraries/wch_libraries/Peripheral/ch32v10x_rcc.c:485
		
    case 0x08:
      pllmull = RCC->CFGR0 & CFGR0_PLLMull_Mask;
    14b4:	400217b7          	lui	a5,0x40021
    14b8:	43d8                	lw	a4,4(a5)
    14ba:	003c07b7          	lui	a5,0x3c0
    14be:	8ff9                	and	a5,a5,a4
    14c0:	fef42423          	sw	a5,-24(s0)
C:\Users\windows\Desktop\A_Dual\A_Dual1\Dual-core_Communication_Demo\Dual-core_Communication_Demo\SLAVE\obj/../Libraries/wch_libraries/Peripheral/ch32v10x_rcc.c:486
      pllsource = RCC->CFGR0 & CFGR0_PLLSRC_Mask;    
    14c4:	400217b7          	lui	a5,0x40021
    14c8:	43d8                	lw	a4,4(a5)
    14ca:	67c1                	lui	a5,0x10
    14cc:	8ff9                	and	a5,a5,a4
    14ce:	fef42223          	sw	a5,-28(s0)
C:\Users\windows\Desktop\A_Dual\A_Dual1\Dual-core_Communication_Demo\Dual-core_Communication_Demo\SLAVE\obj/../Libraries/wch_libraries/Peripheral/ch32v10x_rcc.c:487
      pllmull = ( pllmull >> 18) + 2;
    14d2:	fe842783          	lw	a5,-24(s0)
    14d6:	83c9                	srli	a5,a5,0x12
    14d8:	0789                	addi	a5,a5,2
    14da:	fef42423          	sw	a5,-24(s0)
C:\Users\windows\Desktop\A_Dual\A_Dual1\Dual-core_Communication_Demo\Dual-core_Communication_Demo\SLAVE\obj/../Libraries/wch_libraries/Peripheral/ch32v10x_rcc.c:489
      
      if (pllsource == 0x00)
    14de:	fe442783          	lw	a5,-28(s0)
    14e2:	ef89                	bnez	a5,14fc <RCC_GetClocksFreq+0xa8>
C:\Users\windows\Desktop\A_Dual\A_Dual1\Dual-core_Communication_Demo\Dual-core_Communication_Demo\SLAVE\obj/../Libraries/wch_libraries/Peripheral/ch32v10x_rcc.c:491
      {
        RCC_Clocks->SYSCLK_Frequency = (HSI_VALUE >> 1) * pllmull;
    14e4:	fe842703          	lw	a4,-24(s0)
    14e8:	003d17b7          	lui	a5,0x3d1
    14ec:	90078793          	addi	a5,a5,-1792 # 3d0900 <_data_lma+0x3ca628>
    14f0:	02f70733          	mul	a4,a4,a5
    14f4:	fdc42783          	lw	a5,-36(s0)
    14f8:	c398                	sw	a4,0(a5)
C:\Users\windows\Desktop\A_Dual\A_Dual1\Dual-core_Communication_Demo\Dual-core_Communication_Demo\SLAVE\obj/../Libraries/wch_libraries/Peripheral/ch32v10x_rcc.c:504
        else
        {
          RCC_Clocks->SYSCLK_Frequency = HSE_VALUE * pllmull;
        }
      } 
      break;
    14fa:	a881                	j	154a <RCC_GetClocksFreq+0xf6>
C:\Users\windows\Desktop\A_Dual\A_Dual1\Dual-core_Communication_Demo\Dual-core_Communication_Demo\SLAVE\obj/../Libraries/wch_libraries/Peripheral/ch32v10x_rcc.c:495
        if ((RCC->CFGR0 & CFGR0_PLLXTPRE_Mask) != (uint32_t)RESET)
    14fc:	400217b7          	lui	a5,0x40021
    1500:	43d8                	lw	a4,4(a5)
    1502:	000207b7          	lui	a5,0x20
    1506:	8ff9                	and	a5,a5,a4
    1508:	cf89                	beqz	a5,1522 <RCC_GetClocksFreq+0xce>
C:\Users\windows\Desktop\A_Dual\A_Dual1\Dual-core_Communication_Demo\Dual-core_Communication_Demo\SLAVE\obj/../Libraries/wch_libraries/Peripheral/ch32v10x_rcc.c:497
          RCC_Clocks->SYSCLK_Frequency = (HSE_VALUE >> 1) * pllmull;
    150a:	fe842703          	lw	a4,-24(s0)
    150e:	003d17b7          	lui	a5,0x3d1
    1512:	90078793          	addi	a5,a5,-1792 # 3d0900 <_data_lma+0x3ca628>
    1516:	02f70733          	mul	a4,a4,a5
    151a:	fdc42783          	lw	a5,-36(s0)
    151e:	c398                	sw	a4,0(a5)
C:\Users\windows\Desktop\A_Dual\A_Dual1\Dual-core_Communication_Demo\Dual-core_Communication_Demo\SLAVE\obj/../Libraries/wch_libraries/Peripheral/ch32v10x_rcc.c:504
      break;
    1520:	a02d                	j	154a <RCC_GetClocksFreq+0xf6>
C:\Users\windows\Desktop\A_Dual\A_Dual1\Dual-core_Communication_Demo\Dual-core_Communication_Demo\SLAVE\obj/../Libraries/wch_libraries/Peripheral/ch32v10x_rcc.c:501
          RCC_Clocks->SYSCLK_Frequency = HSE_VALUE * pllmull;
    1522:	fe842703          	lw	a4,-24(s0)
    1526:	007a17b7          	lui	a5,0x7a1
    152a:	20078793          	addi	a5,a5,512 # 7a1200 <_data_lma+0x79af28>
    152e:	02f70733          	mul	a4,a4,a5
    1532:	fdc42783          	lw	a5,-36(s0)
    1536:	c398                	sw	a4,0(a5)
C:\Users\windows\Desktop\A_Dual\A_Dual1\Dual-core_Communication_Demo\Dual-core_Communication_Demo\SLAVE\obj/../Libraries/wch_libraries/Peripheral/ch32v10x_rcc.c:504
      break;
    1538:	a809                	j	154a <RCC_GetClocksFreq+0xf6>
C:\Users\windows\Desktop\A_Dual\A_Dual1\Dual-core_Communication_Demo\Dual-core_Communication_Demo\SLAVE\obj/../Libraries/wch_libraries/Peripheral/ch32v10x_rcc.c:507

    default:
      RCC_Clocks->SYSCLK_Frequency = HSI_VALUE;
    153a:	fdc42783          	lw	a5,-36(s0)
    153e:	007a1737          	lui	a4,0x7a1
    1542:	20070713          	addi	a4,a4,512 # 7a1200 <_data_lma+0x79af28>
    1546:	c398                	sw	a4,0(a5)
C:\Users\windows\Desktop\A_Dual\A_Dual1\Dual-core_Communication_Demo\Dual-core_Communication_Demo\SLAVE\obj/../Libraries/wch_libraries/Peripheral/ch32v10x_rcc.c:508
      break;
    1548:	0001                	nop
C:\Users\windows\Desktop\A_Dual\A_Dual1\Dual-core_Communication_Demo\Dual-core_Communication_Demo\SLAVE\obj/../Libraries/wch_libraries/Peripheral/ch32v10x_rcc.c:511
  }

  tmp = RCC->CFGR0 & CFGR0_HPRE_Set_Mask;
    154a:	400217b7          	lui	a5,0x40021
    154e:	43dc                	lw	a5,4(a5)
    1550:	0f07f793          	andi	a5,a5,240
    1554:	fef42623          	sw	a5,-20(s0)
C:\Users\windows\Desktop\A_Dual\A_Dual1\Dual-core_Communication_Demo\Dual-core_Communication_Demo\SLAVE\obj/../Libraries/wch_libraries/Peripheral/ch32v10x_rcc.c:512
  tmp = tmp >> 4;
    1558:	fec42783          	lw	a5,-20(s0)
    155c:	8391                	srli	a5,a5,0x4
    155e:	fef42623          	sw	a5,-20(s0)
C:\Users\windows\Desktop\A_Dual\A_Dual1\Dual-core_Communication_Demo\Dual-core_Communication_Demo\SLAVE\obj/../Libraries/wch_libraries/Peripheral/ch32v10x_rcc.c:513
  presc = APBAHBPrescTable[tmp];
    1562:	200007b7          	lui	a5,0x20000
    1566:	00078713          	mv	a4,a5
    156a:	fec42783          	lw	a5,-20(s0)
    156e:	97ba                	add	a5,a5,a4
    1570:	0007c783          	lbu	a5,0(a5) # 20000000 <_data_vma>
    1574:	0ff7f793          	andi	a5,a5,255
    1578:	fef42023          	sw	a5,-32(s0)
C:\Users\windows\Desktop\A_Dual\A_Dual1\Dual-core_Communication_Demo\Dual-core_Communication_Demo\SLAVE\obj/../Libraries/wch_libraries/Peripheral/ch32v10x_rcc.c:514
  RCC_Clocks->HCLK_Frequency = RCC_Clocks->SYSCLK_Frequency >> presc;
    157c:	fdc42783          	lw	a5,-36(s0)
    1580:	4398                	lw	a4,0(a5)
    1582:	fe042783          	lw	a5,-32(s0)
    1586:	00f75733          	srl	a4,a4,a5
    158a:	fdc42783          	lw	a5,-36(s0)
    158e:	c3d8                	sw	a4,4(a5)
C:\Users\windows\Desktop\A_Dual\A_Dual1\Dual-core_Communication_Demo\Dual-core_Communication_Demo\SLAVE\obj/../Libraries/wch_libraries/Peripheral/ch32v10x_rcc.c:515
  tmp = RCC->CFGR0 & CFGR0_PPRE1_Set_Mask;
    1590:	400217b7          	lui	a5,0x40021
    1594:	43dc                	lw	a5,4(a5)
    1596:	7007f793          	andi	a5,a5,1792
    159a:	fef42623          	sw	a5,-20(s0)
C:\Users\windows\Desktop\A_Dual\A_Dual1\Dual-core_Communication_Demo\Dual-core_Communication_Demo\SLAVE\obj/../Libraries/wch_libraries/Peripheral/ch32v10x_rcc.c:516
  tmp = tmp >> 8;
    159e:	fec42783          	lw	a5,-20(s0)
    15a2:	83a1                	srli	a5,a5,0x8
    15a4:	fef42623          	sw	a5,-20(s0)
C:\Users\windows\Desktop\A_Dual\A_Dual1\Dual-core_Communication_Demo\Dual-core_Communication_Demo\SLAVE\obj/../Libraries/wch_libraries/Peripheral/ch32v10x_rcc.c:517
  presc = APBAHBPrescTable[tmp];
    15a8:	200007b7          	lui	a5,0x20000
    15ac:	00078713          	mv	a4,a5
    15b0:	fec42783          	lw	a5,-20(s0)
    15b4:	97ba                	add	a5,a5,a4
    15b6:	0007c783          	lbu	a5,0(a5) # 20000000 <_data_vma>
    15ba:	0ff7f793          	andi	a5,a5,255
    15be:	fef42023          	sw	a5,-32(s0)
C:\Users\windows\Desktop\A_Dual\A_Dual1\Dual-core_Communication_Demo\Dual-core_Communication_Demo\SLAVE\obj/../Libraries/wch_libraries/Peripheral/ch32v10x_rcc.c:518
  RCC_Clocks->PCLK1_Frequency = RCC_Clocks->HCLK_Frequency >> presc;
    15c2:	fdc42783          	lw	a5,-36(s0)
    15c6:	43d8                	lw	a4,4(a5)
    15c8:	fe042783          	lw	a5,-32(s0)
    15cc:	00f75733          	srl	a4,a4,a5
    15d0:	fdc42783          	lw	a5,-36(s0)
    15d4:	c798                	sw	a4,8(a5)
C:\Users\windows\Desktop\A_Dual\A_Dual1\Dual-core_Communication_Demo\Dual-core_Communication_Demo\SLAVE\obj/../Libraries/wch_libraries/Peripheral/ch32v10x_rcc.c:519
  tmp = RCC->CFGR0 & CFGR0_PPRE2_Set_Mask;
    15d6:	400217b7          	lui	a5,0x40021
    15da:	43d8                	lw	a4,4(a5)
    15dc:	6791                	lui	a5,0x4
    15de:	80078793          	addi	a5,a5,-2048 # 3800 <timer_pit_interrupt_ms+0xd4>
    15e2:	8ff9                	and	a5,a5,a4
    15e4:	fef42623          	sw	a5,-20(s0)
C:\Users\windows\Desktop\A_Dual\A_Dual1\Dual-core_Communication_Demo\Dual-core_Communication_Demo\SLAVE\obj/../Libraries/wch_libraries/Peripheral/ch32v10x_rcc.c:520
  tmp = tmp >> 11;
    15e8:	fec42783          	lw	a5,-20(s0)
    15ec:	83ad                	srli	a5,a5,0xb
    15ee:	fef42623          	sw	a5,-20(s0)
C:\Users\windows\Desktop\A_Dual\A_Dual1\Dual-core_Communication_Demo\Dual-core_Communication_Demo\SLAVE\obj/../Libraries/wch_libraries/Peripheral/ch32v10x_rcc.c:521
  presc = APBAHBPrescTable[tmp];
    15f2:	200007b7          	lui	a5,0x20000
    15f6:	00078713          	mv	a4,a5
    15fa:	fec42783          	lw	a5,-20(s0)
    15fe:	97ba                	add	a5,a5,a4
    1600:	0007c783          	lbu	a5,0(a5) # 20000000 <_data_vma>
    1604:	0ff7f793          	andi	a5,a5,255
    1608:	fef42023          	sw	a5,-32(s0)
C:\Users\windows\Desktop\A_Dual\A_Dual1\Dual-core_Communication_Demo\Dual-core_Communication_Demo\SLAVE\obj/../Libraries/wch_libraries/Peripheral/ch32v10x_rcc.c:522
  RCC_Clocks->PCLK2_Frequency = RCC_Clocks->HCLK_Frequency >> presc;
    160c:	fdc42783          	lw	a5,-36(s0)
    1610:	43d8                	lw	a4,4(a5)
    1612:	fe042783          	lw	a5,-32(s0)
    1616:	00f75733          	srl	a4,a4,a5
    161a:	fdc42783          	lw	a5,-36(s0)
    161e:	c7d8                	sw	a4,12(a5)
C:\Users\windows\Desktop\A_Dual\A_Dual1\Dual-core_Communication_Demo\Dual-core_Communication_Demo\SLAVE\obj/../Libraries/wch_libraries/Peripheral/ch32v10x_rcc.c:523
  tmp = RCC->CFGR0 & CFGR0_ADCPRE_Set_Mask;
    1620:	400217b7          	lui	a5,0x40021
    1624:	43d8                	lw	a4,4(a5)
    1626:	67b1                	lui	a5,0xc
    1628:	8ff9                	and	a5,a5,a4
    162a:	fef42623          	sw	a5,-20(s0)
C:\Users\windows\Desktop\A_Dual\A_Dual1\Dual-core_Communication_Demo\Dual-core_Communication_Demo\SLAVE\obj/../Libraries/wch_libraries/Peripheral/ch32v10x_rcc.c:524
  tmp = tmp >> 14;
    162e:	fec42783          	lw	a5,-20(s0)
    1632:	83b9                	srli	a5,a5,0xe
    1634:	fef42623          	sw	a5,-20(s0)
C:\Users\windows\Desktop\A_Dual\A_Dual1\Dual-core_Communication_Demo\Dual-core_Communication_Demo\SLAVE\obj/../Libraries/wch_libraries/Peripheral/ch32v10x_rcc.c:525
  presc = ADCPrescTable[tmp];
    1638:	200007b7          	lui	a5,0x20000
    163c:	11878713          	addi	a4,a5,280 # 20000118 <ADCPrescTable>
    1640:	fec42783          	lw	a5,-20(s0)
    1644:	97ba                	add	a5,a5,a4
    1646:	0007c783          	lbu	a5,0(a5)
    164a:	0ff7f793          	andi	a5,a5,255
    164e:	fef42023          	sw	a5,-32(s0)
C:\Users\windows\Desktop\A_Dual\A_Dual1\Dual-core_Communication_Demo\Dual-core_Communication_Demo\SLAVE\obj/../Libraries/wch_libraries/Peripheral/ch32v10x_rcc.c:526
  RCC_Clocks->ADCCLK_Frequency = RCC_Clocks->PCLK2_Frequency / presc;
    1652:	fdc42783          	lw	a5,-36(s0)
    1656:	47d8                	lw	a4,12(a5)
    1658:	fe042783          	lw	a5,-32(s0)
    165c:	02f75733          	divu	a4,a4,a5
    1660:	fdc42783          	lw	a5,-36(s0)
    1664:	cb98                	sw	a4,16(a5)
C:\Users\windows\Desktop\A_Dual\A_Dual1\Dual-core_Communication_Demo\Dual-core_Communication_Demo\SLAVE\obj/../Libraries/wch_libraries/Peripheral/ch32v10x_rcc.c:527
}
    1666:	0001                	nop
    1668:	5432                	lw	s0,44(sp)
    166a:	6145                	addi	sp,sp,48
    166c:	8082                	ret

0000166e <RCC_AHBPeriphClockCmd>:
RCC_AHBPeriphClockCmd():
C:\Users\windows\Desktop\A_Dual\A_Dual1\Dual-core_Communication_Demo\Dual-core_Communication_Demo\SLAVE\obj/../Libraries/wch_libraries/Peripheral/ch32v10x_rcc.c:542
*                    RCC_AHBPeriph_CRC.                  
*                  NewState: ENABLE or DISABLE.
* Return         : None
*******************************************************************************/	
void RCC_AHBPeriphClockCmd(uint32_t RCC_AHBPeriph, FunctionalState NewState)
{
    166e:	1101                	addi	sp,sp,-32
    1670:	ce22                	sw	s0,28(sp)
    1672:	1000                	addi	s0,sp,32
    1674:	fea42623          	sw	a0,-20(s0)
    1678:	feb42423          	sw	a1,-24(s0)
C:\Users\windows\Desktop\A_Dual\A_Dual1\Dual-core_Communication_Demo\Dual-core_Communication_Demo\SLAVE\obj/../Libraries/wch_libraries/Peripheral/ch32v10x_rcc.c:543
  if (NewState != DISABLE)
    167c:	fe842783          	lw	a5,-24(s0)
    1680:	cb99                	beqz	a5,1696 <RCC_AHBPeriphClockCmd+0x28>
C:\Users\windows\Desktop\A_Dual\A_Dual1\Dual-core_Communication_Demo\Dual-core_Communication_Demo\SLAVE\obj/../Libraries/wch_libraries/Peripheral/ch32v10x_rcc.c:545
  {
    RCC->AHBPCENR |= RCC_AHBPeriph;
    1682:	400217b7          	lui	a5,0x40021
    1686:	4bd4                	lw	a3,20(a5)
    1688:	400217b7          	lui	a5,0x40021
    168c:	fec42703          	lw	a4,-20(s0)
    1690:	8f55                	or	a4,a4,a3
    1692:	cbd8                	sw	a4,20(a5)
C:\Users\windows\Desktop\A_Dual\A_Dual1\Dual-core_Communication_Demo\Dual-core_Communication_Demo\SLAVE\obj/../Libraries/wch_libraries/Peripheral/ch32v10x_rcc.c:551
  }
  else
  {
    RCC->AHBPCENR &= ~RCC_AHBPeriph;
  }
}
    1694:	a821                	j	16ac <RCC_AHBPeriphClockCmd+0x3e>
C:\Users\windows\Desktop\A_Dual\A_Dual1\Dual-core_Communication_Demo\Dual-core_Communication_Demo\SLAVE\obj/../Libraries/wch_libraries/Peripheral/ch32v10x_rcc.c:549
    RCC->AHBPCENR &= ~RCC_AHBPeriph;
    1696:	400217b7          	lui	a5,0x40021
    169a:	4bd4                	lw	a3,20(a5)
    169c:	fec42783          	lw	a5,-20(s0)
    16a0:	fff7c713          	not	a4,a5
    16a4:	400217b7          	lui	a5,0x40021
    16a8:	8f75                	and	a4,a4,a3
    16aa:	cbd8                	sw	a4,20(a5)
C:\Users\windows\Desktop\A_Dual\A_Dual1\Dual-core_Communication_Demo\Dual-core_Communication_Demo\SLAVE\obj/../Libraries/wch_libraries/Peripheral/ch32v10x_rcc.c:551
}
    16ac:	0001                	nop
    16ae:	4472                	lw	s0,28(sp)
    16b0:	6105                	addi	sp,sp,32
    16b2:	8082                	ret

000016b4 <RCC_APB2PeriphClockCmd>:
RCC_APB2PeriphClockCmd():
C:\Users\windows\Desktop\A_Dual\A_Dual1\Dual-core_Communication_Demo\Dual-core_Communication_Demo\SLAVE\obj/../Libraries/wch_libraries/Peripheral/ch32v10x_rcc.c:570
*                    RCC_APB2Periph_USART1.
*                  NewState: ENABLE or DISABLE
* Return         : None
*******************************************************************************/	
void RCC_APB2PeriphClockCmd(uint32_t RCC_APB2Periph, FunctionalState NewState)
{
    16b4:	1101                	addi	sp,sp,-32
    16b6:	ce22                	sw	s0,28(sp)
    16b8:	1000                	addi	s0,sp,32
    16ba:	fea42623          	sw	a0,-20(s0)
    16be:	feb42423          	sw	a1,-24(s0)
C:\Users\windows\Desktop\A_Dual\A_Dual1\Dual-core_Communication_Demo\Dual-core_Communication_Demo\SLAVE\obj/../Libraries/wch_libraries/Peripheral/ch32v10x_rcc.c:571
  if (NewState != DISABLE)
    16c2:	fe842783          	lw	a5,-24(s0)
    16c6:	cb99                	beqz	a5,16dc <RCC_APB2PeriphClockCmd+0x28>
C:\Users\windows\Desktop\A_Dual\A_Dual1\Dual-core_Communication_Demo\Dual-core_Communication_Demo\SLAVE\obj/../Libraries/wch_libraries/Peripheral/ch32v10x_rcc.c:573
  {
    RCC->APB2PCENR |= RCC_APB2Periph;
    16c8:	400217b7          	lui	a5,0x40021
    16cc:	4f94                	lw	a3,24(a5)
    16ce:	400217b7          	lui	a5,0x40021
    16d2:	fec42703          	lw	a4,-20(s0)
    16d6:	8f55                	or	a4,a4,a3
    16d8:	cf98                	sw	a4,24(a5)
C:\Users\windows\Desktop\A_Dual\A_Dual1\Dual-core_Communication_Demo\Dual-core_Communication_Demo\SLAVE\obj/../Libraries/wch_libraries/Peripheral/ch32v10x_rcc.c:579
  }
  else
  {
    RCC->APB2PCENR &= ~RCC_APB2Periph;
  }
}
    16da:	a821                	j	16f2 <RCC_APB2PeriphClockCmd+0x3e>
C:\Users\windows\Desktop\A_Dual\A_Dual1\Dual-core_Communication_Demo\Dual-core_Communication_Demo\SLAVE\obj/../Libraries/wch_libraries/Peripheral/ch32v10x_rcc.c:577
    RCC->APB2PCENR &= ~RCC_APB2Periph;
    16dc:	400217b7          	lui	a5,0x40021
    16e0:	4f94                	lw	a3,24(a5)
    16e2:	fec42783          	lw	a5,-20(s0)
    16e6:	fff7c713          	not	a4,a5
    16ea:	400217b7          	lui	a5,0x40021
    16ee:	8f75                	and	a4,a4,a3
    16f0:	cf98                	sw	a4,24(a5)
C:\Users\windows\Desktop\A_Dual\A_Dual1\Dual-core_Communication_Demo\Dual-core_Communication_Demo\SLAVE\obj/../Libraries/wch_libraries/Peripheral/ch32v10x_rcc.c:579
}
    16f2:	0001                	nop
    16f4:	4472                	lw	s0,28(sp)
    16f6:	6105                	addi	sp,sp,32
    16f8:	8082                	ret

000016fa <RCC_APB1PeriphClockCmd>:
RCC_APB1PeriphClockCmd():
C:\Users\windows\Desktop\A_Dual\A_Dual1\Dual-core_Communication_Demo\Dual-core_Communication_Demo\SLAVE\obj/../Libraries/wch_libraries/Peripheral/ch32v10x_rcc.c:603
*                    RCC_APB1Periph_DAC.                
*                  NewState: ENABLE or DISABLE.
* Return         : None
*******************************************************************************/	
void RCC_APB1PeriphClockCmd(uint32_t RCC_APB1Periph, FunctionalState NewState)
{
    16fa:	1101                	addi	sp,sp,-32
    16fc:	ce22                	sw	s0,28(sp)
    16fe:	1000                	addi	s0,sp,32
    1700:	fea42623          	sw	a0,-20(s0)
    1704:	feb42423          	sw	a1,-24(s0)
C:\Users\windows\Desktop\A_Dual\A_Dual1\Dual-core_Communication_Demo\Dual-core_Communication_Demo\SLAVE\obj/../Libraries/wch_libraries/Peripheral/ch32v10x_rcc.c:604
  if (NewState != DISABLE)
    1708:	fe842783          	lw	a5,-24(s0)
    170c:	cb99                	beqz	a5,1722 <RCC_APB1PeriphClockCmd+0x28>
C:\Users\windows\Desktop\A_Dual\A_Dual1\Dual-core_Communication_Demo\Dual-core_Communication_Demo\SLAVE\obj/../Libraries/wch_libraries/Peripheral/ch32v10x_rcc.c:606
  {
    RCC->APB1PCENR |= RCC_APB1Periph;
    170e:	400217b7          	lui	a5,0x40021
    1712:	4fd4                	lw	a3,28(a5)
    1714:	400217b7          	lui	a5,0x40021
    1718:	fec42703          	lw	a4,-20(s0)
    171c:	8f55                	or	a4,a4,a3
    171e:	cfd8                	sw	a4,28(a5)
C:\Users\windows\Desktop\A_Dual\A_Dual1\Dual-core_Communication_Demo\Dual-core_Communication_Demo\SLAVE\obj/../Libraries/wch_libraries/Peripheral/ch32v10x_rcc.c:612
  }
  else
  {
    RCC->APB1PCENR &= ~RCC_APB1Periph;
  }
}
    1720:	a821                	j	1738 <RCC_APB1PeriphClockCmd+0x3e>
C:\Users\windows\Desktop\A_Dual\A_Dual1\Dual-core_Communication_Demo\Dual-core_Communication_Demo\SLAVE\obj/../Libraries/wch_libraries/Peripheral/ch32v10x_rcc.c:610
    RCC->APB1PCENR &= ~RCC_APB1Periph;
    1722:	400217b7          	lui	a5,0x40021
    1726:	4fd4                	lw	a3,28(a5)
    1728:	fec42783          	lw	a5,-20(s0)
    172c:	fff7c713          	not	a4,a5
    1730:	400217b7          	lui	a5,0x40021
    1734:	8f75                	and	a4,a4,a3
    1736:	cfd8                	sw	a4,28(a5)
C:\Users\windows\Desktop\A_Dual\A_Dual1\Dual-core_Communication_Demo\Dual-core_Communication_Demo\SLAVE\obj/../Libraries/wch_libraries/Peripheral/ch32v10x_rcc.c:612
}
    1738:	0001                	nop
    173a:	4472                	lw	s0,28(sp)
    173c:	6105                	addi	sp,sp,32
    173e:	8082                	ret

00001740 <SPI_Init>:
SPI_Init():
C:\Users\windows\Desktop\A_Dual\A_Dual1\Dual-core_Communication_Demo\Dual-core_Communication_Demo\SLAVE\obj/../Libraries/wch_libraries/Peripheral/ch32v10x_spi.c:83
*                  SPI_InitStruct: pointer to a SPI_InitTypeDef structure that
*      contains the configuration information for the specified SPI peripheral.
* Return         : None
*******************************************************************************/
void SPI_Init(SPI_TypeDef* SPIx, SPI_InitTypeDef* SPI_InitStruct)
{
    1740:	7179                	addi	sp,sp,-48
    1742:	d622                	sw	s0,44(sp)
    1744:	1800                	addi	s0,sp,48
    1746:	fca42e23          	sw	a0,-36(s0)
    174a:	fcb42c23          	sw	a1,-40(s0)
C:\Users\windows\Desktop\A_Dual\A_Dual1\Dual-core_Communication_Demo\Dual-core_Communication_Demo\SLAVE\obj/../Libraries/wch_libraries/Peripheral/ch32v10x_spi.c:84
  uint16_t tmpreg = 0;
    174e:	fe041723          	sh	zero,-18(s0)
C:\Users\windows\Desktop\A_Dual\A_Dual1\Dual-core_Communication_Demo\Dual-core_Communication_Demo\SLAVE\obj/../Libraries/wch_libraries/Peripheral/ch32v10x_spi.c:86
  
  tmpreg = SPIx->CTLR1;
    1752:	fdc42783          	lw	a5,-36(s0)
    1756:	0007d783          	lhu	a5,0(a5) # 40021000 <_eusrstack+0x2001c000>
    175a:	fef41723          	sh	a5,-18(s0)
C:\Users\windows\Desktop\A_Dual\A_Dual1\Dual-core_Communication_Demo\Dual-core_Communication_Demo\SLAVE\obj/../Libraries/wch_libraries/Peripheral/ch32v10x_spi.c:87
  tmpreg &= CTLR1_CLEAR_Mask;
    175e:	fee45703          	lhu	a4,-18(s0)
    1762:	678d                	lui	a5,0x3
    1764:	04078793          	addi	a5,a5,64 # 3040 <ov7725_cof_uart_interrupt+0x22>
    1768:	8ff9                	and	a5,a5,a4
    176a:	fef41723          	sh	a5,-18(s0)
C:\Users\windows\Desktop\A_Dual\A_Dual1\Dual-core_Communication_Demo\Dual-core_Communication_Demo\SLAVE\obj/../Libraries/wch_libraries/Peripheral/ch32v10x_spi.c:88
  tmpreg |= (uint16_t)((uint32_t)SPI_InitStruct->SPI_Direction | SPI_InitStruct->SPI_Mode |
    176e:	fd842783          	lw	a5,-40(s0)
    1772:	0007d703          	lhu	a4,0(a5)
    1776:	fd842783          	lw	a5,-40(s0)
    177a:	0027d783          	lhu	a5,2(a5)
    177e:	8fd9                	or	a5,a5,a4
    1780:	01079713          	slli	a4,a5,0x10
    1784:	8341                	srli	a4,a4,0x10
C:\Users\windows\Desktop\A_Dual\A_Dual1\Dual-core_Communication_Demo\Dual-core_Communication_Demo\SLAVE\obj/../Libraries/wch_libraries/Peripheral/ch32v10x_spi.c:89
                  SPI_InitStruct->SPI_DataSize | SPI_InitStruct->SPI_CPOL |  
    1786:	fd842783          	lw	a5,-40(s0)
    178a:	0047d783          	lhu	a5,4(a5)
C:\Users\windows\Desktop\A_Dual\A_Dual1\Dual-core_Communication_Demo\Dual-core_Communication_Demo\SLAVE\obj/../Libraries/wch_libraries/Peripheral/ch32v10x_spi.c:88
  tmpreg |= (uint16_t)((uint32_t)SPI_InitStruct->SPI_Direction | SPI_InitStruct->SPI_Mode |
    178e:	8fd9                	or	a5,a5,a4
    1790:	01079713          	slli	a4,a5,0x10
    1794:	8341                	srli	a4,a4,0x10
C:\Users\windows\Desktop\A_Dual\A_Dual1\Dual-core_Communication_Demo\Dual-core_Communication_Demo\SLAVE\obj/../Libraries/wch_libraries/Peripheral/ch32v10x_spi.c:89
                  SPI_InitStruct->SPI_DataSize | SPI_InitStruct->SPI_CPOL |  
    1796:	fd842783          	lw	a5,-40(s0)
    179a:	0067d783          	lhu	a5,6(a5)
C:\Users\windows\Desktop\A_Dual\A_Dual1\Dual-core_Communication_Demo\Dual-core_Communication_Demo\SLAVE\obj/../Libraries/wch_libraries/Peripheral/ch32v10x_spi.c:88
  tmpreg |= (uint16_t)((uint32_t)SPI_InitStruct->SPI_Direction | SPI_InitStruct->SPI_Mode |
    179e:	8fd9                	or	a5,a5,a4
    17a0:	01079713          	slli	a4,a5,0x10
    17a4:	8341                	srli	a4,a4,0x10
C:\Users\windows\Desktop\A_Dual\A_Dual1\Dual-core_Communication_Demo\Dual-core_Communication_Demo\SLAVE\obj/../Libraries/wch_libraries/Peripheral/ch32v10x_spi.c:90
                  SPI_InitStruct->SPI_CPHA | SPI_InitStruct->SPI_NSS |  
    17a6:	fd842783          	lw	a5,-40(s0)
    17aa:	0087d783          	lhu	a5,8(a5)
C:\Users\windows\Desktop\A_Dual\A_Dual1\Dual-core_Communication_Demo\Dual-core_Communication_Demo\SLAVE\obj/../Libraries/wch_libraries/Peripheral/ch32v10x_spi.c:88
  tmpreg |= (uint16_t)((uint32_t)SPI_InitStruct->SPI_Direction | SPI_InitStruct->SPI_Mode |
    17ae:	8fd9                	or	a5,a5,a4
    17b0:	01079713          	slli	a4,a5,0x10
    17b4:	8341                	srli	a4,a4,0x10
C:\Users\windows\Desktop\A_Dual\A_Dual1\Dual-core_Communication_Demo\Dual-core_Communication_Demo\SLAVE\obj/../Libraries/wch_libraries/Peripheral/ch32v10x_spi.c:90
                  SPI_InitStruct->SPI_CPHA | SPI_InitStruct->SPI_NSS |  
    17b6:	fd842783          	lw	a5,-40(s0)
    17ba:	00a7d783          	lhu	a5,10(a5)
C:\Users\windows\Desktop\A_Dual\A_Dual1\Dual-core_Communication_Demo\Dual-core_Communication_Demo\SLAVE\obj/../Libraries/wch_libraries/Peripheral/ch32v10x_spi.c:88
  tmpreg |= (uint16_t)((uint32_t)SPI_InitStruct->SPI_Direction | SPI_InitStruct->SPI_Mode |
    17be:	8fd9                	or	a5,a5,a4
    17c0:	01079713          	slli	a4,a5,0x10
    17c4:	8341                	srli	a4,a4,0x10
C:\Users\windows\Desktop\A_Dual\A_Dual1\Dual-core_Communication_Demo\Dual-core_Communication_Demo\SLAVE\obj/../Libraries/wch_libraries/Peripheral/ch32v10x_spi.c:91
                  SPI_InitStruct->SPI_BaudRatePrescaler | SPI_InitStruct->SPI_FirstBit);
    17c6:	fd842783          	lw	a5,-40(s0)
    17ca:	00c7d783          	lhu	a5,12(a5)
C:\Users\windows\Desktop\A_Dual\A_Dual1\Dual-core_Communication_Demo\Dual-core_Communication_Demo\SLAVE\obj/../Libraries/wch_libraries/Peripheral/ch32v10x_spi.c:88
  tmpreg |= (uint16_t)((uint32_t)SPI_InitStruct->SPI_Direction | SPI_InitStruct->SPI_Mode |
    17ce:	8fd9                	or	a5,a5,a4
    17d0:	01079713          	slli	a4,a5,0x10
    17d4:	8341                	srli	a4,a4,0x10
C:\Users\windows\Desktop\A_Dual\A_Dual1\Dual-core_Communication_Demo\Dual-core_Communication_Demo\SLAVE\obj/../Libraries/wch_libraries/Peripheral/ch32v10x_spi.c:91
                  SPI_InitStruct->SPI_BaudRatePrescaler | SPI_InitStruct->SPI_FirstBit);
    17d6:	fd842783          	lw	a5,-40(s0)
    17da:	00e7d783          	lhu	a5,14(a5)
C:\Users\windows\Desktop\A_Dual\A_Dual1\Dual-core_Communication_Demo\Dual-core_Communication_Demo\SLAVE\obj/../Libraries/wch_libraries/Peripheral/ch32v10x_spi.c:88
  tmpreg |= (uint16_t)((uint32_t)SPI_InitStruct->SPI_Direction | SPI_InitStruct->SPI_Mode |
    17de:	8fd9                	or	a5,a5,a4
    17e0:	01079713          	slli	a4,a5,0x10
    17e4:	8341                	srli	a4,a4,0x10
    17e6:	fee45783          	lhu	a5,-18(s0)
    17ea:	8fd9                	or	a5,a5,a4
    17ec:	fef41723          	sh	a5,-18(s0)
C:\Users\windows\Desktop\A_Dual\A_Dual1\Dual-core_Communication_Demo\Dual-core_Communication_Demo\SLAVE\obj/../Libraries/wch_libraries/Peripheral/ch32v10x_spi.c:93

  SPIx->CTLR1 = tmpreg;
    17f0:	fdc42783          	lw	a5,-36(s0)
    17f4:	fee45703          	lhu	a4,-18(s0)
    17f8:	00e79023          	sh	a4,0(a5)
C:\Users\windows\Desktop\A_Dual\A_Dual1\Dual-core_Communication_Demo\Dual-core_Communication_Demo\SLAVE\obj/../Libraries/wch_libraries/Peripheral/ch32v10x_spi.c:94
  SPIx->I2SCFGR &= SPI_Mode_Select;		
    17fc:	fdc42783          	lw	a5,-36(s0)
    1800:	01c7d783          	lhu	a5,28(a5)
    1804:	01079713          	slli	a4,a5,0x10
    1808:	8341                	srli	a4,a4,0x10
    180a:	77fd                	lui	a5,0xfffff
    180c:	7ff78793          	addi	a5,a5,2047 # fffff7ff <_eusrstack+0xdfffa7ff>
    1810:	8ff9                	and	a5,a5,a4
    1812:	01079713          	slli	a4,a5,0x10
    1816:	8341                	srli	a4,a4,0x10
    1818:	fdc42783          	lw	a5,-36(s0)
    181c:	00e79e23          	sh	a4,28(a5)
C:\Users\windows\Desktop\A_Dual\A_Dual1\Dual-core_Communication_Demo\Dual-core_Communication_Demo\SLAVE\obj/../Libraries/wch_libraries/Peripheral/ch32v10x_spi.c:95
  SPIx->CRCR = SPI_InitStruct->SPI_CRCPolynomial;
    1820:	fd842783          	lw	a5,-40(s0)
    1824:	0107d703          	lhu	a4,16(a5)
    1828:	fdc42783          	lw	a5,-36(s0)
    182c:	00e79823          	sh	a4,16(a5)
C:\Users\windows\Desktop\A_Dual\A_Dual1\Dual-core_Communication_Demo\Dual-core_Communication_Demo\SLAVE\obj/../Libraries/wch_libraries/Peripheral/ch32v10x_spi.c:96
}
    1830:	0001                	nop
    1832:	5432                	lw	s0,44(sp)
    1834:	6145                	addi	sp,sp,48
    1836:	8082                	ret

00001838 <SPI_Cmd>:
SPI_Cmd():
C:\Users\windows\Desktop\A_Dual\A_Dual1\Dual-core_Communication_Demo\Dual-core_Communication_Demo\SLAVE\obj/../Libraries/wch_libraries/Peripheral/ch32v10x_spi.c:221
* Input          : SPIx: where x can be 1, 2 or 3 to select the SPI peripheral.
*                  NewState: ENABLE or DISABLE.
* Return         : None
*******************************************************************************/
void SPI_Cmd(SPI_TypeDef* SPIx, FunctionalState NewState)
{
    1838:	1101                	addi	sp,sp,-32
    183a:	ce22                	sw	s0,28(sp)
    183c:	1000                	addi	s0,sp,32
    183e:	fea42623          	sw	a0,-20(s0)
    1842:	feb42423          	sw	a1,-24(s0)
C:\Users\windows\Desktop\A_Dual\A_Dual1\Dual-core_Communication_Demo\Dual-core_Communication_Demo\SLAVE\obj/../Libraries/wch_libraries/Peripheral/ch32v10x_spi.c:222
  if (NewState != DISABLE)
    1846:	fe842783          	lw	a5,-24(s0)
    184a:	c38d                	beqz	a5,186c <SPI_Cmd+0x34>
C:\Users\windows\Desktop\A_Dual\A_Dual1\Dual-core_Communication_Demo\Dual-core_Communication_Demo\SLAVE\obj/../Libraries/wch_libraries/Peripheral/ch32v10x_spi.c:224
  {
    SPIx->CTLR1 |= CTLR1_SPE_Set;
    184c:	fec42783          	lw	a5,-20(s0)
    1850:	0007d783          	lhu	a5,0(a5)
    1854:	07c2                	slli	a5,a5,0x10
    1856:	83c1                	srli	a5,a5,0x10
    1858:	0407e793          	ori	a5,a5,64
    185c:	01079713          	slli	a4,a5,0x10
    1860:	8341                	srli	a4,a4,0x10
    1862:	fec42783          	lw	a5,-20(s0)
    1866:	00e79023          	sh	a4,0(a5)
C:\Users\windows\Desktop\A_Dual\A_Dual1\Dual-core_Communication_Demo\Dual-core_Communication_Demo\SLAVE\obj/../Libraries/wch_libraries/Peripheral/ch32v10x_spi.c:230
  }
  else
  {
    SPIx->CTLR1 &= CTLR1_SPE_Reset;
  }
}
    186a:	a005                	j	188a <SPI_Cmd+0x52>
C:\Users\windows\Desktop\A_Dual\A_Dual1\Dual-core_Communication_Demo\Dual-core_Communication_Demo\SLAVE\obj/../Libraries/wch_libraries/Peripheral/ch32v10x_spi.c:228
    SPIx->CTLR1 &= CTLR1_SPE_Reset;
    186c:	fec42783          	lw	a5,-20(s0)
    1870:	0007d783          	lhu	a5,0(a5)
    1874:	07c2                	slli	a5,a5,0x10
    1876:	83c1                	srli	a5,a5,0x10
    1878:	fbf7f793          	andi	a5,a5,-65
    187c:	01079713          	slli	a4,a5,0x10
    1880:	8341                	srli	a4,a4,0x10
    1882:	fec42783          	lw	a5,-20(s0)
    1886:	00e79023          	sh	a4,0(a5)
C:\Users\windows\Desktop\A_Dual\A_Dual1\Dual-core_Communication_Demo\Dual-core_Communication_Demo\SLAVE\obj/../Libraries/wch_libraries/Peripheral/ch32v10x_spi.c:230
}
    188a:	0001                	nop
    188c:	4472                	lw	s0,28(sp)
    188e:	6105                	addi	sp,sp,32
    1890:	8082                	ret

00001892 <TIM_TimeBaseInit>:
TIM_TimeBaseInit():
C:\Users\windows\Desktop\A_Dual\A_Dual1\Dual-core_Communication_Demo\Dual-core_Communication_Demo\SLAVE\obj/../Libraries/wch_libraries/Peripheral/ch32v10x_tim.c:67
*                  TIM_TimeBaseInitStruct: pointer to a TIM_TimeBaseInitTypeDef
*      structure.
* Return         : None
*******************************************************************************/
void TIM_TimeBaseInit(TIM_TypeDef* TIMx, TIM_TimeBaseInitTypeDef* TIM_TimeBaseInitStruct)
{
    1892:	7179                	addi	sp,sp,-48
    1894:	d622                	sw	s0,44(sp)
    1896:	1800                	addi	s0,sp,48
    1898:	fca42e23          	sw	a0,-36(s0)
    189c:	fcb42c23          	sw	a1,-40(s0)
C:\Users\windows\Desktop\A_Dual\A_Dual1\Dual-core_Communication_Demo\Dual-core_Communication_Demo\SLAVE\obj/../Libraries/wch_libraries/Peripheral/ch32v10x_tim.c:68
  uint16_t tmpcr1 = 0;
    18a0:	fe041723          	sh	zero,-18(s0)
C:\Users\windows\Desktop\A_Dual\A_Dual1\Dual-core_Communication_Demo\Dual-core_Communication_Demo\SLAVE\obj/../Libraries/wch_libraries/Peripheral/ch32v10x_tim.c:70

  tmpcr1 = TIMx->CTLR1;  
    18a4:	fdc42783          	lw	a5,-36(s0)
    18a8:	0007d783          	lhu	a5,0(a5)
    18ac:	fef41723          	sh	a5,-18(s0)
C:\Users\windows\Desktop\A_Dual\A_Dual1\Dual-core_Communication_Demo\Dual-core_Communication_Demo\SLAVE\obj/../Libraries/wch_libraries/Peripheral/ch32v10x_tim.c:72

  if((TIMx == TIM1) || (TIMx == TIM2) || (TIMx == TIM3)|| (TIMx == TIM4)) 
    18b0:	fdc42703          	lw	a4,-36(s0)
    18b4:	400137b7          	lui	a5,0x40013
    18b8:	c0078793          	addi	a5,a5,-1024 # 40012c00 <_eusrstack+0x2000dc00>
    18bc:	02f70863          	beq	a4,a5,18ec <TIM_TimeBaseInit+0x5a>
C:\Users\windows\Desktop\A_Dual\A_Dual1\Dual-core_Communication_Demo\Dual-core_Communication_Demo\SLAVE\obj/../Libraries/wch_libraries/Peripheral/ch32v10x_tim.c:72 (discriminator 1)
    18c0:	fdc42703          	lw	a4,-36(s0)
    18c4:	400007b7          	lui	a5,0x40000
    18c8:	02f70263          	beq	a4,a5,18ec <TIM_TimeBaseInit+0x5a>
C:\Users\windows\Desktop\A_Dual\A_Dual1\Dual-core_Communication_Demo\Dual-core_Communication_Demo\SLAVE\obj/../Libraries/wch_libraries/Peripheral/ch32v10x_tim.c:72 (discriminator 2)
    18cc:	fdc42703          	lw	a4,-36(s0)
    18d0:	400007b7          	lui	a5,0x40000
    18d4:	40078793          	addi	a5,a5,1024 # 40000400 <_eusrstack+0x1fffb400>
    18d8:	00f70a63          	beq	a4,a5,18ec <TIM_TimeBaseInit+0x5a>
C:\Users\windows\Desktop\A_Dual\A_Dual1\Dual-core_Communication_Demo\Dual-core_Communication_Demo\SLAVE\obj/../Libraries/wch_libraries/Peripheral/ch32v10x_tim.c:72 (discriminator 3)
    18dc:	fdc42703          	lw	a4,-36(s0)
    18e0:	400017b7          	lui	a5,0x40001
    18e4:	80078793          	addi	a5,a5,-2048 # 40000800 <_eusrstack+0x1fffb800>
    18e8:	02f71163          	bne	a4,a5,190a <TIM_TimeBaseInit+0x78>
C:\Users\windows\Desktop\A_Dual\A_Dual1\Dual-core_Communication_Demo\Dual-core_Communication_Demo\SLAVE\obj/../Libraries/wch_libraries/Peripheral/ch32v10x_tim.c:74
  {
    tmpcr1 &= (uint16_t)(~((uint16_t)(TIM_DIR | TIM_CMS)));
    18ec:	fee45783          	lhu	a5,-18(s0)
    18f0:	f8f7f793          	andi	a5,a5,-113
    18f4:	fef41723          	sh	a5,-18(s0)
C:\Users\windows\Desktop\A_Dual\A_Dual1\Dual-core_Communication_Demo\Dual-core_Communication_Demo\SLAVE\obj/../Libraries/wch_libraries/Peripheral/ch32v10x_tim.c:75
    tmpcr1 |= (uint32_t)TIM_TimeBaseInitStruct->TIM_CounterMode;
    18f8:	fd842783          	lw	a5,-40(s0)
    18fc:	0027d703          	lhu	a4,2(a5)
    1900:	fee45783          	lhu	a5,-18(s0)
    1904:	8fd9                	or	a5,a5,a4
    1906:	fef41723          	sh	a5,-18(s0)
C:\Users\windows\Desktop\A_Dual\A_Dual1\Dual-core_Communication_Demo\Dual-core_Communication_Demo\SLAVE\obj/../Libraries/wch_libraries/Peripheral/ch32v10x_tim.c:78
  }

  tmpcr1 &= (uint16_t)(~((uint16_t)TIM_CTLR1_CKD));
    190a:	fee45783          	lhu	a5,-18(s0)
    190e:	cff7f793          	andi	a5,a5,-769
    1912:	fef41723          	sh	a5,-18(s0)
C:\Users\windows\Desktop\A_Dual\A_Dual1\Dual-core_Communication_Demo\Dual-core_Communication_Demo\SLAVE\obj/../Libraries/wch_libraries/Peripheral/ch32v10x_tim.c:79
  tmpcr1 |= (uint32_t)TIM_TimeBaseInitStruct->TIM_ClockDivision;
    1916:	fd842783          	lw	a5,-40(s0)
    191a:	0067d703          	lhu	a4,6(a5)
    191e:	fee45783          	lhu	a5,-18(s0)
    1922:	8fd9                	or	a5,a5,a4
    1924:	fef41723          	sh	a5,-18(s0)
C:\Users\windows\Desktop\A_Dual\A_Dual1\Dual-core_Communication_Demo\Dual-core_Communication_Demo\SLAVE\obj/../Libraries/wch_libraries/Peripheral/ch32v10x_tim.c:81

  TIMx->CTLR1 = tmpcr1;
    1928:	fdc42783          	lw	a5,-36(s0)
    192c:	fee45703          	lhu	a4,-18(s0)
    1930:	00e79023          	sh	a4,0(a5)
C:\Users\windows\Desktop\A_Dual\A_Dual1\Dual-core_Communication_Demo\Dual-core_Communication_Demo\SLAVE\obj/../Libraries/wch_libraries/Peripheral/ch32v10x_tim.c:82
  TIMx->ATRLR = TIM_TimeBaseInitStruct->TIM_Period ;
    1934:	fd842783          	lw	a5,-40(s0)
    1938:	0047d703          	lhu	a4,4(a5)
    193c:	fdc42783          	lw	a5,-36(s0)
    1940:	02e79623          	sh	a4,44(a5)
C:\Users\windows\Desktop\A_Dual\A_Dual1\Dual-core_Communication_Demo\Dual-core_Communication_Demo\SLAVE\obj/../Libraries/wch_libraries/Peripheral/ch32v10x_tim.c:83
  TIMx->PSC = TIM_TimeBaseInitStruct->TIM_Prescaler;
    1944:	fd842783          	lw	a5,-40(s0)
    1948:	0007d703          	lhu	a4,0(a5)
    194c:	fdc42783          	lw	a5,-36(s0)
    1950:	02e79423          	sh	a4,40(a5)
C:\Users\windows\Desktop\A_Dual\A_Dual1\Dual-core_Communication_Demo\Dual-core_Communication_Demo\SLAVE\obj/../Libraries/wch_libraries/Peripheral/ch32v10x_tim.c:85
    
  if (TIMx == TIM1)  
    1954:	fdc42703          	lw	a4,-36(s0)
    1958:	400137b7          	lui	a5,0x40013
    195c:	c0078793          	addi	a5,a5,-1024 # 40012c00 <_eusrstack+0x2000dc00>
    1960:	00f71d63          	bne	a4,a5,197a <TIM_TimeBaseInit+0xe8>
C:\Users\windows\Desktop\A_Dual\A_Dual1\Dual-core_Communication_Demo\Dual-core_Communication_Demo\SLAVE\obj/../Libraries/wch_libraries/Peripheral/ch32v10x_tim.c:87
  {
    TIMx->RPTCR = TIM_TimeBaseInitStruct->TIM_RepetitionCounter;
    1964:	fd842783          	lw	a5,-40(s0)
    1968:	0087c783          	lbu	a5,8(a5)
    196c:	01079713          	slli	a4,a5,0x10
    1970:	8341                	srli	a4,a4,0x10
    1972:	fdc42783          	lw	a5,-36(s0)
    1976:	02e79823          	sh	a4,48(a5)
C:\Users\windows\Desktop\A_Dual\A_Dual1\Dual-core_Communication_Demo\Dual-core_Communication_Demo\SLAVE\obj/../Libraries/wch_libraries/Peripheral/ch32v10x_tim.c:90
  }

  TIMx->SWEVGR = TIM_PSCReloadMode_Immediate;           
    197a:	fdc42783          	lw	a5,-36(s0)
    197e:	4705                	li	a4,1
    1980:	00e79a23          	sh	a4,20(a5)
C:\Users\windows\Desktop\A_Dual\A_Dual1\Dual-core_Communication_Demo\Dual-core_Communication_Demo\SLAVE\obj/../Libraries/wch_libraries/Peripheral/ch32v10x_tim.c:91
}
    1984:	0001                	nop
    1986:	5432                	lw	s0,44(sp)
    1988:	6145                	addi	sp,sp,48
    198a:	8082                	ret

0000198c <TIM_TimeBaseStructInit>:
TIM_TimeBaseStructInit():
C:\Users\windows\Desktop\A_Dual\A_Dual1\Dual-core_Communication_Demo\Dual-core_Communication_Demo\SLAVE\obj/../Libraries/wch_libraries/Peripheral/ch32v10x_tim.c:367
* Description    : Fills each TIM_TimeBaseInitStruct member with its default value.
* Input          : TIM_TimeBaseInitStruct : pointer to a TIM_TimeBaseInitTypeDef structure.                 
* Return         : None
*******************************************************************************/
void TIM_TimeBaseStructInit(TIM_TimeBaseInitTypeDef* TIM_TimeBaseInitStruct)
{
    198c:	1101                	addi	sp,sp,-32
    198e:	ce22                	sw	s0,28(sp)
    1990:	1000                	addi	s0,sp,32
    1992:	fea42623          	sw	a0,-20(s0)
C:\Users\windows\Desktop\A_Dual\A_Dual1\Dual-core_Communication_Demo\Dual-core_Communication_Demo\SLAVE\obj/../Libraries/wch_libraries/Peripheral/ch32v10x_tim.c:368
  TIM_TimeBaseInitStruct->TIM_Period = 0xFFFF;
    1996:	fec42783          	lw	a5,-20(s0)
    199a:	577d                	li	a4,-1
    199c:	00e79223          	sh	a4,4(a5)
C:\Users\windows\Desktop\A_Dual\A_Dual1\Dual-core_Communication_Demo\Dual-core_Communication_Demo\SLAVE\obj/../Libraries/wch_libraries/Peripheral/ch32v10x_tim.c:369
  TIM_TimeBaseInitStruct->TIM_Prescaler = 0x0000;
    19a0:	fec42783          	lw	a5,-20(s0)
    19a4:	00079023          	sh	zero,0(a5)
C:\Users\windows\Desktop\A_Dual\A_Dual1\Dual-core_Communication_Demo\Dual-core_Communication_Demo\SLAVE\obj/../Libraries/wch_libraries/Peripheral/ch32v10x_tim.c:370
  TIM_TimeBaseInitStruct->TIM_ClockDivision = TIM_CKD_DIV1;
    19a8:	fec42783          	lw	a5,-20(s0)
    19ac:	00079323          	sh	zero,6(a5)
C:\Users\windows\Desktop\A_Dual\A_Dual1\Dual-core_Communication_Demo\Dual-core_Communication_Demo\SLAVE\obj/../Libraries/wch_libraries/Peripheral/ch32v10x_tim.c:371
  TIM_TimeBaseInitStruct->TIM_CounterMode = TIM_CounterMode_Up;
    19b0:	fec42783          	lw	a5,-20(s0)
    19b4:	00079123          	sh	zero,2(a5)
C:\Users\windows\Desktop\A_Dual\A_Dual1\Dual-core_Communication_Demo\Dual-core_Communication_Demo\SLAVE\obj/../Libraries/wch_libraries/Peripheral/ch32v10x_tim.c:372
  TIM_TimeBaseInitStruct->TIM_RepetitionCounter = 0x0000;
    19b8:	fec42783          	lw	a5,-20(s0)
    19bc:	00078423          	sb	zero,8(a5)
C:\Users\windows\Desktop\A_Dual\A_Dual1\Dual-core_Communication_Demo\Dual-core_Communication_Demo\SLAVE\obj/../Libraries/wch_libraries/Peripheral/ch32v10x_tim.c:373
}
    19c0:	0001                	nop
    19c2:	4472                	lw	s0,28(sp)
    19c4:	6105                	addi	sp,sp,32
    19c6:	8082                	ret

000019c8 <TIM_Cmd>:
TIM_Cmd():
C:\Users\windows\Desktop\A_Dual\A_Dual1\Dual-core_Communication_Demo\Dual-core_Communication_Demo\SLAVE\obj/../Libraries/wch_libraries/Peripheral/ch32v10x_tim.c:433
* Input          : TIMx: where x can be 1 to 4 to select the TIM peripheral.
*                  NewState: ENABLE or DISABLE.
* Return         : None
*******************************************************************************/
void TIM_Cmd(TIM_TypeDef* TIMx, FunctionalState NewState)
{ 
    19c8:	1101                	addi	sp,sp,-32
    19ca:	ce22                	sw	s0,28(sp)
    19cc:	1000                	addi	s0,sp,32
    19ce:	fea42623          	sw	a0,-20(s0)
    19d2:	feb42423          	sw	a1,-24(s0)
C:\Users\windows\Desktop\A_Dual\A_Dual1\Dual-core_Communication_Demo\Dual-core_Communication_Demo\SLAVE\obj/../Libraries/wch_libraries/Peripheral/ch32v10x_tim.c:434
  if (NewState != DISABLE)
    19d6:	fe842783          	lw	a5,-24(s0)
    19da:	c38d                	beqz	a5,19fc <TIM_Cmd+0x34>
C:\Users\windows\Desktop\A_Dual\A_Dual1\Dual-core_Communication_Demo\Dual-core_Communication_Demo\SLAVE\obj/../Libraries/wch_libraries/Peripheral/ch32v10x_tim.c:436
  {
    TIMx->CTLR1 |= TIM_CEN;
    19dc:	fec42783          	lw	a5,-20(s0)
    19e0:	0007d783          	lhu	a5,0(a5)
    19e4:	07c2                	slli	a5,a5,0x10
    19e6:	83c1                	srli	a5,a5,0x10
    19e8:	0017e793          	ori	a5,a5,1
    19ec:	01079713          	slli	a4,a5,0x10
    19f0:	8341                	srli	a4,a4,0x10
    19f2:	fec42783          	lw	a5,-20(s0)
    19f6:	00e79023          	sh	a4,0(a5)
C:\Users\windows\Desktop\A_Dual\A_Dual1\Dual-core_Communication_Demo\Dual-core_Communication_Demo\SLAVE\obj/../Libraries/wch_libraries/Peripheral/ch32v10x_tim.c:442
  }
  else
  {
    TIMx->CTLR1 &= (uint16_t)(~((uint16_t)TIM_CEN));
  }
}
    19fa:	a839                	j	1a18 <TIM_Cmd+0x50>
C:\Users\windows\Desktop\A_Dual\A_Dual1\Dual-core_Communication_Demo\Dual-core_Communication_Demo\SLAVE\obj/../Libraries/wch_libraries/Peripheral/ch32v10x_tim.c:440
    TIMx->CTLR1 &= (uint16_t)(~((uint16_t)TIM_CEN));
    19fc:	fec42783          	lw	a5,-20(s0)
    1a00:	0007d783          	lhu	a5,0(a5)
    1a04:	07c2                	slli	a5,a5,0x10
    1a06:	83c1                	srli	a5,a5,0x10
    1a08:	9bf9                	andi	a5,a5,-2
    1a0a:	01079713          	slli	a4,a5,0x10
    1a0e:	8341                	srli	a4,a4,0x10
    1a10:	fec42783          	lw	a5,-20(s0)
    1a14:	00e79023          	sh	a4,0(a5)
C:\Users\windows\Desktop\A_Dual\A_Dual1\Dual-core_Communication_Demo\Dual-core_Communication_Demo\SLAVE\obj/../Libraries/wch_libraries/Peripheral/ch32v10x_tim.c:442
}
    1a18:	0001                	nop
    1a1a:	4472                	lw	s0,28(sp)
    1a1c:	6105                	addi	sp,sp,32
    1a1e:	8082                	ret

00001a20 <TIM_ITConfig>:
TIM_ITConfig():
C:\Users\windows\Desktop\A_Dual\A_Dual1\Dual-core_Communication_Demo\Dual-core_Communication_Demo\SLAVE\obj/../Libraries/wch_libraries/Peripheral/ch32v10x_tim.c:480
*                    TIM_IT_Break: TIM Break Interrupt source.
*                  NewState: ENABLE or DISABLE.
* Return         : None
*******************************************************************************/
void TIM_ITConfig(TIM_TypeDef* TIMx, uint16_t TIM_IT, FunctionalState NewState)
{  
    1a20:	1101                	addi	sp,sp,-32
    1a22:	ce22                	sw	s0,28(sp)
    1a24:	1000                	addi	s0,sp,32
    1a26:	fea42623          	sw	a0,-20(s0)
    1a2a:	87ae                	mv	a5,a1
    1a2c:	fec42223          	sw	a2,-28(s0)
    1a30:	fef41523          	sh	a5,-22(s0)
C:\Users\windows\Desktop\A_Dual\A_Dual1\Dual-core_Communication_Demo\Dual-core_Communication_Demo\SLAVE\obj/../Libraries/wch_libraries/Peripheral/ch32v10x_tim.c:481
  if (NewState != DISABLE)
    1a34:	fe442783          	lw	a5,-28(s0)
    1a38:	c39d                	beqz	a5,1a5e <TIM_ITConfig+0x3e>
C:\Users\windows\Desktop\A_Dual\A_Dual1\Dual-core_Communication_Demo\Dual-core_Communication_Demo\SLAVE\obj/../Libraries/wch_libraries/Peripheral/ch32v10x_tim.c:483
  {
    TIMx->DMAINTENR |= TIM_IT;
    1a3a:	fec42783          	lw	a5,-20(s0)
    1a3e:	00c7d783          	lhu	a5,12(a5)
    1a42:	01079713          	slli	a4,a5,0x10
    1a46:	8341                	srli	a4,a4,0x10
    1a48:	fea45783          	lhu	a5,-22(s0)
    1a4c:	8fd9                	or	a5,a5,a4
    1a4e:	01079713          	slli	a4,a5,0x10
    1a52:	8341                	srli	a4,a4,0x10
    1a54:	fec42783          	lw	a5,-20(s0)
    1a58:	00e79623          	sh	a4,12(a5)
C:\Users\windows\Desktop\A_Dual\A_Dual1\Dual-core_Communication_Demo\Dual-core_Communication_Demo\SLAVE\obj/../Libraries/wch_libraries/Peripheral/ch32v10x_tim.c:489
  }
  else
  {
    TIMx->DMAINTENR &= (uint16_t)~TIM_IT;
  }
}
    1a5c:	a035                	j	1a88 <TIM_ITConfig+0x68>
C:\Users\windows\Desktop\A_Dual\A_Dual1\Dual-core_Communication_Demo\Dual-core_Communication_Demo\SLAVE\obj/../Libraries/wch_libraries/Peripheral/ch32v10x_tim.c:487
    TIMx->DMAINTENR &= (uint16_t)~TIM_IT;
    1a5e:	fec42783          	lw	a5,-20(s0)
    1a62:	00c7d783          	lhu	a5,12(a5)
    1a66:	01079713          	slli	a4,a5,0x10
    1a6a:	8341                	srli	a4,a4,0x10
    1a6c:	fea45783          	lhu	a5,-22(s0)
    1a70:	fff7c793          	not	a5,a5
    1a74:	07c2                	slli	a5,a5,0x10
    1a76:	83c1                	srli	a5,a5,0x10
    1a78:	8ff9                	and	a5,a5,a4
    1a7a:	01079713          	slli	a4,a5,0x10
    1a7e:	8341                	srli	a4,a4,0x10
    1a80:	fec42783          	lw	a5,-20(s0)
    1a84:	00e79623          	sh	a4,12(a5)
C:\Users\windows\Desktop\A_Dual\A_Dual1\Dual-core_Communication_Demo\Dual-core_Communication_Demo\SLAVE\obj/../Libraries/wch_libraries/Peripheral/ch32v10x_tim.c:489
}
    1a88:	0001                	nop
    1a8a:	4472                	lw	s0,28(sp)
    1a8c:	6105                	addi	sp,sp,32
    1a8e:	8082                	ret

00001a90 <TIM_DMACmd>:
TIM_DMACmd():
C:\Users\windows\Desktop\A_Dual\A_Dual1\Dual-core_Communication_Demo\Dual-core_Communication_Demo\SLAVE\obj/../Libraries/wch_libraries/Peripheral/ch32v10x_tim.c:559
*                    TIM_DMA_Trigger: TIM Trigger DMA source.
*                  NewState: ENABLE or DISABLE.
* Return         : None
*******************************************************************************/
void TIM_DMACmd(TIM_TypeDef* TIMx, uint16_t TIM_DMASource, FunctionalState NewState)
{ 
    1a90:	1101                	addi	sp,sp,-32
    1a92:	ce22                	sw	s0,28(sp)
    1a94:	1000                	addi	s0,sp,32
    1a96:	fea42623          	sw	a0,-20(s0)
    1a9a:	87ae                	mv	a5,a1
    1a9c:	fec42223          	sw	a2,-28(s0)
    1aa0:	fef41523          	sh	a5,-22(s0)
C:\Users\windows\Desktop\A_Dual\A_Dual1\Dual-core_Communication_Demo\Dual-core_Communication_Demo\SLAVE\obj/../Libraries/wch_libraries/Peripheral/ch32v10x_tim.c:560
  if (NewState != DISABLE)
    1aa4:	fe442783          	lw	a5,-28(s0)
    1aa8:	c39d                	beqz	a5,1ace <TIM_DMACmd+0x3e>
C:\Users\windows\Desktop\A_Dual\A_Dual1\Dual-core_Communication_Demo\Dual-core_Communication_Demo\SLAVE\obj/../Libraries/wch_libraries/Peripheral/ch32v10x_tim.c:562
  {
    TIMx->DMAINTENR |= TIM_DMASource; 
    1aaa:	fec42783          	lw	a5,-20(s0)
    1aae:	00c7d783          	lhu	a5,12(a5)
    1ab2:	01079713          	slli	a4,a5,0x10
    1ab6:	8341                	srli	a4,a4,0x10
    1ab8:	fea45783          	lhu	a5,-22(s0)
    1abc:	8fd9                	or	a5,a5,a4
    1abe:	01079713          	slli	a4,a5,0x10
    1ac2:	8341                	srli	a4,a4,0x10
    1ac4:	fec42783          	lw	a5,-20(s0)
    1ac8:	00e79623          	sh	a4,12(a5)
C:\Users\windows\Desktop\A_Dual\A_Dual1\Dual-core_Communication_Demo\Dual-core_Communication_Demo\SLAVE\obj/../Libraries/wch_libraries/Peripheral/ch32v10x_tim.c:568
  }
  else
  {
    TIMx->DMAINTENR &= (uint16_t)~TIM_DMASource;
  }
}
    1acc:	a035                	j	1af8 <TIM_DMACmd+0x68>
C:\Users\windows\Desktop\A_Dual\A_Dual1\Dual-core_Communication_Demo\Dual-core_Communication_Demo\SLAVE\obj/../Libraries/wch_libraries/Peripheral/ch32v10x_tim.c:566
    TIMx->DMAINTENR &= (uint16_t)~TIM_DMASource;
    1ace:	fec42783          	lw	a5,-20(s0)
    1ad2:	00c7d783          	lhu	a5,12(a5)
    1ad6:	01079713          	slli	a4,a5,0x10
    1ada:	8341                	srli	a4,a4,0x10
    1adc:	fea45783          	lhu	a5,-22(s0)
    1ae0:	fff7c793          	not	a5,a5
    1ae4:	07c2                	slli	a5,a5,0x10
    1ae6:	83c1                	srli	a5,a5,0x10
    1ae8:	8ff9                	and	a5,a5,a4
    1aea:	01079713          	slli	a4,a5,0x10
    1aee:	8341                	srli	a4,a4,0x10
    1af0:	fec42783          	lw	a5,-20(s0)
    1af4:	00e79623          	sh	a4,12(a5)
C:\Users\windows\Desktop\A_Dual\A_Dual1\Dual-core_Communication_Demo\Dual-core_Communication_Demo\SLAVE\obj/../Libraries/wch_libraries/Peripheral/ch32v10x_tim.c:568
}
    1af8:	0001                	nop
    1afa:	4472                	lw	s0,28(sp)
    1afc:	6105                	addi	sp,sp,32
    1afe:	8082                	ret

00001b00 <TIM_ETRClockMode1Config>:
TIM_ETRClockMode1Config():
C:\Users\windows\Desktop\A_Dual\A_Dual1\Dual-core_Communication_Demo\Dual-core_Communication_Demo\SLAVE\obj/../Libraries/wch_libraries/Peripheral/ch32v10x_tim.c:649
*                    This parameter must be a value between 0x0 and 0xF.
* Return         : None
*******************************************************************************/
void TIM_ETRClockMode1Config(TIM_TypeDef* TIMx, uint16_t TIM_ExtTRGPrescaler, uint16_t TIM_ExtTRGPolarity,
                             uint16_t ExtTRGFilter)
{
    1b00:	7179                	addi	sp,sp,-48
    1b02:	d606                	sw	ra,44(sp)
    1b04:	d422                	sw	s0,40(sp)
    1b06:	1800                	addi	s0,sp,48
    1b08:	fca42e23          	sw	a0,-36(s0)
    1b0c:	87ae                	mv	a5,a1
    1b0e:	8736                	mv	a4,a3
    1b10:	fcf41d23          	sh	a5,-38(s0)
    1b14:	87b2                	mv	a5,a2
    1b16:	fcf41c23          	sh	a5,-40(s0)
    1b1a:	87ba                	mv	a5,a4
    1b1c:	fcf41b23          	sh	a5,-42(s0)
C:\Users\windows\Desktop\A_Dual\A_Dual1\Dual-core_Communication_Demo\Dual-core_Communication_Demo\SLAVE\obj/../Libraries/wch_libraries/Peripheral/ch32v10x_tim.c:650
  uint16_t tmpsmcr = 0;
    1b20:	fe041723          	sh	zero,-18(s0)
C:\Users\windows\Desktop\A_Dual\A_Dual1\Dual-core_Communication_Demo\Dual-core_Communication_Demo\SLAVE\obj/../Libraries/wch_libraries/Peripheral/ch32v10x_tim.c:652

  TIM_ETRConfig(TIMx, TIM_ExtTRGPrescaler, TIM_ExtTRGPolarity, ExtTRGFilter);
    1b24:	fd645683          	lhu	a3,-42(s0)
    1b28:	fd845703          	lhu	a4,-40(s0)
    1b2c:	fda45783          	lhu	a5,-38(s0)
    1b30:	863a                	mv	a2,a4
    1b32:	85be                	mv	a1,a5
    1b34:	fdc42503          	lw	a0,-36(s0)
    1b38:	2889                	jal	1b8a <TIM_ETRConfig>
C:\Users\windows\Desktop\A_Dual\A_Dual1\Dual-core_Communication_Demo\Dual-core_Communication_Demo\SLAVE\obj/../Libraries/wch_libraries/Peripheral/ch32v10x_tim.c:653
  tmpsmcr = TIMx->SMCFGR;
    1b3a:	fdc42783          	lw	a5,-36(s0)
    1b3e:	0087d783          	lhu	a5,8(a5)
    1b42:	fef41723          	sh	a5,-18(s0)
C:\Users\windows\Desktop\A_Dual\A_Dual1\Dual-core_Communication_Demo\Dual-core_Communication_Demo\SLAVE\obj/../Libraries/wch_libraries/Peripheral/ch32v10x_tim.c:654
  tmpsmcr &= (uint16_t)(~((uint16_t)TIM_SMS));
    1b46:	fee45783          	lhu	a5,-18(s0)
    1b4a:	9be1                	andi	a5,a5,-8
    1b4c:	fef41723          	sh	a5,-18(s0)
C:\Users\windows\Desktop\A_Dual\A_Dual1\Dual-core_Communication_Demo\Dual-core_Communication_Demo\SLAVE\obj/../Libraries/wch_libraries/Peripheral/ch32v10x_tim.c:655
  tmpsmcr |= TIM_SlaveMode_External1;
    1b50:	fee45783          	lhu	a5,-18(s0)
    1b54:	0077e793          	ori	a5,a5,7
    1b58:	fef41723          	sh	a5,-18(s0)
C:\Users\windows\Desktop\A_Dual\A_Dual1\Dual-core_Communication_Demo\Dual-core_Communication_Demo\SLAVE\obj/../Libraries/wch_libraries/Peripheral/ch32v10x_tim.c:656
  tmpsmcr &= (uint16_t)(~((uint16_t)TIM_TS));
    1b5c:	fee45783          	lhu	a5,-18(s0)
    1b60:	f8f7f793          	andi	a5,a5,-113
    1b64:	fef41723          	sh	a5,-18(s0)
C:\Users\windows\Desktop\A_Dual\A_Dual1\Dual-core_Communication_Demo\Dual-core_Communication_Demo\SLAVE\obj/../Libraries/wch_libraries/Peripheral/ch32v10x_tim.c:657
  tmpsmcr |= TIM_TS_ETRF;
    1b68:	fee45783          	lhu	a5,-18(s0)
    1b6c:	0707e793          	ori	a5,a5,112
    1b70:	fef41723          	sh	a5,-18(s0)
C:\Users\windows\Desktop\A_Dual\A_Dual1\Dual-core_Communication_Demo\Dual-core_Communication_Demo\SLAVE\obj/../Libraries/wch_libraries/Peripheral/ch32v10x_tim.c:658
  TIMx->SMCFGR = tmpsmcr;
    1b74:	fdc42783          	lw	a5,-36(s0)
    1b78:	fee45703          	lhu	a4,-18(s0)
    1b7c:	00e79423          	sh	a4,8(a5)
C:\Users\windows\Desktop\A_Dual\A_Dual1\Dual-core_Communication_Demo\Dual-core_Communication_Demo\SLAVE\obj/../Libraries/wch_libraries/Peripheral/ch32v10x_tim.c:659
}
    1b80:	0001                	nop
    1b82:	50b2                	lw	ra,44(sp)
    1b84:	5422                	lw	s0,40(sp)
    1b86:	6145                	addi	sp,sp,48
    1b88:	8082                	ret

00001b8a <TIM_ETRConfig>:
TIM_ETRConfig():
C:\Users\windows\Desktop\A_Dual\A_Dual1\Dual-core_Communication_Demo\Dual-core_Communication_Demo\SLAVE\obj/../Libraries/wch_libraries/Peripheral/ch32v10x_tim.c:702
*                    This parameter must be a value between 0x0 and 0xF.
* Return         : None
*******************************************************************************/
void TIM_ETRConfig(TIM_TypeDef* TIMx, uint16_t TIM_ExtTRGPrescaler, uint16_t TIM_ExtTRGPolarity,
                   uint16_t ExtTRGFilter)
{
    1b8a:	7179                	addi	sp,sp,-48
    1b8c:	d622                	sw	s0,44(sp)
    1b8e:	1800                	addi	s0,sp,48
    1b90:	fca42e23          	sw	a0,-36(s0)
    1b94:	87ae                	mv	a5,a1
    1b96:	8736                	mv	a4,a3
    1b98:	fcf41d23          	sh	a5,-38(s0)
    1b9c:	87b2                	mv	a5,a2
    1b9e:	fcf41c23          	sh	a5,-40(s0)
    1ba2:	87ba                	mv	a5,a4
    1ba4:	fcf41b23          	sh	a5,-42(s0)
C:\Users\windows\Desktop\A_Dual\A_Dual1\Dual-core_Communication_Demo\Dual-core_Communication_Demo\SLAVE\obj/../Libraries/wch_libraries/Peripheral/ch32v10x_tim.c:703
  uint16_t tmpsmcr = 0;
    1ba8:	fe041723          	sh	zero,-18(s0)
C:\Users\windows\Desktop\A_Dual\A_Dual1\Dual-core_Communication_Demo\Dual-core_Communication_Demo\SLAVE\obj/../Libraries/wch_libraries/Peripheral/ch32v10x_tim.c:705

  tmpsmcr = TIMx->SMCFGR;
    1bac:	fdc42783          	lw	a5,-36(s0)
    1bb0:	0087d783          	lhu	a5,8(a5)
    1bb4:	fef41723          	sh	a5,-18(s0)
C:\Users\windows\Desktop\A_Dual\A_Dual1\Dual-core_Communication_Demo\Dual-core_Communication_Demo\SLAVE\obj/../Libraries/wch_libraries/Peripheral/ch32v10x_tim.c:706
  tmpsmcr &= SMCFGR_ETR_Mask;
    1bb8:	fee45783          	lhu	a5,-18(s0)
    1bbc:	0ff7f793          	andi	a5,a5,255
    1bc0:	fef41723          	sh	a5,-18(s0)
C:\Users\windows\Desktop\A_Dual\A_Dual1\Dual-core_Communication_Demo\Dual-core_Communication_Demo\SLAVE\obj/../Libraries/wch_libraries/Peripheral/ch32v10x_tim.c:707
  tmpsmcr |= (uint16_t)(TIM_ExtTRGPrescaler | (uint16_t)(TIM_ExtTRGPolarity | (uint16_t)(ExtTRGFilter << (uint16_t)8)));
    1bc4:	fd645783          	lhu	a5,-42(s0)
    1bc8:	07a2                	slli	a5,a5,0x8
    1bca:	01079713          	slli	a4,a5,0x10
    1bce:	8341                	srli	a4,a4,0x10
    1bd0:	fd845783          	lhu	a5,-40(s0)
    1bd4:	8fd9                	or	a5,a5,a4
    1bd6:	01079713          	slli	a4,a5,0x10
    1bda:	8341                	srli	a4,a4,0x10
    1bdc:	fda45783          	lhu	a5,-38(s0)
    1be0:	8fd9                	or	a5,a5,a4
    1be2:	01079713          	slli	a4,a5,0x10
    1be6:	8341                	srli	a4,a4,0x10
    1be8:	fee45783          	lhu	a5,-18(s0)
    1bec:	8fd9                	or	a5,a5,a4
    1bee:	fef41723          	sh	a5,-18(s0)
C:\Users\windows\Desktop\A_Dual\A_Dual1\Dual-core_Communication_Demo\Dual-core_Communication_Demo\SLAVE\obj/../Libraries/wch_libraries/Peripheral/ch32v10x_tim.c:708
  TIMx->SMCFGR = tmpsmcr;
    1bf2:	fdc42783          	lw	a5,-36(s0)
    1bf6:	fee45703          	lhu	a4,-18(s0)
    1bfa:	00e79423          	sh	a4,8(a5)
C:\Users\windows\Desktop\A_Dual\A_Dual1\Dual-core_Communication_Demo\Dual-core_Communication_Demo\SLAVE\obj/../Libraries/wch_libraries/Peripheral/ch32v10x_tim.c:709
}
    1bfe:	0001                	nop
    1c00:	5432                	lw	s0,44(sp)
    1c02:	6145                	addi	sp,sp,48
    1c04:	8082                	ret

00001c06 <TIM_SelectInputTrigger>:
TIM_SelectInputTrigger():
C:\Users\windows\Desktop\A_Dual\A_Dual1\Dual-core_Communication_Demo\Dual-core_Communication_Demo\SLAVE\obj/../Libraries/wch_libraries/Peripheral/ch32v10x_tim.c:766
*                    TIM_TS_TI2FP2: Filtered Timer Input 2.
*                    TIM_TS_ETRF: External Trigger input.
* Return         : None
*******************************************************************************/
void TIM_SelectInputTrigger(TIM_TypeDef* TIMx, uint16_t TIM_InputTriggerSource)
{
    1c06:	7179                	addi	sp,sp,-48
    1c08:	d622                	sw	s0,44(sp)
    1c0a:	1800                	addi	s0,sp,48
    1c0c:	fca42e23          	sw	a0,-36(s0)
    1c10:	87ae                	mv	a5,a1
    1c12:	fcf41d23          	sh	a5,-38(s0)
C:\Users\windows\Desktop\A_Dual\A_Dual1\Dual-core_Communication_Demo\Dual-core_Communication_Demo\SLAVE\obj/../Libraries/wch_libraries/Peripheral/ch32v10x_tim.c:767
  uint16_t tmpsmcr = 0;
    1c16:	fe041723          	sh	zero,-18(s0)
C:\Users\windows\Desktop\A_Dual\A_Dual1\Dual-core_Communication_Demo\Dual-core_Communication_Demo\SLAVE\obj/../Libraries/wch_libraries/Peripheral/ch32v10x_tim.c:769

  tmpsmcr = TIMx->SMCFGR;
    1c1a:	fdc42783          	lw	a5,-36(s0)
    1c1e:	0087d783          	lhu	a5,8(a5)
    1c22:	fef41723          	sh	a5,-18(s0)
C:\Users\windows\Desktop\A_Dual\A_Dual1\Dual-core_Communication_Demo\Dual-core_Communication_Demo\SLAVE\obj/../Libraries/wch_libraries/Peripheral/ch32v10x_tim.c:770
  tmpsmcr &= (uint16_t)(~((uint16_t)TIM_TS));
    1c26:	fee45783          	lhu	a5,-18(s0)
    1c2a:	f8f7f793          	andi	a5,a5,-113
    1c2e:	fef41723          	sh	a5,-18(s0)
C:\Users\windows\Desktop\A_Dual\A_Dual1\Dual-core_Communication_Demo\Dual-core_Communication_Demo\SLAVE\obj/../Libraries/wch_libraries/Peripheral/ch32v10x_tim.c:771
  tmpsmcr |= TIM_InputTriggerSource;
    1c32:	fee45703          	lhu	a4,-18(s0)
    1c36:	fda45783          	lhu	a5,-38(s0)
    1c3a:	8fd9                	or	a5,a5,a4
    1c3c:	fef41723          	sh	a5,-18(s0)
C:\Users\windows\Desktop\A_Dual\A_Dual1\Dual-core_Communication_Demo\Dual-core_Communication_Demo\SLAVE\obj/../Libraries/wch_libraries/Peripheral/ch32v10x_tim.c:772
  TIMx->SMCFGR = tmpsmcr;
    1c40:	fdc42783          	lw	a5,-36(s0)
    1c44:	fee45703          	lhu	a4,-18(s0)
    1c48:	00e79423          	sh	a4,8(a5)
C:\Users\windows\Desktop\A_Dual\A_Dual1\Dual-core_Communication_Demo\Dual-core_Communication_Demo\SLAVE\obj/../Libraries/wch_libraries/Peripheral/ch32v10x_tim.c:773
}
    1c4c:	0001                	nop
    1c4e:	5432                	lw	s0,44(sp)
    1c50:	6145                	addi	sp,sp,48
    1c52:	8082                	ret

00001c54 <TIM_EncoderInterfaceConfig>:
TIM_EncoderInterfaceConfig():
C:\Users\windows\Desktop\A_Dual\A_Dual1\Dual-core_Communication_Demo\Dual-core_Communication_Demo\SLAVE\obj/../Libraries/wch_libraries/Peripheral/ch32v10x_tim.c:796
*                    TIM_ICPolarity_Rising: IC Rising edge.
* Return         : None
*******************************************************************************/
void TIM_EncoderInterfaceConfig(TIM_TypeDef* TIMx, uint16_t TIM_EncoderMode,
                                uint16_t TIM_IC1Polarity, uint16_t TIM_IC2Polarity)
{
    1c54:	7179                	addi	sp,sp,-48
    1c56:	d622                	sw	s0,44(sp)
    1c58:	1800                	addi	s0,sp,48
    1c5a:	fca42e23          	sw	a0,-36(s0)
    1c5e:	87ae                	mv	a5,a1
    1c60:	8736                	mv	a4,a3
    1c62:	fcf41d23          	sh	a5,-38(s0)
    1c66:	87b2                	mv	a5,a2
    1c68:	fcf41c23          	sh	a5,-40(s0)
    1c6c:	87ba                	mv	a5,a4
    1c6e:	fcf41b23          	sh	a5,-42(s0)
C:\Users\windows\Desktop\A_Dual\A_Dual1\Dual-core_Communication_Demo\Dual-core_Communication_Demo\SLAVE\obj/../Libraries/wch_libraries/Peripheral/ch32v10x_tim.c:797
  uint16_t tmpsmcr = 0;
    1c72:	fe041723          	sh	zero,-18(s0)
C:\Users\windows\Desktop\A_Dual\A_Dual1\Dual-core_Communication_Demo\Dual-core_Communication_Demo\SLAVE\obj/../Libraries/wch_libraries/Peripheral/ch32v10x_tim.c:798
  uint16_t tmpccmr1 = 0;
    1c76:	fe041623          	sh	zero,-20(s0)
C:\Users\windows\Desktop\A_Dual\A_Dual1\Dual-core_Communication_Demo\Dual-core_Communication_Demo\SLAVE\obj/../Libraries/wch_libraries/Peripheral/ch32v10x_tim.c:799
  uint16_t tmpccer = 0;
    1c7a:	fe041523          	sh	zero,-22(s0)
C:\Users\windows\Desktop\A_Dual\A_Dual1\Dual-core_Communication_Demo\Dual-core_Communication_Demo\SLAVE\obj/../Libraries/wch_libraries/Peripheral/ch32v10x_tim.c:801
    
  tmpsmcr = TIMx->SMCFGR;
    1c7e:	fdc42783          	lw	a5,-36(s0)
    1c82:	0087d783          	lhu	a5,8(a5)
    1c86:	fef41723          	sh	a5,-18(s0)
C:\Users\windows\Desktop\A_Dual\A_Dual1\Dual-core_Communication_Demo\Dual-core_Communication_Demo\SLAVE\obj/../Libraries/wch_libraries/Peripheral/ch32v10x_tim.c:802
  tmpccmr1 = TIMx->CHCTLR1;
    1c8a:	fdc42783          	lw	a5,-36(s0)
    1c8e:	0187d783          	lhu	a5,24(a5)
    1c92:	fef41623          	sh	a5,-20(s0)
C:\Users\windows\Desktop\A_Dual\A_Dual1\Dual-core_Communication_Demo\Dual-core_Communication_Demo\SLAVE\obj/../Libraries/wch_libraries/Peripheral/ch32v10x_tim.c:803
  tmpccer = TIMx->CCER;
    1c96:	fdc42783          	lw	a5,-36(s0)
    1c9a:	0207d783          	lhu	a5,32(a5)
    1c9e:	fef41523          	sh	a5,-22(s0)
C:\Users\windows\Desktop\A_Dual\A_Dual1\Dual-core_Communication_Demo\Dual-core_Communication_Demo\SLAVE\obj/../Libraries/wch_libraries/Peripheral/ch32v10x_tim.c:804
  tmpsmcr &= (uint16_t)(~((uint16_t)TIM_SMS));
    1ca2:	fee45783          	lhu	a5,-18(s0)
    1ca6:	9be1                	andi	a5,a5,-8
    1ca8:	fef41723          	sh	a5,-18(s0)
C:\Users\windows\Desktop\A_Dual\A_Dual1\Dual-core_Communication_Demo\Dual-core_Communication_Demo\SLAVE\obj/../Libraries/wch_libraries/Peripheral/ch32v10x_tim.c:805
  tmpsmcr |= TIM_EncoderMode;
    1cac:	fee45703          	lhu	a4,-18(s0)
    1cb0:	fda45783          	lhu	a5,-38(s0)
    1cb4:	8fd9                	or	a5,a5,a4
    1cb6:	fef41723          	sh	a5,-18(s0)
C:\Users\windows\Desktop\A_Dual\A_Dual1\Dual-core_Communication_Demo\Dual-core_Communication_Demo\SLAVE\obj/../Libraries/wch_libraries/Peripheral/ch32v10x_tim.c:806
  tmpccmr1 &= (uint16_t)(((uint16_t)~((uint16_t)TIM_CC1S)) & (uint16_t)(~((uint16_t)TIM_CC2S)));
    1cba:	fec45783          	lhu	a5,-20(s0)
    1cbe:	cfc7f793          	andi	a5,a5,-772
    1cc2:	fef41623          	sh	a5,-20(s0)
C:\Users\windows\Desktop\A_Dual\A_Dual1\Dual-core_Communication_Demo\Dual-core_Communication_Demo\SLAVE\obj/../Libraries/wch_libraries/Peripheral/ch32v10x_tim.c:807
  tmpccmr1 |= TIM_CC1S_0 | TIM_CC2S_0;
    1cc6:	fec45783          	lhu	a5,-20(s0)
    1cca:	1017e793          	ori	a5,a5,257
    1cce:	fef41623          	sh	a5,-20(s0)
C:\Users\windows\Desktop\A_Dual\A_Dual1\Dual-core_Communication_Demo\Dual-core_Communication_Demo\SLAVE\obj/../Libraries/wch_libraries/Peripheral/ch32v10x_tim.c:808
  tmpccer &= (uint16_t)(((uint16_t)~((uint16_t)TIM_CC1P)) & ((uint16_t)~((uint16_t)TIM_CC2P)));
    1cd2:	fea45783          	lhu	a5,-22(s0)
    1cd6:	fdd7f793          	andi	a5,a5,-35
    1cda:	fef41523          	sh	a5,-22(s0)
C:\Users\windows\Desktop\A_Dual\A_Dual1\Dual-core_Communication_Demo\Dual-core_Communication_Demo\SLAVE\obj/../Libraries/wch_libraries/Peripheral/ch32v10x_tim.c:809
  tmpccer |= (uint16_t)(TIM_IC1Polarity | (uint16_t)(TIM_IC2Polarity << (uint16_t)4)); 
    1cde:	fd645783          	lhu	a5,-42(s0)
    1ce2:	0792                	slli	a5,a5,0x4
    1ce4:	01079713          	slli	a4,a5,0x10
    1ce8:	8341                	srli	a4,a4,0x10
    1cea:	fd845783          	lhu	a5,-40(s0)
    1cee:	8fd9                	or	a5,a5,a4
    1cf0:	01079713          	slli	a4,a5,0x10
    1cf4:	8341                	srli	a4,a4,0x10
    1cf6:	fea45783          	lhu	a5,-22(s0)
    1cfa:	8fd9                	or	a5,a5,a4
    1cfc:	fef41523          	sh	a5,-22(s0)
C:\Users\windows\Desktop\A_Dual\A_Dual1\Dual-core_Communication_Demo\Dual-core_Communication_Demo\SLAVE\obj/../Libraries/wch_libraries/Peripheral/ch32v10x_tim.c:810
  TIMx->SMCFGR = tmpsmcr;
    1d00:	fdc42783          	lw	a5,-36(s0)
    1d04:	fee45703          	lhu	a4,-18(s0)
    1d08:	00e79423          	sh	a4,8(a5)
C:\Users\windows\Desktop\A_Dual\A_Dual1\Dual-core_Communication_Demo\Dual-core_Communication_Demo\SLAVE\obj/../Libraries/wch_libraries/Peripheral/ch32v10x_tim.c:811
  TIMx->CHCTLR1 = tmpccmr1;
    1d0c:	fdc42783          	lw	a5,-36(s0)
    1d10:	fec45703          	lhu	a4,-20(s0)
    1d14:	00e79c23          	sh	a4,24(a5)
C:\Users\windows\Desktop\A_Dual\A_Dual1\Dual-core_Communication_Demo\Dual-core_Communication_Demo\SLAVE\obj/../Libraries/wch_libraries/Peripheral/ch32v10x_tim.c:812
  TIMx->CCER = tmpccer;
    1d18:	fdc42783          	lw	a5,-36(s0)
    1d1c:	fea45703          	lhu	a4,-22(s0)
    1d20:	02e79023          	sh	a4,32(a5)
C:\Users\windows\Desktop\A_Dual\A_Dual1\Dual-core_Communication_Demo\Dual-core_Communication_Demo\SLAVE\obj/../Libraries/wch_libraries/Peripheral/ch32v10x_tim.c:813
}
    1d24:	0001                	nop
    1d26:	5432                	lw	s0,44(sp)
    1d28:	6145                	addi	sp,sp,48
    1d2a:	8082                	ret

00001d2c <TIM_SelectSlaveMode>:
TIM_SelectSlaveMode():
C:\Users\windows\Desktop\A_Dual\A_Dual1\Dual-core_Communication_Demo\Dual-core_Communication_Demo\SLAVE\obj/../Libraries/wch_libraries/Peripheral/ch32v10x_tim.c:1535
*                    TIM_SlaveMode_External1: Rising edges of the selected trigger
*      (TRGI) clock the counter.
* Return         : None
*******************************************************************************/
void TIM_SelectSlaveMode(TIM_TypeDef* TIMx, uint16_t TIM_SlaveMode)
{
    1d2c:	1101                	addi	sp,sp,-32
    1d2e:	ce22                	sw	s0,28(sp)
    1d30:	1000                	addi	s0,sp,32
    1d32:	fea42623          	sw	a0,-20(s0)
    1d36:	87ae                	mv	a5,a1
    1d38:	fef41523          	sh	a5,-22(s0)
C:\Users\windows\Desktop\A_Dual\A_Dual1\Dual-core_Communication_Demo\Dual-core_Communication_Demo\SLAVE\obj/../Libraries/wch_libraries/Peripheral/ch32v10x_tim.c:1536
  TIMx->SMCFGR &= (uint16_t)~((uint16_t)TIM_SMS);
    1d3c:	fec42783          	lw	a5,-20(s0)
    1d40:	0087d783          	lhu	a5,8(a5)
    1d44:	07c2                	slli	a5,a5,0x10
    1d46:	83c1                	srli	a5,a5,0x10
    1d48:	9be1                	andi	a5,a5,-8
    1d4a:	01079713          	slli	a4,a5,0x10
    1d4e:	8341                	srli	a4,a4,0x10
    1d50:	fec42783          	lw	a5,-20(s0)
    1d54:	00e79423          	sh	a4,8(a5)
C:\Users\windows\Desktop\A_Dual\A_Dual1\Dual-core_Communication_Demo\Dual-core_Communication_Demo\SLAVE\obj/../Libraries/wch_libraries/Peripheral/ch32v10x_tim.c:1537
  TIMx->SMCFGR |= TIM_SlaveMode;
    1d58:	fec42783          	lw	a5,-20(s0)
    1d5c:	0087d783          	lhu	a5,8(a5)
    1d60:	01079713          	slli	a4,a5,0x10
    1d64:	8341                	srli	a4,a4,0x10
    1d66:	fea45783          	lhu	a5,-22(s0)
    1d6a:	8fd9                	or	a5,a5,a4
    1d6c:	01079713          	slli	a4,a5,0x10
    1d70:	8341                	srli	a4,a4,0x10
    1d72:	fec42783          	lw	a5,-20(s0)
    1d76:	00e79423          	sh	a4,8(a5)
C:\Users\windows\Desktop\A_Dual\A_Dual1\Dual-core_Communication_Demo\Dual-core_Communication_Demo\SLAVE\obj/../Libraries/wch_libraries/Peripheral/ch32v10x_tim.c:1538
}
    1d7a:	0001                	nop
    1d7c:	4472                	lw	s0,28(sp)
    1d7e:	6105                	addi	sp,sp,32
    1d80:	8082                	ret

00001d82 <TIM_SelectMasterSlaveMode>:
TIM_SelectMasterSlaveMode():
C:\Users\windows\Desktop\A_Dual\A_Dual1\Dual-core_Communication_Demo\Dual-core_Communication_Demo\SLAVE\obj/../Libraries/wch_libraries/Peripheral/ch32v10x_tim.c:1551
*      timer and its slaves (through TRGO).
*                    TIM_MasterSlaveMode_Disable: No action.
* Return         : None
*******************************************************************************/
void TIM_SelectMasterSlaveMode(TIM_TypeDef* TIMx, uint16_t TIM_MasterSlaveMode)
{
    1d82:	1101                	addi	sp,sp,-32
    1d84:	ce22                	sw	s0,28(sp)
    1d86:	1000                	addi	s0,sp,32
    1d88:	fea42623          	sw	a0,-20(s0)
    1d8c:	87ae                	mv	a5,a1
    1d8e:	fef41523          	sh	a5,-22(s0)
C:\Users\windows\Desktop\A_Dual\A_Dual1\Dual-core_Communication_Demo\Dual-core_Communication_Demo\SLAVE\obj/../Libraries/wch_libraries/Peripheral/ch32v10x_tim.c:1552
  TIMx->SMCFGR &= (uint16_t)~((uint16_t)TIM_MSM);  
    1d92:	fec42783          	lw	a5,-20(s0)
    1d96:	0087d783          	lhu	a5,8(a5)
    1d9a:	07c2                	slli	a5,a5,0x10
    1d9c:	83c1                	srli	a5,a5,0x10
    1d9e:	f7f7f793          	andi	a5,a5,-129
    1da2:	01079713          	slli	a4,a5,0x10
    1da6:	8341                	srli	a4,a4,0x10
    1da8:	fec42783          	lw	a5,-20(s0)
    1dac:	00e79423          	sh	a4,8(a5)
C:\Users\windows\Desktop\A_Dual\A_Dual1\Dual-core_Communication_Demo\Dual-core_Communication_Demo\SLAVE\obj/../Libraries/wch_libraries/Peripheral/ch32v10x_tim.c:1553
  TIMx->SMCFGR |= TIM_MasterSlaveMode;
    1db0:	fec42783          	lw	a5,-20(s0)
    1db4:	0087d783          	lhu	a5,8(a5)
    1db8:	01079713          	slli	a4,a5,0x10
    1dbc:	8341                	srli	a4,a4,0x10
    1dbe:	fea45783          	lhu	a5,-22(s0)
    1dc2:	8fd9                	or	a5,a5,a4
    1dc4:	01079713          	slli	a4,a5,0x10
    1dc8:	8341                	srli	a4,a4,0x10
    1dca:	fec42783          	lw	a5,-20(s0)
    1dce:	00e79423          	sh	a4,8(a5)
C:\Users\windows\Desktop\A_Dual\A_Dual1\Dual-core_Communication_Demo\Dual-core_Communication_Demo\SLAVE\obj/../Libraries/wch_libraries/Peripheral/ch32v10x_tim.c:1554
}
    1dd2:	0001                	nop
    1dd4:	4472                	lw	s0,28(sp)
    1dd6:	6105                	addi	sp,sp,32
    1dd8:	8082                	ret

00001dda <TIM_GetITStatus>:
TIM_GetITStatus():
C:\Users\windows\Desktop\A_Dual\A_Dual1\Dual-core_Communication_Demo\Dual-core_Communication_Demo\SLAVE\obj/../Libraries/wch_libraries/Peripheral/ch32v10x_tim.c:1853
*                    TIM_IT_Trigger: TIM Trigger Interrupt source.
*                    TIM_IT_Break: TIM Break Interrupt source.
* Return         : bitstatus: SET or RESET.
*******************************************************************************/
ITStatus TIM_GetITStatus(TIM_TypeDef* TIMx, uint16_t TIM_IT)
{
    1dda:	7179                	addi	sp,sp,-48
    1ddc:	d622                	sw	s0,44(sp)
    1dde:	1800                	addi	s0,sp,48
    1de0:	fca42e23          	sw	a0,-36(s0)
    1de4:	87ae                	mv	a5,a1
    1de6:	fcf41d23          	sh	a5,-38(s0)
C:\Users\windows\Desktop\A_Dual\A_Dual1\Dual-core_Communication_Demo\Dual-core_Communication_Demo\SLAVE\obj/../Libraries/wch_libraries/Peripheral/ch32v10x_tim.c:1854
  ITStatus bitstatus = RESET;  
    1dea:	fe042623          	sw	zero,-20(s0)
C:\Users\windows\Desktop\A_Dual\A_Dual1\Dual-core_Communication_Demo\Dual-core_Communication_Demo\SLAVE\obj/../Libraries/wch_libraries/Peripheral/ch32v10x_tim.c:1855
  uint16_t itstatus = 0x0, itenable = 0x0;
    1dee:	fe041523          	sh	zero,-22(s0)
    1df2:	fe041423          	sh	zero,-24(s0)
C:\Users\windows\Desktop\A_Dual\A_Dual1\Dual-core_Communication_Demo\Dual-core_Communication_Demo\SLAVE\obj/../Libraries/wch_libraries/Peripheral/ch32v10x_tim.c:1857
   
  itstatus = TIMx->INTFR & TIM_IT;
    1df6:	fdc42783          	lw	a5,-36(s0)
    1dfa:	0107d783          	lhu	a5,16(a5)
    1dfe:	01079713          	slli	a4,a5,0x10
    1e02:	8341                	srli	a4,a4,0x10
    1e04:	fda45783          	lhu	a5,-38(s0)
    1e08:	8ff9                	and	a5,a5,a4
    1e0a:	fef41523          	sh	a5,-22(s0)
C:\Users\windows\Desktop\A_Dual\A_Dual1\Dual-core_Communication_Demo\Dual-core_Communication_Demo\SLAVE\obj/../Libraries/wch_libraries/Peripheral/ch32v10x_tim.c:1859
  
  itenable = TIMx->DMAINTENR & TIM_IT;
    1e0e:	fdc42783          	lw	a5,-36(s0)
    1e12:	00c7d783          	lhu	a5,12(a5)
    1e16:	01079713          	slli	a4,a5,0x10
    1e1a:	8341                	srli	a4,a4,0x10
    1e1c:	fda45783          	lhu	a5,-38(s0)
    1e20:	8ff9                	and	a5,a5,a4
    1e22:	fef41423          	sh	a5,-24(s0)
C:\Users\windows\Desktop\A_Dual\A_Dual1\Dual-core_Communication_Demo\Dual-core_Communication_Demo\SLAVE\obj/../Libraries/wch_libraries/Peripheral/ch32v10x_tim.c:1860
  if ((itstatus != (uint16_t)RESET) && (itenable != (uint16_t)RESET))
    1e26:	fea45783          	lhu	a5,-22(s0)
    1e2a:	cb81                	beqz	a5,1e3a <TIM_GetITStatus+0x60>
C:\Users\windows\Desktop\A_Dual\A_Dual1\Dual-core_Communication_Demo\Dual-core_Communication_Demo\SLAVE\obj/../Libraries/wch_libraries/Peripheral/ch32v10x_tim.c:1860 (discriminator 1)
    1e2c:	fe845783          	lhu	a5,-24(s0)
    1e30:	c789                	beqz	a5,1e3a <TIM_GetITStatus+0x60>
C:\Users\windows\Desktop\A_Dual\A_Dual1\Dual-core_Communication_Demo\Dual-core_Communication_Demo\SLAVE\obj/../Libraries/wch_libraries/Peripheral/ch32v10x_tim.c:1862
  {
    bitstatus = SET;
    1e32:	4785                	li	a5,1
    1e34:	fef42623          	sw	a5,-20(s0)
    1e38:	a019                	j	1e3e <TIM_GetITStatus+0x64>
C:\Users\windows\Desktop\A_Dual\A_Dual1\Dual-core_Communication_Demo\Dual-core_Communication_Demo\SLAVE\obj/../Libraries/wch_libraries/Peripheral/ch32v10x_tim.c:1866
  }
  else
  {
    bitstatus = RESET;
    1e3a:	fe042623          	sw	zero,-20(s0)
C:\Users\windows\Desktop\A_Dual\A_Dual1\Dual-core_Communication_Demo\Dual-core_Communication_Demo\SLAVE\obj/../Libraries/wch_libraries/Peripheral/ch32v10x_tim.c:1869
  }
	
  return bitstatus;
    1e3e:	fec42783          	lw	a5,-20(s0)
C:\Users\windows\Desktop\A_Dual\A_Dual1\Dual-core_Communication_Demo\Dual-core_Communication_Demo\SLAVE\obj/../Libraries/wch_libraries/Peripheral/ch32v10x_tim.c:1870
}
    1e42:	853e                	mv	a0,a5
    1e44:	5432                	lw	s0,44(sp)
    1e46:	6145                	addi	sp,sp,48
    1e48:	8082                	ret

00001e4a <TIM_ClearITPendingBit>:
TIM_ClearITPendingBit():
C:\Users\windows\Desktop\A_Dual\A_Dual1\Dual-core_Communication_Demo\Dual-core_Communication_Demo\SLAVE\obj/../Libraries/wch_libraries/Peripheral/ch32v10x_tim.c:1888
*                    TIM_IT_Trigger: TIM Trigger Interrupt source.
*                    TIM_IT_Break: TIM Break Interrupt source.
* Return         : None
*******************************************************************************/
void TIM_ClearITPendingBit(TIM_TypeDef* TIMx, uint16_t TIM_IT)
{
    1e4a:	1101                	addi	sp,sp,-32
    1e4c:	ce22                	sw	s0,28(sp)
    1e4e:	1000                	addi	s0,sp,32
    1e50:	fea42623          	sw	a0,-20(s0)
    1e54:	87ae                	mv	a5,a1
    1e56:	fef41523          	sh	a5,-22(s0)
C:\Users\windows\Desktop\A_Dual\A_Dual1\Dual-core_Communication_Demo\Dual-core_Communication_Demo\SLAVE\obj/../Libraries/wch_libraries/Peripheral/ch32v10x_tim.c:1889
  TIMx->INTFR = (uint16_t)~TIM_IT;
    1e5a:	fea45783          	lhu	a5,-22(s0)
    1e5e:	fff7c793          	not	a5,a5
    1e62:	01079713          	slli	a4,a5,0x10
    1e66:	8341                	srli	a4,a4,0x10
    1e68:	fec42783          	lw	a5,-20(s0)
    1e6c:	00e79823          	sh	a4,16(a5)
C:\Users\windows\Desktop\A_Dual\A_Dual1\Dual-core_Communication_Demo\Dual-core_Communication_Demo\SLAVE\obj/../Libraries/wch_libraries/Peripheral/ch32v10x_tim.c:1890
}
    1e70:	0001                	nop
    1e72:	4472                	lw	s0,28(sp)
    1e74:	6105                	addi	sp,sp,32
    1e76:	8082                	ret

00001e78 <USART_Init>:
USART_Init():
C:\Users\windows\Desktop\A_Dual\A_Dual1\Dual-core_Communication_Demo\Dual-core_Communication_Demo\SLAVE\obj/../Libraries/wch_libraries/Peripheral/ch32v10x_usart.c:105
*                  USART_InitStruct: pointer to a USART_InitTypeDef structure
*      that contains the configuration information for the specified USART peripheral. 
* Return         : None
*******************************************************************************/
void USART_Init(USART_TypeDef* USARTx, USART_InitTypeDef* USART_InitStruct)
{
    1e78:	715d                	addi	sp,sp,-80
    1e7a:	c686                	sw	ra,76(sp)
    1e7c:	c4a2                	sw	s0,72(sp)
    1e7e:	0880                	addi	s0,sp,80
    1e80:	faa42e23          	sw	a0,-68(s0)
    1e84:	fab42c23          	sw	a1,-72(s0)
C:\Users\windows\Desktop\A_Dual\A_Dual1\Dual-core_Communication_Demo\Dual-core_Communication_Demo\SLAVE\obj/../Libraries/wch_libraries/Peripheral/ch32v10x_usart.c:106
  uint32_t tmpreg = 0x00, apbclock = 0x00;
    1e88:	fe042623          	sw	zero,-20(s0)
    1e8c:	fe042423          	sw	zero,-24(s0)
C:\Users\windows\Desktop\A_Dual\A_Dual1\Dual-core_Communication_Demo\Dual-core_Communication_Demo\SLAVE\obj/../Libraries/wch_libraries/Peripheral/ch32v10x_usart.c:107
  uint32_t integerdivider = 0x00;
    1e90:	fe042223          	sw	zero,-28(s0)
C:\Users\windows\Desktop\A_Dual\A_Dual1\Dual-core_Communication_Demo\Dual-core_Communication_Demo\SLAVE\obj/../Libraries/wch_libraries/Peripheral/ch32v10x_usart.c:108
  uint32_t fractionaldivider = 0x00;
    1e94:	fe042023          	sw	zero,-32(s0)
C:\Users\windows\Desktop\A_Dual\A_Dual1\Dual-core_Communication_Demo\Dual-core_Communication_Demo\SLAVE\obj/../Libraries/wch_libraries/Peripheral/ch32v10x_usart.c:109
  uint32_t usartxbase = 0;
    1e98:	fc042e23          	sw	zero,-36(s0)
C:\Users\windows\Desktop\A_Dual\A_Dual1\Dual-core_Communication_Demo\Dual-core_Communication_Demo\SLAVE\obj/../Libraries/wch_libraries/Peripheral/ch32v10x_usart.c:116

  if (USART_InitStruct->USART_HardwareFlowControl != USART_HardwareFlowControl_None)
  {
  }

  usartxbase = (uint32_t)USARTx;
    1e9c:	fbc42783          	lw	a5,-68(s0)
    1ea0:	fcf42e23          	sw	a5,-36(s0)
C:\Users\windows\Desktop\A_Dual\A_Dual1\Dual-core_Communication_Demo\Dual-core_Communication_Demo\SLAVE\obj/../Libraries/wch_libraries/Peripheral/ch32v10x_usart.c:117
  tmpreg = USARTx->CTLR2;
    1ea4:	fbc42783          	lw	a5,-68(s0)
    1ea8:	0107d783          	lhu	a5,16(a5)
    1eac:	07c2                	slli	a5,a5,0x10
    1eae:	83c1                	srli	a5,a5,0x10
    1eb0:	fef42623          	sw	a5,-20(s0)
C:\Users\windows\Desktop\A_Dual\A_Dual1\Dual-core_Communication_Demo\Dual-core_Communication_Demo\SLAVE\obj/../Libraries/wch_libraries/Peripheral/ch32v10x_usart.c:118
  tmpreg &= CTLR2_STOP_CLEAR_Mask;
    1eb4:	fec42703          	lw	a4,-20(s0)
    1eb8:	67b5                	lui	a5,0xd
    1eba:	17fd                	addi	a5,a5,-1
    1ebc:	8ff9                	and	a5,a5,a4
    1ebe:	fef42623          	sw	a5,-20(s0)
C:\Users\windows\Desktop\A_Dual\A_Dual1\Dual-core_Communication_Demo\Dual-core_Communication_Demo\SLAVE\obj/../Libraries/wch_libraries/Peripheral/ch32v10x_usart.c:119
  tmpreg |= (uint32_t)USART_InitStruct->USART_StopBits;  
    1ec2:	fb842783          	lw	a5,-72(s0)
    1ec6:	0067d783          	lhu	a5,6(a5) # d006 <_data_lma+0x6d2e>
    1eca:	873e                	mv	a4,a5
    1ecc:	fec42783          	lw	a5,-20(s0)
    1ed0:	8fd9                	or	a5,a5,a4
    1ed2:	fef42623          	sw	a5,-20(s0)
C:\Users\windows\Desktop\A_Dual\A_Dual1\Dual-core_Communication_Demo\Dual-core_Communication_Demo\SLAVE\obj/../Libraries/wch_libraries/Peripheral/ch32v10x_usart.c:121
	
  USARTx->CTLR2 = (uint16_t)tmpreg;
    1ed6:	fec42783          	lw	a5,-20(s0)
    1eda:	01079713          	slli	a4,a5,0x10
    1ede:	8341                	srli	a4,a4,0x10
    1ee0:	fbc42783          	lw	a5,-68(s0)
    1ee4:	00e79823          	sh	a4,16(a5)
C:\Users\windows\Desktop\A_Dual\A_Dual1\Dual-core_Communication_Demo\Dual-core_Communication_Demo\SLAVE\obj/../Libraries/wch_libraries/Peripheral/ch32v10x_usart.c:122
  tmpreg = USARTx->CTLR1;
    1ee8:	fbc42783          	lw	a5,-68(s0)
    1eec:	00c7d783          	lhu	a5,12(a5)
    1ef0:	07c2                	slli	a5,a5,0x10
    1ef2:	83c1                	srli	a5,a5,0x10
    1ef4:	fef42623          	sw	a5,-20(s0)
C:\Users\windows\Desktop\A_Dual\A_Dual1\Dual-core_Communication_Demo\Dual-core_Communication_Demo\SLAVE\obj/../Libraries/wch_libraries/Peripheral/ch32v10x_usart.c:123
  tmpreg &= CTLR1_CLEAR_Mask;
    1ef8:	fec42703          	lw	a4,-20(s0)
    1efc:	67bd                	lui	a5,0xf
    1efe:	9f378793          	addi	a5,a5,-1549 # e9f3 <_data_lma+0x871b>
    1f02:	8ff9                	and	a5,a5,a4
    1f04:	fef42623          	sw	a5,-20(s0)
C:\Users\windows\Desktop\A_Dual\A_Dual1\Dual-core_Communication_Demo\Dual-core_Communication_Demo\SLAVE\obj/../Libraries/wch_libraries/Peripheral/ch32v10x_usart.c:124
  tmpreg |= (uint32_t)USART_InitStruct->USART_WordLength | USART_InitStruct->USART_Parity |
    1f08:	fb842783          	lw	a5,-72(s0)
    1f0c:	0047d703          	lhu	a4,4(a5)
    1f10:	fb842783          	lw	a5,-72(s0)
    1f14:	0087d783          	lhu	a5,8(a5)
    1f18:	8fd9                	or	a5,a5,a4
    1f1a:	01079713          	slli	a4,a5,0x10
    1f1e:	8341                	srli	a4,a4,0x10
C:\Users\windows\Desktop\A_Dual\A_Dual1\Dual-core_Communication_Demo\Dual-core_Communication_Demo\SLAVE\obj/../Libraries/wch_libraries/Peripheral/ch32v10x_usart.c:125
            USART_InitStruct->USART_Mode;
    1f20:	fb842783          	lw	a5,-72(s0)
    1f24:	00a7d783          	lhu	a5,10(a5)
C:\Users\windows\Desktop\A_Dual\A_Dual1\Dual-core_Communication_Demo\Dual-core_Communication_Demo\SLAVE\obj/../Libraries/wch_libraries/Peripheral/ch32v10x_usart.c:124
  tmpreg |= (uint32_t)USART_InitStruct->USART_WordLength | USART_InitStruct->USART_Parity |
    1f28:	8fd9                	or	a5,a5,a4
    1f2a:	07c2                	slli	a5,a5,0x10
    1f2c:	83c1                	srli	a5,a5,0x10
    1f2e:	873e                	mv	a4,a5
    1f30:	fec42783          	lw	a5,-20(s0)
    1f34:	8fd9                	or	a5,a5,a4
    1f36:	fef42623          	sw	a5,-20(s0)
C:\Users\windows\Desktop\A_Dual\A_Dual1\Dual-core_Communication_Demo\Dual-core_Communication_Demo\SLAVE\obj/../Libraries/wch_libraries/Peripheral/ch32v10x_usart.c:126
  USARTx->CTLR1 = (uint16_t)tmpreg;
    1f3a:	fec42783          	lw	a5,-20(s0)
    1f3e:	01079713          	slli	a4,a5,0x10
    1f42:	8341                	srli	a4,a4,0x10
    1f44:	fbc42783          	lw	a5,-68(s0)
    1f48:	00e79623          	sh	a4,12(a5)
C:\Users\windows\Desktop\A_Dual\A_Dual1\Dual-core_Communication_Demo\Dual-core_Communication_Demo\SLAVE\obj/../Libraries/wch_libraries/Peripheral/ch32v10x_usart.c:128
 
  tmpreg = USARTx->CTLR3;
    1f4c:	fbc42783          	lw	a5,-68(s0)
    1f50:	0147d783          	lhu	a5,20(a5)
    1f54:	07c2                	slli	a5,a5,0x10
    1f56:	83c1                	srli	a5,a5,0x10
    1f58:	fef42623          	sw	a5,-20(s0)
C:\Users\windows\Desktop\A_Dual\A_Dual1\Dual-core_Communication_Demo\Dual-core_Communication_Demo\SLAVE\obj/../Libraries/wch_libraries/Peripheral/ch32v10x_usart.c:129
  tmpreg &= CTLR3_CLEAR_Mask;
    1f5c:	fec42703          	lw	a4,-20(s0)
    1f60:	67c1                	lui	a5,0x10
    1f62:	cff78793          	addi	a5,a5,-769 # fcff <_data_lma+0x9a27>
    1f66:	8ff9                	and	a5,a5,a4
    1f68:	fef42623          	sw	a5,-20(s0)
C:\Users\windows\Desktop\A_Dual\A_Dual1\Dual-core_Communication_Demo\Dual-core_Communication_Demo\SLAVE\obj/../Libraries/wch_libraries/Peripheral/ch32v10x_usart.c:130
  tmpreg |= USART_InitStruct->USART_HardwareFlowControl;
    1f6c:	fb842783          	lw	a5,-72(s0)
    1f70:	00c7d783          	lhu	a5,12(a5)
    1f74:	873e                	mv	a4,a5
    1f76:	fec42783          	lw	a5,-20(s0)
    1f7a:	8fd9                	or	a5,a5,a4
    1f7c:	fef42623          	sw	a5,-20(s0)
C:\Users\windows\Desktop\A_Dual\A_Dual1\Dual-core_Communication_Demo\Dual-core_Communication_Demo\SLAVE\obj/../Libraries/wch_libraries/Peripheral/ch32v10x_usart.c:131
  USARTx->CTLR3 = (uint16_t)tmpreg;
    1f80:	fec42783          	lw	a5,-20(s0)
    1f84:	01079713          	slli	a4,a5,0x10
    1f88:	8341                	srli	a4,a4,0x10
    1f8a:	fbc42783          	lw	a5,-68(s0)
    1f8e:	00e79a23          	sh	a4,20(a5)
C:\Users\windows\Desktop\A_Dual\A_Dual1\Dual-core_Communication_Demo\Dual-core_Communication_Demo\SLAVE\obj/../Libraries/wch_libraries/Peripheral/ch32v10x_usart.c:133

  RCC_GetClocksFreq(&RCC_ClocksStatus);
    1f92:	fc840793          	addi	a5,s0,-56
    1f96:	853e                	mv	a0,a5
    1f98:	cbcff0ef          	jal	ra,1454 <RCC_GetClocksFreq>
C:\Users\windows\Desktop\A_Dual\A_Dual1\Dual-core_Communication_Demo\Dual-core_Communication_Demo\SLAVE\obj/../Libraries/wch_libraries/Peripheral/ch32v10x_usart.c:135
	
  if (usartxbase == USART1_BASE)
    1f9c:	fdc42703          	lw	a4,-36(s0)
    1fa0:	400147b7          	lui	a5,0x40014
    1fa4:	80078793          	addi	a5,a5,-2048 # 40013800 <_eusrstack+0x2000e800>
    1fa8:	00f71763          	bne	a4,a5,1fb6 <USART_Init+0x13e>
C:\Users\windows\Desktop\A_Dual\A_Dual1\Dual-core_Communication_Demo\Dual-core_Communication_Demo\SLAVE\obj/../Libraries/wch_libraries/Peripheral/ch32v10x_usart.c:137
  {
    apbclock = RCC_ClocksStatus.PCLK2_Frequency;
    1fac:	fd442783          	lw	a5,-44(s0)
    1fb0:	fef42423          	sw	a5,-24(s0)
    1fb4:	a029                	j	1fbe <USART_Init+0x146>
C:\Users\windows\Desktop\A_Dual\A_Dual1\Dual-core_Communication_Demo\Dual-core_Communication_Demo\SLAVE\obj/../Libraries/wch_libraries/Peripheral/ch32v10x_usart.c:141
  }
  else
  {
    apbclock = RCC_ClocksStatus.PCLK1_Frequency;
    1fb6:	fd042783          	lw	a5,-48(s0)
    1fba:	fef42423          	sw	a5,-24(s0)
C:\Users\windows\Desktop\A_Dual\A_Dual1\Dual-core_Communication_Demo\Dual-core_Communication_Demo\SLAVE\obj/../Libraries/wch_libraries/Peripheral/ch32v10x_usart.c:144
  }
  
  if ((USARTx->CTLR1 & CTLR1_OVER8_Set) != 0)
    1fbe:	fbc42783          	lw	a5,-68(s0)
    1fc2:	00c7d783          	lhu	a5,12(a5)
    1fc6:	07c2                	slli	a5,a5,0x10
    1fc8:	83c1                	srli	a5,a5,0x10
    1fca:	07c2                	slli	a5,a5,0x10
    1fcc:	87c1                	srai	a5,a5,0x10
    1fce:	0207d263          	bgez	a5,1ff2 <USART_Init+0x17a>
C:\Users\windows\Desktop\A_Dual\A_Dual1\Dual-core_Communication_Demo\Dual-core_Communication_Demo\SLAVE\obj/../Libraries/wch_libraries/Peripheral/ch32v10x_usart.c:146
  {
    integerdivider = ((25 * apbclock) / (2 * (USART_InitStruct->USART_BaudRate)));    
    1fd2:	fe842703          	lw	a4,-24(s0)
    1fd6:	87ba                	mv	a5,a4
    1fd8:	0786                	slli	a5,a5,0x1
    1fda:	97ba                	add	a5,a5,a4
    1fdc:	078e                	slli	a5,a5,0x3
    1fde:	973e                	add	a4,a4,a5
    1fe0:	fb842783          	lw	a5,-72(s0)
    1fe4:	439c                	lw	a5,0(a5)
    1fe6:	0786                	slli	a5,a5,0x1
    1fe8:	02f757b3          	divu	a5,a4,a5
    1fec:	fef42223          	sw	a5,-28(s0)
    1ff0:	a005                	j	2010 <USART_Init+0x198>
C:\Users\windows\Desktop\A_Dual\A_Dual1\Dual-core_Communication_Demo\Dual-core_Communication_Demo\SLAVE\obj/../Libraries/wch_libraries/Peripheral/ch32v10x_usart.c:150
  }
  else 
  {
    integerdivider = ((25 * apbclock) / (4 * (USART_InitStruct->USART_BaudRate)));    
    1ff2:	fe842703          	lw	a4,-24(s0)
    1ff6:	87ba                	mv	a5,a4
    1ff8:	0786                	slli	a5,a5,0x1
    1ffa:	97ba                	add	a5,a5,a4
    1ffc:	078e                	slli	a5,a5,0x3
    1ffe:	973e                	add	a4,a4,a5
    2000:	fb842783          	lw	a5,-72(s0)
    2004:	439c                	lw	a5,0(a5)
    2006:	078a                	slli	a5,a5,0x2
    2008:	02f757b3          	divu	a5,a4,a5
    200c:	fef42223          	sw	a5,-28(s0)
C:\Users\windows\Desktop\A_Dual\A_Dual1\Dual-core_Communication_Demo\Dual-core_Communication_Demo\SLAVE\obj/../Libraries/wch_libraries/Peripheral/ch32v10x_usart.c:152
  }
  tmpreg = (integerdivider / 100) << 4;
    2010:	fe442703          	lw	a4,-28(s0)
    2014:	06400793          	li	a5,100
    2018:	02f757b3          	divu	a5,a4,a5
    201c:	0792                	slli	a5,a5,0x4
    201e:	fef42623          	sw	a5,-20(s0)
C:\Users\windows\Desktop\A_Dual\A_Dual1\Dual-core_Communication_Demo\Dual-core_Communication_Demo\SLAVE\obj/../Libraries/wch_libraries/Peripheral/ch32v10x_usart.c:154

  fractionaldivider = integerdivider - (100 * (tmpreg >> 4));
    2022:	fec42783          	lw	a5,-20(s0)
    2026:	0047d713          	srli	a4,a5,0x4
    202a:	06400793          	li	a5,100
    202e:	02f707b3          	mul	a5,a4,a5
    2032:	fe442703          	lw	a4,-28(s0)
    2036:	40f707b3          	sub	a5,a4,a5
    203a:	fef42023          	sw	a5,-32(s0)
C:\Users\windows\Desktop\A_Dual\A_Dual1\Dual-core_Communication_Demo\Dual-core_Communication_Demo\SLAVE\obj/../Libraries/wch_libraries/Peripheral/ch32v10x_usart.c:156

  if ((USARTx->CTLR1 & CTLR1_OVER8_Set) != 0)
    203e:	fbc42783          	lw	a5,-68(s0)
    2042:	00c7d783          	lhu	a5,12(a5)
    2046:	07c2                	slli	a5,a5,0x10
    2048:	83c1                	srli	a5,a5,0x10
    204a:	07c2                	slli	a5,a5,0x10
    204c:	87c1                	srai	a5,a5,0x10
    204e:	0207d263          	bgez	a5,2072 <USART_Init+0x1fa>
C:\Users\windows\Desktop\A_Dual\A_Dual1\Dual-core_Communication_Demo\Dual-core_Communication_Demo\SLAVE\obj/../Libraries/wch_libraries/Peripheral/ch32v10x_usart.c:158
  {
    tmpreg |= ((((fractionaldivider * 8) + 50) / 100)) & ((uint8_t)0x07);
    2052:	fe042783          	lw	a5,-32(s0)
    2056:	078e                	slli	a5,a5,0x3
    2058:	03278713          	addi	a4,a5,50
    205c:	06400793          	li	a5,100
    2060:	02f757b3          	divu	a5,a4,a5
    2064:	8b9d                	andi	a5,a5,7
    2066:	fec42703          	lw	a4,-20(s0)
    206a:	8fd9                	or	a5,a5,a4
    206c:	fef42623          	sw	a5,-20(s0)
    2070:	a005                	j	2090 <USART_Init+0x218>
C:\Users\windows\Desktop\A_Dual\A_Dual1\Dual-core_Communication_Demo\Dual-core_Communication_Demo\SLAVE\obj/../Libraries/wch_libraries/Peripheral/ch32v10x_usart.c:162
  }
  else 
  {
    tmpreg |= ((((fractionaldivider * 16) + 50) / 100)) & ((uint8_t)0x0F);
    2072:	fe042783          	lw	a5,-32(s0)
    2076:	0792                	slli	a5,a5,0x4
    2078:	03278713          	addi	a4,a5,50
    207c:	06400793          	li	a5,100
    2080:	02f757b3          	divu	a5,a4,a5
    2084:	8bbd                	andi	a5,a5,15
    2086:	fec42703          	lw	a4,-20(s0)
    208a:	8fd9                	or	a5,a5,a4
    208c:	fef42623          	sw	a5,-20(s0)
C:\Users\windows\Desktop\A_Dual\A_Dual1\Dual-core_Communication_Demo\Dual-core_Communication_Demo\SLAVE\obj/../Libraries/wch_libraries/Peripheral/ch32v10x_usart.c:165
  }
  
  USARTx->BRR = (uint16_t)tmpreg;
    2090:	fec42783          	lw	a5,-20(s0)
    2094:	01079713          	slli	a4,a5,0x10
    2098:	8341                	srli	a4,a4,0x10
    209a:	fbc42783          	lw	a5,-68(s0)
    209e:	00e79423          	sh	a4,8(a5)
C:\Users\windows\Desktop\A_Dual\A_Dual1\Dual-core_Communication_Demo\Dual-core_Communication_Demo\SLAVE\obj/../Libraries/wch_libraries/Peripheral/ch32v10x_usart.c:166
}
    20a2:	0001                	nop
    20a4:	40b6                	lw	ra,76(sp)
    20a6:	4426                	lw	s0,72(sp)
    20a8:	6161                	addi	sp,sp,80
    20aa:	8082                	ret

000020ac <USART_Cmd>:
USART_Cmd():
C:\Users\windows\Desktop\A_Dual\A_Dual1\Dual-core_Communication_Demo\Dual-core_Communication_Demo\SLAVE\obj/../Libraries/wch_libraries/Peripheral/ch32v10x_usart.c:229
* Input          : USARTx: where x can be 1, 2, 3 to select the USART peripheral.
*                  NewState: ENABLE or DISABLE.
* Return         : None
*******************************************************************************/
void USART_Cmd(USART_TypeDef* USARTx, FunctionalState NewState)
{
    20ac:	1101                	addi	sp,sp,-32
    20ae:	ce22                	sw	s0,28(sp)
    20b0:	1000                	addi	s0,sp,32
    20b2:	fea42623          	sw	a0,-20(s0)
    20b6:	feb42423          	sw	a1,-24(s0)
C:\Users\windows\Desktop\A_Dual\A_Dual1\Dual-core_Communication_Demo\Dual-core_Communication_Demo\SLAVE\obj/../Libraries/wch_libraries/Peripheral/ch32v10x_usart.c:230
  if (NewState != DISABLE)
    20ba:	fe842783          	lw	a5,-24(s0)
    20be:	c395                	beqz	a5,20e2 <USART_Cmd+0x36>
C:\Users\windows\Desktop\A_Dual\A_Dual1\Dual-core_Communication_Demo\Dual-core_Communication_Demo\SLAVE\obj/../Libraries/wch_libraries/Peripheral/ch32v10x_usart.c:232
  {
    USARTx->CTLR1 |= CTLR1_UE_Set;
    20c0:	fec42783          	lw	a5,-20(s0)
    20c4:	00c7d783          	lhu	a5,12(a5)
    20c8:	01079713          	slli	a4,a5,0x10
    20cc:	8341                	srli	a4,a4,0x10
    20ce:	6789                	lui	a5,0x2
    20d0:	8fd9                	or	a5,a5,a4
    20d2:	01079713          	slli	a4,a5,0x10
    20d6:	8341                	srli	a4,a4,0x10
    20d8:	fec42783          	lw	a5,-20(s0)
    20dc:	00e79623          	sh	a4,12(a5) # 200c <USART_Init+0x194>
C:\Users\windows\Desktop\A_Dual\A_Dual1\Dual-core_Communication_Demo\Dual-core_Communication_Demo\SLAVE\obj/../Libraries/wch_libraries/Peripheral/ch32v10x_usart.c:238
  }
  else
  {
    USARTx->CTLR1 &= CTLR1_UE_Reset;
  }
}
    20e0:	a015                	j	2104 <USART_Cmd+0x58>
C:\Users\windows\Desktop\A_Dual\A_Dual1\Dual-core_Communication_Demo\Dual-core_Communication_Demo\SLAVE\obj/../Libraries/wch_libraries/Peripheral/ch32v10x_usart.c:236
    USARTx->CTLR1 &= CTLR1_UE_Reset;
    20e2:	fec42783          	lw	a5,-20(s0)
    20e6:	00c7d783          	lhu	a5,12(a5)
    20ea:	01079713          	slli	a4,a5,0x10
    20ee:	8341                	srli	a4,a4,0x10
    20f0:	77f9                	lui	a5,0xffffe
    20f2:	17fd                	addi	a5,a5,-1
    20f4:	8ff9                	and	a5,a5,a4
    20f6:	01079713          	slli	a4,a5,0x10
    20fa:	8341                	srli	a4,a4,0x10
    20fc:	fec42783          	lw	a5,-20(s0)
    2100:	00e79623          	sh	a4,12(a5) # ffffe00c <_eusrstack+0xdfff900c>
C:\Users\windows\Desktop\A_Dual\A_Dual1\Dual-core_Communication_Demo\Dual-core_Communication_Demo\SLAVE\obj/../Libraries/wch_libraries/Peripheral/ch32v10x_usart.c:238
}
    2104:	0001                	nop
    2106:	4472                	lw	s0,28(sp)
    2108:	6105                	addi	sp,sp,32
    210a:	8082                	ret

0000210c <USART_ITConfig>:
USART_ITConfig():
C:\Users\windows\Desktop\A_Dual\A_Dual1\Dual-core_Communication_Demo\Dual-core_Communication_Demo\SLAVE\obj/../Libraries/wch_libraries/Peripheral/ch32v10x_usart.c:257
*                    USART_IT_ERR:  Error interrupt.
*                  NewState: ENABLE or DISABLE.
* Return         : None
*******************************************************************************/
void USART_ITConfig(USART_TypeDef* USARTx, uint16_t USART_IT, FunctionalState NewState)
{
    210c:	7179                	addi	sp,sp,-48
    210e:	d622                	sw	s0,44(sp)
    2110:	1800                	addi	s0,sp,48
    2112:	fca42e23          	sw	a0,-36(s0)
    2116:	87ae                	mv	a5,a1
    2118:	fcc42a23          	sw	a2,-44(s0)
    211c:	fcf41d23          	sh	a5,-38(s0)
C:\Users\windows\Desktop\A_Dual\A_Dual1\Dual-core_Communication_Demo\Dual-core_Communication_Demo\SLAVE\obj/../Libraries/wch_libraries/Peripheral/ch32v10x_usart.c:258
  uint32_t usartreg = 0x00, itpos = 0x00, itmask = 0x00;
    2120:	fe042423          	sw	zero,-24(s0)
    2124:	fe042223          	sw	zero,-28(s0)
    2128:	fe042023          	sw	zero,-32(s0)
C:\Users\windows\Desktop\A_Dual\A_Dual1\Dual-core_Communication_Demo\Dual-core_Communication_Demo\SLAVE\obj/../Libraries/wch_libraries/Peripheral/ch32v10x_usart.c:259
  uint32_t usartxbase = 0x00;
    212c:	fe042623          	sw	zero,-20(s0)
C:\Users\windows\Desktop\A_Dual\A_Dual1\Dual-core_Communication_Demo\Dual-core_Communication_Demo\SLAVE\obj/../Libraries/wch_libraries/Peripheral/ch32v10x_usart.c:265

  if (USART_IT == USART_IT_CTS)
  {
  }   
  
  usartxbase = (uint32_t)USARTx;
    2130:	fdc42783          	lw	a5,-36(s0)
    2134:	fef42623          	sw	a5,-20(s0)
C:\Users\windows\Desktop\A_Dual\A_Dual1\Dual-core_Communication_Demo\Dual-core_Communication_Demo\SLAVE\obj/../Libraries/wch_libraries/Peripheral/ch32v10x_usart.c:266
  usartreg = (((uint8_t)USART_IT) >> 0x05);
    2138:	fda45783          	lhu	a5,-38(s0)
    213c:	0ff7f793          	andi	a5,a5,255
    2140:	8395                	srli	a5,a5,0x5
    2142:	0ff7f793          	andi	a5,a5,255
    2146:	fef42423          	sw	a5,-24(s0)
C:\Users\windows\Desktop\A_Dual\A_Dual1\Dual-core_Communication_Demo\Dual-core_Communication_Demo\SLAVE\obj/../Libraries/wch_libraries/Peripheral/ch32v10x_usart.c:267
  itpos = USART_IT & IT_Mask;
    214a:	fda45783          	lhu	a5,-38(s0)
    214e:	8bfd                	andi	a5,a5,31
    2150:	fef42223          	sw	a5,-28(s0)
C:\Users\windows\Desktop\A_Dual\A_Dual1\Dual-core_Communication_Demo\Dual-core_Communication_Demo\SLAVE\obj/../Libraries/wch_libraries/Peripheral/ch32v10x_usart.c:268
  itmask = (((uint32_t)0x01) << itpos);
    2154:	fe442783          	lw	a5,-28(s0)
    2158:	4705                	li	a4,1
    215a:	00f717b3          	sll	a5,a4,a5
    215e:	fef42023          	sw	a5,-32(s0)
C:\Users\windows\Desktop\A_Dual\A_Dual1\Dual-core_Communication_Demo\Dual-core_Communication_Demo\SLAVE\obj/../Libraries/wch_libraries/Peripheral/ch32v10x_usart.c:270
    
  if (usartreg == 0x01) 
    2162:	fe842703          	lw	a4,-24(s0)
    2166:	4785                	li	a5,1
    2168:	00f71863          	bne	a4,a5,2178 <USART_ITConfig+0x6c>
C:\Users\windows\Desktop\A_Dual\A_Dual1\Dual-core_Communication_Demo\Dual-core_Communication_Demo\SLAVE\obj/../Libraries/wch_libraries/Peripheral/ch32v10x_usart.c:272
  {
    usartxbase += 0x0C;
    216c:	fec42783          	lw	a5,-20(s0)
    2170:	07b1                	addi	a5,a5,12
    2172:	fef42623          	sw	a5,-20(s0)
    2176:	a00d                	j	2198 <USART_ITConfig+0x8c>
C:\Users\windows\Desktop\A_Dual\A_Dual1\Dual-core_Communication_Demo\Dual-core_Communication_Demo\SLAVE\obj/../Libraries/wch_libraries/Peripheral/ch32v10x_usart.c:274
  }
  else if (usartreg == 0x02) 
    2178:	fe842703          	lw	a4,-24(s0)
    217c:	4789                	li	a5,2
    217e:	00f71863          	bne	a4,a5,218e <USART_ITConfig+0x82>
C:\Users\windows\Desktop\A_Dual\A_Dual1\Dual-core_Communication_Demo\Dual-core_Communication_Demo\SLAVE\obj/../Libraries/wch_libraries/Peripheral/ch32v10x_usart.c:276
  {
    usartxbase += 0x10;
    2182:	fec42783          	lw	a5,-20(s0)
    2186:	07c1                	addi	a5,a5,16
    2188:	fef42623          	sw	a5,-20(s0)
    218c:	a031                	j	2198 <USART_ITConfig+0x8c>
C:\Users\windows\Desktop\A_Dual\A_Dual1\Dual-core_Communication_Demo\Dual-core_Communication_Demo\SLAVE\obj/../Libraries/wch_libraries/Peripheral/ch32v10x_usart.c:280
  }
  else 
  {
    usartxbase += 0x14; 
    218e:	fec42783          	lw	a5,-20(s0)
    2192:	07d1                	addi	a5,a5,20
    2194:	fef42623          	sw	a5,-20(s0)
C:\Users\windows\Desktop\A_Dual\A_Dual1\Dual-core_Communication_Demo\Dual-core_Communication_Demo\SLAVE\obj/../Libraries/wch_libraries/Peripheral/ch32v10x_usart.c:283
  }
	
  if (NewState != DISABLE)
    2198:	fd442783          	lw	a5,-44(s0)
    219c:	cb99                	beqz	a5,21b2 <USART_ITConfig+0xa6>
C:\Users\windows\Desktop\A_Dual\A_Dual1\Dual-core_Communication_Demo\Dual-core_Communication_Demo\SLAVE\obj/../Libraries/wch_libraries/Peripheral/ch32v10x_usart.c:285
  {
    *(__IO uint32_t*)usartxbase  |= itmask;
    219e:	fec42783          	lw	a5,-20(s0)
    21a2:	4394                	lw	a3,0(a5)
    21a4:	fec42783          	lw	a5,-20(s0)
    21a8:	fe042703          	lw	a4,-32(s0)
    21ac:	8f55                	or	a4,a4,a3
    21ae:	c398                	sw	a4,0(a5)
C:\Users\windows\Desktop\A_Dual\A_Dual1\Dual-core_Communication_Demo\Dual-core_Communication_Demo\SLAVE\obj/../Libraries/wch_libraries/Peripheral/ch32v10x_usart.c:291
  }
  else
  {
    *(__IO uint32_t*)usartxbase &= ~itmask;
  }
}
    21b0:	a821                	j	21c8 <USART_ITConfig+0xbc>
C:\Users\windows\Desktop\A_Dual\A_Dual1\Dual-core_Communication_Demo\Dual-core_Communication_Demo\SLAVE\obj/../Libraries/wch_libraries/Peripheral/ch32v10x_usart.c:289
    *(__IO uint32_t*)usartxbase &= ~itmask;
    21b2:	fec42783          	lw	a5,-20(s0)
    21b6:	4394                	lw	a3,0(a5)
    21b8:	fe042783          	lw	a5,-32(s0)
    21bc:	fff7c713          	not	a4,a5
    21c0:	fec42783          	lw	a5,-20(s0)
    21c4:	8f75                	and	a4,a4,a3
    21c6:	c398                	sw	a4,0(a5)
C:\Users\windows\Desktop\A_Dual\A_Dual1\Dual-core_Communication_Demo\Dual-core_Communication_Demo\SLAVE\obj/../Libraries/wch_libraries/Peripheral/ch32v10x_usart.c:291
}
    21c8:	0001                	nop
    21ca:	5432                	lw	s0,44(sp)
    21cc:	6145                	addi	sp,sp,48
    21ce:	8082                	ret

000021d0 <USART_SendData>:
USART_SendData():
C:\Users\windows\Desktop\A_Dual\A_Dual1\Dual-core_Communication_Demo\Dual-core_Communication_Demo\SLAVE\obj/../Libraries/wch_libraries/Peripheral/ch32v10x_usart.c:404
* Input          : USARTx: where x can be 1, 2, 3 to select the USART peripheral.
*                  Data: the data to transmit..
* Return         : None
*******************************************************************************/
void USART_SendData(USART_TypeDef* USARTx, uint16_t Data)
{
    21d0:	1101                	addi	sp,sp,-32
    21d2:	ce22                	sw	s0,28(sp)
    21d4:	1000                	addi	s0,sp,32
    21d6:	fea42623          	sw	a0,-20(s0)
    21da:	87ae                	mv	a5,a1
    21dc:	fef41523          	sh	a5,-22(s0)
C:\Users\windows\Desktop\A_Dual\A_Dual1\Dual-core_Communication_Demo\Dual-core_Communication_Demo\SLAVE\obj/../Libraries/wch_libraries/Peripheral/ch32v10x_usart.c:405
  USARTx->DATAR = (Data & (uint16_t)0x01FF);
    21e0:	fea45783          	lhu	a5,-22(s0)
    21e4:	1ff7f793          	andi	a5,a5,511
    21e8:	01079713          	slli	a4,a5,0x10
    21ec:	8341                	srli	a4,a4,0x10
    21ee:	fec42783          	lw	a5,-20(s0)
    21f2:	00e79223          	sh	a4,4(a5)
C:\Users\windows\Desktop\A_Dual\A_Dual1\Dual-core_Communication_Demo\Dual-core_Communication_Demo\SLAVE\obj/../Libraries/wch_libraries/Peripheral/ch32v10x_usart.c:406
}
    21f6:	0001                	nop
    21f8:	4472                	lw	s0,28(sp)
    21fa:	6105                	addi	sp,sp,32
    21fc:	8082                	ret

000021fe <USART_GetFlagStatus>:
USART_GetFlagStatus():
C:\Users\windows\Desktop\A_Dual\A_Dual1\Dual-core_Communication_Demo\Dual-core_Communication_Demo\SLAVE\obj/../Libraries/wch_libraries/Peripheral/ch32v10x_usart.c:603
*                    USART_FLAG_FE: Framing Error flag.
*                    USART_FLAG_PE: Parity Error flag.
* Return         : bitstatus: SET or RESET.
*******************************************************************************/
FlagStatus USART_GetFlagStatus(USART_TypeDef* USARTx, uint16_t USART_FLAG)
{
    21fe:	7179                	addi	sp,sp,-48
    2200:	d622                	sw	s0,44(sp)
    2202:	1800                	addi	s0,sp,48
    2204:	fca42e23          	sw	a0,-36(s0)
    2208:	87ae                	mv	a5,a1
    220a:	fcf41d23          	sh	a5,-38(s0)
C:\Users\windows\Desktop\A_Dual\A_Dual1\Dual-core_Communication_Demo\Dual-core_Communication_Demo\SLAVE\obj/../Libraries/wch_libraries/Peripheral/ch32v10x_usart.c:604
  FlagStatus bitstatus = RESET;
    220e:	fe042623          	sw	zero,-20(s0)
C:\Users\windows\Desktop\A_Dual\A_Dual1\Dual-core_Communication_Demo\Dual-core_Communication_Demo\SLAVE\obj/../Libraries/wch_libraries/Peripheral/ch32v10x_usart.c:610

  if (USART_FLAG == USART_FLAG_CTS)
  {
  }  
  
  if ((USARTx->STATR & USART_FLAG) != (uint16_t)RESET)
    2212:	fdc42783          	lw	a5,-36(s0)
    2216:	0007d783          	lhu	a5,0(a5)
    221a:	01079713          	slli	a4,a5,0x10
    221e:	8341                	srli	a4,a4,0x10
    2220:	fda45783          	lhu	a5,-38(s0)
    2224:	8ff9                	and	a5,a5,a4
    2226:	07c2                	slli	a5,a5,0x10
    2228:	83c1                	srli	a5,a5,0x10
    222a:	c789                	beqz	a5,2234 <USART_GetFlagStatus+0x36>
C:\Users\windows\Desktop\A_Dual\A_Dual1\Dual-core_Communication_Demo\Dual-core_Communication_Demo\SLAVE\obj/../Libraries/wch_libraries/Peripheral/ch32v10x_usart.c:612
  {
    bitstatus = SET;
    222c:	4785                	li	a5,1
    222e:	fef42623          	sw	a5,-20(s0)
    2232:	a019                	j	2238 <USART_GetFlagStatus+0x3a>
C:\Users\windows\Desktop\A_Dual\A_Dual1\Dual-core_Communication_Demo\Dual-core_Communication_Demo\SLAVE\obj/../Libraries/wch_libraries/Peripheral/ch32v10x_usart.c:616
  }
  else
  {
    bitstatus = RESET;
    2234:	fe042623          	sw	zero,-20(s0)
C:\Users\windows\Desktop\A_Dual\A_Dual1\Dual-core_Communication_Demo\Dual-core_Communication_Demo\SLAVE\obj/../Libraries/wch_libraries/Peripheral/ch32v10x_usart.c:618
  }
  return bitstatus;
    2238:	fec42783          	lw	a5,-20(s0)
C:\Users\windows\Desktop\A_Dual\A_Dual1\Dual-core_Communication_Demo\Dual-core_Communication_Demo\SLAVE\obj/../Libraries/wch_libraries/Peripheral/ch32v10x_usart.c:619
}
    223c:	853e                	mv	a0,a5
    223e:	5432                	lw	s0,44(sp)
    2240:	6145                	addi	sp,sp,48
    2242:	8082                	ret

00002244 <USART_GetITStatus>:
USART_GetITStatus():
C:\Users\windows\Desktop\A_Dual\A_Dual1\Dual-core_Communication_Demo\Dual-core_Communication_Demo\SLAVE\obj/../Libraries/wch_libraries/Peripheral/ch32v10x_usart.c:660
*                    USART_IT_FE: Framing Error interrupt.
*                    USART_IT_PE: Parity Error interrupt.
* Return         : bitstatus: SET or RESET.
*******************************************************************************/
ITStatus USART_GetITStatus(USART_TypeDef* USARTx, uint16_t USART_IT)
{
    2244:	7179                	addi	sp,sp,-48
    2246:	d622                	sw	s0,44(sp)
    2248:	1800                	addi	s0,sp,48
    224a:	fca42e23          	sw	a0,-36(s0)
    224e:	87ae                	mv	a5,a1
    2250:	fcf41d23          	sh	a5,-38(s0)
C:\Users\windows\Desktop\A_Dual\A_Dual1\Dual-core_Communication_Demo\Dual-core_Communication_Demo\SLAVE\obj/../Libraries/wch_libraries/Peripheral/ch32v10x_usart.c:661
  uint32_t bitpos = 0x00, itmask = 0x00, usartreg = 0x00;
    2254:	fe042223          	sw	zero,-28(s0)
    2258:	fe042623          	sw	zero,-20(s0)
    225c:	fe042023          	sw	zero,-32(s0)
C:\Users\windows\Desktop\A_Dual\A_Dual1\Dual-core_Communication_Demo\Dual-core_Communication_Demo\SLAVE\obj/../Libraries/wch_libraries/Peripheral/ch32v10x_usart.c:662
  ITStatus bitstatus = RESET;
    2260:	fe042423          	sw	zero,-24(s0)
C:\Users\windows\Desktop\A_Dual\A_Dual1\Dual-core_Communication_Demo\Dual-core_Communication_Demo\SLAVE\obj/../Libraries/wch_libraries/Peripheral/ch32v10x_usart.c:668

  if (USART_IT == USART_IT_CTS)
  {
  }   
  
  usartreg = (((uint8_t)USART_IT) >> 0x05);
    2264:	fda45783          	lhu	a5,-38(s0)
    2268:	0ff7f793          	andi	a5,a5,255
    226c:	8395                	srli	a5,a5,0x5
    226e:	0ff7f793          	andi	a5,a5,255
    2272:	fef42023          	sw	a5,-32(s0)
C:\Users\windows\Desktop\A_Dual\A_Dual1\Dual-core_Communication_Demo\Dual-core_Communication_Demo\SLAVE\obj/../Libraries/wch_libraries/Peripheral/ch32v10x_usart.c:669
  itmask = USART_IT & IT_Mask;
    2276:	fda45783          	lhu	a5,-38(s0)
    227a:	8bfd                	andi	a5,a5,31
    227c:	fef42623          	sw	a5,-20(s0)
C:\Users\windows\Desktop\A_Dual\A_Dual1\Dual-core_Communication_Demo\Dual-core_Communication_Demo\SLAVE\obj/../Libraries/wch_libraries/Peripheral/ch32v10x_usart.c:670
  itmask = (uint32_t)0x01 << itmask;
    2280:	fec42783          	lw	a5,-20(s0)
    2284:	4705                	li	a4,1
    2286:	00f717b3          	sll	a5,a4,a5
    228a:	fef42623          	sw	a5,-20(s0)
C:\Users\windows\Desktop\A_Dual\A_Dual1\Dual-core_Communication_Demo\Dual-core_Communication_Demo\SLAVE\obj/../Libraries/wch_libraries/Peripheral/ch32v10x_usart.c:672
  
  if (usartreg == 0x01) 
    228e:	fe042703          	lw	a4,-32(s0)
    2292:	4785                	li	a5,1
    2294:	00f71f63          	bne	a4,a5,22b2 <USART_GetITStatus+0x6e>
C:\Users\windows\Desktop\A_Dual\A_Dual1\Dual-core_Communication_Demo\Dual-core_Communication_Demo\SLAVE\obj/../Libraries/wch_libraries/Peripheral/ch32v10x_usart.c:674
  {
    itmask &= USARTx->CTLR1;
    2298:	fdc42783          	lw	a5,-36(s0)
    229c:	00c7d783          	lhu	a5,12(a5)
    22a0:	07c2                	slli	a5,a5,0x10
    22a2:	83c1                	srli	a5,a5,0x10
    22a4:	873e                	mv	a4,a5
    22a6:	fec42783          	lw	a5,-20(s0)
    22aa:	8ff9                	and	a5,a5,a4
    22ac:	fef42623          	sw	a5,-20(s0)
    22b0:	a83d                	j	22ee <USART_GetITStatus+0xaa>
C:\Users\windows\Desktop\A_Dual\A_Dual1\Dual-core_Communication_Demo\Dual-core_Communication_Demo\SLAVE\obj/../Libraries/wch_libraries/Peripheral/ch32v10x_usart.c:676
  }
  else if (usartreg == 0x02) 
    22b2:	fe042703          	lw	a4,-32(s0)
    22b6:	4789                	li	a5,2
    22b8:	00f71f63          	bne	a4,a5,22d6 <USART_GetITStatus+0x92>
C:\Users\windows\Desktop\A_Dual\A_Dual1\Dual-core_Communication_Demo\Dual-core_Communication_Demo\SLAVE\obj/../Libraries/wch_libraries/Peripheral/ch32v10x_usart.c:678
  {
    itmask &= USARTx->CTLR2;
    22bc:	fdc42783          	lw	a5,-36(s0)
    22c0:	0107d783          	lhu	a5,16(a5)
    22c4:	07c2                	slli	a5,a5,0x10
    22c6:	83c1                	srli	a5,a5,0x10
    22c8:	873e                	mv	a4,a5
    22ca:	fec42783          	lw	a5,-20(s0)
    22ce:	8ff9                	and	a5,a5,a4
    22d0:	fef42623          	sw	a5,-20(s0)
    22d4:	a829                	j	22ee <USART_GetITStatus+0xaa>
C:\Users\windows\Desktop\A_Dual\A_Dual1\Dual-core_Communication_Demo\Dual-core_Communication_Demo\SLAVE\obj/../Libraries/wch_libraries/Peripheral/ch32v10x_usart.c:682
  }
  else 
  {
    itmask &= USARTx->CTLR3;
    22d6:	fdc42783          	lw	a5,-36(s0)
    22da:	0147d783          	lhu	a5,20(a5)
    22de:	07c2                	slli	a5,a5,0x10
    22e0:	83c1                	srli	a5,a5,0x10
    22e2:	873e                	mv	a4,a5
    22e4:	fec42783          	lw	a5,-20(s0)
    22e8:	8ff9                	and	a5,a5,a4
    22ea:	fef42623          	sw	a5,-20(s0)
C:\Users\windows\Desktop\A_Dual\A_Dual1\Dual-core_Communication_Demo\Dual-core_Communication_Demo\SLAVE\obj/../Libraries/wch_libraries/Peripheral/ch32v10x_usart.c:685
  }
  
  bitpos = USART_IT >> 0x08;
    22ee:	fda45783          	lhu	a5,-38(s0)
    22f2:	83a1                	srli	a5,a5,0x8
    22f4:	07c2                	slli	a5,a5,0x10
    22f6:	83c1                	srli	a5,a5,0x10
    22f8:	fef42223          	sw	a5,-28(s0)
C:\Users\windows\Desktop\A_Dual\A_Dual1\Dual-core_Communication_Demo\Dual-core_Communication_Demo\SLAVE\obj/../Libraries/wch_libraries/Peripheral/ch32v10x_usart.c:686
  bitpos = (uint32_t)0x01 << bitpos;
    22fc:	fe442783          	lw	a5,-28(s0)
    2300:	4705                	li	a4,1
    2302:	00f717b3          	sll	a5,a4,a5
    2306:	fef42223          	sw	a5,-28(s0)
C:\Users\windows\Desktop\A_Dual\A_Dual1\Dual-core_Communication_Demo\Dual-core_Communication_Demo\SLAVE\obj/../Libraries/wch_libraries/Peripheral/ch32v10x_usart.c:687
  bitpos &= USARTx->STATR;
    230a:	fdc42783          	lw	a5,-36(s0)
    230e:	0007d783          	lhu	a5,0(a5)
    2312:	07c2                	slli	a5,a5,0x10
    2314:	83c1                	srli	a5,a5,0x10
    2316:	873e                	mv	a4,a5
    2318:	fe442783          	lw	a5,-28(s0)
    231c:	8ff9                	and	a5,a5,a4
    231e:	fef42223          	sw	a5,-28(s0)
C:\Users\windows\Desktop\A_Dual\A_Dual1\Dual-core_Communication_Demo\Dual-core_Communication_Demo\SLAVE\obj/../Libraries/wch_libraries/Peripheral/ch32v10x_usart.c:689
	
  if ((itmask != (uint16_t)RESET)&&(bitpos != (uint16_t)RESET))
    2322:	fec42783          	lw	a5,-20(s0)
    2326:	cb81                	beqz	a5,2336 <USART_GetITStatus+0xf2>
C:\Users\windows\Desktop\A_Dual\A_Dual1\Dual-core_Communication_Demo\Dual-core_Communication_Demo\SLAVE\obj/../Libraries/wch_libraries/Peripheral/ch32v10x_usart.c:689 (discriminator 1)
    2328:	fe442783          	lw	a5,-28(s0)
    232c:	c789                	beqz	a5,2336 <USART_GetITStatus+0xf2>
C:\Users\windows\Desktop\A_Dual\A_Dual1\Dual-core_Communication_Demo\Dual-core_Communication_Demo\SLAVE\obj/../Libraries/wch_libraries/Peripheral/ch32v10x_usart.c:691
  {
    bitstatus = SET;
    232e:	4785                	li	a5,1
    2330:	fef42423          	sw	a5,-24(s0)
    2334:	a019                	j	233a <USART_GetITStatus+0xf6>
C:\Users\windows\Desktop\A_Dual\A_Dual1\Dual-core_Communication_Demo\Dual-core_Communication_Demo\SLAVE\obj/../Libraries/wch_libraries/Peripheral/ch32v10x_usart.c:695
  }
  else
  {
    bitstatus = RESET;
    2336:	fe042423          	sw	zero,-24(s0)
C:\Users\windows\Desktop\A_Dual\A_Dual1\Dual-core_Communication_Demo\Dual-core_Communication_Demo\SLAVE\obj/../Libraries/wch_libraries/Peripheral/ch32v10x_usart.c:698
  }
  
  return bitstatus;  
    233a:	fe842783          	lw	a5,-24(s0)
C:\Users\windows\Desktop\A_Dual\A_Dual1\Dual-core_Communication_Demo\Dual-core_Communication_Demo\SLAVE\obj/../Libraries/wch_libraries/Peripheral/ch32v10x_usart.c:699
}
    233e:	853e                	mv	a0,a5
    2340:	5432                	lw	s0,44(sp)
    2342:	6145                	addi	sp,sp,48
    2344:	8082                	ret

00002346 <USART_ClearITPendingBit>:
USART_ClearITPendingBit():
C:\Users\windows\Desktop\A_Dual\A_Dual1\Dual-core_Communication_Demo\Dual-core_Communication_Demo\SLAVE\obj/../Libraries/wch_libraries/Peripheral/ch32v10x_usart.c:713
*                    USART_IT_TC:   Transmission complete interrupt.
*                    USART_IT_RXNE: Receive Data register not empty interrupt.
* Return         : None
*******************************************************************************/
void USART_ClearITPendingBit(USART_TypeDef* USARTx, uint16_t USART_IT)
{
    2346:	7179                	addi	sp,sp,-48
    2348:	d622                	sw	s0,44(sp)
    234a:	1800                	addi	s0,sp,48
    234c:	fca42e23          	sw	a0,-36(s0)
    2350:	87ae                	mv	a5,a1
    2352:	fcf41d23          	sh	a5,-38(s0)
C:\Users\windows\Desktop\A_Dual\A_Dual1\Dual-core_Communication_Demo\Dual-core_Communication_Demo\SLAVE\obj/../Libraries/wch_libraries/Peripheral/ch32v10x_usart.c:714
  uint16_t bitpos = 0x00, itmask = 0x00;
    2356:	fe041723          	sh	zero,-18(s0)
    235a:	fe041623          	sh	zero,-20(s0)
C:\Users\windows\Desktop\A_Dual\A_Dual1\Dual-core_Communication_Demo\Dual-core_Communication_Demo\SLAVE\obj/../Libraries/wch_libraries/Peripheral/ch32v10x_usart.c:720

  if (USART_IT == USART_IT_CTS)
  {
  }   
  
  bitpos = USART_IT >> 0x08;
    235e:	fda45783          	lhu	a5,-38(s0)
    2362:	83a1                	srli	a5,a5,0x8
    2364:	fef41723          	sh	a5,-18(s0)
C:\Users\windows\Desktop\A_Dual\A_Dual1\Dual-core_Communication_Demo\Dual-core_Communication_Demo\SLAVE\obj/../Libraries/wch_libraries/Peripheral/ch32v10x_usart.c:721
  itmask = ((uint16_t)0x01 << (uint16_t)bitpos);
    2368:	fee45783          	lhu	a5,-18(s0)
    236c:	4705                	li	a4,1
    236e:	00f717b3          	sll	a5,a4,a5
    2372:	fef41623          	sh	a5,-20(s0)
C:\Users\windows\Desktop\A_Dual\A_Dual1\Dual-core_Communication_Demo\Dual-core_Communication_Demo\SLAVE\obj/../Libraries/wch_libraries/Peripheral/ch32v10x_usart.c:722
  USARTx->STATR = (uint16_t)~itmask;
    2376:	fec45783          	lhu	a5,-20(s0)
    237a:	fff7c793          	not	a5,a5
    237e:	01079713          	slli	a4,a5,0x10
    2382:	8341                	srli	a4,a4,0x10
    2384:	fdc42783          	lw	a5,-36(s0)
    2388:	00e79023          	sh	a4,0(a5)
C:\Users\windows\Desktop\A_Dual\A_Dual1\Dual-core_Communication_Demo\Dual-core_Communication_Demo\SLAVE\obj/../Libraries/wch_libraries/Peripheral/ch32v10x_usart.c:723
}
    238c:	0001                	nop
    238e:	5432                	lw	s0,44(sp)
    2390:	6145                	addi	sp,sp,48
    2392:	8082                	ret

00002394 <ips114_writeIndex>:
ips114_writeIndex():
C:\Users\windows\Desktop\A_Dual\A_Dual1\Dual-core_Communication_Demo\Dual-core_Communication_Demo\SLAVE\obj/../Libraries/seekfree_peripheral/SEEKFREE_IPS114_SPI.c:50
//  @return     				
//  @since      v1.0
//  Sample usage:               
//-------------------------------------------------------------------------------------------------------------------
void ips114_writeIndex(uint8 dat)			//
{	
    2394:	1101                	addi	sp,sp,-32
    2396:	ce06                	sw	ra,28(sp)
    2398:	cc22                	sw	s0,24(sp)
    239a:	1000                	addi	s0,sp,32
    239c:	87aa                	mv	a5,a0
    239e:	fef407a3          	sb	a5,-17(s0)
C:\Users\windows\Desktop\A_Dual\A_Dual1\Dual-core_Communication_Demo\Dual-core_Communication_Demo\SLAVE\obj/../Libraries/seekfree_peripheral/SEEKFREE_IPS114_SPI.c:51
    IPS114_CS(0);
    23a2:	6799                	lui	a5,0x6
    23a4:	1a478793          	addi	a5,a5,420 # 61a4 <GPION>
    23a8:	479c                	lw	a5,8(a5)
    23aa:	873e                	mv	a4,a5
    23ac:	67a1                	lui	a5,0x8
    23ae:	cb5c                	sw	a5,20(a4)
C:\Users\windows\Desktop\A_Dual\A_Dual1\Dual-core_Communication_Demo\Dual-core_Communication_Demo\SLAVE\obj/../Libraries/seekfree_peripheral/SEEKFREE_IPS114_SPI.c:52
    IPS114_DC(0);
    23b0:	6799                	lui	a5,0x6
    23b2:	1a478793          	addi	a5,a5,420 # 61a4 <GPION>
    23b6:	479c                	lw	a5,8(a5)
    23b8:	873e                	mv	a4,a5
    23ba:	6791                	lui	a5,0x4
    23bc:	cb5c                	sw	a5,20(a4)
C:\Users\windows\Desktop\A_Dual\A_Dual1\Dual-core_Communication_Demo\Dual-core_Communication_Demo\SLAVE\obj/../Libraries/seekfree_peripheral/SEEKFREE_IPS114_SPI.c:53
    spi_mosi(IPS114_SPIN, &dat, NULL, 1);
    23be:	fef40793          	addi	a5,s0,-17
    23c2:	4685                	li	a3,1
    23c4:	4601                	li	a2,0
    23c6:	85be                	mv	a1,a5
    23c8:	4501                	li	a0,0
    23ca:	2d5010ef          	jal	ra,3e9e <spi_mosi>
C:\Users\windows\Desktop\A_Dual\A_Dual1\Dual-core_Communication_Demo\Dual-core_Communication_Demo\SLAVE\obj/../Libraries/seekfree_peripheral/SEEKFREE_IPS114_SPI.c:54
    IPS114_CS(1);
    23ce:	6799                	lui	a5,0x6
    23d0:	1a478793          	addi	a5,a5,420 # 61a4 <GPION>
    23d4:	479c                	lw	a5,8(a5)
    23d6:	873e                	mv	a4,a5
    23d8:	67a1                	lui	a5,0x8
    23da:	cb1c                	sw	a5,16(a4)
C:\Users\windows\Desktop\A_Dual\A_Dual1\Dual-core_Communication_Demo\Dual-core_Communication_Demo\SLAVE\obj/../Libraries/seekfree_peripheral/SEEKFREE_IPS114_SPI.c:55
}
    23dc:	0001                	nop
    23de:	40f2                	lw	ra,28(sp)
    23e0:	4462                	lw	s0,24(sp)
    23e2:	6105                	addi	sp,sp,32
    23e4:	8082                	ret

000023e6 <ips114_writeData>:
ips114_writeData():
C:\Users\windows\Desktop\A_Dual\A_Dual1\Dual-core_Communication_Demo\Dual-core_Communication_Demo\SLAVE\obj/../Libraries/seekfree_peripheral/SEEKFREE_IPS114_SPI.c:65
//  @return     				
//  @since      v1.0
//  Sample usage:               
//-------------------------------------------------------------------------------------------------------------------
void ips114_writeData(uint8 dat)			//
{
    23e6:	1101                	addi	sp,sp,-32
    23e8:	ce06                	sw	ra,28(sp)
    23ea:	cc22                	sw	s0,24(sp)
    23ec:	1000                	addi	s0,sp,32
    23ee:	87aa                	mv	a5,a0
    23f0:	fef407a3          	sb	a5,-17(s0)
C:\Users\windows\Desktop\A_Dual\A_Dual1\Dual-core_Communication_Demo\Dual-core_Communication_Demo\SLAVE\obj/../Libraries/seekfree_peripheral/SEEKFREE_IPS114_SPI.c:66
    IPS114_CS(0);
    23f4:	6799                	lui	a5,0x6
    23f6:	1a478793          	addi	a5,a5,420 # 61a4 <GPION>
    23fa:	479c                	lw	a5,8(a5)
    23fc:	873e                	mv	a4,a5
    23fe:	67a1                	lui	a5,0x8
    2400:	cb5c                	sw	a5,20(a4)
C:\Users\windows\Desktop\A_Dual\A_Dual1\Dual-core_Communication_Demo\Dual-core_Communication_Demo\SLAVE\obj/../Libraries/seekfree_peripheral/SEEKFREE_IPS114_SPI.c:67
    IPS114_DC(1);
    2402:	6799                	lui	a5,0x6
    2404:	1a478793          	addi	a5,a5,420 # 61a4 <GPION>
    2408:	479c                	lw	a5,8(a5)
    240a:	873e                	mv	a4,a5
    240c:	6791                	lui	a5,0x4
    240e:	cb1c                	sw	a5,16(a4)
C:\Users\windows\Desktop\A_Dual\A_Dual1\Dual-core_Communication_Demo\Dual-core_Communication_Demo\SLAVE\obj/../Libraries/seekfree_peripheral/SEEKFREE_IPS114_SPI.c:68
    spi_mosi(IPS114_SPIN, &dat, NULL, 1);
    2410:	fef40793          	addi	a5,s0,-17
    2414:	4685                	li	a3,1
    2416:	4601                	li	a2,0
    2418:	85be                	mv	a1,a5
    241a:	4501                	li	a0,0
    241c:	283010ef          	jal	ra,3e9e <spi_mosi>
C:\Users\windows\Desktop\A_Dual\A_Dual1\Dual-core_Communication_Demo\Dual-core_Communication_Demo\SLAVE\obj/../Libraries/seekfree_peripheral/SEEKFREE_IPS114_SPI.c:69
    IPS114_CS(1);
    2420:	6799                	lui	a5,0x6
    2422:	1a478793          	addi	a5,a5,420 # 61a4 <GPION>
    2426:	479c                	lw	a5,8(a5)
    2428:	873e                	mv	a4,a5
    242a:	67a1                	lui	a5,0x8
    242c:	cb1c                	sw	a5,16(a4)
C:\Users\windows\Desktop\A_Dual\A_Dual1\Dual-core_Communication_Demo\Dual-core_Communication_Demo\SLAVE\obj/../Libraries/seekfree_peripheral/SEEKFREE_IPS114_SPI.c:70
}
    242e:	0001                	nop
    2430:	40f2                	lw	ra,28(sp)
    2432:	4462                	lw	s0,24(sp)
    2434:	6105                	addi	sp,sp,32
    2436:	8082                	ret

00002438 <ips114_writedata_16bit>:
ips114_writedata_16bit():
C:\Users\windows\Desktop\A_Dual\A_Dual1\Dual-core_Communication_Demo\Dual-core_Communication_Demo\SLAVE\obj/../Libraries/seekfree_peripheral/SEEKFREE_IPS114_SPI.c:80
//  @return     				
//  @since      v1.0
//  Sample usage:               
//-------------------------------------------------------------------------------------------------------------------
void ips114_writedata_16bit(uint16 dat)	//16
{
    2438:	7179                	addi	sp,sp,-48
    243a:	d606                	sw	ra,44(sp)
    243c:	d422                	sw	s0,40(sp)
    243e:	1800                	addi	s0,sp,48
    2440:	87aa                	mv	a5,a0
    2442:	fcf41f23          	sh	a5,-34(s0)
C:\Users\windows\Desktop\A_Dual\A_Dual1\Dual-core_Communication_Demo\Dual-core_Communication_Demo\SLAVE\obj/../Libraries/seekfree_peripheral/SEEKFREE_IPS114_SPI.c:82
    uint8 dat1[2];
    IPS114_CS(0);
    2446:	6799                	lui	a5,0x6
    2448:	1a478793          	addi	a5,a5,420 # 61a4 <GPION>
    244c:	479c                	lw	a5,8(a5)
    244e:	873e                	mv	a4,a5
    2450:	67a1                	lui	a5,0x8
    2452:	cb5c                	sw	a5,20(a4)
C:\Users\windows\Desktop\A_Dual\A_Dual1\Dual-core_Communication_Demo\Dual-core_Communication_Demo\SLAVE\obj/../Libraries/seekfree_peripheral/SEEKFREE_IPS114_SPI.c:83
    dat1[0] = dat >> 8;
    2454:	fde45783          	lhu	a5,-34(s0)
    2458:	83a1                	srli	a5,a5,0x8
    245a:	07c2                	slli	a5,a5,0x10
    245c:	83c1                	srli	a5,a5,0x10
    245e:	0ff7f793          	andi	a5,a5,255
    2462:	fef40623          	sb	a5,-20(s0)
C:\Users\windows\Desktop\A_Dual\A_Dual1\Dual-core_Communication_Demo\Dual-core_Communication_Demo\SLAVE\obj/../Libraries/seekfree_peripheral/SEEKFREE_IPS114_SPI.c:84
    dat1[1] = (uint8)dat;
    2466:	fde45783          	lhu	a5,-34(s0)
    246a:	0ff7f793          	andi	a5,a5,255
    246e:	fef406a3          	sb	a5,-19(s0)
C:\Users\windows\Desktop\A_Dual\A_Dual1\Dual-core_Communication_Demo\Dual-core_Communication_Demo\SLAVE\obj/../Libraries/seekfree_peripheral/SEEKFREE_IPS114_SPI.c:86
    
    IPS114_DC(1);
    2472:	6799                	lui	a5,0x6
    2474:	1a478793          	addi	a5,a5,420 # 61a4 <GPION>
    2478:	479c                	lw	a5,8(a5)
    247a:	873e                	mv	a4,a5
    247c:	6791                	lui	a5,0x4
    247e:	cb1c                	sw	a5,16(a4)
C:\Users\windows\Desktop\A_Dual\A_Dual1\Dual-core_Communication_Demo\Dual-core_Communication_Demo\SLAVE\obj/../Libraries/seekfree_peripheral/SEEKFREE_IPS114_SPI.c:87
    spi_mosi(IPS114_SPIN, dat1, NULL, 2); 	//    
    2480:	fec40793          	addi	a5,s0,-20
    2484:	4689                	li	a3,2
    2486:	4601                	li	a2,0
    2488:	85be                	mv	a1,a5
    248a:	4501                	li	a0,0
    248c:	213010ef          	jal	ra,3e9e <spi_mosi>
C:\Users\windows\Desktop\A_Dual\A_Dual1\Dual-core_Communication_Demo\Dual-core_Communication_Demo\SLAVE\obj/../Libraries/seekfree_peripheral/SEEKFREE_IPS114_SPI.c:88
    IPS114_CS(1);
    2490:	6799                	lui	a5,0x6
    2492:	1a478793          	addi	a5,a5,420 # 61a4 <GPION>
    2496:	479c                	lw	a5,8(a5)
    2498:	873e                	mv	a4,a5
    249a:	67a1                	lui	a5,0x8
    249c:	cb1c                	sw	a5,16(a4)
C:\Users\windows\Desktop\A_Dual\A_Dual1\Dual-core_Communication_Demo\Dual-core_Communication_Demo\SLAVE\obj/../Libraries/seekfree_peripheral/SEEKFREE_IPS114_SPI.c:89
}
    249e:	0001                	nop
    24a0:	50b2                	lw	ra,44(sp)
    24a2:	5422                	lw	s0,40(sp)
    24a4:	6145                	addi	sp,sp,48
    24a6:	8082                	ret

000024a8 <ips114_init>:
ips114_init():
C:\Users\windows\Desktop\A_Dual\A_Dual1\Dual-core_Communication_Demo\Dual-core_Communication_Demo\SLAVE\obj/../Libraries/seekfree_peripheral/SEEKFREE_IPS114_SPI.c:98
//  @return     void
//  @since      v1.0
//  Sample usage:               
//-------------------------------------------------------------------------------------------------------------------
void ips114_init(void)
{
    24a8:	7179                	addi	sp,sp,-48
    24aa:	d606                	sw	ra,44(sp)
    24ac:	d422                	sw	s0,40(sp)
    24ae:	d24a                	sw	s2,36(sp)
    24b0:	d04e                	sw	s3,32(sp)
    24b2:	ce52                	sw	s4,28(sp)
    24b4:	cc56                	sw	s5,24(sp)
    24b6:	ca5a                	sw	s6,20(sp)
    24b8:	c85e                	sw	s7,16(sp)
    24ba:	c662                	sw	s8,12(sp)
    24bc:	c466                	sw	s9,8(sp)
    24be:	1800                	addi	s0,sp,48
C:\Users\windows\Desktop\A_Dual\A_Dual1\Dual-core_Communication_Demo\Dual-core_Communication_Demo\SLAVE\obj/../Libraries/seekfree_peripheral/SEEKFREE_IPS114_SPI.c:99
    spi_init(IPS114_SPIN, IPS114_SCL_PIN, IPS114_SDA_PIN, IPS114_SDA_IN_PIN, IPS114_CS_PIN, 0, FPCLK_DIV_2);//SPI
    24c0:	4801                	li	a6,0
    24c2:	4781                	li	a5,0
    24c4:	04f00713          	li	a4,79
    24c8:	02300693          	li	a3,35
    24cc:	4605                	li	a2,1
    24ce:	4581                	li	a1,0
    24d0:	4501                	li	a0,0
    24d2:	097010ef          	jal	ra,3d68 <spi_init>
C:\Users\windows\Desktop\A_Dual\A_Dual1\Dual-core_Communication_Demo\Dual-core_Communication_Demo\SLAVE\obj/../Libraries/seekfree_peripheral/SEEKFREE_IPS114_SPI.c:101

    gpio_init(IPS114_BL_PIN, GPO, 1, GPIO_PIN_CONFIG);
    24d6:	31000693          	li	a3,784
    24da:	4605                	li	a2,1
    24dc:	4585                	li	a1,1
    24de:	08000513          	li	a0,128
    24e2:	6b5000ef          	jal	ra,3396 <gpio_init>
C:\Users\windows\Desktop\A_Dual\A_Dual1\Dual-core_Communication_Demo\Dual-core_Communication_Demo\SLAVE\obj/../Libraries/seekfree_peripheral/SEEKFREE_IPS114_SPI.c:102
    gpio_init(IPS114_DC_PIN, GPO, 0, GPIO_PIN_CONFIG);
    24e6:	31000693          	li	a3,784
    24ea:	4601                	li	a2,0
    24ec:	4585                	li	a1,1
    24ee:	04e00513          	li	a0,78
    24f2:	6a5000ef          	jal	ra,3396 <gpio_init>
C:\Users\windows\Desktop\A_Dual\A_Dual1\Dual-core_Communication_Demo\Dual-core_Communication_Demo\SLAVE\obj/../Libraries/seekfree_peripheral/SEEKFREE_IPS114_SPI.c:103
    gpio_init(IPS114_REST_PIN, GPO, 0, GPIO_PIN_CONFIG);
    24f6:	31000693          	li	a3,784
    24fa:	4601                	li	a2,0
    24fc:	4585                	li	a1,1
    24fe:	04d00513          	li	a0,77
    2502:	695000ef          	jal	ra,3396 <gpio_init>
C:\Users\windows\Desktop\A_Dual\A_Dual1\Dual-core_Communication_Demo\Dual-core_Communication_Demo\SLAVE\obj/../Libraries/seekfree_peripheral/SEEKFREE_IPS114_SPI.c:105

    IPS114_REST(0);
    2506:	6799                	lui	a5,0x6
    2508:	1a478793          	addi	a5,a5,420 # 61a4 <GPION>
    250c:	479c                	lw	a5,8(a5)
    250e:	873e                	mv	a4,a5
    2510:	6789                	lui	a5,0x2
    2512:	cb5c                	sw	a5,20(a4)
C:\Users\windows\Desktop\A_Dual\A_Dual1\Dual-core_Communication_Demo\Dual-core_Communication_Demo\SLAVE\obj/../Libraries/seekfree_peripheral/SEEKFREE_IPS114_SPI.c:106
    systick_delay_ms(200);
    2514:	8381a703          	lw	a4,-1992(gp) # 20000150 <sys_clk>
    2518:	6789                	lui	a5,0x2
    251a:	f4078793          	addi	a5,a5,-192 # 1f40 <USART_Init+0xc8>
    251e:	02f75733          	divu	a4,a4,a5
    2522:	0c800793          	li	a5,200
    2526:	02f707b3          	mul	a5,a4,a5
    252a:	8c3e                	mv	s8,a5
    252c:	4c81                	li	s9,0
    252e:	8562                	mv	a0,s8
    2530:	85e6                	mv	a1,s9
    2532:	22f010ef          	jal	ra,3f60 <systick_delay>
C:\Users\windows\Desktop\A_Dual\A_Dual1\Dual-core_Communication_Demo\Dual-core_Communication_Demo\SLAVE\obj/../Libraries/seekfree_peripheral/SEEKFREE_IPS114_SPI.c:108
    
    IPS114_REST(1);
    2536:	6799                	lui	a5,0x6
    2538:	1a478793          	addi	a5,a5,420 # 61a4 <GPION>
    253c:	479c                	lw	a5,8(a5)
    253e:	873e                	mv	a4,a5
    2540:	6789                	lui	a5,0x2
    2542:	cb1c                	sw	a5,16(a4)
C:\Users\windows\Desktop\A_Dual\A_Dual1\Dual-core_Communication_Demo\Dual-core_Communication_Demo\SLAVE\obj/../Libraries/seekfree_peripheral/SEEKFREE_IPS114_SPI.c:109
    systick_delay_ms(100);
    2544:	8381a703          	lw	a4,-1992(gp) # 20000150 <sys_clk>
    2548:	6789                	lui	a5,0x2
    254a:	f4078793          	addi	a5,a5,-192 # 1f40 <USART_Init+0xc8>
    254e:	02f75733          	divu	a4,a4,a5
    2552:	06400793          	li	a5,100
    2556:	02f707b3          	mul	a5,a4,a5
    255a:	8b3e                	mv	s6,a5
    255c:	4b81                	li	s7,0
    255e:	855a                	mv	a0,s6
    2560:	85de                	mv	a1,s7
    2562:	1ff010ef          	jal	ra,3f60 <systick_delay>
C:\Users\windows\Desktop\A_Dual\A_Dual1\Dual-core_Communication_Demo\Dual-core_Communication_Demo\SLAVE\obj/../Libraries/seekfree_peripheral/SEEKFREE_IPS114_SPI.c:111
	
    ips114_writeIndex(0x36);
    2566:	03600513          	li	a0,54
    256a:	352d                	jal	2394 <ips114_writeIndex>
C:\Users\windows\Desktop\A_Dual\A_Dual1\Dual-core_Communication_Demo\Dual-core_Communication_Demo\SLAVE\obj/../Libraries/seekfree_peripheral/SEEKFREE_IPS114_SPI.c:112
    systick_delay_ms(100);
    256c:	8381a703          	lw	a4,-1992(gp) # 20000150 <sys_clk>
    2570:	6789                	lui	a5,0x2
    2572:	f4078793          	addi	a5,a5,-192 # 1f40 <USART_Init+0xc8>
    2576:	02f75733          	divu	a4,a4,a5
    257a:	06400793          	li	a5,100
    257e:	02f707b3          	mul	a5,a4,a5
    2582:	8a3e                	mv	s4,a5
    2584:	4a81                	li	s5,0
    2586:	8552                	mv	a0,s4
    2588:	85d6                	mv	a1,s5
    258a:	1d7010ef          	jal	ra,3f60 <systick_delay>
C:\Users\windows\Desktop\A_Dual\A_Dual1\Dual-core_Communication_Demo\Dual-core_Communication_Demo\SLAVE\obj/../Libraries/seekfree_peripheral/SEEKFREE_IPS114_SPI.c:115
    if      (IPS114_DISPLAY_DIR==0)    ips114_writeData(0x00);
    else if (IPS114_DISPLAY_DIR==1)    ips114_writeData(0xC0);
    else if (IPS114_DISPLAY_DIR==2)    ips114_writeData(0x70);
    258e:	07000513          	li	a0,112
    2592:	3d91                	jal	23e6 <ips114_writeData>
C:\Users\windows\Desktop\A_Dual\A_Dual1\Dual-core_Communication_Demo\Dual-core_Communication_Demo\SLAVE\obj/../Libraries/seekfree_peripheral/SEEKFREE_IPS114_SPI.c:118
    else                            ips114_writeData(0xA0);
    
    ips114_writeIndex(0x3A); 
    2594:	03a00513          	li	a0,58
    2598:	3bf5                	jal	2394 <ips114_writeIndex>
C:\Users\windows\Desktop\A_Dual\A_Dual1\Dual-core_Communication_Demo\Dual-core_Communication_Demo\SLAVE\obj/../Libraries/seekfree_peripheral/SEEKFREE_IPS114_SPI.c:119
    ips114_writeData(0x05);
    259a:	4515                	li	a0,5
    259c:	35a9                	jal	23e6 <ips114_writeData>
C:\Users\windows\Desktop\A_Dual\A_Dual1\Dual-core_Communication_Demo\Dual-core_Communication_Demo\SLAVE\obj/../Libraries/seekfree_peripheral/SEEKFREE_IPS114_SPI.c:121

    ips114_writeIndex(0xB2);
    259e:	0b200513          	li	a0,178
    25a2:	3bcd                	jal	2394 <ips114_writeIndex>
C:\Users\windows\Desktop\A_Dual\A_Dual1\Dual-core_Communication_Demo\Dual-core_Communication_Demo\SLAVE\obj/../Libraries/seekfree_peripheral/SEEKFREE_IPS114_SPI.c:122
    ips114_writeData(0x0C);
    25a4:	4531                	li	a0,12
    25a6:	3581                	jal	23e6 <ips114_writeData>
C:\Users\windows\Desktop\A_Dual\A_Dual1\Dual-core_Communication_Demo\Dual-core_Communication_Demo\SLAVE\obj/../Libraries/seekfree_peripheral/SEEKFREE_IPS114_SPI.c:123
    ips114_writeData(0x0C);
    25a8:	4531                	li	a0,12
    25aa:	3d35                	jal	23e6 <ips114_writeData>
C:\Users\windows\Desktop\A_Dual\A_Dual1\Dual-core_Communication_Demo\Dual-core_Communication_Demo\SLAVE\obj/../Libraries/seekfree_peripheral/SEEKFREE_IPS114_SPI.c:124
    ips114_writeData(0x00);
    25ac:	4501                	li	a0,0
    25ae:	3d25                	jal	23e6 <ips114_writeData>
C:\Users\windows\Desktop\A_Dual\A_Dual1\Dual-core_Communication_Demo\Dual-core_Communication_Demo\SLAVE\obj/../Libraries/seekfree_peripheral/SEEKFREE_IPS114_SPI.c:125
    ips114_writeData(0x33);
    25b0:	03300513          	li	a0,51
    25b4:	3d0d                	jal	23e6 <ips114_writeData>
C:\Users\windows\Desktop\A_Dual\A_Dual1\Dual-core_Communication_Demo\Dual-core_Communication_Demo\SLAVE\obj/../Libraries/seekfree_peripheral/SEEKFREE_IPS114_SPI.c:126
    ips114_writeData(0x33); 
    25b6:	03300513          	li	a0,51
    25ba:	3535                	jal	23e6 <ips114_writeData>
C:\Users\windows\Desktop\A_Dual\A_Dual1\Dual-core_Communication_Demo\Dual-core_Communication_Demo\SLAVE\obj/../Libraries/seekfree_peripheral/SEEKFREE_IPS114_SPI.c:128

    ips114_writeIndex(0xB7); 
    25bc:	0b700513          	li	a0,183
    25c0:	3bd1                	jal	2394 <ips114_writeIndex>
C:\Users\windows\Desktop\A_Dual\A_Dual1\Dual-core_Communication_Demo\Dual-core_Communication_Demo\SLAVE\obj/../Libraries/seekfree_peripheral/SEEKFREE_IPS114_SPI.c:129
    ips114_writeData(0x35);  
    25c2:	03500513          	li	a0,53
    25c6:	3505                	jal	23e6 <ips114_writeData>
C:\Users\windows\Desktop\A_Dual\A_Dual1\Dual-core_Communication_Demo\Dual-core_Communication_Demo\SLAVE\obj/../Libraries/seekfree_peripheral/SEEKFREE_IPS114_SPI.c:131

    ips114_writeIndex(0xBB);
    25c8:	0bb00513          	li	a0,187
    25cc:	33e1                	jal	2394 <ips114_writeIndex>
C:\Users\windows\Desktop\A_Dual\A_Dual1\Dual-core_Communication_Demo\Dual-core_Communication_Demo\SLAVE\obj/../Libraries/seekfree_peripheral/SEEKFREE_IPS114_SPI.c:132
    ips114_writeData(0x37);
    25ce:	03700513          	li	a0,55
    25d2:	3d11                	jal	23e6 <ips114_writeData>
C:\Users\windows\Desktop\A_Dual\A_Dual1\Dual-core_Communication_Demo\Dual-core_Communication_Demo\SLAVE\obj/../Libraries/seekfree_peripheral/SEEKFREE_IPS114_SPI.c:134

    ips114_writeIndex(0xC0);
    25d4:	0c000513          	li	a0,192
    25d8:	3b75                	jal	2394 <ips114_writeIndex>
C:\Users\windows\Desktop\A_Dual\A_Dual1\Dual-core_Communication_Demo\Dual-core_Communication_Demo\SLAVE\obj/../Libraries/seekfree_peripheral/SEEKFREE_IPS114_SPI.c:135
    ips114_writeData(0x2C);
    25da:	02c00513          	li	a0,44
    25de:	3521                	jal	23e6 <ips114_writeData>
C:\Users\windows\Desktop\A_Dual\A_Dual1\Dual-core_Communication_Demo\Dual-core_Communication_Demo\SLAVE\obj/../Libraries/seekfree_peripheral/SEEKFREE_IPS114_SPI.c:137

    ips114_writeIndex(0xC2);
    25e0:	0c200513          	li	a0,194
    25e4:	3b45                	jal	2394 <ips114_writeIndex>
C:\Users\windows\Desktop\A_Dual\A_Dual1\Dual-core_Communication_Demo\Dual-core_Communication_Demo\SLAVE\obj/../Libraries/seekfree_peripheral/SEEKFREE_IPS114_SPI.c:138
    ips114_writeData(0x01);
    25e6:	4505                	li	a0,1
    25e8:	3bfd                	jal	23e6 <ips114_writeData>
C:\Users\windows\Desktop\A_Dual\A_Dual1\Dual-core_Communication_Demo\Dual-core_Communication_Demo\SLAVE\obj/../Libraries/seekfree_peripheral/SEEKFREE_IPS114_SPI.c:140

    ips114_writeIndex(0xC3);
    25ea:	0c300513          	li	a0,195
    25ee:	335d                	jal	2394 <ips114_writeIndex>
C:\Users\windows\Desktop\A_Dual\A_Dual1\Dual-core_Communication_Demo\Dual-core_Communication_Demo\SLAVE\obj/../Libraries/seekfree_peripheral/SEEKFREE_IPS114_SPI.c:141
    ips114_writeData(0x12);   
    25f0:	4549                	li	a0,18
    25f2:	3bd5                	jal	23e6 <ips114_writeData>
C:\Users\windows\Desktop\A_Dual\A_Dual1\Dual-core_Communication_Demo\Dual-core_Communication_Demo\SLAVE\obj/../Libraries/seekfree_peripheral/SEEKFREE_IPS114_SPI.c:143

    ips114_writeIndex(0xC4);
    25f4:	0c400513          	li	a0,196
    25f8:	3b71                	jal	2394 <ips114_writeIndex>
C:\Users\windows\Desktop\A_Dual\A_Dual1\Dual-core_Communication_Demo\Dual-core_Communication_Demo\SLAVE\obj/../Libraries/seekfree_peripheral/SEEKFREE_IPS114_SPI.c:144
    ips114_writeData(0x20);  
    25fa:	02000513          	li	a0,32
    25fe:	33e5                	jal	23e6 <ips114_writeData>
C:\Users\windows\Desktop\A_Dual\A_Dual1\Dual-core_Communication_Demo\Dual-core_Communication_Demo\SLAVE\obj/../Libraries/seekfree_peripheral/SEEKFREE_IPS114_SPI.c:146

    ips114_writeIndex(0xC6); 
    2600:	0c600513          	li	a0,198
    2604:	3b41                	jal	2394 <ips114_writeIndex>
C:\Users\windows\Desktop\A_Dual\A_Dual1\Dual-core_Communication_Demo\Dual-core_Communication_Demo\SLAVE\obj/../Libraries/seekfree_peripheral/SEEKFREE_IPS114_SPI.c:147
    ips114_writeData(0x0F);    
    2606:	453d                	li	a0,15
    2608:	3bf9                	jal	23e6 <ips114_writeData>
C:\Users\windows\Desktop\A_Dual\A_Dual1\Dual-core_Communication_Demo\Dual-core_Communication_Demo\SLAVE\obj/../Libraries/seekfree_peripheral/SEEKFREE_IPS114_SPI.c:149

    ips114_writeIndex(0xD0); 
    260a:	0d000513          	li	a0,208
    260e:	3359                	jal	2394 <ips114_writeIndex>
C:\Users\windows\Desktop\A_Dual\A_Dual1\Dual-core_Communication_Demo\Dual-core_Communication_Demo\SLAVE\obj/../Libraries/seekfree_peripheral/SEEKFREE_IPS114_SPI.c:150
    ips114_writeData(0xA4);
    2610:	0a400513          	li	a0,164
    2614:	3bc9                	jal	23e6 <ips114_writeData>
C:\Users\windows\Desktop\A_Dual\A_Dual1\Dual-core_Communication_Demo\Dual-core_Communication_Demo\SLAVE\obj/../Libraries/seekfree_peripheral/SEEKFREE_IPS114_SPI.c:151
    ips114_writeData(0xA1);
    2616:	0a100513          	li	a0,161
    261a:	33f1                	jal	23e6 <ips114_writeData>
C:\Users\windows\Desktop\A_Dual\A_Dual1\Dual-core_Communication_Demo\Dual-core_Communication_Demo\SLAVE\obj/../Libraries/seekfree_peripheral/SEEKFREE_IPS114_SPI.c:153

    ips114_writeIndex(0xE0);
    261c:	0e000513          	li	a0,224
    2620:	3b95                	jal	2394 <ips114_writeIndex>
C:\Users\windows\Desktop\A_Dual\A_Dual1\Dual-core_Communication_Demo\Dual-core_Communication_Demo\SLAVE\obj/../Libraries/seekfree_peripheral/SEEKFREE_IPS114_SPI.c:154
    ips114_writeData(0xD0);
    2622:	0d000513          	li	a0,208
    2626:	33c1                	jal	23e6 <ips114_writeData>
C:\Users\windows\Desktop\A_Dual\A_Dual1\Dual-core_Communication_Demo\Dual-core_Communication_Demo\SLAVE\obj/../Libraries/seekfree_peripheral/SEEKFREE_IPS114_SPI.c:155
    ips114_writeData(0x04);
    2628:	4511                	li	a0,4
    262a:	3b75                	jal	23e6 <ips114_writeData>
C:\Users\windows\Desktop\A_Dual\A_Dual1\Dual-core_Communication_Demo\Dual-core_Communication_Demo\SLAVE\obj/../Libraries/seekfree_peripheral/SEEKFREE_IPS114_SPI.c:156
    ips114_writeData(0x0D);
    262c:	4535                	li	a0,13
    262e:	3b65                	jal	23e6 <ips114_writeData>
C:\Users\windows\Desktop\A_Dual\A_Dual1\Dual-core_Communication_Demo\Dual-core_Communication_Demo\SLAVE\obj/../Libraries/seekfree_peripheral/SEEKFREE_IPS114_SPI.c:157
    ips114_writeData(0x11);
    2630:	4545                	li	a0,17
    2632:	3b55                	jal	23e6 <ips114_writeData>
C:\Users\windows\Desktop\A_Dual\A_Dual1\Dual-core_Communication_Demo\Dual-core_Communication_Demo\SLAVE\obj/../Libraries/seekfree_peripheral/SEEKFREE_IPS114_SPI.c:158
    ips114_writeData(0x13);
    2634:	454d                	li	a0,19
    2636:	3b45                	jal	23e6 <ips114_writeData>
C:\Users\windows\Desktop\A_Dual\A_Dual1\Dual-core_Communication_Demo\Dual-core_Communication_Demo\SLAVE\obj/../Libraries/seekfree_peripheral/SEEKFREE_IPS114_SPI.c:159
    ips114_writeData(0x2B);
    2638:	02b00513          	li	a0,43
    263c:	336d                	jal	23e6 <ips114_writeData>
C:\Users\windows\Desktop\A_Dual\A_Dual1\Dual-core_Communication_Demo\Dual-core_Communication_Demo\SLAVE\obj/../Libraries/seekfree_peripheral/SEEKFREE_IPS114_SPI.c:160
    ips114_writeData(0x3F);
    263e:	03f00513          	li	a0,63
    2642:	3355                	jal	23e6 <ips114_writeData>
C:\Users\windows\Desktop\A_Dual\A_Dual1\Dual-core_Communication_Demo\Dual-core_Communication_Demo\SLAVE\obj/../Libraries/seekfree_peripheral/SEEKFREE_IPS114_SPI.c:161
    ips114_writeData(0x54);
    2644:	05400513          	li	a0,84
    2648:	3b79                	jal	23e6 <ips114_writeData>
C:\Users\windows\Desktop\A_Dual\A_Dual1\Dual-core_Communication_Demo\Dual-core_Communication_Demo\SLAVE\obj/../Libraries/seekfree_peripheral/SEEKFREE_IPS114_SPI.c:162
    ips114_writeData(0x4C);
    264a:	04c00513          	li	a0,76
    264e:	3b61                	jal	23e6 <ips114_writeData>
C:\Users\windows\Desktop\A_Dual\A_Dual1\Dual-core_Communication_Demo\Dual-core_Communication_Demo\SLAVE\obj/../Libraries/seekfree_peripheral/SEEKFREE_IPS114_SPI.c:163
    ips114_writeData(0x18);
    2650:	4561                	li	a0,24
    2652:	3b51                	jal	23e6 <ips114_writeData>
C:\Users\windows\Desktop\A_Dual\A_Dual1\Dual-core_Communication_Demo\Dual-core_Communication_Demo\SLAVE\obj/../Libraries/seekfree_peripheral/SEEKFREE_IPS114_SPI.c:164
    ips114_writeData(0x0D);
    2654:	4535                	li	a0,13
    2656:	3b41                	jal	23e6 <ips114_writeData>
C:\Users\windows\Desktop\A_Dual\A_Dual1\Dual-core_Communication_Demo\Dual-core_Communication_Demo\SLAVE\obj/../Libraries/seekfree_peripheral/SEEKFREE_IPS114_SPI.c:165
    ips114_writeData(0x0B);
    2658:	452d                	li	a0,11
    265a:	3371                	jal	23e6 <ips114_writeData>
C:\Users\windows\Desktop\A_Dual\A_Dual1\Dual-core_Communication_Demo\Dual-core_Communication_Demo\SLAVE\obj/../Libraries/seekfree_peripheral/SEEKFREE_IPS114_SPI.c:166
    ips114_writeData(0x1F);
    265c:	457d                	li	a0,31
    265e:	3361                	jal	23e6 <ips114_writeData>
C:\Users\windows\Desktop\A_Dual\A_Dual1\Dual-core_Communication_Demo\Dual-core_Communication_Demo\SLAVE\obj/../Libraries/seekfree_peripheral/SEEKFREE_IPS114_SPI.c:167
    ips114_writeData(0x23);
    2660:	02300513          	li	a0,35
    2664:	3349                	jal	23e6 <ips114_writeData>
C:\Users\windows\Desktop\A_Dual\A_Dual1\Dual-core_Communication_Demo\Dual-core_Communication_Demo\SLAVE\obj/../Libraries/seekfree_peripheral/SEEKFREE_IPS114_SPI.c:169

    ips114_writeIndex(0xE1);
    2666:	0e100513          	li	a0,225
    266a:	332d                	jal	2394 <ips114_writeIndex>
C:\Users\windows\Desktop\A_Dual\A_Dual1\Dual-core_Communication_Demo\Dual-core_Communication_Demo\SLAVE\obj/../Libraries/seekfree_peripheral/SEEKFREE_IPS114_SPI.c:170
    ips114_writeData(0xD0);
    266c:	0d000513          	li	a0,208
    2670:	3b9d                	jal	23e6 <ips114_writeData>
C:\Users\windows\Desktop\A_Dual\A_Dual1\Dual-core_Communication_Demo\Dual-core_Communication_Demo\SLAVE\obj/../Libraries/seekfree_peripheral/SEEKFREE_IPS114_SPI.c:171
    ips114_writeData(0x04);
    2672:	4511                	li	a0,4
    2674:	3b8d                	jal	23e6 <ips114_writeData>
C:\Users\windows\Desktop\A_Dual\A_Dual1\Dual-core_Communication_Demo\Dual-core_Communication_Demo\SLAVE\obj/../Libraries/seekfree_peripheral/SEEKFREE_IPS114_SPI.c:172
    ips114_writeData(0x0C);
    2676:	4531                	li	a0,12
    2678:	33bd                	jal	23e6 <ips114_writeData>
C:\Users\windows\Desktop\A_Dual\A_Dual1\Dual-core_Communication_Demo\Dual-core_Communication_Demo\SLAVE\obj/../Libraries/seekfree_peripheral/SEEKFREE_IPS114_SPI.c:173
    ips114_writeData(0x11);
    267a:	4545                	li	a0,17
    267c:	33ad                	jal	23e6 <ips114_writeData>
C:\Users\windows\Desktop\A_Dual\A_Dual1\Dual-core_Communication_Demo\Dual-core_Communication_Demo\SLAVE\obj/../Libraries/seekfree_peripheral/SEEKFREE_IPS114_SPI.c:174
    ips114_writeData(0x13);
    267e:	454d                	li	a0,19
    2680:	339d                	jal	23e6 <ips114_writeData>
C:\Users\windows\Desktop\A_Dual\A_Dual1\Dual-core_Communication_Demo\Dual-core_Communication_Demo\SLAVE\obj/../Libraries/seekfree_peripheral/SEEKFREE_IPS114_SPI.c:175
    ips114_writeData(0x2C);
    2682:	02c00513          	li	a0,44
    2686:	3385                	jal	23e6 <ips114_writeData>
C:\Users\windows\Desktop\A_Dual\A_Dual1\Dual-core_Communication_Demo\Dual-core_Communication_Demo\SLAVE\obj/../Libraries/seekfree_peripheral/SEEKFREE_IPS114_SPI.c:176
    ips114_writeData(0x3F);
    2688:	03f00513          	li	a0,63
    268c:	3ba9                	jal	23e6 <ips114_writeData>
C:\Users\windows\Desktop\A_Dual\A_Dual1\Dual-core_Communication_Demo\Dual-core_Communication_Demo\SLAVE\obj/../Libraries/seekfree_peripheral/SEEKFREE_IPS114_SPI.c:177
    ips114_writeData(0x44);
    268e:	04400513          	li	a0,68
    2692:	3b91                	jal	23e6 <ips114_writeData>
C:\Users\windows\Desktop\A_Dual\A_Dual1\Dual-core_Communication_Demo\Dual-core_Communication_Demo\SLAVE\obj/../Libraries/seekfree_peripheral/SEEKFREE_IPS114_SPI.c:178
    ips114_writeData(0x51);
    2694:	05100513          	li	a0,81
    2698:	33b9                	jal	23e6 <ips114_writeData>
C:\Users\windows\Desktop\A_Dual\A_Dual1\Dual-core_Communication_Demo\Dual-core_Communication_Demo\SLAVE\obj/../Libraries/seekfree_peripheral/SEEKFREE_IPS114_SPI.c:179
    ips114_writeData(0x2F);
    269a:	02f00513          	li	a0,47
    269e:	33a1                	jal	23e6 <ips114_writeData>
C:\Users\windows\Desktop\A_Dual\A_Dual1\Dual-core_Communication_Demo\Dual-core_Communication_Demo\SLAVE\obj/../Libraries/seekfree_peripheral/SEEKFREE_IPS114_SPI.c:180
    ips114_writeData(0x1F);
    26a0:	457d                	li	a0,31
    26a2:	3391                	jal	23e6 <ips114_writeData>
C:\Users\windows\Desktop\A_Dual\A_Dual1\Dual-core_Communication_Demo\Dual-core_Communication_Demo\SLAVE\obj/../Libraries/seekfree_peripheral/SEEKFREE_IPS114_SPI.c:181
    ips114_writeData(0x1F);
    26a4:	457d                	li	a0,31
    26a6:	3381                	jal	23e6 <ips114_writeData>
C:\Users\windows\Desktop\A_Dual\A_Dual1\Dual-core_Communication_Demo\Dual-core_Communication_Demo\SLAVE\obj/../Libraries/seekfree_peripheral/SEEKFREE_IPS114_SPI.c:182
    ips114_writeData(0x20);
    26a8:	02000513          	li	a0,32
    26ac:	3b2d                	jal	23e6 <ips114_writeData>
C:\Users\windows\Desktop\A_Dual\A_Dual1\Dual-core_Communication_Demo\Dual-core_Communication_Demo\SLAVE\obj/../Libraries/seekfree_peripheral/SEEKFREE_IPS114_SPI.c:183
    ips114_writeData(0x23);
    26ae:	02300513          	li	a0,35
    26b2:	3b15                	jal	23e6 <ips114_writeData>
C:\Users\windows\Desktop\A_Dual\A_Dual1\Dual-core_Communication_Demo\Dual-core_Communication_Demo\SLAVE\obj/../Libraries/seekfree_peripheral/SEEKFREE_IPS114_SPI.c:185

    ips114_writeIndex(0x21); 
    26b4:	02100513          	li	a0,33
    26b8:	39f1                	jal	2394 <ips114_writeIndex>
C:\Users\windows\Desktop\A_Dual\A_Dual1\Dual-core_Communication_Demo\Dual-core_Communication_Demo\SLAVE\obj/../Libraries/seekfree_peripheral/SEEKFREE_IPS114_SPI.c:187

    ips114_writeIndex(0x11); 
    26ba:	4545                	li	a0,17
    26bc:	39e1                	jal	2394 <ips114_writeIndex>
C:\Users\windows\Desktop\A_Dual\A_Dual1\Dual-core_Communication_Demo\Dual-core_Communication_Demo\SLAVE\obj/../Libraries/seekfree_peripheral/SEEKFREE_IPS114_SPI.c:188
    systick_delay_ms(120); 
    26be:	8381a703          	lw	a4,-1992(gp) # 20000150 <sys_clk>
    26c2:	6789                	lui	a5,0x2
    26c4:	f4078793          	addi	a5,a5,-192 # 1f40 <USART_Init+0xc8>
    26c8:	02f75733          	divu	a4,a4,a5
    26cc:	87ba                	mv	a5,a4
    26ce:	0792                	slli	a5,a5,0x4
    26d0:	8f99                	sub	a5,a5,a4
    26d2:	078e                	slli	a5,a5,0x3
    26d4:	893e                	mv	s2,a5
    26d6:	4981                	li	s3,0
    26d8:	854a                	mv	a0,s2
    26da:	85ce                	mv	a1,s3
    26dc:	085010ef          	jal	ra,3f60 <systick_delay>
C:\Users\windows\Desktop\A_Dual\A_Dual1\Dual-core_Communication_Demo\Dual-core_Communication_Demo\SLAVE\obj/../Libraries/seekfree_peripheral/SEEKFREE_IPS114_SPI.c:190

    ips114_writeIndex(0x29);
    26e0:	02900513          	li	a0,41
    26e4:	3945                	jal	2394 <ips114_writeIndex>
C:\Users\windows\Desktop\A_Dual\A_Dual1\Dual-core_Communication_Demo\Dual-core_Communication_Demo\SLAVE\obj/../Libraries/seekfree_peripheral/SEEKFREE_IPS114_SPI.c:191
    ips114_clear(IPS114_BGCOLOR);
    26e6:	67c1                	lui	a5,0x10
    26e8:	fff78513          	addi	a0,a5,-1 # ffff <_data_lma+0x9d27>
    26ec:	2869                	jal	2786 <ips114_clear>
C:\Users\windows\Desktop\A_Dual\A_Dual1\Dual-core_Communication_Demo\Dual-core_Communication_Demo\SLAVE\obj/../Libraries/seekfree_peripheral/SEEKFREE_IPS114_SPI.c:192
}
    26ee:	0001                	nop
    26f0:	50b2                	lw	ra,44(sp)
    26f2:	5422                	lw	s0,40(sp)
    26f4:	5912                	lw	s2,36(sp)
    26f6:	5982                	lw	s3,32(sp)
    26f8:	4a72                	lw	s4,28(sp)
    26fa:	4ae2                	lw	s5,24(sp)
    26fc:	4b52                	lw	s6,20(sp)
    26fe:	4bc2                	lw	s7,16(sp)
    2700:	4c32                	lw	s8,12(sp)
    2702:	4ca2                	lw	s9,8(sp)
    2704:	6145                	addi	sp,sp,48
    2706:	8082                	ret

00002708 <ips114_set_region>:
ips114_set_region():
C:\Users\windows\Desktop\A_Dual\A_Dual1\Dual-core_Communication_Demo\Dual-core_Communication_Demo\SLAVE\obj/../Libraries/seekfree_peripheral/SEEKFREE_IPS114_SPI.c:197



void ips114_set_region(uint16 x1,uint16 y1,uint16 x2,uint16 y2)
{
    2708:	1101                	addi	sp,sp,-32
    270a:	ce06                	sw	ra,28(sp)
    270c:	cc22                	sw	s0,24(sp)
    270e:	1000                	addi	s0,sp,32
    2710:	87aa                	mv	a5,a0
    2712:	8736                	mv	a4,a3
    2714:	fef41723          	sh	a5,-18(s0)
    2718:	87ae                	mv	a5,a1
    271a:	fef41623          	sh	a5,-20(s0)
    271e:	87b2                	mv	a5,a2
    2720:	fef41523          	sh	a5,-22(s0)
    2724:	87ba                	mv	a5,a4
    2726:	fef41423          	sh	a5,-24(s0)
C:\Users\windows\Desktop\A_Dual\A_Dual1\Dual-core_Communication_Demo\Dual-core_Communication_Demo\SLAVE\obj/../Libraries/seekfree_peripheral/SEEKFREE_IPS114_SPI.c:220
		ips114_writedata_16bit(y2+40);
		ips114_writeIndex(0x2c);//
	}
	else if(IPS114_DISPLAY_DIR==2)
	{
		ips114_writeIndex(0x2a);//
    272a:	02a00513          	li	a0,42
    272e:	319d                	jal	2394 <ips114_writeIndex>
C:\Users\windows\Desktop\A_Dual\A_Dual1\Dual-core_Communication_Demo\Dual-core_Communication_Demo\SLAVE\obj/../Libraries/seekfree_peripheral/SEEKFREE_IPS114_SPI.c:221
		ips114_writedata_16bit(x1+40);
    2730:	fee45783          	lhu	a5,-18(s0)
    2734:	02878793          	addi	a5,a5,40
    2738:	07c2                	slli	a5,a5,0x10
    273a:	83c1                	srli	a5,a5,0x10
    273c:	853e                	mv	a0,a5
    273e:	39ed                	jal	2438 <ips114_writedata_16bit>
C:\Users\windows\Desktop\A_Dual\A_Dual1\Dual-core_Communication_Demo\Dual-core_Communication_Demo\SLAVE\obj/../Libraries/seekfree_peripheral/SEEKFREE_IPS114_SPI.c:222
		ips114_writedata_16bit(x2+40);
    2740:	fea45783          	lhu	a5,-22(s0)
    2744:	02878793          	addi	a5,a5,40
    2748:	07c2                	slli	a5,a5,0x10
    274a:	83c1                	srli	a5,a5,0x10
    274c:	853e                	mv	a0,a5
    274e:	31ed                	jal	2438 <ips114_writedata_16bit>
C:\Users\windows\Desktop\A_Dual\A_Dual1\Dual-core_Communication_Demo\Dual-core_Communication_Demo\SLAVE\obj/../Libraries/seekfree_peripheral/SEEKFREE_IPS114_SPI.c:223
		ips114_writeIndex(0x2b);//
    2750:	02b00513          	li	a0,43
    2754:	3181                	jal	2394 <ips114_writeIndex>
C:\Users\windows\Desktop\A_Dual\A_Dual1\Dual-core_Communication_Demo\Dual-core_Communication_Demo\SLAVE\obj/../Libraries/seekfree_peripheral/SEEKFREE_IPS114_SPI.c:224
		ips114_writedata_16bit(y1+53);
    2756:	fec45783          	lhu	a5,-20(s0)
    275a:	03578793          	addi	a5,a5,53
    275e:	07c2                	slli	a5,a5,0x10
    2760:	83c1                	srli	a5,a5,0x10
    2762:	853e                	mv	a0,a5
    2764:	39d1                	jal	2438 <ips114_writedata_16bit>
C:\Users\windows\Desktop\A_Dual\A_Dual1\Dual-core_Communication_Demo\Dual-core_Communication_Demo\SLAVE\obj/../Libraries/seekfree_peripheral/SEEKFREE_IPS114_SPI.c:225
		ips114_writedata_16bit(y2+53);
    2766:	fe845783          	lhu	a5,-24(s0)
    276a:	03578793          	addi	a5,a5,53
    276e:	07c2                	slli	a5,a5,0x10
    2770:	83c1                	srli	a5,a5,0x10
    2772:	853e                	mv	a0,a5
    2774:	31d1                	jal	2438 <ips114_writedata_16bit>
C:\Users\windows\Desktop\A_Dual\A_Dual1\Dual-core_Communication_Demo\Dual-core_Communication_Demo\SLAVE\obj/../Libraries/seekfree_peripheral/SEEKFREE_IPS114_SPI.c:226
		ips114_writeIndex(0x2c);//
    2776:	02c00513          	li	a0,44
    277a:	3929                	jal	2394 <ips114_writeIndex>
C:\Users\windows\Desktop\A_Dual\A_Dual1\Dual-core_Communication_Demo\Dual-core_Communication_Demo\SLAVE\obj/../Libraries/seekfree_peripheral/SEEKFREE_IPS114_SPI.c:238
		ips114_writeIndex(0x2b);//
		ips114_writedata_16bit(y1+52);
		ips114_writedata_16bit(y2+52);
		ips114_writeIndex(0x2c);//
	}
}
    277c:	0001                	nop
    277e:	40f2                	lw	ra,28(sp)
    2780:	4462                	lw	s0,24(sp)
    2782:	6105                	addi	sp,sp,32
    2784:	8082                	ret

00002786 <ips114_clear>:
ips114_clear():
C:\Users\windows\Desktop\A_Dual\A_Dual1\Dual-core_Communication_Demo\Dual-core_Communication_Demo\SLAVE\obj/../Libraries/seekfree_peripheral/SEEKFREE_IPS114_SPI.c:248
//  @return     void
//  @since      v1.0
//  Sample usage:               ips114_clear(YELLOW);// 
//-------------------------------------------------------------------------------------------------------------------
void ips114_clear(uint16 color)
{
    2786:	7179                	addi	sp,sp,-48
    2788:	d606                	sw	ra,44(sp)
    278a:	d422                	sw	s0,40(sp)
    278c:	1800                	addi	s0,sp,48
    278e:	87aa                	mv	a5,a0
    2790:	fcf41f23          	sh	a5,-34(s0)
C:\Users\windows\Desktop\A_Dual\A_Dual1\Dual-core_Communication_Demo\Dual-core_Communication_Demo\SLAVE\obj/../Libraries/seekfree_peripheral/SEEKFREE_IPS114_SPI.c:250
    uint16 i,j;
	ips114_set_region(0,0,IPS114_X_MAX-1,IPS114_Y_MAX-1);
    2794:	08600693          	li	a3,134
    2798:	0ef00613          	li	a2,239
    279c:	4581                	li	a1,0
    279e:	4501                	li	a0,0
    27a0:	37a5                	jal	2708 <ips114_set_region>
C:\Users\windows\Desktop\A_Dual\A_Dual1\Dual-core_Communication_Demo\Dual-core_Communication_Demo\SLAVE\obj/../Libraries/seekfree_peripheral/SEEKFREE_IPS114_SPI.c:251
    for(i=0;i<IPS114_X_MAX;i++)
    27a2:	fe041723          	sh	zero,-18(s0)
    27a6:	a805                	j	27d6 <ips114_clear+0x50>
C:\Users\windows\Desktop\A_Dual\A_Dual1\Dual-core_Communication_Demo\Dual-core_Communication_Demo\SLAVE\obj/../Libraries/seekfree_peripheral/SEEKFREE_IPS114_SPI.c:253
    {
        for (j=0;j<IPS114_Y_MAX;j++)
    27a8:	fe041623          	sh	zero,-20(s0)
    27ac:	a811                	j	27c0 <ips114_clear+0x3a>
C:\Users\windows\Desktop\A_Dual\A_Dual1\Dual-core_Communication_Demo\Dual-core_Communication_Demo\SLAVE\obj/../Libraries/seekfree_peripheral/SEEKFREE_IPS114_SPI.c:255 (discriminator 3)
	   	{
        	ips114_writedata_16bit(color);	 			 
    27ae:	fde45783          	lhu	a5,-34(s0)
    27b2:	853e                	mv	a0,a5
    27b4:	3151                	jal	2438 <ips114_writedata_16bit>
C:\Users\windows\Desktop\A_Dual\A_Dual1\Dual-core_Communication_Demo\Dual-core_Communication_Demo\SLAVE\obj/../Libraries/seekfree_peripheral/SEEKFREE_IPS114_SPI.c:253 (discriminator 3)
        for (j=0;j<IPS114_Y_MAX;j++)
    27b6:	fec45783          	lhu	a5,-20(s0)
    27ba:	0785                	addi	a5,a5,1
    27bc:	fef41623          	sh	a5,-20(s0)
C:\Users\windows\Desktop\A_Dual\A_Dual1\Dual-core_Communication_Demo\Dual-core_Communication_Demo\SLAVE\obj/../Libraries/seekfree_peripheral/SEEKFREE_IPS114_SPI.c:253 (discriminator 1)
    27c0:	fec45703          	lhu	a4,-20(s0)
    27c4:	08600793          	li	a5,134
    27c8:	fee7f3e3          	bgeu	a5,a4,27ae <ips114_clear+0x28>
C:\Users\windows\Desktop\A_Dual\A_Dual1\Dual-core_Communication_Demo\Dual-core_Communication_Demo\SLAVE\obj/../Libraries/seekfree_peripheral/SEEKFREE_IPS114_SPI.c:251 (discriminator 2)
    for(i=0;i<IPS114_X_MAX;i++)
    27cc:	fee45783          	lhu	a5,-18(s0)
    27d0:	0785                	addi	a5,a5,1
    27d2:	fef41723          	sh	a5,-18(s0)
C:\Users\windows\Desktop\A_Dual\A_Dual1\Dual-core_Communication_Demo\Dual-core_Communication_Demo\SLAVE\obj/../Libraries/seekfree_peripheral/SEEKFREE_IPS114_SPI.c:251 (discriminator 1)
    27d6:	fee45703          	lhu	a4,-18(s0)
    27da:	0ef00793          	li	a5,239
    27de:	fce7f5e3          	bgeu	a5,a4,27a8 <ips114_clear+0x22>
C:\Users\windows\Desktop\A_Dual\A_Dual1\Dual-core_Communication_Demo\Dual-core_Communication_Demo\SLAVE\obj/../Libraries/seekfree_peripheral/SEEKFREE_IPS114_SPI.c:258
	    }
    }
}
    27e2:	0001                	nop
    27e4:	50b2                	lw	ra,44(sp)
    27e6:	5422                	lw	s0,40(sp)
    27e8:	6145                	addi	sp,sp,48
    27ea:	8082                	ret

000027ec <ips114_showchar>:
ips114_showchar():
C:\Users\windows\Desktop\A_Dual\A_Dual1\Dual-core_Communication_Demo\Dual-core_Communication_Demo\SLAVE\obj/../Libraries/seekfree_peripheral/SEEKFREE_IPS114_SPI.c:287
//  @return     void
//  @since      v1.0
//  Sample usage:               ips114_showchar(0,0,'x');//0,0x
//-------------------------------------------------------------------------------------------------------------------
void ips114_showchar(uint16 x,uint16 y,const int8 dat)
{
    27ec:	7179                	addi	sp,sp,-48
    27ee:	d606                	sw	ra,44(sp)
    27f0:	d422                	sw	s0,40(sp)
    27f2:	1800                	addi	s0,sp,48
    27f4:	87aa                	mv	a5,a0
    27f6:	86ae                	mv	a3,a1
    27f8:	8732                	mv	a4,a2
    27fa:	fcf41f23          	sh	a5,-34(s0)
    27fe:	87b6                	mv	a5,a3
    2800:	fcf41e23          	sh	a5,-36(s0)
    2804:	87ba                	mv	a5,a4
    2806:	fcf40da3          	sb	a5,-37(s0)
C:\Users\windows\Desktop\A_Dual\A_Dual1\Dual-core_Communication_Demo\Dual-core_Communication_Demo\SLAVE\obj/../Libraries/seekfree_peripheral/SEEKFREE_IPS114_SPI.c:291
	uint8 i,j;
	uint8 temp;
    
	for(i=0; i<16; i++)
    280a:	fe0407a3          	sb	zero,-17(s0)
    280e:	a075                	j	28ba <ips114_showchar+0xce>
C:\Users\windows\Desktop\A_Dual\A_Dual1\Dual-core_Communication_Demo\Dual-core_Communication_Demo\SLAVE\obj/../Libraries/seekfree_peripheral/SEEKFREE_IPS114_SPI.c:293
	{
		ips114_set_region(x,y+i,x+7,y+i);
    2810:	fef44783          	lbu	a5,-17(s0)
    2814:	01079713          	slli	a4,a5,0x10
    2818:	8341                	srli	a4,a4,0x10
    281a:	fdc45783          	lhu	a5,-36(s0)
    281e:	97ba                	add	a5,a5,a4
    2820:	01079593          	slli	a1,a5,0x10
    2824:	81c1                	srli	a1,a1,0x10
    2826:	fde45783          	lhu	a5,-34(s0)
    282a:	079d                	addi	a5,a5,7
    282c:	01079613          	slli	a2,a5,0x10
    2830:	8241                	srli	a2,a2,0x10
    2832:	fef44783          	lbu	a5,-17(s0)
    2836:	01079713          	slli	a4,a5,0x10
    283a:	8341                	srli	a4,a4,0x10
    283c:	fdc45783          	lhu	a5,-36(s0)
    2840:	97ba                	add	a5,a5,a4
    2842:	01079713          	slli	a4,a5,0x10
    2846:	8341                	srli	a4,a4,0x10
    2848:	fde45783          	lhu	a5,-34(s0)
    284c:	86ba                	mv	a3,a4
    284e:	853e                	mv	a0,a5
    2850:	3d65                	jal	2708 <ips114_set_region>
C:\Users\windows\Desktop\A_Dual\A_Dual1\Dual-core_Communication_Demo\Dual-core_Communication_Demo\SLAVE\obj/../Libraries/seekfree_peripheral/SEEKFREE_IPS114_SPI.c:294
		temp = tft_ascii[dat-32][i];//32 ascii32
    2852:	fdb40783          	lb	a5,-37(s0)
    2856:	fe078693          	addi	a3,a5,-32
    285a:	fef44783          	lbu	a5,-17(s0)
    285e:	6719                	lui	a4,0x6
    2860:	0692                	slli	a3,a3,0x4
    2862:	bb470713          	addi	a4,a4,-1100 # 5bb4 <tft_ascii>
    2866:	9736                	add	a4,a4,a3
    2868:	97ba                	add	a5,a5,a4
    286a:	0007c783          	lbu	a5,0(a5)
    286e:	fef406a3          	sb	a5,-19(s0)
C:\Users\windows\Desktop\A_Dual\A_Dual1\Dual-core_Communication_Demo\Dual-core_Communication_Demo\SLAVE\obj/../Libraries/seekfree_peripheral/SEEKFREE_IPS114_SPI.c:295
		for(j=0; j<8; j++)
    2872:	fe040723          	sb	zero,-18(s0)
    2876:	a805                	j	28a6 <ips114_showchar+0xba>
C:\Users\windows\Desktop\A_Dual\A_Dual1\Dual-core_Communication_Demo\Dual-core_Communication_Demo\SLAVE\obj/../Libraries/seekfree_peripheral/SEEKFREE_IPS114_SPI.c:297
		{
			if(temp&0x01)	
    2878:	fed44783          	lbu	a5,-19(s0)
    287c:	8b85                	andi	a5,a5,1
    287e:	c791                	beqz	a5,288a <ips114_showchar+0x9e>
C:\Users\windows\Desktop\A_Dual\A_Dual1\Dual-core_Communication_Demo\Dual-core_Communication_Demo\SLAVE\obj/../Libraries/seekfree_peripheral/SEEKFREE_IPS114_SPI.c:299
            {
                ips114_writedata_16bit(IPS114_PENCOLOR);
    2880:	67c1                	lui	a5,0x10
    2882:	80078513          	addi	a0,a5,-2048 # f800 <_data_lma+0x9528>
    2886:	3e4d                	jal	2438 <ips114_writedata_16bit>
    2888:	a029                	j	2892 <ips114_showchar+0xa6>
C:\Users\windows\Desktop\A_Dual\A_Dual1\Dual-core_Communication_Demo\Dual-core_Communication_Demo\SLAVE\obj/../Libraries/seekfree_peripheral/SEEKFREE_IPS114_SPI.c:301
            }
			else			ips114_writedata_16bit(IPS114_BGCOLOR);
    288a:	67c1                	lui	a5,0x10
    288c:	fff78513          	addi	a0,a5,-1 # ffff <_data_lma+0x9d27>
    2890:	3665                	jal	2438 <ips114_writedata_16bit>
C:\Users\windows\Desktop\A_Dual\A_Dual1\Dual-core_Communication_Demo\Dual-core_Communication_Demo\SLAVE\obj/../Libraries/seekfree_peripheral/SEEKFREE_IPS114_SPI.c:302 (discriminator 2)
			temp>>=1;
    2892:	fed44783          	lbu	a5,-19(s0)
    2896:	8385                	srli	a5,a5,0x1
    2898:	fef406a3          	sb	a5,-19(s0)
C:\Users\windows\Desktop\A_Dual\A_Dual1\Dual-core_Communication_Demo\Dual-core_Communication_Demo\SLAVE\obj/../Libraries/seekfree_peripheral/SEEKFREE_IPS114_SPI.c:295 (discriminator 2)
		for(j=0; j<8; j++)
    289c:	fee44783          	lbu	a5,-18(s0)
    28a0:	0785                	addi	a5,a5,1
    28a2:	fef40723          	sb	a5,-18(s0)
C:\Users\windows\Desktop\A_Dual\A_Dual1\Dual-core_Communication_Demo\Dual-core_Communication_Demo\SLAVE\obj/../Libraries/seekfree_peripheral/SEEKFREE_IPS114_SPI.c:295 (discriminator 1)
    28a6:	fee44703          	lbu	a4,-18(s0)
    28aa:	479d                	li	a5,7
    28ac:	fce7f6e3          	bgeu	a5,a4,2878 <ips114_showchar+0x8c>
C:\Users\windows\Desktop\A_Dual\A_Dual1\Dual-core_Communication_Demo\Dual-core_Communication_Demo\SLAVE\obj/../Libraries/seekfree_peripheral/SEEKFREE_IPS114_SPI.c:291 (discriminator 2)
	for(i=0; i<16; i++)
    28b0:	fef44783          	lbu	a5,-17(s0)
    28b4:	0785                	addi	a5,a5,1
    28b6:	fef407a3          	sb	a5,-17(s0)
C:\Users\windows\Desktop\A_Dual\A_Dual1\Dual-core_Communication_Demo\Dual-core_Communication_Demo\SLAVE\obj/../Libraries/seekfree_peripheral/SEEKFREE_IPS114_SPI.c:291 (discriminator 1)
    28ba:	fef44703          	lbu	a4,-17(s0)
    28be:	47bd                	li	a5,15
    28c0:	f4e7f8e3          	bgeu	a5,a4,2810 <ips114_showchar+0x24>
C:\Users\windows\Desktop\A_Dual\A_Dual1\Dual-core_Communication_Demo\Dual-core_Communication_Demo\SLAVE\obj/../Libraries/seekfree_peripheral/SEEKFREE_IPS114_SPI.c:305
		}
	}
}
    28c4:	0001                	nop
    28c6:	50b2                	lw	ra,44(sp)
    28c8:	5422                	lw	s0,40(sp)
    28ca:	6145                	addi	sp,sp,48
    28cc:	8082                	ret

000028ce <ips114_showuint8>:
ips114_showuint8():
C:\Users\windows\Desktop\A_Dual\A_Dual1\Dual-core_Communication_Demo\Dual-core_Communication_Demo\SLAVE\obj/../Libraries/seekfree_peripheral/SEEKFREE_IPS114_SPI.c:369
//  @return     void
//  @since      v1.0
//  Sample usage:               ips114_showuint8(0,0,x);//xuint8
//-------------------------------------------------------------------------------------------------------------------
void ips114_showuint8(uint16 x,uint16 y,uint8 dat)
{
    28ce:	7179                	addi	sp,sp,-48
    28d0:	d606                	sw	ra,44(sp)
    28d2:	d422                	sw	s0,40(sp)
    28d4:	1800                	addi	s0,sp,48
    28d6:	87aa                	mv	a5,a0
    28d8:	86ae                	mv	a3,a1
    28da:	8732                	mv	a4,a2
    28dc:	fcf41f23          	sh	a5,-34(s0)
    28e0:	87b6                	mv	a5,a3
    28e2:	fcf41e23          	sh	a5,-36(s0)
    28e6:	87ba                	mv	a5,a4
    28e8:	fcf40da3          	sb	a5,-37(s0)
C:\Users\windows\Desktop\A_Dual\A_Dual1\Dual-core_Communication_Demo\Dual-core_Communication_Demo\SLAVE\obj/../Libraries/seekfree_peripheral/SEEKFREE_IPS114_SPI.c:373
	uint8 a[3];
	uint8 i;
	
	a[0] = dat/100;
    28ec:	fdb44703          	lbu	a4,-37(s0)
    28f0:	06400793          	li	a5,100
    28f4:	02f757b3          	divu	a5,a4,a5
    28f8:	0ff7f793          	andi	a5,a5,255
    28fc:	fef40623          	sb	a5,-20(s0)
C:\Users\windows\Desktop\A_Dual\A_Dual1\Dual-core_Communication_Demo\Dual-core_Communication_Demo\SLAVE\obj/../Libraries/seekfree_peripheral/SEEKFREE_IPS114_SPI.c:374
	a[1] = dat/10%10;
    2900:	fdb44703          	lbu	a4,-37(s0)
    2904:	47a9                	li	a5,10
    2906:	02f757b3          	divu	a5,a4,a5
    290a:	0ff7f713          	andi	a4,a5,255
    290e:	47a9                	li	a5,10
    2910:	02f777b3          	remu	a5,a4,a5
    2914:	0ff7f793          	andi	a5,a5,255
    2918:	fef406a3          	sb	a5,-19(s0)
C:\Users\windows\Desktop\A_Dual\A_Dual1\Dual-core_Communication_Demo\Dual-core_Communication_Demo\SLAVE\obj/../Libraries/seekfree_peripheral/SEEKFREE_IPS114_SPI.c:375
	a[2] = dat%10;
    291c:	fdb44703          	lbu	a4,-37(s0)
    2920:	47a9                	li	a5,10
    2922:	02f777b3          	remu	a5,a4,a5
    2926:	0ff7f793          	andi	a5,a5,255
    292a:	fef40723          	sb	a5,-18(s0)
C:\Users\windows\Desktop\A_Dual\A_Dual1\Dual-core_Communication_Demo\Dual-core_Communication_Demo\SLAVE\obj/../Libraries/seekfree_peripheral/SEEKFREE_IPS114_SPI.c:376
	i = 0;
    292e:	fe0407a3          	sb	zero,-17(s0)
C:\Users\windows\Desktop\A_Dual\A_Dual1\Dual-core_Communication_Demo\Dual-core_Communication_Demo\SLAVE\obj/../Libraries/seekfree_peripheral/SEEKFREE_IPS114_SPI.c:377
	while(i<3)
    2932:	a899                	j	2988 <ips114_showuint8+0xba>
C:\Users\windows\Desktop\A_Dual\A_Dual1\Dual-core_Communication_Demo\Dual-core_Communication_Demo\SLAVE\obj/../Libraries/seekfree_peripheral/SEEKFREE_IPS114_SPI.c:379
	{
		ips114_showchar(x+(8*i),y*16,'0' + a[i]);
    2934:	fef44783          	lbu	a5,-17(s0)
    2938:	07c2                	slli	a5,a5,0x10
    293a:	83c1                	srli	a5,a5,0x10
    293c:	078e                	slli	a5,a5,0x3
    293e:	01079713          	slli	a4,a5,0x10
    2942:	8341                	srli	a4,a4,0x10
    2944:	fde45783          	lhu	a5,-34(s0)
    2948:	97ba                	add	a5,a5,a4
    294a:	01079713          	slli	a4,a5,0x10
    294e:	8341                	srli	a4,a4,0x10
    2950:	fdc45783          	lhu	a5,-36(s0)
    2954:	0792                	slli	a5,a5,0x4
    2956:	01079693          	slli	a3,a5,0x10
    295a:	82c1                	srli	a3,a3,0x10
    295c:	fef44783          	lbu	a5,-17(s0)
    2960:	ff040613          	addi	a2,s0,-16
    2964:	97b2                	add	a5,a5,a2
    2966:	ffc7c783          	lbu	a5,-4(a5)
    296a:	03078793          	addi	a5,a5,48
    296e:	0ff7f793          	andi	a5,a5,255
    2972:	07e2                	slli	a5,a5,0x18
    2974:	87e1                	srai	a5,a5,0x18
    2976:	863e                	mv	a2,a5
    2978:	85b6                	mv	a1,a3
    297a:	853a                	mv	a0,a4
    297c:	3d85                	jal	27ec <ips114_showchar>
C:\Users\windows\Desktop\A_Dual\A_Dual1\Dual-core_Communication_Demo\Dual-core_Communication_Demo\SLAVE\obj/../Libraries/seekfree_peripheral/SEEKFREE_IPS114_SPI.c:380
		i++;
    297e:	fef44783          	lbu	a5,-17(s0)
    2982:	0785                	addi	a5,a5,1
    2984:	fef407a3          	sb	a5,-17(s0)
C:\Users\windows\Desktop\A_Dual\A_Dual1\Dual-core_Communication_Demo\Dual-core_Communication_Demo\SLAVE\obj/../Libraries/seekfree_peripheral/SEEKFREE_IPS114_SPI.c:377
	while(i<3)
    2988:	fef44703          	lbu	a4,-17(s0)
    298c:	4789                	li	a5,2
    298e:	fae7f3e3          	bgeu	a5,a4,2934 <ips114_showuint8+0x66>
C:\Users\windows\Desktop\A_Dual\A_Dual1\Dual-core_Communication_Demo\Dual-core_Communication_Demo\SLAVE\obj/../Libraries/seekfree_peripheral/SEEKFREE_IPS114_SPI.c:383
	}
	
}
    2992:	0001                	nop
    2994:	50b2                	lw	ra,44(sp)
    2996:	5422                	lw	s0,40(sp)
    2998:	6145                	addi	sp,sp,48
    299a:	8082                	ret

0000299c <ips114_showint16>:
ips114_showint16():
C:\Users\windows\Desktop\A_Dual\A_Dual1\Dual-core_Communication_Demo\Dual-core_Communication_Demo\SLAVE\obj/../Libraries/seekfree_peripheral/SEEKFREE_IPS114_SPI.c:395
//  @return     void
//  @since      v1.0
//  Sample usage:               ips114_showint16(0,0,x);//xint16
//-------------------------------------------------------------------------------------------------------------------
void ips114_showint16(uint16 x,uint16 y,int16 dat)
{
    299c:	7179                	addi	sp,sp,-48
    299e:	d606                	sw	ra,44(sp)
    29a0:	d422                	sw	s0,40(sp)
    29a2:	1800                	addi	s0,sp,48
    29a4:	87aa                	mv	a5,a0
    29a6:	86ae                	mv	a3,a1
    29a8:	8732                	mv	a4,a2
    29aa:	fcf41f23          	sh	a5,-34(s0)
    29ae:	87b6                	mv	a5,a3
    29b0:	fcf41e23          	sh	a5,-36(s0)
    29b4:	87ba                	mv	a5,a4
    29b6:	fcf41d23          	sh	a5,-38(s0)
C:\Users\windows\Desktop\A_Dual\A_Dual1\Dual-core_Communication_Demo\Dual-core_Communication_Demo\SLAVE\obj/../Libraries/seekfree_peripheral/SEEKFREE_IPS114_SPI.c:398
	uint8 a[5];
	uint8 i;
	if(dat<0)
    29ba:	fda41783          	lh	a5,-38(s0)
    29be:	0207d863          	bgez	a5,29ee <ips114_showint16+0x52>
C:\Users\windows\Desktop\A_Dual\A_Dual1\Dual-core_Communication_Demo\Dual-core_Communication_Demo\SLAVE\obj/../Libraries/seekfree_peripheral/SEEKFREE_IPS114_SPI.c:400
	{
		ips114_showchar(x,y*16,'-');
    29c2:	fdc45783          	lhu	a5,-36(s0)
    29c6:	0792                	slli	a5,a5,0x4
    29c8:	01079713          	slli	a4,a5,0x10
    29cc:	8341                	srli	a4,a4,0x10
    29ce:	fde45783          	lhu	a5,-34(s0)
    29d2:	02d00613          	li	a2,45
    29d6:	85ba                	mv	a1,a4
    29d8:	853e                	mv	a0,a5
    29da:	3d09                	jal	27ec <ips114_showchar>
C:\Users\windows\Desktop\A_Dual\A_Dual1\Dual-core_Communication_Demo\Dual-core_Communication_Demo\SLAVE\obj/../Libraries/seekfree_peripheral/SEEKFREE_IPS114_SPI.c:401
		dat = -dat;
    29dc:	fda45783          	lhu	a5,-38(s0)
    29e0:	40f007b3          	neg	a5,a5
    29e4:	07c2                	slli	a5,a5,0x10
    29e6:	83c1                	srli	a5,a5,0x10
    29e8:	fcf41d23          	sh	a5,-38(s0)
    29ec:	a831                	j	2a08 <ips114_showint16+0x6c>
C:\Users\windows\Desktop\A_Dual\A_Dual1\Dual-core_Communication_Demo\Dual-core_Communication_Demo\SLAVE\obj/../Libraries/seekfree_peripheral/SEEKFREE_IPS114_SPI.c:403
	}
	else	ips114_showchar(x,y*16,' ');
    29ee:	fdc45783          	lhu	a5,-36(s0)
    29f2:	0792                	slli	a5,a5,0x4
    29f4:	01079713          	slli	a4,a5,0x10
    29f8:	8341                	srli	a4,a4,0x10
    29fa:	fde45783          	lhu	a5,-34(s0)
    29fe:	02000613          	li	a2,32
    2a02:	85ba                	mv	a1,a4
    2a04:	853e                	mv	a0,a5
    2a06:	33dd                	jal	27ec <ips114_showchar>
C:\Users\windows\Desktop\A_Dual\A_Dual1\Dual-core_Communication_Demo\Dual-core_Communication_Demo\SLAVE\obj/../Libraries/seekfree_peripheral/SEEKFREE_IPS114_SPI.c:405

	a[0] = dat/10000;
    2a08:	fda41703          	lh	a4,-38(s0)
    2a0c:	6789                	lui	a5,0x2
    2a0e:	71078793          	addi	a5,a5,1808 # 2710 <ips114_set_region+0x8>
    2a12:	02f747b3          	div	a5,a4,a5
    2a16:	07c2                	slli	a5,a5,0x10
    2a18:	87c1                	srai	a5,a5,0x10
    2a1a:	0ff7f793          	andi	a5,a5,255
    2a1e:	fef40423          	sb	a5,-24(s0)
C:\Users\windows\Desktop\A_Dual\A_Dual1\Dual-core_Communication_Demo\Dual-core_Communication_Demo\SLAVE\obj/../Libraries/seekfree_peripheral/SEEKFREE_IPS114_SPI.c:406
	a[1] = dat/1000%10;
    2a22:	fda41703          	lh	a4,-38(s0)
    2a26:	3e800793          	li	a5,1000
    2a2a:	02f747b3          	div	a5,a4,a5
    2a2e:	01079713          	slli	a4,a5,0x10
    2a32:	8741                	srai	a4,a4,0x10
    2a34:	47a9                	li	a5,10
    2a36:	02f767b3          	rem	a5,a4,a5
    2a3a:	07c2                	slli	a5,a5,0x10
    2a3c:	87c1                	srai	a5,a5,0x10
    2a3e:	0ff7f793          	andi	a5,a5,255
    2a42:	fef404a3          	sb	a5,-23(s0)
C:\Users\windows\Desktop\A_Dual\A_Dual1\Dual-core_Communication_Demo\Dual-core_Communication_Demo\SLAVE\obj/../Libraries/seekfree_peripheral/SEEKFREE_IPS114_SPI.c:407
	a[2] = dat/100%10;
    2a46:	fda41703          	lh	a4,-38(s0)
    2a4a:	06400793          	li	a5,100
    2a4e:	02f747b3          	div	a5,a4,a5
    2a52:	01079713          	slli	a4,a5,0x10
    2a56:	8741                	srai	a4,a4,0x10
    2a58:	47a9                	li	a5,10
    2a5a:	02f767b3          	rem	a5,a4,a5
    2a5e:	07c2                	slli	a5,a5,0x10
    2a60:	87c1                	srai	a5,a5,0x10
    2a62:	0ff7f793          	andi	a5,a5,255
    2a66:	fef40523          	sb	a5,-22(s0)
C:\Users\windows\Desktop\A_Dual\A_Dual1\Dual-core_Communication_Demo\Dual-core_Communication_Demo\SLAVE\obj/../Libraries/seekfree_peripheral/SEEKFREE_IPS114_SPI.c:408
	a[3] = dat/10%10;
    2a6a:	fda41703          	lh	a4,-38(s0)
    2a6e:	47a9                	li	a5,10
    2a70:	02f747b3          	div	a5,a4,a5
    2a74:	01079713          	slli	a4,a5,0x10
    2a78:	8741                	srai	a4,a4,0x10
    2a7a:	47a9                	li	a5,10
    2a7c:	02f767b3          	rem	a5,a4,a5
    2a80:	07c2                	slli	a5,a5,0x10
    2a82:	87c1                	srai	a5,a5,0x10
    2a84:	0ff7f793          	andi	a5,a5,255
    2a88:	fef405a3          	sb	a5,-21(s0)
C:\Users\windows\Desktop\A_Dual\A_Dual1\Dual-core_Communication_Demo\Dual-core_Communication_Demo\SLAVE\obj/../Libraries/seekfree_peripheral/SEEKFREE_IPS114_SPI.c:409
	a[4] = dat%10;
    2a8c:	fda41703          	lh	a4,-38(s0)
    2a90:	47a9                	li	a5,10
    2a92:	02f767b3          	rem	a5,a4,a5
    2a96:	07c2                	slli	a5,a5,0x10
    2a98:	87c1                	srai	a5,a5,0x10
    2a9a:	0ff7f793          	andi	a5,a5,255
    2a9e:	fef40623          	sb	a5,-20(s0)
C:\Users\windows\Desktop\A_Dual\A_Dual1\Dual-core_Communication_Demo\Dual-core_Communication_Demo\SLAVE\obj/../Libraries/seekfree_peripheral/SEEKFREE_IPS114_SPI.c:411
	
	i = 0;
    2aa2:	fe0407a3          	sb	zero,-17(s0)
C:\Users\windows\Desktop\A_Dual\A_Dual1\Dual-core_Communication_Demo\Dual-core_Communication_Demo\SLAVE\obj/../Libraries/seekfree_peripheral/SEEKFREE_IPS114_SPI.c:412
	while(i<5)
    2aa6:	a8a1                	j	2afe <ips114_showint16+0x162>
C:\Users\windows\Desktop\A_Dual\A_Dual1\Dual-core_Communication_Demo\Dual-core_Communication_Demo\SLAVE\obj/../Libraries/seekfree_peripheral/SEEKFREE_IPS114_SPI.c:414
	{
		ips114_showchar(x+(8*(i+1)),y*16,'0' + a[i]);
    2aa8:	fef44783          	lbu	a5,-17(s0)
    2aac:	0785                	addi	a5,a5,1
    2aae:	07c2                	slli	a5,a5,0x10
    2ab0:	83c1                	srli	a5,a5,0x10
    2ab2:	078e                	slli	a5,a5,0x3
    2ab4:	01079713          	slli	a4,a5,0x10
    2ab8:	8341                	srli	a4,a4,0x10
    2aba:	fde45783          	lhu	a5,-34(s0)
    2abe:	97ba                	add	a5,a5,a4
    2ac0:	01079713          	slli	a4,a5,0x10
    2ac4:	8341                	srli	a4,a4,0x10
    2ac6:	fdc45783          	lhu	a5,-36(s0)
    2aca:	0792                	slli	a5,a5,0x4
    2acc:	01079693          	slli	a3,a5,0x10
    2ad0:	82c1                	srli	a3,a3,0x10
    2ad2:	fef44783          	lbu	a5,-17(s0)
    2ad6:	ff040613          	addi	a2,s0,-16
    2ada:	97b2                	add	a5,a5,a2
    2adc:	ff87c783          	lbu	a5,-8(a5)
    2ae0:	03078793          	addi	a5,a5,48
    2ae4:	0ff7f793          	andi	a5,a5,255
    2ae8:	07e2                	slli	a5,a5,0x18
    2aea:	87e1                	srai	a5,a5,0x18
    2aec:	863e                	mv	a2,a5
    2aee:	85b6                	mv	a1,a3
    2af0:	853a                	mv	a0,a4
    2af2:	39ed                	jal	27ec <ips114_showchar>
C:\Users\windows\Desktop\A_Dual\A_Dual1\Dual-core_Communication_Demo\Dual-core_Communication_Demo\SLAVE\obj/../Libraries/seekfree_peripheral/SEEKFREE_IPS114_SPI.c:415
		i++;
    2af4:	fef44783          	lbu	a5,-17(s0)
    2af8:	0785                	addi	a5,a5,1
    2afa:	fef407a3          	sb	a5,-17(s0)
C:\Users\windows\Desktop\A_Dual\A_Dual1\Dual-core_Communication_Demo\Dual-core_Communication_Demo\SLAVE\obj/../Libraries/seekfree_peripheral/SEEKFREE_IPS114_SPI.c:412
	while(i<5)
    2afe:	fef44703          	lbu	a4,-17(s0)
    2b02:	4791                	li	a5,4
    2b04:	fae7f2e3          	bgeu	a5,a4,2aa8 <ips114_showint16+0x10c>
C:\Users\windows\Desktop\A_Dual\A_Dual1\Dual-core_Communication_Demo\Dual-core_Communication_Demo\SLAVE\obj/../Libraries/seekfree_peripheral/SEEKFREE_IPS114_SPI.c:417
	}
}
    2b08:	0001                	nop
    2b0a:	50b2                	lw	ra,44(sp)
    2b0c:	5422                	lw	s0,40(sp)
    2b0e:	6145                	addi	sp,sp,48
    2b10:	8082                	ret

00002b12 <ips114_displayimage032>:
ips114_displayimage032():
C:\Users\windows\Desktop\A_Dual\A_Dual1\Dual-core_Communication_Demo\Dual-core_Communication_Demo\SLAVE\obj/../Libraries/seekfree_peripheral/SEEKFREE_IPS114_SPI.c:544
//  @since      v1.0
//  Sample usage:               ips114_displayimage032(mt9v03x_csi_image[0], MT9V03X_CSI_W, MT9V03X_CSI_H)// 
//  @note       
//-------------------------------------------------------------------------------------------------------------------
void ips114_displayimage032(uint8 *p, uint16 width, uint16 height) 
{
    2b12:	7179                	addi	sp,sp,-48
    2b14:	d606                	sw	ra,44(sp)
    2b16:	d422                	sw	s0,40(sp)
    2b18:	1800                	addi	s0,sp,48
    2b1a:	fca42e23          	sw	a0,-36(s0)
    2b1e:	87ae                	mv	a5,a1
    2b20:	8732                	mv	a4,a2
    2b22:	fcf41d23          	sh	a5,-38(s0)
    2b26:	87ba                	mv	a5,a4
    2b28:	fcf41c23          	sh	a5,-40(s0)
C:\Users\windows\Desktop\A_Dual\A_Dual1\Dual-core_Communication_Demo\Dual-core_Communication_Demo\SLAVE\obj/../Libraries/seekfree_peripheral/SEEKFREE_IPS114_SPI.c:547
    uint32 i,j;
                
    uint16 color = 0;
    2b2c:	fe041323          	sh	zero,-26(s0)
C:\Users\windows\Desktop\A_Dual\A_Dual1\Dual-core_Communication_Demo\Dual-core_Communication_Demo\SLAVE\obj/../Libraries/seekfree_peripheral/SEEKFREE_IPS114_SPI.c:548
	uint16 temp = 0;
    2b30:	fe041223          	sh	zero,-28(s0)
C:\Users\windows\Desktop\A_Dual\A_Dual1\Dual-core_Communication_Demo\Dual-core_Communication_Demo\SLAVE\obj/../Libraries/seekfree_peripheral/SEEKFREE_IPS114_SPI.c:550
	
    uint16 coord_x = 0;
    2b34:	fe041123          	sh	zero,-30(s0)
C:\Users\windows\Desktop\A_Dual\A_Dual1\Dual-core_Communication_Demo\Dual-core_Communication_Demo\SLAVE\obj/../Libraries/seekfree_peripheral/SEEKFREE_IPS114_SPI.c:551
    uint16 coord_y = 0;
    2b38:	fe041023          	sh	zero,-32(s0)
C:\Users\windows\Desktop\A_Dual\A_Dual1\Dual-core_Communication_Demo\Dual-core_Communication_Demo\SLAVE\obj/../Libraries/seekfree_peripheral/SEEKFREE_IPS114_SPI.c:553
    
    coord_x = width>IPS114_X_MAX?IPS114_X_MAX:width;
    2b3c:	fda45783          	lhu	a5,-38(s0)
    2b40:	01079693          	slli	a3,a5,0x10
    2b44:	82c1                	srli	a3,a3,0x10
    2b46:	0f000713          	li	a4,240
    2b4a:	00d77463          	bgeu	a4,a3,2b52 <ips114_displayimage032+0x40>
    2b4e:	0f000793          	li	a5,240
    2b52:	fef41123          	sh	a5,-30(s0)
C:\Users\windows\Desktop\A_Dual\A_Dual1\Dual-core_Communication_Demo\Dual-core_Communication_Demo\SLAVE\obj/../Libraries/seekfree_peripheral/SEEKFREE_IPS114_SPI.c:554
    coord_y = height>IPS114_Y_MAX?IPS114_Y_MAX:height;
    2b56:	fd845783          	lhu	a5,-40(s0)
    2b5a:	01079693          	slli	a3,a5,0x10
    2b5e:	82c1                	srli	a3,a3,0x10
    2b60:	08700713          	li	a4,135
    2b64:	00d77463          	bgeu	a4,a3,2b6c <ips114_displayimage032+0x5a>
    2b68:	08700793          	li	a5,135
    2b6c:	fef41023          	sh	a5,-32(s0)
C:\Users\windows\Desktop\A_Dual\A_Dual1\Dual-core_Communication_Demo\Dual-core_Communication_Demo\SLAVE\obj/../Libraries/seekfree_peripheral/SEEKFREE_IPS114_SPI.c:555
    ips114_set_region(0,0,coord_x-1,coord_y-1);
    2b70:	fe245783          	lhu	a5,-30(s0)
    2b74:	17fd                	addi	a5,a5,-1
    2b76:	01079713          	slli	a4,a5,0x10
    2b7a:	8341                	srli	a4,a4,0x10
    2b7c:	fe045783          	lhu	a5,-32(s0)
    2b80:	17fd                	addi	a5,a5,-1
    2b82:	07c2                	slli	a5,a5,0x10
    2b84:	83c1                	srli	a5,a5,0x10
    2b86:	86be                	mv	a3,a5
    2b88:	863a                	mv	a2,a4
    2b8a:	4581                	li	a1,0
    2b8c:	4501                	li	a0,0
    2b8e:	b7bff0ef          	jal	ra,2708 <ips114_set_region>
C:\Users\windows\Desktop\A_Dual\A_Dual1\Dual-core_Communication_Demo\Dual-core_Communication_Demo\SLAVE\obj/../Libraries/seekfree_peripheral/SEEKFREE_IPS114_SPI.c:557
    
    for(j=0;j<coord_y;j++)
    2b92:	fe042423          	sw	zero,-24(s0)
    2b96:	a85d                	j	2c4c <ips114_displayimage032+0x13a>
C:\Users\windows\Desktop\A_Dual\A_Dual1\Dual-core_Communication_Demo\Dual-core_Communication_Demo\SLAVE\obj/../Libraries/seekfree_peripheral/SEEKFREE_IPS114_SPI.c:559
    {
        for(i=0;i<coord_x;i++)
    2b98:	fe042623          	sw	zero,-20(s0)
    2b9c:	a869                	j	2c36 <ips114_displayimage032+0x124>
C:\Users\windows\Desktop\A_Dual\A_Dual1\Dual-core_Communication_Demo\Dual-core_Communication_Demo\SLAVE\obj/../Libraries/seekfree_peripheral/SEEKFREE_IPS114_SPI.c:561 (discriminator 3)
        {
            temp = *(p+j*width+i*width/coord_x);//
    2b9e:	fda45703          	lhu	a4,-38(s0)
    2ba2:	fe842783          	lw	a5,-24(s0)
    2ba6:	02f70733          	mul	a4,a4,a5
    2baa:	fda45683          	lhu	a3,-38(s0)
    2bae:	fec42783          	lw	a5,-20(s0)
    2bb2:	02f686b3          	mul	a3,a3,a5
    2bb6:	fe245783          	lhu	a5,-30(s0)
    2bba:	02f6d7b3          	divu	a5,a3,a5
    2bbe:	97ba                	add	a5,a5,a4
    2bc0:	fdc42703          	lw	a4,-36(s0)
    2bc4:	97ba                	add	a5,a5,a4
    2bc6:	0007c783          	lbu	a5,0(a5)
    2bca:	fef41223          	sh	a5,-28(s0)
C:\Users\windows\Desktop\A_Dual\A_Dual1\Dual-core_Communication_Demo\Dual-core_Communication_Demo\SLAVE\obj/../Libraries/seekfree_peripheral/SEEKFREE_IPS114_SPI.c:562 (discriminator 3)
            color=(0x001f&((temp)>>3))<<11;
    2bce:	fe445783          	lhu	a5,-28(s0)
    2bd2:	838d                	srli	a5,a5,0x3
    2bd4:	07c2                	slli	a5,a5,0x10
    2bd6:	83c1                	srli	a5,a5,0x10
    2bd8:	07ae                	slli	a5,a5,0xb
    2bda:	fef41323          	sh	a5,-26(s0)
C:\Users\windows\Desktop\A_Dual\A_Dual1\Dual-core_Communication_Demo\Dual-core_Communication_Demo\SLAVE\obj/../Libraries/seekfree_peripheral/SEEKFREE_IPS114_SPI.c:563 (discriminator 3)
            color=color|(((0x003f)&((temp)>>2))<<5);
    2bde:	fe445783          	lhu	a5,-28(s0)
    2be2:	8389                	srli	a5,a5,0x2
    2be4:	07c2                	slli	a5,a5,0x10
    2be6:	83c1                	srli	a5,a5,0x10
    2be8:	0796                	slli	a5,a5,0x5
    2bea:	07c2                	slli	a5,a5,0x10
    2bec:	87c1                	srai	a5,a5,0x10
    2bee:	7e07f793          	andi	a5,a5,2016
    2bf2:	01079713          	slli	a4,a5,0x10
    2bf6:	8741                	srai	a4,a4,0x10
    2bf8:	fe641783          	lh	a5,-26(s0)
    2bfc:	8fd9                	or	a5,a5,a4
    2bfe:	07c2                	slli	a5,a5,0x10
    2c00:	87c1                	srai	a5,a5,0x10
    2c02:	fef41323          	sh	a5,-26(s0)
C:\Users\windows\Desktop\A_Dual\A_Dual1\Dual-core_Communication_Demo\Dual-core_Communication_Demo\SLAVE\obj/../Libraries/seekfree_peripheral/SEEKFREE_IPS114_SPI.c:564 (discriminator 3)
            color=color|(0x001f&((temp)>>3));
    2c06:	fe445783          	lhu	a5,-28(s0)
    2c0a:	838d                	srli	a5,a5,0x3
    2c0c:	07c2                	slli	a5,a5,0x10
    2c0e:	83c1                	srli	a5,a5,0x10
    2c10:	8bfd                	andi	a5,a5,31
    2c12:	01079713          	slli	a4,a5,0x10
    2c16:	8341                	srli	a4,a4,0x10
    2c18:	fe645783          	lhu	a5,-26(s0)
    2c1c:	8fd9                	or	a5,a5,a4
    2c1e:	fef41323          	sh	a5,-26(s0)
C:\Users\windows\Desktop\A_Dual\A_Dual1\Dual-core_Communication_Demo\Dual-core_Communication_Demo\SLAVE\obj/../Libraries/seekfree_peripheral/SEEKFREE_IPS114_SPI.c:565 (discriminator 3)
            ips114_writedata_16bit(color); 
    2c22:	fe645783          	lhu	a5,-26(s0)
    2c26:	853e                	mv	a0,a5
    2c28:	811ff0ef          	jal	ra,2438 <ips114_writedata_16bit>
C:\Users\windows\Desktop\A_Dual\A_Dual1\Dual-core_Communication_Demo\Dual-core_Communication_Demo\SLAVE\obj/../Libraries/seekfree_peripheral/SEEKFREE_IPS114_SPI.c:559 (discriminator 3)
        for(i=0;i<coord_x;i++)
    2c2c:	fec42783          	lw	a5,-20(s0)
    2c30:	0785                	addi	a5,a5,1
    2c32:	fef42623          	sw	a5,-20(s0)
C:\Users\windows\Desktop\A_Dual\A_Dual1\Dual-core_Communication_Demo\Dual-core_Communication_Demo\SLAVE\obj/../Libraries/seekfree_peripheral/SEEKFREE_IPS114_SPI.c:559 (discriminator 1)
    2c36:	fe245783          	lhu	a5,-30(s0)
    2c3a:	fec42703          	lw	a4,-20(s0)
    2c3e:	f6f760e3          	bltu	a4,a5,2b9e <ips114_displayimage032+0x8c>
C:\Users\windows\Desktop\A_Dual\A_Dual1\Dual-core_Communication_Demo\Dual-core_Communication_Demo\SLAVE\obj/../Libraries/seekfree_peripheral/SEEKFREE_IPS114_SPI.c:557 (discriminator 2)
    for(j=0;j<coord_y;j++)
    2c42:	fe842783          	lw	a5,-24(s0)
    2c46:	0785                	addi	a5,a5,1
    2c48:	fef42423          	sw	a5,-24(s0)
C:\Users\windows\Desktop\A_Dual\A_Dual1\Dual-core_Communication_Demo\Dual-core_Communication_Demo\SLAVE\obj/../Libraries/seekfree_peripheral/SEEKFREE_IPS114_SPI.c:557 (discriminator 1)
    2c4c:	fe045783          	lhu	a5,-32(s0)
    2c50:	fe842703          	lw	a4,-24(s0)
    2c54:	f4f762e3          	bltu	a4,a5,2b98 <ips114_displayimage032+0x86>
C:\Users\windows\Desktop\A_Dual\A_Dual1\Dual-core_Communication_Demo\Dual-core_Communication_Demo\SLAVE\obj/../Libraries/seekfree_peripheral/SEEKFREE_IPS114_SPI.c:568
        }
    }
}
    2c58:	0001                	nop
    2c5a:	50b2                	lw	ra,44(sp)
    2c5c:	5422                	lw	s0,40(sp)
    2c5e:	6145                	addi	sp,sp,48
    2c60:	8082                	ret

00002c62 <mt9v03x_uart_callback>:
mt9v03x_uart_callback():
C:\Users\windows\Desktop\A_Dual\A_Dual1\Dual-core_Communication_Demo\Dual-core_Communication_Demo\SLAVE\obj/../Libraries/seekfree_peripheral/SEEKFREE_MT9V03X.c:90
//  @since      v1.0
//  Sample usage:
//  @note       
//-------------------------------------------------------------------------------------------------------------------
void mt9v03x_uart_callback(void)
{
    2c62:	1141                	addi	sp,sp,-16
    2c64:	c622                	sw	s0,12(sp)
    2c66:	0800                	addi	s0,sp,16
C:\Users\windows\Desktop\A_Dual\A_Dual1\Dual-core_Communication_Demo\Dual-core_Communication_Demo\SLAVE\obj/../Libraries/seekfree_peripheral/SEEKFREE_MT9V03X.c:91
    receive[receive_num] = ((USART_TypeDef*)UARTN[MT9V03X_COF_UART])->DATAR & 0x01FF;;
    2c68:	6799                	lui	a5,0x6
    2c6a:	1ec78793          	addi	a5,a5,492 # 61ec <UARTN>
    2c6e:	43dc                	lw	a5,4(a5)
    2c70:	0047d783          	lhu	a5,4(a5)
    2c74:	01079713          	slli	a4,a5,0x10
    2c78:	8341                	srli	a4,a4,0x10
    2c7a:	82b1c783          	lbu	a5,-2005(gp) # 20000143 <receive_num>
    2c7e:	86be                	mv	a3,a5
    2c80:	0ff77713          	andi	a4,a4,255
    2c84:	82818793          	addi	a5,gp,-2008 # 20000140 <receive>
    2c88:	97b6                	add	a5,a5,a3
    2c8a:	00e78023          	sb	a4,0(a5)
C:\Users\windows\Desktop\A_Dual\A_Dual1\Dual-core_Communication_Demo\Dual-core_Communication_Demo\SLAVE\obj/../Libraries/seekfree_peripheral/SEEKFREE_MT9V03X.c:92
    receive_num++;
    2c8e:	82b1c783          	lbu	a5,-2005(gp) # 20000143 <receive_num>
    2c92:	0785                	addi	a5,a5,1
    2c94:	0ff7f713          	andi	a4,a5,255
    2c98:	82e185a3          	sb	a4,-2005(gp) # 20000143 <receive_num>
C:\Users\windows\Desktop\A_Dual\A_Dual1\Dual-core_Communication_Demo\Dual-core_Communication_Demo\SLAVE\obj/../Libraries/seekfree_peripheral/SEEKFREE_MT9V03X.c:94

    if(1==receive_num && 0XA5!=receive[0])  receive_num = 0;
    2c9c:	82b1c703          	lbu	a4,-2005(gp) # 20000143 <receive_num>
    2ca0:	4785                	li	a5,1
    2ca2:	00f71a63          	bne	a4,a5,2cb6 <mt9v03x_uart_callback+0x54>
C:\Users\windows\Desktop\A_Dual\A_Dual1\Dual-core_Communication_Demo\Dual-core_Communication_Demo\SLAVE\obj/../Libraries/seekfree_peripheral/SEEKFREE_MT9V03X.c:94 (discriminator 1)
    2ca6:	8281c703          	lbu	a4,-2008(gp) # 20000140 <receive>
    2caa:	0a500793          	li	a5,165
    2cae:	00f70463          	beq	a4,a5,2cb6 <mt9v03x_uart_callback+0x54>
C:\Users\windows\Desktop\A_Dual\A_Dual1\Dual-core_Communication_Demo\Dual-core_Communication_Demo\SLAVE\obj/../Libraries/seekfree_peripheral/SEEKFREE_MT9V03X.c:94 (discriminator 2)
    2cb2:	820185a3          	sb	zero,-2005(gp) # 20000143 <receive_num>
C:\Users\windows\Desktop\A_Dual\A_Dual1\Dual-core_Communication_Demo\Dual-core_Communication_Demo\SLAVE\obj/../Libraries/seekfree_peripheral/SEEKFREE_MT9V03X.c:95
    if(3 == receive_num)
    2cb6:	82b1c703          	lbu	a4,-2005(gp) # 20000143 <receive_num>
    2cba:	478d                	li	a5,3
    2cbc:	00f71763          	bne	a4,a5,2cca <mt9v03x_uart_callback+0x68>
C:\Users\windows\Desktop\A_Dual\A_Dual1\Dual-core_Communication_Demo\Dual-core_Communication_Demo\SLAVE\obj/../Libraries/seekfree_peripheral/SEEKFREE_MT9V03X.c:97
    {
        receive_num = 0;
    2cc0:	820185a3          	sb	zero,-2005(gp) # 20000143 <receive_num>
C:\Users\windows\Desktop\A_Dual\A_Dual1\Dual-core_Communication_Demo\Dual-core_Communication_Demo\SLAVE\obj/../Libraries/seekfree_peripheral/SEEKFREE_MT9V03X.c:98
        uart_receive_flag = 1;
    2cc4:	4705                	li	a4,1
    2cc6:	82e18623          	sb	a4,-2004(gp) # 20000144 <uart_receive_flag>
C:\Users\windows\Desktop\A_Dual\A_Dual1\Dual-core_Communication_Demo\Dual-core_Communication_Demo\SLAVE\obj/../Libraries/seekfree_peripheral/SEEKFREE_MT9V03X.c:101
    }
    
}
    2cca:	0001                	nop
    2ccc:	4432                	lw	s0,12(sp)
    2cce:	0141                	addi	sp,sp,16
    2cd0:	8082                	ret

00002cd2 <set_config>:
set_config():
C:\Users\windows\Desktop\A_Dual\A_Dual1\Dual-core_Communication_Demo\Dual-core_Communication_Demo\SLAVE\obj/../Libraries/seekfree_peripheral/SEEKFREE_MT9V03X.c:114
//  @return     void
//  @since      v1.0
//  Sample usage:           
//-------------------------------------------------------------------------------------------------------------------
void set_config(UARTN_enum uartn, int16 buff[CONFIG_FINISH-1][2])
{
    2cd2:	7179                	addi	sp,sp,-48
    2cd4:	d606                	sw	ra,44(sp)
    2cd6:	d422                	sw	s0,40(sp)
    2cd8:	d24a                	sw	s2,36(sp)
    2cda:	d04e                	sw	s3,32(sp)
    2cdc:	1800                	addi	s0,sp,48
    2cde:	fca42e23          	sw	a0,-36(s0)
    2ce2:	fcb42c23          	sw	a1,-40(s0)
C:\Users\windows\Desktop\A_Dual\A_Dual1\Dual-core_Communication_Demo\Dual-core_Communication_Demo\SLAVE\obj/../Libraries/seekfree_peripheral/SEEKFREE_MT9V03X.c:118
    uint16 temp, i;
    uint8  send_buffer[4];

    uart_receive_flag = 0;
    2ce6:	82018623          	sb	zero,-2004(gp) # 20000144 <uart_receive_flag>
C:\Users\windows\Desktop\A_Dual\A_Dual1\Dual-core_Communication_Demo\Dual-core_Communication_Demo\SLAVE\obj/../Libraries/seekfree_peripheral/SEEKFREE_MT9V03X.c:122
    
    //  
    //
    for(i=0; i<CONFIG_FINISH; i++)
    2cea:	fe041723          	sh	zero,-18(s0)
    2cee:	a069                	j	2d78 <set_config+0xa6>
C:\Users\windows\Desktop\A_Dual\A_Dual1\Dual-core_Communication_Demo\Dual-core_Communication_Demo\SLAVE\obj/../Libraries/seekfree_peripheral/SEEKFREE_MT9V03X.c:124 (discriminator 3)
    {
        send_buffer[0] = 0xA5;
    2cf0:	fa500793          	li	a5,-91
    2cf4:	fef40423          	sb	a5,-24(s0)
C:\Users\windows\Desktop\A_Dual\A_Dual1\Dual-core_Communication_Demo\Dual-core_Communication_Demo\SLAVE\obj/../Libraries/seekfree_peripheral/SEEKFREE_MT9V03X.c:125 (discriminator 3)
        send_buffer[1] = buff[i][0];
    2cf8:	fee45783          	lhu	a5,-18(s0)
    2cfc:	078a                	slli	a5,a5,0x2
    2cfe:	fd842703          	lw	a4,-40(s0)
    2d02:	97ba                	add	a5,a5,a4
    2d04:	00079783          	lh	a5,0(a5)
    2d08:	0ff7f793          	andi	a5,a5,255
    2d0c:	fef404a3          	sb	a5,-23(s0)
C:\Users\windows\Desktop\A_Dual\A_Dual1\Dual-core_Communication_Demo\Dual-core_Communication_Demo\SLAVE\obj/../Libraries/seekfree_peripheral/SEEKFREE_MT9V03X.c:126 (discriminator 3)
        temp = buff[i][1];
    2d10:	fee45783          	lhu	a5,-18(s0)
    2d14:	078a                	slli	a5,a5,0x2
    2d16:	fd842703          	lw	a4,-40(s0)
    2d1a:	97ba                	add	a5,a5,a4
    2d1c:	00279783          	lh	a5,2(a5)
    2d20:	fef41623          	sh	a5,-20(s0)
C:\Users\windows\Desktop\A_Dual\A_Dual1\Dual-core_Communication_Demo\Dual-core_Communication_Demo\SLAVE\obj/../Libraries/seekfree_peripheral/SEEKFREE_MT9V03X.c:127 (discriminator 3)
        send_buffer[2] = temp>>8;
    2d24:	fec45783          	lhu	a5,-20(s0)
    2d28:	83a1                	srli	a5,a5,0x8
    2d2a:	07c2                	slli	a5,a5,0x10
    2d2c:	83c1                	srli	a5,a5,0x10
    2d2e:	0ff7f793          	andi	a5,a5,255
    2d32:	fef40523          	sb	a5,-22(s0)
C:\Users\windows\Desktop\A_Dual\A_Dual1\Dual-core_Communication_Demo\Dual-core_Communication_Demo\SLAVE\obj/../Libraries/seekfree_peripheral/SEEKFREE_MT9V03X.c:128 (discriminator 3)
        send_buffer[3] = (uint8)temp;
    2d36:	fec45783          	lhu	a5,-20(s0)
    2d3a:	0ff7f793          	andi	a5,a5,255
    2d3e:	fef405a3          	sb	a5,-21(s0)
C:\Users\windows\Desktop\A_Dual\A_Dual1\Dual-core_Communication_Demo\Dual-core_Communication_Demo\SLAVE\obj/../Libraries/seekfree_peripheral/SEEKFREE_MT9V03X.c:130 (discriminator 3)
        
        uart_putbuff(uartn,send_buffer,4);
    2d42:	fe840793          	addi	a5,s0,-24
    2d46:	4611                	li	a2,4
    2d48:	85be                	mv	a1,a5
    2d4a:	fdc42503          	lw	a0,-36(s0)
    2d4e:	4ec010ef          	jal	ra,423a <uart_putbuff>
C:\Users\windows\Desktop\A_Dual\A_Dual1\Dual-core_Communication_Demo\Dual-core_Communication_Demo\SLAVE\obj/../Libraries/seekfree_peripheral/SEEKFREE_MT9V03X.c:131 (discriminator 3)
        systick_delay_ms(2);
    2d52:	8381a703          	lw	a4,-1992(gp) # 20000150 <sys_clk>
    2d56:	6789                	lui	a5,0x2
    2d58:	f4078793          	addi	a5,a5,-192 # 1f40 <USART_Init+0xc8>
    2d5c:	02f757b3          	divu	a5,a4,a5
    2d60:	0786                	slli	a5,a5,0x1
    2d62:	893e                	mv	s2,a5
    2d64:	4981                	li	s3,0
    2d66:	854a                	mv	a0,s2
    2d68:	85ce                	mv	a1,s3
    2d6a:	1f6010ef          	jal	ra,3f60 <systick_delay>
C:\Users\windows\Desktop\A_Dual\A_Dual1\Dual-core_Communication_Demo\Dual-core_Communication_Demo\SLAVE\obj/../Libraries/seekfree_peripheral/SEEKFREE_MT9V03X.c:122 (discriminator 3)
    for(i=0; i<CONFIG_FINISH; i++)
    2d6e:	fee45783          	lhu	a5,-18(s0)
    2d72:	0785                	addi	a5,a5,1
    2d74:	fef41723          	sh	a5,-18(s0)
C:\Users\windows\Desktop\A_Dual\A_Dual1\Dual-core_Communication_Demo\Dual-core_Communication_Demo\SLAVE\obj/../Libraries/seekfree_peripheral/SEEKFREE_MT9V03X.c:122 (discriminator 1)
    2d78:	fee45703          	lhu	a4,-18(s0)
    2d7c:	47a1                	li	a5,8
    2d7e:	f6e7f9e3          	bgeu	a5,a4,2cf0 <set_config+0x1e>
C:\Users\windows\Desktop\A_Dual\A_Dual1\Dual-core_Communication_Demo\Dual-core_Communication_Demo\SLAVE\obj/../Libraries/seekfree_peripheral/SEEKFREE_MT9V03X.c:134
    }
    //
    while(!uart_receive_flag);
    2d82:	0001                	nop
C:\Users\windows\Desktop\A_Dual\A_Dual1\Dual-core_Communication_Demo\Dual-core_Communication_Demo\SLAVE\obj/../Libraries/seekfree_peripheral/SEEKFREE_MT9V03X.c:134 (discriminator 1)
    2d84:	82c1c783          	lbu	a5,-2004(gp) # 20000144 <uart_receive_flag>
    2d88:	0ff7f793          	andi	a5,a5,255
    2d8c:	dfe5                	beqz	a5,2d84 <set_config+0xb2>
C:\Users\windows\Desktop\A_Dual\A_Dual1\Dual-core_Communication_Demo\Dual-core_Communication_Demo\SLAVE\obj/../Libraries/seekfree_peripheral/SEEKFREE_MT9V03X.c:135
    uart_receive_flag = 0;
    2d8e:	82018623          	sb	zero,-2004(gp) # 20000144 <uart_receive_flag>
C:\Users\windows\Desktop\A_Dual\A_Dual1\Dual-core_Communication_Demo\Dual-core_Communication_Demo\SLAVE\obj/../Libraries/seekfree_peripheral/SEEKFREE_MT9V03X.c:136
    while((0xff != receive[1]) || (0xff != receive[2]));
    2d92:	0001                	nop
C:\Users\windows\Desktop\A_Dual\A_Dual1\Dual-core_Communication_Demo\Dual-core_Communication_Demo\SLAVE\obj/../Libraries/seekfree_peripheral/SEEKFREE_MT9V03X.c:136 (discriminator 3)
    2d94:	82818793          	addi	a5,gp,-2008 # 20000140 <receive>
    2d98:	0017c703          	lbu	a4,1(a5)
    2d9c:	0ff00793          	li	a5,255
    2da0:	fef71ae3          	bne	a4,a5,2d94 <set_config+0xc2>
C:\Users\windows\Desktop\A_Dual\A_Dual1\Dual-core_Communication_Demo\Dual-core_Communication_Demo\SLAVE\obj/../Libraries/seekfree_peripheral/SEEKFREE_MT9V03X.c:136 (discriminator 2)
    2da4:	82818793          	addi	a5,gp,-2008 # 20000140 <receive>
    2da8:	0027c703          	lbu	a4,2(a5)
    2dac:	0ff00793          	li	a5,255
    2db0:	fef712e3          	bne	a4,a5,2d94 <set_config+0xc2>
C:\Users\windows\Desktop\A_Dual\A_Dual1\Dual-core_Communication_Demo\Dual-core_Communication_Demo\SLAVE\obj/../Libraries/seekfree_peripheral/SEEKFREE_MT9V03X.c:139
    //51eeprom
    //set_exposure_timeeeprom
}
    2db4:	0001                	nop
    2db6:	50b2                	lw	ra,44(sp)
    2db8:	5422                	lw	s0,40(sp)
    2dba:	5912                	lw	s2,36(sp)
    2dbc:	5982                	lw	s3,32(sp)
    2dbe:	6145                	addi	sp,sp,48
    2dc0:	8082                	ret

00002dc2 <get_config>:
get_config():
C:\Users\windows\Desktop\A_Dual\A_Dual1\Dual-core_Communication_Demo\Dual-core_Communication_Demo\SLAVE\obj/../Libraries/seekfree_peripheral/SEEKFREE_MT9V03X.c:151
//  @return     void
//  @since      v1.0
//  Sample usage:           
//-------------------------------------------------------------------------------------------------------------------
void get_config(UARTN_enum uartn, int16 buff[CONFIG_FINISH-1][2])
{
    2dc2:	7179                	addi	sp,sp,-48
    2dc4:	d606                	sw	ra,44(sp)
    2dc6:	d422                	sw	s0,40(sp)
    2dc8:	1800                	addi	s0,sp,48
    2dca:	fca42e23          	sw	a0,-36(s0)
    2dce:	fcb42c23          	sw	a1,-40(s0)
C:\Users\windows\Desktop\A_Dual\A_Dual1\Dual-core_Communication_Demo\Dual-core_Communication_Demo\SLAVE\obj/../Libraries/seekfree_peripheral/SEEKFREE_MT9V03X.c:155
    uint16 temp, i;
    uint8  send_buffer[4];
    
    for(i=0; i<CONFIG_FINISH-1; i++)
    2dd2:	fe041723          	sh	zero,-18(s0)
    2dd6:	a045                	j	2e76 <get_config+0xb4>
C:\Users\windows\Desktop\A_Dual\A_Dual1\Dual-core_Communication_Demo\Dual-core_Communication_Demo\SLAVE\obj/../Libraries/seekfree_peripheral/SEEKFREE_MT9V03X.c:157
    {
        send_buffer[0] = 0xA5;
    2dd8:	fa500793          	li	a5,-91
    2ddc:	fef40423          	sb	a5,-24(s0)
C:\Users\windows\Desktop\A_Dual\A_Dual1\Dual-core_Communication_Demo\Dual-core_Communication_Demo\SLAVE\obj/../Libraries/seekfree_peripheral/SEEKFREE_MT9V03X.c:158
        send_buffer[1] = GET_STATUS;
    2de0:	57c5                	li	a5,-15
    2de2:	fef404a3          	sb	a5,-23(s0)
C:\Users\windows\Desktop\A_Dual\A_Dual1\Dual-core_Communication_Demo\Dual-core_Communication_Demo\SLAVE\obj/../Libraries/seekfree_peripheral/SEEKFREE_MT9V03X.c:159
        temp = buff[i][0];
    2de6:	fee45783          	lhu	a5,-18(s0)
    2dea:	078a                	slli	a5,a5,0x2
    2dec:	fd842703          	lw	a4,-40(s0)
    2df0:	97ba                	add	a5,a5,a4
    2df2:	00079783          	lh	a5,0(a5)
    2df6:	fef41623          	sh	a5,-20(s0)
C:\Users\windows\Desktop\A_Dual\A_Dual1\Dual-core_Communication_Demo\Dual-core_Communication_Demo\SLAVE\obj/../Libraries/seekfree_peripheral/SEEKFREE_MT9V03X.c:160
        send_buffer[2] = temp>>8;
    2dfa:	fec45783          	lhu	a5,-20(s0)
    2dfe:	83a1                	srli	a5,a5,0x8
    2e00:	07c2                	slli	a5,a5,0x10
    2e02:	83c1                	srli	a5,a5,0x10
    2e04:	0ff7f793          	andi	a5,a5,255
    2e08:	fef40523          	sb	a5,-22(s0)
C:\Users\windows\Desktop\A_Dual\A_Dual1\Dual-core_Communication_Demo\Dual-core_Communication_Demo\SLAVE\obj/../Libraries/seekfree_peripheral/SEEKFREE_MT9V03X.c:161
        send_buffer[3] = (uint8)temp;
    2e0c:	fec45783          	lhu	a5,-20(s0)
    2e10:	0ff7f793          	andi	a5,a5,255
    2e14:	fef405a3          	sb	a5,-21(s0)
C:\Users\windows\Desktop\A_Dual\A_Dual1\Dual-core_Communication_Demo\Dual-core_Communication_Demo\SLAVE\obj/../Libraries/seekfree_peripheral/SEEKFREE_MT9V03X.c:163
        
        uart_putbuff(uartn,send_buffer,4);
    2e18:	fe840793          	addi	a5,s0,-24
    2e1c:	4611                	li	a2,4
    2e1e:	85be                	mv	a1,a5
    2e20:	fdc42503          	lw	a0,-36(s0)
    2e24:	416010ef          	jal	ra,423a <uart_putbuff>
C:\Users\windows\Desktop\A_Dual\A_Dual1\Dual-core_Communication_Demo\Dual-core_Communication_Demo\SLAVE\obj/../Libraries/seekfree_peripheral/SEEKFREE_MT9V03X.c:166
        
        //
        while(!uart_receive_flag);
    2e28:	0001                	nop
C:\Users\windows\Desktop\A_Dual\A_Dual1\Dual-core_Communication_Demo\Dual-core_Communication_Demo\SLAVE\obj/../Libraries/seekfree_peripheral/SEEKFREE_MT9V03X.c:166 (discriminator 1)
    2e2a:	82c1c783          	lbu	a5,-2004(gp) # 20000144 <uart_receive_flag>
    2e2e:	0ff7f793          	andi	a5,a5,255
    2e32:	dfe5                	beqz	a5,2e2a <get_config+0x68>
C:\Users\windows\Desktop\A_Dual\A_Dual1\Dual-core_Communication_Demo\Dual-core_Communication_Demo\SLAVE\obj/../Libraries/seekfree_peripheral/SEEKFREE_MT9V03X.c:167 (discriminator 2)
        uart_receive_flag = 0;
    2e34:	82018623          	sb	zero,-2004(gp) # 20000144 <uart_receive_flag>
C:\Users\windows\Desktop\A_Dual\A_Dual1\Dual-core_Communication_Demo\Dual-core_Communication_Demo\SLAVE\obj/../Libraries/seekfree_peripheral/SEEKFREE_MT9V03X.c:169 (discriminator 2)
        
        buff[i][1] = receive[1]<<8 | receive[2];
    2e38:	82818793          	addi	a5,gp,-2008 # 20000140 <receive>
    2e3c:	0017c783          	lbu	a5,1(a5)
    2e40:	07a2                	slli	a5,a5,0x8
    2e42:	01079693          	slli	a3,a5,0x10
    2e46:	86c1                	srai	a3,a3,0x10
    2e48:	82818793          	addi	a5,gp,-2008 # 20000140 <receive>
    2e4c:	0027c783          	lbu	a5,2(a5)
    2e50:	01079713          	slli	a4,a5,0x10
    2e54:	8741                	srai	a4,a4,0x10
    2e56:	fee45783          	lhu	a5,-18(s0)
    2e5a:	078a                	slli	a5,a5,0x2
    2e5c:	fd842603          	lw	a2,-40(s0)
    2e60:	97b2                	add	a5,a5,a2
    2e62:	8f55                	or	a4,a4,a3
    2e64:	0742                	slli	a4,a4,0x10
    2e66:	8741                	srai	a4,a4,0x10
    2e68:	00e79123          	sh	a4,2(a5)
C:\Users\windows\Desktop\A_Dual\A_Dual1\Dual-core_Communication_Demo\Dual-core_Communication_Demo\SLAVE\obj/../Libraries/seekfree_peripheral/SEEKFREE_MT9V03X.c:155 (discriminator 2)
    for(i=0; i<CONFIG_FINISH-1; i++)
    2e6c:	fee45783          	lhu	a5,-18(s0)
    2e70:	0785                	addi	a5,a5,1
    2e72:	fef41723          	sh	a5,-18(s0)
C:\Users\windows\Desktop\A_Dual\A_Dual1\Dual-core_Communication_Demo\Dual-core_Communication_Demo\SLAVE\obj/../Libraries/seekfree_peripheral/SEEKFREE_MT9V03X.c:155 (discriminator 1)
    2e76:	fee45703          	lhu	a4,-18(s0)
    2e7a:	479d                	li	a5,7
    2e7c:	f4e7fee3          	bgeu	a5,a4,2dd8 <get_config+0x16>
C:\Users\windows\Desktop\A_Dual\A_Dual1\Dual-core_Communication_Demo\Dual-core_Communication_Demo\SLAVE\obj/../Libraries/seekfree_peripheral/SEEKFREE_MT9V03X.c:171
    }
}
    2e80:	0001                	nop
    2e82:	50b2                	lw	ra,44(sp)
    2e84:	5422                	lw	s0,40(sp)
    2e86:	6145                	addi	sp,sp,48
    2e88:	8082                	ret

00002e8a <mt9v03x_vsync_init>:
mt9v03x_vsync_init():
C:\Users\windows\Desktop\A_Dual\A_Dual1\Dual-core_Communication_Demo\Dual-core_Communication_Demo\SLAVE\obj/../Libraries/seekfree_peripheral/SEEKFREE_MT9V03X.c:281
//  @return     void        NULL
//  @since      v1.0
//  Sample usage:
//-------------------------------------------------------------------------------------------------------------------
void mt9v03x_vsync_init(void)
{
    2e8a:	1141                	addi	sp,sp,-16
    2e8c:	c606                	sw	ra,12(sp)
    2e8e:	c422                	sw	s0,8(sp)
    2e90:	0800                	addi	s0,sp,16
C:\Users\windows\Desktop\A_Dual\A_Dual1\Dual-core_Communication_Demo\Dual-core_Communication_Demo\SLAVE\obj/../Libraries/seekfree_peripheral/SEEKFREE_MT9V03X.c:282
    gpio_interrupt_init(MT9V03X_VSYNC_PIN, FALLING, IN_PULLUP);
    2e92:	04800613          	li	a2,72
    2e96:	45b1                	li	a1,12
    2e98:	4505                	li	a0,1
    2e9a:	2545                	jal	353a <gpio_interrupt_init>
C:\Users\windows\Desktop\A_Dual\A_Dual1\Dual-core_Communication_Demo\Dual-core_Communication_Demo\SLAVE\obj/../Libraries/seekfree_peripheral/SEEKFREE_MT9V03X.c:283
    nvic_init(MT9V03X_VSYNC_IRQN, 1, 0, ENABLE);
    2e9c:	4685                	li	a3,1
    2e9e:	4601                	li	a2,0
    2ea0:	4585                	li	a1,1
    2ea2:	455d                	li	a0,23
    2ea4:	716000ef          	jal	ra,35ba <nvic_init>
C:\Users\windows\Desktop\A_Dual\A_Dual1\Dual-core_Communication_Demo\Dual-core_Communication_Demo\SLAVE\obj/../Libraries/seekfree_peripheral/SEEKFREE_MT9V03X.c:284
}
    2ea8:	0001                	nop
    2eaa:	40b2                	lw	ra,12(sp)
    2eac:	4422                	lw	s0,8(sp)
    2eae:	0141                	addi	sp,sp,16
    2eb0:	8082                	ret

00002eb2 <mt9v03x_tim1_etr_init>:
mt9v03x_tim1_etr_init():
C:\Users\windows\Desktop\A_Dual\A_Dual1\Dual-core_Communication_Demo\Dual-core_Communication_Demo\SLAVE\obj/../Libraries/seekfree_peripheral/SEEKFREE_MT9V03X.c:294
//  @return     void        NULL
//  @since      v1.0
//  Sample usage:
//-------------------------------------------------------------------------------------------------------------------
void mt9v03x_tim1_etr_init(void)
{
    2eb2:	1141                	addi	sp,sp,-16
    2eb4:	c606                	sw	ra,12(sp)
    2eb6:	c422                	sw	s0,8(sp)
    2eb8:	0800                	addi	s0,sp,16
C:\Users\windows\Desktop\A_Dual\A_Dual1\Dual-core_Communication_Demo\Dual-core_Communication_Demo\SLAVE\obj/../Libraries/seekfree_peripheral/SEEKFREE_MT9V03X.c:295
    camera_tim_etr_init(TIMER_1, MT9V03X_PCLK_PIN);
    2eba:	45b1                	li	a1,12
    2ebc:	4501                	li	a0,0
    2ebe:	2679                	jal	324c <camera_tim_etr_init>
C:\Users\windows\Desktop\A_Dual\A_Dual1\Dual-core_Communication_Demo\Dual-core_Communication_Demo\SLAVE\obj/../Libraries/seekfree_peripheral/SEEKFREE_MT9V03X.c:296
}
    2ec0:	0001                	nop
    2ec2:	40b2                	lw	ra,12(sp)
    2ec4:	4422                	lw	s0,8(sp)
    2ec6:	0141                	addi	sp,sp,16
    2ec8:	8082                	ret

00002eca <mt9v03x_dma_init>:
mt9v03x_dma_init():
C:\Users\windows\Desktop\A_Dual\A_Dual1\Dual-core_Communication_Demo\Dual-core_Communication_Demo\SLAVE\obj/../Libraries/seekfree_peripheral/SEEKFREE_MT9V03X.c:306
//  @return     void        NULL
//  @since      v1.0
//  Sample usage:
//-------------------------------------------------------------------------------------------------------------------
void mt9v03x_dma_init(void)
{
    2eca:	1101                	addi	sp,sp,-32
    2ecc:	ce06                	sw	ra,28(sp)
    2ece:	cc22                	sw	s0,24(sp)
    2ed0:	1000                	addi	s0,sp,32
C:\Users\windows\Desktop\A_Dual\A_Dual1\Dual-core_Communication_Demo\Dual-core_Communication_Demo\SLAVE\obj/../Libraries/seekfree_peripheral/SEEKFREE_MT9V03X.c:311
    uint8 data_pin,num;


    //
    data_pin = (uint8)(((MT9V03X_DATA_PIN - (GPIOA_BASE+8)) >> 10) << 5) +
    2ed2:	04000793          	li	a5,64
    2ed6:	fef40723          	sb	a5,-18(s0)
C:\Users\windows\Desktop\A_Dual\A_Dual1\Dual-core_Communication_Demo\Dual-core_Communication_Demo\SLAVE\obj/../Libraries/seekfree_peripheral/SEEKFREE_MT9V03X.c:314
                (((MT9V03X_DATA_PIN - (GPIOA_BASE+8)) & 0x0F) << 3);

    for(num=7; num>0; num--)
    2eda:	479d                	li	a5,7
    2edc:	fef407a3          	sb	a5,-17(s0)
    2ee0:	a005                	j	2f00 <mt9v03x_dma_init+0x36>
C:\Users\windows\Desktop\A_Dual\A_Dual1\Dual-core_Communication_Demo\Dual-core_Communication_Demo\SLAVE\obj/../Libraries/seekfree_peripheral/SEEKFREE_MT9V03X.c:316 (discriminator 3)
    {
        gpio_init((PIN_enum)(num + data_pin), GPI, 0, IN_FLOAT);
    2ee2:	fef44703          	lbu	a4,-17(s0)
    2ee6:	fee44783          	lbu	a5,-18(s0)
    2eea:	97ba                	add	a5,a5,a4
    2eec:	4691                	li	a3,4
    2eee:	4601                	li	a2,0
    2ef0:	4581                	li	a1,0
    2ef2:	853e                	mv	a0,a5
    2ef4:	214d                	jal	3396 <gpio_init>
C:\Users\windows\Desktop\A_Dual\A_Dual1\Dual-core_Communication_Demo\Dual-core_Communication_Demo\SLAVE\obj/../Libraries/seekfree_peripheral/SEEKFREE_MT9V03X.c:314 (discriminator 3)
    for(num=7; num>0; num--)
    2ef6:	fef44783          	lbu	a5,-17(s0)
    2efa:	17fd                	addi	a5,a5,-1
    2efc:	fef407a3          	sb	a5,-17(s0)
C:\Users\windows\Desktop\A_Dual\A_Dual1\Dual-core_Communication_Demo\Dual-core_Communication_Demo\SLAVE\obj/../Libraries/seekfree_peripheral/SEEKFREE_MT9V03X.c:314 (discriminator 1)
    2f00:	fef44783          	lbu	a5,-17(s0)
    2f04:	fff9                	bnez	a5,2ee2 <mt9v03x_dma_init+0x18>
C:\Users\windows\Desktop\A_Dual\A_Dual1\Dual-core_Communication_Demo\Dual-core_Communication_Demo\SLAVE\obj/../Libraries/seekfree_peripheral/SEEKFREE_MT9V03X.c:321
    }


    //DMA
    camera_dma_init(MT9V03X_DMA_CH,(uint32)MT9V03X_DATA_PIN, (uint32)camera_buffer_addr, MT9V03X_H*MT9V03X_W);
    2f06:	83c1a783          	lw	a5,-1988(gp) # 20000154 <camera_buffer_addr>
    2f0a:	873e                	mv	a4,a5
    2f0c:	6789                	lui	a5,0x2
    2f0e:	4b878693          	addi	a3,a5,1208 # 24b8 <ips114_init+0x10>
    2f12:	863a                	mv	a2,a4
    2f14:	400117b7          	lui	a5,0x40011
    2f18:	00878593          	addi	a1,a5,8 # 40011008 <_eusrstack+0x2000c008>
    2f1c:	400207b7          	lui	a5,0x40020
    2f20:	04478513          	addi	a0,a5,68 # 40020044 <_eusrstack+0x2001b044>
    2f24:	22f9                	jal	30f2 <camera_dma_init>
C:\Users\windows\Desktop\A_Dual\A_Dual1\Dual-core_Communication_Demo\Dual-core_Communication_Demo\SLAVE\obj/../Libraries/seekfree_peripheral/SEEKFREE_MT9V03X.c:322
    nvic_init(MT9V03X_DMA_IRQN, 0, 0, ENABLE);          //
    2f26:	4685                	li	a3,1
    2f28:	4601                	li	a2,0
    2f2a:	4581                	li	a1,0
    2f2c:	4579                	li	a0,30
    2f2e:	2571                	jal	35ba <nvic_init>
C:\Users\windows\Desktop\A_Dual\A_Dual1\Dual-core_Communication_Demo\Dual-core_Communication_Demo\SLAVE\obj/../Libraries/seekfree_peripheral/SEEKFREE_MT9V03X.c:323
}
    2f30:	0001                	nop
    2f32:	40f2                	lw	ra,28(sp)
    2f34:	4462                	lw	s0,24(sp)
    2f36:	6105                	addi	sp,sp,32
    2f38:	8082                	ret

00002f3a <mt9v03x_init>:
mt9v03x_init():
C:\Users\windows\Desktop\A_Dual\A_Dual1\Dual-core_Communication_Demo\Dual-core_Communication_Demo\SLAVE\obj/../Libraries/seekfree_peripheral/SEEKFREE_MT9V03X.c:334
//  @return     void
//  @since      v1.0
//  Sample usage:   FLEXIO
//-------------------------------------------------------------------------------------------------------------------
void mt9v03x_init(void)
{
    2f3a:	1141                	addi	sp,sp,-16
    2f3c:	c606                	sw	ra,12(sp)
    2f3e:	c422                	sw	s0,8(sp)
    2f40:	0800                	addi	s0,sp,16
C:\Users\windows\Desktop\A_Dual\A_Dual1\Dual-core_Communication_Demo\Dual-core_Communication_Demo\SLAVE\obj/../Libraries/seekfree_peripheral/SEEKFREE_MT9V03X.c:336
    
    camera_type = CAMERA_GRAYSCALE;//
    2f42:	200007b7          	lui	a5,0x20000
    2f46:	4705                	li	a4,1
    2f48:	10e7ae23          	sw	a4,284(a5) # 2000011c <camera_type>
C:\Users\windows\Desktop\A_Dual\A_Dual1\Dual-core_Communication_Demo\Dual-core_Communication_Demo\SLAVE\obj/../Libraries/seekfree_peripheral/SEEKFREE_MT9V03X.c:337
    camera_buffer_addr = mt9v03x_image[0];
    2f4c:	20000737          	lui	a4,0x20000
    2f50:	17c70713          	addi	a4,a4,380 # 2000017c <mt9v03x_image>
    2f54:	82e1ae23          	sw	a4,-1988(gp) # 20000154 <camera_buffer_addr>
C:\Users\windows\Desktop\A_Dual\A_Dual1\Dual-core_Communication_Demo\Dual-core_Communication_Demo\SLAVE\obj/../Libraries/seekfree_peripheral/SEEKFREE_MT9V03X.c:339

    uart_init (MT9V03X_COF_UART, 9600,MT9V03X_COF_UART_TX, MT9V03X_COF_UART_RX);    // 
    2f58:	46c5                	li	a3,17
    2f5a:	4641                	li	a2,16
    2f5c:	6789                	lui	a5,0x2
    2f5e:	58078593          	addi	a1,a5,1408 # 2580 <ips114_init+0xd8>
    2f62:	4505                	li	a0,1
    2f64:	17c010ef          	jal	ra,40e0 <uart_init>
C:\Users\windows\Desktop\A_Dual\A_Dual1\Dual-core_Communication_Demo\Dual-core_Communication_Demo\SLAVE\obj/../Libraries/seekfree_peripheral/SEEKFREE_MT9V03X.c:340
    uart_rx_irq(MT9V03X_COF_UART, ENABLE);
    2f68:	4585                	li	a1,1
    2f6a:	4505                	li	a0,1
    2f6c:	314010ef          	jal	ra,4280 <uart_rx_irq>
C:\Users\windows\Desktop\A_Dual\A_Dual1\Dual-core_Communication_Demo\Dual-core_Communication_Demo\SLAVE\obj/../Libraries/seekfree_peripheral/SEEKFREE_MT9V03X.c:341
    EnableGlobalIRQ(0);
    2f70:	4501                	li	a0,0
    2f72:	78e000ef          	jal	ra,3700 <EnableGlobalIRQ>
C:\Users\windows\Desktop\A_Dual\A_Dual1\Dual-core_Communication_Demo\Dual-core_Communication_Demo\SLAVE\obj/../Libraries/seekfree_peripheral/SEEKFREE_MT9V03X.c:344


    uart_receive_flag = 0;
    2f76:	82018623          	sb	zero,-2004(gp) # 20000144 <uart_receive_flag>
C:\Users\windows\Desktop\A_Dual\A_Dual1\Dual-core_Communication_Demo\Dual-core_Communication_Demo\SLAVE\obj/../Libraries/seekfree_peripheral/SEEKFREE_MT9V03X.c:347
    //  
    //systick_delay_ms(1000);//
    get_config(MT9V03X_COF_UART, GET_CFG);//
    2f7a:	200007b7          	lui	a5,0x20000
    2f7e:	03478593          	addi	a1,a5,52 # 20000034 <GET_CFG>
    2f82:	4505                	li	a0,1
    2f84:	3d3d                	jal	2dc2 <get_config>
C:\Users\windows\Desktop\A_Dual\A_Dual1\Dual-core_Communication_Demo\Dual-core_Communication_Demo\SLAVE\obj/../Libraries/seekfree_peripheral/SEEKFREE_MT9V03X.c:349

    uart_receive_flag = 0;
    2f86:	82018623          	sb	zero,-2004(gp) # 20000144 <uart_receive_flag>
C:\Users\windows\Desktop\A_Dual\A_Dual1\Dual-core_Communication_Demo\Dual-core_Communication_Demo\SLAVE\obj/../Libraries/seekfree_peripheral/SEEKFREE_MT9V03X.c:350
    set_config(MT9V03X_COF_UART, MT9V03X_CFG);
    2f8a:	200007b7          	lui	a5,0x20000
    2f8e:	01078593          	addi	a1,a5,16 # 20000010 <MT9V03X_CFG>
    2f92:	4505                	li	a0,1
    2f94:	3b3d                	jal	2cd2 <set_config>
C:\Users\windows\Desktop\A_Dual\A_Dual1\Dual-core_Communication_Demo\Dual-core_Communication_Demo\SLAVE\obj/../Libraries/seekfree_peripheral/SEEKFREE_MT9V03X.c:352

    uart_receive_flag = 0;
    2f96:	82018623          	sb	zero,-2004(gp) # 20000144 <uart_receive_flag>
C:\Users\windows\Desktop\A_Dual\A_Dual1\Dual-core_Communication_Demo\Dual-core_Communication_Demo\SLAVE\obj/../Libraries/seekfree_peripheral/SEEKFREE_MT9V03X.c:354
    //
    get_config(MT9V03X_COF_UART, GET_CFG);
    2f9a:	200007b7          	lui	a5,0x20000
    2f9e:	03478593          	addi	a1,a5,52 # 20000034 <GET_CFG>
    2fa2:	4505                	li	a0,1
    2fa4:	3d39                	jal	2dc2 <get_config>
C:\Users\windows\Desktop\A_Dual\A_Dual1\Dual-core_Communication_Demo\Dual-core_Communication_Demo\SLAVE\obj/../Libraries/seekfree_peripheral/SEEKFREE_MT9V03X.c:356
    
    DisableGlobalIRQ();
    2fa6:	712000ef          	jal	ra,36b8 <DisableGlobalIRQ>
C:\Users\windows\Desktop\A_Dual\A_Dual1\Dual-core_Communication_Demo\Dual-core_Communication_Demo\SLAVE\obj/../Libraries/seekfree_peripheral/SEEKFREE_MT9V03X.c:359

    //DMA
    mt9v03x_dma_init();
    2faa:	3705                	jal	2eca <mt9v03x_dma_init>
C:\Users\windows\Desktop\A_Dual\A_Dual1\Dual-core_Communication_Demo\Dual-core_Communication_Demo\SLAVE\obj/../Libraries/seekfree_peripheral/SEEKFREE_MT9V03X.c:361
    //GPIO,PLCK
    mt9v03x_tim1_etr_init();
    2fac:	3719                	jal	2eb2 <mt9v03x_tim1_etr_init>
C:\Users\windows\Desktop\A_Dual\A_Dual1\Dual-core_Communication_Demo\Dual-core_Communication_Demo\SLAVE\obj/../Libraries/seekfree_peripheral/SEEKFREE_MT9V03X.c:363
    //VSYNC
    mt9v03x_vsync_init();
    2fae:	3df1                	jal	2e8a <mt9v03x_vsync_init>
C:\Users\windows\Desktop\A_Dual\A_Dual1\Dual-core_Communication_Demo\Dual-core_Communication_Demo\SLAVE\obj/../Libraries/seekfree_peripheral/SEEKFREE_MT9V03X.c:364
}
    2fb0:	0001                	nop
    2fb2:	40b2                	lw	ra,12(sp)
    2fb4:	4422                	lw	s0,8(sp)
    2fb6:	0141                	addi	sp,sp,16
    2fb8:	8082                	ret

00002fba <mt9v03x_vsync>:
mt9v03x_vsync():
C:\Users\windows\Desktop\A_Dual\A_Dual1\Dual-core_Communication_Demo\Dual-core_Communication_Demo\SLAVE\obj/../Libraries/seekfree_peripheral/SEEKFREE_MT9V03X.c:376
//  @return     void
//  @since      v1.0
//  Sample usage:               isr.c()
//-------------------------------------------------------------------------------------------------------------------
void mt9v03x_vsync(void)
{
    2fba:	1141                	addi	sp,sp,-16
    2fbc:	c622                	sw	s0,12(sp)
    2fbe:	0800                	addi	s0,sp,16
C:\Users\windows\Desktop\A_Dual\A_Dual1\Dual-core_Communication_Demo\Dual-core_Communication_Demo\SLAVE\obj/../Libraries/seekfree_peripheral/SEEKFREE_MT9V03X.c:377
    MT9V03X_DMA_CH->CNTR = MT9V03X_H*MT9V03X_W;             //DMADMA
    2fc0:	400207b7          	lui	a5,0x40020
    2fc4:	04478793          	addi	a5,a5,68 # 40020044 <_eusrstack+0x2001b044>
    2fc8:	6709                	lui	a4,0x2
    2fca:	4b870713          	addi	a4,a4,1208 # 24b8 <ips114_init+0x10>
    2fce:	c3d8                	sw	a4,4(a5)
C:\Users\windows\Desktop\A_Dual\A_Dual1\Dual-core_Communication_Demo\Dual-core_Communication_Demo\SLAVE\obj/../Libraries/seekfree_peripheral/SEEKFREE_MT9V03X.c:378
    MT9V03X_DMA_CH->CFGR |= DMA_CFGR1_EN;
    2fd0:	400207b7          	lui	a5,0x40020
    2fd4:	04478793          	addi	a5,a5,68 # 40020044 <_eusrstack+0x2001b044>
    2fd8:	4398                	lw	a4,0(a5)
    2fda:	400207b7          	lui	a5,0x40020
    2fde:	04478793          	addi	a5,a5,68 # 40020044 <_eusrstack+0x2001b044>
    2fe2:	00176713          	ori	a4,a4,1
    2fe6:	c398                	sw	a4,0(a5)
C:\Users\windows\Desktop\A_Dual\A_Dual1\Dual-core_Communication_Demo\Dual-core_Communication_Demo\SLAVE\obj/../Libraries/seekfree_peripheral/SEEKFREE_MT9V03X.c:379
}
    2fe8:	0001                	nop
    2fea:	4432                	lw	s0,12(sp)
    2fec:	0141                	addi	sp,sp,16
    2fee:	8082                	ret

00002ff0 <mt9v03x_dma>:
mt9v03x_dma():
C:\Users\windows\Desktop\A_Dual\A_Dual1\Dual-core_Communication_Demo\Dual-core_Communication_Demo\SLAVE\obj/../Libraries/seekfree_peripheral/SEEKFREE_MT9V03X.c:389
//  @return     void
//  @since      v1.0
//  Sample usage:
//-------------------------------------------------------------------------------------------------------------------
void mt9v03x_dma(void)
{
    2ff0:	1141                	addi	sp,sp,-16
    2ff2:	c622                	sw	s0,12(sp)
    2ff4:	0800                	addi	s0,sp,16
C:\Users\windows\Desktop\A_Dual\A_Dual1\Dual-core_Communication_Demo\Dual-core_Communication_Demo\SLAVE\obj/../Libraries/seekfree_peripheral/SEEKFREE_MT9V03X.c:390
    mt9v03x_finish_flag = 1;//3.8MS(50FPS188*120)
    2ff6:	4705                	li	a4,1
    2ff8:	82e186a3          	sb	a4,-2003(gp) # 20000145 <mt9v03x_finish_flag>
C:\Users\windows\Desktop\A_Dual\A_Dual1\Dual-core_Communication_Demo\Dual-core_Communication_Demo\SLAVE\obj/../Libraries/seekfree_peripheral/SEEKFREE_MT9V03X.c:391
    MT9V03X_DMA_CH->CFGR &= (uint16)(~DMA_CFGR1_EN);   //DMA1
    2ffc:	400207b7          	lui	a5,0x40020
    3000:	04478793          	addi	a5,a5,68 # 40020044 <_eusrstack+0x2001b044>
    3004:	4394                	lw	a3,0(a5)
    3006:	400207b7          	lui	a5,0x40020
    300a:	04478793          	addi	a5,a5,68 # 40020044 <_eusrstack+0x2001b044>
    300e:	6741                	lui	a4,0x10
    3010:	1779                	addi	a4,a4,-2
    3012:	8f75                	and	a4,a4,a3
    3014:	c398                	sw	a4,0(a5)
C:\Users\windows\Desktop\A_Dual\A_Dual1\Dual-core_Communication_Demo\Dual-core_Communication_Demo\SLAVE\obj/../Libraries/seekfree_peripheral/SEEKFREE_MT9V03X.c:392
}
    3016:	0001                	nop
    3018:	4432                	lw	s0,12(sp)
    301a:	0141                	addi	sp,sp,16
    301c:	8082                	ret

0000301e <ov7725_cof_uart_interrupt>:
ov7725_cof_uart_interrupt():
C:\Users\windows\Desktop\A_Dual\A_Dual1\Dual-core_Communication_Demo\Dual-core_Communication_Demo\SLAVE\obj/../Libraries/seekfree_peripheral/SEEKFREE_UART_7725.c:81
//  Sample usage:
//  @note       ISR 3
//-------------------------------------------------------------------------------------------------------------------

void ov7725_cof_uart_interrupt(void)
{
    301e:	1141                	addi	sp,sp,-16
    3020:	c622                	sw	s0,12(sp)
    3022:	0800                	addi	s0,sp,16
C:\Users\windows\Desktop\A_Dual\A_Dual1\Dual-core_Communication_Demo\Dual-core_Communication_Demo\SLAVE\obj/../Libraries/seekfree_peripheral/SEEKFREE_UART_7725.c:83

    ov7725_uart_receive[ov7725_uart_receive_num] = ((USART_TypeDef*)UARTN[OV7725_UART_COF_UART])->DATAR & 0x01FF;
    3024:	6799                	lui	a5,0x6
    3026:	1ec78793          	addi	a5,a5,492 # 61ec <UARTN>
    302a:	43dc                	lw	a5,4(a5)
    302c:	0047d783          	lhu	a5,4(a5)
    3030:	01079713          	slli	a4,a5,0x10
    3034:	8341                	srli	a4,a4,0x10
    3036:	8331c783          	lbu	a5,-1997(gp) # 2000014b <ov7725_uart_receive_num>
    303a:	86be                	mv	a3,a5
    303c:	0ff77713          	andi	a4,a4,255
    3040:	83018793          	addi	a5,gp,-2000 # 20000148 <ov7725_uart_receive>
    3044:	97b6                	add	a5,a5,a3
    3046:	00e78023          	sb	a4,0(a5)
C:\Users\windows\Desktop\A_Dual\A_Dual1\Dual-core_Communication_Demo\Dual-core_Communication_Demo\SLAVE\obj/../Libraries/seekfree_peripheral/SEEKFREE_UART_7725.c:84
    ov7725_uart_receive_num++;
    304a:	8331c783          	lbu	a5,-1997(gp) # 2000014b <ov7725_uart_receive_num>
    304e:	0785                	addi	a5,a5,1
    3050:	0ff7f713          	andi	a4,a5,255
    3054:	82e189a3          	sb	a4,-1997(gp) # 2000014b <ov7725_uart_receive_num>
C:\Users\windows\Desktop\A_Dual\A_Dual1\Dual-core_Communication_Demo\Dual-core_Communication_Demo\SLAVE\obj/../Libraries/seekfree_peripheral/SEEKFREE_UART_7725.c:86

    if(1==ov7725_uart_receive_num && 0XA5!=ov7725_uart_receive[0])  ov7725_uart_receive_num = 0;
    3058:	8331c703          	lbu	a4,-1997(gp) # 2000014b <ov7725_uart_receive_num>
    305c:	4785                	li	a5,1
    305e:	00f71a63          	bne	a4,a5,3072 <ov7725_cof_uart_interrupt+0x54>
C:\Users\windows\Desktop\A_Dual\A_Dual1\Dual-core_Communication_Demo\Dual-core_Communication_Demo\SLAVE\obj/../Libraries/seekfree_peripheral/SEEKFREE_UART_7725.c:86 (discriminator 1)
    3062:	8301c703          	lbu	a4,-2000(gp) # 20000148 <ov7725_uart_receive>
    3066:	0a500793          	li	a5,165
    306a:	00f70463          	beq	a4,a5,3072 <ov7725_cof_uart_interrupt+0x54>
C:\Users\windows\Desktop\A_Dual\A_Dual1\Dual-core_Communication_Demo\Dual-core_Communication_Demo\SLAVE\obj/../Libraries/seekfree_peripheral/SEEKFREE_UART_7725.c:86 (discriminator 2)
    306e:	820189a3          	sb	zero,-1997(gp) # 2000014b <ov7725_uart_receive_num>
C:\Users\windows\Desktop\A_Dual\A_Dual1\Dual-core_Communication_Demo\Dual-core_Communication_Demo\SLAVE\obj/../Libraries/seekfree_peripheral/SEEKFREE_UART_7725.c:87
    if(3 == ov7725_uart_receive_num)
    3072:	8331c703          	lbu	a4,-1997(gp) # 2000014b <ov7725_uart_receive_num>
    3076:	478d                	li	a5,3
    3078:	00f71763          	bne	a4,a5,3086 <ov7725_cof_uart_interrupt+0x68>
C:\Users\windows\Desktop\A_Dual\A_Dual1\Dual-core_Communication_Demo\Dual-core_Communication_Demo\SLAVE\obj/../Libraries/seekfree_peripheral/SEEKFREE_UART_7725.c:89
    {
        ov7725_uart_receive_num = 0;
    307c:	820189a3          	sb	zero,-1997(gp) # 2000014b <ov7725_uart_receive_num>
C:\Users\windows\Desktop\A_Dual\A_Dual1\Dual-core_Communication_Demo\Dual-core_Communication_Demo\SLAVE\obj/../Libraries/seekfree_peripheral/SEEKFREE_UART_7725.c:90
        ov7725_uart_receive_flag = 1;
    3080:	4705                	li	a4,1
    3082:	82e18a23          	sb	a4,-1996(gp) # 2000014c <ov7725_uart_receive_flag>
C:\Users\windows\Desktop\A_Dual\A_Dual1\Dual-core_Communication_Demo\Dual-core_Communication_Demo\SLAVE\obj/../Libraries/seekfree_peripheral/SEEKFREE_UART_7725.c:92
    }
}
    3086:	0001                	nop
    3088:	4432                	lw	s0,12(sp)
    308a:	0141                	addi	sp,sp,16
    308c:	8082                	ret

0000308e <ov7725_uart_vsync>:
ov7725_uart_vsync():
C:\Users\windows\Desktop\A_Dual\A_Dual1\Dual-core_Communication_Demo\Dual-core_Communication_Demo\SLAVE\obj/../Libraries/seekfree_peripheral/SEEKFREE_UART_7725.c:103
//  @since      v1.0
//  Sample usage:                   isr.c()
//-------------------------------------------------------------------------------------------------------------------

void ov7725_uart_vsync(void)
{
    308e:	1141                	addi	sp,sp,-16
    3090:	c622                	sw	s0,12(sp)
    3092:	0800                	addi	s0,sp,16
C:\Users\windows\Desktop\A_Dual\A_Dual1\Dual-core_Communication_Demo\Dual-core_Communication_Demo\SLAVE\obj/../Libraries/seekfree_peripheral/SEEKFREE_UART_7725.c:104
    OV7725_UART_DMA_CH->CNTR = OV7725_UART_SIZE;             //DMADMA
    3094:	400207b7          	lui	a5,0x40020
    3098:	04478793          	addi	a5,a5,68 # 40020044 <_eusrstack+0x2001b044>
    309c:	6705                	lui	a4,0x1
    309e:	96070713          	addi	a4,a4,-1696 # 960 <DMA_DeInit+0x58>
    30a2:	c3d8                	sw	a4,4(a5)
C:\Users\windows\Desktop\A_Dual\A_Dual1\Dual-core_Communication_Demo\Dual-core_Communication_Demo\SLAVE\obj/../Libraries/seekfree_peripheral/SEEKFREE_UART_7725.c:105
    OV7725_UART_DMA_CH->CFGR |= DMA_CFGR1_EN;                //DMA1
    30a4:	400207b7          	lui	a5,0x40020
    30a8:	04478793          	addi	a5,a5,68 # 40020044 <_eusrstack+0x2001b044>
    30ac:	4398                	lw	a4,0(a5)
    30ae:	400207b7          	lui	a5,0x40020
    30b2:	04478793          	addi	a5,a5,68 # 40020044 <_eusrstack+0x2001b044>
    30b6:	00176713          	ori	a4,a4,1
    30ba:	c398                	sw	a4,0(a5)
C:\Users\windows\Desktop\A_Dual\A_Dual1\Dual-core_Communication_Demo\Dual-core_Communication_Demo\SLAVE\obj/../Libraries/seekfree_peripheral/SEEKFREE_UART_7725.c:106
}
    30bc:	0001                	nop
    30be:	4432                	lw	s0,12(sp)
    30c0:	0141                	addi	sp,sp,16
    30c2:	8082                	ret

000030c4 <ov7725_uart_dma>:
ov7725_uart_dma():
C:\Users\windows\Desktop\A_Dual\A_Dual1\Dual-core_Communication_Demo\Dual-core_Communication_Demo\SLAVE\obj/../Libraries/seekfree_peripheral/SEEKFREE_UART_7725.c:117
//  @return     void
//  @since      v1.0
//  Sample usage:                   isr.c()
//-------------------------------------------------------------------------------------------------------------------
void ov7725_uart_dma(void)
{
    30c4:	1141                	addi	sp,sp,-16
    30c6:	c622                	sw	s0,12(sp)
    30c8:	0800                	addi	s0,sp,16
C:\Users\windows\Desktop\A_Dual\A_Dual1\Dual-core_Communication_Demo\Dual-core_Communication_Demo\SLAVE\obj/../Libraries/seekfree_peripheral/SEEKFREE_UART_7725.c:118
    ov7725_uart_finish_flag = 1;                             //1
    30ca:	4705                	li	a4,1
    30cc:	82e18aa3          	sb	a4,-1995(gp) # 2000014d <ov7725_uart_finish_flag>
C:\Users\windows\Desktop\A_Dual\A_Dual1\Dual-core_Communication_Demo\Dual-core_Communication_Demo\SLAVE\obj/../Libraries/seekfree_peripheral/SEEKFREE_UART_7725.c:119
    OV7725_UART_DMA_CH->CFGR &= (uint16)(~DMA_CFGR1_EN);     //DMA1
    30d0:	400207b7          	lui	a5,0x40020
    30d4:	04478793          	addi	a5,a5,68 # 40020044 <_eusrstack+0x2001b044>
    30d8:	4394                	lw	a3,0(a5)
    30da:	400207b7          	lui	a5,0x40020
    30de:	04478793          	addi	a5,a5,68 # 40020044 <_eusrstack+0x2001b044>
    30e2:	6741                	lui	a4,0x10
    30e4:	1779                	addi	a4,a4,-2
    30e6:	8f75                	and	a4,a4,a3
    30e8:	c398                	sw	a4,0(a5)
C:\Users\windows\Desktop\A_Dual\A_Dual1\Dual-core_Communication_Demo\Dual-core_Communication_Demo\SLAVE\obj/../Libraries/seekfree_peripheral/SEEKFREE_UART_7725.c:120
}
    30ea:	0001                	nop
    30ec:	4432                	lw	s0,12(sp)
    30ee:	0141                	addi	sp,sp,16
    30f0:	8082                	ret

000030f2 <camera_dma_init>:
camera_dma_init():
C:\Users\windows\Desktop\A_Dual\A_Dual1\Dual-core_Communication_Demo\Dual-core_Communication_Demo\SLAVE\obj/../Libraries/seekfree_libraries/zf_camera.c:38
//  @param      size                
//  @return     void
//  Sample usage:                   camera_dma_init(DMA1_Channel4, GPIOA->ODR, GPIOC->ODR, 8);
//-------------------------------------------------------------------------------------------------------------------
void camera_dma_init(DMA_Channel_TypeDef* dma_ch,uint32 src_addr, uint32 des_addr, uint32 size)
{
    30f2:	715d                	addi	sp,sp,-80
    30f4:	c686                	sw	ra,76(sp)
    30f6:	c4a2                	sw	s0,72(sp)
    30f8:	0880                	addi	s0,sp,80
    30fa:	faa42e23          	sw	a0,-68(s0)
    30fe:	fab42c23          	sw	a1,-72(s0)
    3102:	fac42a23          	sw	a2,-76(s0)
    3106:	fad42823          	sw	a3,-80(s0)
C:\Users\windows\Desktop\A_Dual\A_Dual1\Dual-core_Communication_Demo\Dual-core_Communication_Demo\SLAVE\obj/../Libraries/seekfree_libraries/zf_camera.c:41
    DMA_InitTypeDef DMA_InitStructure;

    if(DMA1_Channel1 == dma_ch || DMA1_Channel2 == dma_ch || DMA1_Channel3 == dma_ch || DMA1_Channel4 == dma_ch ||
    310a:	fbc42703          	lw	a4,-68(s0)
    310e:	400207b7          	lui	a5,0x40020
    3112:	07a1                	addi	a5,a5,8
    3114:	06f70163          	beq	a4,a5,3176 <camera_dma_init+0x84>
C:\Users\windows\Desktop\A_Dual\A_Dual1\Dual-core_Communication_Demo\Dual-core_Communication_Demo\SLAVE\obj/../Libraries/seekfree_libraries/zf_camera.c:41 (discriminator 1)
    3118:	fbc42703          	lw	a4,-68(s0)
    311c:	400207b7          	lui	a5,0x40020
    3120:	07f1                	addi	a5,a5,28
    3122:	04f70a63          	beq	a4,a5,3176 <camera_dma_init+0x84>
C:\Users\windows\Desktop\A_Dual\A_Dual1\Dual-core_Communication_Demo\Dual-core_Communication_Demo\SLAVE\obj/../Libraries/seekfree_libraries/zf_camera.c:41 (discriminator 2)
    3126:	fbc42703          	lw	a4,-68(s0)
    312a:	400207b7          	lui	a5,0x40020
    312e:	03078793          	addi	a5,a5,48 # 40020030 <_eusrstack+0x2001b030>
    3132:	04f70263          	beq	a4,a5,3176 <camera_dma_init+0x84>
C:\Users\windows\Desktop\A_Dual\A_Dual1\Dual-core_Communication_Demo\Dual-core_Communication_Demo\SLAVE\obj/../Libraries/seekfree_libraries/zf_camera.c:41 (discriminator 3)
    3136:	fbc42703          	lw	a4,-68(s0)
    313a:	400207b7          	lui	a5,0x40020
    313e:	04478793          	addi	a5,a5,68 # 40020044 <_eusrstack+0x2001b044>
    3142:	02f70a63          	beq	a4,a5,3176 <camera_dma_init+0x84>
C:\Users\windows\Desktop\A_Dual\A_Dual1\Dual-core_Communication_Demo\Dual-core_Communication_Demo\SLAVE\obj/../Libraries/seekfree_libraries/zf_camera.c:41 (discriminator 4)
    3146:	fbc42703          	lw	a4,-68(s0)
    314a:	400207b7          	lui	a5,0x40020
    314e:	05878793          	addi	a5,a5,88 # 40020058 <_eusrstack+0x2001b058>
    3152:	02f70263          	beq	a4,a5,3176 <camera_dma_init+0x84>
C:\Users\windows\Desktop\A_Dual\A_Dual1\Dual-core_Communication_Demo\Dual-core_Communication_Demo\SLAVE\obj/../Libraries/seekfree_libraries/zf_camera.c:42
       DMA1_Channel5 == dma_ch || DMA1_Channel6 == dma_ch || DMA1_Channel7 == dma_ch)
    3156:	fbc42703          	lw	a4,-68(s0)
    315a:	400207b7          	lui	a5,0x40020
    315e:	06c78793          	addi	a5,a5,108 # 4002006c <_eusrstack+0x2001b06c>
    3162:	00f70a63          	beq	a4,a5,3176 <camera_dma_init+0x84>
C:\Users\windows\Desktop\A_Dual\A_Dual1\Dual-core_Communication_Demo\Dual-core_Communication_Demo\SLAVE\obj/../Libraries/seekfree_libraries/zf_camera.c:42 (discriminator 1)
    3166:	fbc42703          	lw	a4,-68(s0)
    316a:	400207b7          	lui	a5,0x40020
    316e:	08078793          	addi	a5,a5,128 # 40020080 <_eusrstack+0x2001b080>
    3172:	00f71763          	bne	a4,a5,3180 <camera_dma_init+0x8e>
C:\Users\windows\Desktop\A_Dual\A_Dual1\Dual-core_Communication_Demo\Dual-core_Communication_Demo\SLAVE\obj/../Libraries/seekfree_libraries/zf_camera.c:44
    {
        RCC_AHBPeriphClockCmd(RCC_AHBPeriph_DMA1, ENABLE);//DMA1
    3176:	4585                	li	a1,1
    3178:	4505                	li	a0,1
    317a:	cf4fe0ef          	jal	ra,166e <RCC_AHBPeriphClockCmd>
    317e:	a8a9                	j	31d8 <camera_dma_init+0xe6>
C:\Users\windows\Desktop\A_Dual\A_Dual1\Dual-core_Communication_Demo\Dual-core_Communication_Demo\SLAVE\obj/../Libraries/seekfree_libraries/zf_camera.c:46
    }
    else if(DMA2_Channel1 == dma_ch || DMA2_Channel2 == dma_ch || DMA2_Channel3 == dma_ch ||  DMA2_Channel4 == dma_ch ||
    3180:	fbc42703          	lw	a4,-68(s0)
    3184:	400207b7          	lui	a5,0x40020
    3188:	40878793          	addi	a5,a5,1032 # 40020408 <_eusrstack+0x2001b408>
    318c:	04f70263          	beq	a4,a5,31d0 <camera_dma_init+0xde>
C:\Users\windows\Desktop\A_Dual\A_Dual1\Dual-core_Communication_Demo\Dual-core_Communication_Demo\SLAVE\obj/../Libraries/seekfree_libraries/zf_camera.c:46 (discriminator 1)
    3190:	fbc42703          	lw	a4,-68(s0)
    3194:	400207b7          	lui	a5,0x40020
    3198:	41c78793          	addi	a5,a5,1052 # 4002041c <_eusrstack+0x2001b41c>
    319c:	02f70a63          	beq	a4,a5,31d0 <camera_dma_init+0xde>
C:\Users\windows\Desktop\A_Dual\A_Dual1\Dual-core_Communication_Demo\Dual-core_Communication_Demo\SLAVE\obj/../Libraries/seekfree_libraries/zf_camera.c:46 (discriminator 2)
    31a0:	fbc42703          	lw	a4,-68(s0)
    31a4:	400207b7          	lui	a5,0x40020
    31a8:	43078793          	addi	a5,a5,1072 # 40020430 <_eusrstack+0x2001b430>
    31ac:	02f70263          	beq	a4,a5,31d0 <camera_dma_init+0xde>
C:\Users\windows\Desktop\A_Dual\A_Dual1\Dual-core_Communication_Demo\Dual-core_Communication_Demo\SLAVE\obj/../Libraries/seekfree_libraries/zf_camera.c:46 (discriminator 3)
    31b0:	fbc42703          	lw	a4,-68(s0)
    31b4:	400207b7          	lui	a5,0x40020
    31b8:	44478793          	addi	a5,a5,1092 # 40020444 <_eusrstack+0x2001b444>
    31bc:	00f70a63          	beq	a4,a5,31d0 <camera_dma_init+0xde>
C:\Users\windows\Desktop\A_Dual\A_Dual1\Dual-core_Communication_Demo\Dual-core_Communication_Demo\SLAVE\obj/../Libraries/seekfree_libraries/zf_camera.c:46 (discriminator 4)
    31c0:	fbc42703          	lw	a4,-68(s0)
    31c4:	400207b7          	lui	a5,0x40020
    31c8:	45878793          	addi	a5,a5,1112 # 40020458 <_eusrstack+0x2001b458>
    31cc:	00f71663          	bne	a4,a5,31d8 <camera_dma_init+0xe6>
C:\Users\windows\Desktop\A_Dual\A_Dual1\Dual-core_Communication_Demo\Dual-core_Communication_Demo\SLAVE\obj/../Libraries/seekfree_libraries/zf_camera.c:49
            DMA2_Channel5 == dma_ch)
    {
        RCC_AHBPeriphClockCmd(RCC_AHBPeriph_DMA2, ENABLE);//DMA2
    31d0:	4585                	li	a1,1
    31d2:	4509                	li	a0,2
    31d4:	c9afe0ef          	jal	ra,166e <RCC_AHBPeriphClockCmd>
C:\Users\windows\Desktop\A_Dual\A_Dual1\Dual-core_Communication_Demo\Dual-core_Communication_Demo\SLAVE\obj/../Libraries/seekfree_libraries/zf_camera.c:52
    }

    DMA_DeInit(dma_ch);
    31d8:	fbc42503          	lw	a0,-68(s0)
    31dc:	f2cfd0ef          	jal	ra,908 <DMA_DeInit>
C:\Users\windows\Desktop\A_Dual\A_Dual1\Dual-core_Communication_Demo\Dual-core_Communication_Demo\SLAVE\obj/../Libraries/seekfree_libraries/zf_camera.c:55

    //MDA
    DMA_InitStructure.DMA_PeripheralBaseAddr = src_addr;                    //
    31e0:	fb842783          	lw	a5,-72(s0)
    31e4:	fcf42223          	sw	a5,-60(s0)
C:\Users\windows\Desktop\A_Dual\A_Dual1\Dual-core_Communication_Demo\Dual-core_Communication_Demo\SLAVE\obj/../Libraries/seekfree_libraries/zf_camera.c:56
    DMA_InitStructure.DMA_MemoryBaseAddr = des_addr;                        //
    31e8:	fb442783          	lw	a5,-76(s0)
    31ec:	fcf42423          	sw	a5,-56(s0)
C:\Users\windows\Desktop\A_Dual\A_Dual1\Dual-core_Communication_Demo\Dual-core_Communication_Demo\SLAVE\obj/../Libraries/seekfree_libraries/zf_camera.c:57
    DMA_InitStructure.DMA_DIR = DMA_DIR_PeripheralSRC;                      //
    31f0:	fc042623          	sw	zero,-52(s0)
C:\Users\windows\Desktop\A_Dual\A_Dual1\Dual-core_Communication_Demo\Dual-core_Communication_Demo\SLAVE\obj/../Libraries/seekfree_libraries/zf_camera.c:58
    DMA_InitStructure.DMA_BufferSize = size;                                //
    31f4:	fb042783          	lw	a5,-80(s0)
    31f8:	fcf42823          	sw	a5,-48(s0)
C:\Users\windows\Desktop\A_Dual\A_Dual1\Dual-core_Communication_Demo\Dual-core_Communication_Demo\SLAVE\obj/../Libraries/seekfree_libraries/zf_camera.c:59
    DMA_InitStructure.DMA_PeripheralInc = DMA_PeripheralInc_Disable;        //
    31fc:	fc042a23          	sw	zero,-44(s0)
C:\Users\windows\Desktop\A_Dual\A_Dual1\Dual-core_Communication_Demo\Dual-core_Communication_Demo\SLAVE\obj/../Libraries/seekfree_libraries/zf_camera.c:60
    DMA_InitStructure.DMA_MemoryInc = DMA_MemoryInc_Enable;                 //+1
    3200:	08000793          	li	a5,128
    3204:	fcf42c23          	sw	a5,-40(s0)
C:\Users\windows\Desktop\A_Dual\A_Dual1\Dual-core_Communication_Demo\Dual-core_Communication_Demo\SLAVE\obj/../Libraries/seekfree_libraries/zf_camera.c:61
    DMA_InitStructure.DMA_PeripheralDataSize = DMA_PeripheralDataSize_Byte; //
    3208:	fc042e23          	sw	zero,-36(s0)
C:\Users\windows\Desktop\A_Dual\A_Dual1\Dual-core_Communication_Demo\Dual-core_Communication_Demo\SLAVE\obj/../Libraries/seekfree_libraries/zf_camera.c:62
    DMA_InitStructure.DMA_MemoryDataSize = DMA_MemoryDataSize_Byte;         //
    320c:	fe042023          	sw	zero,-32(s0)
C:\Users\windows\Desktop\A_Dual\A_Dual1\Dual-core_Communication_Demo\Dual-core_Communication_Demo\SLAVE\obj/../Libraries/seekfree_libraries/zf_camera.c:63
    DMA_InitStructure.DMA_Mode = DMA_Mode_Normal;                           //
    3210:	fe042223          	sw	zero,-28(s0)
C:\Users\windows\Desktop\A_Dual\A_Dual1\Dual-core_Communication_Demo\Dual-core_Communication_Demo\SLAVE\obj/../Libraries/seekfree_libraries/zf_camera.c:64
    DMA_InitStructure.DMA_Priority = DMA_Priority_VeryHigh;                 //
    3214:	678d                	lui	a5,0x3
    3216:	fef42423          	sw	a5,-24(s0)
C:\Users\windows\Desktop\A_Dual\A_Dual1\Dual-core_Communication_Demo\Dual-core_Communication_Demo\SLAVE\obj/../Libraries/seekfree_libraries/zf_camera.c:65
    DMA_InitStructure.DMA_M2M = DMA_M2M_Disable;                            //
    321a:	fe042623          	sw	zero,-20(s0)
C:\Users\windows\Desktop\A_Dual\A_Dual1\Dual-core_Communication_Demo\Dual-core_Communication_Demo\SLAVE\obj/../Libraries/seekfree_libraries/zf_camera.c:66
    DMA_Init(dma_ch, &DMA_InitStructure);
    321e:	fc440793          	addi	a5,s0,-60
    3222:	85be                	mv	a1,a5
    3224:	fbc42503          	lw	a0,-68(s0)
    3228:	8effd0ef          	jal	ra,b16 <DMA_Init>
C:\Users\windows\Desktop\A_Dual\A_Dual1\Dual-core_Communication_Demo\Dual-core_Communication_Demo\SLAVE\obj/../Libraries/seekfree_libraries/zf_camera.c:68

    DMA_ITConfig(dma_ch, DMA_IT_TC, ENABLE);                                //DMA
    322c:	4605                	li	a2,1
    322e:	4589                	li	a1,2
    3230:	fbc42503          	lw	a0,-68(s0)
    3234:	9cbfd0ef          	jal	ra,bfe <DMA_ITConfig>
C:\Users\windows\Desktop\A_Dual\A_Dual1\Dual-core_Communication_Demo\Dual-core_Communication_Demo\SLAVE\obj/../Libraries/seekfree_libraries/zf_camera.c:69
    DMA_Cmd(dma_ch, ENABLE);                                                //DMA1
    3238:	4585                	li	a1,1
    323a:	fbc42503          	lw	a0,-68(s0)
    323e:	981fd0ef          	jal	ra,bbe <DMA_Cmd>
C:\Users\windows\Desktop\A_Dual\A_Dual1\Dual-core_Communication_Demo\Dual-core_Communication_Demo\SLAVE\obj/../Libraries/seekfree_libraries/zf_camera.c:71

}
    3242:	0001                	nop
    3244:	40b6                	lw	ra,76(sp)
    3246:	4426                	lw	s0,72(sp)
    3248:	6161                	addi	sp,sp,80
    324a:	8082                	ret

0000324c <camera_tim_etr_init>:
camera_tim_etr_init():
C:\Users\windows\Desktop\A_Dual\A_Dual1\Dual-core_Communication_Demo\Dual-core_Communication_Demo\SLAVE\obj/../Libraries/seekfree_libraries/zf_camera.c:82
//  @param      pin                 
//  @return     void
//  Sample usage:                   camera_tim_etr_init(TIMER_1, A12);  //ERT
//-------------------------------------------------------------------------------------------------------------------
void camera_tim_etr_init(TIMERN_enum timern, PIN_enum pin)
{
    324c:	7179                	addi	sp,sp,-48
    324e:	d606                	sw	ra,44(sp)
    3250:	d422                	sw	s0,40(sp)
    3252:	1800                	addi	s0,sp,48
    3254:	fca42e23          	sw	a0,-36(s0)
    3258:	fcb42c23          	sw	a1,-40(s0)
C:\Users\windows\Desktop\A_Dual\A_Dual1\Dual-core_Communication_Demo\Dual-core_Communication_Demo\SLAVE\obj/../Libraries/seekfree_libraries/zf_camera.c:85
    TIM_TimeBaseInitTypeDef  TIM_TimeBaseStructure;

    RCC_APB2PeriphClockCmd(RCC_APB2Periph_AFIO, ENABLE);
    325c:	4585                	li	a1,1
    325e:	4505                	li	a0,1
    3260:	c54fe0ef          	jal	ra,16b4 <RCC_APB2PeriphClockCmd>
C:\Users\windows\Desktop\A_Dual\A_Dual1\Dual-core_Communication_Demo\Dual-core_Communication_Demo\SLAVE\obj/../Libraries/seekfree_libraries/zf_camera.c:86
    if(TIMER_1 == timern)
    3264:	fdc42783          	lw	a5,-36(s0)
    3268:	eb81                	bnez	a5,3278 <camera_tim_etr_init+0x2c>
C:\Users\windows\Desktop\A_Dual\A_Dual1\Dual-core_Communication_Demo\Dual-core_Communication_Demo\SLAVE\obj/../Libraries/seekfree_libraries/zf_camera.c:87
        RCC_APB2PeriphClockCmd(RCC_APB2Periph_TIM1, ENABLE);
    326a:	4585                	li	a1,1
    326c:	6785                	lui	a5,0x1
    326e:	80078513          	addi	a0,a5,-2048 # 800 <__stack_size>
    3272:	c42fe0ef          	jal	ra,16b4 <RCC_APB2PeriphClockCmd>
    3276:	a835                	j	32b2 <camera_tim_etr_init+0x66>
C:\Users\windows\Desktop\A_Dual\A_Dual1\Dual-core_Communication_Demo\Dual-core_Communication_Demo\SLAVE\obj/../Libraries/seekfree_libraries/zf_camera.c:88
    else if(TIMER_2 == timern)
    3278:	fdc42703          	lw	a4,-36(s0)
    327c:	4785                	li	a5,1
    327e:	00f71763          	bne	a4,a5,328c <camera_tim_etr_init+0x40>
C:\Users\windows\Desktop\A_Dual\A_Dual1\Dual-core_Communication_Demo\Dual-core_Communication_Demo\SLAVE\obj/../Libraries/seekfree_libraries/zf_camera.c:89
        RCC_APB1PeriphClockCmd(RCC_APB1Periph_TIM2, ENABLE);
    3282:	4585                	li	a1,1
    3284:	4505                	li	a0,1
    3286:	c74fe0ef          	jal	ra,16fa <RCC_APB1PeriphClockCmd>
    328a:	a025                	j	32b2 <camera_tim_etr_init+0x66>
C:\Users\windows\Desktop\A_Dual\A_Dual1\Dual-core_Communication_Demo\Dual-core_Communication_Demo\SLAVE\obj/../Libraries/seekfree_libraries/zf_camera.c:90
    else if(TIMER_3 == timern)
    328c:	fdc42703          	lw	a4,-36(s0)
    3290:	4789                	li	a5,2
    3292:	00f71763          	bne	a4,a5,32a0 <camera_tim_etr_init+0x54>
C:\Users\windows\Desktop\A_Dual\A_Dual1\Dual-core_Communication_Demo\Dual-core_Communication_Demo\SLAVE\obj/../Libraries/seekfree_libraries/zf_camera.c:91
        RCC_APB1PeriphClockCmd(RCC_APB1Periph_TIM3, ENABLE);
    3296:	4585                	li	a1,1
    3298:	4509                	li	a0,2
    329a:	c60fe0ef          	jal	ra,16fa <RCC_APB1PeriphClockCmd>
    329e:	a811                	j	32b2 <camera_tim_etr_init+0x66>
C:\Users\windows\Desktop\A_Dual\A_Dual1\Dual-core_Communication_Demo\Dual-core_Communication_Demo\SLAVE\obj/../Libraries/seekfree_libraries/zf_camera.c:92
    else if(TIMER_4 == timern)
    32a0:	fdc42703          	lw	a4,-36(s0)
    32a4:	478d                	li	a5,3
    32a6:	00f71663          	bne	a4,a5,32b2 <camera_tim_etr_init+0x66>
C:\Users\windows\Desktop\A_Dual\A_Dual1\Dual-core_Communication_Demo\Dual-core_Communication_Demo\SLAVE\obj/../Libraries/seekfree_libraries/zf_camera.c:93
        RCC_APB1PeriphClockCmd(RCC_APB1Periph_TIM4, ENABLE);
    32aa:	4585                	li	a1,1
    32ac:	4511                	li	a0,4
    32ae:	c4cfe0ef          	jal	ra,16fa <RCC_APB1PeriphClockCmd>
C:\Users\windows\Desktop\A_Dual\A_Dual1\Dual-core_Communication_Demo\Dual-core_Communication_Demo\SLAVE\obj/../Libraries/seekfree_libraries/zf_camera.c:95

    gpio_init(pin, GPI, 0, IN_FLOAT);
    32b2:	4691                	li	a3,4
    32b4:	4601                	li	a2,0
    32b6:	4581                	li	a1,0
    32b8:	fd842503          	lw	a0,-40(s0)
    32bc:	28e9                	jal	3396 <gpio_init>
C:\Users\windows\Desktop\A_Dual\A_Dual1\Dual-core_Communication_Demo\Dual-core_Communication_Demo\SLAVE\obj/../Libraries/seekfree_libraries/zf_camera.c:97

    TIM_TimeBaseStructure.TIM_Period = 0xFFFF;
    32be:	57fd                	li	a5,-1
    32c0:	fef41423          	sh	a5,-24(s0)
C:\Users\windows\Desktop\A_Dual\A_Dual1\Dual-core_Communication_Demo\Dual-core_Communication_Demo\SLAVE\obj/../Libraries/seekfree_libraries/zf_camera.c:98
    TIM_TimeBaseStructure.TIM_Prescaler = 0;
    32c4:	fe041223          	sh	zero,-28(s0)
C:\Users\windows\Desktop\A_Dual\A_Dual1\Dual-core_Communication_Demo\Dual-core_Communication_Demo\SLAVE\obj/../Libraries/seekfree_libraries/zf_camera.c:99
    TIM_TimeBaseStructure.TIM_ClockDivision = TIM_CKD_DIV1;
    32c8:	fe041523          	sh	zero,-22(s0)
C:\Users\windows\Desktop\A_Dual\A_Dual1\Dual-core_Communication_Demo\Dual-core_Communication_Demo\SLAVE\obj/../Libraries/seekfree_libraries/zf_camera.c:100
    TIM_TimeBaseStructure.TIM_CounterMode = TIM_CounterMode_Up;
    32cc:	fe041323          	sh	zero,-26(s0)
C:\Users\windows\Desktop\A_Dual\A_Dual1\Dual-core_Communication_Demo\Dual-core_Communication_Demo\SLAVE\obj/../Libraries/seekfree_libraries/zf_camera.c:101
    TIM_TimeBaseStructure.TIM_RepetitionCounter = 0;
    32d0:	fe040623          	sb	zero,-20(s0)
C:\Users\windows\Desktop\A_Dual\A_Dual1\Dual-core_Communication_Demo\Dual-core_Communication_Demo\SLAVE\obj/../Libraries/seekfree_libraries/zf_camera.c:102
    TIM_TimeBaseInit((TIM_TypeDef*)(TIMERN[timern]), &TIM_TimeBaseStructure);
    32d4:	6799                	lui	a5,0x6
    32d6:	fdc42703          	lw	a4,-36(s0)
    32da:	070a                	slli	a4,a4,0x2
    32dc:	1cc78793          	addi	a5,a5,460 # 61cc <TIMERN>
    32e0:	97ba                	add	a5,a5,a4
    32e2:	439c                	lw	a5,0(a5)
    32e4:	873e                	mv	a4,a5
    32e6:	fe440793          	addi	a5,s0,-28
    32ea:	85be                	mv	a1,a5
    32ec:	853a                	mv	a0,a4
    32ee:	da4fe0ef          	jal	ra,1892 <TIM_TimeBaseInit>
C:\Users\windows\Desktop\A_Dual\A_Dual1\Dual-core_Communication_Demo\Dual-core_Communication_Demo\SLAVE\obj/../Libraries/seekfree_libraries/zf_camera.c:104

    TIM_ETRClockMode1Config((TIM_TypeDef*)(TIMERN[timern]), TIM_ExtTRGPSC_OFF, TIM_ExtTRGPolarity_Inverted, 0x00);
    32f2:	6799                	lui	a5,0x6
    32f4:	fdc42703          	lw	a4,-36(s0)
    32f8:	070a                	slli	a4,a4,0x2
    32fa:	1cc78793          	addi	a5,a5,460 # 61cc <TIMERN>
    32fe:	97ba                	add	a5,a5,a4
    3300:	439c                	lw	a5,0(a5)
    3302:	4681                	li	a3,0
    3304:	6621                	lui	a2,0x8
    3306:	4581                	li	a1,0
    3308:	853e                	mv	a0,a5
    330a:	ff6fe0ef          	jal	ra,1b00 <TIM_ETRClockMode1Config>
C:\Users\windows\Desktop\A_Dual\A_Dual1\Dual-core_Communication_Demo\Dual-core_Communication_Demo\SLAVE\obj/../Libraries/seekfree_libraries/zf_camera.c:105
    TIM_SelectInputTrigger((TIM_TypeDef*)(TIMERN[timern]), TIM_TS_ETRF);
    330e:	6799                	lui	a5,0x6
    3310:	fdc42703          	lw	a4,-36(s0)
    3314:	070a                	slli	a4,a4,0x2
    3316:	1cc78793          	addi	a5,a5,460 # 61cc <TIMERN>
    331a:	97ba                	add	a5,a5,a4
    331c:	439c                	lw	a5,0(a5)
    331e:	07000593          	li	a1,112
    3322:	853e                	mv	a0,a5
    3324:	8e3fe0ef          	jal	ra,1c06 <TIM_SelectInputTrigger>
C:\Users\windows\Desktop\A_Dual\A_Dual1\Dual-core_Communication_Demo\Dual-core_Communication_Demo\SLAVE\obj/../Libraries/seekfree_libraries/zf_camera.c:106
    TIM_SelectSlaveMode((TIM_TypeDef*)(TIMERN[timern]), TIM_SlaveMode_Reset);                   //TIM
    3328:	6799                	lui	a5,0x6
    332a:	fdc42703          	lw	a4,-36(s0)
    332e:	070a                	slli	a4,a4,0x2
    3330:	1cc78793          	addi	a5,a5,460 # 61cc <TIMERN>
    3334:	97ba                	add	a5,a5,a4
    3336:	439c                	lw	a5,0(a5)
    3338:	4591                	li	a1,4
    333a:	853e                	mv	a0,a5
    333c:	9f1fe0ef          	jal	ra,1d2c <TIM_SelectSlaveMode>
C:\Users\windows\Desktop\A_Dual\A_Dual1\Dual-core_Communication_Demo\Dual-core_Communication_Demo\SLAVE\obj/../Libraries/seekfree_libraries/zf_camera.c:107
    TIM_SelectMasterSlaveMode((TIM_TypeDef*)(TIMERN[timern]), TIM_MasterSlaveMode_Enable);      //
    3340:	6799                	lui	a5,0x6
    3342:	fdc42703          	lw	a4,-36(s0)
    3346:	070a                	slli	a4,a4,0x2
    3348:	1cc78793          	addi	a5,a5,460 # 61cc <TIMERN>
    334c:	97ba                	add	a5,a5,a4
    334e:	439c                	lw	a5,0(a5)
    3350:	08000593          	li	a1,128
    3354:	853e                	mv	a0,a5
    3356:	a2dfe0ef          	jal	ra,1d82 <TIM_SelectMasterSlaveMode>
C:\Users\windows\Desktop\A_Dual\A_Dual1\Dual-core_Communication_Demo\Dual-core_Communication_Demo\SLAVE\obj/../Libraries/seekfree_libraries/zf_camera.c:109

    TIM_Cmd((TIM_TypeDef*)(TIMERN[timern]), ENABLE);
    335a:	6799                	lui	a5,0x6
    335c:	fdc42703          	lw	a4,-36(s0)
    3360:	070a                	slli	a4,a4,0x2
    3362:	1cc78793          	addi	a5,a5,460 # 61cc <TIMERN>
    3366:	97ba                	add	a5,a5,a4
    3368:	439c                	lw	a5,0(a5)
    336a:	4585                	li	a1,1
    336c:	853e                	mv	a0,a5
    336e:	e5afe0ef          	jal	ra,19c8 <TIM_Cmd>
C:\Users\windows\Desktop\A_Dual\A_Dual1\Dual-core_Communication_Demo\Dual-core_Communication_Demo\SLAVE\obj/../Libraries/seekfree_libraries/zf_camera.c:110
    TIM_DMACmd((TIM_TypeDef*)(TIMERN[timern]), TIM_DMA_Trigger, ENABLE);                        //TIM_DMA
    3372:	6799                	lui	a5,0x6
    3374:	fdc42703          	lw	a4,-36(s0)
    3378:	070a                	slli	a4,a4,0x2
    337a:	1cc78793          	addi	a5,a5,460 # 61cc <TIMERN>
    337e:	97ba                	add	a5,a5,a4
    3380:	439c                	lw	a5,0(a5)
    3382:	4605                	li	a2,1
    3384:	6591                	lui	a1,0x4
    3386:	853e                	mv	a0,a5
    3388:	f08fe0ef          	jal	ra,1a90 <TIM_DMACmd>
C:\Users\windows\Desktop\A_Dual\A_Dual1\Dual-core_Communication_Demo\Dual-core_Communication_Demo\SLAVE\obj/../Libraries/seekfree_libraries/zf_camera.c:111
}
    338c:	0001                	nop
    338e:	50b2                	lw	ra,44(sp)
    3390:	5422                	lw	s0,40(sp)
    3392:	6145                	addi	sp,sp,48
    3394:	8082                	ret

00003396 <gpio_init>:
gpio_init():
C:\Users\windows\Desktop\A_Dual\A_Dual1\Dual-core_Communication_Demo\Dual-core_Communication_Demo\SLAVE\obj/../Libraries/seekfree_libraries/zf_gpio.c:40
//  @param      pinconf     zf_gpio.hGPIOSPEED_enumGPIOMODE_enum | 
//  @return     void
//  Sample usage:           gpio_init(D0, GPO, 1, GPIO_PIN_CONFIG);//D0GPIO100MHZ 
//-------------------------------------------------------------------------------------------------------------------
void gpio_init(PIN_enum pin, GPIODIR_enum dir, uint8 dat, uint32 pinconf)
{
    3396:	7179                	addi	sp,sp,-48
    3398:	d606                	sw	ra,44(sp)
    339a:	d422                	sw	s0,40(sp)
    339c:	1800                	addi	s0,sp,48
    339e:	fca42e23          	sw	a0,-36(s0)
    33a2:	fcb42c23          	sw	a1,-40(s0)
    33a6:	87b2                	mv	a5,a2
    33a8:	fcd42823          	sw	a3,-48(s0)
    33ac:	fcf40ba3          	sb	a5,-41(s0)
C:\Users\windows\Desktop\A_Dual\A_Dual1\Dual-core_Communication_Demo\Dual-core_Communication_Demo\SLAVE\obj/../Libraries/seekfree_libraries/zf_gpio.c:42
    GPIO_InitTypeDef GPIO_InitStructure;
    uint8 io_group = (pin & 0xE0) >> 5;
    33b0:	fdc42783          	lw	a5,-36(s0)
    33b4:	8395                	srli	a5,a5,0x5
    33b6:	0ff7f793          	andi	a5,a5,255
    33ba:	8b9d                	andi	a5,a5,7
    33bc:	fef407a3          	sb	a5,-17(s0)
C:\Users\windows\Desktop\A_Dual\A_Dual1\Dual-core_Communication_Demo\Dual-core_Communication_Demo\SLAVE\obj/../Libraries/seekfree_libraries/zf_gpio.c:43
    uint8 io_pin = pin & 0x1F;
    33c0:	fdc42783          	lw	a5,-36(s0)
    33c4:	0ff7f793          	andi	a5,a5,255
    33c8:	8bfd                	andi	a5,a5,31
    33ca:	fef40723          	sb	a5,-18(s0)
C:\Users\windows\Desktop\A_Dual\A_Dual1\Dual-core_Communication_Demo\Dual-core_Communication_Demo\SLAVE\obj/../Libraries/seekfree_libraries/zf_gpio.c:46


    if(PIN_NULL == pin) return;
    33ce:	fdc42703          	lw	a4,-36(s0)
    33d2:	08000793          	li	a5,128
    33d6:	14f70d63          	beq	a4,a5,3530 <gpio_init+0x19a>
C:\Users\windows\Desktop\A_Dual\A_Dual1\Dual-core_Communication_Demo\Dual-core_Communication_Demo\SLAVE\obj/../Libraries/seekfree_libraries/zf_gpio.c:48
    //GPIO
    if(0 == (pin >> 5))      RCC_APB2PeriphClockCmd(RCC_APB2Periph_GPIOA, ENABLE);
    33da:	fdc42783          	lw	a5,-36(s0)
    33de:	8395                	srli	a5,a5,0x5
    33e0:	e791                	bnez	a5,33ec <gpio_init+0x56>
C:\Users\windows\Desktop\A_Dual\A_Dual1\Dual-core_Communication_Demo\Dual-core_Communication_Demo\SLAVE\obj/../Libraries/seekfree_libraries/zf_gpio.c:48 (discriminator 1)
    33e2:	4585                	li	a1,1
    33e4:	4511                	li	a0,4
    33e6:	acefe0ef          	jal	ra,16b4 <RCC_APB2PeriphClockCmd>
    33ea:	a861                	j	3482 <gpio_init+0xec>
C:\Users\windows\Desktop\A_Dual\A_Dual1\Dual-core_Communication_Demo\Dual-core_Communication_Demo\SLAVE\obj/../Libraries/seekfree_libraries/zf_gpio.c:49
    else if(1 == (pin >> 5)) RCC_APB2PeriphClockCmd(RCC_APB2Periph_GPIOB, ENABLE);
    33ec:	fdc42783          	lw	a5,-36(s0)
    33f0:	0057d713          	srli	a4,a5,0x5
    33f4:	4785                	li	a5,1
    33f6:	00f71763          	bne	a4,a5,3404 <gpio_init+0x6e>
C:\Users\windows\Desktop\A_Dual\A_Dual1\Dual-core_Communication_Demo\Dual-core_Communication_Demo\SLAVE\obj/../Libraries/seekfree_libraries/zf_gpio.c:49 (discriminator 1)
    33fa:	4585                	li	a1,1
    33fc:	4521                	li	a0,8
    33fe:	ab6fe0ef          	jal	ra,16b4 <RCC_APB2PeriphClockCmd>
    3402:	a041                	j	3482 <gpio_init+0xec>
C:\Users\windows\Desktop\A_Dual\A_Dual1\Dual-core_Communication_Demo\Dual-core_Communication_Demo\SLAVE\obj/../Libraries/seekfree_libraries/zf_gpio.c:50
    else if(2 == (pin >> 5)) RCC_APB2PeriphClockCmd(RCC_APB2Periph_GPIOC, ENABLE);
    3404:	fdc42783          	lw	a5,-36(s0)
    3408:	0057d713          	srli	a4,a5,0x5
    340c:	4789                	li	a5,2
    340e:	00f71763          	bne	a4,a5,341c <gpio_init+0x86>
C:\Users\windows\Desktop\A_Dual\A_Dual1\Dual-core_Communication_Demo\Dual-core_Communication_Demo\SLAVE\obj/../Libraries/seekfree_libraries/zf_gpio.c:50 (discriminator 1)
    3412:	4585                	li	a1,1
    3414:	4541                	li	a0,16
    3416:	a9efe0ef          	jal	ra,16b4 <RCC_APB2PeriphClockCmd>
    341a:	a0a5                	j	3482 <gpio_init+0xec>
C:\Users\windows\Desktop\A_Dual\A_Dual1\Dual-core_Communication_Demo\Dual-core_Communication_Demo\SLAVE\obj/../Libraries/seekfree_libraries/zf_gpio.c:51
    else if(3 == (pin >> 5)) RCC_APB2PeriphClockCmd(RCC_APB2Periph_GPIOD, ENABLE);
    341c:	fdc42783          	lw	a5,-36(s0)
    3420:	0057d713          	srli	a4,a5,0x5
    3424:	478d                	li	a5,3
    3426:	00f71863          	bne	a4,a5,3436 <gpio_init+0xa0>
C:\Users\windows\Desktop\A_Dual\A_Dual1\Dual-core_Communication_Demo\Dual-core_Communication_Demo\SLAVE\obj/../Libraries/seekfree_libraries/zf_gpio.c:51 (discriminator 1)
    342a:	4585                	li	a1,1
    342c:	02000513          	li	a0,32
    3430:	a84fe0ef          	jal	ra,16b4 <RCC_APB2PeriphClockCmd>
    3434:	a0b9                	j	3482 <gpio_init+0xec>
C:\Users\windows\Desktop\A_Dual\A_Dual1\Dual-core_Communication_Demo\Dual-core_Communication_Demo\SLAVE\obj/../Libraries/seekfree_libraries/zf_gpio.c:52
    else if(4 == (pin >> 5)) RCC_APB2PeriphClockCmd(RCC_APB2Periph_GPIOE, ENABLE);
    3436:	fdc42783          	lw	a5,-36(s0)
    343a:	0057d713          	srli	a4,a5,0x5
    343e:	4791                	li	a5,4
    3440:	00f71863          	bne	a4,a5,3450 <gpio_init+0xba>
C:\Users\windows\Desktop\A_Dual\A_Dual1\Dual-core_Communication_Demo\Dual-core_Communication_Demo\SLAVE\obj/../Libraries/seekfree_libraries/zf_gpio.c:52 (discriminator 1)
    3444:	4585                	li	a1,1
    3446:	04000513          	li	a0,64
    344a:	a6afe0ef          	jal	ra,16b4 <RCC_APB2PeriphClockCmd>
    344e:	a815                	j	3482 <gpio_init+0xec>
C:\Users\windows\Desktop\A_Dual\A_Dual1\Dual-core_Communication_Demo\Dual-core_Communication_Demo\SLAVE\obj/../Libraries/seekfree_libraries/zf_gpio.c:53
    else if(5 == (pin >> 5)) RCC_APB2PeriphClockCmd(RCC_APB2Periph_GPIOF, ENABLE);
    3450:	fdc42783          	lw	a5,-36(s0)
    3454:	0057d713          	srli	a4,a5,0x5
    3458:	4795                	li	a5,5
    345a:	00f71863          	bne	a4,a5,346a <gpio_init+0xd4>
C:\Users\windows\Desktop\A_Dual\A_Dual1\Dual-core_Communication_Demo\Dual-core_Communication_Demo\SLAVE\obj/../Libraries/seekfree_libraries/zf_gpio.c:53 (discriminator 1)
    345e:	4585                	li	a1,1
    3460:	08000513          	li	a0,128
    3464:	a50fe0ef          	jal	ra,16b4 <RCC_APB2PeriphClockCmd>
    3468:	a829                	j	3482 <gpio_init+0xec>
C:\Users\windows\Desktop\A_Dual\A_Dual1\Dual-core_Communication_Demo\Dual-core_Communication_Demo\SLAVE\obj/../Libraries/seekfree_libraries/zf_gpio.c:54
    else if(6 == (pin >> 5)) RCC_APB2PeriphClockCmd(RCC_APB2Periph_GPIOG, ENABLE);
    346a:	fdc42783          	lw	a5,-36(s0)
    346e:	0057d713          	srli	a4,a5,0x5
    3472:	4799                	li	a5,6
    3474:	00f71763          	bne	a4,a5,3482 <gpio_init+0xec>
C:\Users\windows\Desktop\A_Dual\A_Dual1\Dual-core_Communication_Demo\Dual-core_Communication_Demo\SLAVE\obj/../Libraries/seekfree_libraries/zf_gpio.c:54 (discriminator 1)
    3478:	4585                	li	a1,1
    347a:	10000513          	li	a0,256
    347e:	a36fe0ef          	jal	ra,16b4 <RCC_APB2PeriphClockCmd>
C:\Users\windows\Desktop\A_Dual\A_Dual1\Dual-core_Communication_Demo\Dual-core_Communication_Demo\SLAVE\obj/../Libraries/seekfree_libraries/zf_gpio.c:58


    //
    GPIO_InitStructure.GPIO_Pin = (uint16)(1 << io_pin);
    3482:	fee44783          	lbu	a5,-18(s0)
    3486:	4705                	li	a4,1
    3488:	00f717b3          	sll	a5,a4,a5
    348c:	07c2                	slli	a5,a5,0x10
    348e:	83c1                	srli	a5,a5,0x10
    3490:	fef41023          	sh	a5,-32(s0)
C:\Users\windows\Desktop\A_Dual\A_Dual1\Dual-core_Communication_Demo\Dual-core_Communication_Demo\SLAVE\obj/../Libraries/seekfree_libraries/zf_gpio.c:60

    if(GPO == dir)
    3494:	fd842703          	lw	a4,-40(s0)
    3498:	4785                	li	a5,1
    349a:	02f71763          	bne	a4,a5,34c8 <gpio_init+0x132>
C:\Users\windows\Desktop\A_Dual\A_Dual1\Dual-core_Communication_Demo\Dual-core_Communication_Demo\SLAVE\obj/../Libraries/seekfree_libraries/zf_gpio.c:63
    {
        //
        if((uint16)pinconf >> 8 == 0) GPIO_InitStructure.GPIO_Speed = (GPIOSpeed_TypeDef)(GPIO_Speed_50MHz);  //,50Mhz
    349e:	fd042783          	lw	a5,-48(s0)
    34a2:	07c2                	slli	a5,a5,0x10
    34a4:	83c1                	srli	a5,a5,0x10
    34a6:	83a1                	srli	a5,a5,0x8
    34a8:	07c2                	slli	a5,a5,0x10
    34aa:	83c1                	srli	a5,a5,0x10
    34ac:	e789                	bnez	a5,34b6 <gpio_init+0x120>
C:\Users\windows\Desktop\A_Dual\A_Dual1\Dual-core_Communication_Demo\Dual-core_Communication_Demo\SLAVE\obj/../Libraries/seekfree_libraries/zf_gpio.c:63 (discriminator 1)
    34ae:	478d                	li	a5,3
    34b0:	fef42223          	sw	a5,-28(s0)
    34b4:	a811                	j	34c8 <gpio_init+0x132>
C:\Users\windows\Desktop\A_Dual\A_Dual1\Dual-core_Communication_Demo\Dual-core_Communication_Demo\SLAVE\obj/../Libraries/seekfree_libraries/zf_gpio.c:64
        else GPIO_InitStructure.GPIO_Speed = (GPIOSpeed_TypeDef)((uint16)pinconf >> 8);                       //
    34b6:	fd042783          	lw	a5,-48(s0)
    34ba:	07c2                	slli	a5,a5,0x10
    34bc:	83c1                	srli	a5,a5,0x10
    34be:	83a1                	srli	a5,a5,0x8
    34c0:	07c2                	slli	a5,a5,0x10
    34c2:	83c1                	srli	a5,a5,0x10
    34c4:	fef42223          	sw	a5,-28(s0)
C:\Users\windows\Desktop\A_Dual\A_Dual1\Dual-core_Communication_Demo\Dual-core_Communication_Demo\SLAVE\obj/../Libraries/seekfree_libraries/zf_gpio.c:68
    }

    //
    GPIO_InitStructure.GPIO_Mode = (GPIOMode_TypeDef)((uint16)pinconf & 0xff);
    34c8:	fd042783          	lw	a5,-48(s0)
    34cc:	07c2                	slli	a5,a5,0x10
    34ce:	83c1                	srli	a5,a5,0x10
    34d0:	0ff7f793          	andi	a5,a5,255
    34d4:	fef42423          	sw	a5,-24(s0)
C:\Users\windows\Desktop\A_Dual\A_Dual1\Dual-core_Communication_Demo\Dual-core_Communication_Demo\SLAVE\obj/../Libraries/seekfree_libraries/zf_gpio.c:69
    GPIO_Init((GPIO_TypeDef *)(GPION[io_group]), &GPIO_InitStructure);
    34d8:	fef44703          	lbu	a4,-17(s0)
    34dc:	6799                	lui	a5,0x6
    34de:	070a                	slli	a4,a4,0x2
    34e0:	1a478793          	addi	a5,a5,420 # 61a4 <GPION>
    34e4:	97ba                	add	a5,a5,a4
    34e6:	439c                	lw	a5,0(a5)
    34e8:	873e                	mv	a4,a5
    34ea:	fe040793          	addi	a5,s0,-32
    34ee:	85be                	mv	a1,a5
    34f0:	853a                	mv	a0,a4
    34f2:	9d1fd0ef          	jal	ra,ec2 <GPIO_Init>
C:\Users\windows\Desktop\A_Dual\A_Dual1\Dual-core_Communication_Demo\Dual-core_Communication_Demo\SLAVE\obj/../Libraries/seekfree_libraries/zf_gpio.c:71

    if(GPO == dir)
    34f6:	fd842703          	lw	a4,-40(s0)
    34fa:	4785                	li	a5,1
    34fc:	02f71b63          	bne	a4,a5,3532 <gpio_init+0x19c>
C:\Users\windows\Desktop\A_Dual\A_Dual1\Dual-core_Communication_Demo\Dual-core_Communication_Demo\SLAVE\obj/../Libraries/seekfree_libraries/zf_gpio.c:74
    {
        //
        GPIO_WriteBit((GPIO_TypeDef *)(GPION[io_group]), (uint16)(1 << io_pin), dat);
    3500:	fef44703          	lbu	a4,-17(s0)
    3504:	6799                	lui	a5,0x6
    3506:	070a                	slli	a4,a4,0x2
    3508:	1a478793          	addi	a5,a5,420 # 61a4 <GPION>
    350c:	97ba                	add	a5,a5,a4
    350e:	439c                	lw	a5,0(a5)
    3510:	86be                	mv	a3,a5
    3512:	fee44783          	lbu	a5,-18(s0)
    3516:	4705                	li	a4,1
    3518:	00f717b3          	sll	a5,a4,a5
    351c:	07c2                	slli	a5,a5,0x10
    351e:	83c1                	srli	a5,a5,0x10
    3520:	fd744703          	lbu	a4,-41(s0)
    3524:	863a                	mv	a2,a4
    3526:	85be                	mv	a1,a5
    3528:	8536                	mv	a0,a3
    352a:	bc3fd0ef          	jal	ra,10ec <GPIO_WriteBit>
    352e:	a011                	j	3532 <gpio_init+0x19c>
C:\Users\windows\Desktop\A_Dual\A_Dual1\Dual-core_Communication_Demo\Dual-core_Communication_Demo\SLAVE\obj/../Libraries/seekfree_libraries/zf_gpio.c:46
    if(PIN_NULL == pin) return;
    3530:	0001                	nop
C:\Users\windows\Desktop\A_Dual\A_Dual1\Dual-core_Communication_Demo\Dual-core_Communication_Demo\SLAVE\obj/../Libraries/seekfree_libraries/zf_gpio.c:76
    }
}
    3532:	50b2                	lw	ra,44(sp)
    3534:	5422                	lw	s0,40(sp)
    3536:	6145                	addi	sp,sp,48
    3538:	8082                	ret

0000353a <gpio_interrupt_init>:
gpio_interrupt_init():
C:\Users\windows\Desktop\A_Dual\A_Dual1\Dual-core_Communication_Demo\Dual-core_Communication_Demo\SLAVE\obj/../Libraries/seekfree_libraries/zf_gpio.c:141
//  @param      trigger      hTRIGGER_enum
//  @return     void
//  Sample usage:           gpio_interrupt_init(D0, RISING, GPIO_INT_CONFIG);//D0
//-------------------------------------------------------------------------------------------------------------------
void gpio_interrupt_init(PIN_enum pin,TRIGGER_enum trigger, uint32 pinconf)
{
    353a:	7179                	addi	sp,sp,-48
    353c:	d606                	sw	ra,44(sp)
    353e:	d422                	sw	s0,40(sp)
    3540:	1800                	addi	s0,sp,48
    3542:	fca42e23          	sw	a0,-36(s0)
    3546:	fcb42c23          	sw	a1,-40(s0)
    354a:	fcc42a23          	sw	a2,-44(s0)
C:\Users\windows\Desktop\A_Dual\A_Dual1\Dual-core_Communication_Demo\Dual-core_Communication_Demo\SLAVE\obj/../Libraries/seekfree_libraries/zf_gpio.c:143
    EXTI_InitTypeDef EXTI_InitStructure;
    RCC_APB2PeriphClockCmd(RCC_APB2Periph_AFIO,ENABLE);
    354e:	4585                	li	a1,1
    3550:	4505                	li	a0,1
    3552:	962fe0ef          	jal	ra,16b4 <RCC_APB2PeriphClockCmd>
C:\Users\windows\Desktop\A_Dual\A_Dual1\Dual-core_Communication_Demo\Dual-core_Communication_Demo\SLAVE\obj/../Libraries/seekfree_libraries/zf_gpio.c:144
    gpio_init(pin, GPI, 0, pinconf);
    3556:	fd442683          	lw	a3,-44(s0)
    355a:	4601                	li	a2,0
    355c:	4581                	li	a1,0
    355e:	fdc42503          	lw	a0,-36(s0)
    3562:	3d15                	jal	3396 <gpio_init>
C:\Users\windows\Desktop\A_Dual\A_Dual1\Dual-core_Communication_Demo\Dual-core_Communication_Demo\SLAVE\obj/../Libraries/seekfree_libraries/zf_gpio.c:145
    GPIO_EXTILineConfig(pin >> 5, pin & 0x1F);              //
    3564:	fdc42783          	lw	a5,-36(s0)
    3568:	8395                	srli	a5,a5,0x5
    356a:	0ff7f713          	andi	a4,a5,255
    356e:	fdc42783          	lw	a5,-36(s0)
    3572:	0ff7f793          	andi	a5,a5,255
    3576:	8bfd                	andi	a5,a5,31
    3578:	0ff7f793          	andi	a5,a5,255
    357c:	85be                	mv	a1,a5
    357e:	853a                	mv	a0,a4
    3580:	ce1fd0ef          	jal	ra,1260 <GPIO_EXTILineConfig>
C:\Users\windows\Desktop\A_Dual\A_Dual1\Dual-core_Communication_Demo\Dual-core_Communication_Demo\SLAVE\obj/../Libraries/seekfree_libraries/zf_gpio.c:146
    EXTI_InitStructure.EXTI_Line = 1 << (pin & 0x1F);       //
    3584:	fdc42783          	lw	a5,-36(s0)
    3588:	8bfd                	andi	a5,a5,31
    358a:	4705                	li	a4,1
    358c:	00f717b3          	sll	a5,a4,a5
    3590:	fef42023          	sw	a5,-32(s0)
C:\Users\windows\Desktop\A_Dual\A_Dual1\Dual-core_Communication_Demo\Dual-core_Communication_Demo\SLAVE\obj/../Libraries/seekfree_libraries/zf_gpio.c:147
    EXTI_InitStructure.EXTI_Mode = EXTI_Mode_Interrupt;     //
    3594:	fe042223          	sw	zero,-28(s0)
C:\Users\windows\Desktop\A_Dual\A_Dual1\Dual-core_Communication_Demo\Dual-core_Communication_Demo\SLAVE\obj/../Libraries/seekfree_libraries/zf_gpio.c:148
    EXTI_InitStructure.EXTI_Trigger = trigger;              //
    3598:	fd842783          	lw	a5,-40(s0)
    359c:	fef42423          	sw	a5,-24(s0)
C:\Users\windows\Desktop\A_Dual\A_Dual1\Dual-core_Communication_Demo\Dual-core_Communication_Demo\SLAVE\obj/../Libraries/seekfree_libraries/zf_gpio.c:149
    EXTI_InitStructure.EXTI_LineCmd = ENABLE;               //
    35a0:	4785                	li	a5,1
    35a2:	fef42623          	sw	a5,-20(s0)
C:\Users\windows\Desktop\A_Dual\A_Dual1\Dual-core_Communication_Demo\Dual-core_Communication_Demo\SLAVE\obj/../Libraries/seekfree_libraries/zf_gpio.c:150
    EXTI_Init(&EXTI_InitStructure);
    35a6:	fe040793          	addi	a5,s0,-32
    35aa:	853e                	mv	a0,a5
    35ac:	f30fd0ef          	jal	ra,cdc <EXTI_Init>
C:\Users\windows\Desktop\A_Dual\A_Dual1\Dual-core_Communication_Demo\Dual-core_Communication_Demo\SLAVE\obj/../Libraries/seekfree_libraries/zf_gpio.c:151
}
    35b0:	0001                	nop
    35b2:	50b2                	lw	ra,44(sp)
    35b4:	5422                	lw	s0,40(sp)
    35b6:	6145                	addi	sp,sp,48
    35b8:	8082                	ret

000035ba <nvic_init>:
nvic_init():
C:\Users\windows\Desktop\A_Dual\A_Dual1\Dual-core_Communication_Demo\Dual-core_Communication_Demo\SLAVE\obj/../Libraries/seekfree_libraries/zf_nvic.c:38
//  @param      status                      
//  @return     void
//  Sample usage:                           nvic_init(EXTI0_IRQn,0, 0, ENABLE); //0,
//-------------------------------------------------------------------------------------------------------------------
void nvic_init(IRQn_Type irqn,uint8 preemption_priority, uint8 sub_priority,uint8 status)
{
    35ba:	7179                	addi	sp,sp,-48
    35bc:	d606                	sw	ra,44(sp)
    35be:	d422                	sw	s0,40(sp)
    35c0:	1800                	addi	s0,sp,48
    35c2:	fca42e23          	sw	a0,-36(s0)
    35c6:	87ae                	mv	a5,a1
    35c8:	8736                	mv	a4,a3
    35ca:	fcf40da3          	sb	a5,-37(s0)
    35ce:	87b2                	mv	a5,a2
    35d0:	fcf40d23          	sb	a5,-38(s0)
    35d4:	87ba                	mv	a5,a4
    35d6:	fcf40ca3          	sb	a5,-39(s0)
C:\Users\windows\Desktop\A_Dual\A_Dual1\Dual-core_Communication_Demo\Dual-core_Communication_Demo\SLAVE\obj/../Libraries/seekfree_libraries/zf_nvic.c:41
    NVIC_InitTypeDef NVIC_InitStructure;

    NVIC_InitStructure.NVIC_IRQChannel = irqn;                                  //
    35da:	fdc42783          	lw	a5,-36(s0)
    35de:	0ff7f793          	andi	a5,a5,255
    35e2:	fef40423          	sb	a5,-24(s0)
C:\Users\windows\Desktop\A_Dual\A_Dual1\Dual-core_Communication_Demo\Dual-core_Communication_Demo\SLAVE\obj/../Libraries/seekfree_libraries/zf_nvic.c:42
    NVIC_InitStructure.NVIC_IRQChannelPreemptionPriority=preemption_priority;   //
    35e6:	fdb44783          	lbu	a5,-37(s0)
    35ea:	fef404a3          	sb	a5,-23(s0)
C:\Users\windows\Desktop\A_Dual\A_Dual1\Dual-core_Communication_Demo\Dual-core_Communication_Demo\SLAVE\obj/../Libraries/seekfree_libraries/zf_nvic.c:43
    NVIC_InitStructure.NVIC_IRQChannelSubPriority = sub_priority;               //
    35ee:	fda44783          	lbu	a5,-38(s0)
    35f2:	fef40523          	sb	a5,-22(s0)
C:\Users\windows\Desktop\A_Dual\A_Dual1\Dual-core_Communication_Demo\Dual-core_Communication_Demo\SLAVE\obj/../Libraries/seekfree_libraries/zf_nvic.c:44
    NVIC_InitStructure.NVIC_IRQChannelCmd = status;                             //
    35f6:	fd944783          	lbu	a5,-39(s0)
    35fa:	fef42623          	sw	a5,-20(s0)
C:\Users\windows\Desktop\A_Dual\A_Dual1\Dual-core_Communication_Demo\Dual-core_Communication_Demo\SLAVE\obj/../Libraries/seekfree_libraries/zf_nvic.c:45
    NVIC_Init(&NVIC_InitStructure);
    35fe:	fe840793          	addi	a5,s0,-24
    3602:	853e                	mv	a0,a5
    3604:	d8dfd0ef          	jal	ra,1390 <NVIC_Init>
C:\Users\windows\Desktop\A_Dual\A_Dual1\Dual-core_Communication_Demo\Dual-core_Communication_Demo\SLAVE\obj/../Libraries/seekfree_libraries/zf_nvic.c:48

    //
    irq_status.ienr0 |= (PFIC->ISR[0] & 0xFFFFF000);    //[31:12]
    3608:	e000e7b7          	lui	a5,0xe000e
    360c:	4398                	lw	a4,0(a5)
    360e:	77fd                	lui	a5,0xfffff
    3610:	8f7d                	and	a4,a4,a5
    3612:	200027b7          	lui	a5,0x20002
    3616:	6347a783          	lw	a5,1588(a5) # 20002634 <irq_status>
    361a:	8f5d                	or	a4,a4,a5
    361c:	200027b7          	lui	a5,0x20002
    3620:	62e7aa23          	sw	a4,1588(a5) # 20002634 <irq_status>
C:\Users\windows\Desktop\A_Dual\A_Dual1\Dual-core_Communication_Demo\Dual-core_Communication_Demo\SLAVE\obj/../Libraries/seekfree_libraries/zf_nvic.c:49
    irq_status.ienr1 |= (PFIC->ISR[1] & 0x0FFFFFFF);    //[27:0]
    3624:	e000e7b7          	lui	a5,0xe000e
    3628:	43d8                	lw	a4,4(a5)
    362a:	100007b7          	lui	a5,0x10000
    362e:	17fd                	addi	a5,a5,-1
    3630:	8f7d                	and	a4,a4,a5
    3632:	200027b7          	lui	a5,0x20002
    3636:	63478793          	addi	a5,a5,1588 # 20002634 <irq_status>
    363a:	43dc                	lw	a5,4(a5)
    363c:	8f5d                	or	a4,a4,a5
    363e:	200027b7          	lui	a5,0x20002
    3642:	63478793          	addi	a5,a5,1588 # 20002634 <irq_status>
    3646:	c3d8                	sw	a4,4(a5)
C:\Users\windows\Desktop\A_Dual\A_Dual1\Dual-core_Communication_Demo\Dual-core_Communication_Demo\SLAVE\obj/../Libraries/seekfree_libraries/zf_nvic.c:50
    if(irq_status.flag == 1)
    3648:	200027b7          	lui	a5,0x20002
    364c:	63478793          	addi	a5,a5,1588 # 20002634 <irq_status>
    3650:	0087c703          	lbu	a4,8(a5)
    3654:	4785                	li	a5,1
    3656:	00f71363          	bne	a4,a5,365c <nvic_init+0xa2>
C:\Users\windows\Desktop\A_Dual\A_Dual1\Dual-core_Communication_Demo\Dual-core_Communication_Demo\SLAVE\obj/../Libraries/seekfree_libraries/zf_nvic.c:52
    {
        close_all_irq();
    365a:	2031                	jal	3666 <close_all_irq>
C:\Users\windows\Desktop\A_Dual\A_Dual1\Dual-core_Communication_Demo\Dual-core_Communication_Demo\SLAVE\obj/../Libraries/seekfree_libraries/zf_nvic.c:54
    }
}
    365c:	0001                	nop
    365e:	50b2                	lw	ra,44(sp)
    3660:	5422                	lw	s0,40(sp)
    3662:	6145                	addi	sp,sp,48
    3664:	8082                	ret

00003666 <close_all_irq>:
close_all_irq():
C:\Users\windows\Desktop\A_Dual\A_Dual1\Dual-core_Communication_Demo\Dual-core_Communication_Demo\SLAVE\obj/../Libraries/seekfree_libraries/zf_nvic.c:63
//  @return     void
//  @since      v1.0
//  Sample usage:
//-------------------------------------------------------------------------------------------------------------------
void close_all_irq(void)
{
    3666:	1141                	addi	sp,sp,-16
    3668:	c622                	sw	s0,12(sp)
    366a:	0800                	addi	s0,sp,16
C:\Users\windows\Desktop\A_Dual\A_Dual1\Dual-core_Communication_Demo\Dual-core_Communication_Demo\SLAVE\obj/../Libraries/seekfree_libraries/zf_nvic.c:65
    //1
    PFIC->IRER[0] = 0xffffffff;
    366c:	e000e7b7          	lui	a5,0xe000e
    3670:	577d                	li	a4,-1
    3672:	18e7a023          	sw	a4,384(a5) # e000e180 <_eusrstack+0xc0009180>
C:\Users\windows\Desktop\A_Dual\A_Dual1\Dual-core_Communication_Demo\Dual-core_Communication_Demo\SLAVE\obj/../Libraries/seekfree_libraries/zf_nvic.c:66
    PFIC->IRER[1] = 0xffffffff;
    3676:	e000e7b7          	lui	a5,0xe000e
    367a:	577d                	li	a4,-1
    367c:	18e7a223          	sw	a4,388(a5) # e000e184 <_eusrstack+0xc0009184>
C:\Users\windows\Desktop\A_Dual\A_Dual1\Dual-core_Communication_Demo\Dual-core_Communication_Demo\SLAVE\obj/../Libraries/seekfree_libraries/zf_nvic.c:67
}
    3680:	0001                	nop
    3682:	4432                	lw	s0,12(sp)
    3684:	0141                	addi	sp,sp,16
    3686:	8082                	ret

00003688 <sys_recover_irq>:
sys_recover_irq():
C:\Users\windows\Desktop\A_Dual\A_Dual1\Dual-core_Communication_Demo\Dual-core_Communication_Demo\SLAVE\obj/../Libraries/seekfree_libraries/zf_nvic.c:77
//  @return     void
//  @since      v1.0
//  Sample usage:
//-------------------------------------------------------------------------------------------------------------------
void sys_recover_irq(void)
{
    3688:	1141                	addi	sp,sp,-16
    368a:	c622                	sw	s0,12(sp)
    368c:	0800                	addi	s0,sp,16
C:\Users\windows\Desktop\A_Dual\A_Dual1\Dual-core_Communication_Demo\Dual-core_Communication_Demo\SLAVE\obj/../Libraries/seekfree_libraries/zf_nvic.c:78
    PFIC->IENR[0] = irq_status.ienr0;
    368e:	e000e7b7          	lui	a5,0xe000e
    3692:	20002737          	lui	a4,0x20002
    3696:	63472703          	lw	a4,1588(a4) # 20002634 <irq_status>
    369a:	10e7a023          	sw	a4,256(a5) # e000e100 <_eusrstack+0xc0009100>
C:\Users\windows\Desktop\A_Dual\A_Dual1\Dual-core_Communication_Demo\Dual-core_Communication_Demo\SLAVE\obj/../Libraries/seekfree_libraries/zf_nvic.c:79
    PFIC->IENR[1] = irq_status.ienr1;
    369e:	e000e7b7          	lui	a5,0xe000e
    36a2:	20002737          	lui	a4,0x20002
    36a6:	63470713          	addi	a4,a4,1588 # 20002634 <irq_status>
    36aa:	4358                	lw	a4,4(a4)
    36ac:	10e7a223          	sw	a4,260(a5) # e000e104 <_eusrstack+0xc0009104>
C:\Users\windows\Desktop\A_Dual\A_Dual1\Dual-core_Communication_Demo\Dual-core_Communication_Demo\SLAVE\obj/../Libraries/seekfree_libraries/zf_nvic.c:80
}
    36b0:	0001                	nop
    36b2:	4432                	lw	s0,12(sp)
    36b4:	0141                	addi	sp,sp,16
    36b6:	8082                	ret

000036b8 <DisableGlobalIRQ>:
DisableGlobalIRQ():
C:\Users\windows\Desktop\A_Dual\A_Dual1\Dual-core_Communication_Demo\Dual-core_Communication_Demo\SLAVE\obj/../Libraries/seekfree_libraries/zf_nvic.c:90
//  @return     void
//  @since      v1.0
//  Sample usage:
//-------------------------------------------------------------------------------------------------------------------
uint8 DisableGlobalIRQ(void)
{
    36b8:	1101                	addi	sp,sp,-32
    36ba:	ce06                	sw	ra,28(sp)
    36bc:	cc22                	sw	s0,24(sp)
    36be:	1000                	addi	s0,sp,32
C:\Users\windows\Desktop\A_Dual\A_Dual1\Dual-core_Communication_Demo\Dual-core_Communication_Demo\SLAVE\obj/../Libraries/seekfree_libraries/zf_nvic.c:92
    uint8 state;
    irq_status.flag = 1;
    36c0:	200027b7          	lui	a5,0x20002
    36c4:	63478793          	addi	a5,a5,1588 # 20002634 <irq_status>
    36c8:	4705                	li	a4,1
    36ca:	00e78423          	sb	a4,8(a5)
C:\Users\windows\Desktop\A_Dual\A_Dual1\Dual-core_Communication_Demo\Dual-core_Communication_Demo\SLAVE\obj/../Libraries/seekfree_libraries/zf_nvic.c:93
    if((irq_status.ienr0 == 0) && (irq_status.ienr1 == 0))   state = 0;  //0
    36ce:	200027b7          	lui	a5,0x20002
    36d2:	6347a783          	lw	a5,1588(a5) # 20002634 <irq_status>
    36d6:	eb91                	bnez	a5,36ea <DisableGlobalIRQ+0x32>
C:\Users\windows\Desktop\A_Dual\A_Dual1\Dual-core_Communication_Demo\Dual-core_Communication_Demo\SLAVE\obj/../Libraries/seekfree_libraries/zf_nvic.c:93 (discriminator 1)
    36d8:	200027b7          	lui	a5,0x20002
    36dc:	63478793          	addi	a5,a5,1588 # 20002634 <irq_status>
    36e0:	43dc                	lw	a5,4(a5)
    36e2:	e781                	bnez	a5,36ea <DisableGlobalIRQ+0x32>
C:\Users\windows\Desktop\A_Dual\A_Dual1\Dual-core_Communication_Demo\Dual-core_Communication_Demo\SLAVE\obj/../Libraries/seekfree_libraries/zf_nvic.c:93 (discriminator 2)
    36e4:	fe0407a3          	sb	zero,-17(s0)
    36e8:	a021                	j	36f0 <DisableGlobalIRQ+0x38>
C:\Users\windows\Desktop\A_Dual\A_Dual1\Dual-core_Communication_Demo\Dual-core_Communication_Demo\SLAVE\obj/../Libraries/seekfree_libraries/zf_nvic.c:94
    else state = 1;  //1
    36ea:	4785                	li	a5,1
    36ec:	fef407a3          	sb	a5,-17(s0)
C:\Users\windows\Desktop\A_Dual\A_Dual1\Dual-core_Communication_Demo\Dual-core_Communication_Demo\SLAVE\obj/../Libraries/seekfree_libraries/zf_nvic.c:95
    close_all_irq();
    36f0:	3f9d                	jal	3666 <close_all_irq>
C:\Users\windows\Desktop\A_Dual\A_Dual1\Dual-core_Communication_Demo\Dual-core_Communication_Demo\SLAVE\obj/../Libraries/seekfree_libraries/zf_nvic.c:96
    return state;
    36f2:	fef44783          	lbu	a5,-17(s0)
C:\Users\windows\Desktop\A_Dual\A_Dual1\Dual-core_Communication_Demo\Dual-core_Communication_Demo\SLAVE\obj/../Libraries/seekfree_libraries/zf_nvic.c:97
}
    36f6:	853e                	mv	a0,a5
    36f8:	40f2                	lw	ra,28(sp)
    36fa:	4462                	lw	s0,24(sp)
    36fc:	6105                	addi	sp,sp,32
    36fe:	8082                	ret

00003700 <EnableGlobalIRQ>:
EnableGlobalIRQ():
C:\Users\windows\Desktop\A_Dual\A_Dual1\Dual-core_Communication_Demo\Dual-core_Communication_Demo\SLAVE\obj/../Libraries/seekfree_libraries/zf_nvic.c:107
//  @return     void
//  @since      v1.0
//  Sample usage:
//-------------------------------------------------------------------------------------------------------------------
void EnableGlobalIRQ(uint8 state)
{
    3700:	1101                	addi	sp,sp,-32
    3702:	ce06                	sw	ra,28(sp)
    3704:	cc22                	sw	s0,24(sp)
    3706:	1000                	addi	s0,sp,32
    3708:	87aa                	mv	a5,a0
    370a:	fef407a3          	sb	a5,-17(s0)
C:\Users\windows\Desktop\A_Dual\A_Dual1\Dual-core_Communication_Demo\Dual-core_Communication_Demo\SLAVE\obj/../Libraries/seekfree_libraries/zf_nvic.c:108
    if(state == 0)
    370e:	fef44783          	lbu	a5,-17(s0)
    3712:	eb81                	bnez	a5,3722 <EnableGlobalIRQ+0x22>
C:\Users\windows\Desktop\A_Dual\A_Dual1\Dual-core_Communication_Demo\Dual-core_Communication_Demo\SLAVE\obj/../Libraries/seekfree_libraries/zf_nvic.c:110
    {
        irq_status.flag = 0;
    3714:	200027b7          	lui	a5,0x20002
    3718:	63478793          	addi	a5,a5,1588 # 20002634 <irq_status>
    371c:	00078423          	sb	zero,8(a5)
C:\Users\windows\Desktop\A_Dual\A_Dual1\Dual-core_Communication_Demo\Dual-core_Communication_Demo\SLAVE\obj/../Libraries/seekfree_libraries/zf_nvic.c:111
        sys_recover_irq();
    3720:	37a5                	jal	3688 <sys_recover_irq>
C:\Users\windows\Desktop\A_Dual\A_Dual1\Dual-core_Communication_Demo\Dual-core_Communication_Demo\SLAVE\obj/../Libraries/seekfree_libraries/zf_nvic.c:113
    }
}
    3722:	0001                	nop
    3724:	40f2                	lw	ra,28(sp)
    3726:	4462                	lw	s0,24(sp)
    3728:	6105                	addi	sp,sp,32
    372a:	8082                	ret

0000372c <timer_pit_interrupt_ms>:
timer_pit_interrupt_ms():
C:\Users\windows\Desktop\A_Dual\A_Dual1\Dual-core_Communication_Demo\Dual-core_Communication_Demo\SLAVE\obj/../Libraries/seekfree_libraries/zf_pit.c:36
//  @param      ms          (1-32767)
//  @return     void
//  Sample usage:           timer_pit_interrupt(TIMER_1, 5); 15ms
//-------------------------------------------------------------------------------------------------------------------
void timer_pit_interrupt_ms(TIMERN_enum timern, uint16 ms)
{
    372c:	7179                	addi	sp,sp,-48
    372e:	d606                	sw	ra,44(sp)
    3730:	d422                	sw	s0,40(sp)
    3732:	1800                	addi	s0,sp,48
    3734:	fca42e23          	sw	a0,-36(s0)
    3738:	87ae                	mv	a5,a1
    373a:	fcf41d23          	sh	a5,-38(s0)
C:\Users\windows\Desktop\A_Dual\A_Dual1\Dual-core_Communication_Demo\Dual-core_Communication_Demo\SLAVE\obj/../Libraries/seekfree_libraries/zf_pit.c:39
    TIM_TimeBaseInitTypeDef  TIM_TimeBaseStructure;

    if(TIMER_1 == timern)
    373e:	fdc42783          	lw	a5,-36(s0)
    3742:	eb81                	bnez	a5,3752 <timer_pit_interrupt_ms+0x26>
C:\Users\windows\Desktop\A_Dual\A_Dual1\Dual-core_Communication_Demo\Dual-core_Communication_Demo\SLAVE\obj/../Libraries/seekfree_libraries/zf_pit.c:40
        RCC_APB2PeriphClockCmd(RCC_APB2Periph_TIM1, ENABLE);                //
    3744:	4585                	li	a1,1
    3746:	6785                	lui	a5,0x1
    3748:	80078513          	addi	a0,a5,-2048 # 800 <__stack_size>
    374c:	f69fd0ef          	jal	ra,16b4 <RCC_APB2PeriphClockCmd>
    3750:	a835                	j	378c <timer_pit_interrupt_ms+0x60>
C:\Users\windows\Desktop\A_Dual\A_Dual1\Dual-core_Communication_Demo\Dual-core_Communication_Demo\SLAVE\obj/../Libraries/seekfree_libraries/zf_pit.c:41
    else if(TIMER_2 == timern)
    3752:	fdc42703          	lw	a4,-36(s0)
    3756:	4785                	li	a5,1
    3758:	00f71763          	bne	a4,a5,3766 <timer_pit_interrupt_ms+0x3a>
C:\Users\windows\Desktop\A_Dual\A_Dual1\Dual-core_Communication_Demo\Dual-core_Communication_Demo\SLAVE\obj/../Libraries/seekfree_libraries/zf_pit.c:42
        RCC_APB1PeriphClockCmd(RCC_APB1Periph_TIM2, ENABLE);                //
    375c:	4585                	li	a1,1
    375e:	4505                	li	a0,1
    3760:	f9bfd0ef          	jal	ra,16fa <RCC_APB1PeriphClockCmd>
    3764:	a025                	j	378c <timer_pit_interrupt_ms+0x60>
C:\Users\windows\Desktop\A_Dual\A_Dual1\Dual-core_Communication_Demo\Dual-core_Communication_Demo\SLAVE\obj/../Libraries/seekfree_libraries/zf_pit.c:43
    else if(TIMER_3 == timern)
    3766:	fdc42703          	lw	a4,-36(s0)
    376a:	4789                	li	a5,2
    376c:	00f71763          	bne	a4,a5,377a <timer_pit_interrupt_ms+0x4e>
C:\Users\windows\Desktop\A_Dual\A_Dual1\Dual-core_Communication_Demo\Dual-core_Communication_Demo\SLAVE\obj/../Libraries/seekfree_libraries/zf_pit.c:44
        RCC_APB1PeriphClockCmd(RCC_APB1Periph_TIM3, ENABLE);                //
    3770:	4585                	li	a1,1
    3772:	4509                	li	a0,2
    3774:	f87fd0ef          	jal	ra,16fa <RCC_APB1PeriphClockCmd>
    3778:	a811                	j	378c <timer_pit_interrupt_ms+0x60>
C:\Users\windows\Desktop\A_Dual\A_Dual1\Dual-core_Communication_Demo\Dual-core_Communication_Demo\SLAVE\obj/../Libraries/seekfree_libraries/zf_pit.c:45
    else if(TIMER_4 == timern)
    377a:	fdc42703          	lw	a4,-36(s0)
    377e:	478d                	li	a5,3
    3780:	00f71663          	bne	a4,a5,378c <timer_pit_interrupt_ms+0x60>
C:\Users\windows\Desktop\A_Dual\A_Dual1\Dual-core_Communication_Demo\Dual-core_Communication_Demo\SLAVE\obj/../Libraries/seekfree_libraries/zf_pit.c:46
        RCC_APB1PeriphClockCmd(RCC_APB1Periph_TIM4, ENABLE);                //
    3784:	4585                	li	a1,1
    3786:	4511                	li	a0,4
    3788:	f73fd0ef          	jal	ra,16fa <RCC_APB1PeriphClockCmd>
C:\Users\windows\Desktop\A_Dual\A_Dual1\Dual-core_Communication_Demo\Dual-core_Communication_Demo\SLAVE\obj/../Libraries/seekfree_libraries/zf_pit.c:50

    //TIM3,
    //ATRLR1 012
    assert(ms);
    378c:	fda45783          	lhu	a5,-38(s0)
    3790:	ef91                	bnez	a5,37ac <timer_pit_interrupt_ms+0x80>
C:\Users\windows\Desktop\A_Dual\A_Dual1\Dual-core_Communication_Demo\Dual-core_Communication_Demo\SLAVE\obj/../Libraries/seekfree_libraries/zf_pit.c:50 (discriminator 1)
    3792:	6799                	lui	a5,0x6
    3794:	b5078693          	addi	a3,a5,-1200 # 5b50 <_exit+0x2>
    3798:	6799                	lui	a5,0x6
    379a:	1b478613          	addi	a2,a5,436 # 61b4 <__func__.3548>
    379e:	03200593          	li	a1,50
    37a2:	6799                	lui	a5,0x6
    37a4:	b5478513          	addi	a0,a5,-1196 # 5b54 <_exit+0x6>
    37a8:	106010ef          	jal	ra,48ae <__assert_func>
C:\Users\windows\Desktop\A_Dual\A_Dual1\Dual-core_Communication_Demo\Dual-core_Communication_Demo\SLAVE\obj/../Libraries/seekfree_libraries/zf_pit.c:53


    TIM_TimeBaseStructure.TIM_Period = sys_clk/2000 - 1;                    //44000
    37ac:	8381a703          	lw	a4,-1992(gp) # 20000150 <sys_clk>
    37b0:	7d000793          	li	a5,2000
    37b4:	02f757b3          	divu	a5,a4,a5
    37b8:	07c2                	slli	a5,a5,0x10
    37ba:	83c1                	srli	a5,a5,0x10
    37bc:	17fd                	addi	a5,a5,-1
    37be:	07c2                	slli	a5,a5,0x10
    37c0:	83c1                	srli	a5,a5,0x10
    37c2:	fef41423          	sh	a5,-24(s0)
C:\Users\windows\Desktop\A_Dual\A_Dual1\Dual-core_Communication_Demo\Dual-core_Communication_Demo\SLAVE\obj/../Libraries/seekfree_libraries/zf_pit.c:54
    TIM_TimeBaseStructure.TIM_Prescaler = 2*ms - 1;                      //1MHZ,1us
    37c6:	fda45783          	lhu	a5,-38(s0)
    37ca:	0786                	slli	a5,a5,0x1
    37cc:	07c2                	slli	a5,a5,0x10
    37ce:	83c1                	srli	a5,a5,0x10
    37d0:	17fd                	addi	a5,a5,-1
    37d2:	07c2                	slli	a5,a5,0x10
    37d4:	83c1                	srli	a5,a5,0x10
    37d6:	fef41223          	sh	a5,-28(s0)
C:\Users\windows\Desktop\A_Dual\A_Dual1\Dual-core_Communication_Demo\Dual-core_Communication_Demo\SLAVE\obj/../Libraries/seekfree_libraries/zf_pit.c:56

    TIM_TimeBaseStructure.TIM_ClockDivision = TIM_CKD_DIV1;                 //:TDTS = Tck_tim
    37da:	fe041523          	sh	zero,-22(s0)
C:\Users\windows\Desktop\A_Dual\A_Dual1\Dual-core_Communication_Demo\Dual-core_Communication_Demo\SLAVE\obj/../Libraries/seekfree_libraries/zf_pit.c:57
    TIM_TimeBaseStructure.TIM_CounterMode = TIM_CounterMode_Up;             //TIM
    37de:	fe041323          	sh	zero,-26(s0)
C:\Users\windows\Desktop\A_Dual\A_Dual1\Dual-core_Communication_Demo\Dual-core_Communication_Demo\SLAVE\obj/../Libraries/seekfree_libraries/zf_pit.c:58
    TIM_TimeBaseStructure.TIM_RepetitionCounter = 0;                        //0
    37e2:	fe040623          	sb	zero,-20(s0)
C:\Users\windows\Desktop\A_Dual\A_Dual1\Dual-core_Communication_Demo\Dual-core_Communication_Demo\SLAVE\obj/../Libraries/seekfree_libraries/zf_pit.c:59
    TIM_TimeBaseInit((TIM_TypeDef *)TIMERN[timern], &TIM_TimeBaseStructure);//TIMx
    37e6:	6799                	lui	a5,0x6
    37e8:	fdc42703          	lw	a4,-36(s0)
    37ec:	070a                	slli	a4,a4,0x2
    37ee:	1cc78793          	addi	a5,a5,460 # 61cc <TIMERN>
    37f2:	97ba                	add	a5,a5,a4
    37f4:	439c                	lw	a5,0(a5)
    37f6:	873e                	mv	a4,a5
    37f8:	fe440793          	addi	a5,s0,-28
    37fc:	85be                	mv	a1,a5
    37fe:	853a                	mv	a0,a4
    3800:	892fe0ef          	jal	ra,1892 <TIM_TimeBaseInit>
C:\Users\windows\Desktop\A_Dual\A_Dual1\Dual-core_Communication_Demo\Dual-core_Communication_Demo\SLAVE\obj/../Libraries/seekfree_libraries/zf_pit.c:61

    TIM_ITConfig((TIM_TypeDef *)TIMERN[timern],TIM_IT_Update,ENABLE );      //TIM,
    3804:	6799                	lui	a5,0x6
    3806:	fdc42703          	lw	a4,-36(s0)
    380a:	070a                	slli	a4,a4,0x2
    380c:	1cc78793          	addi	a5,a5,460 # 61cc <TIMERN>
    3810:	97ba                	add	a5,a5,a4
    3812:	439c                	lw	a5,0(a5)
    3814:	4605                	li	a2,1
    3816:	4585                	li	a1,1
    3818:	853e                	mv	a0,a5
    381a:	a06fe0ef          	jal	ra,1a20 <TIM_ITConfig>
C:\Users\windows\Desktop\A_Dual\A_Dual1\Dual-core_Communication_Demo\Dual-core_Communication_Demo\SLAVE\obj/../Libraries/seekfree_libraries/zf_pit.c:62
    TIM_ClearITPendingBit((TIM_TypeDef *)TIMERN[timern], TIM_IT_Update);
    381e:	6799                	lui	a5,0x6
    3820:	fdc42703          	lw	a4,-36(s0)
    3824:	070a                	slli	a4,a4,0x2
    3826:	1cc78793          	addi	a5,a5,460 # 61cc <TIMERN>
    382a:	97ba                	add	a5,a5,a4
    382c:	439c                	lw	a5,0(a5)
    382e:	4585                	li	a1,1
    3830:	853e                	mv	a0,a5
    3832:	e18fe0ef          	jal	ra,1e4a <TIM_ClearITPendingBit>
C:\Users\windows\Desktop\A_Dual\A_Dual1\Dual-core_Communication_Demo\Dual-core_Communication_Demo\SLAVE\obj/../Libraries/seekfree_libraries/zf_pit.c:65

    //NVIC
    if(TIMER_1 == timern)
    3836:	fdc42783          	lw	a5,-36(s0)
    383a:	eb81                	bnez	a5,384a <timer_pit_interrupt_ms+0x11e>
C:\Users\windows\Desktop\A_Dual\A_Dual1\Dual-core_Communication_Demo\Dual-core_Communication_Demo\SLAVE\obj/../Libraries/seekfree_libraries/zf_pit.c:66
        nvic_init(TIM1_UP_IRQn, 1, 2, ENABLE);
    383c:	4685                	li	a3,1
    383e:	4609                	li	a2,2
    3840:	4585                	li	a1,1
    3842:	02900513          	li	a0,41
    3846:	3b95                	jal	35ba <nvic_init>
    3848:	a0b1                	j	3894 <timer_pit_interrupt_ms+0x168>
C:\Users\windows\Desktop\A_Dual\A_Dual1\Dual-core_Communication_Demo\Dual-core_Communication_Demo\SLAVE\obj/../Libraries/seekfree_libraries/zf_pit.c:67
    else if(TIMER_2 == timern)
    384a:	fdc42703          	lw	a4,-36(s0)
    384e:	4785                	li	a5,1
    3850:	00f71963          	bne	a4,a5,3862 <timer_pit_interrupt_ms+0x136>
C:\Users\windows\Desktop\A_Dual\A_Dual1\Dual-core_Communication_Demo\Dual-core_Communication_Demo\SLAVE\obj/../Libraries/seekfree_libraries/zf_pit.c:68
        nvic_init(TIM2_IRQn, 1, 2, ENABLE);
    3854:	4685                	li	a3,1
    3856:	4609                	li	a2,2
    3858:	4585                	li	a1,1
    385a:	02c00513          	li	a0,44
    385e:	3bb1                	jal	35ba <nvic_init>
    3860:	a815                	j	3894 <timer_pit_interrupt_ms+0x168>
C:\Users\windows\Desktop\A_Dual\A_Dual1\Dual-core_Communication_Demo\Dual-core_Communication_Demo\SLAVE\obj/../Libraries/seekfree_libraries/zf_pit.c:69
    else if(TIMER_3 == timern)
    3862:	fdc42703          	lw	a4,-36(s0)
    3866:	4789                	li	a5,2
    3868:	00f71a63          	bne	a4,a5,387c <timer_pit_interrupt_ms+0x150>
C:\Users\windows\Desktop\A_Dual\A_Dual1\Dual-core_Communication_Demo\Dual-core_Communication_Demo\SLAVE\obj/../Libraries/seekfree_libraries/zf_pit.c:70
        nvic_init(TIM3_IRQn, 1, 2, ENABLE);
    386c:	4685                	li	a3,1
    386e:	4609                	li	a2,2
    3870:	4585                	li	a1,1
    3872:	02d00513          	li	a0,45
    3876:	d45ff0ef          	jal	ra,35ba <nvic_init>
    387a:	a829                	j	3894 <timer_pit_interrupt_ms+0x168>
C:\Users\windows\Desktop\A_Dual\A_Dual1\Dual-core_Communication_Demo\Dual-core_Communication_Demo\SLAVE\obj/../Libraries/seekfree_libraries/zf_pit.c:71
    else if(TIMER_4 == timern)
    387c:	fdc42703          	lw	a4,-36(s0)
    3880:	478d                	li	a5,3
    3882:	00f71963          	bne	a4,a5,3894 <timer_pit_interrupt_ms+0x168>
C:\Users\windows\Desktop\A_Dual\A_Dual1\Dual-core_Communication_Demo\Dual-core_Communication_Demo\SLAVE\obj/../Libraries/seekfree_libraries/zf_pit.c:72
        nvic_init(TIM4_IRQn, 1, 2, ENABLE);
    3886:	4685                	li	a3,1
    3888:	4609                	li	a2,2
    388a:	4585                	li	a1,1
    388c:	02e00513          	li	a0,46
    3890:	d2bff0ef          	jal	ra,35ba <nvic_init>
C:\Users\windows\Desktop\A_Dual\A_Dual1\Dual-core_Communication_Demo\Dual-core_Communication_Demo\SLAVE\obj/../Libraries/seekfree_libraries/zf_pit.c:74

    TIM_Cmd((TIM_TypeDef *)TIMERN[timern], ENABLE);  //TIMx
    3894:	6799                	lui	a5,0x6
    3896:	fdc42703          	lw	a4,-36(s0)
    389a:	070a                	slli	a4,a4,0x2
    389c:	1cc78793          	addi	a5,a5,460 # 61cc <TIMERN>
    38a0:	97ba                	add	a5,a5,a4
    38a2:	439c                	lw	a5,0(a5)
    38a4:	4585                	li	a1,1
    38a6:	853e                	mv	a0,a5
    38a8:	920fe0ef          	jal	ra,19c8 <TIM_Cmd>
C:\Users\windows\Desktop\A_Dual\A_Dual1\Dual-core_Communication_Demo\Dual-core_Communication_Demo\SLAVE\obj/../Libraries/seekfree_libraries/zf_pit.c:76

}
    38ac:	0001                	nop
    38ae:	50b2                	lw	ra,44(sp)
    38b0:	5422                	lw	s0,40(sp)
    38b2:	6145                	addi	sp,sp,48
    38b4:	8082                	ret

000038b6 <timer_gpio_quad_init>:
timer_gpio_quad_init():
C:\Users\windows\Desktop\A_Dual\A_Dual1\Dual-core_Communication_Demo\Dual-core_Communication_Demo\SLAVE\obj/../Libraries/seekfree_libraries/zf_qtimer.c:40
//  @param      phaseB      B
//  @return     void
//  Sample usage:           
//-------------------------------------------------------------------------------------------------------------------
void timer_gpio_quad_init(TIMER_PIN_enum phaseA, TIMER_PIN_enum phaseB)
{
    38b6:	1101                	addi	sp,sp,-32
    38b8:	ce06                	sw	ra,28(sp)
    38ba:	cc22                	sw	s0,24(sp)
    38bc:	1000                	addi	s0,sp,32
    38be:	fea42623          	sw	a0,-20(s0)
    38c2:	feb42423          	sw	a1,-24(s0)
C:\Users\windows\Desktop\A_Dual\A_Dual1\Dual-core_Communication_Demo\Dual-core_Communication_Demo\SLAVE\obj/../Libraries/seekfree_libraries/zf_qtimer.c:41
    if(TIMER1_CHA_A8 == phaseA)       gpio_init(A8, GPI, 0, IN_FLOAT);
    38c6:	fec42783          	lw	a5,-20(s0)
    38ca:	eb81                	bnez	a5,38da <timer_gpio_quad_init+0x24>
C:\Users\windows\Desktop\A_Dual\A_Dual1\Dual-core_Communication_Demo\Dual-core_Communication_Demo\SLAVE\obj/../Libraries/seekfree_libraries/zf_qtimer.c:41 (discriminator 1)
    38cc:	4691                	li	a3,4
    38ce:	4601                	li	a2,0
    38d0:	4581                	li	a1,0
    38d2:	4521                	li	a0,8
    38d4:	ac3ff0ef          	jal	ra,3396 <gpio_init>
    38d8:	a859                	j	396e <timer_gpio_quad_init+0xb8>
C:\Users\windows\Desktop\A_Dual\A_Dual1\Dual-core_Communication_Demo\Dual-core_Communication_Demo\SLAVE\obj/../Libraries/seekfree_libraries/zf_qtimer.c:42
    else if(TIMER2_CHA_A0 == phaseA)  gpio_init(A0, GPI, 0, IN_FLOAT);
    38da:	fec42703          	lw	a4,-20(s0)
    38de:	4789                	li	a5,2
    38e0:	00f71963          	bne	a4,a5,38f2 <timer_gpio_quad_init+0x3c>
C:\Users\windows\Desktop\A_Dual\A_Dual1\Dual-core_Communication_Demo\Dual-core_Communication_Demo\SLAVE\obj/../Libraries/seekfree_libraries/zf_qtimer.c:42 (discriminator 1)
    38e4:	4691                	li	a3,4
    38e6:	4601                	li	a2,0
    38e8:	4581                	li	a1,0
    38ea:	4501                	li	a0,0
    38ec:	aabff0ef          	jal	ra,3396 <gpio_init>
    38f0:	a8bd                	j	396e <timer_gpio_quad_init+0xb8>
C:\Users\windows\Desktop\A_Dual\A_Dual1\Dual-core_Communication_Demo\Dual-core_Communication_Demo\SLAVE\obj/../Libraries/seekfree_libraries/zf_qtimer.c:43
    else if(TIMER2_CHA_A15 == phaseA) gpio_init(A15, GPI, 0, IN_FLOAT);
    38f2:	fec42703          	lw	a4,-20(s0)
    38f6:	4791                	li	a5,4
    38f8:	00f71963          	bne	a4,a5,390a <timer_gpio_quad_init+0x54>
C:\Users\windows\Desktop\A_Dual\A_Dual1\Dual-core_Communication_Demo\Dual-core_Communication_Demo\SLAVE\obj/../Libraries/seekfree_libraries/zf_qtimer.c:43 (discriminator 1)
    38fc:	4691                	li	a3,4
    38fe:	4601                	li	a2,0
    3900:	4581                	li	a1,0
    3902:	453d                	li	a0,15
    3904:	a93ff0ef          	jal	ra,3396 <gpio_init>
    3908:	a09d                	j	396e <timer_gpio_quad_init+0xb8>
C:\Users\windows\Desktop\A_Dual\A_Dual1\Dual-core_Communication_Demo\Dual-core_Communication_Demo\SLAVE\obj/../Libraries/seekfree_libraries/zf_qtimer.c:44
    else if(TIMER3_CHA_A6 == phaseA)  gpio_init(A6, GPI, 0, IN_FLOAT);
    390a:	fec42703          	lw	a4,-20(s0)
    390e:	4799                	li	a5,6
    3910:	00f71963          	bne	a4,a5,3922 <timer_gpio_quad_init+0x6c>
C:\Users\windows\Desktop\A_Dual\A_Dual1\Dual-core_Communication_Demo\Dual-core_Communication_Demo\SLAVE\obj/../Libraries/seekfree_libraries/zf_qtimer.c:44 (discriminator 1)
    3914:	4691                	li	a3,4
    3916:	4601                	li	a2,0
    3918:	4581                	li	a1,0
    391a:	4519                	li	a0,6
    391c:	a7bff0ef          	jal	ra,3396 <gpio_init>
    3920:	a0b9                	j	396e <timer_gpio_quad_init+0xb8>
C:\Users\windows\Desktop\A_Dual\A_Dual1\Dual-core_Communication_Demo\Dual-core_Communication_Demo\SLAVE\obj/../Libraries/seekfree_libraries/zf_qtimer.c:45
    else if(TIMER3_CHA_C6 == phaseA)  gpio_init(C6, GPI, 0, IN_FLOAT);
    3922:	fec42703          	lw	a4,-20(s0)
    3926:	47a1                	li	a5,8
    3928:	00f71a63          	bne	a4,a5,393c <timer_gpio_quad_init+0x86>
C:\Users\windows\Desktop\A_Dual\A_Dual1\Dual-core_Communication_Demo\Dual-core_Communication_Demo\SLAVE\obj/../Libraries/seekfree_libraries/zf_qtimer.c:45 (discriminator 1)
    392c:	4691                	li	a3,4
    392e:	4601                	li	a2,0
    3930:	4581                	li	a1,0
    3932:	04600513          	li	a0,70
    3936:	a61ff0ef          	jal	ra,3396 <gpio_init>
    393a:	a815                	j	396e <timer_gpio_quad_init+0xb8>
C:\Users\windows\Desktop\A_Dual\A_Dual1\Dual-core_Communication_Demo\Dual-core_Communication_Demo\SLAVE\obj/../Libraries/seekfree_libraries/zf_qtimer.c:46
    else if(TIMER3_CHA_B4 == phaseA)  gpio_init(B4, GPI, 0, IN_FLOAT);
    393c:	fec42703          	lw	a4,-20(s0)
    3940:	47a9                	li	a5,10
    3942:	00f71a63          	bne	a4,a5,3956 <timer_gpio_quad_init+0xa0>
C:\Users\windows\Desktop\A_Dual\A_Dual1\Dual-core_Communication_Demo\Dual-core_Communication_Demo\SLAVE\obj/../Libraries/seekfree_libraries/zf_qtimer.c:46 (discriminator 1)
    3946:	4691                	li	a3,4
    3948:	4601                	li	a2,0
    394a:	4581                	li	a1,0
    394c:	02400513          	li	a0,36
    3950:	a47ff0ef          	jal	ra,3396 <gpio_init>
    3954:	a829                	j	396e <timer_gpio_quad_init+0xb8>
C:\Users\windows\Desktop\A_Dual\A_Dual1\Dual-core_Communication_Demo\Dual-core_Communication_Demo\SLAVE\obj/../Libraries/seekfree_libraries/zf_qtimer.c:47
    else if(TIMER4_CHA_B6 == phaseA)  gpio_init(B6, GPI, 0, IN_FLOAT);
    3956:	fec42703          	lw	a4,-20(s0)
    395a:	47b1                	li	a5,12
    395c:	00f71963          	bne	a4,a5,396e <timer_gpio_quad_init+0xb8>
C:\Users\windows\Desktop\A_Dual\A_Dual1\Dual-core_Communication_Demo\Dual-core_Communication_Demo\SLAVE\obj/../Libraries/seekfree_libraries/zf_qtimer.c:47 (discriminator 1)
    3960:	4691                	li	a3,4
    3962:	4601                	li	a2,0
    3964:	4581                	li	a1,0
    3966:	02600513          	li	a0,38
    396a:	a2dff0ef          	jal	ra,3396 <gpio_init>
C:\Users\windows\Desktop\A_Dual\A_Dual1\Dual-core_Communication_Demo\Dual-core_Communication_Demo\SLAVE\obj/../Libraries/seekfree_libraries/zf_qtimer.c:49

    if(TIMER1_CHB_A9 == phaseB)       gpio_init(A9, GPI, 0, IN_FLOAT);
    396e:	fe842703          	lw	a4,-24(s0)
    3972:	4785                	li	a5,1
    3974:	00f71963          	bne	a4,a5,3986 <timer_gpio_quad_init+0xd0>
C:\Users\windows\Desktop\A_Dual\A_Dual1\Dual-core_Communication_Demo\Dual-core_Communication_Demo\SLAVE\obj/../Libraries/seekfree_libraries/zf_qtimer.c:49 (discriminator 1)
    3978:	4691                	li	a3,4
    397a:	4601                	li	a2,0
    397c:	4581                	li	a1,0
    397e:	4525                	li	a0,9
    3980:	a17ff0ef          	jal	ra,3396 <gpio_init>
C:\Users\windows\Desktop\A_Dual\A_Dual1\Dual-core_Communication_Demo\Dual-core_Communication_Demo\SLAVE\obj/../Libraries/seekfree_libraries/zf_qtimer.c:57 (discriminator 1)
    else if(TIMER3_CHB_A7 == phaseB)  gpio_init(A7, GPI, 0, IN_FLOAT);
    else if(TIMER3_CHB_C7 == phaseB)  gpio_init(C7, GPI, 0, IN_FLOAT);
    else if(TIMER3_CHB_B5 == phaseB)  gpio_init(B5, GPI, 0, IN_FLOAT);
    else if(TIMER4_CHB_B7 == phaseB)  gpio_init(B7, GPI, 0, IN_FLOAT);

}
    3984:	a861                	j	3a1c <timer_gpio_quad_init+0x166>
C:\Users\windows\Desktop\A_Dual\A_Dual1\Dual-core_Communication_Demo\Dual-core_Communication_Demo\SLAVE\obj/../Libraries/seekfree_libraries/zf_qtimer.c:50
    else if(TIMER2_CHB_A1 == phaseB)  gpio_init(A1, GPI, 0, IN_FLOAT);
    3986:	fe842703          	lw	a4,-24(s0)
    398a:	478d                	li	a5,3
    398c:	00f71963          	bne	a4,a5,399e <timer_gpio_quad_init+0xe8>
C:\Users\windows\Desktop\A_Dual\A_Dual1\Dual-core_Communication_Demo\Dual-core_Communication_Demo\SLAVE\obj/../Libraries/seekfree_libraries/zf_qtimer.c:50 (discriminator 1)
    3990:	4691                	li	a3,4
    3992:	4601                	li	a2,0
    3994:	4581                	li	a1,0
    3996:	4505                	li	a0,1
    3998:	9ffff0ef          	jal	ra,3396 <gpio_init>
C:\Users\windows\Desktop\A_Dual\A_Dual1\Dual-core_Communication_Demo\Dual-core_Communication_Demo\SLAVE\obj/../Libraries/seekfree_libraries/zf_qtimer.c:57 (discriminator 1)
}
    399c:	a041                	j	3a1c <timer_gpio_quad_init+0x166>
C:\Users\windows\Desktop\A_Dual\A_Dual1\Dual-core_Communication_Demo\Dual-core_Communication_Demo\SLAVE\obj/../Libraries/seekfree_libraries/zf_qtimer.c:51
    else if(TIMER2_CHB_B3 == phaseB)  gpio_init(B3, GPI, 0, IN_FLOAT);
    399e:	fe842703          	lw	a4,-24(s0)
    39a2:	4795                	li	a5,5
    39a4:	00f71a63          	bne	a4,a5,39b8 <timer_gpio_quad_init+0x102>
C:\Users\windows\Desktop\A_Dual\A_Dual1\Dual-core_Communication_Demo\Dual-core_Communication_Demo\SLAVE\obj/../Libraries/seekfree_libraries/zf_qtimer.c:51 (discriminator 1)
    39a8:	4691                	li	a3,4
    39aa:	4601                	li	a2,0
    39ac:	4581                	li	a1,0
    39ae:	02300513          	li	a0,35
    39b2:	9e5ff0ef          	jal	ra,3396 <gpio_init>
C:\Users\windows\Desktop\A_Dual\A_Dual1\Dual-core_Communication_Demo\Dual-core_Communication_Demo\SLAVE\obj/../Libraries/seekfree_libraries/zf_qtimer.c:57 (discriminator 1)
}
    39b6:	a09d                	j	3a1c <timer_gpio_quad_init+0x166>
C:\Users\windows\Desktop\A_Dual\A_Dual1\Dual-core_Communication_Demo\Dual-core_Communication_Demo\SLAVE\obj/../Libraries/seekfree_libraries/zf_qtimer.c:52
    else if(TIMER3_CHB_A7 == phaseB)  gpio_init(A7, GPI, 0, IN_FLOAT);
    39b8:	fe842703          	lw	a4,-24(s0)
    39bc:	479d                	li	a5,7
    39be:	00f71963          	bne	a4,a5,39d0 <timer_gpio_quad_init+0x11a>
C:\Users\windows\Desktop\A_Dual\A_Dual1\Dual-core_Communication_Demo\Dual-core_Communication_Demo\SLAVE\obj/../Libraries/seekfree_libraries/zf_qtimer.c:52 (discriminator 1)
    39c2:	4691                	li	a3,4
    39c4:	4601                	li	a2,0
    39c6:	4581                	li	a1,0
    39c8:	451d                	li	a0,7
    39ca:	9cdff0ef          	jal	ra,3396 <gpio_init>
C:\Users\windows\Desktop\A_Dual\A_Dual1\Dual-core_Communication_Demo\Dual-core_Communication_Demo\SLAVE\obj/../Libraries/seekfree_libraries/zf_qtimer.c:57 (discriminator 1)
}
    39ce:	a0b9                	j	3a1c <timer_gpio_quad_init+0x166>
C:\Users\windows\Desktop\A_Dual\A_Dual1\Dual-core_Communication_Demo\Dual-core_Communication_Demo\SLAVE\obj/../Libraries/seekfree_libraries/zf_qtimer.c:53
    else if(TIMER3_CHB_C7 == phaseB)  gpio_init(C7, GPI, 0, IN_FLOAT);
    39d0:	fe842703          	lw	a4,-24(s0)
    39d4:	47a5                	li	a5,9
    39d6:	00f71a63          	bne	a4,a5,39ea <timer_gpio_quad_init+0x134>
C:\Users\windows\Desktop\A_Dual\A_Dual1\Dual-core_Communication_Demo\Dual-core_Communication_Demo\SLAVE\obj/../Libraries/seekfree_libraries/zf_qtimer.c:53 (discriminator 1)
    39da:	4691                	li	a3,4
    39dc:	4601                	li	a2,0
    39de:	4581                	li	a1,0
    39e0:	04700513          	li	a0,71
    39e4:	9b3ff0ef          	jal	ra,3396 <gpio_init>
C:\Users\windows\Desktop\A_Dual\A_Dual1\Dual-core_Communication_Demo\Dual-core_Communication_Demo\SLAVE\obj/../Libraries/seekfree_libraries/zf_qtimer.c:57 (discriminator 1)
}
    39e8:	a815                	j	3a1c <timer_gpio_quad_init+0x166>
C:\Users\windows\Desktop\A_Dual\A_Dual1\Dual-core_Communication_Demo\Dual-core_Communication_Demo\SLAVE\obj/../Libraries/seekfree_libraries/zf_qtimer.c:54
    else if(TIMER3_CHB_B5 == phaseB)  gpio_init(B5, GPI, 0, IN_FLOAT);
    39ea:	fe842703          	lw	a4,-24(s0)
    39ee:	47ad                	li	a5,11
    39f0:	00f71a63          	bne	a4,a5,3a04 <timer_gpio_quad_init+0x14e>
C:\Users\windows\Desktop\A_Dual\A_Dual1\Dual-core_Communication_Demo\Dual-core_Communication_Demo\SLAVE\obj/../Libraries/seekfree_libraries/zf_qtimer.c:54 (discriminator 1)
    39f4:	4691                	li	a3,4
    39f6:	4601                	li	a2,0
    39f8:	4581                	li	a1,0
    39fa:	02500513          	li	a0,37
    39fe:	999ff0ef          	jal	ra,3396 <gpio_init>
C:\Users\windows\Desktop\A_Dual\A_Dual1\Dual-core_Communication_Demo\Dual-core_Communication_Demo\SLAVE\obj/../Libraries/seekfree_libraries/zf_qtimer.c:57 (discriminator 1)
}
    3a02:	a829                	j	3a1c <timer_gpio_quad_init+0x166>
C:\Users\windows\Desktop\A_Dual\A_Dual1\Dual-core_Communication_Demo\Dual-core_Communication_Demo\SLAVE\obj/../Libraries/seekfree_libraries/zf_qtimer.c:55
    else if(TIMER4_CHB_B7 == phaseB)  gpio_init(B7, GPI, 0, IN_FLOAT);
    3a04:	fe842703          	lw	a4,-24(s0)
    3a08:	47b5                	li	a5,13
    3a0a:	00f71963          	bne	a4,a5,3a1c <timer_gpio_quad_init+0x166>
C:\Users\windows\Desktop\A_Dual\A_Dual1\Dual-core_Communication_Demo\Dual-core_Communication_Demo\SLAVE\obj/../Libraries/seekfree_libraries/zf_qtimer.c:55 (discriminator 1)
    3a0e:	4691                	li	a3,4
    3a10:	4601                	li	a2,0
    3a12:	4581                	li	a1,0
    3a14:	02700513          	li	a0,39
    3a18:	97fff0ef          	jal	ra,3396 <gpio_init>
C:\Users\windows\Desktop\A_Dual\A_Dual1\Dual-core_Communication_Demo\Dual-core_Communication_Demo\SLAVE\obj/../Libraries/seekfree_libraries/zf_qtimer.c:57
}
    3a1c:	0001                	nop
    3a1e:	40f2                	lw	ra,28(sp)
    3a20:	4462                	lw	s0,24(sp)
    3a22:	6105                	addi	sp,sp,32
    3a24:	8082                	ret

00003a26 <timer_quad_init>:
timer_quad_init():
C:\Users\windows\Desktop\A_Dual\A_Dual1\Dual-core_Communication_Demo\Dual-core_Communication_Demo\SLAVE\obj/../Libraries/seekfree_libraries/zf_qtimer.c:69
//  @param      phaseB      B
//  @return     void
//  Sample usage:           
//-------------------------------------------------------------------------------------------------------------------
void timer_quad_init(TIMERN_enum timern, TIMER_PIN_enum phaseA, TIMER_PIN_enum phaseB)
{
    3a26:	7179                	addi	sp,sp,-48
    3a28:	d606                	sw	ra,44(sp)
    3a2a:	d422                	sw	s0,40(sp)
    3a2c:	1800                	addi	s0,sp,48
    3a2e:	fca42e23          	sw	a0,-36(s0)
    3a32:	fcb42c23          	sw	a1,-40(s0)
    3a36:	fcc42a23          	sw	a2,-44(s0)
C:\Users\windows\Desktop\A_Dual\A_Dual1\Dual-core_Communication_Demo\Dual-core_Communication_Demo\SLAVE\obj/../Libraries/seekfree_libraries/zf_qtimer.c:72
    TIM_TimeBaseInitTypeDef TIM_TimeBaseStructure;

    if(TIMER_1 == timern)       RCC_APB2PeriphClockCmd(RCC_APB2Periph_TIM1, ENABLE);//1
    3a3a:	fdc42783          	lw	a5,-36(s0)
    3a3e:	eb81                	bnez	a5,3a4e <timer_quad_init+0x28>
C:\Users\windows\Desktop\A_Dual\A_Dual1\Dual-core_Communication_Demo\Dual-core_Communication_Demo\SLAVE\obj/../Libraries/seekfree_libraries/zf_qtimer.c:72 (discriminator 1)
    3a40:	4585                	li	a1,1
    3a42:	6785                	lui	a5,0x1
    3a44:	80078513          	addi	a0,a5,-2048 # 800 <__stack_size>
    3a48:	c6dfd0ef          	jal	ra,16b4 <RCC_APB2PeriphClockCmd>
    3a4c:	a835                	j	3a88 <timer_quad_init+0x62>
C:\Users\windows\Desktop\A_Dual\A_Dual1\Dual-core_Communication_Demo\Dual-core_Communication_Demo\SLAVE\obj/../Libraries/seekfree_libraries/zf_qtimer.c:73
    else  if(TIMER_2 == timern) RCC_APB1PeriphClockCmd(RCC_APB1Periph_TIM2, ENABLE);//2
    3a4e:	fdc42703          	lw	a4,-36(s0)
    3a52:	4785                	li	a5,1
    3a54:	00f71763          	bne	a4,a5,3a62 <timer_quad_init+0x3c>
C:\Users\windows\Desktop\A_Dual\A_Dual1\Dual-core_Communication_Demo\Dual-core_Communication_Demo\SLAVE\obj/../Libraries/seekfree_libraries/zf_qtimer.c:73 (discriminator 1)
    3a58:	4585                	li	a1,1
    3a5a:	4505                	li	a0,1
    3a5c:	c9ffd0ef          	jal	ra,16fa <RCC_APB1PeriphClockCmd>
    3a60:	a025                	j	3a88 <timer_quad_init+0x62>
C:\Users\windows\Desktop\A_Dual\A_Dual1\Dual-core_Communication_Demo\Dual-core_Communication_Demo\SLAVE\obj/../Libraries/seekfree_libraries/zf_qtimer.c:74
    else  if(TIMER_3 == timern) RCC_APB1PeriphClockCmd(RCC_APB1Periph_TIM3, ENABLE);//3
    3a62:	fdc42703          	lw	a4,-36(s0)
    3a66:	4789                	li	a5,2
    3a68:	00f71763          	bne	a4,a5,3a76 <timer_quad_init+0x50>
C:\Users\windows\Desktop\A_Dual\A_Dual1\Dual-core_Communication_Demo\Dual-core_Communication_Demo\SLAVE\obj/../Libraries/seekfree_libraries/zf_qtimer.c:74 (discriminator 1)
    3a6c:	4585                	li	a1,1
    3a6e:	4509                	li	a0,2
    3a70:	c8bfd0ef          	jal	ra,16fa <RCC_APB1PeriphClockCmd>
    3a74:	a811                	j	3a88 <timer_quad_init+0x62>
C:\Users\windows\Desktop\A_Dual\A_Dual1\Dual-core_Communication_Demo\Dual-core_Communication_Demo\SLAVE\obj/../Libraries/seekfree_libraries/zf_qtimer.c:75
    else  if(TIMER_4 == timern) RCC_APB1PeriphClockCmd(RCC_APB1Periph_TIM4, ENABLE);//4
    3a76:	fdc42703          	lw	a4,-36(s0)
    3a7a:	478d                	li	a5,3
    3a7c:	00f71663          	bne	a4,a5,3a88 <timer_quad_init+0x62>
C:\Users\windows\Desktop\A_Dual\A_Dual1\Dual-core_Communication_Demo\Dual-core_Communication_Demo\SLAVE\obj/../Libraries/seekfree_libraries/zf_qtimer.c:75 (discriminator 1)
    3a80:	4585                	li	a1,1
    3a82:	4511                	li	a0,4
    3a84:	c77fd0ef          	jal	ra,16fa <RCC_APB1PeriphClockCmd>
C:\Users\windows\Desktop\A_Dual\A_Dual1\Dual-core_Communication_Demo\Dual-core_Communication_Demo\SLAVE\obj/../Libraries/seekfree_libraries/zf_qtimer.c:77

    timer_gpio_quad_init(phaseA, phaseB);                                           //
    3a88:	fd442583          	lw	a1,-44(s0)
    3a8c:	fd842503          	lw	a0,-40(s0)
    3a90:	351d                	jal	38b6 <timer_gpio_quad_init>
C:\Users\windows\Desktop\A_Dual\A_Dual1\Dual-core_Communication_Demo\Dual-core_Communication_Demo\SLAVE\obj/../Libraries/seekfree_libraries/zf_qtimer.c:79

    RCC_APB2PeriphClockCmd(RCC_APB2Periph_AFIO, ENABLE);                            //AFIO
    3a92:	4585                	li	a1,1
    3a94:	4505                	li	a0,1
    3a96:	c1ffd0ef          	jal	ra,16b4 <RCC_APB2PeriphClockCmd>
C:\Users\windows\Desktop\A_Dual\A_Dual1\Dual-core_Communication_Demo\Dual-core_Communication_Demo\SLAVE\obj/../Libraries/seekfree_libraries/zf_qtimer.c:81

    if(TIMER2_CHA_A15 == phaseA && TIMER2_CHB_B3 == phaseB)                         //
    3a9a:	fd842703          	lw	a4,-40(s0)
    3a9e:	4791                	li	a5,4
    3aa0:	00f71f63          	bne	a4,a5,3abe <timer_quad_init+0x98>
C:\Users\windows\Desktop\A_Dual\A_Dual1\Dual-core_Communication_Demo\Dual-core_Communication_Demo\SLAVE\obj/../Libraries/seekfree_libraries/zf_qtimer.c:81 (discriminator 1)
    3aa4:	fd442703          	lw	a4,-44(s0)
    3aa8:	4795                	li	a5,5
    3aaa:	00f71a63          	bne	a4,a5,3abe <timer_quad_init+0x98>
C:\Users\windows\Desktop\A_Dual\A_Dual1\Dual-core_Communication_Demo\Dual-core_Communication_Demo\SLAVE\obj/../Libraries/seekfree_libraries/zf_qtimer.c:82
        GPIO_PinRemapConfig(GPIO_FullRemap_TIM2, ENABLE);
    3aae:	4585                	li	a1,1
    3ab0:	001807b7          	lui	a5,0x180
    3ab4:	30078513          	addi	a0,a5,768 # 180300 <_data_lma+0x17a028>
    3ab8:	e6cfd0ef          	jal	ra,1124 <GPIO_PinRemapConfig>
    3abc:	a0a1                	j	3b04 <timer_quad_init+0xde>
C:\Users\windows\Desktop\A_Dual\A_Dual1\Dual-core_Communication_Demo\Dual-core_Communication_Demo\SLAVE\obj/../Libraries/seekfree_libraries/zf_qtimer.c:83
    else    if(TIMER3_CHA_C6 == phaseA && TIMER3_CHB_C7 == phaseB)
    3abe:	fd842703          	lw	a4,-40(s0)
    3ac2:	47a1                	li	a5,8
    3ac4:	00f71f63          	bne	a4,a5,3ae2 <timer_quad_init+0xbc>
C:\Users\windows\Desktop\A_Dual\A_Dual1\Dual-core_Communication_Demo\Dual-core_Communication_Demo\SLAVE\obj/../Libraries/seekfree_libraries/zf_qtimer.c:83 (discriminator 1)
    3ac8:	fd442703          	lw	a4,-44(s0)
    3acc:	47a5                	li	a5,9
    3ace:	00f71a63          	bne	a4,a5,3ae2 <timer_quad_init+0xbc>
C:\Users\windows\Desktop\A_Dual\A_Dual1\Dual-core_Communication_Demo\Dual-core_Communication_Demo\SLAVE\obj/../Libraries/seekfree_libraries/zf_qtimer.c:84
        GPIO_PinRemapConfig(GPIO_FullRemap_TIM3, ENABLE);
    3ad2:	4585                	li	a1,1
    3ad4:	001a17b7          	lui	a5,0x1a1
    3ad8:	c0078513          	addi	a0,a5,-1024 # 1a0c00 <_data_lma+0x19a928>
    3adc:	e48fd0ef          	jal	ra,1124 <GPIO_PinRemapConfig>
    3ae0:	a015                	j	3b04 <timer_quad_init+0xde>
C:\Users\windows\Desktop\A_Dual\A_Dual1\Dual-core_Communication_Demo\Dual-core_Communication_Demo\SLAVE\obj/../Libraries/seekfree_libraries/zf_qtimer.c:85
    else    if(TIMER3_CHA_B4 == phaseA && TIMER3_CHB_B5 == phaseB)
    3ae2:	fd842703          	lw	a4,-40(s0)
    3ae6:	47a9                	li	a5,10
    3ae8:	00f71e63          	bne	a4,a5,3b04 <timer_quad_init+0xde>
C:\Users\windows\Desktop\A_Dual\A_Dual1\Dual-core_Communication_Demo\Dual-core_Communication_Demo\SLAVE\obj/../Libraries/seekfree_libraries/zf_qtimer.c:85 (discriminator 1)
    3aec:	fd442703          	lw	a4,-44(s0)
    3af0:	47ad                	li	a5,11
    3af2:	00f71963          	bne	a4,a5,3b04 <timer_quad_init+0xde>
C:\Users\windows\Desktop\A_Dual\A_Dual1\Dual-core_Communication_Demo\Dual-core_Communication_Demo\SLAVE\obj/../Libraries/seekfree_libraries/zf_qtimer.c:86
        GPIO_PinRemapConfig(GPIO_PartialRemap_TIM3, ENABLE);
    3af6:	4585                	li	a1,1
    3af8:	001a17b7          	lui	a5,0x1a1
    3afc:	80078513          	addi	a0,a5,-2048 # 1a0800 <_data_lma+0x19a528>
    3b00:	e24fd0ef          	jal	ra,1124 <GPIO_PinRemapConfig>
C:\Users\windows\Desktop\A_Dual\A_Dual1\Dual-core_Communication_Demo\Dual-core_Communication_Demo\SLAVE\obj/../Libraries/seekfree_libraries/zf_qtimer.c:88

    TIM_TimeBaseStructInit(&TIM_TimeBaseStructure);
    3b04:	fe440793          	addi	a5,s0,-28
    3b08:	853e                	mv	a0,a5
    3b0a:	e83fd0ef          	jal	ra,198c <TIM_TimeBaseStructInit>
C:\Users\windows\Desktop\A_Dual\A_Dual1\Dual-core_Communication_Demo\Dual-core_Communication_Demo\SLAVE\obj/../Libraries/seekfree_libraries/zf_qtimer.c:89
    TIM_TimeBaseStructure.TIM_Prescaler = 1;                                        //
    3b0e:	4785                	li	a5,1
    3b10:	fef41223          	sh	a5,-28(s0)
C:\Users\windows\Desktop\A_Dual\A_Dual1\Dual-core_Communication_Demo\Dual-core_Communication_Demo\SLAVE\obj/../Libraries/seekfree_libraries/zf_qtimer.c:90
    TIM_TimeBaseStructure.TIM_Period = 0xFFFF;                                      //
    3b14:	57fd                	li	a5,-1
    3b16:	fef41423          	sh	a5,-24(s0)
C:\Users\windows\Desktop\A_Dual\A_Dual1\Dual-core_Communication_Demo\Dual-core_Communication_Demo\SLAVE\obj/../Libraries/seekfree_libraries/zf_qtimer.c:91
    TIM_TimeBaseStructure.TIM_ClockDivision = TIM_CKD_DIV1;                         //
    3b1a:	fe041523          	sh	zero,-22(s0)
C:\Users\windows\Desktop\A_Dual\A_Dual1\Dual-core_Communication_Demo\Dual-core_Communication_Demo\SLAVE\obj/../Libraries/seekfree_libraries/zf_qtimer.c:92
    TIM_TimeBaseStructure.TIM_CounterMode = TIM_CounterMode_Up;                     //TIM
    3b1e:	fe041323          	sh	zero,-26(s0)
C:\Users\windows\Desktop\A_Dual\A_Dual1\Dual-core_Communication_Demo\Dual-core_Communication_Demo\SLAVE\obj/../Libraries/seekfree_libraries/zf_qtimer.c:93
    TIM_TimeBaseStructure.TIM_RepetitionCounter = 0;                                //
    3b22:	fe040623          	sb	zero,-20(s0)
C:\Users\windows\Desktop\A_Dual\A_Dual1\Dual-core_Communication_Demo\Dual-core_Communication_Demo\SLAVE\obj/../Libraries/seekfree_libraries/zf_qtimer.c:94
    TIM_TimeBaseInit((TIM_TypeDef*)(TIMERN[timern]), &TIM_TimeBaseStructure);       //
    3b26:	6799                	lui	a5,0x6
    3b28:	fdc42703          	lw	a4,-36(s0)
    3b2c:	070a                	slli	a4,a4,0x2
    3b2e:	1cc78793          	addi	a5,a5,460 # 61cc <TIMERN>
    3b32:	97ba                	add	a5,a5,a4
    3b34:	439c                	lw	a5,0(a5)
    3b36:	873e                	mv	a4,a5
    3b38:	fe440793          	addi	a5,s0,-28
    3b3c:	85be                	mv	a1,a5
    3b3e:	853a                	mv	a0,a4
    3b40:	d53fd0ef          	jal	ra,1892 <TIM_TimeBaseInit>
C:\Users\windows\Desktop\A_Dual\A_Dual1\Dual-core_Communication_Demo\Dual-core_Communication_Demo\SLAVE\obj/../Libraries/seekfree_libraries/zf_qtimer.c:95
    TIM_EncoderInterfaceConfig((TIM_TypeDef*)(TIMERN[timern]), TIM_EncoderMode_TI2 , TIM_ICPolarity_Rising, TIM_ICPolarity_Rising);//
    3b44:	6799                	lui	a5,0x6
    3b46:	fdc42703          	lw	a4,-36(s0)
    3b4a:	070a                	slli	a4,a4,0x2
    3b4c:	1cc78793          	addi	a5,a5,460 # 61cc <TIMERN>
    3b50:	97ba                	add	a5,a5,a4
    3b52:	439c                	lw	a5,0(a5)
    3b54:	4681                	li	a3,0
    3b56:	4601                	li	a2,0
    3b58:	4589                	li	a1,2
    3b5a:	853e                	mv	a0,a5
    3b5c:	8f8fe0ef          	jal	ra,1c54 <TIM_EncoderInterfaceConfig>
C:\Users\windows\Desktop\A_Dual\A_Dual1\Dual-core_Communication_Demo\Dual-core_Communication_Demo\SLAVE\obj/../Libraries/seekfree_libraries/zf_qtimer.c:97

    TIM_Cmd((TIM_TypeDef*)(TIMERN[timern]), ENABLE);                                //
    3b60:	6799                	lui	a5,0x6
    3b62:	fdc42703          	lw	a4,-36(s0)
    3b66:	070a                	slli	a4,a4,0x2
    3b68:	1cc78793          	addi	a5,a5,460 # 61cc <TIMERN>
    3b6c:	97ba                	add	a5,a5,a4
    3b6e:	439c                	lw	a5,0(a5)
    3b70:	4585                	li	a1,1
    3b72:	853e                	mv	a0,a5
    3b74:	e55fd0ef          	jal	ra,19c8 <TIM_Cmd>
C:\Users\windows\Desktop\A_Dual\A_Dual1\Dual-core_Communication_Demo\Dual-core_Communication_Demo\SLAVE\obj/../Libraries/seekfree_libraries/zf_qtimer.c:98
}
    3b78:	0001                	nop
    3b7a:	50b2                	lw	ra,44(sp)
    3b7c:	5422                	lw	s0,40(sp)
    3b7e:	6145                	addi	sp,sp,48
    3b80:	8082                	ret

00003b82 <timer_quad_get>:
timer_quad_get():
C:\Users\windows\Desktop\A_Dual\A_Dual1\Dual-core_Communication_Demo\Dual-core_Communication_Demo\SLAVE\obj/../Libraries/seekfree_libraries/zf_qtimer.c:107
//  @param      timern      
//  @return     void
//  Sample usage:
//-------------------------------------------------------------------------------------------------------------------
int16 timer_quad_get(TIMERN_enum timern)
{
    3b82:	7179                	addi	sp,sp,-48
    3b84:	d622                	sw	s0,44(sp)
    3b86:	1800                	addi	s0,sp,48
    3b88:	fca42e23          	sw	a0,-36(s0)
C:\Users\windows\Desktop\A_Dual\A_Dual1\Dual-core_Communication_Demo\Dual-core_Communication_Demo\SLAVE\obj/../Libraries/seekfree_libraries/zf_qtimer.c:108
    int16 count = ((TIM_TypeDef*)(TIMERN[timern]))->CNT;
    3b8c:	6799                	lui	a5,0x6
    3b8e:	fdc42703          	lw	a4,-36(s0)
    3b92:	070a                	slli	a4,a4,0x2
    3b94:	1cc78793          	addi	a5,a5,460 # 61cc <TIMERN>
    3b98:	97ba                	add	a5,a5,a4
    3b9a:	439c                	lw	a5,0(a5)
    3b9c:	0247d783          	lhu	a5,36(a5)
    3ba0:	07c2                	slli	a5,a5,0x10
    3ba2:	83c1                	srli	a5,a5,0x10
    3ba4:	fef41723          	sh	a5,-18(s0)
C:\Users\windows\Desktop\A_Dual\A_Dual1\Dual-core_Communication_Demo\Dual-core_Communication_Demo\SLAVE\obj/../Libraries/seekfree_libraries/zf_qtimer.c:109
    return count;
    3ba8:	fee41783          	lh	a5,-18(s0)
C:\Users\windows\Desktop\A_Dual\A_Dual1\Dual-core_Communication_Demo\Dual-core_Communication_Demo\SLAVE\obj/../Libraries/seekfree_libraries/zf_qtimer.c:110
}
    3bac:	853e                	mv	a0,a5
    3bae:	5432                	lw	s0,44(sp)
    3bb0:	6145                	addi	sp,sp,48
    3bb2:	8082                	ret

00003bb4 <timer_quad_clear>:
timer_quad_clear():
C:\Users\windows\Desktop\A_Dual\A_Dual1\Dual-core_Communication_Demo\Dual-core_Communication_Demo\SLAVE\obj/../Libraries/seekfree_libraries/zf_qtimer.c:119
//  @param      timern      
//  @return     void
//  Sample usage:
//-------------------------------------------------------------------------------------------------------------------
void timer_quad_clear(TIMERN_enum timern)
{
    3bb4:	1101                	addi	sp,sp,-32
    3bb6:	ce22                	sw	s0,28(sp)
    3bb8:	1000                	addi	s0,sp,32
    3bba:	fea42623          	sw	a0,-20(s0)
C:\Users\windows\Desktop\A_Dual\A_Dual1\Dual-core_Communication_Demo\Dual-core_Communication_Demo\SLAVE\obj/../Libraries/seekfree_libraries/zf_qtimer.c:120
    ((TIM_TypeDef*)(TIMERN[timern]))->CNT = 0;
    3bbe:	6799                	lui	a5,0x6
    3bc0:	fec42703          	lw	a4,-20(s0)
    3bc4:	070a                	slli	a4,a4,0x2
    3bc6:	1cc78793          	addi	a5,a5,460 # 61cc <TIMERN>
    3bca:	97ba                	add	a5,a5,a4
    3bcc:	439c                	lw	a5,0(a5)
    3bce:	02079223          	sh	zero,36(a5)
C:\Users\windows\Desktop\A_Dual\A_Dual1\Dual-core_Communication_Demo\Dual-core_Communication_Demo\SLAVE\obj/../Libraries/seekfree_libraries/zf_qtimer.c:121
}
    3bd2:	0001                	nop
    3bd4:	4472                	lw	s0,28(sp)
    3bd6:	6105                	addi	sp,sp,32
    3bd8:	8082                	ret

00003bda <spi_gpio_init>:
spi_gpio_init():
C:\Users\windows\Desktop\A_Dual\A_Dual1\Dual-core_Communication_Demo\Dual-core_Communication_Demo\SLAVE\obj/../Libraries/seekfree_libraries/zf_spi.c:41
//  @param      cs_pin      (common.hPIN_enum)
//  @return     void
//  Sample usage:             
//-------------------------------------------------------------------------------------------------------------------
void spi_gpio_init(SPI_PIN_enum sck_pin, SPI_PIN_enum mosi_pin, SPI_PIN_enum miso_pin, PIN_enum cs_pin)
{
    3bda:	1101                	addi	sp,sp,-32
    3bdc:	ce06                	sw	ra,28(sp)
    3bde:	cc22                	sw	s0,24(sp)
    3be0:	1000                	addi	s0,sp,32
    3be2:	fea42623          	sw	a0,-20(s0)
    3be6:	feb42423          	sw	a1,-24(s0)
    3bea:	fec42223          	sw	a2,-28(s0)
    3bee:	fed42023          	sw	a3,-32(s0)
C:\Users\windows\Desktop\A_Dual\A_Dual1\Dual-core_Communication_Demo\Dual-core_Communication_Demo\SLAVE\obj/../Libraries/seekfree_libraries/zf_spi.c:42
    if(SPI1_SCK_PA5 == sck_pin) gpio_init(A5, GPO, 1, SPEED_50MHZ|OUT_AF_PP);
    3bf2:	fec42783          	lw	a5,-20(s0)
    3bf6:	eb89                	bnez	a5,3c08 <spi_gpio_init+0x2e>
C:\Users\windows\Desktop\A_Dual\A_Dual1\Dual-core_Communication_Demo\Dual-core_Communication_Demo\SLAVE\obj/../Libraries/seekfree_libraries/zf_spi.c:42 (discriminator 1)
    3bf8:	31800693          	li	a3,792
    3bfc:	4605                	li	a2,1
    3bfe:	4585                	li	a1,1
    3c00:	4515                	li	a0,5
    3c02:	f94ff0ef          	jal	ra,3396 <gpio_init>
    3c06:	a899                	j	3c5c <spi_gpio_init+0x82>
C:\Users\windows\Desktop\A_Dual\A_Dual1\Dual-core_Communication_Demo\Dual-core_Communication_Demo\SLAVE\obj/../Libraries/seekfree_libraries/zf_spi.c:43
    else if(SPI1_SCK_PB3 == sck_pin) gpio_init(B3, GPO, 1, SPEED_50MHZ|OUT_AF_PP);
    3c08:	fec42703          	lw	a4,-20(s0)
    3c0c:	47c1                	li	a5,16
    3c0e:	00f71b63          	bne	a4,a5,3c24 <spi_gpio_init+0x4a>
C:\Users\windows\Desktop\A_Dual\A_Dual1\Dual-core_Communication_Demo\Dual-core_Communication_Demo\SLAVE\obj/../Libraries/seekfree_libraries/zf_spi.c:43 (discriminator 1)
    3c12:	31800693          	li	a3,792
    3c16:	4605                	li	a2,1
    3c18:	4585                	li	a1,1
    3c1a:	02300513          	li	a0,35
    3c1e:	f78ff0ef          	jal	ra,3396 <gpio_init>
    3c22:	a82d                	j	3c5c <spi_gpio_init+0x82>
C:\Users\windows\Desktop\A_Dual\A_Dual1\Dual-core_Communication_Demo\Dual-core_Communication_Demo\SLAVE\obj/../Libraries/seekfree_libraries/zf_spi.c:44
    else if(SPI2_SCK_PB13 == sck_pin) gpio_init(B13, GPO, 1, SPEED_50MHZ|OUT_AF_PP);
    3c24:	fec42703          	lw	a4,-20(s0)
    3c28:	02000793          	li	a5,32
    3c2c:	00f71b63          	bne	a4,a5,3c42 <spi_gpio_init+0x68>
C:\Users\windows\Desktop\A_Dual\A_Dual1\Dual-core_Communication_Demo\Dual-core_Communication_Demo\SLAVE\obj/../Libraries/seekfree_libraries/zf_spi.c:44 (discriminator 1)
    3c30:	31800693          	li	a3,792
    3c34:	4605                	li	a2,1
    3c36:	4585                	li	a1,1
    3c38:	02d00513          	li	a0,45
    3c3c:	f5aff0ef          	jal	ra,3396 <gpio_init>
    3c40:	a831                	j	3c5c <spi_gpio_init+0x82>
C:\Users\windows\Desktop\A_Dual\A_Dual1\Dual-core_Communication_Demo\Dual-core_Communication_Demo\SLAVE\obj/../Libraries/seekfree_libraries/zf_spi.c:45
    else assert(0);         //
    3c42:	6799                	lui	a5,0x6
    3c44:	b8478693          	addi	a3,a5,-1148 # 5b84 <_exit+0x36>
    3c48:	6799                	lui	a5,0x6
    3c4a:	1dc78613          	addi	a2,a5,476 # 61dc <__func__.3348>
    3c4e:	02d00593          	li	a1,45
    3c52:	6799                	lui	a5,0x6
    3c54:	b8878513          	addi	a0,a5,-1144 # 5b88 <_exit+0x3a>
    3c58:	457000ef          	jal	ra,48ae <__assert_func>
C:\Users\windows\Desktop\A_Dual\A_Dual1\Dual-core_Communication_Demo\Dual-core_Communication_Demo\SLAVE\obj/../Libraries/seekfree_libraries/zf_spi.c:47

    if(SPI1_MOSI_PA7 == mosi_pin) gpio_init(A7, GPO, 1, SPEED_50MHZ|OUT_AF_PP);
    3c5c:	fe842703          	lw	a4,-24(s0)
    3c60:	4785                	li	a5,1
    3c62:	00f71a63          	bne	a4,a5,3c76 <spi_gpio_init+0x9c>
C:\Users\windows\Desktop\A_Dual\A_Dual1\Dual-core_Communication_Demo\Dual-core_Communication_Demo\SLAVE\obj/../Libraries/seekfree_libraries/zf_spi.c:47 (discriminator 1)
    3c66:	31800693          	li	a3,792
    3c6a:	4605                	li	a2,1
    3c6c:	4585                	li	a1,1
    3c6e:	451d                	li	a0,7
    3c70:	f26ff0ef          	jal	ra,3396 <gpio_init>
    3c74:	a899                	j	3cca <spi_gpio_init+0xf0>
C:\Users\windows\Desktop\A_Dual\A_Dual1\Dual-core_Communication_Demo\Dual-core_Communication_Demo\SLAVE\obj/../Libraries/seekfree_libraries/zf_spi.c:48
    else if(SPI1_MOSI_PB5 == mosi_pin) gpio_init(B5, GPO, 1, SPEED_50MHZ|OUT_AF_PP);
    3c76:	fe842703          	lw	a4,-24(s0)
    3c7a:	47c5                	li	a5,17
    3c7c:	00f71b63          	bne	a4,a5,3c92 <spi_gpio_init+0xb8>
C:\Users\windows\Desktop\A_Dual\A_Dual1\Dual-core_Communication_Demo\Dual-core_Communication_Demo\SLAVE\obj/../Libraries/seekfree_libraries/zf_spi.c:48 (discriminator 1)
    3c80:	31800693          	li	a3,792
    3c84:	4605                	li	a2,1
    3c86:	4585                	li	a1,1
    3c88:	02500513          	li	a0,37
    3c8c:	f0aff0ef          	jal	ra,3396 <gpio_init>
    3c90:	a82d                	j	3cca <spi_gpio_init+0xf0>
C:\Users\windows\Desktop\A_Dual\A_Dual1\Dual-core_Communication_Demo\Dual-core_Communication_Demo\SLAVE\obj/../Libraries/seekfree_libraries/zf_spi.c:49
    else if(SPI2_MOSI_PB15 == mosi_pin) gpio_init(B15, GPO, 1, SPEED_50MHZ|OUT_AF_PP);
    3c92:	fe842703          	lw	a4,-24(s0)
    3c96:	02100793          	li	a5,33
    3c9a:	00f71b63          	bne	a4,a5,3cb0 <spi_gpio_init+0xd6>
C:\Users\windows\Desktop\A_Dual\A_Dual1\Dual-core_Communication_Demo\Dual-core_Communication_Demo\SLAVE\obj/../Libraries/seekfree_libraries/zf_spi.c:49 (discriminator 1)
    3c9e:	31800693          	li	a3,792
    3ca2:	4605                	li	a2,1
    3ca4:	4585                	li	a1,1
    3ca6:	02f00513          	li	a0,47
    3caa:	eecff0ef          	jal	ra,3396 <gpio_init>
    3cae:	a831                	j	3cca <spi_gpio_init+0xf0>
C:\Users\windows\Desktop\A_Dual\A_Dual1\Dual-core_Communication_Demo\Dual-core_Communication_Demo\SLAVE\obj/../Libraries/seekfree_libraries/zf_spi.c:50
    else assert(0);         //
    3cb0:	6799                	lui	a5,0x6
    3cb2:	b8478693          	addi	a3,a5,-1148 # 5b84 <_exit+0x36>
    3cb6:	6799                	lui	a5,0x6
    3cb8:	1dc78613          	addi	a2,a5,476 # 61dc <__func__.3348>
    3cbc:	03200593          	li	a1,50
    3cc0:	6799                	lui	a5,0x6
    3cc2:	b8878513          	addi	a0,a5,-1144 # 5b88 <_exit+0x3a>
    3cc6:	3e9000ef          	jal	ra,48ae <__assert_func>
C:\Users\windows\Desktop\A_Dual\A_Dual1\Dual-core_Communication_Demo\Dual-core_Communication_Demo\SLAVE\obj/../Libraries/seekfree_libraries/zf_spi.c:52

    if(SPI1_MISO_PA6 == miso_pin) gpio_init(A6, GPO, 1, SPEED_50MHZ|OUT_AF_PP);
    3cca:	fe442703          	lw	a4,-28(s0)
    3cce:	4789                	li	a5,2
    3cd0:	00f71a63          	bne	a4,a5,3ce4 <spi_gpio_init+0x10a>
C:\Users\windows\Desktop\A_Dual\A_Dual1\Dual-core_Communication_Demo\Dual-core_Communication_Demo\SLAVE\obj/../Libraries/seekfree_libraries/zf_spi.c:52 (discriminator 1)
    3cd4:	31800693          	li	a3,792
    3cd8:	4605                	li	a2,1
    3cda:	4585                	li	a1,1
    3cdc:	4519                	li	a0,6
    3cde:	eb8ff0ef          	jal	ra,3396 <gpio_init>
    3ce2:	a0b5                	j	3d4e <spi_gpio_init+0x174>
C:\Users\windows\Desktop\A_Dual\A_Dual1\Dual-core_Communication_Demo\Dual-core_Communication_Demo\SLAVE\obj/../Libraries/seekfree_libraries/zf_spi.c:53
    else if(SPI1_MISO_PB4 == miso_pin) gpio_init(B4, GPO, 1, SPEED_50MHZ|OUT_AF_PP);
    3ce4:	fe442703          	lw	a4,-28(s0)
    3ce8:	47c9                	li	a5,18
    3cea:	00f71b63          	bne	a4,a5,3d00 <spi_gpio_init+0x126>
C:\Users\windows\Desktop\A_Dual\A_Dual1\Dual-core_Communication_Demo\Dual-core_Communication_Demo\SLAVE\obj/../Libraries/seekfree_libraries/zf_spi.c:53 (discriminator 1)
    3cee:	31800693          	li	a3,792
    3cf2:	4605                	li	a2,1
    3cf4:	4585                	li	a1,1
    3cf6:	02400513          	li	a0,36
    3cfa:	e9cff0ef          	jal	ra,3396 <gpio_init>
    3cfe:	a881                	j	3d4e <spi_gpio_init+0x174>
C:\Users\windows\Desktop\A_Dual\A_Dual1\Dual-core_Communication_Demo\Dual-core_Communication_Demo\SLAVE\obj/../Libraries/seekfree_libraries/zf_spi.c:54
    else if(SPI2_MISO_PB14 == miso_pin) gpio_init(B14, GPO, 1, SPEED_50MHZ|OUT_AF_PP);
    3d00:	fe442703          	lw	a4,-28(s0)
    3d04:	02200793          	li	a5,34
    3d08:	00f71b63          	bne	a4,a5,3d1e <spi_gpio_init+0x144>
C:\Users\windows\Desktop\A_Dual\A_Dual1\Dual-core_Communication_Demo\Dual-core_Communication_Demo\SLAVE\obj/../Libraries/seekfree_libraries/zf_spi.c:54 (discriminator 1)
    3d0c:	31800693          	li	a3,792
    3d10:	4605                	li	a2,1
    3d12:	4585                	li	a1,1
    3d14:	02e00513          	li	a0,46
    3d18:	e7eff0ef          	jal	ra,3396 <gpio_init>
    3d1c:	a80d                	j	3d4e <spi_gpio_init+0x174>
C:\Users\windows\Desktop\A_Dual\A_Dual1\Dual-core_Communication_Demo\Dual-core_Communication_Demo\SLAVE\obj/../Libraries/seekfree_libraries/zf_spi.c:55
    else if(SPI_MISO_NULL == miso_pin)  miso_pin = SPI_MISO_NULL;
    3d1e:	fe442703          	lw	a4,-28(s0)
    3d22:	02300793          	li	a5,35
    3d26:	00f71763          	bne	a4,a5,3d34 <spi_gpio_init+0x15a>
C:\Users\windows\Desktop\A_Dual\A_Dual1\Dual-core_Communication_Demo\Dual-core_Communication_Demo\SLAVE\obj/../Libraries/seekfree_libraries/zf_spi.c:55 (discriminator 1)
    3d2a:	02300793          	li	a5,35
    3d2e:	fef42223          	sw	a5,-28(s0)
    3d32:	a831                	j	3d4e <spi_gpio_init+0x174>
C:\Users\windows\Desktop\A_Dual\A_Dual1\Dual-core_Communication_Demo\Dual-core_Communication_Demo\SLAVE\obj/../Libraries/seekfree_libraries/zf_spi.c:56
    else  assert(0);         //
    3d34:	6799                	lui	a5,0x6
    3d36:	b8478693          	addi	a3,a5,-1148 # 5b84 <_exit+0x36>
    3d3a:	6799                	lui	a5,0x6
    3d3c:	1dc78613          	addi	a2,a5,476 # 61dc <__func__.3348>
    3d40:	03800593          	li	a1,56
    3d44:	6799                	lui	a5,0x6
    3d46:	b8878513          	addi	a0,a5,-1144 # 5b88 <_exit+0x3a>
    3d4a:	365000ef          	jal	ra,48ae <__assert_func>
C:\Users\windows\Desktop\A_Dual\A_Dual1\Dual-core_Communication_Demo\Dual-core_Communication_Demo\SLAVE\obj/../Libraries/seekfree_libraries/zf_spi.c:59


    gpio_init(cs_pin, GPO, 1, SPEED_50MHZ|OUT_PP);
    3d4e:	31000693          	li	a3,784
    3d52:	4605                	li	a2,1
    3d54:	4585                	li	a1,1
    3d56:	fe042503          	lw	a0,-32(s0)
    3d5a:	e3cff0ef          	jal	ra,3396 <gpio_init>
C:\Users\windows\Desktop\A_Dual\A_Dual1\Dual-core_Communication_Demo\Dual-core_Communication_Demo\SLAVE\obj/../Libraries/seekfree_libraries/zf_spi.c:61

}
    3d5e:	0001                	nop
    3d60:	40f2                	lw	ra,28(sp)
    3d62:	4462                	lw	s0,24(sp)
    3d64:	6105                	addi	sp,sp,32
    3d66:	8082                	ret

00003d68 <spi_init>:
spi_init():
C:\Users\windows\Desktop\A_Dual\A_Dual1\Dual-core_Communication_Demo\Dual-core_Communication_Demo\SLAVE\obj/../Libraries/seekfree_libraries/zf_spi.c:85
        SPI_PIN_enum mosi_pin,
        SPI_PIN_enum miso_pin,
        PIN_enum cs_pin,
        uint8 mode,
        SPI_SPEED_enum BaudRatePrescaler)
{
    3d68:	715d                	addi	sp,sp,-80
    3d6a:	c686                	sw	ra,76(sp)
    3d6c:	c4a2                	sw	s0,72(sp)
    3d6e:	0880                	addi	s0,sp,80
    3d70:	fca42623          	sw	a0,-52(s0)
    3d74:	fcb42423          	sw	a1,-56(s0)
    3d78:	fcc42223          	sw	a2,-60(s0)
    3d7c:	fcd42023          	sw	a3,-64(s0)
    3d80:	fae42e23          	sw	a4,-68(s0)
    3d84:	fb042a23          	sw	a6,-76(s0)
    3d88:	faf40da3          	sb	a5,-69(s0)
C:\Users\windows\Desktop\A_Dual\A_Dual1\Dual-core_Communication_Demo\Dual-core_Communication_Demo\SLAVE\obj/../Libraries/seekfree_libraries/zf_spi.c:89

    SPI_InitTypeDef  SPI_InitStructure;

    if(SPI_1 == spi_n)
    3d8c:	fcc42783          	lw	a5,-52(s0)
    3d90:	eb81                	bnez	a5,3da0 <spi_init+0x38>
C:\Users\windows\Desktop\A_Dual\A_Dual1\Dual-core_Communication_Demo\Dual-core_Communication_Demo\SLAVE\obj/../Libraries/seekfree_libraries/zf_spi.c:91
    {
        RCC_APB2PeriphClockCmd(RCC_APB2Periph_SPI1 | RCC_APB2Periph_AFIO, ENABLE);                //SPI1
    3d92:	4585                	li	a1,1
    3d94:	6785                	lui	a5,0x1
    3d96:	00178513          	addi	a0,a5,1 # 1001 <GPIO_Init+0x13f>
    3d9a:	91bfd0ef          	jal	ra,16b4 <RCC_APB2PeriphClockCmd>
    3d9e:	a821                	j	3db6 <spi_init+0x4e>
C:\Users\windows\Desktop\A_Dual\A_Dual1\Dual-core_Communication_Demo\Dual-core_Communication_Demo\SLAVE\obj/../Libraries/seekfree_libraries/zf_spi.c:93
    }
    else if(SPI_2 == spi_n)
    3da0:	fcc42703          	lw	a4,-52(s0)
    3da4:	4785                	li	a5,1
    3da6:	00f71863          	bne	a4,a5,3db6 <spi_init+0x4e>
C:\Users\windows\Desktop\A_Dual\A_Dual1\Dual-core_Communication_Demo\Dual-core_Communication_Demo\SLAVE\obj/../Libraries/seekfree_libraries/zf_spi.c:95
    {
        RCC_APB1PeriphClockCmd(RCC_APB1Periph_SPI2 | RCC_APB2Periph_AFIO, ENABLE);                //SPI2
    3daa:	4585                	li	a1,1
    3dac:	6791                	lui	a5,0x4
    3dae:	00178513          	addi	a0,a5,1 # 4001 <uart_gpio_init+0xd>
    3db2:	949fd0ef          	jal	ra,16fa <RCC_APB1PeriphClockCmd>
C:\Users\windows\Desktop\A_Dual\A_Dual1\Dual-core_Communication_Demo\Dual-core_Communication_Demo\SLAVE\obj/../Libraries/seekfree_libraries/zf_spi.c:98
    }

    spi_gpio_init(sck_pin, mosi_pin, miso_pin, cs_pin);
    3db6:	fbc42683          	lw	a3,-68(s0)
    3dba:	fc042603          	lw	a2,-64(s0)
    3dbe:	fc442583          	lw	a1,-60(s0)
    3dc2:	fc842503          	lw	a0,-56(s0)
    3dc6:	e15ff0ef          	jal	ra,3bda <spi_gpio_init>
C:\Users\windows\Desktop\A_Dual\A_Dual1\Dual-core_Communication_Demo\Dual-core_Communication_Demo\SLAVE\obj/../Libraries/seekfree_libraries/zf_spi.c:100

    SPI_InitStructure.SPI_Direction = SPI_Direction_2Lines_FullDuplex;      //SPI
    3dca:	fc041e23          	sh	zero,-36(s0)
C:\Users\windows\Desktop\A_Dual\A_Dual1\Dual-core_Communication_Demo\Dual-core_Communication_Demo\SLAVE\obj/../Libraries/seekfree_libraries/zf_spi.c:101
    SPI_InitStructure.SPI_Mode = SPI_Mode_Master;                           //SPI:SPI
    3dce:	10400793          	li	a5,260
    3dd2:	fcf41f23          	sh	a5,-34(s0)
C:\Users\windows\Desktop\A_Dual\A_Dual1\Dual-core_Communication_Demo\Dual-core_Communication_Demo\SLAVE\obj/../Libraries/seekfree_libraries/zf_spi.c:102
    SPI_InitStructure.SPI_DataSize = SPI_DataSize_8b;                       //SPI:SPI8
    3dd6:	fe041023          	sh	zero,-32(s0)
C:\Users\windows\Desktop\A_Dual\A_Dual1\Dual-core_Communication_Demo\Dual-core_Communication_Demo\SLAVE\obj/../Libraries/seekfree_libraries/zf_spi.c:104

    switch(mode)
    3dda:	fbb44783          	lbu	a5,-69(s0)
    3dde:	4705                	li	a4,1
    3de0:	02e78363          	beq	a5,a4,3e06 <spi_init+0x9e>
    3de4:	4705                	li	a4,1
    3de6:	00f74463          	blt	a4,a5,3dee <spi_init+0x86>
    3dea:	cb89                	beqz	a5,3dfc <spi_init+0x94>
    3dec:	a081                	j	3e2c <spi_init+0xc4>
    3dee:	4709                	li	a4,2
    3df0:	02e78163          	beq	a5,a4,3e12 <spi_init+0xaa>
    3df4:	470d                	li	a4,3
    3df6:	02e78463          	beq	a5,a4,3e1e <spi_init+0xb6>
    3dfa:	a80d                	j	3e2c <spi_init+0xc4>
C:\Users\windows\Desktop\A_Dual\A_Dual1\Dual-core_Communication_Demo\Dual-core_Communication_Demo\SLAVE\obj/../Libraries/seekfree_libraries/zf_spi.c:108
    {
        case 0:
        {
            SPI_InitStructure.SPI_CPOL = SPI_CPOL_Low;                      //
    3dfc:	fe041123          	sh	zero,-30(s0)
C:\Users\windows\Desktop\A_Dual\A_Dual1\Dual-core_Communication_Demo\Dual-core_Communication_Demo\SLAVE\obj/../Libraries/seekfree_libraries/zf_spi.c:109
            SPI_InitStructure.SPI_CPHA = SPI_CPHA_1Edge;                    //
    3e00:	fe041223          	sh	zero,-28(s0)
C:\Users\windows\Desktop\A_Dual\A_Dual1\Dual-core_Communication_Demo\Dual-core_Communication_Demo\SLAVE\obj/../Libraries/seekfree_libraries/zf_spi.c:110
        }break;
    3e04:	a025                	j	3e2c <spi_init+0xc4>
C:\Users\windows\Desktop\A_Dual\A_Dual1\Dual-core_Communication_Demo\Dual-core_Communication_Demo\SLAVE\obj/../Libraries/seekfree_libraries/zf_spi.c:113
        case 1:
        {
            SPI_InitStructure.SPI_CPOL = SPI_CPOL_Low;                      //
    3e06:	fe041123          	sh	zero,-30(s0)
C:\Users\windows\Desktop\A_Dual\A_Dual1\Dual-core_Communication_Demo\Dual-core_Communication_Demo\SLAVE\obj/../Libraries/seekfree_libraries/zf_spi.c:114
            SPI_InitStructure.SPI_CPHA = SPI_CPHA_2Edge;                    //
    3e0a:	4785                	li	a5,1
    3e0c:	fef41223          	sh	a5,-28(s0)
C:\Users\windows\Desktop\A_Dual\A_Dual1\Dual-core_Communication_Demo\Dual-core_Communication_Demo\SLAVE\obj/../Libraries/seekfree_libraries/zf_spi.c:115
        }break;
    3e10:	a831                	j	3e2c <spi_init+0xc4>
C:\Users\windows\Desktop\A_Dual\A_Dual1\Dual-core_Communication_Demo\Dual-core_Communication_Demo\SLAVE\obj/../Libraries/seekfree_libraries/zf_spi.c:118
        case 2:
        {
            SPI_InitStructure.SPI_CPOL = SPI_CPOL_High;                     //
    3e12:	4789                	li	a5,2
    3e14:	fef41123          	sh	a5,-30(s0)
C:\Users\windows\Desktop\A_Dual\A_Dual1\Dual-core_Communication_Demo\Dual-core_Communication_Demo\SLAVE\obj/../Libraries/seekfree_libraries/zf_spi.c:119
            SPI_InitStructure.SPI_CPHA = SPI_CPHA_1Edge;                    //
    3e18:	fe041223          	sh	zero,-28(s0)
C:\Users\windows\Desktop\A_Dual\A_Dual1\Dual-core_Communication_Demo\Dual-core_Communication_Demo\SLAVE\obj/../Libraries/seekfree_libraries/zf_spi.c:120
        }break;
    3e1c:	a801                	j	3e2c <spi_init+0xc4>
C:\Users\windows\Desktop\A_Dual\A_Dual1\Dual-core_Communication_Demo\Dual-core_Communication_Demo\SLAVE\obj/../Libraries/seekfree_libraries/zf_spi.c:123
        case 3:
        {
            SPI_InitStructure.SPI_CPOL = SPI_CPOL_High;                     //
    3e1e:	4789                	li	a5,2
    3e20:	fef41123          	sh	a5,-30(s0)
C:\Users\windows\Desktop\A_Dual\A_Dual1\Dual-core_Communication_Demo\Dual-core_Communication_Demo\SLAVE\obj/../Libraries/seekfree_libraries/zf_spi.c:124
            SPI_InitStructure.SPI_CPHA = SPI_CPHA_2Edge;                    //
    3e24:	4785                	li	a5,1
    3e26:	fef41223          	sh	a5,-28(s0)
C:\Users\windows\Desktop\A_Dual\A_Dual1\Dual-core_Communication_Demo\Dual-core_Communication_Demo\SLAVE\obj/../Libraries/seekfree_libraries/zf_spi.c:125
        }break;
    3e2a:	0001                	nop
C:\Users\windows\Desktop\A_Dual\A_Dual1\Dual-core_Communication_Demo\Dual-core_Communication_Demo\SLAVE\obj/../Libraries/seekfree_libraries/zf_spi.c:128
    }

    SPI_InitStructure.SPI_NSS = SPI_NSS_Soft;                               //NSS
    3e2c:	20000793          	li	a5,512
    3e30:	fef41323          	sh	a5,-26(s0)
C:\Users\windows\Desktop\A_Dual\A_Dual1\Dual-core_Communication_Demo\Dual-core_Communication_Demo\SLAVE\obj/../Libraries/seekfree_libraries/zf_spi.c:129
    SPI_InitStructure.SPI_BaudRatePrescaler = BaudRatePrescaler << 3;       //
    3e34:	fb442783          	lw	a5,-76(s0)
    3e38:	07c2                	slli	a5,a5,0x10
    3e3a:	83c1                	srli	a5,a5,0x10
    3e3c:	078e                	slli	a5,a5,0x3
    3e3e:	07c2                	slli	a5,a5,0x10
    3e40:	83c1                	srli	a5,a5,0x10
    3e42:	fef41423          	sh	a5,-24(s0)
C:\Users\windows\Desktop\A_Dual\A_Dual1\Dual-core_Communication_Demo\Dual-core_Communication_Demo\SLAVE\obj/../Libraries/seekfree_libraries/zf_spi.c:130
    SPI_InitStructure.SPI_FirstBit = SPI_FirstBit_MSB;                      //MSBLSB:MSB
    3e46:	fe041523          	sh	zero,-22(s0)
C:\Users\windows\Desktop\A_Dual\A_Dual1\Dual-core_Communication_Demo\Dual-core_Communication_Demo\SLAVE\obj/../Libraries/seekfree_libraries/zf_spi.c:131
    SPI_InitStructure.SPI_CRCPolynomial = 7;                                //CRC
    3e4a:	479d                	li	a5,7
    3e4c:	fef41623          	sh	a5,-20(s0)
C:\Users\windows\Desktop\A_Dual\A_Dual1\Dual-core_Communication_Demo\Dual-core_Communication_Demo\SLAVE\obj/../Libraries/seekfree_libraries/zf_spi.c:132
    SPI_Init((SPI_TypeDef *)(SPIN[spi_n]), &SPI_InitStructure);             //SPI_InitStructSPIx
    3e50:	fcc42703          	lw	a4,-52(s0)
    3e54:	070a                	slli	a4,a4,0x2
    3e56:	81418793          	addi	a5,gp,-2028 # 2000012c <SPIN>
    3e5a:	97ba                	add	a5,a5,a4
    3e5c:	439c                	lw	a5,0(a5)
    3e5e:	873e                	mv	a4,a5
    3e60:	fdc40793          	addi	a5,s0,-36
    3e64:	85be                	mv	a1,a5
    3e66:	853a                	mv	a0,a4
    3e68:	8d9fd0ef          	jal	ra,1740 <SPI_Init>
C:\Users\windows\Desktop\A_Dual\A_Dual1\Dual-core_Communication_Demo\Dual-core_Communication_Demo\SLAVE\obj/../Libraries/seekfree_libraries/zf_spi.c:134

    if(SPI1_SCK_PB3 == sck_pin) GPIO_PinRemapConfig(GPIO_Remap_SPI1, ENABLE);
    3e6c:	fc842703          	lw	a4,-56(s0)
    3e70:	47c1                	li	a5,16
    3e72:	00f71663          	bne	a4,a5,3e7e <spi_init+0x116>
C:\Users\windows\Desktop\A_Dual\A_Dual1\Dual-core_Communication_Demo\Dual-core_Communication_Demo\SLAVE\obj/../Libraries/seekfree_libraries/zf_spi.c:134 (discriminator 1)
    3e76:	4585                	li	a1,1
    3e78:	4505                	li	a0,1
    3e7a:	aaafd0ef          	jal	ra,1124 <GPIO_PinRemapConfig>
C:\Users\windows\Desktop\A_Dual\A_Dual1\Dual-core_Communication_Demo\Dual-core_Communication_Demo\SLAVE\obj/../Libraries/seekfree_libraries/zf_spi.c:136

    SPI_Cmd(((SPI_TypeDef *)(SPIN[spi_n])), ENABLE);                         //SPI
    3e7e:	fcc42703          	lw	a4,-52(s0)
    3e82:	070a                	slli	a4,a4,0x2
    3e84:	81418793          	addi	a5,gp,-2028 # 2000012c <SPIN>
    3e88:	97ba                	add	a5,a5,a4
    3e8a:	439c                	lw	a5,0(a5)
    3e8c:	4585                	li	a1,1
    3e8e:	853e                	mv	a0,a5
    3e90:	9a9fd0ef          	jal	ra,1838 <SPI_Cmd>
C:\Users\windows\Desktop\A_Dual\A_Dual1\Dual-core_Communication_Demo\Dual-core_Communication_Demo\SLAVE\obj/../Libraries/seekfree_libraries/zf_spi.c:138

}
    3e94:	0001                	nop
    3e96:	40b6                	lw	ra,76(sp)
    3e98:	4426                	lw	s0,72(sp)
    3e9a:	6161                	addi	sp,sp,80
    3e9c:	8082                	ret

00003e9e <spi_mosi>:
spi_mosi():
C:\Users\windows\Desktop\A_Dual\A_Dual1\Dual-core_Communication_Demo\Dual-core_Communication_Demo\SLAVE\obj/../Libraries/seekfree_libraries/zf_spi.c:151
//  @return     void
//  @since      v2.0
//  Sample usage:               spi_mosi(SPI_1, buf, buf, 1);    //modatamidata1
//-------------------------------------------------------------------------------------------------------------------
void spi_mosi(SPIN_enum spi_n, uint8 *modata, uint8 *midata, uint32 len)
{
    3e9e:	1101                	addi	sp,sp,-32
    3ea0:	ce22                	sw	s0,28(sp)
    3ea2:	1000                	addi	s0,sp,32
    3ea4:	fea42623          	sw	a0,-20(s0)
    3ea8:	feb42423          	sw	a1,-24(s0)
    3eac:	fec42223          	sw	a2,-28(s0)
    3eb0:	fed42023          	sw	a3,-32(s0)
C:\Users\windows\Desktop\A_Dual\A_Dual1\Dual-core_Communication_Demo\Dual-core_Communication_Demo\SLAVE\obj/../Libraries/seekfree_libraries/zf_spi.c:152
    while(len--)
    3eb4:	a859                	j	3f4a <spi_mosi+0xac>
C:\Users\windows\Desktop\A_Dual\A_Dual1\Dual-core_Communication_Demo\Dual-core_Communication_Demo\SLAVE\obj/../Libraries/seekfree_libraries/zf_spi.c:154
    {
        while((((SPI_TypeDef *)(SPIN[spi_n]))->STATR & SPI_I2S_FLAG_TXE) == RESET);
    3eb6:	0001                	nop
C:\Users\windows\Desktop\A_Dual\A_Dual1\Dual-core_Communication_Demo\Dual-core_Communication_Demo\SLAVE\obj/../Libraries/seekfree_libraries/zf_spi.c:154 (discriminator 1)
    3eb8:	fec42703          	lw	a4,-20(s0)
    3ebc:	070a                	slli	a4,a4,0x2
    3ebe:	81418793          	addi	a5,gp,-2028 # 2000012c <SPIN>
    3ec2:	97ba                	add	a5,a5,a4
    3ec4:	439c                	lw	a5,0(a5)
    3ec6:	0087d783          	lhu	a5,8(a5)
    3eca:	07c2                	slli	a5,a5,0x10
    3ecc:	83c1                	srli	a5,a5,0x10
    3ece:	8b89                	andi	a5,a5,2
    3ed0:	d7e5                	beqz	a5,3eb8 <spi_mosi+0x1a>
C:\Users\windows\Desktop\A_Dual\A_Dual1\Dual-core_Communication_Demo\Dual-core_Communication_Demo\SLAVE\obj/../Libraries/seekfree_libraries/zf_spi.c:155
        ((SPI_TypeDef *)(SPIN[spi_n]))->DATAR = *(modata++);
    3ed2:	fe842783          	lw	a5,-24(s0)
    3ed6:	00178713          	addi	a4,a5,1
    3eda:	fee42423          	sw	a4,-24(s0)
    3ede:	0007c683          	lbu	a3,0(a5)
    3ee2:	fec42703          	lw	a4,-20(s0)
    3ee6:	070a                	slli	a4,a4,0x2
    3ee8:	81418793          	addi	a5,gp,-2028 # 2000012c <SPIN>
    3eec:	97ba                	add	a5,a5,a4
    3eee:	439c                	lw	a5,0(a5)
    3ef0:	873e                	mv	a4,a5
    3ef2:	01069793          	slli	a5,a3,0x10
    3ef6:	83c1                	srli	a5,a5,0x10
    3ef8:	00f71623          	sh	a5,12(a4)
C:\Users\windows\Desktop\A_Dual\A_Dual1\Dual-core_Communication_Demo\Dual-core_Communication_Demo\SLAVE\obj/../Libraries/seekfree_libraries/zf_spi.c:156
        if(NULL != midata)
    3efc:	fe442783          	lw	a5,-28(s0)
    3f00:	c7a9                	beqz	a5,3f4a <spi_mosi+0xac>
C:\Users\windows\Desktop\A_Dual\A_Dual1\Dual-core_Communication_Demo\Dual-core_Communication_Demo\SLAVE\obj/../Libraries/seekfree_libraries/zf_spi.c:158
        {
            while((((SPI_TypeDef *)(SPIN[spi_n]))->STATR & SPI_I2S_FLAG_RXNE) == RESET);
    3f02:	0001                	nop
C:\Users\windows\Desktop\A_Dual\A_Dual1\Dual-core_Communication_Demo\Dual-core_Communication_Demo\SLAVE\obj/../Libraries/seekfree_libraries/zf_spi.c:158 (discriminator 1)
    3f04:	fec42703          	lw	a4,-20(s0)
    3f08:	070a                	slli	a4,a4,0x2
    3f0a:	81418793          	addi	a5,gp,-2028 # 2000012c <SPIN>
    3f0e:	97ba                	add	a5,a5,a4
    3f10:	439c                	lw	a5,0(a5)
    3f12:	0087d783          	lhu	a5,8(a5)
    3f16:	07c2                	slli	a5,a5,0x10
    3f18:	83c1                	srli	a5,a5,0x10
    3f1a:	8b85                	andi	a5,a5,1
    3f1c:	d7e5                	beqz	a5,3f04 <spi_mosi+0x66>
C:\Users\windows\Desktop\A_Dual\A_Dual1\Dual-core_Communication_Demo\Dual-core_Communication_Demo\SLAVE\obj/../Libraries/seekfree_libraries/zf_spi.c:159
            *(midata++) = ((SPI_TypeDef *)(SPIN[spi_n]))->DATAR;
    3f1e:	fec42703          	lw	a4,-20(s0)
    3f22:	070a                	slli	a4,a4,0x2
    3f24:	81418793          	addi	a5,gp,-2028 # 2000012c <SPIN>
    3f28:	97ba                	add	a5,a5,a4
    3f2a:	439c                	lw	a5,0(a5)
    3f2c:	00c7d783          	lhu	a5,12(a5)
    3f30:	01079693          	slli	a3,a5,0x10
    3f34:	82c1                	srli	a3,a3,0x10
    3f36:	fe442783          	lw	a5,-28(s0)
    3f3a:	00178713          	addi	a4,a5,1
    3f3e:	fee42223          	sw	a4,-28(s0)
    3f42:	0ff6f713          	andi	a4,a3,255
    3f46:	00e78023          	sb	a4,0(a5)
C:\Users\windows\Desktop\A_Dual\A_Dual1\Dual-core_Communication_Demo\Dual-core_Communication_Demo\SLAVE\obj/../Libraries/seekfree_libraries/zf_spi.c:152
    while(len--)
    3f4a:	fe042783          	lw	a5,-32(s0)
    3f4e:	fff78713          	addi	a4,a5,-1
    3f52:	fee42023          	sw	a4,-32(s0)
    3f56:	f3a5                	bnez	a5,3eb6 <spi_mosi+0x18>
C:\Users\windows\Desktop\A_Dual\A_Dual1\Dual-core_Communication_Demo\Dual-core_Communication_Demo\SLAVE\obj/../Libraries/seekfree_libraries/zf_spi.c:162
        }
    }
}
    3f58:	0001                	nop
    3f5a:	4472                	lw	s0,28(sp)
    3f5c:	6105                	addi	sp,sp,32
    3f5e:	8082                	ret

00003f60 <systick_delay>:
systick_delay():
C:\Users\windows\Desktop\A_Dual\A_Dual1\Dual-core_Communication_Demo\Dual-core_Communication_Demo\SLAVE\obj/../Libraries/seekfree_libraries/zf_systick.c:29
//  @param      time                us
//  @return     void
//  Sample usage:                   
//-------------------------------------------------------------------------------------------------------------------
void systick_delay(uint64 time)
{
    3f60:	1101                	addi	sp,sp,-32
    3f62:	ce22                	sw	s0,28(sp)
    3f64:	1000                	addi	s0,sp,32
    3f66:	fea42423          	sw	a0,-24(s0)
    3f6a:	feb42623          	sw	a1,-20(s0)
C:\Users\windows\Desktop\A_Dual\A_Dual1\Dual-core_Communication_Demo\Dual-core_Communication_Demo\SLAVE\obj/../Libraries/seekfree_libraries/zf_systick.c:30
    SysTick->CTLR = 0;
    3f6e:	e000f737          	lui	a4,0xe000f
    3f72:	00072023          	sw	zero,0(a4) # e000f000 <_eusrstack+0xc000a000>
C:\Users\windows\Desktop\A_Dual\A_Dual1\Dual-core_Communication_Demo\Dual-core_Communication_Demo\SLAVE\obj/../Libraries/seekfree_libraries/zf_systick.c:31
    SysTick->CNTL0 = 0;
    3f76:	e000f737          	lui	a4,0xe000f
    3f7a:	00070223          	sb	zero,4(a4) # e000f004 <_eusrstack+0xc000a004>
C:\Users\windows\Desktop\A_Dual\A_Dual1\Dual-core_Communication_Demo\Dual-core_Communication_Demo\SLAVE\obj/../Libraries/seekfree_libraries/zf_systick.c:32
    SysTick->CNTL1 = 0;
    3f7e:	e000f737          	lui	a4,0xe000f
    3f82:	000702a3          	sb	zero,5(a4) # e000f005 <_eusrstack+0xc000a005>
C:\Users\windows\Desktop\A_Dual\A_Dual1\Dual-core_Communication_Demo\Dual-core_Communication_Demo\SLAVE\obj/../Libraries/seekfree_libraries/zf_systick.c:33
    SysTick->CNTL2 = 0;
    3f86:	e000f737          	lui	a4,0xe000f
    3f8a:	00070323          	sb	zero,6(a4) # e000f006 <_eusrstack+0xc000a006>
C:\Users\windows\Desktop\A_Dual\A_Dual1\Dual-core_Communication_Demo\Dual-core_Communication_Demo\SLAVE\obj/../Libraries/seekfree_libraries/zf_systick.c:34
    SysTick->CNTL3 = 0;
    3f8e:	e000f737          	lui	a4,0xe000f
    3f92:	000703a3          	sb	zero,7(a4) # e000f007 <_eusrstack+0xc000a007>
C:\Users\windows\Desktop\A_Dual\A_Dual1\Dual-core_Communication_Demo\Dual-core_Communication_Demo\SLAVE\obj/../Libraries/seekfree_libraries/zf_systick.c:35
    SysTick->CNTH0 = 0;
    3f96:	e000f737          	lui	a4,0xe000f
    3f9a:	00070423          	sb	zero,8(a4) # e000f008 <_eusrstack+0xc000a008>
C:\Users\windows\Desktop\A_Dual\A_Dual1\Dual-core_Communication_Demo\Dual-core_Communication_Demo\SLAVE\obj/../Libraries/seekfree_libraries/zf_systick.c:36
    SysTick->CNTH1 = 0;
    3f9e:	e000f737          	lui	a4,0xe000f
    3fa2:	000704a3          	sb	zero,9(a4) # e000f009 <_eusrstack+0xc000a009>
C:\Users\windows\Desktop\A_Dual\A_Dual1\Dual-core_Communication_Demo\Dual-core_Communication_Demo\SLAVE\obj/../Libraries/seekfree_libraries/zf_systick.c:37
    SysTick->CNTH2 = 0;
    3fa6:	e000f737          	lui	a4,0xe000f
    3faa:	00070523          	sb	zero,10(a4) # e000f00a <_eusrstack+0xc000a00a>
C:\Users\windows\Desktop\A_Dual\A_Dual1\Dual-core_Communication_Demo\Dual-core_Communication_Demo\SLAVE\obj/../Libraries/seekfree_libraries/zf_systick.c:38
    SysTick->CNTH3 = 0;
    3fae:	e000f737          	lui	a4,0xe000f
    3fb2:	000705a3          	sb	zero,11(a4) # e000f00b <_eusrstack+0xc000a00b>
C:\Users\windows\Desktop\A_Dual\A_Dual1\Dual-core_Communication_Demo\Dual-core_Communication_Demo\SLAVE\obj/../Libraries/seekfree_libraries/zf_systick.c:39
    SysTick->CTLR = 1;          // systickHCLK/8  us
    3fb6:	e000f737          	lui	a4,0xe000f
    3fba:	4685                	li	a3,1
    3fbc:	c314                	sw	a3,0(a4)
C:\Users\windows\Desktop\A_Dual\A_Dual1\Dual-core_Communication_Demo\Dual-core_Communication_Demo\SLAVE\obj/../Libraries/seekfree_libraries/zf_systick.c:41

    while((*(volatile uint32*)0xE000F004) <= time);
    3fbe:	0001                	nop
C:\Users\windows\Desktop\A_Dual\A_Dual1\Dual-core_Communication_Demo\Dual-core_Communication_Demo\SLAVE\obj/../Libraries/seekfree_libraries/zf_systick.c:41 (discriminator 1)
    3fc0:	e000f737          	lui	a4,0xe000f
    3fc4:	0711                	addi	a4,a4,4
    3fc6:	4318                	lw	a4,0(a4)
    3fc8:	87ba                	mv	a5,a4
    3fca:	4801                	li	a6,0
    3fcc:	fec42703          	lw	a4,-20(s0)
    3fd0:	86c2                	mv	a3,a6
    3fd2:	00d76d63          	bltu	a4,a3,3fec <systick_delay+0x8c>
    3fd6:	fec42703          	lw	a4,-20(s0)
    3fda:	86c2                	mv	a3,a6
    3fdc:	fed712e3          	bne	a4,a3,3fc0 <systick_delay+0x60>
    3fe0:	fe842703          	lw	a4,-24(s0)
    3fe4:	86be                	mv	a3,a5
    3fe6:	00d76363          	bltu	a4,a3,3fec <systick_delay+0x8c>
    3fea:	bfd9                	j	3fc0 <systick_delay+0x60>
C:\Users\windows\Desktop\A_Dual\A_Dual1\Dual-core_Communication_Demo\Dual-core_Communication_Demo\SLAVE\obj/../Libraries/seekfree_libraries/zf_systick.c:42
}
    3fec:	0001                	nop
    3fee:	4472                	lw	s0,28(sp)
    3ff0:	6105                	addi	sp,sp,32
    3ff2:	8082                	ret

00003ff4 <uart_gpio_init>:
uart_gpio_init():
C:\Users\windows\Desktop\A_Dual\A_Dual1\Dual-core_Communication_Demo\Dual-core_Communication_Demo\SLAVE\obj/../Libraries/seekfree_libraries/zf_uart.c:38
//  @param      rx_pin      
//  @return     void
//  Sample usage:           
//-------------------------------------------------------------------------------------------------------------------
void uart_gpio_init(UARTPIN_enum tx_pin, UARTPIN_enum rx_pin)
{
    3ff4:	1101                	addi	sp,sp,-32
    3ff6:	ce06                	sw	ra,28(sp)
    3ff8:	cc22                	sw	s0,24(sp)
    3ffa:	1000                	addi	s0,sp,32
    3ffc:	fea42623          	sw	a0,-20(s0)
    4000:	feb42423          	sw	a1,-24(s0)
C:\Users\windows\Desktop\A_Dual\A_Dual1\Dual-core_Communication_Demo\Dual-core_Communication_Demo\SLAVE\obj/../Libraries/seekfree_libraries/zf_uart.c:39
    if(tx_pin == UART1_TX_A9 && rx_pin == UART1_RX_A10)
    4004:	fec42783          	lw	a5,-20(s0)
    4008:	e785                	bnez	a5,4030 <uart_gpio_init+0x3c>
C:\Users\windows\Desktop\A_Dual\A_Dual1\Dual-core_Communication_Demo\Dual-core_Communication_Demo\SLAVE\obj/../Libraries/seekfree_libraries/zf_uart.c:39 (discriminator 1)
    400a:	fe842703          	lw	a4,-24(s0)
    400e:	4785                	li	a5,1
    4010:	02f71063          	bne	a4,a5,4030 <uart_gpio_init+0x3c>
C:\Users\windows\Desktop\A_Dual\A_Dual1\Dual-core_Communication_Demo\Dual-core_Communication_Demo\SLAVE\obj/../Libraries/seekfree_libraries/zf_uart.c:41
    {
        gpio_init(A9, GPO, 0, SPEED_50MHZ|OUT_AF_PP);
    4014:	31800693          	li	a3,792
    4018:	4601                	li	a2,0
    401a:	4585                	li	a1,1
    401c:	4525                	li	a0,9
    401e:	b78ff0ef          	jal	ra,3396 <gpio_init>
C:\Users\windows\Desktop\A_Dual\A_Dual1\Dual-core_Communication_Demo\Dual-core_Communication_Demo\SLAVE\obj/../Libraries/seekfree_libraries/zf_uart.c:42
        gpio_init(A10, GPI, 0, IN_FLOAT);
    4022:	4691                	li	a3,4
    4024:	4601                	li	a2,0
    4026:	4581                	li	a1,0
    4028:	4529                	li	a0,10
    402a:	b6cff0ef          	jal	ra,3396 <gpio_init>
C:\Users\windows\Desktop\A_Dual\A_Dual1\Dual-core_Communication_Demo\Dual-core_Communication_Demo\SLAVE\obj/../Libraries/seekfree_libraries/zf_uart.c:67
    else if(tx_pin == UART3_TX_C10)
    {
        gpio_init(C10, GPO, 0, SPEED_50MHZ|OUT_AF_PP);
        gpio_init(C11, GPI, 0, IN_FLOAT);
    }
}
    402e:	a065                	j	40d6 <uart_gpio_init+0xe2>
C:\Users\windows\Desktop\A_Dual\A_Dual1\Dual-core_Communication_Demo\Dual-core_Communication_Demo\SLAVE\obj/../Libraries/seekfree_libraries/zf_uart.c:44
    else if(tx_pin == UART1_TX_B6)
    4030:	fec42703          	lw	a4,-20(s0)
    4034:	4789                	li	a5,2
    4036:	02f71263          	bne	a4,a5,405a <uart_gpio_init+0x66>
C:\Users\windows\Desktop\A_Dual\A_Dual1\Dual-core_Communication_Demo\Dual-core_Communication_Demo\SLAVE\obj/../Libraries/seekfree_libraries/zf_uart.c:46
        gpio_init(B6, GPO, 0, SPEED_50MHZ|OUT_AF_PP);
    403a:	31800693          	li	a3,792
    403e:	4601                	li	a2,0
    4040:	4585                	li	a1,1
    4042:	02600513          	li	a0,38
    4046:	b50ff0ef          	jal	ra,3396 <gpio_init>
C:\Users\windows\Desktop\A_Dual\A_Dual1\Dual-core_Communication_Demo\Dual-core_Communication_Demo\SLAVE\obj/../Libraries/seekfree_libraries/zf_uart.c:47
        gpio_init(B7, GPI, 0, IN_FLOAT);
    404a:	4691                	li	a3,4
    404c:	4601                	li	a2,0
    404e:	4581                	li	a1,0
    4050:	02700513          	li	a0,39
    4054:	b42ff0ef          	jal	ra,3396 <gpio_init>
C:\Users\windows\Desktop\A_Dual\A_Dual1\Dual-core_Communication_Demo\Dual-core_Communication_Demo\SLAVE\obj/../Libraries/seekfree_libraries/zf_uart.c:67
}
    4058:	a8bd                	j	40d6 <uart_gpio_init+0xe2>
C:\Users\windows\Desktop\A_Dual\A_Dual1\Dual-core_Communication_Demo\Dual-core_Communication_Demo\SLAVE\obj/../Libraries/seekfree_libraries/zf_uart.c:50
    else if(tx_pin == UART2_TX_A2)
    405a:	fec42703          	lw	a4,-20(s0)
    405e:	47c1                	li	a5,16
    4060:	02f71063          	bne	a4,a5,4080 <uart_gpio_init+0x8c>
C:\Users\windows\Desktop\A_Dual\A_Dual1\Dual-core_Communication_Demo\Dual-core_Communication_Demo\SLAVE\obj/../Libraries/seekfree_libraries/zf_uart.c:52
        gpio_init(A2, GPO, 0, SPEED_50MHZ|OUT_AF_PP);
    4064:	31800693          	li	a3,792
    4068:	4601                	li	a2,0
    406a:	4585                	li	a1,1
    406c:	4509                	li	a0,2
    406e:	b28ff0ef          	jal	ra,3396 <gpio_init>
C:\Users\windows\Desktop\A_Dual\A_Dual1\Dual-core_Communication_Demo\Dual-core_Communication_Demo\SLAVE\obj/../Libraries/seekfree_libraries/zf_uart.c:53
        gpio_init(A3, GPI, 0, IN_FLOAT);
    4072:	4691                	li	a3,4
    4074:	4601                	li	a2,0
    4076:	4581                	li	a1,0
    4078:	450d                	li	a0,3
    407a:	b1cff0ef          	jal	ra,3396 <gpio_init>
C:\Users\windows\Desktop\A_Dual\A_Dual1\Dual-core_Communication_Demo\Dual-core_Communication_Demo\SLAVE\obj/../Libraries/seekfree_libraries/zf_uart.c:67
}
    407e:	a8a1                	j	40d6 <uart_gpio_init+0xe2>
C:\Users\windows\Desktop\A_Dual\A_Dual1\Dual-core_Communication_Demo\Dual-core_Communication_Demo\SLAVE\obj/../Libraries/seekfree_libraries/zf_uart.c:56
    else if(tx_pin == UART3_TX_B10)
    4080:	fec42703          	lw	a4,-20(s0)
    4084:	02000793          	li	a5,32
    4088:	02f71263          	bne	a4,a5,40ac <uart_gpio_init+0xb8>
C:\Users\windows\Desktop\A_Dual\A_Dual1\Dual-core_Communication_Demo\Dual-core_Communication_Demo\SLAVE\obj/../Libraries/seekfree_libraries/zf_uart.c:58
        gpio_init(B10, GPO, 0, SPEED_50MHZ|OUT_AF_PP);
    408c:	31800693          	li	a3,792
    4090:	4601                	li	a2,0
    4092:	4585                	li	a1,1
    4094:	02a00513          	li	a0,42
    4098:	afeff0ef          	jal	ra,3396 <gpio_init>
C:\Users\windows\Desktop\A_Dual\A_Dual1\Dual-core_Communication_Demo\Dual-core_Communication_Demo\SLAVE\obj/../Libraries/seekfree_libraries/zf_uart.c:59
        gpio_init(B11, GPI, 0, IN_FLOAT);
    409c:	4691                	li	a3,4
    409e:	4601                	li	a2,0
    40a0:	4581                	li	a1,0
    40a2:	02b00513          	li	a0,43
    40a6:	af0ff0ef          	jal	ra,3396 <gpio_init>
C:\Users\windows\Desktop\A_Dual\A_Dual1\Dual-core_Communication_Demo\Dual-core_Communication_Demo\SLAVE\obj/../Libraries/seekfree_libraries/zf_uart.c:67
}
    40aa:	a035                	j	40d6 <uart_gpio_init+0xe2>
C:\Users\windows\Desktop\A_Dual\A_Dual1\Dual-core_Communication_Demo\Dual-core_Communication_Demo\SLAVE\obj/../Libraries/seekfree_libraries/zf_uart.c:62
    else if(tx_pin == UART3_TX_C10)
    40ac:	fec42703          	lw	a4,-20(s0)
    40b0:	02200793          	li	a5,34
    40b4:	02f71163          	bne	a4,a5,40d6 <uart_gpio_init+0xe2>
C:\Users\windows\Desktop\A_Dual\A_Dual1\Dual-core_Communication_Demo\Dual-core_Communication_Demo\SLAVE\obj/../Libraries/seekfree_libraries/zf_uart.c:64
        gpio_init(C10, GPO, 0, SPEED_50MHZ|OUT_AF_PP);
    40b8:	31800693          	li	a3,792
    40bc:	4601                	li	a2,0
    40be:	4585                	li	a1,1
    40c0:	04a00513          	li	a0,74
    40c4:	ad2ff0ef          	jal	ra,3396 <gpio_init>
C:\Users\windows\Desktop\A_Dual\A_Dual1\Dual-core_Communication_Demo\Dual-core_Communication_Demo\SLAVE\obj/../Libraries/seekfree_libraries/zf_uart.c:65
        gpio_init(C11, GPI, 0, IN_FLOAT);
    40c8:	4691                	li	a3,4
    40ca:	4601                	li	a2,0
    40cc:	4581                	li	a1,0
    40ce:	04b00513          	li	a0,75
    40d2:	ac4ff0ef          	jal	ra,3396 <gpio_init>
C:\Users\windows\Desktop\A_Dual\A_Dual1\Dual-core_Communication_Demo\Dual-core_Communication_Demo\SLAVE\obj/../Libraries/seekfree_libraries/zf_uart.c:67
}
    40d6:	0001                	nop
    40d8:	40f2                	lw	ra,28(sp)
    40da:	4462                	lw	s0,24(sp)
    40dc:	6105                	addi	sp,sp,32
    40de:	8082                	ret

000040e0 <uart_init>:
uart_init():
C:\Users\windows\Desktop\A_Dual\A_Dual1\Dual-core_Communication_Demo\Dual-core_Communication_Demo\SLAVE\obj/../Libraries/seekfree_libraries/zf_uart.c:79
//  @param      rx_pin      
//  @return     void
//  Sample usage:           uart_init(UART_1, 115200, UART1_TX_A9, UART1_RX_A10); //1,TXA9,RXA10
//-------------------------------------------------------------------------------------------------------------------
void uart_init(UARTN_enum uartn, uint32 baud, UARTPIN_enum tx_pin, UARTPIN_enum rx_pin)
{
    40e0:	7179                	addi	sp,sp,-48
    40e2:	d606                	sw	ra,44(sp)
    40e4:	d422                	sw	s0,40(sp)
    40e6:	1800                	addi	s0,sp,48
    40e8:	fca42e23          	sw	a0,-36(s0)
    40ec:	fcb42c23          	sw	a1,-40(s0)
    40f0:	fcc42a23          	sw	a2,-44(s0)
    40f4:	fcd42823          	sw	a3,-48(s0)
C:\Users\windows\Desktop\A_Dual\A_Dual1\Dual-core_Communication_Demo\Dual-core_Communication_Demo\SLAVE\obj/../Libraries/seekfree_libraries/zf_uart.c:83
    USART_InitTypeDef USART_InitStructure;


    RCC_APB2PeriphClockCmd(RCC_APB2Periph_AFIO, ENABLE);
    40f8:	4585                	li	a1,1
    40fa:	4505                	li	a0,1
    40fc:	db8fd0ef          	jal	ra,16b4 <RCC_APB2PeriphClockCmd>
C:\Users\windows\Desktop\A_Dual\A_Dual1\Dual-core_Communication_Demo\Dual-core_Communication_Demo\SLAVE\obj/../Libraries/seekfree_libraries/zf_uart.c:86

    //
    uart_gpio_init(tx_pin, rx_pin);
    4100:	fd042583          	lw	a1,-48(s0)
    4104:	fd442503          	lw	a0,-44(s0)
    4108:	35f5                	jal	3ff4 <uart_gpio_init>
C:\Users\windows\Desktop\A_Dual\A_Dual1\Dual-core_Communication_Demo\Dual-core_Communication_Demo\SLAVE\obj/../Libraries/seekfree_libraries/zf_uart.c:88

    if(UART1_TX_B6 == tx_pin && UART1_RX_B7 == rx_pin)                         //
    410a:	fd442703          	lw	a4,-44(s0)
    410e:	4789                	li	a5,2
    4110:	00f71b63          	bne	a4,a5,4126 <uart_init+0x46>
C:\Users\windows\Desktop\A_Dual\A_Dual1\Dual-core_Communication_Demo\Dual-core_Communication_Demo\SLAVE\obj/../Libraries/seekfree_libraries/zf_uart.c:88 (discriminator 1)
    4114:	fd042703          	lw	a4,-48(s0)
    4118:	478d                	li	a5,3
    411a:	00f71663          	bne	a4,a5,4126 <uart_init+0x46>
C:\Users\windows\Desktop\A_Dual\A_Dual1\Dual-core_Communication_Demo\Dual-core_Communication_Demo\SLAVE\obj/../Libraries/seekfree_libraries/zf_uart.c:89
        GPIO_PinRemapConfig(GPIO_Remap_USART1, ENABLE);
    411e:	4585                	li	a1,1
    4120:	4511                	li	a0,4
    4122:	802fd0ef          	jal	ra,1124 <GPIO_PinRemapConfig>
C:\Users\windows\Desktop\A_Dual\A_Dual1\Dual-core_Communication_Demo\Dual-core_Communication_Demo\SLAVE\obj/../Libraries/seekfree_libraries/zf_uart.c:90
    if(UART3_TX_C10 == tx_pin && UART3_RX_C11 == rx_pin)
    4126:	fd442703          	lw	a4,-44(s0)
    412a:	02200793          	li	a5,34
    412e:	00f71f63          	bne	a4,a5,414c <uart_init+0x6c>
C:\Users\windows\Desktop\A_Dual\A_Dual1\Dual-core_Communication_Demo\Dual-core_Communication_Demo\SLAVE\obj/../Libraries/seekfree_libraries/zf_uart.c:90 (discriminator 1)
    4132:	fd042703          	lw	a4,-48(s0)
    4136:	02300793          	li	a5,35
    413a:	00f71963          	bne	a4,a5,414c <uart_init+0x6c>
C:\Users\windows\Desktop\A_Dual\A_Dual1\Dual-core_Communication_Demo\Dual-core_Communication_Demo\SLAVE\obj/../Libraries/seekfree_libraries/zf_uart.c:91
        GPIO_PinRemapConfig(GPIO_PartialRemap_USART3, ENABLE);
    413e:	4585                	li	a1,1
    4140:	001407b7          	lui	a5,0x140
    4144:	01078513          	addi	a0,a5,16 # 140010 <_data_lma+0x139d38>
    4148:	fddfc0ef          	jal	ra,1124 <GPIO_PinRemapConfig>
C:\Users\windows\Desktop\A_Dual\A_Dual1\Dual-core_Communication_Demo\Dual-core_Communication_Demo\SLAVE\obj/../Libraries/seekfree_libraries/zf_uart.c:94

    //
    if(UART_1 == uartn) RCC_APB2PeriphClockCmd(RCC_APB2Periph_USART1, ENABLE);
    414c:	fdc42783          	lw	a5,-36(s0)
    4150:	e791                	bnez	a5,415c <uart_init+0x7c>
C:\Users\windows\Desktop\A_Dual\A_Dual1\Dual-core_Communication_Demo\Dual-core_Communication_Demo\SLAVE\obj/../Libraries/seekfree_libraries/zf_uart.c:94 (discriminator 1)
    4152:	4585                	li	a1,1
    4154:	6511                	lui	a0,0x4
    4156:	d5efd0ef          	jal	ra,16b4 <RCC_APB2PeriphClockCmd>
    415a:	a035                	j	4186 <uart_init+0xa6>
C:\Users\windows\Desktop\A_Dual\A_Dual1\Dual-core_Communication_Demo\Dual-core_Communication_Demo\SLAVE\obj/../Libraries/seekfree_libraries/zf_uart.c:95
    else if(UART_2 == uartn) RCC_APB1PeriphClockCmd(RCC_APB1Periph_USART2, ENABLE);
    415c:	fdc42703          	lw	a4,-36(s0)
    4160:	4785                	li	a5,1
    4162:	00f71863          	bne	a4,a5,4172 <uart_init+0x92>
C:\Users\windows\Desktop\A_Dual\A_Dual1\Dual-core_Communication_Demo\Dual-core_Communication_Demo\SLAVE\obj/../Libraries/seekfree_libraries/zf_uart.c:95 (discriminator 1)
    4166:	4585                	li	a1,1
    4168:	00020537          	lui	a0,0x20
    416c:	d8efd0ef          	jal	ra,16fa <RCC_APB1PeriphClockCmd>
    4170:	a819                	j	4186 <uart_init+0xa6>
C:\Users\windows\Desktop\A_Dual\A_Dual1\Dual-core_Communication_Demo\Dual-core_Communication_Demo\SLAVE\obj/../Libraries/seekfree_libraries/zf_uart.c:96
    else if(UART_3 == uartn) RCC_APB1PeriphClockCmd(RCC_APB1Periph_USART3, ENABLE);
    4172:	fdc42703          	lw	a4,-36(s0)
    4176:	4789                	li	a5,2
    4178:	00f71763          	bne	a4,a5,4186 <uart_init+0xa6>
C:\Users\windows\Desktop\A_Dual\A_Dual1\Dual-core_Communication_Demo\Dual-core_Communication_Demo\SLAVE\obj/../Libraries/seekfree_libraries/zf_uart.c:96 (discriminator 1)
    417c:	4585                	li	a1,1
    417e:	00040537          	lui	a0,0x40
    4182:	d78fd0ef          	jal	ra,16fa <RCC_APB1PeriphClockCmd>
C:\Users\windows\Desktop\A_Dual\A_Dual1\Dual-core_Communication_Demo\Dual-core_Communication_Demo\SLAVE\obj/../Libraries/seekfree_libraries/zf_uart.c:99

    //
    USART_InitStructure.USART_BaudRate = baud;
    4186:	fd842783          	lw	a5,-40(s0)
    418a:	fef42023          	sw	a5,-32(s0)
C:\Users\windows\Desktop\A_Dual\A_Dual1\Dual-core_Communication_Demo\Dual-core_Communication_Demo\SLAVE\obj/../Libraries/seekfree_libraries/zf_uart.c:100
    USART_InitStructure.USART_WordLength = USART_WordLength_8b;
    418e:	fe041223          	sh	zero,-28(s0)
C:\Users\windows\Desktop\A_Dual\A_Dual1\Dual-core_Communication_Demo\Dual-core_Communication_Demo\SLAVE\obj/../Libraries/seekfree_libraries/zf_uart.c:101
    USART_InitStructure.USART_StopBits = USART_StopBits_1;
    4192:	fe041323          	sh	zero,-26(s0)
C:\Users\windows\Desktop\A_Dual\A_Dual1\Dual-core_Communication_Demo\Dual-core_Communication_Demo\SLAVE\obj/../Libraries/seekfree_libraries/zf_uart.c:102
    USART_InitStructure.USART_Parity = USART_Parity_No;
    4196:	fe041423          	sh	zero,-24(s0)
C:\Users\windows\Desktop\A_Dual\A_Dual1\Dual-core_Communication_Demo\Dual-core_Communication_Demo\SLAVE\obj/../Libraries/seekfree_libraries/zf_uart.c:103
    USART_InitStructure.USART_HardwareFlowControl = USART_HardwareFlowControl_None;
    419a:	fe041623          	sh	zero,-20(s0)
C:\Users\windows\Desktop\A_Dual\A_Dual1\Dual-core_Communication_Demo\Dual-core_Communication_Demo\SLAVE\obj/../Libraries/seekfree_libraries/zf_uart.c:104
    USART_InitStructure.USART_Mode = USART_Mode_Tx | USART_Mode_Rx;
    419e:	47b1                	li	a5,12
    41a0:	fef41523          	sh	a5,-22(s0)
C:\Users\windows\Desktop\A_Dual\A_Dual1\Dual-core_Communication_Demo\Dual-core_Communication_Demo\SLAVE\obj/../Libraries/seekfree_libraries/zf_uart.c:107

    //
    USART_Init((USART_TypeDef*)UARTN[uartn], &USART_InitStructure);
    41a4:	6799                	lui	a5,0x6
    41a6:	fdc42703          	lw	a4,-36(s0)
    41aa:	070a                	slli	a4,a4,0x2
    41ac:	1ec78793          	addi	a5,a5,492 # 61ec <UARTN>
    41b0:	97ba                	add	a5,a5,a4
    41b2:	439c                	lw	a5,0(a5)
    41b4:	873e                	mv	a4,a5
    41b6:	fe040793          	addi	a5,s0,-32
    41ba:	85be                	mv	a1,a5
    41bc:	853a                	mv	a0,a4
    41be:	cbbfd0ef          	jal	ra,1e78 <USART_Init>
C:\Users\windows\Desktop\A_Dual\A_Dual1\Dual-core_Communication_Demo\Dual-core_Communication_Demo\SLAVE\obj/../Libraries/seekfree_libraries/zf_uart.c:108
    USART_Cmd((USART_TypeDef*)UARTN[uartn], ENABLE);
    41c2:	6799                	lui	a5,0x6
    41c4:	fdc42703          	lw	a4,-36(s0)
    41c8:	070a                	slli	a4,a4,0x2
    41ca:	1ec78793          	addi	a5,a5,492 # 61ec <UARTN>
    41ce:	97ba                	add	a5,a5,a4
    41d0:	439c                	lw	a5,0(a5)
    41d2:	4585                	li	a1,1
    41d4:	853e                	mv	a0,a5
    41d6:	ed7fd0ef          	jal	ra,20ac <USART_Cmd>
C:\Users\windows\Desktop\A_Dual\A_Dual1\Dual-core_Communication_Demo\Dual-core_Communication_Demo\SLAVE\obj/../Libraries/seekfree_libraries/zf_uart.c:111


}
    41da:	0001                	nop
    41dc:	50b2                	lw	ra,44(sp)
    41de:	5422                	lw	s0,40(sp)
    41e0:	6145                	addi	sp,sp,48
    41e2:	8082                	ret

000041e4 <uart_putchar>:
uart_putchar():
C:\Users\windows\Desktop\A_Dual\A_Dual1\Dual-core_Communication_Demo\Dual-core_Communication_Demo\SLAVE\obj/../Libraries/seekfree_libraries/zf_uart.c:122
//  @param      dat         
//  @return     void
//  Sample usage:           uart_putchar(UART_1, 0x43);        //10x43
//-------------------------------------------------------------------------------------------------------------------
void uart_putchar(UARTN_enum uartn, uint8 dat)
{
    41e4:	1101                	addi	sp,sp,-32
    41e6:	ce22                	sw	s0,28(sp)
    41e8:	1000                	addi	s0,sp,32
    41ea:	fea42623          	sw	a0,-20(s0)
    41ee:	87ae                	mv	a5,a1
    41f0:	fef405a3          	sb	a5,-21(s0)
C:\Users\windows\Desktop\A_Dual\A_Dual1\Dual-core_Communication_Demo\Dual-core_Communication_Demo\SLAVE\obj/../Libraries/seekfree_libraries/zf_uart.c:123
    while((((USART_TypeDef*)UARTN[uartn])->STATR & USART_FLAG_TXE)==0);
    41f4:	0001                	nop
C:\Users\windows\Desktop\A_Dual\A_Dual1\Dual-core_Communication_Demo\Dual-core_Communication_Demo\SLAVE\obj/../Libraries/seekfree_libraries/zf_uart.c:123 (discriminator 1)
    41f6:	6799                	lui	a5,0x6
    41f8:	fec42703          	lw	a4,-20(s0)
    41fc:	070a                	slli	a4,a4,0x2
    41fe:	1ec78793          	addi	a5,a5,492 # 61ec <UARTN>
    4202:	97ba                	add	a5,a5,a4
    4204:	439c                	lw	a5,0(a5)
    4206:	0007d783          	lhu	a5,0(a5)
    420a:	07c2                	slli	a5,a5,0x10
    420c:	83c1                	srli	a5,a5,0x10
    420e:	0807f793          	andi	a5,a5,128
    4212:	d3f5                	beqz	a5,41f6 <uart_putchar+0x12>
C:\Users\windows\Desktop\A_Dual\A_Dual1\Dual-core_Communication_Demo\Dual-core_Communication_Demo\SLAVE\obj/../Libraries/seekfree_libraries/zf_uart.c:124
    ((USART_TypeDef*)UARTN[uartn])->DATAR = dat;
    4214:	6799                	lui	a5,0x6
    4216:	fec42703          	lw	a4,-20(s0)
    421a:	070a                	slli	a4,a4,0x2
    421c:	1ec78793          	addi	a5,a5,492 # 61ec <UARTN>
    4220:	97ba                	add	a5,a5,a4
    4222:	439c                	lw	a5,0(a5)
    4224:	873e                	mv	a4,a5
    4226:	feb44783          	lbu	a5,-21(s0)
    422a:	07c2                	slli	a5,a5,0x10
    422c:	83c1                	srli	a5,a5,0x10
    422e:	00f71223          	sh	a5,4(a4) # e000f004 <_eusrstack+0xc000a004>
C:\Users\windows\Desktop\A_Dual\A_Dual1\Dual-core_Communication_Demo\Dual-core_Communication_Demo\SLAVE\obj/../Libraries/seekfree_libraries/zf_uart.c:125
}
    4232:	0001                	nop
    4234:	4472                	lw	s0,28(sp)
    4236:	6105                	addi	sp,sp,32
    4238:	8082                	ret

0000423a <uart_putbuff>:
uart_putbuff():
C:\Users\windows\Desktop\A_Dual\A_Dual1\Dual-core_Communication_Demo\Dual-core_Communication_Demo\SLAVE\obj/../Libraries/seekfree_libraries/zf_uart.c:136
//  @param      len         
//  @return     void
//  Sample usage:           uart_putbuff(UART_1, buff, 10);     //110buff
//-------------------------------------------------------------------------------------------------------------------
void uart_putbuff(UARTN_enum uartn, uint8 *buff, uint32 len)
{
    423a:	1101                	addi	sp,sp,-32
    423c:	ce06                	sw	ra,28(sp)
    423e:	cc22                	sw	s0,24(sp)
    4240:	1000                	addi	s0,sp,32
    4242:	fea42623          	sw	a0,-20(s0)
    4246:	feb42423          	sw	a1,-24(s0)
    424a:	fec42223          	sw	a2,-28(s0)
C:\Users\windows\Desktop\A_Dual\A_Dual1\Dual-core_Communication_Demo\Dual-core_Communication_Demo\SLAVE\obj/../Libraries/seekfree_libraries/zf_uart.c:137
    while(len--)
    424e:	a829                	j	4268 <uart_putbuff+0x2e>
C:\Users\windows\Desktop\A_Dual\A_Dual1\Dual-core_Communication_Demo\Dual-core_Communication_Demo\SLAVE\obj/../Libraries/seekfree_libraries/zf_uart.c:138
        uart_putchar(uartn, *buff++);
    4250:	fe842783          	lw	a5,-24(s0)
    4254:	00178713          	addi	a4,a5,1
    4258:	fee42423          	sw	a4,-24(s0)
    425c:	0007c783          	lbu	a5,0(a5)
    4260:	85be                	mv	a1,a5
    4262:	fec42503          	lw	a0,-20(s0)
    4266:	3fbd                	jal	41e4 <uart_putchar>
C:\Users\windows\Desktop\A_Dual\A_Dual1\Dual-core_Communication_Demo\Dual-core_Communication_Demo\SLAVE\obj/../Libraries/seekfree_libraries/zf_uart.c:137
    while(len--)
    4268:	fe442783          	lw	a5,-28(s0)
    426c:	fff78713          	addi	a4,a5,-1
    4270:	fee42223          	sw	a4,-28(s0)
    4274:	fff1                	bnez	a5,4250 <uart_putbuff+0x16>
C:\Users\windows\Desktop\A_Dual\A_Dual1\Dual-core_Communication_Demo\Dual-core_Communication_Demo\SLAVE\obj/../Libraries/seekfree_libraries/zf_uart.c:139
}
    4276:	0001                	nop
    4278:	40f2                	lw	ra,28(sp)
    427a:	4462                	lw	s0,24(sp)
    427c:	6105                	addi	sp,sp,32
    427e:	8082                	ret

00004280 <uart_rx_irq>:
uart_rx_irq():
C:\Users\windows\Desktop\A_Dual\A_Dual1\Dual-core_Communication_Demo\Dual-core_Communication_Demo\SLAVE\obj/../Libraries/seekfree_libraries/zf_uart.c:165
//  @param      status      
//  @return     void
//  Sample usage:           uart_rx_irq(UART_1, ENABLE);        //1
//-------------------------------------------------------------------------------------------------------------------
void uart_rx_irq(UARTN_enum uartn,uint8 status)
{
    4280:	1101                	addi	sp,sp,-32
    4282:	ce06                	sw	ra,28(sp)
    4284:	cc22                	sw	s0,24(sp)
    4286:	1000                	addi	s0,sp,32
    4288:	fea42623          	sw	a0,-20(s0)
    428c:	87ae                	mv	a5,a1
    428e:	fef405a3          	sb	a5,-21(s0)
C:\Users\windows\Desktop\A_Dual\A_Dual1\Dual-core_Communication_Demo\Dual-core_Communication_Demo\SLAVE\obj/../Libraries/seekfree_libraries/zf_uart.c:166
    USART_ITConfig(((USART_TypeDef*)UARTN[uartn]), USART_IT_RXNE, ENABLE);
    4292:	6799                	lui	a5,0x6
    4294:	fec42703          	lw	a4,-20(s0)
    4298:	070a                	slli	a4,a4,0x2
    429a:	1ec78793          	addi	a5,a5,492 # 61ec <UARTN>
    429e:	97ba                	add	a5,a5,a4
    42a0:	439c                	lw	a5,0(a5)
    42a2:	4605                	li	a2,1
    42a4:	52500593          	li	a1,1317
    42a8:	853e                	mv	a0,a5
    42aa:	e63fd0ef          	jal	ra,210c <USART_ITConfig>
C:\Users\windows\Desktop\A_Dual\A_Dual1\Dual-core_Communication_Demo\Dual-core_Communication_Demo\SLAVE\obj/../Libraries/seekfree_libraries/zf_uart.c:167
    nvic_init(USART1_IRQn + uartn, 0, 0, status);
    42ae:	fec42783          	lw	a5,-20(s0)
    42b2:	03578793          	addi	a5,a5,53
    42b6:	feb44703          	lbu	a4,-21(s0)
    42ba:	86ba                	mv	a3,a4
    42bc:	4601                	li	a2,0
    42be:	4581                	li	a1,0
    42c0:	853e                	mv	a0,a5
    42c2:	af8ff0ef          	jal	ra,35ba <nvic_init>
C:\Users\windows\Desktop\A_Dual\A_Dual1\Dual-core_Communication_Demo\Dual-core_Communication_Demo\SLAVE\obj/../Libraries/seekfree_libraries/zf_uart.c:168
}
    42c6:	0001                	nop
    42c8:	40f2                	lw	ra,28(sp)
    42ca:	4462                	lw	s0,24(sp)
    42cc:	6105                	addi	sp,sp,32
    42ce:	8082                	ret

000042d0 <board_init>:
board_init():
C:\Users\windows\Desktop\A_Dual\A_Dual1\Dual-core_Communication_Demo\Dual-core_Communication_Demo\SLAVE\obj/../Libraries/board/board.c:9




void board_init(void)
{
    42d0:	1141                	addi	sp,sp,-16
    42d2:	c606                	sw	ra,12(sp)
    42d4:	c422                	sw	s0,8(sp)
    42d6:	0800                	addi	s0,sp,16
C:\Users\windows\Desktop\A_Dual\A_Dual1\Dual-core_Communication_Demo\Dual-core_Communication_Demo\SLAVE\obj/../Libraries/board/board.c:11
    //
    sys_clk = 8000000 * (((RCC->CFGR0 >> 18)&0x0F) + 2);
    42d8:	400217b7          	lui	a5,0x40021
    42dc:	43dc                	lw	a5,4(a5)
    42de:	83c9                	srli	a5,a5,0x12
    42e0:	00f7f713          	andi	a4,a5,15
    42e4:	007a17b7          	lui	a5,0x7a1
    42e8:	20078793          	addi	a5,a5,512 # 7a1200 <_data_lma+0x79af28>
    42ec:	02f70733          	mul	a4,a4,a5
    42f0:	00f427b7          	lui	a5,0xf42
    42f4:	40078793          	addi	a5,a5,1024 # f42400 <_data_lma+0xf3c128>
    42f8:	973e                	add	a4,a4,a5
    42fa:	82e1ac23          	sw	a4,-1992(gp) # 20000150 <sys_clk>
C:\Users\windows\Desktop\A_Dual\A_Dual1\Dual-core_Communication_Demo\Dual-core_Communication_Demo\SLAVE\obj/../Libraries/board/board.c:13
    //DEBUG
    uart_init(DEBUG_UART, DEBUG_UART_BAUD, DEBUG_UART_TX_PIN, DEBUG_UART_RX_PIN);
    42fe:	4685                	li	a3,1
    4300:	4601                	li	a2,0
    4302:	67f1                	lui	a5,0x1c
    4304:	20078593          	addi	a1,a5,512 # 1c200 <_data_lma+0x15f28>
    4308:	4501                	li	a0,0
    430a:	dd7ff0ef          	jal	ra,40e0 <uart_init>
C:\Users\windows\Desktop\A_Dual\A_Dual1\Dual-core_Communication_Demo\Dual-core_Communication_Demo\SLAVE\obj/../Libraries/board/board.c:14
}
    430e:	0001                	nop
    4310:	40b2                	lw	ra,12(sp)
    4312:	4422                	lw	s0,8(sp)
    4314:	0141                	addi	sp,sp,16
    4316:	8082                	ret

00004318 <_write>:
_write():
C:\Users\windows\Desktop\A_Dual\A_Dual1\Dual-core_Communication_Demo\Dual-core_Communication_Demo\SLAVE\obj/../Libraries/board/board.c:25
//  @since      v1.0
//  Sample usage:              printfDEBUG
//-------------------------------------------------------------------------------------------------------------------
#if (1 == PRINTF_ENABLE)
int _write(int fd, char *buf, int size)
{
    4318:	7179                	addi	sp,sp,-48
    431a:	d606                	sw	ra,44(sp)
    431c:	d422                	sw	s0,40(sp)
    431e:	1800                	addi	s0,sp,48
    4320:	fca42e23          	sw	a0,-36(s0)
    4324:	fcb42c23          	sw	a1,-40(s0)
    4328:	fcc42a23          	sw	a2,-44(s0)
C:\Users\windows\Desktop\A_Dual\A_Dual1\Dual-core_Communication_Demo\Dual-core_Communication_Demo\SLAVE\obj/../Libraries/board/board.c:27
    int i;
    for(i=0; i<size; i++)
    432c:	fe042623          	sw	zero,-20(s0)
    4330:	a099                	j	4376 <_write+0x5e>
C:\Users\windows\Desktop\A_Dual\A_Dual1\Dual-core_Communication_Demo\Dual-core_Communication_Demo\SLAVE\obj/../Libraries/board/board.c:29
    {
        while (USART_GetFlagStatus((USART_TypeDef*)UARTN[DEBUG_UART], USART_FLAG_TC) == RESET);
    4332:	0001                	nop
C:\Users\windows\Desktop\A_Dual\A_Dual1\Dual-core_Communication_Demo\Dual-core_Communication_Demo\SLAVE\obj/../Libraries/board/board.c:29 (discriminator 1)
    4334:	6799                	lui	a5,0x6
    4336:	1ec7a783          	lw	a5,492(a5) # 61ec <UARTN>
    433a:	04000593          	li	a1,64
    433e:	853e                	mv	a0,a5
    4340:	ebffd0ef          	jal	ra,21fe <USART_GetFlagStatus>
    4344:	87aa                	mv	a5,a0
    4346:	d7fd                	beqz	a5,4334 <_write+0x1c>
C:\Users\windows\Desktop\A_Dual\A_Dual1\Dual-core_Communication_Demo\Dual-core_Communication_Demo\SLAVE\obj/../Libraries/board/board.c:30 (discriminator 2)
        USART_SendData((USART_TypeDef*)UARTN[DEBUG_UART], *buf++);
    4348:	6799                	lui	a5,0x6
    434a:	1ec7a783          	lw	a5,492(a5) # 61ec <UARTN>
    434e:	86be                	mv	a3,a5
    4350:	fd842783          	lw	a5,-40(s0)
    4354:	00178713          	addi	a4,a5,1
    4358:	fce42c23          	sw	a4,-40(s0)
    435c:	00078783          	lb	a5,0(a5)
    4360:	07c2                	slli	a5,a5,0x10
    4362:	83c1                	srli	a5,a5,0x10
    4364:	85be                	mv	a1,a5
    4366:	8536                	mv	a0,a3
    4368:	e69fd0ef          	jal	ra,21d0 <USART_SendData>
C:\Users\windows\Desktop\A_Dual\A_Dual1\Dual-core_Communication_Demo\Dual-core_Communication_Demo\SLAVE\obj/../Libraries/board/board.c:27 (discriminator 2)
    for(i=0; i<size; i++)
    436c:	fec42783          	lw	a5,-20(s0)
    4370:	0785                	addi	a5,a5,1
    4372:	fef42623          	sw	a5,-20(s0)
C:\Users\windows\Desktop\A_Dual\A_Dual1\Dual-core_Communication_Demo\Dual-core_Communication_Demo\SLAVE\obj/../Libraries/board/board.c:27 (discriminator 1)
    4376:	fec42703          	lw	a4,-20(s0)
    437a:	fd442783          	lw	a5,-44(s0)
    437e:	faf74ae3          	blt	a4,a5,4332 <_write+0x1a>
C:\Users\windows\Desktop\A_Dual\A_Dual1\Dual-core_Communication_Demo\Dual-core_Communication_Demo\SLAVE\obj/../Libraries/board/board.c:32
    }
    return size;
    4382:	fd442783          	lw	a5,-44(s0)
C:\Users\windows\Desktop\A_Dual\A_Dual1\Dual-core_Communication_Demo\Dual-core_Communication_Demo\SLAVE\obj/../Libraries/board/board.c:33
}
    4386:	853e                	mv	a0,a5
    4388:	50b2                	lw	ra,44(sp)
    438a:	5422                	lw	s0,40(sp)
    438c:	6145                	addi	sp,sp,48
    438e:	8082                	ret

00004390 <SetSysClock>:
SetSysClock():
C:\Users\windows\Desktop\A_Dual\A_Dual1\Dual-core_Communication_Demo\Dual-core_Communication_Demo\SLAVE\obj/../Libraries/board/clock_config.c:11
* Description    : Sets System clock frequency to 72MHz and configure HCLK, PCLK2 and PCLK1 prescalers.
* Input          : None
* Return         : None
*******************************************************************************************/
static void SetSysClock(void)
{
    4390:	1101                	addi	sp,sp,-32
    4392:	ce22                	sw	s0,28(sp)
    4394:	1000                	addi	s0,sp,32
C:\Users\windows\Desktop\A_Dual\A_Dual1\Dual-core_Communication_Demo\Dual-core_Communication_Demo\SLAVE\obj/../Libraries/board/clock_config.c:12
    __IO uint32_t StartUpCounter = 0, HSEStatus = 0;
    4396:	fe042623          	sw	zero,-20(s0)
    439a:	fe042423          	sw	zero,-24(s0)
C:\Users\windows\Desktop\A_Dual\A_Dual1\Dual-core_Communication_Demo\Dual-core_Communication_Demo\SLAVE\obj/../Libraries/board/clock_config.c:14

    RCC->CTLR |= ((uint32_t)RCC_HSEON);
    439e:	400217b7          	lui	a5,0x40021
    43a2:	4394                	lw	a3,0(a5)
    43a4:	400217b7          	lui	a5,0x40021
    43a8:	6741                	lui	a4,0x10
    43aa:	8f55                	or	a4,a4,a3
    43ac:	c398                	sw	a4,0(a5)
C:\Users\windows\Desktop\A_Dual\A_Dual1\Dual-core_Communication_Demo\Dual-core_Communication_Demo\SLAVE\obj/../Libraries/board/clock_config.c:19 (discriminator 2)

    /* Wait till HSE is ready and if Time out is reached exit */
    do
    {
        HSEStatus = RCC->CTLR & RCC_HSERDY;
    43ae:	400217b7          	lui	a5,0x40021
    43b2:	4398                	lw	a4,0(a5)
    43b4:	000207b7          	lui	a5,0x20
    43b8:	8ff9                	and	a5,a5,a4
    43ba:	fef42423          	sw	a5,-24(s0)
C:\Users\windows\Desktop\A_Dual\A_Dual1\Dual-core_Communication_Demo\Dual-core_Communication_Demo\SLAVE\obj/../Libraries/board/clock_config.c:20 (discriminator 2)
        StartUpCounter++;
    43be:	fec42783          	lw	a5,-20(s0)
    43c2:	0785                	addi	a5,a5,1
    43c4:	fef42623          	sw	a5,-20(s0)
C:\Users\windows\Desktop\A_Dual\A_Dual1\Dual-core_Communication_Demo\Dual-core_Communication_Demo\SLAVE\obj/../Libraries/board/clock_config.c:21 (discriminator 2)
    } while((HSEStatus == 0) && (StartUpCounter != HSE_STARTUP_TIMEOUT));
    43c8:	fe842783          	lw	a5,-24(s0)
    43cc:	e799                	bnez	a5,43da <SetSysClock+0x4a>
C:\Users\windows\Desktop\A_Dual\A_Dual1\Dual-core_Communication_Demo\Dual-core_Communication_Demo\SLAVE\obj/../Libraries/board/clock_config.c:21 (discriminator 1)
    43ce:	fec42703          	lw	a4,-20(s0)
    43d2:	50000793          	li	a5,1280
    43d6:	fcf71ce3          	bne	a4,a5,43ae <SetSysClock+0x1e>
C:\Users\windows\Desktop\A_Dual\A_Dual1\Dual-core_Communication_Demo\Dual-core_Communication_Demo\SLAVE\obj/../Libraries/board/clock_config.c:23

    if ((RCC->CTLR & RCC_HSERDY) != RESET)
    43da:	400217b7          	lui	a5,0x40021
    43de:	4398                	lw	a4,0(a5)
    43e0:	000207b7          	lui	a5,0x20
    43e4:	8ff9                	and	a5,a5,a4
    43e6:	c789                	beqz	a5,43f0 <SetSysClock+0x60>
C:\Users\windows\Desktop\A_Dual\A_Dual1\Dual-core_Communication_Demo\Dual-core_Communication_Demo\SLAVE\obj/../Libraries/board/clock_config.c:25
    {
        HSEStatus = (uint32_t)0x01;
    43e8:	4785                	li	a5,1
    43ea:	fef42423          	sw	a5,-24(s0)
    43ee:	a019                	j	43f4 <SetSysClock+0x64>
C:\Users\windows\Desktop\A_Dual\A_Dual1\Dual-core_Communication_Demo\Dual-core_Communication_Demo\SLAVE\obj/../Libraries/board/clock_config.c:29
    }
    else
    {
        HSEStatus = (uint32_t)0x00;
    43f0:	fe042423          	sw	zero,-24(s0)
C:\Users\windows\Desktop\A_Dual\A_Dual1\Dual-core_Communication_Demo\Dual-core_Communication_Demo\SLAVE\obj/../Libraries/board/clock_config.c:32
    }

    if (HSEStatus == (uint32_t)0x01)
    43f4:	fe842703          	lw	a4,-24(s0)
    43f8:	4785                	li	a5,1
    43fa:	0cf71763          	bne	a4,a5,44c8 <SetSysClock+0x138>
C:\Users\windows\Desktop\A_Dual\A_Dual1\Dual-core_Communication_Demo\Dual-core_Communication_Demo\SLAVE\obj/../Libraries/board/clock_config.c:35
    {
        /* Enable Prefetch Buffer */
        FLASH->ACTLR |= FLASH_ACTLR_PRFTBE;
    43fe:	400227b7          	lui	a5,0x40022
    4402:	4398                	lw	a4,0(a5)
    4404:	400227b7          	lui	a5,0x40022
    4408:	01076713          	ori	a4,a4,16
    440c:	c398                	sw	a4,0(a5)
C:\Users\windows\Desktop\A_Dual\A_Dual1\Dual-core_Communication_Demo\Dual-core_Communication_Demo\SLAVE\obj/../Libraries/board/clock_config.c:38

        /* Flash 2 wait state */
        FLASH->ACTLR &= (uint32_t)((uint32_t)~FLASH_ACTLR_LATENCY);
    440e:	400227b7          	lui	a5,0x40022
    4412:	4398                	lw	a4,0(a5)
    4414:	400227b7          	lui	a5,0x40022
    4418:	9b71                	andi	a4,a4,-4
    441a:	c398                	sw	a4,0(a5)
C:\Users\windows\Desktop\A_Dual\A_Dual1\Dual-core_Communication_Demo\Dual-core_Communication_Demo\SLAVE\obj/../Libraries/board/clock_config.c:39
        FLASH->ACTLR |= (uint32_t)FLASH_ACTLR_LATENCY_2;
    441c:	400227b7          	lui	a5,0x40022
    4420:	4398                	lw	a4,0(a5)
    4422:	400227b7          	lui	a5,0x40022
    4426:	00276713          	ori	a4,a4,2
    442a:	c398                	sw	a4,0(a5)
C:\Users\windows\Desktop\A_Dual\A_Dual1\Dual-core_Communication_Demo\Dual-core_Communication_Demo\SLAVE\obj/../Libraries/board/clock_config.c:42

        /* HCLK = SYSCLK */
        RCC->CFGR0 |= (uint32_t)RCC_HPRE_DIV1;
    442c:	40021737          	lui	a4,0x40021
    4430:	400217b7          	lui	a5,0x40021
    4434:	4358                	lw	a4,4(a4)
    4436:	c3d8                	sw	a4,4(a5)
C:\Users\windows\Desktop\A_Dual\A_Dual1\Dual-core_Communication_Demo\Dual-core_Communication_Demo\SLAVE\obj/../Libraries/board/clock_config.c:44
        /* PCLK2 = HCLK */
        RCC->CFGR0 |= (uint32_t)RCC_PPRE2_DIV1;
    4438:	40021737          	lui	a4,0x40021
    443c:	400217b7          	lui	a5,0x40021
    4440:	4358                	lw	a4,4(a4)
    4442:	c3d8                	sw	a4,4(a5)
C:\Users\windows\Desktop\A_Dual\A_Dual1\Dual-core_Communication_Demo\Dual-core_Communication_Demo\SLAVE\obj/../Libraries/board/clock_config.c:46
        /* PCLK1 = HCLK */
        RCC->CFGR0 |= (uint32_t)RCC_PPRE1_DIV1;
    4444:	40021737          	lui	a4,0x40021
    4448:	400217b7          	lui	a5,0x40021
    444c:	4358                	lw	a4,4(a4)
    444e:	c3d8                	sw	a4,4(a5)
C:\Users\windows\Desktop\A_Dual\A_Dual1\Dual-core_Communication_Demo\Dual-core_Communication_Demo\SLAVE\obj/../Libraries/board/clock_config.c:49


        RCC->CFGR0 &= (uint32_t)((uint32_t)~(RCC_PLLSRC | RCC_PLLXTPRE |
    4450:	400217b7          	lui	a5,0x40021
    4454:	43d4                	lw	a3,4(a5)
    4456:	400217b7          	lui	a5,0x40021
    445a:	ffc10737          	lui	a4,0xffc10
    445e:	177d                	addi	a4,a4,-1
    4460:	8f75                	and	a4,a4,a3
    4462:	c3d8                	sw	a4,4(a5)
C:\Users\windows\Desktop\A_Dual\A_Dual1\Dual-core_Communication_Demo\Dual-core_Communication_Demo\SLAVE\obj/../Libraries/board/clock_config.c:52
                                            RCC_PLLMULL));
        /*  PLL configuration: PLLCLK = HSE * ?  */
        RCC->CFGR0 |= (uint32_t)(RCC_PLLSRC_HSE | RCC_PLLMULL11);
    4464:	400217b7          	lui	a5,0x40021
    4468:	43d4                	lw	a3,4(a5)
    446a:	400217b7          	lui	a5,0x40021
    446e:	00250737          	lui	a4,0x250
    4472:	8f55                	or	a4,a4,a3
    4474:	c3d8                	sw	a4,4(a5)
C:\Users\windows\Desktop\A_Dual\A_Dual1\Dual-core_Communication_Demo\Dual-core_Communication_Demo\SLAVE\obj/../Libraries/board/clock_config.c:54
        /* Enable PLL */
        RCC->CTLR |= RCC_PLLON;
    4476:	400217b7          	lui	a5,0x40021
    447a:	4394                	lw	a3,0(a5)
    447c:	400217b7          	lui	a5,0x40021
    4480:	01000737          	lui	a4,0x1000
    4484:	8f55                	or	a4,a4,a3
    4486:	c398                	sw	a4,0(a5)
C:\Users\windows\Desktop\A_Dual\A_Dual1\Dual-core_Communication_Demo\Dual-core_Communication_Demo\SLAVE\obj/../Libraries/board/clock_config.c:56
        /* Wait till PLL is ready */
        while((RCC->CTLR & RCC_PLLRDY) == 0)
    4488:	0001                	nop
C:\Users\windows\Desktop\A_Dual\A_Dual1\Dual-core_Communication_Demo\Dual-core_Communication_Demo\SLAVE\obj/../Libraries/board/clock_config.c:56 (discriminator 1)
    448a:	400217b7          	lui	a5,0x40021
    448e:	4398                	lw	a4,0(a5)
    4490:	020007b7          	lui	a5,0x2000
    4494:	8ff9                	and	a5,a5,a4
    4496:	dbf5                	beqz	a5,448a <SetSysClock+0xfa>
C:\Users\windows\Desktop\A_Dual\A_Dual1\Dual-core_Communication_Demo\Dual-core_Communication_Demo\SLAVE\obj/../Libraries/board/clock_config.c:60
        {
        }
        /* Select PLL as system clock source */
        RCC->CFGR0 &= (uint32_t)((uint32_t)~(RCC_SW));
    4498:	400217b7          	lui	a5,0x40021
    449c:	43d8                	lw	a4,4(a5)
    449e:	400217b7          	lui	a5,0x40021
    44a2:	9b71                	andi	a4,a4,-4
    44a4:	c3d8                	sw	a4,4(a5)
C:\Users\windows\Desktop\A_Dual\A_Dual1\Dual-core_Communication_Demo\Dual-core_Communication_Demo\SLAVE\obj/../Libraries/board/clock_config.c:61
        RCC->CFGR0 |= (uint32_t)RCC_SW_PLL;
    44a6:	400217b7          	lui	a5,0x40021
    44aa:	43d8                	lw	a4,4(a5)
    44ac:	400217b7          	lui	a5,0x40021
    44b0:	00276713          	ori	a4,a4,2
    44b4:	c3d8                	sw	a4,4(a5)
C:\Users\windows\Desktop\A_Dual\A_Dual1\Dual-core_Communication_Demo\Dual-core_Communication_Demo\SLAVE\obj/../Libraries/board/clock_config.c:63
        /* Wait till PLL is used as system clock source */
        while ((RCC->CFGR0 & (uint32_t)RCC_SWS) != (uint32_t)0x08)
    44b6:	0001                	nop
C:\Users\windows\Desktop\A_Dual\A_Dual1\Dual-core_Communication_Demo\Dual-core_Communication_Demo\SLAVE\obj/../Libraries/board/clock_config.c:63 (discriminator 1)
    44b8:	400217b7          	lui	a5,0x40021
    44bc:	43dc                	lw	a5,4(a5)
    44be:	00c7f713          	andi	a4,a5,12
    44c2:	47a1                	li	a5,8
    44c4:	fef71ae3          	bne	a4,a5,44b8 <SetSysClock+0x128>
C:\Users\windows\Desktop\A_Dual\A_Dual1\Dual-core_Communication_Demo\Dual-core_Communication_Demo\SLAVE\obj/../Libraries/board/clock_config.c:74
        /*
         * If HSE fails to start-up, the application will have wrong clock
     * configuration. User can add here some code to deal with this error
         */
    }
}
    44c8:	0001                	nop
    44ca:	4472                	lw	s0,28(sp)
    44cc:	6105                	addi	sp,sp,32
    44ce:	8082                	ret

000044d0 <SystemInit>:
SystemInit():
C:\Users\windows\Desktop\A_Dual\A_Dual1\Dual-core_Communication_Demo\Dual-core_Communication_Demo\SLAVE\obj/../Libraries/board/clock_config.c:84
*                  the PLL and update the SystemCoreClock variable.
* Input          : None
* Return         : None
*******************************************************************************************/
void SystemInit (void)
{
    44d0:	1141                	addi	sp,sp,-16
    44d2:	c606                	sw	ra,12(sp)
    44d4:	c422                	sw	s0,8(sp)
    44d6:	0800                	addi	s0,sp,16
C:\Users\windows\Desktop\A_Dual\A_Dual1\Dual-core_Communication_Demo\Dual-core_Communication_Demo\SLAVE\obj/../Libraries/board/clock_config.c:85
    RCC->CTLR |= (uint32_t)0x00000001;
    44d8:	400217b7          	lui	a5,0x40021
    44dc:	4398                	lw	a4,0(a5)
    44de:	400217b7          	lui	a5,0x40021
    44e2:	00176713          	ori	a4,a4,1
    44e6:	c398                	sw	a4,0(a5)
C:\Users\windows\Desktop\A_Dual\A_Dual1\Dual-core_Communication_Demo\Dual-core_Communication_Demo\SLAVE\obj/../Libraries/board/clock_config.c:86
    RCC->CFGR0 &= (uint32_t)0xF8FF0000;
    44e8:	400217b7          	lui	a5,0x40021
    44ec:	43d4                	lw	a3,4(a5)
    44ee:	400217b7          	lui	a5,0x40021
    44f2:	f8ff0737          	lui	a4,0xf8ff0
    44f6:	8f75                	and	a4,a4,a3
    44f8:	c3d8                	sw	a4,4(a5)
C:\Users\windows\Desktop\A_Dual\A_Dual1\Dual-core_Communication_Demo\Dual-core_Communication_Demo\SLAVE\obj/../Libraries/board/clock_config.c:87
    RCC->CTLR &= (uint32_t)0xFEF6FFFF;
    44fa:	400217b7          	lui	a5,0x40021
    44fe:	4394                	lw	a3,0(a5)
    4500:	400217b7          	lui	a5,0x40021
    4504:	fef70737          	lui	a4,0xfef70
    4508:	177d                	addi	a4,a4,-1
    450a:	8f75                	and	a4,a4,a3
    450c:	c398                	sw	a4,0(a5)
C:\Users\windows\Desktop\A_Dual\A_Dual1\Dual-core_Communication_Demo\Dual-core_Communication_Demo\SLAVE\obj/../Libraries/board/clock_config.c:88
    RCC->CTLR &= (uint32_t)0xFFFBFFFF;
    450e:	400217b7          	lui	a5,0x40021
    4512:	4394                	lw	a3,0(a5)
    4514:	400217b7          	lui	a5,0x40021
    4518:	fffc0737          	lui	a4,0xfffc0
    451c:	177d                	addi	a4,a4,-1
    451e:	8f75                	and	a4,a4,a3
    4520:	c398                	sw	a4,0(a5)
C:\Users\windows\Desktop\A_Dual\A_Dual1\Dual-core_Communication_Demo\Dual-core_Communication_Demo\SLAVE\obj/../Libraries/board/clock_config.c:89
    RCC->CFGR0 &= (uint32_t)0xFF80FFFF;
    4522:	400217b7          	lui	a5,0x40021
    4526:	43d4                	lw	a3,4(a5)
    4528:	400217b7          	lui	a5,0x40021
    452c:	ff810737          	lui	a4,0xff810
    4530:	177d                	addi	a4,a4,-1
    4532:	8f75                	and	a4,a4,a3
    4534:	c3d8                	sw	a4,4(a5)
C:\Users\windows\Desktop\A_Dual\A_Dual1\Dual-core_Communication_Demo\Dual-core_Communication_Demo\SLAVE\obj/../Libraries/board/clock_config.c:90
    RCC->INTR = 0x009F0000;
    4536:	400217b7          	lui	a5,0x40021
    453a:	009f0737          	lui	a4,0x9f0
    453e:	c798                	sw	a4,8(a5)
C:\Users\windows\Desktop\A_Dual\A_Dual1\Dual-core_Communication_Demo\Dual-core_Communication_Demo\SLAVE\obj/../Libraries/board/clock_config.c:91
    SetSysClock();
    4540:	e51ff0ef          	jal	ra,4390 <SetSysClock>
C:\Users\windows\Desktop\A_Dual\A_Dual1\Dual-core_Communication_Demo\Dual-core_Communication_Demo\SLAVE\obj/../Libraries/board/clock_config.c:92
}
    4544:	0001                	nop
    4546:	40b2                	lw	ra,12(sp)
    4548:	4422                	lw	s0,8(sp)
    454a:	0141                	addi	sp,sp,16
    454c:	8082                	ret

0000454e <trackBorder_Get>:
trackBorder_Get():
C:\Users\windows\Desktop\A_Dual\A_Dual1\Dual-core_Communication_Demo\Dual-core_Communication_Demo\SLAVE\obj/../CODE/TrackGet.c:88

    return threshold;
}

void trackBorder_Get(uint8 threshold)//
{
    454e:	7179                	addi	sp,sp,-48
    4550:	d606                	sw	ra,44(sp)
    4552:	d422                	sw	s0,40(sp)
    4554:	1800                	addi	s0,sp,48
    4556:	87aa                	mv	a5,a0
    4558:	fcf40fa3          	sb	a5,-33(s0)
C:\Users\windows\Desktop\A_Dual\A_Dual1\Dual-core_Communication_Demo\Dual-core_Communication_Demo\SLAVE\obj/../CODE/TrackGet.c:89
    memset(Border[0],0,High*sizeof(int));//
    455c:	0c800613          	li	a2,200
    4560:	4581                	li	a1,0
    4562:	200027b7          	lui	a5,0x20002
    4566:	64078513          	addi	a0,a5,1600 # 20002640 <Border>
    456a:	bd7fb0ef          	jal	ra,140 <memset>
C:\Users\windows\Desktop\A_Dual\A_Dual1\Dual-core_Communication_Demo\Dual-core_Communication_Demo\SLAVE\obj/../CODE/TrackGet.c:90
    memset(Border[1],Width/2,High*sizeof(int));
    456e:	0c800613          	li	a2,200
    4572:	05e00593          	li	a1,94
    4576:	200027b7          	lui	a5,0x20002
    457a:	6a478513          	addi	a0,a5,1700 # 200026a4 <Border+0x64>
    457e:	bc3fb0ef          	jal	ra,140 <memset>
C:\Users\windows\Desktop\A_Dual\A_Dual1\Dual-core_Communication_Demo\Dual-core_Communication_Demo\SLAVE\obj/../CODE/TrackGet.c:91
    memset(Border[2],Width-1,High*sizeof(int));
    4582:	0c800613          	li	a2,200
    4586:	0bb00593          	li	a1,187
    458a:	200027b7          	lui	a5,0x20002
    458e:	70878513          	addi	a0,a5,1800 # 20002708 <Border+0xc8>
    4592:	baffb0ef          	jal	ra,140 <memset>
C:\Users\windows\Desktop\A_Dual\A_Dual1\Dual-core_Communication_Demo\Dual-core_Communication_Demo\SLAVE\obj/../CODE/TrackGet.c:93

    validLine=High;//
    4596:	03200713          	li	a4,50
    459a:	84e19123          	sh	a4,-1982(gp) # 2000015a <validLine>
C:\Users\windows\Desktop\A_Dual\A_Dual1\Dual-core_Communication_Demo\Dual-core_Communication_Demo\SLAVE\obj/../CODE/TrackGet.c:94
    leftLostLine_Cnt=0;//
    459e:	84019423          	sh	zero,-1976(gp) # 20000160 <leftLostLine_Cnt>
C:\Users\windows\Desktop\A_Dual\A_Dual1\Dual-core_Communication_Demo\Dual-core_Communication_Demo\SLAVE\obj/../CODE/TrackGet.c:95
    rightLostLine_Cnt=0;
    45a2:	84019523          	sh	zero,-1974(gp) # 20000162 <rightLostLine_Cnt>
C:\Users\windows\Desktop\A_Dual\A_Dual1\Dual-core_Communication_Demo\Dual-core_Communication_Demo\SLAVE\obj/../CODE/TrackGet.c:96
    centre_last=Width>>1;
    45a6:	05e00713          	li	a4,94
    45aa:	80e19423          	sh	a4,-2040(gp) # 20000120 <centre_last>
C:\Users\windows\Desktop\A_Dual\A_Dual1\Dual-core_Communication_Demo\Dual-core_Communication_Demo\SLAVE\obj/../CODE/TrackGet.c:97
    for(int i=High-1;i>=0;i--)//
    45ae:	03100793          	li	a5,49
    45b2:	fef42623          	sw	a5,-20(s0)
    45b6:	ac21                	j	47ce <trackBorder_Get+0x280>
C:\Users\windows\Desktop\A_Dual\A_Dual1\Dual-core_Communication_Demo\Dual-core_Communication_Demo\SLAVE\obj/../CODE/TrackGet.c:108
        if(absolute(a,b)/(a+b)*100>=threshold)
        {
            validLine=i;
            break;
        }*/
        if(i!=High-1&&mt9v03x_image[i][centre_last]<threshold)
    45b8:	fec42703          	lw	a4,-20(s0)
    45bc:	03100793          	li	a5,49
    45c0:	02f70f63          	beq	a4,a5,45fe <trackBorder_Get+0xb0>
C:\Users\windows\Desktop\A_Dual\A_Dual1\Dual-core_Communication_Demo\Dual-core_Communication_Demo\SLAVE\obj/../CODE/TrackGet.c:108 (discriminator 1)
    45c4:	80819783          	lh	a5,-2040(gp) # 20000120 <centre_last>
    45c8:	863e                	mv	a2,a5
    45ca:	200007b7          	lui	a5,0x20000
    45ce:	fec42683          	lw	a3,-20(s0)
    45d2:	0bc00713          	li	a4,188
    45d6:	02e68733          	mul	a4,a3,a4
    45da:	17c78793          	addi	a5,a5,380 # 2000017c <mt9v03x_image>
    45de:	97ba                	add	a5,a5,a4
    45e0:	97b2                	add	a5,a5,a2
    45e2:	0007c783          	lbu	a5,0(a5)
    45e6:	fdf44703          	lbu	a4,-33(s0)
    45ea:	00e7fa63          	bgeu	a5,a4,45fe <trackBorder_Get+0xb0>
C:\Users\windows\Desktop\A_Dual\A_Dual1\Dual-core_Communication_Demo\Dual-core_Communication_Demo\SLAVE\obj/../CODE/TrackGet.c:110
        {
            validLine=i;
    45ee:	fec42783          	lw	a5,-20(s0)
    45f2:	01079713          	slli	a4,a5,0x10
    45f6:	8741                	srai	a4,a4,0x10
    45f8:	84e19123          	sh	a4,-1982(gp) # 2000015a <validLine>
C:\Users\windows\Desktop\A_Dual\A_Dual1\Dual-core_Communication_Demo\Dual-core_Communication_Demo\SLAVE\obj/../CODE/TrackGet.c:113
            //ips114_showuint8(0,7,mt9v03x_image[i-1][centre_last]);
            //ips114_showint16(0,7,validLine);
            break;
    45fc:	aae9                	j	47d6 <trackBorder_Get+0x288>
C:\Users\windows\Desktop\A_Dual\A_Dual1\Dual-core_Communication_Demo\Dual-core_Communication_Demo\SLAVE\obj/../CODE/TrackGet.c:116
        }

        lostLeft_Sign=lostRight_Sign=0;//
    45fe:	84019323          	sh	zero,-1978(gp) # 2000015e <lostRight_Sign>
    4602:	84619703          	lh	a4,-1978(gp) # 2000015e <lostRight_Sign>
    4606:	84e19223          	sh	a4,-1980(gp) # 2000015c <lostLeft_Sign>
C:\Users\windows\Desktop\A_Dual\A_Dual1\Dual-core_Communication_Demo\Dual-core_Communication_Demo\SLAVE\obj/../CODE/TrackGet.c:117
        for(int j=centre_last-delta;j>=0;j=j-delta)//
    460a:	80819783          	lh	a5,-2040(gp) # 20000120 <centre_last>
    460e:	873e                	mv	a4,a5
    4610:	80a19783          	lh	a5,-2038(gp) # 20000122 <delta>
    4614:	40f707b3          	sub	a5,a4,a5
    4618:	fef42423          	sw	a5,-24(s0)
    461c:	a8b5                	j	4698 <trackBorder_Get+0x14a>
C:\Users\windows\Desktop\A_Dual\A_Dual1\Dual-core_Communication_Demo\Dual-core_Communication_Demo\SLAVE\obj/../CODE/TrackGet.c:127
            {
                EdgeL=j;
                tmp_threshold++;//
                break;
            }*/
            if(mt9v03x_image[i][j]<threshold)
    461e:	200007b7          	lui	a5,0x20000
    4622:	fec42683          	lw	a3,-20(s0)
    4626:	0bc00713          	li	a4,188
    462a:	02e68733          	mul	a4,a3,a4
    462e:	17c78793          	addi	a5,a5,380 # 2000017c <mt9v03x_image>
    4632:	973e                	add	a4,a4,a5
    4634:	fe842783          	lw	a5,-24(s0)
    4638:	97ba                	add	a5,a5,a4
    463a:	0007c783          	lbu	a5,0(a5)
    463e:	fdf44703          	lbu	a4,-33(s0)
    4642:	00e7fa63          	bgeu	a5,a4,4656 <trackBorder_Get+0x108>
C:\Users\windows\Desktop\A_Dual\A_Dual1\Dual-core_Communication_Demo\Dual-core_Communication_Demo\SLAVE\obj/../CODE/TrackGet.c:129
            {
                EdgeL=j;
    4646:	fe842783          	lw	a5,-24(s0)
    464a:	01079713          	slli	a4,a5,0x10
    464e:	8741                	srai	a4,a4,0x10
    4650:	84e19023          	sh	a4,-1984(gp) # 20000158 <EdgeL>
C:\Users\windows\Desktop\A_Dual\A_Dual1\Dual-core_Communication_Demo\Dual-core_Communication_Demo\SLAVE\obj/../CODE/TrackGet.c:130
                break;
    4654:	a0b1                	j	46a0 <trackBorder_Get+0x152>
C:\Users\windows\Desktop\A_Dual\A_Dual1\Dual-core_Communication_Demo\Dual-core_Communication_Demo\SLAVE\obj/../CODE/TrackGet.c:132
            }
            if(j-delta<0)//
    4656:	80a19783          	lh	a5,-2038(gp) # 20000122 <delta>
    465a:	873e                	mv	a4,a5
    465c:	fe842783          	lw	a5,-24(s0)
    4660:	8f99                	sub	a5,a5,a4
    4662:	0207d363          	bgez	a5,4688 <trackBorder_Get+0x13a>
C:\Users\windows\Desktop\A_Dual\A_Dual1\Dual-core_Communication_Demo\Dual-core_Communication_Demo\SLAVE\obj/../CODE/TrackGet.c:134
            {
                EdgeL=0;
    4666:	84019023          	sh	zero,-1984(gp) # 20000158 <EdgeL>
C:\Users\windows\Desktop\A_Dual\A_Dual1\Dual-core_Communication_Demo\Dual-core_Communication_Demo\SLAVE\obj/../CODE/TrackGet.c:135
                lostLeft_Sign=1;
    466a:	4705                	li	a4,1
    466c:	84e19223          	sh	a4,-1980(gp) # 2000015c <lostLeft_Sign>
C:\Users\windows\Desktop\A_Dual\A_Dual1\Dual-core_Communication_Demo\Dual-core_Communication_Demo\SLAVE\obj/../CODE/TrackGet.c:136
                leftLostLine_Cnt++;
    4670:	84819783          	lh	a5,-1976(gp) # 20000160 <leftLostLine_Cnt>
    4674:	07c2                	slli	a5,a5,0x10
    4676:	83c1                	srli	a5,a5,0x10
    4678:	0785                	addi	a5,a5,1
    467a:	07c2                	slli	a5,a5,0x10
    467c:	83c1                	srli	a5,a5,0x10
    467e:	01079713          	slli	a4,a5,0x10
    4682:	8741                	srai	a4,a4,0x10
    4684:	84e19423          	sh	a4,-1976(gp) # 20000160 <leftLostLine_Cnt>
C:\Users\windows\Desktop\A_Dual\A_Dual1\Dual-core_Communication_Demo\Dual-core_Communication_Demo\SLAVE\obj/../CODE/TrackGet.c:117 (discriminator 2)
        for(int j=centre_last-delta;j>=0;j=j-delta)//
    4688:	80a19783          	lh	a5,-2038(gp) # 20000122 <delta>
    468c:	873e                	mv	a4,a5
    468e:	fe842783          	lw	a5,-24(s0)
    4692:	8f99                	sub	a5,a5,a4
    4694:	fef42423          	sw	a5,-24(s0)
C:\Users\windows\Desktop\A_Dual\A_Dual1\Dual-core_Communication_Demo\Dual-core_Communication_Demo\SLAVE\obj/../CODE/TrackGet.c:117 (discriminator 1)
    4698:	fe842783          	lw	a5,-24(s0)
    469c:	f807d1e3          	bgez	a5,461e <trackBorder_Get+0xd0>
C:\Users\windows\Desktop\A_Dual\A_Dual1\Dual-core_Communication_Demo\Dual-core_Communication_Demo\SLAVE\obj/../CODE/TrackGet.c:139
            }
        }
        for(int j=centre_last+delta;j<Width;j=j+delta)//
    46a0:	80819783          	lh	a5,-2040(gp) # 20000120 <centre_last>
    46a4:	873e                	mv	a4,a5
    46a6:	80a19783          	lh	a5,-2038(gp) # 20000122 <delta>
    46aa:	97ba                	add	a5,a5,a4
    46ac:	fef42223          	sw	a5,-28(s0)
    46b0:	a051                	j	4734 <trackBorder_Get+0x1e6>
C:\Users\windows\Desktop\A_Dual\A_Dual1\Dual-core_Communication_Demo\Dual-core_Communication_Demo\SLAVE\obj/../CODE/TrackGet.c:149
            {
                EdgeR=j;
                tmp_threshold++;//
                break;
            }*/
            if(mt9v03x_image[i][j]<threshold)
    46b2:	200007b7          	lui	a5,0x20000
    46b6:	fec42683          	lw	a3,-20(s0)
    46ba:	0bc00713          	li	a4,188
    46be:	02e68733          	mul	a4,a3,a4
    46c2:	17c78793          	addi	a5,a5,380 # 2000017c <mt9v03x_image>
    46c6:	973e                	add	a4,a4,a5
    46c8:	fe442783          	lw	a5,-28(s0)
    46cc:	97ba                	add	a5,a5,a4
    46ce:	0007c783          	lbu	a5,0(a5)
    46d2:	fdf44703          	lbu	a4,-33(s0)
    46d6:	00e7fa63          	bgeu	a5,a4,46ea <trackBorder_Get+0x19c>
C:\Users\windows\Desktop\A_Dual\A_Dual1\Dual-core_Communication_Demo\Dual-core_Communication_Demo\SLAVE\obj/../CODE/TrackGet.c:151
            {
                EdgeR=j;
    46da:	fe442783          	lw	a5,-28(s0)
    46de:	01079713          	slli	a4,a5,0x10
    46e2:	8741                	srai	a4,a4,0x10
    46e4:	80e19623          	sh	a4,-2036(gp) # 20000124 <EdgeR>
C:\Users\windows\Desktop\A_Dual\A_Dual1\Dual-core_Communication_Demo\Dual-core_Communication_Demo\SLAVE\obj/../CODE/TrackGet.c:152
                break;
    46e8:	a8a1                	j	4740 <trackBorder_Get+0x1f2>
C:\Users\windows\Desktop\A_Dual\A_Dual1\Dual-core_Communication_Demo\Dual-core_Communication_Demo\SLAVE\obj/../CODE/TrackGet.c:154
            }
            if(j+delta>=Width)//
    46ea:	80a19783          	lh	a5,-2038(gp) # 20000122 <delta>
    46ee:	873e                	mv	a4,a5
    46f0:	fe442783          	lw	a5,-28(s0)
    46f4:	973e                	add	a4,a4,a5
    46f6:	0bb00793          	li	a5,187
    46fa:	02e7d563          	bge	a5,a4,4724 <trackBorder_Get+0x1d6>
C:\Users\windows\Desktop\A_Dual\A_Dual1\Dual-core_Communication_Demo\Dual-core_Communication_Demo\SLAVE\obj/../CODE/TrackGet.c:156
            {
                EdgeR=Width-1;
    46fe:	0bb00713          	li	a4,187
    4702:	80e19623          	sh	a4,-2036(gp) # 20000124 <EdgeR>
C:\Users\windows\Desktop\A_Dual\A_Dual1\Dual-core_Communication_Demo\Dual-core_Communication_Demo\SLAVE\obj/../CODE/TrackGet.c:157
                lostRight_Sign=1;
    4706:	4705                	li	a4,1
    4708:	84e19323          	sh	a4,-1978(gp) # 2000015e <lostRight_Sign>
C:\Users\windows\Desktop\A_Dual\A_Dual1\Dual-core_Communication_Demo\Dual-core_Communication_Demo\SLAVE\obj/../CODE/TrackGet.c:158
                rightLostLine_Cnt++;
    470c:	84a19783          	lh	a5,-1974(gp) # 20000162 <rightLostLine_Cnt>
    4710:	07c2                	slli	a5,a5,0x10
    4712:	83c1                	srli	a5,a5,0x10
    4714:	0785                	addi	a5,a5,1
    4716:	07c2                	slli	a5,a5,0x10
    4718:	83c1                	srli	a5,a5,0x10
    471a:	01079713          	slli	a4,a5,0x10
    471e:	8741                	srai	a4,a4,0x10
    4720:	84e19523          	sh	a4,-1974(gp) # 20000162 <rightLostLine_Cnt>
C:\Users\windows\Desktop\A_Dual\A_Dual1\Dual-core_Communication_Demo\Dual-core_Communication_Demo\SLAVE\obj/../CODE/TrackGet.c:139 (discriminator 2)
        for(int j=centre_last+delta;j<Width;j=j+delta)//
    4724:	80a19783          	lh	a5,-2038(gp) # 20000122 <delta>
    4728:	873e                	mv	a4,a5
    472a:	fe442783          	lw	a5,-28(s0)
    472e:	97ba                	add	a5,a5,a4
    4730:	fef42223          	sw	a5,-28(s0)
C:\Users\windows\Desktop\A_Dual\A_Dual1\Dual-core_Communication_Demo\Dual-core_Communication_Demo\SLAVE\obj/../CODE/TrackGet.c:139 (discriminator 1)
    4734:	fe442703          	lw	a4,-28(s0)
    4738:	0bb00793          	li	a5,187
    473c:	f6e7dbe3          	bge	a5,a4,46b2 <trackBorder_Get+0x164>
C:\Users\windows\Desktop\A_Dual\A_Dual1\Dual-core_Communication_Demo\Dual-core_Communication_Demo\SLAVE\obj/../CODE/TrackGet.c:162
            }
        }

        Border[LEFT][i]=EdgeL;//
    4740:	84019703          	lh	a4,-1984(gp) # 20000158 <EdgeL>
    4744:	200027b7          	lui	a5,0x20002
    4748:	fec42683          	lw	a3,-20(s0)
    474c:	0686                	slli	a3,a3,0x1
    474e:	64078793          	addi	a5,a5,1600 # 20002640 <Border>
    4752:	97b6                	add	a5,a5,a3
    4754:	00e79023          	sh	a4,0(a5)
C:\Users\windows\Desktop\A_Dual\A_Dual1\Dual-core_Communication_Demo\Dual-core_Communication_Demo\SLAVE\obj/../CODE/TrackGet.c:163
        Border[RIGHT][i]=EdgeR;//
    4758:	80c19703          	lh	a4,-2036(gp) # 20000124 <EdgeR>
    475c:	200027b7          	lui	a5,0x20002
    4760:	fec42683          	lw	a3,-20(s0)
    4764:	06468693          	addi	a3,a3,100 # 40010064 <_eusrstack+0x2000b064>
    4768:	0686                	slli	a3,a3,0x1
    476a:	64078793          	addi	a5,a5,1600 # 20002640 <Border>
    476e:	97b6                	add	a5,a5,a3
    4770:	00e79023          	sh	a4,0(a5)
C:\Users\windows\Desktop\A_Dual\A_Dual1\Dual-core_Communication_Demo\Dual-core_Communication_Demo\SLAVE\obj/../CODE/TrackGet.c:164
        Border[CENTRE][i]=(EdgeL+EdgeR)>>1;//
    4774:	84019783          	lh	a5,-1984(gp) # 20000158 <EdgeL>
    4778:	873e                	mv	a4,a5
    477a:	80c19783          	lh	a5,-2036(gp) # 20000124 <EdgeR>
    477e:	97ba                	add	a5,a5,a4
    4780:	8785                	srai	a5,a5,0x1
    4782:	01079713          	slli	a4,a5,0x10
    4786:	8741                	srai	a4,a4,0x10
    4788:	200027b7          	lui	a5,0x20002
    478c:	fec42683          	lw	a3,-20(s0)
    4790:	03268693          	addi	a3,a3,50
    4794:	0686                	slli	a3,a3,0x1
    4796:	64078793          	addi	a5,a5,1600 # 20002640 <Border>
    479a:	97b6                	add	a5,a5,a3
    479c:	00e79023          	sh	a4,0(a5)
C:\Users\windows\Desktop\A_Dual\A_Dual1\Dual-core_Communication_Demo\Dual-core_Communication_Demo\SLAVE\obj/../CODE/TrackGet.c:165
        if(lostLeft_Sign==0&&lostRight_Sign==0)//centre_lastcentre_last
    47a0:	84419783          	lh	a5,-1980(gp) # 2000015c <lostLeft_Sign>
    47a4:	e385                	bnez	a5,47c4 <trackBorder_Get+0x276>
C:\Users\windows\Desktop\A_Dual\A_Dual1\Dual-core_Communication_Demo\Dual-core_Communication_Demo\SLAVE\obj/../CODE/TrackGet.c:165 (discriminator 1)
    47a6:	84619783          	lh	a5,-1978(gp) # 2000015e <lostRight_Sign>
    47aa:	ef89                	bnez	a5,47c4 <trackBorder_Get+0x276>
C:\Users\windows\Desktop\A_Dual\A_Dual1\Dual-core_Communication_Demo\Dual-core_Communication_Demo\SLAVE\obj/../CODE/TrackGet.c:166
            centre_last=(EdgeL+EdgeR)>>1;
    47ac:	84019783          	lh	a5,-1984(gp) # 20000158 <EdgeL>
    47b0:	873e                	mv	a4,a5
    47b2:	80c19783          	lh	a5,-2036(gp) # 20000124 <EdgeR>
    47b6:	97ba                	add	a5,a5,a4
    47b8:	8785                	srai	a5,a5,0x1
    47ba:	01079713          	slli	a4,a5,0x10
    47be:	8741                	srai	a4,a4,0x10
    47c0:	80e19423          	sh	a4,-2040(gp) # 20000120 <centre_last>
C:\Users\windows\Desktop\A_Dual\A_Dual1\Dual-core_Communication_Demo\Dual-core_Communication_Demo\SLAVE\obj/../CODE/TrackGet.c:97 (discriminator 2)
    for(int i=High-1;i>=0;i--)//
    47c4:	fec42783          	lw	a5,-20(s0)
    47c8:	17fd                	addi	a5,a5,-1
    47ca:	fef42623          	sw	a5,-20(s0)
C:\Users\windows\Desktop\A_Dual\A_Dual1\Dual-core_Communication_Demo\Dual-core_Communication_Demo\SLAVE\obj/../CODE/TrackGet.c:97 (discriminator 1)
    47ce:	fec42783          	lw	a5,-20(s0)
    47d2:	de07d3e3          	bgez	a5,45b8 <trackBorder_Get+0x6a>
C:\Users\windows\Desktop\A_Dual\A_Dual1\Dual-core_Communication_Demo\Dual-core_Communication_Demo\SLAVE\obj/../CODE/TrackGet.c:168
    }
}
    47d6:	0001                	nop
    47d8:	50b2                	lw	ra,44(sp)
    47da:	5422                	lw	s0,40(sp)
    47dc:	6145                	addi	sp,sp,48
    47de:	8082                	ret

000047e0 <centre_line_get>:
centre_line_get():
C:\Users\windows\Desktop\A_Dual\A_Dual1\Dual-core_Communication_Demo\Dual-core_Communication_Demo\SLAVE\obj/../CODE/TrackGet.c:171

int16 centre_line_get()
{
    47e0:	1101                	addi	sp,sp,-32
    47e2:	ce22                	sw	s0,28(sp)
    47e4:	1000                	addi	s0,sp,32
C:\Users\windows\Desktop\A_Dual\A_Dual1\Dual-core_Communication_Demo\Dual-core_Communication_Demo\SLAVE\obj/../CODE/TrackGet.c:172
    int16 sum_A=0,sum_B=0;
    47e6:	fe041723          	sh	zero,-18(s0)
    47ea:	fe041623          	sh	zero,-20(s0)
C:\Users\windows\Desktop\A_Dual\A_Dual1\Dual-core_Communication_Demo\Dual-core_Communication_Demo\SLAVE\obj/../CODE/TrackGet.c:177
    //ips114_showint16(0,7,validLine);
    //ips114_showint16(0,7,Border[1][High-1]);
    //ips114_showint16(0,7,Border[1][High-2]);
    //ips114_showint16(0,7,centre_last);
    for(int i=High-1;i>=validLine;i--)
    47ee:	03100793          	li	a5,49
    47f2:	fef42423          	sw	a5,-24(s0)
    47f6:	a849                	j	4888 <centre_line_get+0xa8>
C:\Users\windows\Desktop\A_Dual\A_Dual1\Dual-core_Communication_Demo\Dual-core_Communication_Demo\SLAVE\obj/../CODE/TrackGet.c:179 (discriminator 3)
    {
        sum_A=sum_A+direct_Weight[High-1-i]*(Border[CENTRE][i]-Width/2);
    47f8:	03100713          	li	a4,49
    47fc:	fe842783          	lw	a5,-24(s0)
    4800:	8f1d                	sub	a4,a4,a5
    4802:	200007b7          	lui	a5,0x20000
    4806:	0706                	slli	a4,a4,0x1
    4808:	05478793          	addi	a5,a5,84 # 20000054 <direct_Weight>
    480c:	97ba                	add	a5,a5,a4
    480e:	00079783          	lh	a5,0(a5)
    4812:	01079713          	slli	a4,a5,0x10
    4816:	8341                	srli	a4,a4,0x10
    4818:	200027b7          	lui	a5,0x20002
    481c:	fe842683          	lw	a3,-24(s0)
    4820:	03268693          	addi	a3,a3,50
    4824:	0686                	slli	a3,a3,0x1
    4826:	64078793          	addi	a5,a5,1600 # 20002640 <Border>
    482a:	97b6                	add	a5,a5,a3
    482c:	00079783          	lh	a5,0(a5)
    4830:	fa278793          	addi	a5,a5,-94
    4834:	07c2                	slli	a5,a5,0x10
    4836:	83c1                	srli	a5,a5,0x10
    4838:	02f707b3          	mul	a5,a4,a5
    483c:	01079713          	slli	a4,a5,0x10
    4840:	8341                	srli	a4,a4,0x10
    4842:	fee45783          	lhu	a5,-18(s0)
    4846:	97ba                	add	a5,a5,a4
    4848:	07c2                	slli	a5,a5,0x10
    484a:	83c1                	srli	a5,a5,0x10
    484c:	fef41723          	sh	a5,-18(s0)
C:\Users\windows\Desktop\A_Dual\A_Dual1\Dual-core_Communication_Demo\Dual-core_Communication_Demo\SLAVE\obj/../CODE/TrackGet.c:180 (discriminator 3)
        sum_B=sum_B+direct_Weight[High-1-i];
    4850:	03100713          	li	a4,49
    4854:	fe842783          	lw	a5,-24(s0)
    4858:	8f1d                	sub	a4,a4,a5
    485a:	200007b7          	lui	a5,0x20000
    485e:	0706                	slli	a4,a4,0x1
    4860:	05478793          	addi	a5,a5,84 # 20000054 <direct_Weight>
    4864:	97ba                	add	a5,a5,a4
    4866:	00079783          	lh	a5,0(a5)
    486a:	01079713          	slli	a4,a5,0x10
    486e:	8341                	srli	a4,a4,0x10
    4870:	fec45783          	lhu	a5,-20(s0)
    4874:	97ba                	add	a5,a5,a4
    4876:	07c2                	slli	a5,a5,0x10
    4878:	83c1                	srli	a5,a5,0x10
    487a:	fef41623          	sh	a5,-20(s0)
C:\Users\windows\Desktop\A_Dual\A_Dual1\Dual-core_Communication_Demo\Dual-core_Communication_Demo\SLAVE\obj/../CODE/TrackGet.c:177 (discriminator 3)
    for(int i=High-1;i>=validLine;i--)
    487e:	fe842783          	lw	a5,-24(s0)
    4882:	17fd                	addi	a5,a5,-1
    4884:	fef42423          	sw	a5,-24(s0)
C:\Users\windows\Desktop\A_Dual\A_Dual1\Dual-core_Communication_Demo\Dual-core_Communication_Demo\SLAVE\obj/../CODE/TrackGet.c:177 (discriminator 1)
    4888:	84219783          	lh	a5,-1982(gp) # 2000015a <validLine>
    488c:	873e                	mv	a4,a5
    488e:	fe842783          	lw	a5,-24(s0)
    4892:	f6e7d3e3          	bge	a5,a4,47f8 <centre_line_get+0x18>
C:\Users\windows\Desktop\A_Dual\A_Dual1\Dual-core_Communication_Demo\Dual-core_Communication_Demo\SLAVE\obj/../CODE/TrackGet.c:182
    }
    return sum_A/sum_B;
    4896:	fee41703          	lh	a4,-18(s0)
    489a:	fec41783          	lh	a5,-20(s0)
    489e:	02f747b3          	div	a5,a4,a5
    48a2:	07c2                	slli	a5,a5,0x10
    48a4:	87c1                	srai	a5,a5,0x10
C:\Users\windows\Desktop\A_Dual\A_Dual1\Dual-core_Communication_Demo\Dual-core_Communication_Demo\SLAVE\obj/../CODE/TrackGet.c:183
}
    48a6:	853e                	mv	a0,a5
    48a8:	4472                	lw	s0,28(sp)
    48aa:	6105                	addi	sp,sp,32
    48ac:	8082                	ret

000048ae <__assert_func>:
__assert_func():
    48ae:	81018793          	addi	a5,gp,-2032 # 20000128 <_impure_ptr>
    48b2:	439c                	lw	a5,0(a5)
    48b4:	1141                	addi	sp,sp,-16
    48b6:	8832                	mv	a6,a2
    48b8:	c606                	sw	ra,12(sp)
    48ba:	88aa                	mv	a7,a0
    48bc:	872e                	mv	a4,a1
    48be:	47c8                	lw	a0,12(a5)
    48c0:	8636                	mv	a2,a3
    48c2:	00002797          	auipc	a5,0x2
    48c6:	93a78793          	addi	a5,a5,-1734 # 61fc <UARTN+0x10>
    48ca:	00081763          	bnez	a6,48d8 <__assert_func+0x2a>
    48ce:	00002797          	auipc	a5,0x2
    48d2:	93a78793          	addi	a5,a5,-1734 # 6208 <UARTN+0x1c>
    48d6:	883e                	mv	a6,a5
    48d8:	86c6                	mv	a3,a7
    48da:	00002597          	auipc	a1,0x2
    48de:	93258593          	addi	a1,a1,-1742 # 620c <UARTN+0x20>
    48e2:	2019                	jal	48e8 <fiprintf>
    48e4:	0b3000ef          	jal	ra,5196 <abort>

000048e8 <fiprintf>:
fprintf():
    48e8:	7139                	addi	sp,sp,-64
    48ea:	d432                	sw	a2,40(sp)
    48ec:	d636                	sw	a3,44(sp)
    48ee:	da3e                	sw	a5,52(sp)
    48f0:	d83a                	sw	a4,48(sp)
    48f2:	dc42                	sw	a6,56(sp)
    48f4:	de46                	sw	a7,60(sp)
    48f6:	81018793          	addi	a5,gp,-2032 # 20000128 <_impure_ptr>
    48fa:	862e                	mv	a2,a1
    48fc:	85aa                	mv	a1,a0
    48fe:	4388                	lw	a0,0(a5)
    4900:	1034                	addi	a3,sp,40
    4902:	ce06                	sw	ra,28(sp)
    4904:	c636                	sw	a3,12(sp)
    4906:	2895                	jal	497a <_vfiprintf_r>
    4908:	40f2                	lw	ra,28(sp)
    490a:	6121                	addi	sp,sp,64
    490c:	8082                	ret

0000490e <__sfputc_r>:
__sfputc_r():
    490e:	461c                	lw	a5,8(a2)
    4910:	17fd                	addi	a5,a5,-1
    4912:	c61c                	sw	a5,8(a2)
    4914:	0007d963          	bgez	a5,4926 <__sfputc_r+0x18>
    4918:	4e18                	lw	a4,24(a2)
    491a:	00e7c563          	blt	a5,a4,4924 <__sfputc_r+0x16>
    491e:	47a9                	li	a5,10
    4920:	00f59363          	bne	a1,a5,4926 <__sfputc_r+0x18>
    4924:	a55d                	j	4fca <__swbuf_r>
    4926:	421c                	lw	a5,0(a2)
    4928:	852e                	mv	a0,a1
    492a:	00178713          	addi	a4,a5,1
    492e:	c218                	sw	a4,0(a2)
    4930:	00b78023          	sb	a1,0(a5)
    4934:	8082                	ret

00004936 <__sfputs_r>:
__sfputs_r():
    4936:	1101                	addi	sp,sp,-32
    4938:	cc22                	sw	s0,24(sp)
    493a:	ca26                	sw	s1,20(sp)
    493c:	c84a                	sw	s2,16(sp)
    493e:	c64e                	sw	s3,12(sp)
    4940:	c452                	sw	s4,8(sp)
    4942:	ce06                	sw	ra,28(sp)
    4944:	892a                	mv	s2,a0
    4946:	89ae                	mv	s3,a1
    4948:	8432                	mv	s0,a2
    494a:	00d604b3          	add	s1,a2,a3
    494e:	5a7d                	li	s4,-1
    4950:	00941463          	bne	s0,s1,4958 <__sfputs_r+0x22>
    4954:	4501                	li	a0,0
    4956:	a811                	j	496a <__sfputs_r+0x34>
    4958:	00044583          	lbu	a1,0(s0)
    495c:	864e                	mv	a2,s3
    495e:	854a                	mv	a0,s2
    4960:	fafff0ef          	jal	ra,490e <__sfputc_r>
    4964:	0405                	addi	s0,s0,1
    4966:	ff4515e3          	bne	a0,s4,4950 <__sfputs_r+0x1a>
    496a:	40f2                	lw	ra,28(sp)
    496c:	4462                	lw	s0,24(sp)
    496e:	44d2                	lw	s1,20(sp)
    4970:	4942                	lw	s2,16(sp)
    4972:	49b2                	lw	s3,12(sp)
    4974:	4a22                	lw	s4,8(sp)
    4976:	6105                	addi	sp,sp,32
    4978:	8082                	ret

0000497a <_vfiprintf_r>:
_vfiprintf_r():
    497a:	7135                	addi	sp,sp,-160
    497c:	cd22                	sw	s0,152(sp)
    497e:	cb26                	sw	s1,148(sp)
    4980:	c94a                	sw	s2,144(sp)
    4982:	c74e                	sw	s3,140(sp)
    4984:	cf06                	sw	ra,156(sp)
    4986:	c552                	sw	s4,136(sp)
    4988:	c356                	sw	s5,132(sp)
    498a:	c15a                	sw	s6,128(sp)
    498c:	dede                	sw	s7,124(sp)
    498e:	dce2                	sw	s8,120(sp)
    4990:	dae6                	sw	s9,116(sp)
    4992:	89aa                	mv	s3,a0
    4994:	84ae                	mv	s1,a1
    4996:	8932                	mv	s2,a2
    4998:	8436                	mv	s0,a3
    499a:	c509                	beqz	a0,49a4 <_vfiprintf_r+0x2a>
    499c:	4d1c                	lw	a5,24(a0)
    499e:	e399                	bnez	a5,49a4 <_vfiprintf_r+0x2a>
    49a0:	261000ef          	jal	ra,5400 <__sinit>
    49a4:	00002797          	auipc	a5,0x2
    49a8:	8f478793          	addi	a5,a5,-1804 # 6298 <__sf_fake_stdin>
    49ac:	0cf49d63          	bne	s1,a5,4a86 <_vfiprintf_r+0x10c>
    49b0:	0049a483          	lw	s1,4(s3)
    49b4:	00c4d783          	lhu	a5,12(s1)
    49b8:	8ba1                	andi	a5,a5,8
    49ba:	cbe5                	beqz	a5,4aaa <_vfiprintf_r+0x130>
    49bc:	489c                	lw	a5,16(s1)
    49be:	c7f5                	beqz	a5,4aaa <_vfiprintf_r+0x130>
    49c0:	02000793          	li	a5,32
    49c4:	02f104a3          	sb	a5,41(sp)
    49c8:	03000793          	li	a5,48
    49cc:	d202                	sw	zero,36(sp)
    49ce:	02f10523          	sb	a5,42(sp)
    49d2:	c622                	sw	s0,12(sp)
    49d4:	02500b93          	li	s7,37
    49d8:	00002a97          	auipc	s5,0x2
    49dc:	864a8a93          	addi	s5,s5,-1948 # 623c <UARTN+0x50>
    49e0:	4c05                	li	s8,1
    49e2:	4b29                	li	s6,10
    49e4:	844a                	mv	s0,s2
    49e6:	00044783          	lbu	a5,0(s0)
    49ea:	c399                	beqz	a5,49f0 <_vfiprintf_r+0x76>
    49ec:	0f779163          	bne	a5,s7,4ace <_vfiprintf_r+0x154>
    49f0:	41240cb3          	sub	s9,s0,s2
    49f4:	000c8e63          	beqz	s9,4a10 <_vfiprintf_r+0x96>
    49f8:	86e6                	mv	a3,s9
    49fa:	864a                	mv	a2,s2
    49fc:	85a6                	mv	a1,s1
    49fe:	854e                	mv	a0,s3
    4a00:	f37ff0ef          	jal	ra,4936 <__sfputs_r>
    4a04:	57fd                	li	a5,-1
    4a06:	1ef50863          	beq	a0,a5,4bf6 <_vfiprintf_r+0x27c>
    4a0a:	5692                	lw	a3,36(sp)
    4a0c:	96e6                	add	a3,a3,s9
    4a0e:	d236                	sw	a3,36(sp)
    4a10:	00044783          	lbu	a5,0(s0)
    4a14:	1e078163          	beqz	a5,4bf6 <_vfiprintf_r+0x27c>
    4a18:	57fd                	li	a5,-1
    4a1a:	00140913          	addi	s2,s0,1
    4a1e:	c802                	sw	zero,16(sp)
    4a20:	ce02                	sw	zero,28(sp)
    4a22:	ca3e                	sw	a5,20(sp)
    4a24:	cc02                	sw	zero,24(sp)
    4a26:	040109a3          	sb	zero,83(sp)
    4a2a:	d482                	sw	zero,104(sp)
    4a2c:	00094583          	lbu	a1,0(s2)
    4a30:	4615                	li	a2,5
    4a32:	8556                	mv	a0,s5
    4a34:	43b000ef          	jal	ra,566e <memchr>
    4a38:	00190413          	addi	s0,s2,1
    4a3c:	47c2                	lw	a5,16(sp)
    4a3e:	e951                	bnez	a0,4ad2 <_vfiprintf_r+0x158>
    4a40:	0107f713          	andi	a4,a5,16
    4a44:	c709                	beqz	a4,4a4e <_vfiprintf_r+0xd4>
    4a46:	02000713          	li	a4,32
    4a4a:	04e109a3          	sb	a4,83(sp)
    4a4e:	0087f713          	andi	a4,a5,8
    4a52:	c709                	beqz	a4,4a5c <_vfiprintf_r+0xe2>
    4a54:	02b00713          	li	a4,43
    4a58:	04e109a3          	sb	a4,83(sp)
    4a5c:	00094683          	lbu	a3,0(s2)
    4a60:	02a00713          	li	a4,42
    4a64:	06e68f63          	beq	a3,a4,4ae2 <_vfiprintf_r+0x168>
    4a68:	47f2                	lw	a5,28(sp)
    4a6a:	844a                	mv	s0,s2
    4a6c:	4681                	li	a3,0
    4a6e:	4625                	li	a2,9
    4a70:	00044703          	lbu	a4,0(s0)
    4a74:	00140593          	addi	a1,s0,1
    4a78:	fd070713          	addi	a4,a4,-48 # 9effd0 <_data_lma+0x9e9cf8>
    4a7c:	0ae67863          	bgeu	a2,a4,4b2c <_vfiprintf_r+0x1b2>
    4a80:	caad                	beqz	a3,4af2 <_vfiprintf_r+0x178>
    4a82:	ce3e                	sw	a5,28(sp)
    4a84:	a0bd                	j	4af2 <_vfiprintf_r+0x178>
    4a86:	00002797          	auipc	a5,0x2
    4a8a:	83278793          	addi	a5,a5,-1998 # 62b8 <__sf_fake_stdout>
    4a8e:	00f49563          	bne	s1,a5,4a98 <_vfiprintf_r+0x11e>
    4a92:	0089a483          	lw	s1,8(s3)
    4a96:	bf39                	j	49b4 <_vfiprintf_r+0x3a>
    4a98:	00001797          	auipc	a5,0x1
    4a9c:	7e078793          	addi	a5,a5,2016 # 6278 <__sf_fake_stderr>
    4aa0:	f0f49ae3          	bne	s1,a5,49b4 <_vfiprintf_r+0x3a>
    4aa4:	00c9a483          	lw	s1,12(s3)
    4aa8:	b731                	j	49b4 <_vfiprintf_r+0x3a>
    4aaa:	85a6                	mv	a1,s1
    4aac:	854e                	mv	a0,s3
    4aae:	2bf1                	jal	508a <__swsetup_r>
    4ab0:	d901                	beqz	a0,49c0 <_vfiprintf_r+0x46>
    4ab2:	557d                	li	a0,-1
    4ab4:	40fa                	lw	ra,156(sp)
    4ab6:	446a                	lw	s0,152(sp)
    4ab8:	44da                	lw	s1,148(sp)
    4aba:	494a                	lw	s2,144(sp)
    4abc:	49ba                	lw	s3,140(sp)
    4abe:	4a2a                	lw	s4,136(sp)
    4ac0:	4a9a                	lw	s5,132(sp)
    4ac2:	4b0a                	lw	s6,128(sp)
    4ac4:	5bf6                	lw	s7,124(sp)
    4ac6:	5c66                	lw	s8,120(sp)
    4ac8:	5cd6                	lw	s9,116(sp)
    4aca:	610d                	addi	sp,sp,160
    4acc:	8082                	ret
    4ace:	0405                	addi	s0,s0,1
    4ad0:	bf19                	j	49e6 <_vfiprintf_r+0x6c>
    4ad2:	41550533          	sub	a0,a0,s5
    4ad6:	00ac1533          	sll	a0,s8,a0
    4ada:	8fc9                	or	a5,a5,a0
    4adc:	c83e                	sw	a5,16(sp)
    4ade:	8922                	mv	s2,s0
    4ae0:	b7b1                	j	4a2c <_vfiprintf_r+0xb2>
    4ae2:	4732                	lw	a4,12(sp)
    4ae4:	00470693          	addi	a3,a4,4
    4ae8:	4318                	lw	a4,0(a4)
    4aea:	c636                	sw	a3,12(sp)
    4aec:	02074963          	bltz	a4,4b1e <_vfiprintf_r+0x1a4>
    4af0:	ce3a                	sw	a4,28(sp)
    4af2:	00044703          	lbu	a4,0(s0)
    4af6:	02e00793          	li	a5,46
    4afa:	04f71f63          	bne	a4,a5,4b58 <_vfiprintf_r+0x1de>
    4afe:	00144703          	lbu	a4,1(s0)
    4b02:	02a00793          	li	a5,42
    4b06:	02f71b63          	bne	a4,a5,4b3c <_vfiprintf_r+0x1c2>
    4b0a:	47b2                	lw	a5,12(sp)
    4b0c:	0409                	addi	s0,s0,2
    4b0e:	00478713          	addi	a4,a5,4
    4b12:	439c                	lw	a5,0(a5)
    4b14:	c63a                	sw	a4,12(sp)
    4b16:	0207c163          	bltz	a5,4b38 <_vfiprintf_r+0x1be>
    4b1a:	ca3e                	sw	a5,20(sp)
    4b1c:	a835                	j	4b58 <_vfiprintf_r+0x1de>
    4b1e:	40e00733          	neg	a4,a4
    4b22:	0027e793          	ori	a5,a5,2
    4b26:	ce3a                	sw	a4,28(sp)
    4b28:	c83e                	sw	a5,16(sp)
    4b2a:	b7e1                	j	4af2 <_vfiprintf_r+0x178>
    4b2c:	036787b3          	mul	a5,a5,s6
    4b30:	4685                	li	a3,1
    4b32:	842e                	mv	s0,a1
    4b34:	97ba                	add	a5,a5,a4
    4b36:	bf2d                	j	4a70 <_vfiprintf_r+0xf6>
    4b38:	57fd                	li	a5,-1
    4b3a:	b7c5                	j	4b1a <_vfiprintf_r+0x1a0>
    4b3c:	0405                	addi	s0,s0,1
    4b3e:	ca02                	sw	zero,20(sp)
    4b40:	4681                	li	a3,0
    4b42:	4781                	li	a5,0
    4b44:	4625                	li	a2,9
    4b46:	00044703          	lbu	a4,0(s0)
    4b4a:	00140593          	addi	a1,s0,1
    4b4e:	fd070713          	addi	a4,a4,-48
    4b52:	06e67863          	bgeu	a2,a4,4bc2 <_vfiprintf_r+0x248>
    4b56:	f2f1                	bnez	a3,4b1a <_vfiprintf_r+0x1a0>
    4b58:	00044583          	lbu	a1,0(s0)
    4b5c:	460d                	li	a2,3
    4b5e:	00001517          	auipc	a0,0x1
    4b62:	6e650513          	addi	a0,a0,1766 # 6244 <UARTN+0x58>
    4b66:	309000ef          	jal	ra,566e <memchr>
    4b6a:	cd11                	beqz	a0,4b86 <_vfiprintf_r+0x20c>
    4b6c:	00001797          	auipc	a5,0x1
    4b70:	6d878793          	addi	a5,a5,1752 # 6244 <UARTN+0x58>
    4b74:	8d1d                	sub	a0,a0,a5
    4b76:	04000793          	li	a5,64
    4b7a:	00a797b3          	sll	a5,a5,a0
    4b7e:	4542                	lw	a0,16(sp)
    4b80:	0405                	addi	s0,s0,1
    4b82:	8d5d                	or	a0,a0,a5
    4b84:	c82a                	sw	a0,16(sp)
    4b86:	00044583          	lbu	a1,0(s0)
    4b8a:	4619                	li	a2,6
    4b8c:	00001517          	auipc	a0,0x1
    4b90:	6bc50513          	addi	a0,a0,1724 # 6248 <UARTN+0x5c>
    4b94:	00140913          	addi	s2,s0,1
    4b98:	02b10423          	sb	a1,40(sp)
    4b9c:	2d3000ef          	jal	ra,566e <memchr>
    4ba0:	c13d                	beqz	a0,4c06 <_vfiprintf_r+0x28c>
    4ba2:	ffffb797          	auipc	a5,0xffffb
    4ba6:	45e78793          	addi	a5,a5,1118 # 0 <_sinit>
    4baa:	e795                	bnez	a5,4bd6 <_vfiprintf_r+0x25c>
    4bac:	4742                	lw	a4,16(sp)
    4bae:	47b2                	lw	a5,12(sp)
    4bb0:	10077713          	andi	a4,a4,256
    4bb4:	cf09                	beqz	a4,4bce <_vfiprintf_r+0x254>
    4bb6:	0791                	addi	a5,a5,4
    4bb8:	c63e                	sw	a5,12(sp)
    4bba:	5792                	lw	a5,36(sp)
    4bbc:	97d2                	add	a5,a5,s4
    4bbe:	d23e                	sw	a5,36(sp)
    4bc0:	b515                	j	49e4 <_vfiprintf_r+0x6a>
    4bc2:	036787b3          	mul	a5,a5,s6
    4bc6:	4685                	li	a3,1
    4bc8:	842e                	mv	s0,a1
    4bca:	97ba                	add	a5,a5,a4
    4bcc:	bfad                	j	4b46 <_vfiprintf_r+0x1cc>
    4bce:	079d                	addi	a5,a5,7
    4bd0:	9be1                	andi	a5,a5,-8
    4bd2:	07a1                	addi	a5,a5,8
    4bd4:	b7d5                	j	4bb8 <_vfiprintf_r+0x23e>
    4bd6:	0078                	addi	a4,sp,12
    4bd8:	00000697          	auipc	a3,0x0
    4bdc:	d5e68693          	addi	a3,a3,-674 # 4936 <__sfputs_r>
    4be0:	8626                	mv	a2,s1
    4be2:	080c                	addi	a1,sp,16
    4be4:	854e                	mv	a0,s3
    4be6:	00000097          	auipc	ra,0x0
    4bea:	000000e7          	jalr	zero # 0 <_sinit>
    4bee:	57fd                	li	a5,-1
    4bf0:	8a2a                	mv	s4,a0
    4bf2:	fcf514e3          	bne	a0,a5,4bba <_vfiprintf_r+0x240>
    4bf6:	00c4d783          	lhu	a5,12(s1)
    4bfa:	0407f793          	andi	a5,a5,64
    4bfe:	ea079ae3          	bnez	a5,4ab2 <_vfiprintf_r+0x138>
    4c02:	5512                	lw	a0,36(sp)
    4c04:	bd45                	j	4ab4 <_vfiprintf_r+0x13a>
    4c06:	0078                	addi	a4,sp,12
    4c08:	00000697          	auipc	a3,0x0
    4c0c:	d2e68693          	addi	a3,a3,-722 # 4936 <__sfputs_r>
    4c10:	8626                	mv	a2,s1
    4c12:	080c                	addi	a1,sp,16
    4c14:	854e                	mv	a0,s3
    4c16:	2a01                	jal	4d26 <_printf_i>
    4c18:	bfd9                	j	4bee <_vfiprintf_r+0x274>

00004c1a <_printf_common>:
_printf_common():
    4c1a:	7179                	addi	sp,sp,-48
    4c1c:	ca56                	sw	s5,20(sp)
    4c1e:	499c                	lw	a5,16(a1)
    4c20:	8aba                	mv	s5,a4
    4c22:	4598                	lw	a4,8(a1)
    4c24:	d422                	sw	s0,40(sp)
    4c26:	d226                	sw	s1,36(sp)
    4c28:	ce4e                	sw	s3,28(sp)
    4c2a:	cc52                	sw	s4,24(sp)
    4c2c:	d606                	sw	ra,44(sp)
    4c2e:	d04a                	sw	s2,32(sp)
    4c30:	c85a                	sw	s6,16(sp)
    4c32:	c65e                	sw	s7,12(sp)
    4c34:	89aa                	mv	s3,a0
    4c36:	842e                	mv	s0,a1
    4c38:	84b2                	mv	s1,a2
    4c3a:	8a36                	mv	s4,a3
    4c3c:	00e7d363          	bge	a5,a4,4c42 <_printf_common+0x28>
    4c40:	87ba                	mv	a5,a4
    4c42:	c09c                	sw	a5,0(s1)
    4c44:	04344703          	lbu	a4,67(s0)
    4c48:	c319                	beqz	a4,4c4e <_printf_common+0x34>
    4c4a:	0785                	addi	a5,a5,1
    4c4c:	c09c                	sw	a5,0(s1)
    4c4e:	401c                	lw	a5,0(s0)
    4c50:	0207f793          	andi	a5,a5,32
    4c54:	c781                	beqz	a5,4c5c <_printf_common+0x42>
    4c56:	409c                	lw	a5,0(s1)
    4c58:	0789                	addi	a5,a5,2
    4c5a:	c09c                	sw	a5,0(s1)
    4c5c:	00042903          	lw	s2,0(s0)
    4c60:	00697913          	andi	s2,s2,6
    4c64:	00091a63          	bnez	s2,4c78 <_printf_common+0x5e>
    4c68:	01940b13          	addi	s6,s0,25
    4c6c:	5bfd                	li	s7,-1
    4c6e:	445c                	lw	a5,12(s0)
    4c70:	4098                	lw	a4,0(s1)
    4c72:	8f99                	sub	a5,a5,a4
    4c74:	04f94c63          	blt	s2,a5,4ccc <_printf_common+0xb2>
    4c78:	401c                	lw	a5,0(s0)
    4c7a:	04344683          	lbu	a3,67(s0)
    4c7e:	0207f793          	andi	a5,a5,32
    4c82:	00d036b3          	snez	a3,a3
    4c86:	eba5                	bnez	a5,4cf6 <_printf_common+0xdc>
    4c88:	04340613          	addi	a2,s0,67
    4c8c:	85d2                	mv	a1,s4
    4c8e:	854e                	mv	a0,s3
    4c90:	9a82                	jalr	s5
    4c92:	57fd                	li	a5,-1
    4c94:	04f50363          	beq	a0,a5,4cda <_printf_common+0xc0>
    4c98:	401c                	lw	a5,0(s0)
    4c9a:	4611                	li	a2,4
    4c9c:	4098                	lw	a4,0(s1)
    4c9e:	8b99                	andi	a5,a5,6
    4ca0:	4454                	lw	a3,12(s0)
    4ca2:	4481                	li	s1,0
    4ca4:	00c79763          	bne	a5,a2,4cb2 <_printf_common+0x98>
    4ca8:	40e684b3          	sub	s1,a3,a4
    4cac:	0004d363          	bgez	s1,4cb2 <_printf_common+0x98>
    4cb0:	4481                	li	s1,0
    4cb2:	441c                	lw	a5,8(s0)
    4cb4:	4818                	lw	a4,16(s0)
    4cb6:	00f75463          	bge	a4,a5,4cbe <_printf_common+0xa4>
    4cba:	8f99                	sub	a5,a5,a4
    4cbc:	94be                	add	s1,s1,a5
    4cbe:	4901                	li	s2,0
    4cc0:	0469                	addi	s0,s0,26
    4cc2:	5b7d                	li	s6,-1
    4cc4:	05249863          	bne	s1,s2,4d14 <_printf_common+0xfa>
    4cc8:	4501                	li	a0,0
    4cca:	a809                	j	4cdc <_printf_common+0xc2>
    4ccc:	4685                	li	a3,1
    4cce:	865a                	mv	a2,s6
    4cd0:	85d2                	mv	a1,s4
    4cd2:	854e                	mv	a0,s3
    4cd4:	9a82                	jalr	s5
    4cd6:	01751e63          	bne	a0,s7,4cf2 <_printf_common+0xd8>
    4cda:	557d                	li	a0,-1
    4cdc:	50b2                	lw	ra,44(sp)
    4cde:	5422                	lw	s0,40(sp)
    4ce0:	5492                	lw	s1,36(sp)
    4ce2:	5902                	lw	s2,32(sp)
    4ce4:	49f2                	lw	s3,28(sp)
    4ce6:	4a62                	lw	s4,24(sp)
    4ce8:	4ad2                	lw	s5,20(sp)
    4cea:	4b42                	lw	s6,16(sp)
    4cec:	4bb2                	lw	s7,12(sp)
    4cee:	6145                	addi	sp,sp,48
    4cf0:	8082                	ret
    4cf2:	0905                	addi	s2,s2,1
    4cf4:	bfad                	j	4c6e <_printf_common+0x54>
    4cf6:	00d40733          	add	a4,s0,a3
    4cfa:	03000613          	li	a2,48
    4cfe:	04c701a3          	sb	a2,67(a4)
    4d02:	04544703          	lbu	a4,69(s0)
    4d06:	00168793          	addi	a5,a3,1
    4d0a:	97a2                	add	a5,a5,s0
    4d0c:	0689                	addi	a3,a3,2
    4d0e:	04e781a3          	sb	a4,67(a5)
    4d12:	bf9d                	j	4c88 <_printf_common+0x6e>
    4d14:	4685                	li	a3,1
    4d16:	8622                	mv	a2,s0
    4d18:	85d2                	mv	a1,s4
    4d1a:	854e                	mv	a0,s3
    4d1c:	9a82                	jalr	s5
    4d1e:	fb650ee3          	beq	a0,s6,4cda <_printf_common+0xc0>
    4d22:	0905                	addi	s2,s2,1
    4d24:	b745                	j	4cc4 <_printf_common+0xaa>

00004d26 <_printf_i>:
_printf_i():
    4d26:	7179                	addi	sp,sp,-48
    4d28:	d422                	sw	s0,40(sp)
    4d2a:	d226                	sw	s1,36(sp)
    4d2c:	d04a                	sw	s2,32(sp)
    4d2e:	ce4e                	sw	s3,28(sp)
    4d30:	d606                	sw	ra,44(sp)
    4d32:	cc52                	sw	s4,24(sp)
    4d34:	ca56                	sw	s5,20(sp)
    4d36:	c85a                	sw	s6,16(sp)
    4d38:	89b6                	mv	s3,a3
    4d3a:	0185c683          	lbu	a3,24(a1)
    4d3e:	06e00793          	li	a5,110
    4d42:	8932                	mv	s2,a2
    4d44:	84aa                	mv	s1,a0
    4d46:	842e                	mv	s0,a1
    4d48:	04358613          	addi	a2,a1,67
    4d4c:	1ef68163          	beq	a3,a5,4f2e <_printf_i+0x208>
    4d50:	06d7e263          	bltu	a5,a3,4db4 <_printf_i+0x8e>
    4d54:	06300793          	li	a5,99
    4d58:	0af68263          	beq	a3,a5,4dfc <_printf_i+0xd6>
    4d5c:	00d7ed63          	bltu	a5,a3,4d76 <_printf_i+0x50>
    4d60:	1e068b63          	beqz	a3,4f56 <_printf_i+0x230>
    4d64:	05800793          	li	a5,88
    4d68:	16f68763          	beq	a3,a5,4ed6 <_printf_i+0x1b0>
    4d6c:	04240a93          	addi	s5,s0,66
    4d70:	04d40123          	sb	a3,66(s0)
    4d74:	a869                	j	4e0e <_printf_i+0xe8>
    4d76:	06400793          	li	a5,100
    4d7a:	00f68663          	beq	a3,a5,4d86 <_printf_i+0x60>
    4d7e:	06900793          	li	a5,105
    4d82:	fef695e3          	bne	a3,a5,4d6c <_printf_i+0x46>
    4d86:	401c                	lw	a5,0(s0)
    4d88:	4308                	lw	a0,0(a4)
    4d8a:	0807f693          	andi	a3,a5,128
    4d8e:	00450593          	addi	a1,a0,4
    4d92:	c2c1                	beqz	a3,4e12 <_printf_i+0xec>
    4d94:	411c                	lw	a5,0(a0)
    4d96:	c30c                	sw	a1,0(a4)
    4d98:	0007d863          	bgez	a5,4da8 <_printf_i+0x82>
    4d9c:	02d00713          	li	a4,45
    4da0:	40f007b3          	neg	a5,a5
    4da4:	04e401a3          	sb	a4,67(s0)
    4da8:	00001697          	auipc	a3,0x1
    4dac:	4a868693          	addi	a3,a3,1192 # 6250 <UARTN+0x64>
    4db0:	4729                	li	a4,10
    4db2:	a065                	j	4e5a <_printf_i+0x134>
    4db4:	07300793          	li	a5,115
    4db8:	1af68363          	beq	a3,a5,4f5e <_printf_i+0x238>
    4dbc:	00d7ef63          	bltu	a5,a3,4dda <_printf_i+0xb4>
    4dc0:	06f00793          	li	a5,111
    4dc4:	04f68f63          	beq	a3,a5,4e22 <_printf_i+0xfc>
    4dc8:	07000793          	li	a5,112
    4dcc:	faf690e3          	bne	a3,a5,4d6c <_printf_i+0x46>
    4dd0:	419c                	lw	a5,0(a1)
    4dd2:	0207e793          	ori	a5,a5,32
    4dd6:	c19c                	sw	a5,0(a1)
    4dd8:	a809                	j	4dea <_printf_i+0xc4>
    4dda:	07500793          	li	a5,117
    4dde:	04f68263          	beq	a3,a5,4e22 <_printf_i+0xfc>
    4de2:	07800793          	li	a5,120
    4de6:	f8f693e3          	bne	a3,a5,4d6c <_printf_i+0x46>
    4dea:	07800793          	li	a5,120
    4dee:	04f402a3          	sb	a5,69(s0)
    4df2:	00001697          	auipc	a3,0x1
    4df6:	47268693          	addi	a3,a3,1138 # 6264 <UARTN+0x78>
    4dfa:	a0e5                	j	4ee2 <_printf_i+0x1bc>
    4dfc:	431c                	lw	a5,0(a4)
    4dfe:	04258a93          	addi	s5,a1,66
    4e02:	00478693          	addi	a3,a5,4
    4e06:	439c                	lw	a5,0(a5)
    4e08:	c314                	sw	a3,0(a4)
    4e0a:	04f58123          	sb	a5,66(a1)
    4e0e:	4785                	li	a5,1
    4e10:	a2b5                	j	4f7c <_printf_i+0x256>
    4e12:	0407f693          	andi	a3,a5,64
    4e16:	411c                	lw	a5,0(a0)
    4e18:	c30c                	sw	a1,0(a4)
    4e1a:	debd                	beqz	a3,4d98 <_printf_i+0x72>
    4e1c:	07c2                	slli	a5,a5,0x10
    4e1e:	87c1                	srai	a5,a5,0x10
    4e20:	bfa5                	j	4d98 <_printf_i+0x72>
    4e22:	400c                	lw	a1,0(s0)
    4e24:	431c                	lw	a5,0(a4)
    4e26:	0805f813          	andi	a6,a1,128
    4e2a:	00478513          	addi	a0,a5,4
    4e2e:	00080563          	beqz	a6,4e38 <_printf_i+0x112>
    4e32:	c308                	sw	a0,0(a4)
    4e34:	439c                	lw	a5,0(a5)
    4e36:	a039                	j	4e44 <_printf_i+0x11e>
    4e38:	0405f593          	andi	a1,a1,64
    4e3c:	c308                	sw	a0,0(a4)
    4e3e:	d9fd                	beqz	a1,4e34 <_printf_i+0x10e>
    4e40:	0007d783          	lhu	a5,0(a5)
    4e44:	06f00713          	li	a4,111
    4e48:	0ce68b63          	beq	a3,a4,4f1e <_printf_i+0x1f8>
    4e4c:	00001697          	auipc	a3,0x1
    4e50:	40468693          	addi	a3,a3,1028 # 6250 <UARTN+0x64>
    4e54:	4729                	li	a4,10
    4e56:	040401a3          	sb	zero,67(s0)
    4e5a:	404c                	lw	a1,4(s0)
    4e5c:	c40c                	sw	a1,8(s0)
    4e5e:	0005c563          	bltz	a1,4e68 <_printf_i+0x142>
    4e62:	4008                	lw	a0,0(s0)
    4e64:	996d                	andi	a0,a0,-5
    4e66:	c008                	sw	a0,0(s0)
    4e68:	e399                	bnez	a5,4e6e <_printf_i+0x148>
    4e6a:	8ab2                	mv	s5,a2
    4e6c:	cd91                	beqz	a1,4e88 <_printf_i+0x162>
    4e6e:	8ab2                	mv	s5,a2
    4e70:	02e7f5b3          	remu	a1,a5,a4
    4e74:	1afd                	addi	s5,s5,-1
    4e76:	95b6                	add	a1,a1,a3
    4e78:	0005c583          	lbu	a1,0(a1)
    4e7c:	00ba8023          	sb	a1,0(s5)
    4e80:	02e7d5b3          	divu	a1,a5,a4
    4e84:	0ae7f363          	bgeu	a5,a4,4f2a <_printf_i+0x204>
    4e88:	47a1                	li	a5,8
    4e8a:	00f71e63          	bne	a4,a5,4ea6 <_printf_i+0x180>
    4e8e:	401c                	lw	a5,0(s0)
    4e90:	8b85                	andi	a5,a5,1
    4e92:	cb91                	beqz	a5,4ea6 <_printf_i+0x180>
    4e94:	4058                	lw	a4,4(s0)
    4e96:	481c                	lw	a5,16(s0)
    4e98:	00e7c763          	blt	a5,a4,4ea6 <_printf_i+0x180>
    4e9c:	03000793          	li	a5,48
    4ea0:	fefa8fa3          	sb	a5,-1(s5)
    4ea4:	1afd                	addi	s5,s5,-1
    4ea6:	41560633          	sub	a2,a2,s5
    4eaa:	c810                	sw	a2,16(s0)
    4eac:	874e                	mv	a4,s3
    4eae:	86ca                	mv	a3,s2
    4eb0:	0070                	addi	a2,sp,12
    4eb2:	85a2                	mv	a1,s0
    4eb4:	8526                	mv	a0,s1
    4eb6:	d65ff0ef          	jal	ra,4c1a <_printf_common>
    4eba:	5a7d                	li	s4,-1
    4ebc:	0d451463          	bne	a0,s4,4f84 <_printf_i+0x25e>
    4ec0:	557d                	li	a0,-1
    4ec2:	50b2                	lw	ra,44(sp)
    4ec4:	5422                	lw	s0,40(sp)
    4ec6:	5492                	lw	s1,36(sp)
    4ec8:	5902                	lw	s2,32(sp)
    4eca:	49f2                	lw	s3,28(sp)
    4ecc:	4a62                	lw	s4,24(sp)
    4ece:	4ad2                	lw	s5,20(sp)
    4ed0:	4b42                	lw	s6,16(sp)
    4ed2:	6145                	addi	sp,sp,48
    4ed4:	8082                	ret
    4ed6:	04d582a3          	sb	a3,69(a1)
    4eda:	00001697          	auipc	a3,0x1
    4ede:	37668693          	addi	a3,a3,886 # 6250 <UARTN+0x64>
    4ee2:	400c                	lw	a1,0(s0)
    4ee4:	4308                	lw	a0,0(a4)
    4ee6:	0805f813          	andi	a6,a1,128
    4eea:	411c                	lw	a5,0(a0)
    4eec:	0511                	addi	a0,a0,4
    4eee:	02080063          	beqz	a6,4f0e <_printf_i+0x1e8>
    4ef2:	c308                	sw	a0,0(a4)
    4ef4:	0015f713          	andi	a4,a1,1
    4ef8:	c701                	beqz	a4,4f00 <_printf_i+0x1da>
    4efa:	0205e593          	ori	a1,a1,32
    4efe:	c00c                	sw	a1,0(s0)
    4f00:	4741                	li	a4,16
    4f02:	fbb1                	bnez	a5,4e56 <_printf_i+0x130>
    4f04:	400c                	lw	a1,0(s0)
    4f06:	fdf5f593          	andi	a1,a1,-33
    4f0a:	c00c                	sw	a1,0(s0)
    4f0c:	b7a9                	j	4e56 <_printf_i+0x130>
    4f0e:	0405f813          	andi	a6,a1,64
    4f12:	c308                	sw	a0,0(a4)
    4f14:	fe0800e3          	beqz	a6,4ef4 <_printf_i+0x1ce>
    4f18:	07c2                	slli	a5,a5,0x10
    4f1a:	83c1                	srli	a5,a5,0x10
    4f1c:	bfe1                	j	4ef4 <_printf_i+0x1ce>
    4f1e:	00001697          	auipc	a3,0x1
    4f22:	33268693          	addi	a3,a3,818 # 6250 <UARTN+0x64>
    4f26:	4721                	li	a4,8
    4f28:	b73d                	j	4e56 <_printf_i+0x130>
    4f2a:	87ae                	mv	a5,a1
    4f2c:	b791                	j	4e70 <_printf_i+0x14a>
    4f2e:	4194                	lw	a3,0(a1)
    4f30:	431c                	lw	a5,0(a4)
    4f32:	49cc                	lw	a1,20(a1)
    4f34:	0806f813          	andi	a6,a3,128
    4f38:	00478513          	addi	a0,a5,4
    4f3c:	00080663          	beqz	a6,4f48 <_printf_i+0x222>
    4f40:	c308                	sw	a0,0(a4)
    4f42:	439c                	lw	a5,0(a5)
    4f44:	c38c                	sw	a1,0(a5)
    4f46:	a801                	j	4f56 <_printf_i+0x230>
    4f48:	c308                	sw	a0,0(a4)
    4f4a:	0406f693          	andi	a3,a3,64
    4f4e:	439c                	lw	a5,0(a5)
    4f50:	daf5                	beqz	a3,4f44 <_printf_i+0x21e>
    4f52:	00b79023          	sh	a1,0(a5)
    4f56:	00042823          	sw	zero,16(s0)
    4f5a:	8ab2                	mv	s5,a2
    4f5c:	bf81                	j	4eac <_printf_i+0x186>
    4f5e:	431c                	lw	a5,0(a4)
    4f60:	41d0                	lw	a2,4(a1)
    4f62:	4581                	li	a1,0
    4f64:	00478693          	addi	a3,a5,4
    4f68:	c314                	sw	a3,0(a4)
    4f6a:	0007aa83          	lw	s5,0(a5)
    4f6e:	8556                	mv	a0,s5
    4f70:	2dfd                	jal	566e <memchr>
    4f72:	c501                	beqz	a0,4f7a <_printf_i+0x254>
    4f74:	41550533          	sub	a0,a0,s5
    4f78:	c048                	sw	a0,4(s0)
    4f7a:	405c                	lw	a5,4(s0)
    4f7c:	c81c                	sw	a5,16(s0)
    4f7e:	040401a3          	sb	zero,67(s0)
    4f82:	b72d                	j	4eac <_printf_i+0x186>
    4f84:	4814                	lw	a3,16(s0)
    4f86:	8656                	mv	a2,s5
    4f88:	85ca                	mv	a1,s2
    4f8a:	8526                	mv	a0,s1
    4f8c:	9982                	jalr	s3
    4f8e:	f34509e3          	beq	a0,s4,4ec0 <_printf_i+0x19a>
    4f92:	401c                	lw	a5,0(s0)
    4f94:	8b89                	andi	a5,a5,2
    4f96:	e78d                	bnez	a5,4fc0 <_printf_i+0x29a>
    4f98:	47b2                	lw	a5,12(sp)
    4f9a:	4448                	lw	a0,12(s0)
    4f9c:	f2f553e3          	bge	a0,a5,4ec2 <_printf_i+0x19c>
    4fa0:	853e                	mv	a0,a5
    4fa2:	b705                	j	4ec2 <_printf_i+0x19c>
    4fa4:	4685                	li	a3,1
    4fa6:	8656                	mv	a2,s5
    4fa8:	85ca                	mv	a1,s2
    4faa:	8526                	mv	a0,s1
    4fac:	9982                	jalr	s3
    4fae:	f16509e3          	beq	a0,s6,4ec0 <_printf_i+0x19a>
    4fb2:	0a05                	addi	s4,s4,1
    4fb4:	445c                	lw	a5,12(s0)
    4fb6:	4732                	lw	a4,12(sp)
    4fb8:	8f99                	sub	a5,a5,a4
    4fba:	fefa45e3          	blt	s4,a5,4fa4 <_printf_i+0x27e>
    4fbe:	bfe9                	j	4f98 <_printf_i+0x272>
    4fc0:	4a01                	li	s4,0
    4fc2:	01940a93          	addi	s5,s0,25
    4fc6:	5b7d                	li	s6,-1
    4fc8:	b7f5                	j	4fb4 <_printf_i+0x28e>

00004fca <__swbuf_r>:
__swbuf_r():
    4fca:	1101                	addi	sp,sp,-32
    4fcc:	cc22                	sw	s0,24(sp)
    4fce:	ca26                	sw	s1,20(sp)
    4fd0:	c84a                	sw	s2,16(sp)
    4fd2:	ce06                	sw	ra,28(sp)
    4fd4:	c64e                	sw	s3,12(sp)
    4fd6:	84aa                	mv	s1,a0
    4fd8:	892e                	mv	s2,a1
    4fda:	8432                	mv	s0,a2
    4fdc:	c501                	beqz	a0,4fe4 <__swbuf_r+0x1a>
    4fde:	4d1c                	lw	a5,24(a0)
    4fe0:	e391                	bnez	a5,4fe4 <__swbuf_r+0x1a>
    4fe2:	2939                	jal	5400 <__sinit>
    4fe4:	00001797          	auipc	a5,0x1
    4fe8:	2b478793          	addi	a5,a5,692 # 6298 <__sf_fake_stdin>
    4fec:	06f41963          	bne	s0,a5,505e <__swbuf_r+0x94>
    4ff0:	40c0                	lw	s0,4(s1)
    4ff2:	4c1c                	lw	a5,24(s0)
    4ff4:	c41c                	sw	a5,8(s0)
    4ff6:	00c45783          	lhu	a5,12(s0)
    4ffa:	8ba1                	andi	a5,a5,8
    4ffc:	c3c9                	beqz	a5,507e <__swbuf_r+0xb4>
    4ffe:	481c                	lw	a5,16(s0)
    5000:	cfbd                	beqz	a5,507e <__swbuf_r+0xb4>
    5002:	481c                	lw	a5,16(s0)
    5004:	4008                	lw	a0,0(s0)
    5006:	0ff97993          	andi	s3,s2,255
    500a:	0ff97913          	andi	s2,s2,255
    500e:	8d1d                	sub	a0,a0,a5
    5010:	485c                	lw	a5,20(s0)
    5012:	00f54663          	blt	a0,a5,501e <__swbuf_r+0x54>
    5016:	85a2                	mv	a1,s0
    5018:	8526                	mv	a0,s1
    501a:	24d9                	jal	52e0 <_fflush_r>
    501c:	e52d                	bnez	a0,5086 <__swbuf_r+0xbc>
    501e:	441c                	lw	a5,8(s0)
    5020:	0505                	addi	a0,a0,1
    5022:	17fd                	addi	a5,a5,-1
    5024:	c41c                	sw	a5,8(s0)
    5026:	401c                	lw	a5,0(s0)
    5028:	00178713          	addi	a4,a5,1
    502c:	c018                	sw	a4,0(s0)
    502e:	01378023          	sb	s3,0(a5)
    5032:	485c                	lw	a5,20(s0)
    5034:	00a78963          	beq	a5,a0,5046 <__swbuf_r+0x7c>
    5038:	00c45783          	lhu	a5,12(s0)
    503c:	8b85                	andi	a5,a5,1
    503e:	cb81                	beqz	a5,504e <__swbuf_r+0x84>
    5040:	47a9                	li	a5,10
    5042:	00f91663          	bne	s2,a5,504e <__swbuf_r+0x84>
    5046:	85a2                	mv	a1,s0
    5048:	8526                	mv	a0,s1
    504a:	2c59                	jal	52e0 <_fflush_r>
    504c:	ed0d                	bnez	a0,5086 <__swbuf_r+0xbc>
    504e:	40f2                	lw	ra,28(sp)
    5050:	4462                	lw	s0,24(sp)
    5052:	854a                	mv	a0,s2
    5054:	44d2                	lw	s1,20(sp)
    5056:	4942                	lw	s2,16(sp)
    5058:	49b2                	lw	s3,12(sp)
    505a:	6105                	addi	sp,sp,32
    505c:	8082                	ret
    505e:	00001797          	auipc	a5,0x1
    5062:	25a78793          	addi	a5,a5,602 # 62b8 <__sf_fake_stdout>
    5066:	00f41463          	bne	s0,a5,506e <__swbuf_r+0xa4>
    506a:	4480                	lw	s0,8(s1)
    506c:	b759                	j	4ff2 <__swbuf_r+0x28>
    506e:	00001797          	auipc	a5,0x1
    5072:	20a78793          	addi	a5,a5,522 # 6278 <__sf_fake_stderr>
    5076:	f6f41ee3          	bne	s0,a5,4ff2 <__swbuf_r+0x28>
    507a:	44c0                	lw	s0,12(s1)
    507c:	bf9d                	j	4ff2 <__swbuf_r+0x28>
    507e:	85a2                	mv	a1,s0
    5080:	8526                	mv	a0,s1
    5082:	2021                	jal	508a <__swsetup_r>
    5084:	dd3d                	beqz	a0,5002 <__swbuf_r+0x38>
    5086:	597d                	li	s2,-1
    5088:	b7d9                	j	504e <__swbuf_r+0x84>

0000508a <__swsetup_r>:
__swsetup_r():
    508a:	1141                	addi	sp,sp,-16
    508c:	81018793          	addi	a5,gp,-2032 # 20000128 <_impure_ptr>
    5090:	c226                	sw	s1,4(sp)
    5092:	4384                	lw	s1,0(a5)
    5094:	c422                	sw	s0,8(sp)
    5096:	c04a                	sw	s2,0(sp)
    5098:	c606                	sw	ra,12(sp)
    509a:	892a                	mv	s2,a0
    509c:	842e                	mv	s0,a1
    509e:	c489                	beqz	s1,50a8 <__swsetup_r+0x1e>
    50a0:	4c9c                	lw	a5,24(s1)
    50a2:	e399                	bnez	a5,50a8 <__swsetup_r+0x1e>
    50a4:	8526                	mv	a0,s1
    50a6:	2ea9                	jal	5400 <__sinit>
    50a8:	00001797          	auipc	a5,0x1
    50ac:	1f078793          	addi	a5,a5,496 # 6298 <__sf_fake_stdin>
    50b0:	02f41c63          	bne	s0,a5,50e8 <__swsetup_r+0x5e>
    50b4:	40c0                	lw	s0,4(s1)
    50b6:	00c41703          	lh	a4,12(s0)
    50ba:	01071793          	slli	a5,a4,0x10
    50be:	83c1                	srli	a5,a5,0x10
    50c0:	0087f693          	andi	a3,a5,8
    50c4:	eeb5                	bnez	a3,5140 <__swsetup_r+0xb6>
    50c6:	0107f693          	andi	a3,a5,16
    50ca:	ee9d                	bnez	a3,5108 <__swsetup_r+0x7e>
    50cc:	47a5                	li	a5,9
    50ce:	00f92023          	sw	a5,0(s2)
    50d2:	04076713          	ori	a4,a4,64
    50d6:	00e41623          	sh	a4,12(s0)
    50da:	557d                	li	a0,-1
    50dc:	40b2                	lw	ra,12(sp)
    50de:	4422                	lw	s0,8(sp)
    50e0:	4492                	lw	s1,4(sp)
    50e2:	4902                	lw	s2,0(sp)
    50e4:	0141                	addi	sp,sp,16
    50e6:	8082                	ret
    50e8:	00001797          	auipc	a5,0x1
    50ec:	1d078793          	addi	a5,a5,464 # 62b8 <__sf_fake_stdout>
    50f0:	00f41463          	bne	s0,a5,50f8 <__swsetup_r+0x6e>
    50f4:	4480                	lw	s0,8(s1)
    50f6:	b7c1                	j	50b6 <__swsetup_r+0x2c>
    50f8:	00001797          	auipc	a5,0x1
    50fc:	18078793          	addi	a5,a5,384 # 6278 <__sf_fake_stderr>
    5100:	faf41be3          	bne	s0,a5,50b6 <__swsetup_r+0x2c>
    5104:	44c0                	lw	s0,12(s1)
    5106:	bf45                	j	50b6 <__swsetup_r+0x2c>
    5108:	8b91                	andi	a5,a5,4
    510a:	c78d                	beqz	a5,5134 <__swsetup_r+0xaa>
    510c:	584c                	lw	a1,52(s0)
    510e:	c989                	beqz	a1,5120 <__swsetup_r+0x96>
    5110:	04440793          	addi	a5,s0,68
    5114:	00f58463          	beq	a1,a5,511c <__swsetup_r+0x92>
    5118:	854a                	mv	a0,s2
    511a:	23bd                	jal	5688 <_free_r>
    511c:	02042a23          	sw	zero,52(s0)
    5120:	00c45783          	lhu	a5,12(s0)
    5124:	00042223          	sw	zero,4(s0)
    5128:	fdb7f793          	andi	a5,a5,-37
    512c:	00f41623          	sh	a5,12(s0)
    5130:	481c                	lw	a5,16(s0)
    5132:	c01c                	sw	a5,0(s0)
    5134:	00c45783          	lhu	a5,12(s0)
    5138:	0087e793          	ori	a5,a5,8
    513c:	00f41623          	sh	a5,12(s0)
    5140:	481c                	lw	a5,16(s0)
    5142:	ef81                	bnez	a5,515a <__swsetup_r+0xd0>
    5144:	00c45783          	lhu	a5,12(s0)
    5148:	20000713          	li	a4,512
    514c:	2807f793          	andi	a5,a5,640
    5150:	00e78563          	beq	a5,a4,515a <__swsetup_r+0xd0>
    5154:	85a2                	mv	a1,s0
    5156:	854a                	mv	a0,s2
    5158:	29a5                	jal	55d0 <__smakebuf_r>
    515a:	00c45783          	lhu	a5,12(s0)
    515e:	0017f713          	andi	a4,a5,1
    5162:	c705                	beqz	a4,518a <__swsetup_r+0x100>
    5164:	485c                	lw	a5,20(s0)
    5166:	00042423          	sw	zero,8(s0)
    516a:	40f007b3          	neg	a5,a5
    516e:	cc1c                	sw	a5,24(s0)
    5170:	481c                	lw	a5,16(s0)
    5172:	4501                	li	a0,0
    5174:	f7a5                	bnez	a5,50dc <__swsetup_r+0x52>
    5176:	00c41783          	lh	a5,12(s0)
    517a:	0807f713          	andi	a4,a5,128
    517e:	df39                	beqz	a4,50dc <__swsetup_r+0x52>
    5180:	0407e793          	ori	a5,a5,64
    5184:	00f41623          	sh	a5,12(s0)
    5188:	bf89                	j	50da <__swsetup_r+0x50>
    518a:	8b89                	andi	a5,a5,2
    518c:	4701                	li	a4,0
    518e:	e391                	bnez	a5,5192 <__swsetup_r+0x108>
    5190:	4858                	lw	a4,20(s0)
    5192:	c418                	sw	a4,8(s0)
    5194:	bff1                	j	5170 <__swsetup_r+0xe6>

00005196 <abort>:
abort():
    5196:	1141                	addi	sp,sp,-16
    5198:	4519                	li	a0,6
    519a:	c606                	sw	ra,12(sp)
    519c:	2dc5                	jal	588c <raise>
    519e:	4505                	li	a0,1
    51a0:	1af000ef          	jal	ra,5b4e <_exit>

000051a4 <__sflush_r>:
__sflush_r():
    51a4:	00c5d783          	lhu	a5,12(a1)
    51a8:	1101                	addi	sp,sp,-32
    51aa:	cc22                	sw	s0,24(sp)
    51ac:	ca26                	sw	s1,20(sp)
    51ae:	ce06                	sw	ra,28(sp)
    51b0:	c84a                	sw	s2,16(sp)
    51b2:	c64e                	sw	s3,12(sp)
    51b4:	0087f713          	andi	a4,a5,8
    51b8:	84aa                	mv	s1,a0
    51ba:	842e                	mv	s0,a1
    51bc:	ef71                	bnez	a4,5298 <__sflush_r+0xf4>
    51be:	41d8                	lw	a4,4(a1)
    51c0:	00e04d63          	bgtz	a4,51da <__sflush_r+0x36>
    51c4:	41b8                	lw	a4,64(a1)
    51c6:	00e04a63          	bgtz	a4,51da <__sflush_r+0x36>
    51ca:	4501                	li	a0,0
    51cc:	40f2                	lw	ra,28(sp)
    51ce:	4462                	lw	s0,24(sp)
    51d0:	44d2                	lw	s1,20(sp)
    51d2:	4942                	lw	s2,16(sp)
    51d4:	49b2                	lw	s3,12(sp)
    51d6:	6105                	addi	sp,sp,32
    51d8:	8082                	ret
    51da:	5458                	lw	a4,44(s0)
    51dc:	d77d                	beqz	a4,51ca <__sflush_r+0x26>
    51de:	0004a903          	lw	s2,0(s1)
    51e2:	01379693          	slli	a3,a5,0x13
    51e6:	0004a023          	sw	zero,0(s1)
    51ea:	0606dd63          	bgez	a3,5264 <__sflush_r+0xc0>
    51ee:	4870                	lw	a2,84(s0)
    51f0:	00c45783          	lhu	a5,12(s0)
    51f4:	8b91                	andi	a5,a5,4
    51f6:	c799                	beqz	a5,5204 <__sflush_r+0x60>
    51f8:	405c                	lw	a5,4(s0)
    51fa:	8e1d                	sub	a2,a2,a5
    51fc:	585c                	lw	a5,52(s0)
    51fe:	c399                	beqz	a5,5204 <__sflush_r+0x60>
    5200:	403c                	lw	a5,64(s0)
    5202:	8e1d                	sub	a2,a2,a5
    5204:	545c                	lw	a5,44(s0)
    5206:	500c                	lw	a1,32(s0)
    5208:	4681                	li	a3,0
    520a:	8526                	mv	a0,s1
    520c:	9782                	jalr	a5
    520e:	57fd                	li	a5,-1
    5210:	00c45703          	lhu	a4,12(s0)
    5214:	00f51d63          	bne	a0,a5,522e <__sflush_r+0x8a>
    5218:	4094                	lw	a3,0(s1)
    521a:	47f5                	li	a5,29
    521c:	06d7e863          	bltu	a5,a3,528c <__sflush_r+0xe8>
    5220:	204007b7          	lui	a5,0x20400
    5224:	0785                	addi	a5,a5,1
    5226:	00d7d7b3          	srl	a5,a5,a3
    522a:	8b85                	andi	a5,a5,1
    522c:	c3a5                	beqz	a5,528c <__sflush_r+0xe8>
    522e:	481c                	lw	a5,16(s0)
    5230:	00042223          	sw	zero,4(s0)
    5234:	c01c                	sw	a5,0(s0)
    5236:	01371793          	slli	a5,a4,0x13
    523a:	0007d863          	bgez	a5,524a <__sflush_r+0xa6>
    523e:	57fd                	li	a5,-1
    5240:	00f51463          	bne	a0,a5,5248 <__sflush_r+0xa4>
    5244:	409c                	lw	a5,0(s1)
    5246:	e391                	bnez	a5,524a <__sflush_r+0xa6>
    5248:	c868                	sw	a0,84(s0)
    524a:	584c                	lw	a1,52(s0)
    524c:	0124a023          	sw	s2,0(s1)
    5250:	ddad                	beqz	a1,51ca <__sflush_r+0x26>
    5252:	04440793          	addi	a5,s0,68
    5256:	00f58463          	beq	a1,a5,525e <__sflush_r+0xba>
    525a:	8526                	mv	a0,s1
    525c:	2135                	jal	5688 <_free_r>
    525e:	02042a23          	sw	zero,52(s0)
    5262:	b7a5                	j	51ca <__sflush_r+0x26>
    5264:	500c                	lw	a1,32(s0)
    5266:	4601                	li	a2,0
    5268:	4685                	li	a3,1
    526a:	8526                	mv	a0,s1
    526c:	9702                	jalr	a4
    526e:	57fd                	li	a5,-1
    5270:	862a                	mv	a2,a0
    5272:	f6f51fe3          	bne	a0,a5,51f0 <__sflush_r+0x4c>
    5276:	409c                	lw	a5,0(s1)
    5278:	dfa5                	beqz	a5,51f0 <__sflush_r+0x4c>
    527a:	4775                	li	a4,29
    527c:	00e78563          	beq	a5,a4,5286 <__sflush_r+0xe2>
    5280:	4759                	li	a4,22
    5282:	04e79463          	bne	a5,a4,52ca <__sflush_r+0x126>
    5286:	0124a023          	sw	s2,0(s1)
    528a:	b781                	j	51ca <__sflush_r+0x26>
    528c:	04076713          	ori	a4,a4,64
    5290:	00e41623          	sh	a4,12(s0)
    5294:	557d                	li	a0,-1
    5296:	bf1d                	j	51cc <__sflush_r+0x28>
    5298:	0105a983          	lw	s3,16(a1)
    529c:	f20987e3          	beqz	s3,51ca <__sflush_r+0x26>
    52a0:	0005a903          	lw	s2,0(a1)
    52a4:	8b8d                	andi	a5,a5,3
    52a6:	0135a023          	sw	s3,0(a1)
    52aa:	41390933          	sub	s2,s2,s3
    52ae:	4701                	li	a4,0
    52b0:	e391                	bnez	a5,52b4 <__sflush_r+0x110>
    52b2:	49d8                	lw	a4,20(a1)
    52b4:	c418                	sw	a4,8(s0)
    52b6:	f1205ae3          	blez	s2,51ca <__sflush_r+0x26>
    52ba:	541c                	lw	a5,40(s0)
    52bc:	500c                	lw	a1,32(s0)
    52be:	86ca                	mv	a3,s2
    52c0:	864e                	mv	a2,s3
    52c2:	8526                	mv	a0,s1
    52c4:	9782                	jalr	a5
    52c6:	00a04963          	bgtz	a0,52d8 <__sflush_r+0x134>
    52ca:	00c45783          	lhu	a5,12(s0)
    52ce:	0407e793          	ori	a5,a5,64
    52d2:	00f41623          	sh	a5,12(s0)
    52d6:	bf7d                	j	5294 <__sflush_r+0xf0>
    52d8:	99aa                	add	s3,s3,a0
    52da:	40a90933          	sub	s2,s2,a0
    52de:	bfe1                	j	52b6 <__sflush_r+0x112>

000052e0 <_fflush_r>:
_fflush_r():
    52e0:	499c                	lw	a5,16(a1)
    52e2:	c3a5                	beqz	a5,5342 <_fflush_r+0x62>
    52e4:	1101                	addi	sp,sp,-32
    52e6:	cc22                	sw	s0,24(sp)
    52e8:	ce06                	sw	ra,28(sp)
    52ea:	842a                	mv	s0,a0
    52ec:	c511                	beqz	a0,52f8 <_fflush_r+0x18>
    52ee:	4d1c                	lw	a5,24(a0)
    52f0:	e781                	bnez	a5,52f8 <_fflush_r+0x18>
    52f2:	c62e                	sw	a1,12(sp)
    52f4:	2231                	jal	5400 <__sinit>
    52f6:	45b2                	lw	a1,12(sp)
    52f8:	00001797          	auipc	a5,0x1
    52fc:	fa078793          	addi	a5,a5,-96 # 6298 <__sf_fake_stdin>
    5300:	00f59c63          	bne	a1,a5,5318 <_fflush_r+0x38>
    5304:	404c                	lw	a1,4(s0)
    5306:	00c59783          	lh	a5,12(a1)
    530a:	c79d                	beqz	a5,5338 <_fflush_r+0x58>
    530c:	8522                	mv	a0,s0
    530e:	4462                	lw	s0,24(sp)
    5310:	40f2                	lw	ra,28(sp)
    5312:	6105                	addi	sp,sp,32
    5314:	e91ff06f          	j	51a4 <__sflush_r>
    5318:	00001797          	auipc	a5,0x1
    531c:	fa078793          	addi	a5,a5,-96 # 62b8 <__sf_fake_stdout>
    5320:	00f59463          	bne	a1,a5,5328 <_fflush_r+0x48>
    5324:	440c                	lw	a1,8(s0)
    5326:	b7c5                	j	5306 <_fflush_r+0x26>
    5328:	00001797          	auipc	a5,0x1
    532c:	f5078793          	addi	a5,a5,-176 # 6278 <__sf_fake_stderr>
    5330:	fcf59be3          	bne	a1,a5,5306 <_fflush_r+0x26>
    5334:	444c                	lw	a1,12(s0)
    5336:	bfc1                	j	5306 <_fflush_r+0x26>
    5338:	40f2                	lw	ra,28(sp)
    533a:	4462                	lw	s0,24(sp)
    533c:	4501                	li	a0,0
    533e:	6105                	addi	sp,sp,32
    5340:	8082                	ret
    5342:	4501                	li	a0,0
    5344:	8082                	ret

00005346 <std>:
std():
    5346:	1141                	addi	sp,sp,-16
    5348:	c422                	sw	s0,8(sp)
    534a:	c606                	sw	ra,12(sp)
    534c:	842a                	mv	s0,a0
    534e:	00b51623          	sh	a1,12(a0)
    5352:	00c51723          	sh	a2,14(a0)
    5356:	00052023          	sw	zero,0(a0)
    535a:	00052223          	sw	zero,4(a0)
    535e:	00052423          	sw	zero,8(a0)
    5362:	06052223          	sw	zero,100(a0)
    5366:	00052823          	sw	zero,16(a0)
    536a:	00052a23          	sw	zero,20(a0)
    536e:	00052c23          	sw	zero,24(a0)
    5372:	4621                	li	a2,8
    5374:	4581                	li	a1,0
    5376:	05c50513          	addi	a0,a0,92
    537a:	dc7fa0ef          	jal	ra,140 <memset>
    537e:	00000797          	auipc	a5,0x0
    5382:	54e78793          	addi	a5,a5,1358 # 58cc <__sread>
    5386:	d05c                	sw	a5,36(s0)
    5388:	00000797          	auipc	a5,0x0
    538c:	57478793          	addi	a5,a5,1396 # 58fc <__swrite>
    5390:	d41c                	sw	a5,40(s0)
    5392:	00000797          	auipc	a5,0x0
    5396:	5b878793          	addi	a5,a5,1464 # 594a <__sseek>
    539a:	d45c                	sw	a5,44(s0)
    539c:	00000797          	auipc	a5,0x0
    53a0:	5e478793          	addi	a5,a5,1508 # 5980 <__sclose>
    53a4:	d000                	sw	s0,32(s0)
    53a6:	d81c                	sw	a5,48(s0)
    53a8:	40b2                	lw	ra,12(sp)
    53aa:	4422                	lw	s0,8(sp)
    53ac:	0141                	addi	sp,sp,16
    53ae:	8082                	ret

000053b0 <_cleanup_r>:
_cleanup_r():
    53b0:	00000597          	auipc	a1,0x0
    53b4:	f3058593          	addi	a1,a1,-208 # 52e0 <_fflush_r>
    53b8:	aa91                	j	550c <_fwalk_reent>

000053ba <__sfmoreglue>:
__sfmoreglue():
    53ba:	1141                	addi	sp,sp,-16
    53bc:	c226                	sw	s1,4(sp)
    53be:	06800613          	li	a2,104
    53c2:	fff58493          	addi	s1,a1,-1
    53c6:	02c484b3          	mul	s1,s1,a2
    53ca:	c04a                	sw	s2,0(sp)
    53cc:	892e                	mv	s2,a1
    53ce:	c422                	sw	s0,8(sp)
    53d0:	c606                	sw	ra,12(sp)
    53d2:	07448593          	addi	a1,s1,116
    53d6:	2e99                	jal	572c <_malloc_r>
    53d8:	842a                	mv	s0,a0
    53da:	cd01                	beqz	a0,53f2 <__sfmoreglue+0x38>
    53dc:	00052023          	sw	zero,0(a0)
    53e0:	01252223          	sw	s2,4(a0)
    53e4:	0531                	addi	a0,a0,12
    53e6:	c408                	sw	a0,8(s0)
    53e8:	06848613          	addi	a2,s1,104
    53ec:	4581                	li	a1,0
    53ee:	d53fa0ef          	jal	ra,140 <memset>
    53f2:	8522                	mv	a0,s0
    53f4:	40b2                	lw	ra,12(sp)
    53f6:	4422                	lw	s0,8(sp)
    53f8:	4492                	lw	s1,4(sp)
    53fa:	4902                	lw	s2,0(sp)
    53fc:	0141                	addi	sp,sp,16
    53fe:	8082                	ret

00005400 <__sinit>:
__sinit():
    5400:	4d1c                	lw	a5,24(a0)
    5402:	e7a5                	bnez	a5,546a <__sinit+0x6a>
    5404:	1141                	addi	sp,sp,-16
    5406:	c606                	sw	ra,12(sp)
    5408:	c422                	sw	s0,8(sp)
    540a:	00000797          	auipc	a5,0x0
    540e:	fa678793          	addi	a5,a5,-90 # 53b0 <_cleanup_r>
    5412:	d51c                	sw	a5,40(a0)
    5414:	81c18793          	addi	a5,gp,-2020 # 20000134 <_global_impure_ptr>
    5418:	439c                	lw	a5,0(a5)
    541a:	04052423          	sw	zero,72(a0)
    541e:	04052623          	sw	zero,76(a0)
    5422:	04052823          	sw	zero,80(a0)
    5426:	00f51463          	bne	a0,a5,542e <__sinit+0x2e>
    542a:	4785                	li	a5,1
    542c:	cd1c                	sw	a5,24(a0)
    542e:	842a                	mv	s0,a0
    5430:	2835                	jal	546c <__sfp>
    5432:	c048                	sw	a0,4(s0)
    5434:	8522                	mv	a0,s0
    5436:	281d                	jal	546c <__sfp>
    5438:	c408                	sw	a0,8(s0)
    543a:	8522                	mv	a0,s0
    543c:	2805                	jal	546c <__sfp>
    543e:	c448                	sw	a0,12(s0)
    5440:	4048                	lw	a0,4(s0)
    5442:	4601                	li	a2,0
    5444:	4591                	li	a1,4
    5446:	f01ff0ef          	jal	ra,5346 <std>
    544a:	4408                	lw	a0,8(s0)
    544c:	4605                	li	a2,1
    544e:	45a5                	li	a1,9
    5450:	ef7ff0ef          	jal	ra,5346 <std>
    5454:	4448                	lw	a0,12(s0)
    5456:	4609                	li	a2,2
    5458:	45c9                	li	a1,18
    545a:	eedff0ef          	jal	ra,5346 <std>
    545e:	4785                	li	a5,1
    5460:	cc1c                	sw	a5,24(s0)
    5462:	40b2                	lw	ra,12(sp)
    5464:	4422                	lw	s0,8(sp)
    5466:	0141                	addi	sp,sp,16
    5468:	8082                	ret
    546a:	8082                	ret

0000546c <__sfp>:
__sfp():
    546c:	1141                	addi	sp,sp,-16
    546e:	81c18793          	addi	a5,gp,-2020 # 20000134 <_global_impure_ptr>
    5472:	c226                	sw	s1,4(sp)
    5474:	4384                	lw	s1,0(a5)
    5476:	c04a                	sw	s2,0(sp)
    5478:	c606                	sw	ra,12(sp)
    547a:	4c9c                	lw	a5,24(s1)
    547c:	c422                	sw	s0,8(sp)
    547e:	892a                	mv	s2,a0
    5480:	e781                	bnez	a5,5488 <__sfp+0x1c>
    5482:	8526                	mv	a0,s1
    5484:	f7dff0ef          	jal	ra,5400 <__sinit>
    5488:	04848493          	addi	s1,s1,72
    548c:	4480                	lw	s0,8(s1)
    548e:	40dc                	lw	a5,4(s1)
    5490:	17fd                	addi	a5,a5,-1
    5492:	0007d663          	bgez	a5,549e <__sfp+0x32>
    5496:	409c                	lw	a5,0(s1)
    5498:	cfb9                	beqz	a5,54f6 <__sfp+0x8a>
    549a:	4084                	lw	s1,0(s1)
    549c:	bfc5                	j	548c <__sfp+0x20>
    549e:	00c41703          	lh	a4,12(s0)
    54a2:	e739                	bnez	a4,54f0 <__sfp+0x84>
    54a4:	77c1                	lui	a5,0xffff0
    54a6:	0785                	addi	a5,a5,1
    54a8:	06042223          	sw	zero,100(s0)
    54ac:	00042023          	sw	zero,0(s0)
    54b0:	00042223          	sw	zero,4(s0)
    54b4:	00042423          	sw	zero,8(s0)
    54b8:	c45c                	sw	a5,12(s0)
    54ba:	00042823          	sw	zero,16(s0)
    54be:	00042a23          	sw	zero,20(s0)
    54c2:	00042c23          	sw	zero,24(s0)
    54c6:	4621                	li	a2,8
    54c8:	4581                	li	a1,0
    54ca:	05c40513          	addi	a0,s0,92
    54ce:	c73fa0ef          	jal	ra,140 <memset>
    54d2:	02042a23          	sw	zero,52(s0)
    54d6:	02042c23          	sw	zero,56(s0)
    54da:	04042423          	sw	zero,72(s0)
    54de:	04042623          	sw	zero,76(s0)
    54e2:	8522                	mv	a0,s0
    54e4:	40b2                	lw	ra,12(sp)
    54e6:	4422                	lw	s0,8(sp)
    54e8:	4492                	lw	s1,4(sp)
    54ea:	4902                	lw	s2,0(sp)
    54ec:	0141                	addi	sp,sp,16
    54ee:	8082                	ret
    54f0:	06840413          	addi	s0,s0,104
    54f4:	bf71                	j	5490 <__sfp+0x24>
    54f6:	4591                	li	a1,4
    54f8:	854a                	mv	a0,s2
    54fa:	ec1ff0ef          	jal	ra,53ba <__sfmoreglue>
    54fe:	c088                	sw	a0,0(s1)
    5500:	fd49                	bnez	a0,549a <__sfp+0x2e>
    5502:	47b1                	li	a5,12
    5504:	00f92023          	sw	a5,0(s2)
    5508:	4401                	li	s0,0
    550a:	bfe1                	j	54e2 <__sfp+0x76>

0000550c <_fwalk_reent>:
_fwalk_reent():
    550c:	7179                	addi	sp,sp,-48
    550e:	d422                	sw	s0,40(sp)
    5510:	d04a                	sw	s2,32(sp)
    5512:	cc52                	sw	s4,24(sp)
    5514:	ca56                	sw	s5,20(sp)
    5516:	c85a                	sw	s6,16(sp)
    5518:	c65e                	sw	s7,12(sp)
    551a:	d606                	sw	ra,44(sp)
    551c:	d226                	sw	s1,36(sp)
    551e:	ce4e                	sw	s3,28(sp)
    5520:	8a2a                	mv	s4,a0
    5522:	8aae                	mv	s5,a1
    5524:	04850413          	addi	s0,a0,72
    5528:	4901                	li	s2,0
    552a:	4b05                	li	s6,1
    552c:	5bfd                	li	s7,-1
    552e:	ec09                	bnez	s0,5548 <_fwalk_reent+0x3c>
    5530:	50b2                	lw	ra,44(sp)
    5532:	5422                	lw	s0,40(sp)
    5534:	854a                	mv	a0,s2
    5536:	5492                	lw	s1,36(sp)
    5538:	5902                	lw	s2,32(sp)
    553a:	49f2                	lw	s3,28(sp)
    553c:	4a62                	lw	s4,24(sp)
    553e:	4ad2                	lw	s5,20(sp)
    5540:	4b42                	lw	s6,16(sp)
    5542:	4bb2                	lw	s7,12(sp)
    5544:	6145                	addi	sp,sp,48
    5546:	8082                	ret
    5548:	4404                	lw	s1,8(s0)
    554a:	00442983          	lw	s3,4(s0)
    554e:	19fd                	addi	s3,s3,-1
    5550:	0009d463          	bgez	s3,5558 <_fwalk_reent+0x4c>
    5554:	4000                	lw	s0,0(s0)
    5556:	bfe1                	j	552e <_fwalk_reent+0x22>
    5558:	00c4d783          	lhu	a5,12(s1)
    555c:	00fb7b63          	bgeu	s6,a5,5572 <_fwalk_reent+0x66>
    5560:	00e49783          	lh	a5,14(s1)
    5564:	01778763          	beq	a5,s7,5572 <_fwalk_reent+0x66>
    5568:	85a6                	mv	a1,s1
    556a:	8552                	mv	a0,s4
    556c:	9a82                	jalr	s5
    556e:	00a96933          	or	s2,s2,a0
    5572:	06848493          	addi	s1,s1,104
    5576:	bfe1                	j	554e <_fwalk_reent+0x42>

00005578 <__swhatbuf_r>:
__swhatbuf_r():
    5578:	7119                	addi	sp,sp,-128
    557a:	daa6                	sw	s1,116(sp)
    557c:	84ae                	mv	s1,a1
    557e:	00e59583          	lh	a1,14(a1)
    5582:	dca2                	sw	s0,120(sp)
    5584:	de86                	sw	ra,124(sp)
    5586:	8432                	mv	s0,a2
    5588:	0005dc63          	bgez	a1,55a0 <__swhatbuf_r+0x28>
    558c:	00c4d783          	lhu	a5,12(s1)
    5590:	0006a023          	sw	zero,0(a3)
    5594:	0807f793          	andi	a5,a5,128
    5598:	e39d                	bnez	a5,55be <__swhatbuf_r+0x46>
    559a:	40000793          	li	a5,1024
    559e:	a015                	j	55c2 <__swhatbuf_r+0x4a>
    55a0:	0830                	addi	a2,sp,24
    55a2:	c636                	sw	a3,12(sp)
    55a4:	21a1                	jal	59ec <_fstat_r>
    55a6:	46b2                	lw	a3,12(sp)
    55a8:	fe0542e3          	bltz	a0,558c <__swhatbuf_r+0x14>
    55ac:	4772                	lw	a4,28(sp)
    55ae:	67bd                	lui	a5,0xf
    55b0:	8ff9                	and	a5,a5,a4
    55b2:	7779                	lui	a4,0xffffe
    55b4:	97ba                	add	a5,a5,a4
    55b6:	0017b793          	seqz	a5,a5
    55ba:	c29c                	sw	a5,0(a3)
    55bc:	bff9                	j	559a <__swhatbuf_r+0x22>
    55be:	04000793          	li	a5,64
    55c2:	c01c                	sw	a5,0(s0)
    55c4:	50f6                	lw	ra,124(sp)
    55c6:	5466                	lw	s0,120(sp)
    55c8:	54d6                	lw	s1,116(sp)
    55ca:	4501                	li	a0,0
    55cc:	6109                	addi	sp,sp,128
    55ce:	8082                	ret

000055d0 <__smakebuf_r>:
__smakebuf_r():
    55d0:	00c5d783          	lhu	a5,12(a1)
    55d4:	1101                	addi	sp,sp,-32
    55d6:	cc22                	sw	s0,24(sp)
    55d8:	ce06                	sw	ra,28(sp)
    55da:	ca26                	sw	s1,20(sp)
    55dc:	c84a                	sw	s2,16(sp)
    55de:	8b89                	andi	a5,a5,2
    55e0:	842e                	mv	s0,a1
    55e2:	cf89                	beqz	a5,55fc <__smakebuf_r+0x2c>
    55e4:	04740793          	addi	a5,s0,71
    55e8:	c01c                	sw	a5,0(s0)
    55ea:	c81c                	sw	a5,16(s0)
    55ec:	4785                	li	a5,1
    55ee:	c85c                	sw	a5,20(s0)
    55f0:	40f2                	lw	ra,28(sp)
    55f2:	4462                	lw	s0,24(sp)
    55f4:	44d2                	lw	s1,20(sp)
    55f6:	4942                	lw	s2,16(sp)
    55f8:	6105                	addi	sp,sp,32
    55fa:	8082                	ret
    55fc:	0074                	addi	a3,sp,12
    55fe:	0030                	addi	a2,sp,8
    5600:	84aa                	mv	s1,a0
    5602:	f77ff0ef          	jal	ra,5578 <__swhatbuf_r>
    5606:	45a2                	lw	a1,8(sp)
    5608:	892a                	mv	s2,a0
    560a:	8526                	mv	a0,s1
    560c:	2205                	jal	572c <_malloc_r>
    560e:	ed01                	bnez	a0,5626 <__smakebuf_r+0x56>
    5610:	00c41783          	lh	a5,12(s0)
    5614:	2007f713          	andi	a4,a5,512
    5618:	ff61                	bnez	a4,55f0 <__smakebuf_r+0x20>
    561a:	9bf1                	andi	a5,a5,-4
    561c:	0027e793          	ori	a5,a5,2
    5620:	00f41623          	sh	a5,12(s0)
    5624:	b7c1                	j	55e4 <__smakebuf_r+0x14>
    5626:	00000797          	auipc	a5,0x0
    562a:	d8a78793          	addi	a5,a5,-630 # 53b0 <_cleanup_r>
    562e:	d49c                	sw	a5,40(s1)
    5630:	00c45783          	lhu	a5,12(s0)
    5634:	c008                	sw	a0,0(s0)
    5636:	c808                	sw	a0,16(s0)
    5638:	0807e793          	ori	a5,a5,128
    563c:	00f41623          	sh	a5,12(s0)
    5640:	47a2                	lw	a5,8(sp)
    5642:	c85c                	sw	a5,20(s0)
    5644:	47b2                	lw	a5,12(sp)
    5646:	cf89                	beqz	a5,5660 <__smakebuf_r+0x90>
    5648:	00e41583          	lh	a1,14(s0)
    564c:	8526                	mv	a0,s1
    564e:	2ec1                	jal	5a1e <_isatty_r>
    5650:	c901                	beqz	a0,5660 <__smakebuf_r+0x90>
    5652:	00c45783          	lhu	a5,12(s0)
    5656:	9bf1                	andi	a5,a5,-4
    5658:	0017e793          	ori	a5,a5,1
    565c:	00f41623          	sh	a5,12(s0)
    5660:	00c45783          	lhu	a5,12(s0)
    5664:	00f96933          	or	s2,s2,a5
    5668:	01241623          	sh	s2,12(s0)
    566c:	b751                	j	55f0 <__smakebuf_r+0x20>

0000566e <memchr>:
memchr():
    566e:	0ff5f593          	andi	a1,a1,255
    5672:	962a                	add	a2,a2,a0
    5674:	00c51463          	bne	a0,a2,567c <memchr+0xe>
    5678:	4501                	li	a0,0
    567a:	8082                	ret
    567c:	00054783          	lbu	a5,0(a0)
    5680:	feb78de3          	beq	a5,a1,567a <memchr+0xc>
    5684:	0505                	addi	a0,a0,1
    5686:	b7fd                	j	5674 <memchr+0x6>

00005688 <_free_r>:
_free_r():
    5688:	c1cd                	beqz	a1,572a <_free_r+0xa2>
    568a:	ffc5a783          	lw	a5,-4(a1)
    568e:	1141                	addi	sp,sp,-16
    5690:	c422                	sw	s0,8(sp)
    5692:	c606                	sw	ra,12(sp)
    5694:	c226                	sw	s1,4(sp)
    5696:	ffc58413          	addi	s0,a1,-4
    569a:	0007d363          	bgez	a5,56a0 <_free_r+0x18>
    569e:	943e                	add	s0,s0,a5
    56a0:	84aa                	mv	s1,a0
    56a2:	26c5                	jal	5a82 <__malloc_lock>
    56a4:	84c18793          	addi	a5,gp,-1972 # 20000164 <__malloc_free_list>
    56a8:	439c                	lw	a5,0(a5)
    56aa:	eb99                	bnez	a5,56c0 <_free_r+0x38>
    56ac:	00042223          	sw	zero,4(s0)
    56b0:	8481a623          	sw	s0,-1972(gp) # 20000164 <__malloc_free_list>
    56b4:	4422                	lw	s0,8(sp)
    56b6:	40b2                	lw	ra,12(sp)
    56b8:	8526                	mv	a0,s1
    56ba:	4492                	lw	s1,4(sp)
    56bc:	0141                	addi	sp,sp,16
    56be:	a6d9                	j	5a84 <__malloc_unlock>
    56c0:	00f47e63          	bgeu	s0,a5,56dc <_free_r+0x54>
    56c4:	4014                	lw	a3,0(s0)
    56c6:	00d40733          	add	a4,s0,a3
    56ca:	00e79663          	bne	a5,a4,56d6 <_free_r+0x4e>
    56ce:	4398                	lw	a4,0(a5)
    56d0:	43dc                	lw	a5,4(a5)
    56d2:	9736                	add	a4,a4,a3
    56d4:	c018                	sw	a4,0(s0)
    56d6:	c05c                	sw	a5,4(s0)
    56d8:	bfe1                	j	56b0 <_free_r+0x28>
    56da:	87ba                	mv	a5,a4
    56dc:	43d8                	lw	a4,4(a5)
    56de:	c319                	beqz	a4,56e4 <_free_r+0x5c>
    56e0:	fee47de3          	bgeu	s0,a4,56da <_free_r+0x52>
    56e4:	4394                	lw	a3,0(a5)
    56e6:	00d78633          	add	a2,a5,a3
    56ea:	00861f63          	bne	a2,s0,5708 <_free_r+0x80>
    56ee:	4010                	lw	a2,0(s0)
    56f0:	96b2                	add	a3,a3,a2
    56f2:	c394                	sw	a3,0(a5)
    56f4:	00d78633          	add	a2,a5,a3
    56f8:	fac71ee3          	bne	a4,a2,56b4 <_free_r+0x2c>
    56fc:	4310                	lw	a2,0(a4)
    56fe:	4358                	lw	a4,4(a4)
    5700:	96b2                	add	a3,a3,a2
    5702:	c394                	sw	a3,0(a5)
    5704:	c3d8                	sw	a4,4(a5)
    5706:	b77d                	j	56b4 <_free_r+0x2c>
    5708:	00c47563          	bgeu	s0,a2,5712 <_free_r+0x8a>
    570c:	47b1                	li	a5,12
    570e:	c09c                	sw	a5,0(s1)
    5710:	b755                	j	56b4 <_free_r+0x2c>
    5712:	4010                	lw	a2,0(s0)
    5714:	00c406b3          	add	a3,s0,a2
    5718:	00d71663          	bne	a4,a3,5724 <_free_r+0x9c>
    571c:	4314                	lw	a3,0(a4)
    571e:	4358                	lw	a4,4(a4)
    5720:	96b2                	add	a3,a3,a2
    5722:	c014                	sw	a3,0(s0)
    5724:	c058                	sw	a4,4(s0)
    5726:	c3c0                	sw	s0,4(a5)
    5728:	b771                	j	56b4 <_free_r+0x2c>
    572a:	8082                	ret

0000572c <_malloc_r>:
_malloc_r():
    572c:	1101                	addi	sp,sp,-32
    572e:	ca26                	sw	s1,20(sp)
    5730:	00358493          	addi	s1,a1,3
    5734:	98f1                	andi	s1,s1,-4
    5736:	ce06                	sw	ra,28(sp)
    5738:	cc22                	sw	s0,24(sp)
    573a:	c84a                	sw	s2,16(sp)
    573c:	c64e                	sw	s3,12(sp)
    573e:	04a1                	addi	s1,s1,8
    5740:	47b1                	li	a5,12
    5742:	04f4f163          	bgeu	s1,a5,5784 <_malloc_r+0x58>
    5746:	44b1                	li	s1,12
    5748:	04b4e063          	bltu	s1,a1,5788 <_malloc_r+0x5c>
    574c:	892a                	mv	s2,a0
    574e:	2e15                	jal	5a82 <__malloc_lock>
    5750:	84c18793          	addi	a5,gp,-1972 # 20000164 <__malloc_free_list>
    5754:	4398                	lw	a4,0(a5)
    5756:	843a                	mv	s0,a4
    5758:	e031                	bnez	s0,579c <_malloc_r+0x70>
    575a:	85018793          	addi	a5,gp,-1968 # 20000168 <__malloc_sbrk_start>
    575e:	439c                	lw	a5,0(a5)
    5760:	e791                	bnez	a5,576c <_malloc_r+0x40>
    5762:	4581                	li	a1,0
    5764:	854a                	mv	a0,s2
    5766:	2851                	jal	57fa <_sbrk_r>
    5768:	84a1a823          	sw	a0,-1968(gp) # 20000168 <__malloc_sbrk_start>
    576c:	85a6                	mv	a1,s1
    576e:	854a                	mv	a0,s2
    5770:	2069                	jal	57fa <_sbrk_r>
    5772:	59fd                	li	s3,-1
    5774:	07351763          	bne	a0,s3,57e2 <_malloc_r+0xb6>
    5778:	47b1                	li	a5,12
    577a:	00f92023          	sw	a5,0(s2)
    577e:	854a                	mv	a0,s2
    5780:	2611                	jal	5a84 <__malloc_unlock>
    5782:	a029                	j	578c <_malloc_r+0x60>
    5784:	fc04d2e3          	bgez	s1,5748 <_malloc_r+0x1c>
    5788:	47b1                	li	a5,12
    578a:	c11c                	sw	a5,0(a0)
    578c:	4501                	li	a0,0
    578e:	40f2                	lw	ra,28(sp)
    5790:	4462                	lw	s0,24(sp)
    5792:	44d2                	lw	s1,20(sp)
    5794:	4942                	lw	s2,16(sp)
    5796:	49b2                	lw	s3,12(sp)
    5798:	6105                	addi	sp,sp,32
    579a:	8082                	ret
    579c:	401c                	lw	a5,0(s0)
    579e:	8f85                	sub	a5,a5,s1
    57a0:	0207ce63          	bltz	a5,57dc <_malloc_r+0xb0>
    57a4:	46ad                	li	a3,11
    57a6:	00f6f663          	bgeu	a3,a5,57b2 <_malloc_r+0x86>
    57aa:	c01c                	sw	a5,0(s0)
    57ac:	943e                	add	s0,s0,a5
    57ae:	c004                	sw	s1,0(s0)
    57b0:	a031                	j	57bc <_malloc_r+0x90>
    57b2:	405c                	lw	a5,4(s0)
    57b4:	02871263          	bne	a4,s0,57d8 <_malloc_r+0xac>
    57b8:	84f1a623          	sw	a5,-1972(gp) # 20000164 <__malloc_free_list>
    57bc:	854a                	mv	a0,s2
    57be:	24d9                	jal	5a84 <__malloc_unlock>
    57c0:	00b40513          	addi	a0,s0,11
    57c4:	00440793          	addi	a5,s0,4
    57c8:	9961                	andi	a0,a0,-8
    57ca:	40f50733          	sub	a4,a0,a5
    57ce:	d361                	beqz	a4,578e <_malloc_r+0x62>
    57d0:	943a                	add	s0,s0,a4
    57d2:	8f89                	sub	a5,a5,a0
    57d4:	c01c                	sw	a5,0(s0)
    57d6:	bf65                	j	578e <_malloc_r+0x62>
    57d8:	c35c                	sw	a5,4(a4)
    57da:	b7cd                	j	57bc <_malloc_r+0x90>
    57dc:	8722                	mv	a4,s0
    57de:	4040                	lw	s0,4(s0)
    57e0:	bfa5                	j	5758 <_malloc_r+0x2c>
    57e2:	00350413          	addi	s0,a0,3
    57e6:	9871                	andi	s0,s0,-4
    57e8:	fc8503e3          	beq	a0,s0,57ae <_malloc_r+0x82>
    57ec:	40a405b3          	sub	a1,s0,a0
    57f0:	854a                	mv	a0,s2
    57f2:	2021                	jal	57fa <_sbrk_r>
    57f4:	fb351de3          	bne	a0,s3,57ae <_malloc_r+0x82>
    57f8:	b741                	j	5778 <_malloc_r+0x4c>

000057fa <_sbrk_r>:
_sbrk_r():
    57fa:	1141                	addi	sp,sp,-16
    57fc:	c422                	sw	s0,8(sp)
    57fe:	842a                	mv	s0,a0
    5800:	852e                	mv	a0,a1
    5802:	1fffd797          	auipc	a5,0x1fffd
    5806:	f607a523          	sw	zero,-150(a5) # 2000276c <errno>
    580a:	c606                	sw	ra,12(sp)
    580c:	2e39                	jal	5b2a <_sbrk>
    580e:	57fd                	li	a5,-1
    5810:	00f51963          	bne	a0,a5,5822 <_sbrk_r+0x28>
    5814:	1fffd797          	auipc	a5,0x1fffd
    5818:	f5878793          	addi	a5,a5,-168 # 2000276c <errno>
    581c:	439c                	lw	a5,0(a5)
    581e:	c391                	beqz	a5,5822 <_sbrk_r+0x28>
    5820:	c01c                	sw	a5,0(s0)
    5822:	40b2                	lw	ra,12(sp)
    5824:	4422                	lw	s0,8(sp)
    5826:	0141                	addi	sp,sp,16
    5828:	8082                	ret

0000582a <_raise_r>:
_raise_r():
    582a:	47fd                	li	a5,31
    582c:	00b7f663          	bgeu	a5,a1,5838 <_raise_r+0xe>
    5830:	47d9                	li	a5,22
    5832:	c11c                	sw	a5,0(a0)
    5834:	557d                	li	a0,-1
    5836:	8082                	ret
    5838:	417c                	lw	a5,68(a0)
    583a:	1101                	addi	sp,sp,-32
    583c:	cc22                	sw	s0,24(sp)
    583e:	ce06                	sw	ra,28(sp)
    5840:	862e                	mv	a2,a1
    5842:	842a                	mv	s0,a0
    5844:	c791                	beqz	a5,5850 <_raise_r+0x26>
    5846:	00259713          	slli	a4,a1,0x2
    584a:	97ba                	add	a5,a5,a4
    584c:	4398                	lw	a4,0(a5)
    584e:	eb19                	bnez	a4,5864 <_raise_r+0x3a>
    5850:	8522                	mv	a0,s0
    5852:	c632                	sw	a2,12(sp)
    5854:	289d                	jal	58ca <_getpid_r>
    5856:	85aa                	mv	a1,a0
    5858:	8522                	mv	a0,s0
    585a:	4462                	lw	s0,24(sp)
    585c:	4632                	lw	a2,12(sp)
    585e:	40f2                	lw	ra,28(sp)
    5860:	6105                	addi	sp,sp,32
    5862:	a81d                	j	5898 <_kill_r>
    5864:	4685                	li	a3,1
    5866:	4501                	li	a0,0
    5868:	00d70863          	beq	a4,a3,5878 <_raise_r+0x4e>
    586c:	56fd                	li	a3,-1
    586e:	00d71963          	bne	a4,a3,5880 <_raise_r+0x56>
    5872:	47d9                	li	a5,22
    5874:	c01c                	sw	a5,0(s0)
    5876:	4505                	li	a0,1
    5878:	40f2                	lw	ra,28(sp)
    587a:	4462                	lw	s0,24(sp)
    587c:	6105                	addi	sp,sp,32
    587e:	8082                	ret
    5880:	852e                	mv	a0,a1
    5882:	0007a023          	sw	zero,0(a5)
    5886:	9702                	jalr	a4
    5888:	4501                	li	a0,0
    588a:	b7fd                	j	5878 <_raise_r+0x4e>

0000588c <raise>:
raise():
    588c:	81018793          	addi	a5,gp,-2032 # 20000128 <_impure_ptr>
    5890:	85aa                	mv	a1,a0
    5892:	4388                	lw	a0,0(a5)
    5894:	f97ff06f          	j	582a <_raise_r>

00005898 <_kill_r>:
_kill_r():
    5898:	1141                	addi	sp,sp,-16
    589a:	c422                	sw	s0,8(sp)
    589c:	842a                	mv	s0,a0
    589e:	852e                	mv	a0,a1
    58a0:	85b2                	mv	a1,a2
    58a2:	1fffd797          	auipc	a5,0x1fffd
    58a6:	ec07a523          	sw	zero,-310(a5) # 2000276c <errno>
    58aa:	c606                	sw	ra,12(sp)
    58ac:	24b9                	jal	5afa <_kill>
    58ae:	57fd                	li	a5,-1
    58b0:	00f51963          	bne	a0,a5,58c2 <_kill_r+0x2a>
    58b4:	1fffd797          	auipc	a5,0x1fffd
    58b8:	eb878793          	addi	a5,a5,-328 # 2000276c <errno>
    58bc:	439c                	lw	a5,0(a5)
    58be:	c391                	beqz	a5,58c2 <_kill_r+0x2a>
    58c0:	c01c                	sw	a5,0(s0)
    58c2:	40b2                	lw	ra,12(sp)
    58c4:	4422                	lw	s0,8(sp)
    58c6:	0141                	addi	sp,sp,16
    58c8:	8082                	ret

000058ca <_getpid_r>:
_getpid_r():
    58ca:	ac01                	j	5ada <_getpid>

000058cc <__sread>:
__sread():
    58cc:	1141                	addi	sp,sp,-16
    58ce:	c422                	sw	s0,8(sp)
    58d0:	842e                	mv	s0,a1
    58d2:	00e59583          	lh	a1,14(a1)
    58d6:	c606                	sw	ra,12(sp)
    58d8:	227d                	jal	5a86 <_read_r>
    58da:	00054963          	bltz	a0,58ec <__sread+0x20>
    58de:	487c                	lw	a5,84(s0)
    58e0:	97aa                	add	a5,a5,a0
    58e2:	c87c                	sw	a5,84(s0)
    58e4:	40b2                	lw	ra,12(sp)
    58e6:	4422                	lw	s0,8(sp)
    58e8:	0141                	addi	sp,sp,16
    58ea:	8082                	ret
    58ec:	00c45783          	lhu	a5,12(s0)
    58f0:	777d                	lui	a4,0xfffff
    58f2:	177d                	addi	a4,a4,-1
    58f4:	8ff9                	and	a5,a5,a4
    58f6:	00f41623          	sh	a5,12(s0)
    58fa:	b7ed                	j	58e4 <__sread+0x18>

000058fc <__swrite>:
__swrite():
    58fc:	00c5d783          	lhu	a5,12(a1)
    5900:	1101                	addi	sp,sp,-32
    5902:	cc22                	sw	s0,24(sp)
    5904:	ca26                	sw	s1,20(sp)
    5906:	c84a                	sw	s2,16(sp)
    5908:	c64e                	sw	s3,12(sp)
    590a:	ce06                	sw	ra,28(sp)
    590c:	1007f793          	andi	a5,a5,256
    5910:	84aa                	mv	s1,a0
    5912:	842e                	mv	s0,a1
    5914:	8932                	mv	s2,a2
    5916:	89b6                	mv	s3,a3
    5918:	c791                	beqz	a5,5924 <__swrite+0x28>
    591a:	00e59583          	lh	a1,14(a1)
    591e:	4689                	li	a3,2
    5920:	4601                	li	a2,0
    5922:	2235                	jal	5a4e <_lseek_r>
    5924:	00c45783          	lhu	a5,12(s0)
    5928:	777d                	lui	a4,0xfffff
    592a:	177d                	addi	a4,a4,-1
    592c:	8ff9                	and	a5,a5,a4
    592e:	00f41623          	sh	a5,12(s0)
    5932:	00e41583          	lh	a1,14(s0)
    5936:	4462                	lw	s0,24(sp)
    5938:	40f2                	lw	ra,28(sp)
    593a:	86ce                	mv	a3,s3
    593c:	864a                	mv	a2,s2
    593e:	49b2                	lw	s3,12(sp)
    5940:	4942                	lw	s2,16(sp)
    5942:	8526                	mv	a0,s1
    5944:	44d2                	lw	s1,20(sp)
    5946:	6105                	addi	sp,sp,32
    5948:	a83d                	j	5986 <_write_r>

0000594a <__sseek>:
__sseek():
    594a:	1141                	addi	sp,sp,-16
    594c:	c422                	sw	s0,8(sp)
    594e:	842e                	mv	s0,a1
    5950:	00e59583          	lh	a1,14(a1)
    5954:	c606                	sw	ra,12(sp)
    5956:	28e5                	jal	5a4e <_lseek_r>
    5958:	57fd                	li	a5,-1
    595a:	00c45703          	lhu	a4,12(s0)
    595e:	00f51b63          	bne	a0,a5,5974 <__sseek+0x2a>
    5962:	77fd                	lui	a5,0xfffff
    5964:	17fd                	addi	a5,a5,-1
    5966:	8ff9                	and	a5,a5,a4
    5968:	00f41623          	sh	a5,12(s0)
    596c:	40b2                	lw	ra,12(sp)
    596e:	4422                	lw	s0,8(sp)
    5970:	0141                	addi	sp,sp,16
    5972:	8082                	ret
    5974:	6785                	lui	a5,0x1
    5976:	8fd9                	or	a5,a5,a4
    5978:	00f41623          	sh	a5,12(s0)
    597c:	c868                	sw	a0,84(s0)
    597e:	b7fd                	j	596c <__sseek+0x22>

00005980 <__sclose>:
__sclose():
    5980:	00e59583          	lh	a1,14(a1)
    5984:	a825                	j	59bc <_close_r>

00005986 <_write_r>:
_write_r():
    5986:	1141                	addi	sp,sp,-16
    5988:	c422                	sw	s0,8(sp)
    598a:	842a                	mv	s0,a0
    598c:	852e                	mv	a0,a1
    598e:	85b2                	mv	a1,a2
    5990:	8636                	mv	a2,a3
    5992:	1fffd797          	auipc	a5,0x1fffd
    5996:	dc07ad23          	sw	zero,-550(a5) # 2000276c <errno>
    599a:	c606                	sw	ra,12(sp)
    599c:	97dfe0ef          	jal	ra,4318 <_write>
    59a0:	57fd                	li	a5,-1
    59a2:	00f51963          	bne	a0,a5,59b4 <_write_r+0x2e>
    59a6:	1fffd797          	auipc	a5,0x1fffd
    59aa:	dc678793          	addi	a5,a5,-570 # 2000276c <errno>
    59ae:	439c                	lw	a5,0(a5)
    59b0:	c391                	beqz	a5,59b4 <_write_r+0x2e>
    59b2:	c01c                	sw	a5,0(s0)
    59b4:	40b2                	lw	ra,12(sp)
    59b6:	4422                	lw	s0,8(sp)
    59b8:	0141                	addi	sp,sp,16
    59ba:	8082                	ret

000059bc <_close_r>:
_close_r():
    59bc:	1141                	addi	sp,sp,-16
    59be:	c422                	sw	s0,8(sp)
    59c0:	842a                	mv	s0,a0
    59c2:	852e                	mv	a0,a1
    59c4:	1fffd797          	auipc	a5,0x1fffd
    59c8:	da07a423          	sw	zero,-600(a5) # 2000276c <errno>
    59cc:	c606                	sw	ra,12(sp)
    59ce:	20f5                	jal	5aba <_close>
    59d0:	57fd                	li	a5,-1
    59d2:	00f51963          	bne	a0,a5,59e4 <_close_r+0x28>
    59d6:	1fffd797          	auipc	a5,0x1fffd
    59da:	d9678793          	addi	a5,a5,-618 # 2000276c <errno>
    59de:	439c                	lw	a5,0(a5)
    59e0:	c391                	beqz	a5,59e4 <_close_r+0x28>
    59e2:	c01c                	sw	a5,0(s0)
    59e4:	40b2                	lw	ra,12(sp)
    59e6:	4422                	lw	s0,8(sp)
    59e8:	0141                	addi	sp,sp,16
    59ea:	8082                	ret

000059ec <_fstat_r>:
_fstat_r():
    59ec:	1141                	addi	sp,sp,-16
    59ee:	c422                	sw	s0,8(sp)
    59f0:	842a                	mv	s0,a0
    59f2:	852e                	mv	a0,a1
    59f4:	85b2                	mv	a1,a2
    59f6:	1fffd797          	auipc	a5,0x1fffd
    59fa:	d607ab23          	sw	zero,-650(a5) # 2000276c <errno>
    59fe:	c606                	sw	ra,12(sp)
    5a00:	20e9                	jal	5aca <_fstat>
    5a02:	57fd                	li	a5,-1
    5a04:	00f51963          	bne	a0,a5,5a16 <_fstat_r+0x2a>
    5a08:	1fffd797          	auipc	a5,0x1fffd
    5a0c:	d6478793          	addi	a5,a5,-668 # 2000276c <errno>
    5a10:	439c                	lw	a5,0(a5)
    5a12:	c391                	beqz	a5,5a16 <_fstat_r+0x2a>
    5a14:	c01c                	sw	a5,0(s0)
    5a16:	40b2                	lw	ra,12(sp)
    5a18:	4422                	lw	s0,8(sp)
    5a1a:	0141                	addi	sp,sp,16
    5a1c:	8082                	ret

00005a1e <_isatty_r>:
_isatty_r():
    5a1e:	1141                	addi	sp,sp,-16
    5a20:	c422                	sw	s0,8(sp)
    5a22:	842a                	mv	s0,a0
    5a24:	852e                	mv	a0,a1
    5a26:	1fffd797          	auipc	a5,0x1fffd
    5a2a:	d407a323          	sw	zero,-698(a5) # 2000276c <errno>
    5a2e:	c606                	sw	ra,12(sp)
    5a30:	286d                	jal	5aea <_isatty>
    5a32:	57fd                	li	a5,-1
    5a34:	00f51963          	bne	a0,a5,5a46 <_isatty_r+0x28>
    5a38:	1fffd797          	auipc	a5,0x1fffd
    5a3c:	d3478793          	addi	a5,a5,-716 # 2000276c <errno>
    5a40:	439c                	lw	a5,0(a5)
    5a42:	c391                	beqz	a5,5a46 <_isatty_r+0x28>
    5a44:	c01c                	sw	a5,0(s0)
    5a46:	40b2                	lw	ra,12(sp)
    5a48:	4422                	lw	s0,8(sp)
    5a4a:	0141                	addi	sp,sp,16
    5a4c:	8082                	ret

00005a4e <_lseek_r>:
_lseek_r():
    5a4e:	1141                	addi	sp,sp,-16
    5a50:	c422                	sw	s0,8(sp)
    5a52:	842a                	mv	s0,a0
    5a54:	852e                	mv	a0,a1
    5a56:	85b2                	mv	a1,a2
    5a58:	8636                	mv	a2,a3
    5a5a:	1fffd797          	auipc	a5,0x1fffd
    5a5e:	d007a923          	sw	zero,-750(a5) # 2000276c <errno>
    5a62:	c606                	sw	ra,12(sp)
    5a64:	205d                	jal	5b0a <_lseek>
    5a66:	57fd                	li	a5,-1
    5a68:	00f51963          	bne	a0,a5,5a7a <_lseek_r+0x2c>
    5a6c:	1fffd797          	auipc	a5,0x1fffd
    5a70:	d0078793          	addi	a5,a5,-768 # 2000276c <errno>
    5a74:	439c                	lw	a5,0(a5)
    5a76:	c391                	beqz	a5,5a7a <_lseek_r+0x2c>
    5a78:	c01c                	sw	a5,0(s0)
    5a7a:	40b2                	lw	ra,12(sp)
    5a7c:	4422                	lw	s0,8(sp)
    5a7e:	0141                	addi	sp,sp,16
    5a80:	8082                	ret

00005a82 <__malloc_lock>:
__malloc_lock():
    5a82:	8082                	ret

00005a84 <__malloc_unlock>:
__malloc_unlock():
    5a84:	8082                	ret

00005a86 <_read_r>:
_read_r():
    5a86:	1141                	addi	sp,sp,-16
    5a88:	c422                	sw	s0,8(sp)
    5a8a:	842a                	mv	s0,a0
    5a8c:	852e                	mv	a0,a1
    5a8e:	85b2                	mv	a1,a2
    5a90:	8636                	mv	a2,a3
    5a92:	1fffd797          	auipc	a5,0x1fffd
    5a96:	cc07ad23          	sw	zero,-806(a5) # 2000276c <errno>
    5a9a:	c606                	sw	ra,12(sp)
    5a9c:	28bd                	jal	5b1a <_read>
    5a9e:	57fd                	li	a5,-1
    5aa0:	00f51963          	bne	a0,a5,5ab2 <_read_r+0x2c>
    5aa4:	1fffd797          	auipc	a5,0x1fffd
    5aa8:	cc878793          	addi	a5,a5,-824 # 2000276c <errno>
    5aac:	439c                	lw	a5,0(a5)
    5aae:	c391                	beqz	a5,5ab2 <_read_r+0x2c>
    5ab0:	c01c                	sw	a5,0(s0)
    5ab2:	40b2                	lw	ra,12(sp)
    5ab4:	4422                	lw	s0,8(sp)
    5ab6:	0141                	addi	sp,sp,16
    5ab8:	8082                	ret

00005aba <_close>:
_close():
    5aba:	05800793          	li	a5,88
    5abe:	1fffd717          	auipc	a4,0x1fffd
    5ac2:	caf72723          	sw	a5,-850(a4) # 2000276c <errno>
    5ac6:	557d                	li	a0,-1
    5ac8:	8082                	ret

00005aca <_fstat>:
_fstat():
    5aca:	05800793          	li	a5,88
    5ace:	1fffd717          	auipc	a4,0x1fffd
    5ad2:	c8f72f23          	sw	a5,-866(a4) # 2000276c <errno>
    5ad6:	557d                	li	a0,-1
    5ad8:	8082                	ret

00005ada <_getpid>:
_getpid():
    5ada:	05800793          	li	a5,88
    5ade:	1fffd717          	auipc	a4,0x1fffd
    5ae2:	c8f72723          	sw	a5,-882(a4) # 2000276c <errno>
    5ae6:	557d                	li	a0,-1
    5ae8:	8082                	ret

00005aea <_isatty>:
_isatty():
    5aea:	05800793          	li	a5,88
    5aee:	1fffd717          	auipc	a4,0x1fffd
    5af2:	c6f72f23          	sw	a5,-898(a4) # 2000276c <errno>
    5af6:	4501                	li	a0,0
    5af8:	8082                	ret

00005afa <_kill>:
_kill():
    5afa:	05800793          	li	a5,88
    5afe:	1fffd717          	auipc	a4,0x1fffd
    5b02:	c6f72723          	sw	a5,-914(a4) # 2000276c <errno>
    5b06:	557d                	li	a0,-1
    5b08:	8082                	ret

00005b0a <_lseek>:
_lseek():
    5b0a:	05800793          	li	a5,88
    5b0e:	1fffd717          	auipc	a4,0x1fffd
    5b12:	c4f72f23          	sw	a5,-930(a4) # 2000276c <errno>
    5b16:	557d                	li	a0,-1
    5b18:	8082                	ret

00005b1a <_read>:
_read():
    5b1a:	05800793          	li	a5,88
    5b1e:	1fffd717          	auipc	a4,0x1fffd
    5b22:	c4f72723          	sw	a5,-946(a4) # 2000276c <errno>
    5b26:	557d                	li	a0,-1
    5b28:	8082                	ret

00005b2a <_sbrk>:
_sbrk():
    5b2a:	85418793          	addi	a5,gp,-1964 # 2000016c <heap_end.1518>
    5b2e:	439c                	lw	a5,0(a5)
    5b30:	c791                	beqz	a5,5b3c <_sbrk+0x12>
    5b32:	953e                	add	a0,a0,a5
    5b34:	84a1aa23          	sw	a0,-1964(gp) # 2000016c <heap_end.1518>
    5b38:	853e                	mv	a0,a5
    5b3a:	8082                	ret
    5b3c:	1fffd797          	auipc	a5,0x1fffd
    5b40:	c3478793          	addi	a5,a5,-972 # 20002770 <_ebss>
    5b44:	953e                	add	a0,a0,a5
    5b46:	84a1aa23          	sw	a0,-1964(gp) # 2000016c <heap_end.1518>
    5b4a:	853e                	mv	a0,a5
    5b4c:	8082                	ret

00005b4e <_exit>:
_exit():
    5b4e:	a001                	j	5b4e <_exit>
    5b50:	736d                	lui	t1,0xffffb
    5b52:	0000                	unimp
    5b54:	2e2e                	fld	ft8,200(sp)
    5b56:	62694c2f          	0x62694c2f
    5b5a:	6172                	flw	ft2,28(sp)
    5b5c:	6972                	flw	fs2,28(sp)
    5b5e:	7365                	lui	t1,0xffff9
    5b60:	6565732f          	0x6565732f
    5b64:	6572666b          	0x6572666b
    5b68:	5f65                	li	t5,-7
    5b6a:	696c                	flw	fa1,84(a0)
    5b6c:	7262                	flw	ft4,56(sp)
    5b6e:	7261                	lui	tp,0xffff8
    5b70:	6569                	lui	a0,0x1a
    5b72:	667a2f73          	csrrs	t5,0x667,s4
    5b76:	705f 7469 632e      	0x632e7469705f
    5b7c:	0000                	unimp
    5b7e:	0000                	unimp
    5b80:	7375                	lui	t1,0xffffd
    5b82:	0000                	unimp
    5b84:	0030                	addi	a2,sp,8
    5b86:	0000                	unimp
    5b88:	2e2e                	fld	ft8,200(sp)
    5b8a:	62694c2f          	0x62694c2f
    5b8e:	6172                	flw	ft2,28(sp)
    5b90:	6972                	flw	fs2,28(sp)
    5b92:	7365                	lui	t1,0xffff9
    5b94:	6565732f          	0x6565732f
    5b98:	6572666b          	0x6572666b
    5b9c:	5f65                	li	t5,-7
    5b9e:	696c                	flw	fa1,84(a0)
    5ba0:	7262                	flw	ft4,56(sp)
    5ba2:	7261                	lui	tp,0xffff8
    5ba4:	6569                	lui	a0,0x1a
    5ba6:	667a2f73          	csrrs	t5,0x667,s4
    5baa:	735f 6970 632e      	0x632e6970735f
    5bb0:	0000                	unimp
	...

00005bb4 <tft_ascii>:
	...
    5bc4:	0000 0800 0808 0808 0808 0000 0808 0000     ................
    5bd4:	4800 2424 0012 0000 0000 0000 0000 0000     .H$$............
    5be4:	0000 4800 4848 247e 2424 247e 2424 0000     ...HHH~$$$~$$$..
    5bf4:	0000 3c10 5252 1c12 5030 5250 3c52 1010     ...<RR..0PPRR<..
    5c04:	0000 2200 1525 0d15 582a 5454 2252 0000     ..."%...*XTTR"..
    5c14:	0000 0c00 1212 0a12 2576 1929 6e91 0000     ........v%)..n..
    5c24:	0600 0404 0002 0000 0000 0000 0000 0000     ................
    5c34:	4000 1020 0810 0808 0808 1008 2010 0040     .@ .......... @.
    5c44:	0200 0804 1008 1010 1010 0810 0408 0002     ................
    5c54:	0000 0000 0808 1c6b 6b1c 0808 0000 0000     ......k..k......
    5c64:	0000 0000 1000 1010 10fe 1010 0000 0000     ................
	...
    5c80:	0406 0204 0000 0000 0000 0000 007e 0000     ............~...
	...
    5ca0:	0606 0000 0000 2040 2020 1010 0808 0408     ......@   ......
    5cb0:	0204 0002 0000 1800 4224 4242 4242 4242     ........$BBBBBBB
    5cc0:	1824 0000 0000 1000 101c 1010 1010 1010     $...............
    5cd0:	7c10 0000 0000 3c00 4242 4042 1020 0408     .|.....<BBB@ ...
    5ce0:	7e42 0000 0000 3c00 4242 2040 2018 4240     B~.....<BB@ . @B
    5cf0:	3c42 0000 0000 2000 3030 2428 2224 20fe     B<..... 00($$". 
    5d00:	f820 0000 0000 7e00 0202 1e02 4022 4240      ......~...."@@B
    5d10:	1c22 0000 0000 1800 0224 3a02 4246 4242     ".......$..:FBBB
    5d20:	3844 0000 0000 7e00 2042 1020 0810 0808     D8.....~B  .....
    5d30:	0808 0000 0000 3c00 4242 2442 2418 4242     .......<BBB$.$BB
    5d40:	3c42 0000 0000 1c00 4222 4242 5c62 4040     B<......"BBBb\@@
    5d50:	1824 0000 0000 0000 0000 1818 0000 0000     $...............
    5d60:	1818 0000 0000 0000 0000 0800 0000 0000     ................
    5d70:	0800 0808 0000 4000 1020 0408 0402 1008     .......@ .......
    5d80:	4020 0000 0000 0000 0000 007e 7e00 0000      @........~..~..
    5d90:	0000 0000 0000 0200 0804 2010 2040 0810     ........... @ ..
    5da0:	0204 0000 0000 3c00 4242 2046 1010 0010     .......<BBF ....
    5db0:	1818 0000 0000 1c00 5a22 5555 5555 3a55     ........"ZUUUUU:
    5dc0:	3c42 0000 0000 0800 1808 1414 3c24 4222     B<..........$<"B
    5dd0:	e742 0000 0000 1f00 2222 1e22 4222 4242     B......."""."BBB
    5de0:	1f22 0000 0000 7c00 4242 0101 0101 4201     "......|BB.....B
    5df0:	1c22 0000 0000 1f00 4222 4242 4242 4242     "......."BBBBBBB
    5e00:	1f22 0000 0000 3f00 1242 1e12 1212 4202     "......?B......B
    5e10:	3f42 0000 0000 3f00 1242 1e12 1212 0202     B?.....?B.......
    5e20:	0702 0000 0000 3c00 2222 0101 7101 2221     .......<""...q!"
    5e30:	1c22 0000 0000 e700 4242 4242 427e 4242     ".......BBBB~BBB
    5e40:	e742 0000 0000 3e00 0808 0808 0808 0808     B......>........
    5e50:	3e08 0000 0000 7c00 1010 1010 1010 1010     .>.....|........
    5e60:	1010 0f11 0000 7700 1222 0e0a 120a 2212     .......w"......"
    5e70:	7722 0000 0000 0700 0202 0202 0202 0202     "w..............
    5e80:	7f42 0000 0000 7700 3636 3636 2a36 2a2a     B......w66666***
    5e90:	6b2a 0000 0000 e300 4646 4a4a 5252 6252     *k......FFJJRRRb
    5ea0:	4762 0000 0000 1c00 4122 4141 4141 4141     bG......"AAAAAAA
    5eb0:	1c22 0000 0000 3f00 4242 4242 023e 0202     "......?BBBB>...
    5ec0:	0702 0000 0000 1c00 4122 4141 4141 4d41     ........"AAAAAAM
    5ed0:	1c32 0060 0000 3f00 4242 3e42 1212 2222     2.`....?BBB>..""
    5ee0:	c742 0000 0000 7c00 4242 0402 2018 4240     B......|BB... @B
    5ef0:	3e42 0000 0000 7f00 0849 0808 0808 0808     B>......I.......
    5f00:	1c08 0000 0000 e700 4242 4242 4242 4242     ........BBBBBBBB
    5f10:	3c42 0000 0000 e700 4242 2422 1424 1814     B<......BB"$$...
    5f20:	0808 0000 0000 6b00 2a2a 2a2a 362a 1414     .......k*****6..
    5f30:	1414 0000 0000 e700 2442 1824 1818 2424     ........B$$...$$
    5f40:	e742 0000 0000 7700 2222 1414 0808 0808     B......w""......
    5f50:	1c08 0000 0000 7e00 2021 1010 0408 4204     .......~! .....B
    5f60:	3f42 0000 7800 0808 0808 0808 0808 0808     B?...x..........
    5f70:	0808 0078 0000 0402 0404 0808 1008 2010     ..x............ 
    5f80:	2020 4040 1e00 1010 1010 1010 1010 1010       @@............
    5f90:	1010 001e 1800 0024 0000 0000 0000 0000     ......$.........
	...
    5fb0:	0000 ff00 0600 0008 0000 0000 0000 0000     ................
	...
    5fc8:	0000 1c00 3022 222c 6c32 0000 0000 0000     ...."0,"2l......
    5fd8:	0203 1a02 4226 4242 1a26 0000 0000 0000     ....&BBB&.......
    5fe8:	0000 3800 0244 0202 3844 0000 0000 0000     ...8D...D8......
    5ff8:	4060 7c40 4242 4242 dc62 0000 0000 0000     `@@|BBBBb.......
    6008:	0000 3c00 4242 027e 3c42 0000 0000 0000     ...<BB~.B<......
    6018:	4830 3e08 0808 0808 3e08 0000 0000 0000     0H.>.....>......
    6028:	0000 7c00 2222 021c 423c 3c42 0000 0000     ...|""..<BB<....
    6038:	0203 3a02 4246 4242 e742 0000 0000 0c00     ...:FBBBB.......
    6048:	000c 0e00 0808 0808 3e08 0000 0000 3000     .........>.....0
    6058:	0030 3800 2020 2020 2020 1e22 0000 0000     0..8      ".....
    6068:	0203 7202 0a12 120e 7722 0000 0000 0800     ...r...."w......
    6078:	080e 0808 0808 0808 3e08 0000 0000 0000     .........>......
    6088:	0000 7f00 9292 9292 b792 0000 0000 0000     ................
    6098:	0000 3b00 4246 4242 e742 0000 0000 0000     ...;FBBBB.......
    60a8:	0000 3c00 4242 4242 3c42 0000 0000 0000     ...<BBBBB<......
    60b8:	0000 1b00 4226 4242 1a26 0702 0000 0000     ....&BBB&.......
    60c8:	0000 5800 4264 4242 5864 e040 0000 0000     ...XdBBBdX@.....
    60d8:	0000 7700 044c 0404 1f04 0000 0000 0000     ...wL...........
    60e8:	0000 7c00 0242 403c 3e42 0000 0000 0000     ...|B.<@B>......
    60f8:	0800 3e08 0808 0808 3048 0000 0000 0000     ...>....H0......
    6108:	0000 6300 4242 4242 dc62 0000 0000 0000     ...cBBBBb.......
    6118:	0000 7700 2222 1414 0808 0000 0000 0000     ...w""..........
    6128:	0000 db00 5291 2a5a 2424 0000 0000 0000     .....RZ*$$......
    6138:	0000 6e00 1824 1818 7624 0000 0000 0000     ...n$...$v......
    6148:	0000 e700 2442 1824 0818 0608 0000 0000     ....B$$.........
    6158:	0000 7e00 1022 0808 7e44 0000 c000 2020     ...~"...D~....  
    6168:	2020 2020 2010 2020 2020 00c0 1010 1010         .     ......
    6178:	1010 1010 1010 1010 1010 1010 0300 0404     ................
    6188:	0404 0404 0408 0404 0404 0003 5a04 0020     .............Z .
	...

000061a4 <GPION>:
    61a4:	0800 4001 0c00 4001 1000 4001 1400 4001     ...@...@...@...@

000061b4 <__func__.3548>:
    61b4:	6974 656d 5f72 6970 5f74 6e69 6574 7272     timer_pit_interr
    61c4:	7075 5f74 736d 0000                         upt_ms..

000061cc <TIMERN>:
    61cc:	2c00 4001 0000 4000 0400 4000 0800 4000     .,.@...@...@...@

000061dc <__func__.3348>:
    61dc:	7073 5f69 7067 6f69 695f 696e 0074 0000     spi_gpio_init...

000061ec <UARTN>:
    61ec:	3800 4001 4400 4000 4800 4000 4c00 4000     .8.@.D.@.H.@.L.@
    61fc:	202c 7566 636e 6974 6e6f 203a 0000 0000     , function: ....
    620c:	7361 6573 7472 6f69 206e 2522 2273 6620     assertion "%s" f
    621c:	6961 656c 3a64 6620 6c69 2065 2522 2273     ailed: file "%s"
    622c:	202c 696c 656e 2520 2564 2573 0a73 0000     , line %d%s%s...
    623c:	2d23 2b30 0020 0000 6c68 004c 6665 4567     #-0+ ...hlL.efgE
    624c:	4746 0000 3130 3332 3534 3736 3938 4241     FG..0123456789AB
    625c:	4443 4645 0000 0000 3130 3332 3534 3736     CDEF....01234567
    626c:	3938 6261 6463 6665 0000 0000               89abcdef....

00006278 <__sf_fake_stderr>:
	...

00006298 <__sf_fake_stdin>:
	...

000062b8 <__sf_fake_stdout>:
	...
