
SLAVE.elf:     file format elf32-littleriscv
SLAVE.elf
architecture: riscv:rv32, flags 0x00000112:
EXEC_P, HAS_SYMS, D_PAGED
start address 0x00000000

Program Header:
    LOAD off    0x00001000 vaddr 0x00000000 paddr 0x00000000 align 2**12
         filesz 0x00006248 memsz 0x00006248 flags r-x
    LOAD off    0x00008000 vaddr 0x20000000 paddr 0x00006248 align 2**12
         filesz 0x000000e0 memsz 0x00002718 flags rw-
    LOAD off    0x00008800 vaddr 0x20004800 paddr 0x20004800 align 2**12
         filesz 0x00000000 memsz 0x00000800 flags rw-

Sections:
Idx Name           Size      VMA       LMA       File off  Algn  Flags
  0 .init          00000038  00000000  00000000  00001000  2**1  CONTENTS, ALLOC, LOAD, READONLY, CODE
  1 .vector        00000108  00000038  00000038  00001038  2**1  CONTENTS, ALLOC, LOAD, READONLY, CODE
  2 .text          00006108  00000140  00000140  00001140  2**2  CONTENTS, ALLOC, LOAD, READONLY, CODE
  3 .fini          00000000  00006248  00006248  000080e0  2**0  CONTENTS, ALLOC, LOAD, CODE
  4 .dalign        00000000  20000000  20000000  000080e0  2**0  CONTENTS
  5 .dlalign       00000000  00006248  00006248  000080e0  2**0  CONTENTS
  6 .data          000000e0  20000000  00006248  00008000  2**2  CONTENTS, ALLOC, LOAD, DATA
  7 .bss           00002638  200000e0  00006328  000080e0  2**2  ALLOC
  8 .stack         00000800  20004800  20004800  00008800  2**0  ALLOC
  9 .debug_info    00017bd0  00000000  00000000  000080e0  2**0  CONTENTS, READONLY, DEBUGGING
 10 .debug_abbrev  00003b98  00000000  00000000  0001fcb0  2**0  CONTENTS, READONLY, DEBUGGING
 11 .debug_aranges 00000cf8  00000000  00000000  00023848  2**3  CONTENTS, READONLY, DEBUGGING
 12 .debug_ranges  00000b40  00000000  00000000  00024540  2**3  CONTENTS, READONLY, DEBUGGING
 13 .debug_line    0000cdd3  00000000  00000000  00025080  2**0  CONTENTS, READONLY, DEBUGGING
 14 .debug_str     00004009  00000000  00000000  00031e53  2**0  CONTENTS, READONLY, DEBUGGING
 15 .comment       00000033  00000000  00000000  00035e5c  2**0  CONTENTS, READONLY
 16 .debug_frame   00003804  00000000  00000000  00035e90  2**2  CONTENTS, READONLY, DEBUGGING
 17 .stab          000000b4  00000000  00000000  00039694  2**2  CONTENTS, READONLY, DEBUGGING
 18 .stabstr       00000183  00000000  00000000  00039748  2**0  CONTENTS, READONLY, DEBUGGING
SYMBOL TABLE:
00000000 l    d  .init	00000000 .init
00000038 l    d  .vector	00000000 .vector
00000140 l    d  .text	00000000 .text
00006248 l    d  .fini	00000000 .fini
20000000 l    d  .dalign	00000000 .dalign
00006248 l    d  .dlalign	00000000 .dlalign
20000000 l    d  .data	00000000 .data
200000e0 l    d  .bss	00000000 .bss
20004800 l    d  .stack	00000000 .stack
00000000 l    d  .debug_info	00000000 .debug_info
00000000 l    d  .debug_abbrev	00000000 .debug_abbrev
00000000 l    d  .debug_aranges	00000000 .debug_aranges
00000000 l    d  .debug_ranges	00000000 .debug_ranges
00000000 l    d  .debug_line	00000000 .debug_line
00000000 l    d  .debug_str	00000000 .debug_str
00000000 l    d  .comment	00000000 .comment
00000000 l    d  .debug_frame	00000000 .debug_frame
00000000 l    d  .stab	00000000 .stab
00000000 l    d  .stabstr	00000000 .stabstr
00000000 l    df *ABS*	00000000 ./Libraries/wch_libraries/Startup/startup_ch32v10x.o
00000038 l       .vector	00000000 _vector_base
00000000 l    df *ABS*	00000000 isr.c
00000000 l    df *ABS*	00000000 main.c
00000000 l    df *ABS*	00000000 ch32v10x_dma.c
00000000 l    df *ABS*	00000000 ch32v10x_exti.c
00000000 l    df *ABS*	00000000 ch32v10x_gpio.c
00000000 l    df *ABS*	00000000 ch32v10x_misc.c
000012cc l     F .text	00000032 NVIC_EnableIRQ
000012fe l     F .text	00000032 NVIC_DisableIRQ
00001330 l     F .text	0000002a NVIC_SetPriority
00000000 l    df *ABS*	00000000 ch32v10x_rcc.c
20000000 l     O .data	00000010 APBAHBPrescTable
200000b8 l     O .data	00000004 ADCPrescTable
00000000 l    df *ABS*	00000000 ch32v10x_spi.c
00000000 l    df *ABS*	00000000 ch32v10x_tim.c
00000000 l    df *ABS*	00000000 ch32v10x_usart.c
00000000 l    df *ABS*	00000000 SEEKFREE_IPS114_SPI.c
000060f4 l     O .text	0000001d __func__.3381
00000000 l    df *ABS*	00000000 SEEKFREE_MT9V03X.c
00000000 l    df *ABS*	00000000 SEEKFREE_UART_7725.c
00000000 l    df *ABS*	00000000 zf_camera.c
00000000 l    df *ABS*	00000000 zf_gpio.c
00000000 l    df *ABS*	00000000 zf_nvic.c
00000000 l    df *ABS*	00000000 zf_pit.c
00006124 l     O .text	00000017 __func__.3548
00000000 l    df *ABS*	00000000 zf_qtimer.c
00000000 l    df *ABS*	00000000 zf_spi.c
0000614c l     O .text	0000000e __func__.3348
00000000 l    df *ABS*	00000000 zf_systick.c
00000000 l    df *ABS*	00000000 zf_uart.c
00000000 l    df *ABS*	00000000 board.c
00000000 l    df *ABS*	00000000 clock_config.c
000042f2 l     F .text	00000140 SetSysClock
00000000 l    df *ABS*	00000000 TrackGet.c
00000000 l    df *ABS*	00000000 assert.c
00000000 l    df *ABS*	00000000 fprintf.c
00000000 l    df *ABS*	00000000 nano-vfprintf.c
0000481a l     F .text	00000028 __sfputc_r
00000000 l    df *ABS*	00000000 nano-vfprintf_i.c
00000000 l    df *ABS*	00000000 wbuf.c
00000000 l    df *ABS*	00000000 wsetup.c
00000000 l    df *ABS*	00000000 abort.c
00000000 l    df *ABS*	00000000 fflush.c
00000000 l    df *ABS*	00000000 findfp.c
00005252 l     F .text	0000006a std
00000000 l    df *ABS*	00000000 fwalk.c
00000000 l    df *ABS*	00000000 makebuf.c
00000000 l    df *ABS*	00000000 memchr.c
00000000 l    df *ABS*	00000000 nano-mallocr.c
00000000 l    df *ABS*	00000000 nano-mallocr.c
00000000 l    df *ABS*	00000000 sbrkr.c
00000000 l    df *ABS*	00000000 signal.c
00000000 l    df *ABS*	00000000 signalr.c
00000000 l    df *ABS*	00000000 stdio.c
00000000 l    df *ABS*	00000000 writer.c
00000000 l    df *ABS*	00000000 closer.c
00000000 l    df *ABS*	00000000 fstatr.c
00000000 l    df *ABS*	00000000 isattyr.c
00000000 l    df *ABS*	00000000 lseekr.c
00000000 l    df *ABS*	00000000 mlock.c
00000000 l    df *ABS*	00000000 readr.c
00000000 l    df *ABS*	00000000 close.c
00000000 l    df *ABS*	00000000 fstat.c
00000000 l    df *ABS*	00000000 getpid.c
00000000 l    df *ABS*	00000000 isatty.c
00000000 l    df *ABS*	00000000 kill.c
00000000 l    df *ABS*	00000000 lseek.c
00000000 l    df *ABS*	00000000 read.c
00000000 l    df *ABS*	00000000 sbrk.c
20000114 l     O .bss	00000004 heap_end.1518
00000000 l    df *ABS*	00000000 _exit.c
00000000 l    df *ABS*	00000000 SEEKFREE_FONT.c
00000000 l    df *ABS*	00000000 impure.c
20000054 l     O .data	00000060 impure_data
00000000 l    df *ABS*	00000000 common.c
00000000 l    df *ABS*	00000000 reent.c
00001956 g     F .text	0000003c TIM_TimeBaseStructInit
00000242 g     F .text	00000016 EXTI2_IRQHandler
0000592a g     F .text	00000030 _isatty_r
000026d2 g     F .text	0000007e ips114_set_region
000059e6 g     F .text	00000010 _getpid
0000595a g     F .text	00000034 _lseek_r
00000b88 g     F .text	00000040 DMA_Cmd
200000e0 g     O .bss	00000002 slave_encoder_left
0000349c g     F .text	00000080 gpio_interrupt_init
000057a4 g     F .text	00000032 _kill_r
00002898 g     F .text	00000176 ips114_showint16
200008b8 g       .data	00000000 __global_pointer$
00000364 g     F .text	00000090 TIM1_CC_IRQHandler
00005856 g     F .text	00000036 __sseek
0000530c g     F .text	0000006c __sinit
00004ed6 g     F .text	000000c0 __swbuf_r
00000520 g     F .text	00000008 HardFault_Handler
000052c6 g     F .text	00000046 __sfmoreglue
00005990 g     F .text	00000002 __malloc_unlock
0000135a g     F .text	000000c4 NVIC_Init
200000f8 g     O .bss	00000004 sys_clk
200000c4 g     O .data	00000002 threshold
00000510 g     F .text	00000010 NMI_Handler
00000258 g     F .text	00000010 EXTI3_IRQHandler
200000bc g     O .data	00000004 camera_type
00001a5a g     F .text	00000070 TIM_DMACmd
00001aca g     F .text	0000008a TIM_ETRClockMode1Config
000021c8 g     F .text	00000046 USART_GetFlagStatus
000058f8 g     F .text	00000032 _fstat_r
0000613c g     O .text	00000010 TIMERN
20002714 g     O .bss	00000004 errno
20000034 g     O .data	00000020 GET_CFG
200000e0 g       .bss	00000000 _sbss
00000800 g       *ABS*	00000000 __stack_size
20000118 g     O .bss	0000000b temp_buff
00000ae0 g     F .text	000000a8 DMA_Init
200000f5 g     O .bss	00000001 ov7725_uart_finish_flag
200000c6 g     O .data	00000002 EdgeR
20000124 g     O .bss	000024b8 mt9v03x_image
000052bc g     F .text	0000000a _cleanup_r
000010ee g     F .text	0000013c GPIO_PinRemapConfig
000001e8 g     F .text	00000010 EXTI0_IRQHandler
00001992 g     F .text	00000058 TIM_Cmd
20000104 g     O .bss	00000002 lostLeft_Sign
20000010 g     O .data	00000024 MT9V03X_CFG
200000e2 g     O .bss	00000002 slave_encoder_right
0000419c g     F .text	00000046 uart_putbuff
00005736 g     F .text	00000062 _raise_r
000059d6 g     F .text	00000010 _fstat
00003cca g     F .text	00000136 spi_init
000047ba g     F .text	0000003a __assert_func
00000038 g       .init	00000000 _einit
000035ea g     F .text	00000030 sys_recover_irq
00001e14 g     F .text	0000002e TIM_ClearITPendingBit
0000167e g     F .text	00000046 RCC_APB2PeriphClockCmd
000044b0 g     F .text	00000292 trackBorder_Get
00002f1c g     F .text	00000036 mt9v03x_vsync
00005b04 g     O .text	000005f0 tft_ascii
200025e8 g     O .bss	0000012c Border
00000298 g     F .text	00000010 ADC1_2_IRQHandler
000057d6 g     F .text	00000002 _getpid_r
00000e8c g     F .text	0000022a GPIO_Init
0000351c g     F .text	000000ac nvic_init
00002076 g     F .text	00000060 USART_Cmd
00005706 g     F .text	00000030 _sbrk_r
00005992 g     F .text	00000034 _read_r
00002310 g     F .text	0000004e USART_ClearITPendingBit
200000d0 g     O .data	00000008 SPIN
000016c4 g     F .text	00000046 RCC_APB1PeriphClockCmd
000059f6 g     F .text	00000010 _isatty
00003818 g     F .text	00000170 timer_gpio_quad_init
200000d8 g     O .data	00000004 _global_impure_ptr
00002d24 g     F .text	000000c8 get_config
00001638 g     F .text	00000046 RCC_AHBPeriphClockCmd
000004c6 g     F .text	0000004a DMA1_Channel4_IRQHandler
200000e4 g     O .bss	00000002 slave_position
000050a2 g     F .text	0000000e abort
0000368e g     F .text	0000018a timer_pit_interrupt_ms
00005a36 g     F .text	00000024 _sbrk
00000c12 g     F .text	0000005c DMA_GetFlagStatus
000004b6 g     F .text	00000010 USART3_IRQHandler
00000e6c g     F .text	00000020 EXTI_ClearITPendingBit
20002718 g       .bss	00000000 _ebss
0000220e g     F .text	00000102 USART_GetITStatus
00002472 g     F .text	00000260 ips114_init
00002750 g     F .text	00000066 ips114_clear
00002402 g     F .text	00000070 ips114_writedata_16bit
00003ec2 g     F .text	00000094 systick_delay
00002f80 g     F .text	00000070 ov7725_cof_uart_interrupt
0000615c g     O .text	00000010 UARTN
000047f4 g     F .text	00000026 fprintf
00000618 g     F .text	00000058 TIM4_IRQHandler
000010b6 g     F .text	00000038 GPIO_WriteBit
200000f3 g     O .bss	00000001 ov7725_uart_receive_num
000061e8 g     O .text	00000020 __sf_fake_stderr
20002718 g       .bss	00000000 end
00003988 g     F .text	0000015c timer_quad_init
20000100 g     O .bss	00000002 EdgeL
00001da4 g     F .text	00000070 TIM_GetITStatus
0000141e g     F .text	0000021a RCC_GetClocksFreq
00004842 g     F .text	00000044 __sfputs_r
00004042 g     F .text	00000104 uart_init
0000557a g     F .text	0000001a memchr
00000528 g     F .text	0000003a get_sensor_data
00001e42 g     F .text	00000234 USART_Init
00005594 g     F .text	000000a4 _free_r
0000041c g     F .text	00000030 TIM3_IRQHandler
00003662 g     F .text	0000002c EnableGlobalIRQ
00003f56 g     F .text	000000ec uart_gpio_init
0000030c g     F .text	00000058 TIM1_TRG_COM_IRQHandler
20000102 g     O .bss	00000002 validLine
00003026 g     F .text	0000002e ov7725_uart_dma
00000000 g       .init	00000000 _start
20000108 g     O .bss	00000002 leftLostLine_Cnt
00005a16 g     F .text	00000010 _lseek
200000f4 g     O .bss	00000001 ov7725_uart_receive_flag
00003054 g     F .text	0000015a camera_dma_init
00001bd0 g     F .text	0000004e TIM_SelectInputTrigger
000035c8 g     F .text	00000022 close_all_irq
00000288 g     F .text	00000010 EXTI15_10_IRQHandler
00006114 g     O .text	00000010 GPION
000019ea g     F .text	00000070 TIM_ITConfig
000020d6 g     F .text	000000c4 USART_ITConfig
00000ca6 g     F .text	00000170 EXTI_Init
20000106 g     O .bss	00000002 lostRight_Sign
00002dec g     F .text	00000028 mt9v03x_vsync_init
000058c8 g     F .text	00000030 _close_r
20000000 g       .dalign	00000000 _data_vma
00002e2c g     F .text	00000070 mt9v03x_dma_init
0000235e g     F .text	00000052 ips114_writeIndex
00004f96 g     F .text	0000010c __swsetup_r
00000278 g     F .text	00000010 EXTI9_5_IRQHandler
00005378 g     F .text	000000a0 __sfp
0000122a g     F .text	000000a2 GPIO_EXTILineConfig
00004232 g     F .text	00000048 board_init
200000c8 g     O .data	00000002 default_judge_line
000057d8 g     F .text	00000030 __sread
00002c34 g     F .text	000000f0 set_config
0000598e g     F .text	00000002 __malloc_lock
000051ec g     F .text	00000066 _fflush_r
00000e16 g     F .text	00000056 EXTI_GetITStatus
00006208 g     O .text	00000020 __sf_fake_stdin
00002f52 g     F .text	0000002e mt9v03x_dma
00000140 g     F .text	000000a8 memset
00000670 g     F .text	000001e4 main
00002e9c g     F .text	00000080 mt9v03x_init
200000c2 g     O .data	00000002 delta
0000588c g     F .text	00000006 __sclose
00005638 g     F .text	000000ce _malloc_r
00000268 g     F .text	00000010 EXTI4_IRQHandler
200000c0 g     O .data	00000002 centre_last
00001802 g     F .text	0000005a SPI_Cmd
0000361a g     F .text	00000048 DisableGlobalIRQ
200000fc g     O .bss	00000004 camera_buffer_addr
00004432 g     F .text	0000007e SystemInit
00004742 g     F .text	00000078 centre_line_get
00000000 g       .init	00000000 _sinit
00005892 g     F .text	00000036 _write_r
200000eb g     O .bss	00000001 receive_num
200025dc g     O .bss	0000000c irq_status
00002e14 g     F .text	00000018 mt9v03x_tim1_etr_init
00004b26 g     F .text	0000010c _printf_common
200000cc g     O .data	00000004 _impure_ptr
000002dc g     F .text	00000030 TIM1_UP_IRQHandler
200000e8 g     O .bss	00000003 receive
000050b0 g     F .text	0000013c __sflush_r
00002ff0 g     F .text	00000036 ov7725_uart_vsync
000031ae g     F .text	0000014a camera_tim_etr_init
00000bc8 g     F .text	0000004a DMA_ITConfig
000003f4 g     F .text	00000028 TIM2_IRQHandler
20005000 g       .stack	00000000 _eusrstack
200000ec g     O .bss	00000001 uart_receive_flag
00002bc4 g     F .text	00000070 mt9v03x_uart_callback
200000ed g     O .bss	00000001 mt9v03x_finish_flag
000002a8 g     F .text	00000034 TIM1_BRK_IRQHandler
00005484 g     F .text	00000058 __swhatbuf_r
0000219a g     F .text	0000002e USART_SendData
000001f8 g     F .text	0000004a EXTI1_IRQHandler
00001d4c g     F .text	00000058 TIM_SelectMasterSlaveMode
0000427a g     F .text	00000078 _write
200000e0 g       .data	00000000 _edata
000023b0 g     F .text	00000052 ips114_writeData
0000185c g     F .text	000000fa TIM_TimeBaseInit
00006248 g       .dlalign	00000000 _data_lma
0000045c g     F .text	0000005a USART2_IRQHandler
00005808 g     F .text	0000004e __swrite
000047f4 g     F .text	00000026 fiprintf
00004886 g     F .text	000002a0 _vfiprintf_r
00003e00 g     F .text	000000c2 spi_mosi
00005418 g     F .text	0000006c _fwalk_reent
00005a06 g     F .text	00000010 _kill
00002a0e g     F .text	000001b6 ips114_displayimage032_zoom1
00006228 g     O .text	00000020 __sf_fake_stdout
00000c6e g     F .text	00000038 DMA_ClearFlag
00005a26 g     F .text	00000010 _read
00000854  w      .text	00000000 handle_reset
00005a5a g     F .text	00000002 _exit
00000562 g     F .text	000000b6 process_data
00003ae4 g     F .text	00000032 timer_quad_get
0000044c g     F .text	00000010 USART1_IRQHandler
000054dc g     F .text	0000009e __smakebuf_r
00004c32 g     F .text	000002a4 _printf_i
00001b54 g     F .text	0000007c TIM_ETRConfig
20000110 g     O .bss	00000004 __malloc_sbrk_start
00001cf6 g     F .text	00000056 TIM_SelectSlaveMode
000041e2 g     F .text	00000050 uart_rx_irq
0000170a g     F .text	000000f8 SPI_Init
00003b3c g     F .text	0000018e spi_gpio_init
00003b16 g     F .text	00000026 timer_quad_clear
000008d2 g     F .text	0000020e DMA_DeInit
000032f8 g     F .text	000001a4 gpio_init
2000010c g     O .bss	00000004 __malloc_free_list
00001c1e g     F .text	000000d8 TIM_EncoderInterfaceConfig
00004886 g     F .text	000002a0 _vfprintf_r
00004146 g     F .text	00000056 uart_putchar
200000f0 g     O .bss	00000003 ov7725_uart_receive
000059c6 g     F .text	00000010 _close
00005798 g     F .text	0000000c raise
000027b6 g     F .text	000000e2 ips114_showchar
2000010a g     O .bss	00000002 rightLostLine_Cnt



Disassembly of section .init:

00000000 <_sinit>:
_start():
C:\Users\16917\Desktop\Dual-core_Communication_Demo\Dual-core_Communication_Demo\SLAVE\obj/../Libraries/wch_libraries/Startup/startup_ch32v10x.S:13
   0:	0550006f          	j	854 <handle_reset>
   4:	00000013          	nop
   8:	00000013          	nop
   c:	00000013          	nop
  10:	00000013          	nop
  14:	00000013          	nop
  18:	00000013          	nop
  1c:	00000013          	nop
  20:	00000013          	nop
  24:	00000013          	nop
  28:	00000013          	nop
  2c:	00000013          	nop
  30:	00000013          	nop
  34:	00100073          	ebreak

Disassembly of section .vector:

00000038 <_vector_base>:
_vector_base():
C:\Users\16917\Desktop\Dual-core_Communication_Demo\Dual-core_Communication_Demo\SLAVE\obj/../Libraries/wch_libraries/Startup/startup_ch32v10x.S:31
  38:	fc9ff06f          	j	0 <_sinit>
  3c:	0000                	unimp
  3e:	0000                	unimp
C:\Users\16917\Desktop\Dual-core_Communication_Demo\Dual-core_Communication_Demo\SLAVE\obj/../Libraries/wch_libraries/Startup/startup_ch32v10x.S:33
  40:	4d00006f          	j	510 <NMI_Handler>
C:\Users\16917\Desktop\Dual-core_Communication_Demo\Dual-core_Communication_Demo\SLAVE\obj/../Libraries/wch_libraries/Startup/startup_ch32v10x.S:34
  44:	4dc0006f          	j	520 <HardFault_Handler>
	...
C:\Users\16917\Desktop\Dual-core_Communication_Demo\Dual-core_Communication_Demo\SLAVE\obj/../Libraries/wch_libraries/Startup/startup_ch32v10x.S:43
  68:	f99ff06f          	j	0 <_sinit>
  6c:	0000                	unimp
  6e:	0000                	unimp
C:\Users\16917\Desktop\Dual-core_Communication_Demo\Dual-core_Communication_Demo\SLAVE\obj/../Libraries/wch_libraries/Startup/startup_ch32v10x.S:45
  70:	f91ff06f          	j	0 <_sinit>
  74:	0000                	unimp
  76:	0000                	unimp
C:\Users\16917\Desktop\Dual-core_Communication_Demo\Dual-core_Communication_Demo\SLAVE\obj/../Libraries/wch_libraries/Startup/startup_ch32v10x.S:48
  78:	f89ff06f          	j	0 <_sinit>
C:\Users\16917\Desktop\Dual-core_Communication_Demo\Dual-core_Communication_Demo\SLAVE\obj/../Libraries/wch_libraries/Startup/startup_ch32v10x.S:49
  7c:	f85ff06f          	j	0 <_sinit>
C:\Users\16917\Desktop\Dual-core_Communication_Demo\Dual-core_Communication_Demo\SLAVE\obj/../Libraries/wch_libraries/Startup/startup_ch32v10x.S:50
  80:	f81ff06f          	j	0 <_sinit>
C:\Users\16917\Desktop\Dual-core_Communication_Demo\Dual-core_Communication_Demo\SLAVE\obj/../Libraries/wch_libraries/Startup/startup_ch32v10x.S:51
  84:	f7dff06f          	j	0 <_sinit>
C:\Users\16917\Desktop\Dual-core_Communication_Demo\Dual-core_Communication_Demo\SLAVE\obj/../Libraries/wch_libraries/Startup/startup_ch32v10x.S:52
  88:	f79ff06f          	j	0 <_sinit>
C:\Users\16917\Desktop\Dual-core_Communication_Demo\Dual-core_Communication_Demo\SLAVE\obj/../Libraries/wch_libraries/Startup/startup_ch32v10x.S:53
  8c:	f75ff06f          	j	0 <_sinit>
C:\Users\16917\Desktop\Dual-core_Communication_Demo\Dual-core_Communication_Demo\SLAVE\obj/../Libraries/wch_libraries/Startup/startup_ch32v10x.S:54
  90:	1580006f          	j	1e8 <EXTI0_IRQHandler>
C:\Users\16917\Desktop\Dual-core_Communication_Demo\Dual-core_Communication_Demo\SLAVE\obj/../Libraries/wch_libraries/Startup/startup_ch32v10x.S:55
  94:	1640006f          	j	1f8 <EXTI1_IRQHandler>
C:\Users\16917\Desktop\Dual-core_Communication_Demo\Dual-core_Communication_Demo\SLAVE\obj/../Libraries/wch_libraries/Startup/startup_ch32v10x.S:56
  98:	1aa0006f          	j	242 <EXTI2_IRQHandler>
C:\Users\16917\Desktop\Dual-core_Communication_Demo\Dual-core_Communication_Demo\SLAVE\obj/../Libraries/wch_libraries/Startup/startup_ch32v10x.S:57
  9c:	1bc0006f          	j	258 <EXTI3_IRQHandler>
C:\Users\16917\Desktop\Dual-core_Communication_Demo\Dual-core_Communication_Demo\SLAVE\obj/../Libraries/wch_libraries/Startup/startup_ch32v10x.S:58
  a0:	1c80006f          	j	268 <EXTI4_IRQHandler>
C:\Users\16917\Desktop\Dual-core_Communication_Demo\Dual-core_Communication_Demo\SLAVE\obj/../Libraries/wch_libraries/Startup/startup_ch32v10x.S:59
  a4:	f5dff06f          	j	0 <_sinit>
C:\Users\16917\Desktop\Dual-core_Communication_Demo\Dual-core_Communication_Demo\SLAVE\obj/../Libraries/wch_libraries/Startup/startup_ch32v10x.S:60
  a8:	f59ff06f          	j	0 <_sinit>
C:\Users\16917\Desktop\Dual-core_Communication_Demo\Dual-core_Communication_Demo\SLAVE\obj/../Libraries/wch_libraries/Startup/startup_ch32v10x.S:61
  ac:	f55ff06f          	j	0 <_sinit>
C:\Users\16917\Desktop\Dual-core_Communication_Demo\Dual-core_Communication_Demo\SLAVE\obj/../Libraries/wch_libraries/Startup/startup_ch32v10x.S:62
  b0:	4160006f          	j	4c6 <DMA1_Channel4_IRQHandler>
C:\Users\16917\Desktop\Dual-core_Communication_Demo\Dual-core_Communication_Demo\SLAVE\obj/../Libraries/wch_libraries/Startup/startup_ch32v10x.S:63
  b4:	f4dff06f          	j	0 <_sinit>
C:\Users\16917\Desktop\Dual-core_Communication_Demo\Dual-core_Communication_Demo\SLAVE\obj/../Libraries/wch_libraries/Startup/startup_ch32v10x.S:64
  b8:	f49ff06f          	j	0 <_sinit>
C:\Users\16917\Desktop\Dual-core_Communication_Demo\Dual-core_Communication_Demo\SLAVE\obj/../Libraries/wch_libraries/Startup/startup_ch32v10x.S:65
  bc:	f45ff06f          	j	0 <_sinit>
C:\Users\16917\Desktop\Dual-core_Communication_Demo\Dual-core_Communication_Demo\SLAVE\obj/../Libraries/wch_libraries/Startup/startup_ch32v10x.S:66
  c0:	1d80006f          	j	298 <ADC1_2_IRQHandler>
	...
C:\Users\16917\Desktop\Dual-core_Communication_Demo\Dual-core_Communication_Demo\SLAVE\obj/../Libraries/wch_libraries/Startup/startup_ch32v10x.S:71
  d4:	1a40006f          	j	278 <EXTI9_5_IRQHandler>
C:\Users\16917\Desktop\Dual-core_Communication_Demo\Dual-core_Communication_Demo\SLAVE\obj/../Libraries/wch_libraries/Startup/startup_ch32v10x.S:72
  d8:	1d00006f          	j	2a8 <TIM1_BRK_IRQHandler>
C:\Users\16917\Desktop\Dual-core_Communication_Demo\Dual-core_Communication_Demo\SLAVE\obj/../Libraries/wch_libraries/Startup/startup_ch32v10x.S:73
  dc:	2000006f          	j	2dc <TIM1_UP_IRQHandler>
C:\Users\16917\Desktop\Dual-core_Communication_Demo\Dual-core_Communication_Demo\SLAVE\obj/../Libraries/wch_libraries/Startup/startup_ch32v10x.S:74
  e0:	22c0006f          	j	30c <TIM1_TRG_COM_IRQHandler>
C:\Users\16917\Desktop\Dual-core_Communication_Demo\Dual-core_Communication_Demo\SLAVE\obj/../Libraries/wch_libraries/Startup/startup_ch32v10x.S:75
  e4:	2800006f          	j	364 <TIM1_CC_IRQHandler>
C:\Users\16917\Desktop\Dual-core_Communication_Demo\Dual-core_Communication_Demo\SLAVE\obj/../Libraries/wch_libraries/Startup/startup_ch32v10x.S:76
  e8:	30c0006f          	j	3f4 <TIM2_IRQHandler>
C:\Users\16917\Desktop\Dual-core_Communication_Demo\Dual-core_Communication_Demo\SLAVE\obj/../Libraries/wch_libraries/Startup/startup_ch32v10x.S:77
  ec:	3300006f          	j	41c <TIM3_IRQHandler>
C:\Users\16917\Desktop\Dual-core_Communication_Demo\Dual-core_Communication_Demo\SLAVE\obj/../Libraries/wch_libraries/Startup/startup_ch32v10x.S:78
  f0:	5280006f          	j	618 <TIM4_IRQHandler>
C:\Users\16917\Desktop\Dual-core_Communication_Demo\Dual-core_Communication_Demo\SLAVE\obj/../Libraries/wch_libraries/Startup/startup_ch32v10x.S:79
  f4:	f0dff06f          	j	0 <_sinit>
C:\Users\16917\Desktop\Dual-core_Communication_Demo\Dual-core_Communication_Demo\SLAVE\obj/../Libraries/wch_libraries/Startup/startup_ch32v10x.S:80
  f8:	f09ff06f          	j	0 <_sinit>
C:\Users\16917\Desktop\Dual-core_Communication_Demo\Dual-core_Communication_Demo\SLAVE\obj/../Libraries/wch_libraries/Startup/startup_ch32v10x.S:81
  fc:	f05ff06f          	j	0 <_sinit>
C:\Users\16917\Desktop\Dual-core_Communication_Demo\Dual-core_Communication_Demo\SLAVE\obj/../Libraries/wch_libraries/Startup/startup_ch32v10x.S:82
 100:	f01ff06f          	j	0 <_sinit>
C:\Users\16917\Desktop\Dual-core_Communication_Demo\Dual-core_Communication_Demo\SLAVE\obj/../Libraries/wch_libraries/Startup/startup_ch32v10x.S:83
 104:	efdff06f          	j	0 <_sinit>
C:\Users\16917\Desktop\Dual-core_Communication_Demo\Dual-core_Communication_Demo\SLAVE\obj/../Libraries/wch_libraries/Startup/startup_ch32v10x.S:84
 108:	ef9ff06f          	j	0 <_sinit>
C:\Users\16917\Desktop\Dual-core_Communication_Demo\Dual-core_Communication_Demo\SLAVE\obj/../Libraries/wch_libraries/Startup/startup_ch32v10x.S:85
 10c:	3400006f          	j	44c <USART1_IRQHandler>
C:\Users\16917\Desktop\Dual-core_Communication_Demo\Dual-core_Communication_Demo\SLAVE\obj/../Libraries/wch_libraries/Startup/startup_ch32v10x.S:86
 110:	34c0006f          	j	45c <USART2_IRQHandler>
C:\Users\16917\Desktop\Dual-core_Communication_Demo\Dual-core_Communication_Demo\SLAVE\obj/../Libraries/wch_libraries/Startup/startup_ch32v10x.S:87
 114:	3a20006f          	j	4b6 <USART3_IRQHandler>
C:\Users\16917\Desktop\Dual-core_Communication_Demo\Dual-core_Communication_Demo\SLAVE\obj/../Libraries/wch_libraries/Startup/startup_ch32v10x.S:88
 118:	1700006f          	j	288 <EXTI15_10_IRQHandler>
C:\Users\16917\Desktop\Dual-core_Communication_Demo\Dual-core_Communication_Demo\SLAVE\obj/../Libraries/wch_libraries/Startup/startup_ch32v10x.S:89
 11c:	ee5ff06f          	j	0 <_sinit>
C:\Users\16917\Desktop\Dual-core_Communication_Demo\Dual-core_Communication_Demo\SLAVE\obj/../Libraries/wch_libraries/Startup/startup_ch32v10x.S:90
 120:	ee1ff06f          	j	0 <_sinit>
C:\Users\16917\Desktop\Dual-core_Communication_Demo\Dual-core_Communication_Demo\SLAVE\obj/../Libraries/wch_libraries/Startup/startup_ch32v10x.S:91
 124:	eddff06f          	j	0 <_sinit>
	...

Disassembly of section .text:

00000140 <memset>:
memset():
     140:	433d                	li	t1,15
     142:	872a                	mv	a4,a0
     144:	02c37363          	bgeu	t1,a2,16a <memset+0x2a>
     148:	00f77793          	andi	a5,a4,15
     14c:	efbd                	bnez	a5,1ca <memset+0x8a>
     14e:	e5ad                	bnez	a1,1b8 <memset+0x78>
     150:	ff067693          	andi	a3,a2,-16
     154:	8a3d                	andi	a2,a2,15
     156:	96ba                	add	a3,a3,a4
     158:	c30c                	sw	a1,0(a4)
     15a:	c34c                	sw	a1,4(a4)
     15c:	c70c                	sw	a1,8(a4)
     15e:	c74c                	sw	a1,12(a4)
     160:	0741                	addi	a4,a4,16
     162:	fed76be3          	bltu	a4,a3,158 <memset+0x18>
     166:	e211                	bnez	a2,16a <memset+0x2a>
     168:	8082                	ret
     16a:	40c306b3          	sub	a3,t1,a2
     16e:	068a                	slli	a3,a3,0x2
     170:	00000297          	auipc	t0,0x0
     174:	9696                	add	a3,a3,t0
     176:	00a68067          	jr	10(a3)
     17a:	00b70723          	sb	a1,14(a4)
     17e:	00b706a3          	sb	a1,13(a4)
     182:	00b70623          	sb	a1,12(a4)
     186:	00b705a3          	sb	a1,11(a4)
     18a:	00b70523          	sb	a1,10(a4)
     18e:	00b704a3          	sb	a1,9(a4)
     192:	00b70423          	sb	a1,8(a4)
     196:	00b703a3          	sb	a1,7(a4)
     19a:	00b70323          	sb	a1,6(a4)
     19e:	00b702a3          	sb	a1,5(a4)
     1a2:	00b70223          	sb	a1,4(a4)
     1a6:	00b701a3          	sb	a1,3(a4)
     1aa:	00b70123          	sb	a1,2(a4)
     1ae:	00b700a3          	sb	a1,1(a4)
     1b2:	00b70023          	sb	a1,0(a4)
     1b6:	8082                	ret
     1b8:	0ff5f593          	andi	a1,a1,255
     1bc:	00859693          	slli	a3,a1,0x8
     1c0:	8dd5                	or	a1,a1,a3
     1c2:	01059693          	slli	a3,a1,0x10
     1c6:	8dd5                	or	a1,a1,a3
     1c8:	b761                	j	150 <memset+0x10>
     1ca:	00279693          	slli	a3,a5,0x2
     1ce:	00000297          	auipc	t0,0x0
     1d2:	9696                	add	a3,a3,t0
     1d4:	8286                	mv	t0,ra
     1d6:	fa8680e7          	jalr	-88(a3)
     1da:	8096                	mv	ra,t0
     1dc:	17c1                	addi	a5,a5,-16
     1de:	8f1d                	sub	a4,a4,a5
     1e0:	963e                	add	a2,a2,a5
     1e2:	f8c374e3          	bgeu	t1,a2,16a <memset+0x2a>
     1e6:	b7a5                	j	14e <memset+0xe>

000001e8 <EXTI0_IRQHandler>:
EXTI0_IRQHandler():
C:\Users\16917\Desktop\Dual-core_Communication_Demo\Dual-core_Communication_Demo\SLAVE\obj/../USER/isr.c:63
     1e8:	1141                	addi	sp,sp,-16
     1ea:	c622                	sw	s0,12(sp)
     1ec:	0800                	addi	s0,sp,16
C:\Users\16917\Desktop\Dual-core_Communication_Demo\Dual-core_Communication_Demo\SLAVE\obj/../USER/isr.c:66
     1ee:	0001                	nop
     1f0:	4432                	lw	s0,12(sp)
     1f2:	0141                	addi	sp,sp,16
     1f4:	30200073          	mret

000001f8 <EXTI1_IRQHandler>:
EXTI1_IRQHandler():
C:\Users\16917\Desktop\Dual-core_Communication_Demo\Dual-core_Communication_Demo\SLAVE\obj/../USER/isr.c:69
     1f8:	1141                	addi	sp,sp,-16
     1fa:	c622                	sw	s0,12(sp)
     1fc:	0800                	addi	s0,sp,16
C:\Users\16917\Desktop\Dual-core_Communication_Demo\Dual-core_Communication_Demo\SLAVE\obj/../USER/isr.c:70
     1fe:	4509                	li	a0,2
     200:	417000ef          	jal	ra,e16 <EXTI_GetITStatus>
     204:	872a                	mv	a4,a0
     206:	4785                	li	a5,1
     208:	02f71863          	bne	a4,a5,238 <EXTI1_IRQHandler+0x40>
C:\Users\16917\Desktop\Dual-core_Communication_Demo\Dual-core_Communication_Demo\SLAVE\obj/../USER/isr.c:72
     20c:	200007b7          	lui	a5,0x20000
     210:	0bc7a703          	lw	a4,188(a5) # 200000bc <camera_type>
     214:	4789                	li	a5,2
     216:	00f71563          	bne	a4,a5,220 <EXTI1_IRQHandler+0x28>
C:\Users\16917\Desktop\Dual-core_Communication_Demo\Dual-core_Communication_Demo\SLAVE\obj/../USER/isr.c:73
     21a:	5d7020ef          	jal	ra,2ff0 <ov7725_uart_vsync>
     21e:	a811                	j	232 <EXTI1_IRQHandler+0x3a>
C:\Users\16917\Desktop\Dual-core_Communication_Demo\Dual-core_Communication_Demo\SLAVE\obj/../USER/isr.c:74
     220:	200007b7          	lui	a5,0x20000
     224:	0bc7a703          	lw	a4,188(a5) # 200000bc <camera_type>
     228:	4785                	li	a5,1
     22a:	00f71463          	bne	a4,a5,232 <EXTI1_IRQHandler+0x3a>
C:\Users\16917\Desktop\Dual-core_Communication_Demo\Dual-core_Communication_Demo\SLAVE\obj/../USER/isr.c:75
     22e:	4ef020ef          	jal	ra,2f1c <mt9v03x_vsync>
C:\Users\16917\Desktop\Dual-core_Communication_Demo\Dual-core_Communication_Demo\SLAVE\obj/../USER/isr.c:76
     232:	4509                	li	a0,2
     234:	439000ef          	jal	ra,e6c <EXTI_ClearITPendingBit>
C:\Users\16917\Desktop\Dual-core_Communication_Demo\Dual-core_Communication_Demo\SLAVE\obj/../USER/isr.c:79
     238:	0001                	nop
     23a:	4432                	lw	s0,12(sp)
     23c:	0141                	addi	sp,sp,16
     23e:	30200073          	mret

00000242 <EXTI2_IRQHandler>:
EXTI2_IRQHandler():
C:\Users\16917\Desktop\Dual-core_Communication_Demo\Dual-core_Communication_Demo\SLAVE\obj/../USER/isr.c:82
     242:	1141                	addi	sp,sp,-16
     244:	c622                	sw	s0,12(sp)
     246:	0800                	addi	s0,sp,16
C:\Users\16917\Desktop\Dual-core_Communication_Demo\Dual-core_Communication_Demo\SLAVE\obj/../USER/isr.c:83
     248:	4511                	li	a0,4
     24a:	423000ef          	jal	ra,e6c <EXTI_ClearITPendingBit>
C:\Users\16917\Desktop\Dual-core_Communication_Demo\Dual-core_Communication_Demo\SLAVE\obj/../USER/isr.c:84
     24e:	0001                	nop
     250:	4432                	lw	s0,12(sp)
     252:	0141                	addi	sp,sp,16
     254:	30200073          	mret

00000258 <EXTI3_IRQHandler>:
EXTI3_IRQHandler():
C:\Users\16917\Desktop\Dual-core_Communication_Demo\Dual-core_Communication_Demo\SLAVE\obj/../USER/isr.c:87
     258:	1141                	addi	sp,sp,-16
     25a:	c622                	sw	s0,12(sp)
     25c:	0800                	addi	s0,sp,16
C:\Users\16917\Desktop\Dual-core_Communication_Demo\Dual-core_Communication_Demo\SLAVE\obj/../USER/isr.c:90
     25e:	0001                	nop
     260:	4432                	lw	s0,12(sp)
     262:	0141                	addi	sp,sp,16
     264:	30200073          	mret

00000268 <EXTI4_IRQHandler>:
EXTI4_IRQHandler():
C:\Users\16917\Desktop\Dual-core_Communication_Demo\Dual-core_Communication_Demo\SLAVE\obj/../USER/isr.c:93
     268:	1141                	addi	sp,sp,-16
     26a:	c622                	sw	s0,12(sp)
     26c:	0800                	addi	s0,sp,16
C:\Users\16917\Desktop\Dual-core_Communication_Demo\Dual-core_Communication_Demo\SLAVE\obj/../USER/isr.c:96
     26e:	0001                	nop
     270:	4432                	lw	s0,12(sp)
     272:	0141                	addi	sp,sp,16
     274:	30200073          	mret

00000278 <EXTI9_5_IRQHandler>:
EXTI9_5_IRQHandler():
C:\Users\16917\Desktop\Dual-core_Communication_Demo\Dual-core_Communication_Demo\SLAVE\obj/../USER/isr.c:99
     278:	1141                	addi	sp,sp,-16
     27a:	c622                	sw	s0,12(sp)
     27c:	0800                	addi	s0,sp,16
C:\Users\16917\Desktop\Dual-core_Communication_Demo\Dual-core_Communication_Demo\SLAVE\obj/../USER/isr.c:102
     27e:	0001                	nop
     280:	4432                	lw	s0,12(sp)
     282:	0141                	addi	sp,sp,16
     284:	30200073          	mret

00000288 <EXTI15_10_IRQHandler>:
EXTI15_10_IRQHandler():
C:\Users\16917\Desktop\Dual-core_Communication_Demo\Dual-core_Communication_Demo\SLAVE\obj/../USER/isr.c:105
     288:	1141                	addi	sp,sp,-16
     28a:	c622                	sw	s0,12(sp)
     28c:	0800                	addi	s0,sp,16
C:\Users\16917\Desktop\Dual-core_Communication_Demo\Dual-core_Communication_Demo\SLAVE\obj/../USER/isr.c:107
     28e:	0001                	nop
     290:	4432                	lw	s0,12(sp)
     292:	0141                	addi	sp,sp,16
     294:	30200073          	mret

00000298 <ADC1_2_IRQHandler>:
ADC1_2_IRQHandler():
C:\Users\16917\Desktop\Dual-core_Communication_Demo\Dual-core_Communication_Demo\SLAVE\obj/../USER/isr.c:110
     298:	1141                	addi	sp,sp,-16
     29a:	c622                	sw	s0,12(sp)
     29c:	0800                	addi	s0,sp,16
C:\Users\16917\Desktop\Dual-core_Communication_Demo\Dual-core_Communication_Demo\SLAVE\obj/../USER/isr.c:113
     29e:	0001                	nop
     2a0:	4432                	lw	s0,12(sp)
     2a2:	0141                	addi	sp,sp,16
     2a4:	30200073          	mret

000002a8 <TIM1_BRK_IRQHandler>:
TIM1_BRK_IRQHandler():
C:\Users\16917\Desktop\Dual-core_Communication_Demo\Dual-core_Communication_Demo\SLAVE\obj/../USER/isr.c:116
     2a8:	1141                	addi	sp,sp,-16
     2aa:	c622                	sw	s0,12(sp)
     2ac:	0800                	addi	s0,sp,16
C:\Users\16917\Desktop\Dual-core_Communication_Demo\Dual-core_Communication_Demo\SLAVE\obj/../USER/isr.c:117
     2ae:	08000593          	li	a1,128
     2b2:	400137b7          	lui	a5,0x40013
     2b6:	c0078513          	addi	a0,a5,-1024 # 40012c00 <_eusrstack+0x2000dc00>
     2ba:	2eb010ef          	jal	ra,1da4 <TIM_GetITStatus>
     2be:	87aa                	mv	a5,a0
     2c0:	cb89                	beqz	a5,2d2 <TIM1_BRK_IRQHandler+0x2a>
C:\Users\16917\Desktop\Dual-core_Communication_Demo\Dual-core_Communication_Demo\SLAVE\obj/../USER/isr.c:119
     2c2:	08000593          	li	a1,128
     2c6:	400137b7          	lui	a5,0x40013
     2ca:	c0078513          	addi	a0,a5,-1024 # 40012c00 <_eusrstack+0x2000dc00>
     2ce:	347010ef          	jal	ra,1e14 <TIM_ClearITPendingBit>
C:\Users\16917\Desktop\Dual-core_Communication_Demo\Dual-core_Communication_Demo\SLAVE\obj/../USER/isr.c:122
     2d2:	0001                	nop
     2d4:	4432                	lw	s0,12(sp)
     2d6:	0141                	addi	sp,sp,16
     2d8:	30200073          	mret

000002dc <TIM1_UP_IRQHandler>:
TIM1_UP_IRQHandler():
C:\Users\16917\Desktop\Dual-core_Communication_Demo\Dual-core_Communication_Demo\SLAVE\obj/../USER/isr.c:125
     2dc:	1141                	addi	sp,sp,-16
     2de:	c622                	sw	s0,12(sp)
     2e0:	0800                	addi	s0,sp,16
C:\Users\16917\Desktop\Dual-core_Communication_Demo\Dual-core_Communication_Demo\SLAVE\obj/../USER/isr.c:126
     2e2:	4585                	li	a1,1
     2e4:	400137b7          	lui	a5,0x40013
     2e8:	c0078513          	addi	a0,a5,-1024 # 40012c00 <_eusrstack+0x2000dc00>
     2ec:	2b9010ef          	jal	ra,1da4 <TIM_GetITStatus>
     2f0:	87aa                	mv	a5,a0
     2f2:	cb81                	beqz	a5,302 <TIM1_UP_IRQHandler+0x26>
C:\Users\16917\Desktop\Dual-core_Communication_Demo\Dual-core_Communication_Demo\SLAVE\obj/../USER/isr.c:128
     2f4:	4585                	li	a1,1
     2f6:	400137b7          	lui	a5,0x40013
     2fa:	c0078513          	addi	a0,a5,-1024 # 40012c00 <_eusrstack+0x2000dc00>
     2fe:	317010ef          	jal	ra,1e14 <TIM_ClearITPendingBit>
C:\Users\16917\Desktop\Dual-core_Communication_Demo\Dual-core_Communication_Demo\SLAVE\obj/../USER/isr.c:131
     302:	0001                	nop
     304:	4432                	lw	s0,12(sp)
     306:	0141                	addi	sp,sp,16
     308:	30200073          	mret

0000030c <TIM1_TRG_COM_IRQHandler>:
TIM1_TRG_COM_IRQHandler():
C:\Users\16917\Desktop\Dual-core_Communication_Demo\Dual-core_Communication_Demo\SLAVE\obj/../USER/isr.c:134
     30c:	1141                	addi	sp,sp,-16
     30e:	c622                	sw	s0,12(sp)
     310:	0800                	addi	s0,sp,16
C:\Users\16917\Desktop\Dual-core_Communication_Demo\Dual-core_Communication_Demo\SLAVE\obj/../USER/isr.c:135
     312:	04000593          	li	a1,64
     316:	400137b7          	lui	a5,0x40013
     31a:	c0078513          	addi	a0,a5,-1024 # 40012c00 <_eusrstack+0x2000dc00>
     31e:	287010ef          	jal	ra,1da4 <TIM_GetITStatus>
     322:	87aa                	mv	a5,a0
     324:	cb89                	beqz	a5,336 <TIM1_TRG_COM_IRQHandler+0x2a>
C:\Users\16917\Desktop\Dual-core_Communication_Demo\Dual-core_Communication_Demo\SLAVE\obj/../USER/isr.c:137
     326:	04000593          	li	a1,64
     32a:	400137b7          	lui	a5,0x40013
     32e:	c0078513          	addi	a0,a5,-1024 # 40012c00 <_eusrstack+0x2000dc00>
     332:	2e3010ef          	jal	ra,1e14 <TIM_ClearITPendingBit>
C:\Users\16917\Desktop\Dual-core_Communication_Demo\Dual-core_Communication_Demo\SLAVE\obj/../USER/isr.c:140
     336:	02000593          	li	a1,32
     33a:	400137b7          	lui	a5,0x40013
     33e:	c0078513          	addi	a0,a5,-1024 # 40012c00 <_eusrstack+0x2000dc00>
     342:	263010ef          	jal	ra,1da4 <TIM_GetITStatus>
     346:	87aa                	mv	a5,a0
     348:	cb89                	beqz	a5,35a <TIM1_TRG_COM_IRQHandler+0x4e>
C:\Users\16917\Desktop\Dual-core_Communication_Demo\Dual-core_Communication_Demo\SLAVE\obj/../USER/isr.c:142
     34a:	02000593          	li	a1,32
     34e:	400137b7          	lui	a5,0x40013
     352:	c0078513          	addi	a0,a5,-1024 # 40012c00 <_eusrstack+0x2000dc00>
     356:	2bf010ef          	jal	ra,1e14 <TIM_ClearITPendingBit>
C:\Users\16917\Desktop\Dual-core_Communication_Demo\Dual-core_Communication_Demo\SLAVE\obj/../USER/isr.c:145
     35a:	0001                	nop
     35c:	4432                	lw	s0,12(sp)
     35e:	0141                	addi	sp,sp,16
     360:	30200073          	mret

00000364 <TIM1_CC_IRQHandler>:
TIM1_CC_IRQHandler():
C:\Users\16917\Desktop\Dual-core_Communication_Demo\Dual-core_Communication_Demo\SLAVE\obj/../USER/isr.c:148
     364:	1141                	addi	sp,sp,-16
     366:	c622                	sw	s0,12(sp)
     368:	0800                	addi	s0,sp,16
C:\Users\16917\Desktop\Dual-core_Communication_Demo\Dual-core_Communication_Demo\SLAVE\obj/../USER/isr.c:149
     36a:	4589                	li	a1,2
     36c:	400137b7          	lui	a5,0x40013
     370:	c0078513          	addi	a0,a5,-1024 # 40012c00 <_eusrstack+0x2000dc00>
     374:	231010ef          	jal	ra,1da4 <TIM_GetITStatus>
     378:	87aa                	mv	a5,a0
     37a:	cb81                	beqz	a5,38a <TIM1_CC_IRQHandler+0x26>
C:\Users\16917\Desktop\Dual-core_Communication_Demo\Dual-core_Communication_Demo\SLAVE\obj/../USER/isr.c:151
     37c:	4589                	li	a1,2
     37e:	400137b7          	lui	a5,0x40013
     382:	c0078513          	addi	a0,a5,-1024 # 40012c00 <_eusrstack+0x2000dc00>
     386:	28f010ef          	jal	ra,1e14 <TIM_ClearITPendingBit>
C:\Users\16917\Desktop\Dual-core_Communication_Demo\Dual-core_Communication_Demo\SLAVE\obj/../USER/isr.c:154
     38a:	4591                	li	a1,4
     38c:	400137b7          	lui	a5,0x40013
     390:	c0078513          	addi	a0,a5,-1024 # 40012c00 <_eusrstack+0x2000dc00>
     394:	211010ef          	jal	ra,1da4 <TIM_GetITStatus>
     398:	87aa                	mv	a5,a0
     39a:	cb81                	beqz	a5,3aa <TIM1_CC_IRQHandler+0x46>
C:\Users\16917\Desktop\Dual-core_Communication_Demo\Dual-core_Communication_Demo\SLAVE\obj/../USER/isr.c:156
     39c:	4591                	li	a1,4
     39e:	400137b7          	lui	a5,0x40013
     3a2:	c0078513          	addi	a0,a5,-1024 # 40012c00 <_eusrstack+0x2000dc00>
     3a6:	26f010ef          	jal	ra,1e14 <TIM_ClearITPendingBit>
C:\Users\16917\Desktop\Dual-core_Communication_Demo\Dual-core_Communication_Demo\SLAVE\obj/../USER/isr.c:159
     3aa:	45a1                	li	a1,8
     3ac:	400137b7          	lui	a5,0x40013
     3b0:	c0078513          	addi	a0,a5,-1024 # 40012c00 <_eusrstack+0x2000dc00>
     3b4:	1f1010ef          	jal	ra,1da4 <TIM_GetITStatus>
     3b8:	87aa                	mv	a5,a0
     3ba:	cb81                	beqz	a5,3ca <TIM1_CC_IRQHandler+0x66>
C:\Users\16917\Desktop\Dual-core_Communication_Demo\Dual-core_Communication_Demo\SLAVE\obj/../USER/isr.c:161
     3bc:	45a1                	li	a1,8
     3be:	400137b7          	lui	a5,0x40013
     3c2:	c0078513          	addi	a0,a5,-1024 # 40012c00 <_eusrstack+0x2000dc00>
     3c6:	24f010ef          	jal	ra,1e14 <TIM_ClearITPendingBit>
C:\Users\16917\Desktop\Dual-core_Communication_Demo\Dual-core_Communication_Demo\SLAVE\obj/../USER/isr.c:164
     3ca:	45c1                	li	a1,16
     3cc:	400137b7          	lui	a5,0x40013
     3d0:	c0078513          	addi	a0,a5,-1024 # 40012c00 <_eusrstack+0x2000dc00>
     3d4:	1d1010ef          	jal	ra,1da4 <TIM_GetITStatus>
     3d8:	87aa                	mv	a5,a0
     3da:	cb81                	beqz	a5,3ea <TIM1_CC_IRQHandler+0x86>
C:\Users\16917\Desktop\Dual-core_Communication_Demo\Dual-core_Communication_Demo\SLAVE\obj/../USER/isr.c:166
     3dc:	45c1                	li	a1,16
     3de:	400137b7          	lui	a5,0x40013
     3e2:	c0078513          	addi	a0,a5,-1024 # 40012c00 <_eusrstack+0x2000dc00>
     3e6:	22f010ef          	jal	ra,1e14 <TIM_ClearITPendingBit>
C:\Users\16917\Desktop\Dual-core_Communication_Demo\Dual-core_Communication_Demo\SLAVE\obj/../USER/isr.c:169
     3ea:	0001                	nop
     3ec:	4432                	lw	s0,12(sp)
     3ee:	0141                	addi	sp,sp,16
     3f0:	30200073          	mret

000003f4 <TIM2_IRQHandler>:
TIM2_IRQHandler():
C:\Users\16917\Desktop\Dual-core_Communication_Demo\Dual-core_Communication_Demo\SLAVE\obj/../USER/isr.c:172
     3f4:	1141                	addi	sp,sp,-16
     3f6:	c622                	sw	s0,12(sp)
     3f8:	0800                	addi	s0,sp,16
C:\Users\16917\Desktop\Dual-core_Communication_Demo\Dual-core_Communication_Demo\SLAVE\obj/../USER/isr.c:174
     3fa:	4585                	li	a1,1
     3fc:	40000537          	lui	a0,0x40000
     400:	1a5010ef          	jal	ra,1da4 <TIM_GetITStatus>
     404:	87aa                	mv	a5,a0
     406:	c791                	beqz	a5,412 <TIM2_IRQHandler+0x1e>
C:\Users\16917\Desktop\Dual-core_Communication_Demo\Dual-core_Communication_Demo\SLAVE\obj/../USER/isr.c:176
     408:	4585                	li	a1,1
     40a:	40000537          	lui	a0,0x40000
     40e:	207010ef          	jal	ra,1e14 <TIM_ClearITPendingBit>
C:\Users\16917\Desktop\Dual-core_Communication_Demo\Dual-core_Communication_Demo\SLAVE\obj/../USER/isr.c:182
     412:	0001                	nop
     414:	4432                	lw	s0,12(sp)
     416:	0141                	addi	sp,sp,16
     418:	30200073          	mret

0000041c <TIM3_IRQHandler>:
TIM3_IRQHandler():
C:\Users\16917\Desktop\Dual-core_Communication_Demo\Dual-core_Communication_Demo\SLAVE\obj/../USER/isr.c:185
     41c:	1141                	addi	sp,sp,-16
     41e:	c622                	sw	s0,12(sp)
     420:	0800                	addi	s0,sp,16
C:\Users\16917\Desktop\Dual-core_Communication_Demo\Dual-core_Communication_Demo\SLAVE\obj/../USER/isr.c:186
     422:	4585                	li	a1,1
     424:	400007b7          	lui	a5,0x40000
     428:	40078513          	addi	a0,a5,1024 # 40000400 <_eusrstack+0x1fffb400>
     42c:	179010ef          	jal	ra,1da4 <TIM_GetITStatus>
     430:	87aa                	mv	a5,a0
     432:	cb81                	beqz	a5,442 <TIM3_IRQHandler+0x26>
C:\Users\16917\Desktop\Dual-core_Communication_Demo\Dual-core_Communication_Demo\SLAVE\obj/../USER/isr.c:188
     434:	4585                	li	a1,1
     436:	400007b7          	lui	a5,0x40000
     43a:	40078513          	addi	a0,a5,1024 # 40000400 <_eusrstack+0x1fffb400>
     43e:	1d7010ef          	jal	ra,1e14 <TIM_ClearITPendingBit>
C:\Users\16917\Desktop\Dual-core_Communication_Demo\Dual-core_Communication_Demo\SLAVE\obj/../USER/isr.c:191
     442:	0001                	nop
     444:	4432                	lw	s0,12(sp)
     446:	0141                	addi	sp,sp,16
     448:	30200073          	mret

0000044c <USART1_IRQHandler>:
USART1_IRQHandler():
C:\Users\16917\Desktop\Dual-core_Communication_Demo\Dual-core_Communication_Demo\SLAVE\obj/../USER/isr.c:203
     44c:	1141                	addi	sp,sp,-16
     44e:	c622                	sw	s0,12(sp)
     450:	0800                	addi	s0,sp,16
C:\Users\16917\Desktop\Dual-core_Communication_Demo\Dual-core_Communication_Demo\SLAVE\obj/../USER/isr.c:205
     452:	0001                	nop
     454:	4432                	lw	s0,12(sp)
     456:	0141                	addi	sp,sp,16
     458:	30200073          	mret

0000045c <USART2_IRQHandler>:
USART2_IRQHandler():
C:\Users\16917\Desktop\Dual-core_Communication_Demo\Dual-core_Communication_Demo\SLAVE\obj/../USER/isr.c:208
     45c:	1141                	addi	sp,sp,-16
     45e:	c622                	sw	s0,12(sp)
     460:	0800                	addi	s0,sp,16
C:\Users\16917\Desktop\Dual-core_Communication_Demo\Dual-core_Communication_Demo\SLAVE\obj/../USER/isr.c:209
     462:	52500593          	li	a1,1317
     466:	400047b7          	lui	a5,0x40004
     46a:	40078513          	addi	a0,a5,1024 # 40004400 <_eusrstack+0x1ffff400>
     46e:	5a1010ef          	jal	ra,220e <USART_GetITStatus>
     472:	87aa                	mv	a5,a0
     474:	cf85                	beqz	a5,4ac <USART2_IRQHandler+0x50>
C:\Users\16917\Desktop\Dual-core_Communication_Demo\Dual-core_Communication_Demo\SLAVE\obj/../USER/isr.c:211
     476:	52500593          	li	a1,1317
     47a:	400047b7          	lui	a5,0x40004
     47e:	40078513          	addi	a0,a5,1024 # 40004400 <_eusrstack+0x1ffff400>
     482:	68f010ef          	jal	ra,2310 <USART_ClearITPendingBit>
C:\Users\16917\Desktop\Dual-core_Communication_Demo\Dual-core_Communication_Demo\SLAVE\obj/../USER/isr.c:212
     486:	200007b7          	lui	a5,0x20000
     48a:	0bc7a703          	lw	a4,188(a5) # 200000bc <camera_type>
     48e:	4789                	li	a5,2
     490:	00f71563          	bne	a4,a5,49a <USART2_IRQHandler+0x3e>
C:\Users\16917\Desktop\Dual-core_Communication_Demo\Dual-core_Communication_Demo\SLAVE\obj/../USER/isr.c:213
     494:	2ed020ef          	jal	ra,2f80 <ov7725_cof_uart_interrupt>
C:\Users\16917\Desktop\Dual-core_Communication_Demo\Dual-core_Communication_Demo\SLAVE\obj/../USER/isr.c:217
     498:	a811                	j	4ac <USART2_IRQHandler+0x50>
C:\Users\16917\Desktop\Dual-core_Communication_Demo\Dual-core_Communication_Demo\SLAVE\obj/../USER/isr.c:214
     49a:	200007b7          	lui	a5,0x20000
     49e:	0bc7a703          	lw	a4,188(a5) # 200000bc <camera_type>
     4a2:	4785                	li	a5,1
     4a4:	00f71463          	bne	a4,a5,4ac <USART2_IRQHandler+0x50>
C:\Users\16917\Desktop\Dual-core_Communication_Demo\Dual-core_Communication_Demo\SLAVE\obj/../USER/isr.c:215
     4a8:	71c020ef          	jal	ra,2bc4 <mt9v03x_uart_callback>
C:\Users\16917\Desktop\Dual-core_Communication_Demo\Dual-core_Communication_Demo\SLAVE\obj/../USER/isr.c:217
     4ac:	0001                	nop
     4ae:	4432                	lw	s0,12(sp)
     4b0:	0141                	addi	sp,sp,16
     4b2:	30200073          	mret

000004b6 <USART3_IRQHandler>:
USART3_IRQHandler():
C:\Users\16917\Desktop\Dual-core_Communication_Demo\Dual-core_Communication_Demo\SLAVE\obj/../USER/isr.c:220
     4b6:	1141                	addi	sp,sp,-16
     4b8:	c622                	sw	s0,12(sp)
     4ba:	0800                	addi	s0,sp,16
C:\Users\16917\Desktop\Dual-core_Communication_Demo\Dual-core_Communication_Demo\SLAVE\obj/../USER/isr.c:222
     4bc:	0001                	nop
     4be:	4432                	lw	s0,12(sp)
     4c0:	0141                	addi	sp,sp,16
     4c2:	30200073          	mret

000004c6 <DMA1_Channel4_IRQHandler>:
DMA1_Channel4_IRQHandler():
C:\Users\16917\Desktop\Dual-core_Communication_Demo\Dual-core_Communication_Demo\SLAVE\obj/../USER/isr.c:225
     4c6:	1141                	addi	sp,sp,-16
     4c8:	c622                	sw	s0,12(sp)
     4ca:	0800                	addi	s0,sp,16
C:\Users\16917\Desktop\Dual-core_Communication_Demo\Dual-core_Communication_Demo\SLAVE\obj/../USER/isr.c:226
     4cc:	6509                	lui	a0,0x2
     4ce:	744000ef          	jal	ra,c12 <DMA_GetFlagStatus>
     4d2:	872a                	mv	a4,a0
     4d4:	4785                	li	a5,1
     4d6:	02f71863          	bne	a4,a5,506 <DMA1_Channel4_IRQHandler+0x40>
C:\Users\16917\Desktop\Dual-core_Communication_Demo\Dual-core_Communication_Demo\SLAVE\obj/../USER/isr.c:228
     4da:	6509                	lui	a0,0x2
     4dc:	792000ef          	jal	ra,c6e <DMA_ClearFlag>
C:\Users\16917\Desktop\Dual-core_Communication_Demo\Dual-core_Communication_Demo\SLAVE\obj/../USER/isr.c:229
     4e0:	200007b7          	lui	a5,0x20000
     4e4:	0bc7a703          	lw	a4,188(a5) # 200000bc <camera_type>
     4e8:	4789                	li	a5,2
     4ea:	00f71563          	bne	a4,a5,4f4 <DMA1_Channel4_IRQHandler+0x2e>
C:\Users\16917\Desktop\Dual-core_Communication_Demo\Dual-core_Communication_Demo\SLAVE\obj/../USER/isr.c:230
     4ee:	339020ef          	jal	ra,3026 <ov7725_uart_dma>
C:\Users\16917\Desktop\Dual-core_Communication_Demo\Dual-core_Communication_Demo\SLAVE\obj/../USER/isr.c:234
     4f2:	a811                	j	506 <DMA1_Channel4_IRQHandler+0x40>
C:\Users\16917\Desktop\Dual-core_Communication_Demo\Dual-core_Communication_Demo\SLAVE\obj/../USER/isr.c:231
     4f4:	200007b7          	lui	a5,0x20000
     4f8:	0bc7a703          	lw	a4,188(a5) # 200000bc <camera_type>
     4fc:	4785                	li	a5,1
     4fe:	00f71463          	bne	a4,a5,506 <DMA1_Channel4_IRQHandler+0x40>
C:\Users\16917\Desktop\Dual-core_Communication_Demo\Dual-core_Communication_Demo\SLAVE\obj/../USER/isr.c:232
     502:	251020ef          	jal	ra,2f52 <mt9v03x_dma>
C:\Users\16917\Desktop\Dual-core_Communication_Demo\Dual-core_Communication_Demo\SLAVE\obj/../USER/isr.c:234
     506:	0001                	nop
     508:	4432                	lw	s0,12(sp)
     50a:	0141                	addi	sp,sp,16
     50c:	30200073          	mret

00000510 <NMI_Handler>:
NMI_Handler():
C:\Users\16917\Desktop\Dual-core_Communication_Demo\Dual-core_Communication_Demo\SLAVE\obj/../USER/isr.c:243
     510:	1141                	addi	sp,sp,-16
     512:	c622                	sw	s0,12(sp)
     514:	0800                	addi	s0,sp,16
C:\Users\16917\Desktop\Dual-core_Communication_Demo\Dual-core_Communication_Demo\SLAVE\obj/../USER/isr.c:245
     516:	0001                	nop
     518:	4432                	lw	s0,12(sp)
     51a:	0141                	addi	sp,sp,16
     51c:	30200073          	mret

00000520 <HardFault_Handler>:
HardFault_Handler():
C:\Users\16917\Desktop\Dual-core_Communication_Demo\Dual-core_Communication_Demo\SLAVE\obj/../USER/isr.c:254
     520:	1141                	addi	sp,sp,-16
     522:	c622                	sw	s0,12(sp)
     524:	0800                	addi	s0,sp,16
C:\Users\16917\Desktop\Dual-core_Communication_Demo\Dual-core_Communication_Demo\SLAVE\obj/../USER/isr.c:256 (discriminator 1)
     526:	a001                	j	526 <HardFault_Handler+0x6>

00000528 <get_sensor_data>:
get_sensor_data():
D:\A_Dual\Dual-core_Communication_Demo\Dual-core_Communication_Demo\SLAVE\obj/../USER/main.c:44
//  @return     void
//  @since      v1.0
//  Sample usage:
//-------------------------------------------------------------------------------------------------------------------
void get_sensor_data(void)
{
     528:	1141                	addi	sp,sp,-16
     52a:	c606                	sw	ra,12(sp)
     52c:	c422                	sw	s0,8(sp)
     52e:	0800                	addi	s0,sp,16
D:\A_Dual\Dual-core_Communication_Demo\Dual-core_Communication_Demo\SLAVE\obj/../USER/main.c:46
    //
    slave_encoder_left=timer_quad_get(TIMER_2);
     530:	4505                	li	a0,1
     532:	5b2030ef          	jal	ra,3ae4 <timer_quad_get>
     536:	87aa                	mv	a5,a0
     538:	873e                	mv	a4,a5
     53a:	82e19423          	sh	a4,-2008(gp) # 200000e0 <_edata>
D:\A_Dual\Dual-core_Communication_Demo\Dual-core_Communication_Demo\SLAVE\obj/../USER/main.c:47
    slave_encoder_right=timer_quad_get(TIMER_3);
     53e:	4509                	li	a0,2
     540:	5a4030ef          	jal	ra,3ae4 <timer_quad_get>
     544:	87aa                	mv	a5,a0
     546:	873e                	mv	a4,a5
     548:	82e19523          	sh	a4,-2006(gp) # 200000e2 <slave_encoder_right>
D:\A_Dual\Dual-core_Communication_Demo\Dual-core_Communication_Demo\SLAVE\obj/../USER/main.c:48
    timer_quad_clear(TIMER_2);
     54c:	4505                	li	a0,1
     54e:	5c8030ef          	jal	ra,3b16 <timer_quad_clear>
D:\A_Dual\Dual-core_Communication_Demo\Dual-core_Communication_Demo\SLAVE\obj/../USER/main.c:49
    timer_quad_clear(TIMER_3);
     552:	4509                	li	a0,2
     554:	5c2030ef          	jal	ra,3b16 <timer_quad_clear>
D:\A_Dual\Dual-core_Communication_Demo\Dual-core_Communication_Demo\SLAVE\obj/../USER/main.c:50
}
     558:	0001                	nop
     55a:	40b2                	lw	ra,12(sp)
     55c:	4422                	lw	s0,8(sp)
     55e:	0141                	addi	sp,sp,16
     560:	8082                	ret

00000562 <process_data>:
process_data():
D:\A_Dual\Dual-core_Communication_Demo\Dual-core_Communication_Demo\SLAVE\obj/../USER/main.c:60
//  @return     void
//  @since      v1.0
//  Sample usage:
//-------------------------------------------------------------------------------------------------------------------
void process_data(void)
{
     562:	1141                	addi	sp,sp,-16
     564:	c622                	sw	s0,12(sp)
     566:	0800                	addi	s0,sp,16
D:\A_Dual\Dual-core_Communication_Demo\Dual-core_Communication_Demo\SLAVE\obj/../USER/main.c:61
    temp_buff[0] = 0xD8;                         //
     568:	fd800713          	li	a4,-40
     56c:	86e18023          	sb	a4,-1952(gp) # 20000118 <temp_buff>
D:\A_Dual\Dual-core_Communication_Demo\Dual-core_Communication_Demo\SLAVE\obj/../USER/main.c:62
    temp_buff[1] = 0xB0;                         //
     570:	86018793          	addi	a5,gp,-1952 # 20000118 <temp_buff>
     574:	fb000713          	li	a4,-80
     578:	00e780a3          	sb	a4,1(a5)
D:\A_Dual\Dual-core_Communication_Demo\Dual-core_Communication_Demo\SLAVE\obj/../USER/main.c:63
    temp_buff[2] = slave_encoder_left>>8;        //8
     57c:	82819783          	lh	a5,-2008(gp) # 200000e0 <_edata>
     580:	87a1                	srai	a5,a5,0x8
     582:	07c2                	slli	a5,a5,0x10
     584:	87c1                	srai	a5,a5,0x10
     586:	0ff7f713          	andi	a4,a5,255
     58a:	86018793          	addi	a5,gp,-1952 # 20000118 <temp_buff>
     58e:	00e78123          	sb	a4,2(a5)
D:\A_Dual\Dual-core_Communication_Demo\Dual-core_Communication_Demo\SLAVE\obj/../USER/main.c:64
    temp_buff[3] = slave_encoder_left&0xFF;      //8
     592:	82819783          	lh	a5,-2008(gp) # 200000e0 <_edata>
     596:	0ff7f713          	andi	a4,a5,255
     59a:	86018793          	addi	a5,gp,-1952 # 20000118 <temp_buff>
     59e:	00e781a3          	sb	a4,3(a5)
D:\A_Dual\Dual-core_Communication_Demo\Dual-core_Communication_Demo\SLAVE\obj/../USER/main.c:66

    temp_buff[4] = 0xB1;                         //
     5a2:	86018793          	addi	a5,gp,-1952 # 20000118 <temp_buff>
     5a6:	fb100713          	li	a4,-79
     5aa:	00e78223          	sb	a4,4(a5)
D:\A_Dual\Dual-core_Communication_Demo\Dual-core_Communication_Demo\SLAVE\obj/../USER/main.c:67
    temp_buff[5] = slave_encoder_right>>8;       //8
     5ae:	82a19783          	lh	a5,-2006(gp) # 200000e2 <slave_encoder_right>
     5b2:	87a1                	srai	a5,a5,0x8
     5b4:	07c2                	slli	a5,a5,0x10
     5b6:	87c1                	srai	a5,a5,0x10
     5b8:	0ff7f713          	andi	a4,a5,255
     5bc:	86018793          	addi	a5,gp,-1952 # 20000118 <temp_buff>
     5c0:	00e782a3          	sb	a4,5(a5)
D:\A_Dual\Dual-core_Communication_Demo\Dual-core_Communication_Demo\SLAVE\obj/../USER/main.c:68
    temp_buff[6] = slave_encoder_right&0xFF;     //8
     5c4:	82a19783          	lh	a5,-2006(gp) # 200000e2 <slave_encoder_right>
     5c8:	0ff7f713          	andi	a4,a5,255
     5cc:	86018793          	addi	a5,gp,-1952 # 20000118 <temp_buff>
     5d0:	00e78323          	sb	a4,6(a5)
D:\A_Dual\Dual-core_Communication_Demo\Dual-core_Communication_Demo\SLAVE\obj/../USER/main.c:70

    temp_buff[7] = 0xB2;                         //
     5d4:	86018793          	addi	a5,gp,-1952 # 20000118 <temp_buff>
     5d8:	fb200713          	li	a4,-78
     5dc:	00e783a3          	sb	a4,7(a5)
D:\A_Dual\Dual-core_Communication_Demo\Dual-core_Communication_Demo\SLAVE\obj/../USER/main.c:71
    temp_buff[8] = slave_position>>8;            //8
     5e0:	82c19783          	lh	a5,-2004(gp) # 200000e4 <slave_position>
     5e4:	87a1                	srai	a5,a5,0x8
     5e6:	07c2                	slli	a5,a5,0x10
     5e8:	87c1                	srai	a5,a5,0x10
     5ea:	0ff7f713          	andi	a4,a5,255
     5ee:	86018793          	addi	a5,gp,-1952 # 20000118 <temp_buff>
     5f2:	00e78423          	sb	a4,8(a5)
D:\A_Dual\Dual-core_Communication_Demo\Dual-core_Communication_Demo\SLAVE\obj/../USER/main.c:72
    temp_buff[9] = slave_position&0xFF;          //8
     5f6:	82c19783          	lh	a5,-2004(gp) # 200000e4 <slave_position>
     5fa:	0ff7f713          	andi	a4,a5,255
     5fe:	86018793          	addi	a5,gp,-1952 # 20000118 <temp_buff>
     602:	00e784a3          	sb	a4,9(a5)
D:\A_Dual\Dual-core_Communication_Demo\Dual-core_Communication_Demo\SLAVE\obj/../USER/main.c:74

    temp_buff[10] = 0xEE;                        //
     606:	86018793          	addi	a5,gp,-1952 # 20000118 <temp_buff>
     60a:	5739                	li	a4,-18
     60c:	00e78523          	sb	a4,10(a5)
D:\A_Dual\Dual-core_Communication_Demo\Dual-core_Communication_Demo\SLAVE\obj/../USER/main.c:75
}
     610:	0001                	nop
     612:	4432                	lw	s0,12(sp)
     614:	0141                	addi	sp,sp,16
     616:	8082                	ret

00000618 <TIM4_IRQHandler>:
TIM4_IRQHandler():
D:\A_Dual\Dual-core_Communication_Demo\Dual-core_Communication_Demo\SLAVE\obj/../USER/main.c:86
//  @since      v1.0
//  Sample usage:
//-------------------------------------------------------------------------------------------------------------------
void TIM4_IRQHandler(void) __attribute__((interrupt("WCH-Interrupt-fast")));
void TIM4_IRQHandler(void)
{
     618:	1141                	addi	sp,sp,-16
     61a:	c622                	sw	s0,12(sp)
     61c:	0800                	addi	s0,sp,16
D:\A_Dual\Dual-core_Communication_Demo\Dual-core_Communication_Demo\SLAVE\obj/../USER/main.c:87
    if(TIM_GetITStatus(TIM4, TIM_IT_Update) != RESET)
     61e:	4585                	li	a1,1
     620:	400017b7          	lui	a5,0x40001
     624:	80078513          	addi	a0,a5,-2048 # 40000800 <_eusrstack+0x1fffb800>
     628:	77c010ef          	jal	ra,1da4 <TIM_GetITStatus>
     62c:	87aa                	mv	a5,a0
     62e:	cf85                	beqz	a5,666 <TIM4_IRQHandler+0x4e>
D:\A_Dual\Dual-core_Communication_Demo\Dual-core_Communication_Demo\SLAVE\obj/../USER/main.c:89
    {
        TIM_ClearITPendingBit(TIM4, TIM_IT_Update);
     630:	4585                	li	a1,1
     632:	400017b7          	lui	a5,0x40001
     636:	80078513          	addi	a0,a5,-2048 # 40000800 <_eusrstack+0x1fffb800>
     63a:	7da010ef          	jal	ra,1e14 <TIM_ClearITPendingBit>
D:\A_Dual\Dual-core_Communication_Demo\Dual-core_Communication_Demo\SLAVE\obj/../USER/main.c:90
        GPIO_PIN_SET(A0);                           //A0
     63e:	6799                	lui	a5,0x6
     640:	1147a783          	lw	a5,276(a5) # 6114 <GPION>
     644:	873e                	mv	a4,a5
     646:	4785                	li	a5,1
     648:	cb1c                	sw	a5,16(a4)
D:\A_Dual\Dual-core_Communication_Demo\Dual-core_Communication_Demo\SLAVE\obj/../USER/main.c:92

        get_sensor_data();                          //
     64a:	3df9                	jal	528 <get_sensor_data>
D:\A_Dual\Dual-core_Communication_Demo\Dual-core_Communication_Demo\SLAVE\obj/../USER/main.c:93
        process_data();                             //temp_buff
     64c:	3f19                	jal	562 <process_data>
D:\A_Dual\Dual-core_Communication_Demo\Dual-core_Communication_Demo\SLAVE\obj/../USER/main.c:94
        uart_putbuff(UART_3, temp_buff, LINE_LEN);  //3
     64e:	462d                	li	a2,11
     650:	86018593          	addi	a1,gp,-1952 # 20000118 <temp_buff>
     654:	4509                	li	a0,2
     656:	347030ef          	jal	ra,419c <uart_putbuff>
D:\A_Dual\Dual-core_Communication_Demo\Dual-core_Communication_Demo\SLAVE\obj/../USER/main.c:96

        GPIO_PIN_RESET(A0);                         //A0
     65a:	6799                	lui	a5,0x6
     65c:	1147a783          	lw	a5,276(a5) # 6114 <GPION>
     660:	873e                	mv	a4,a5
     662:	4785                	li	a5,1
     664:	cb5c                	sw	a5,20(a4)
D:\A_Dual\Dual-core_Communication_Demo\Dual-core_Communication_Demo\SLAVE\obj/../USER/main.c:98
    }
}
     666:	0001                	nop
     668:	4432                	lw	s0,12(sp)
     66a:	0141                	addi	sp,sp,16
     66c:	30200073          	mret

00000670 <main>:
main():
D:\A_Dual\Dual-core_Communication_Demo\Dual-core_Communication_Demo\SLAVE\obj/../USER/main.c:101

int main(void)
{
     670:	b2010113          	addi	sp,sp,-1248
     674:	4c112e23          	sw	ra,1244(sp)
     678:	4c812c23          	sw	s0,1240(sp)
     67c:	4e010413          	addi	s0,sp,1248
     680:	7379                	lui	t1,0xffffe
     682:	911a                	add	sp,sp,t1
D:\A_Dual\Dual-core_Communication_Demo\Dual-core_Communication_Demo\SLAVE\obj/../USER/main.c:102
    DisableGlobalIRQ();
     684:	797020ef          	jal	ra,361a <DisableGlobalIRQ>
D:\A_Dual\Dual-core_Communication_Demo\Dual-core_Communication_Demo\SLAVE\obj/../USER/main.c:103
    board_init();           //MPU  
     688:	3ab030ef          	jal	ra,4232 <board_init>
D:\A_Dual\Dual-core_Communication_Demo\Dual-core_Communication_Demo\SLAVE\obj/../USER/main.c:105

    gpio_init(A0, GPO, 0, GPIO_PIN_CONFIG);                 //
     68c:	31000693          	li	a3,784
     690:	4601                	li	a2,0
     692:	4585                	li	a1,1
     694:	4501                	li	a0,0
     696:	463020ef          	jal	ra,32f8 <gpio_init>
D:\A_Dual\Dual-core_Communication_Demo\Dual-core_Communication_Demo\SLAVE\obj/../USER/main.c:106
    uart_init(UART_3, 460800, UART3_TX_B10, UART3_RX_B11);  //3460800
     69a:	02100693          	li	a3,33
     69e:	02000613          	li	a2,32
     6a2:	000717b7          	lui	a5,0x71
     6a6:	80078593          	addi	a1,a5,-2048 # 70800 <_data_lma+0x6a5b8>
     6aa:	4509                	li	a0,2
     6ac:	197030ef          	jal	ra,4042 <uart_init>
D:\A_Dual\Dual-core_Communication_Demo\Dual-core_Communication_Demo\SLAVE\obj/../USER/main.c:107
    timer_pit_interrupt_ms(TIMER_4, 5);                     //4
     6b0:	4595                	li	a1,5
     6b2:	450d                	li	a0,3
     6b4:	7db020ef          	jal	ra,368e <timer_pit_interrupt_ms>
D:\A_Dual\Dual-core_Communication_Demo\Dual-core_Communication_Demo\SLAVE\obj/../USER/main.c:109

    timer_quad_init(TIMER_2,TIMER2_CHA_A15,TIMER2_CHB_B3);//12
     6b8:	4615                	li	a2,5
     6ba:	4591                	li	a1,4
     6bc:	4505                	li	a0,1
     6be:	2ca030ef          	jal	ra,3988 <timer_quad_init>
D:\A_Dual\Dual-core_Communication_Demo\Dual-core_Communication_Demo\SLAVE\obj/../USER/main.c:110
    timer_quad_init(TIMER_3,TIMER3_CHA_B4,TIMER3_CHB_B5);//23
     6c2:	462d                	li	a2,11
     6c4:	45a9                	li	a1,10
     6c6:	4509                	li	a0,2
     6c8:	2c0030ef          	jal	ra,3988 <timer_quad_init>
D:\A_Dual\Dual-core_Communication_Demo\Dual-core_Communication_Demo\SLAVE\obj/../USER/main.c:112

    mt9v03x_init();
     6cc:	7d0020ef          	jal	ra,2e9c <mt9v03x_init>
D:\A_Dual\Dual-core_Communication_Demo\Dual-core_Communication_Demo\SLAVE\obj/../USER/main.c:113
    ips114_init();
     6d0:	5a3010ef          	jal	ra,2472 <ips114_init>
D:\A_Dual\Dual-core_Communication_Demo\Dual-core_Communication_Demo\SLAVE\obj/../USER/main.c:114
    EnableGlobalIRQ(0);
     6d4:	4501                	li	a0,0
     6d6:	78d020ef          	jal	ra,3662 <EnableGlobalIRQ>
D:\A_Dual\Dual-core_Communication_Demo\Dual-core_Communication_Demo\SLAVE\obj/../USER/main.c:118
    uint8 post_image[MT9V03X_H][MT9V03X_W];
    while(1)
    {
        if(mt9v03x_finish_flag==1)
     6da:	8351c703          	lbu	a4,-1995(gp) # 200000ed <mt9v03x_finish_flag>
     6de:	4785                	li	a5,1
     6e0:	fef71de3          	bne	a4,a5,6da <main+0x6a>
D:\A_Dual\Dual-core_Communication_Demo\Dual-core_Communication_Demo\SLAVE\obj/../USER/main.c:120
        {
            trackBorder_Get();
     6e4:	5cd030ef          	jal	ra,44b0 <trackBorder_Get>
D:\A_Dual\Dual-core_Communication_Demo\Dual-core_Communication_Demo\SLAVE\obj/../USER/main.c:121
            slave_position=centre_line_get();
     6e8:	05a040ef          	jal	ra,4742 <centre_line_get>
     6ec:	87aa                	mv	a5,a0
     6ee:	873e                	mv	a4,a5
     6f0:	82e19623          	sh	a4,-2004(gp) # 200000e4 <slave_position>
D:\A_Dual\Dual-core_Communication_Demo\Dual-core_Communication_Demo\SLAVE\obj/../USER/main.c:122
            for(int i=0;i<MT9V03X_H;i++)
     6f4:	fe042623          	sw	zero,-20(s0)
     6f8:	a851                	j	78c <main+0x11c>
D:\A_Dual\Dual-core_Communication_Demo\Dual-core_Communication_Demo\SLAVE\obj/../USER/main.c:123
                for(int j=0;j<MT9V03X_W;j++)
     6fa:	fe042423          	sw	zero,-24(s0)
     6fe:	a8a5                	j	776 <main+0x106>
D:\A_Dual\Dual-core_Communication_Demo\Dual-core_Communication_Demo\SLAVE\obj/../USER/main.c:125
                {
                    if(mt9v03x_image[i][j]>100)
     700:	200007b7          	lui	a5,0x20000
     704:	fec42683          	lw	a3,-20(s0)
     708:	0bc00713          	li	a4,188
     70c:	02e68733          	mul	a4,a3,a4
     710:	12478793          	addi	a5,a5,292 # 20000124 <mt9v03x_image>
     714:	973e                	add	a4,a4,a5
     716:	fe842783          	lw	a5,-24(s0)
     71a:	97ba                	add	a5,a5,a4
     71c:	0007c703          	lbu	a4,0(a5)
     720:	06400793          	li	a5,100
     724:	02e7f463          	bgeu	a5,a4,74c <main+0xdc>
D:\A_Dual\Dual-core_Communication_Demo\Dual-core_Communication_Demo\SLAVE\obj/../USER/main.c:126
                        post_image[i][j]=255;
     728:	77f9                	lui	a5,0xffffe
     72a:	ff040713          	addi	a4,s0,-16
     72e:	973e                	add	a4,a4,a5
     730:	fec42683          	lw	a3,-20(s0)
     734:	0bc00793          	li	a5,188
     738:	02f687b3          	mul	a5,a3,a5
     73c:	973e                	add	a4,a4,a5
     73e:	fe842783          	lw	a5,-24(s0)
     742:	97ba                	add	a5,a5,a4
     744:	577d                	li	a4,-1
     746:	b2e78e23          	sb	a4,-1220(a5) # ffffdb3c <_eusrstack+0xdfff8b3c>
     74a:	a00d                	j	76c <main+0xfc>
D:\A_Dual\Dual-core_Communication_Demo\Dual-core_Communication_Demo\SLAVE\obj/../USER/main.c:128
                    else
                        post_image[i][j]=0;
     74c:	77f9                	lui	a5,0xffffe
     74e:	ff040713          	addi	a4,s0,-16
     752:	973e                	add	a4,a4,a5
     754:	fec42683          	lw	a3,-20(s0)
     758:	0bc00793          	li	a5,188
     75c:	02f687b3          	mul	a5,a3,a5
     760:	973e                	add	a4,a4,a5
     762:	fe842783          	lw	a5,-24(s0)
     766:	97ba                	add	a5,a5,a4
     768:	b2078e23          	sb	zero,-1220(a5) # ffffdb3c <_eusrstack+0xdfff8b3c>
D:\A_Dual\Dual-core_Communication_Demo\Dual-core_Communication_Demo\SLAVE\obj/../USER/main.c:123 (discriminator 2)
                for(int j=0;j<MT9V03X_W;j++)
     76c:	fe842783          	lw	a5,-24(s0)
     770:	0785                	addi	a5,a5,1
     772:	fef42423          	sw	a5,-24(s0)
D:\A_Dual\Dual-core_Communication_Demo\Dual-core_Communication_Demo\SLAVE\obj/../USER/main.c:123 (discriminator 1)
     776:	fe842703          	lw	a4,-24(s0)
     77a:	0bb00793          	li	a5,187
     77e:	f8e7d1e3          	bge	a5,a4,700 <main+0x90>
D:\A_Dual\Dual-core_Communication_Demo\Dual-core_Communication_Demo\SLAVE\obj/../USER/main.c:122 (discriminator 2)
            for(int i=0;i<MT9V03X_H;i++)
     782:	fec42783          	lw	a5,-20(s0)
     786:	0785                	addi	a5,a5,1
     788:	fef42623          	sw	a5,-20(s0)
D:\A_Dual\Dual-core_Communication_Demo\Dual-core_Communication_Demo\SLAVE\obj/../USER/main.c:122 (discriminator 1)
     78c:	fec42703          	lw	a4,-20(s0)
     790:	03100793          	li	a5,49
     794:	f6e7d3e3          	bge	a5,a4,6fa <main+0x8a>
D:\A_Dual\Dual-core_Communication_Demo\Dual-core_Communication_Demo\SLAVE\obj/../USER/main.c:130
                }
            ips114_displayimage032_zoom1(mt9v03x_image[0],MT9V03X_W,MT9V03X_H,0,0,MT9V03X_W,MT9V03X_H);
     798:	03200813          	li	a6,50
     79c:	0bc00793          	li	a5,188
     7a0:	4701                	li	a4,0
     7a2:	4681                	li	a3,0
     7a4:	03200613          	li	a2,50
     7a8:	0bc00593          	li	a1,188
     7ac:	20000537          	lui	a0,0x20000
     7b0:	12450513          	addi	a0,a0,292 # 20000124 <mt9v03x_image>
     7b4:	25a020ef          	jal	ra,2a0e <ips114_displayimage032_zoom1>
D:\A_Dual\Dual-core_Communication_Demo\Dual-core_Communication_Demo\SLAVE\obj/../USER/main.c:131
            for(int i=High-1;i>=0;i--)
     7b8:	03100793          	li	a5,49
     7bc:	fef42223          	sw	a5,-28(s0)
     7c0:	a089                	j	802 <__stack_size+0x2>
D:\A_Dual\Dual-core_Communication_Demo\Dual-core_Communication_Demo\SLAVE\obj/../USER/main.c:132 (discriminator 3)
                post_image[i][Border[CENTRE][i]]=0;
     7c2:	200027b7          	lui	a5,0x20002
     7c6:	fe442703          	lw	a4,-28(s0)
     7ca:	03270713          	addi	a4,a4,50
     7ce:	0706                	slli	a4,a4,0x1
     7d0:	5e878793          	addi	a5,a5,1512 # 200025e8 <Border>
     7d4:	97ba                	add	a5,a5,a4
     7d6:	00079783          	lh	a5,0(a5)
     7da:	863e                	mv	a2,a5
     7dc:	77f9                	lui	a5,0xffffe
     7de:	ff040713          	addi	a4,s0,-16
     7e2:	973e                	add	a4,a4,a5
     7e4:	fe442683          	lw	a3,-28(s0)
     7e8:	0bc00793          	li	a5,188
     7ec:	02f687b3          	mul	a5,a3,a5
     7f0:	97ba                	add	a5,a5,a4
     7f2:	97b2                	add	a5,a5,a2
     7f4:	b2078e23          	sb	zero,-1220(a5) # ffffdb3c <_eusrstack+0xdfff8b3c>
D:\A_Dual\Dual-core_Communication_Demo\Dual-core_Communication_Demo\SLAVE\obj/../USER/main.c:131 (discriminator 3)
            for(int i=High-1;i>=0;i--)
     7f8:	fe442783          	lw	a5,-28(s0)
     7fc:	17fd                	addi	a5,a5,-1
     7fe:	fef42223          	sw	a5,-28(s0)
D:\A_Dual\Dual-core_Communication_Demo\Dual-core_Communication_Demo\SLAVE\obj/../USER/main.c:131 (discriminator 1)
     802:	fe442783          	lw	a5,-28(s0)
     806:	fa07dee3          	bgez	a5,7c2 <main+0x152>
D:\A_Dual\Dual-core_Communication_Demo\Dual-core_Communication_Demo\SLAVE\obj/../USER/main.c:133
            ips114_displayimage032_zoom1(post_image[0],MT9V03X_W,MT9V03X_H,0,MT9V03X_H+1,MT9V03X_W,MT9V03X_H);
     80a:	77f9                	lui	a5,0xffffe
     80c:	b3c78793          	addi	a5,a5,-1220 # ffffdb3c <_eusrstack+0xdfff8b3c>
     810:	ff040713          	addi	a4,s0,-16
     814:	00f70533          	add	a0,a4,a5
     818:	03200813          	li	a6,50
     81c:	0bc00793          	li	a5,188
     820:	03300713          	li	a4,51
     824:	4681                	li	a3,0
     826:	03200613          	li	a2,50
     82a:	0bc00593          	li	a1,188
     82e:	1e0020ef          	jal	ra,2a0e <ips114_displayimage032_zoom1>
D:\A_Dual\Dual-core_Communication_Demo\Dual-core_Communication_Demo\SLAVE\obj/../USER/main.c:134
            ips114_showint16(0,7,slave_position);
     832:	82c19783          	lh	a5,-2004(gp) # 200000e4 <slave_position>
     836:	863e                	mv	a2,a5
     838:	459d                	li	a1,7
     83a:	4501                	li	a0,0
     83c:	05c020ef          	jal	ra,2898 <ips114_showint16>
D:\A_Dual\Dual-core_Communication_Demo\Dual-core_Communication_Demo\SLAVE\obj/../USER/main.c:135
            ips114_showint16(0,8,validLine);
     840:	84a19783          	lh	a5,-1974(gp) # 20000102 <validLine>
     844:	863e                	mv	a2,a5
     846:	45a1                	li	a1,8
     848:	4501                	li	a0,0
     84a:	04e020ef          	jal	ra,2898 <ips114_showint16>
D:\A_Dual\Dual-core_Communication_Demo\Dual-core_Communication_Demo\SLAVE\obj/../USER/main.c:136
            mt9v03x_finish_flag=0;
     84e:	82018aa3          	sb	zero,-1995(gp) # 200000ed <mt9v03x_finish_flag>
D:\A_Dual\Dual-core_Communication_Demo\Dual-core_Communication_Demo\SLAVE\obj/../USER/main.c:118
        if(mt9v03x_finish_flag==1)
     852:	b561                	j	6da <main+0x6a>

00000854 <handle_reset>:
handle_reset():
C:\Users\16917\Desktop\Dual-core_Communication_Demo\Dual-core_Communication_Demo\SLAVE\obj/../Libraries/wch_libraries/Startup/startup_ch32v10x.S:147
     854:	20000197          	auipc	gp,0x20000
     858:	06418193          	addi	gp,gp,100 # 200008b8 <__global_pointer$>
C:\Users\16917\Desktop\Dual-core_Communication_Demo\Dual-core_Communication_Demo\SLAVE\obj/../Libraries/wch_libraries/Startup/startup_ch32v10x.S:150
     85c:	20004117          	auipc	sp,0x20004
     860:	7a410113          	addi	sp,sp,1956 # 20005000 <_eusrstack>
C:\Users\16917\Desktop\Dual-core_Communication_Demo\Dual-core_Communication_Demo\SLAVE\obj/../Libraries/wch_libraries/Startup/startup_ch32v10x.S:153
     864:	00006517          	auipc	a0,0x6
     868:	9e450513          	addi	a0,a0,-1564 # 6248 <_data_lma>
C:\Users\16917\Desktop\Dual-core_Communication_Demo\Dual-core_Communication_Demo\SLAVE\obj/../Libraries/wch_libraries/Startup/startup_ch32v10x.S:154
     86c:	1ffff597          	auipc	a1,0x1ffff
     870:	79458593          	addi	a1,a1,1940 # 20000000 <_data_vma>
C:\Users\16917\Desktop\Dual-core_Communication_Demo\Dual-core_Communication_Demo\SLAVE\obj/../Libraries/wch_libraries/Startup/startup_ch32v10x.S:155
     874:	82818613          	addi	a2,gp,-2008 # 200000e0 <_edata>
C:\Users\16917\Desktop\Dual-core_Communication_Demo\Dual-core_Communication_Demo\SLAVE\obj/../Libraries/wch_libraries/Startup/startup_ch32v10x.S:156
     878:	00c5fa63          	bgeu	a1,a2,88c <handle_reset+0x38>
C:\Users\16917\Desktop\Dual-core_Communication_Demo\Dual-core_Communication_Demo\SLAVE\obj/../Libraries/wch_libraries/Startup/startup_ch32v10x.S:158
     87c:	00052283          	lw	t0,0(a0)
C:\Users\16917\Desktop\Dual-core_Communication_Demo\Dual-core_Communication_Demo\SLAVE\obj/../Libraries/wch_libraries/Startup/startup_ch32v10x.S:159
     880:	0055a023          	sw	t0,0(a1)
C:\Users\16917\Desktop\Dual-core_Communication_Demo\Dual-core_Communication_Demo\SLAVE\obj/../Libraries/wch_libraries/Startup/startup_ch32v10x.S:160
     884:	0511                	addi	a0,a0,4
C:\Users\16917\Desktop\Dual-core_Communication_Demo\Dual-core_Communication_Demo\SLAVE\obj/../Libraries/wch_libraries/Startup/startup_ch32v10x.S:161
     886:	0591                	addi	a1,a1,4
C:\Users\16917\Desktop\Dual-core_Communication_Demo\Dual-core_Communication_Demo\SLAVE\obj/../Libraries/wch_libraries/Startup/startup_ch32v10x.S:162
     888:	fec5eae3          	bltu	a1,a2,87c <handle_reset+0x28>
C:\Users\16917\Desktop\Dual-core_Communication_Demo\Dual-core_Communication_Demo\SLAVE\obj/../Libraries/wch_libraries/Startup/startup_ch32v10x.S:165
     88c:	82818513          	addi	a0,gp,-2008 # 200000e0 <_edata>
C:\Users\16917\Desktop\Dual-core_Communication_Demo\Dual-core_Communication_Demo\SLAVE\obj/../Libraries/wch_libraries/Startup/startup_ch32v10x.S:166
     890:	20002597          	auipc	a1,0x20002
     894:	e8858593          	addi	a1,a1,-376 # 20002718 <_ebss>
C:\Users\16917\Desktop\Dual-core_Communication_Demo\Dual-core_Communication_Demo\SLAVE\obj/../Libraries/wch_libraries/Startup/startup_ch32v10x.S:167
     898:	00b57763          	bgeu	a0,a1,8a6 <handle_reset+0x52>
C:\Users\16917\Desktop\Dual-core_Communication_Demo\Dual-core_Communication_Demo\SLAVE\obj/../Libraries/wch_libraries/Startup/startup_ch32v10x.S:169
     89c:	00052023          	sw	zero,0(a0)
C:\Users\16917\Desktop\Dual-core_Communication_Demo\Dual-core_Communication_Demo\SLAVE\obj/../Libraries/wch_libraries/Startup/startup_ch32v10x.S:170
     8a0:	0511                	addi	a0,a0,4
C:\Users\16917\Desktop\Dual-core_Communication_Demo\Dual-core_Communication_Demo\SLAVE\obj/../Libraries/wch_libraries/Startup/startup_ch32v10x.S:171
     8a2:	feb56de3          	bltu	a0,a1,89c <handle_reset+0x48>
C:\Users\16917\Desktop\Dual-core_Communication_Demo\Dual-core_Communication_Demo\SLAVE\obj/../Libraries/wch_libraries/Startup/startup_ch32v10x.S:174
     8a6:	08800293          	li	t0,136
C:\Users\16917\Desktop\Dual-core_Communication_Demo\Dual-core_Communication_Demo\SLAVE\obj/../Libraries/wch_libraries/Startup/startup_ch32v10x.S:175
     8aa:	3002a073          	csrs	mstatus,t0
C:\Users\16917\Desktop\Dual-core_Communication_Demo\Dual-core_Communication_Demo\SLAVE\obj/../Libraries/wch_libraries/Startup/startup_ch32v10x.S:176
     8ae:	fffff297          	auipc	t0,0xfffff
     8b2:	78a28293          	addi	t0,t0,1930 # 38 <_einit>
C:\Users\16917\Desktop\Dual-core_Communication_Demo\Dual-core_Communication_Demo\SLAVE\obj/../Libraries/wch_libraries/Startup/startup_ch32v10x.S:177
     8b6:	0012e293          	ori	t0,t0,1
C:\Users\16917\Desktop\Dual-core_Communication_Demo\Dual-core_Communication_Demo\SLAVE\obj/../Libraries/wch_libraries/Startup/startup_ch32v10x.S:178
     8ba:	30529073          	csrw	mtvec,t0
C:\Users\16917\Desktop\Dual-core_Communication_Demo\Dual-core_Communication_Demo\SLAVE\obj/../Libraries/wch_libraries/Startup/startup_ch32v10x.S:180
     8be:	375030ef          	jal	ra,4432 <SystemInit>
C:\Users\16917\Desktop\Dual-core_Communication_Demo\Dual-core_Communication_Demo\SLAVE\obj/../Libraries/wch_libraries/Startup/startup_ch32v10x.S:181
     8c2:	00000297          	auipc	t0,0x0
     8c6:	dae28293          	addi	t0,t0,-594 # 670 <main>
C:\Users\16917\Desktop\Dual-core_Communication_Demo\Dual-core_Communication_Demo\SLAVE\obj/../Libraries/wch_libraries/Startup/startup_ch32v10x.S:182
     8ca:	34129073          	csrw	mepc,t0
C:\Users\16917\Desktop\Dual-core_Communication_Demo\Dual-core_Communication_Demo\SLAVE\obj/../Libraries/wch_libraries/Startup/startup_ch32v10x.S:183
     8ce:	30200073          	mret

000008d2 <DMA_DeInit>:
DMA_DeInit():
C:\Users\16917\Desktop\Dual-core_Communication_Demo\Dual-core_Communication_Demo\SLAVE\obj/../Libraries/wch_libraries/Peripheral/ch32v10x_dma.c:44
     8d2:	1101                	addi	sp,sp,-32
     8d4:	ce22                	sw	s0,28(sp)
     8d6:	1000                	addi	s0,sp,32
     8d8:	fea42623          	sw	a0,-20(s0)
C:\Users\16917\Desktop\Dual-core_Communication_Demo\Dual-core_Communication_Demo\SLAVE\obj/../Libraries/wch_libraries/Peripheral/ch32v10x_dma.c:45
     8dc:	fec42783          	lw	a5,-20(s0)
     8e0:	4398                	lw	a4,0(a5)
     8e2:	67c1                	lui	a5,0x10
     8e4:	17f9                	addi	a5,a5,-2
     8e6:	8f7d                	and	a4,a4,a5
     8e8:	fec42783          	lw	a5,-20(s0)
     8ec:	c398                	sw	a4,0(a5)
C:\Users\16917\Desktop\Dual-core_Communication_Demo\Dual-core_Communication_Demo\SLAVE\obj/../Libraries/wch_libraries/Peripheral/ch32v10x_dma.c:46
     8ee:	fec42783          	lw	a5,-20(s0)
     8f2:	0007a023          	sw	zero,0(a5) # 10000 <_data_lma+0x9db8>
C:\Users\16917\Desktop\Dual-core_Communication_Demo\Dual-core_Communication_Demo\SLAVE\obj/../Libraries/wch_libraries/Peripheral/ch32v10x_dma.c:47
     8f6:	fec42783          	lw	a5,-20(s0)
     8fa:	0007a223          	sw	zero,4(a5)
C:\Users\16917\Desktop\Dual-core_Communication_Demo\Dual-core_Communication_Demo\SLAVE\obj/../Libraries/wch_libraries/Peripheral/ch32v10x_dma.c:48
     8fe:	fec42783          	lw	a5,-20(s0)
     902:	0007a423          	sw	zero,8(a5)
C:\Users\16917\Desktop\Dual-core_Communication_Demo\Dual-core_Communication_Demo\SLAVE\obj/../Libraries/wch_libraries/Peripheral/ch32v10x_dma.c:49
     906:	fec42783          	lw	a5,-20(s0)
     90a:	0007a623          	sw	zero,12(a5)
C:\Users\16917\Desktop\Dual-core_Communication_Demo\Dual-core_Communication_Demo\SLAVE\obj/../Libraries/wch_libraries/Peripheral/ch32v10x_dma.c:50
     90e:	fec42703          	lw	a4,-20(s0)
     912:	400207b7          	lui	a5,0x40020
     916:	07a1                	addi	a5,a5,8
     918:	00f71b63          	bne	a4,a5,92e <DMA_DeInit+0x5c>
C:\Users\16917\Desktop\Dual-core_Communication_Demo\Dual-core_Communication_Demo\SLAVE\obj/../Libraries/wch_libraries/Peripheral/ch32v10x_dma.c:52
     91c:	400207b7          	lui	a5,0x40020
     920:	43d8                	lw	a4,4(a5)
     922:	400207b7          	lui	a5,0x40020
     926:	00f76713          	ori	a4,a4,15
     92a:	c3d8                	sw	a4,4(a5)
C:\Users\16917\Desktop\Dual-core_Communication_Demo\Dual-core_Communication_Demo\SLAVE\obj/../Libraries/wch_libraries/Peripheral/ch32v10x_dma.c:101
     92c:	a275                	j	ad8 <DMA_DeInit+0x206>
C:\Users\16917\Desktop\Dual-core_Communication_Demo\Dual-core_Communication_Demo\SLAVE\obj/../Libraries/wch_libraries/Peripheral/ch32v10x_dma.c:54
     92e:	fec42703          	lw	a4,-20(s0)
     932:	400207b7          	lui	a5,0x40020
     936:	07f1                	addi	a5,a5,28
     938:	00f71b63          	bne	a4,a5,94e <DMA_DeInit+0x7c>
C:\Users\16917\Desktop\Dual-core_Communication_Demo\Dual-core_Communication_Demo\SLAVE\obj/../Libraries/wch_libraries/Peripheral/ch32v10x_dma.c:56
     93c:	400207b7          	lui	a5,0x40020
     940:	43d8                	lw	a4,4(a5)
     942:	400207b7          	lui	a5,0x40020
     946:	0f076713          	ori	a4,a4,240
     94a:	c3d8                	sw	a4,4(a5)
C:\Users\16917\Desktop\Dual-core_Communication_Demo\Dual-core_Communication_Demo\SLAVE\obj/../Libraries/wch_libraries/Peripheral/ch32v10x_dma.c:101
     94c:	a271                	j	ad8 <DMA_DeInit+0x206>
C:\Users\16917\Desktop\Dual-core_Communication_Demo\Dual-core_Communication_Demo\SLAVE\obj/../Libraries/wch_libraries/Peripheral/ch32v10x_dma.c:58
     94e:	fec42703          	lw	a4,-20(s0)
     952:	400207b7          	lui	a5,0x40020
     956:	03078793          	addi	a5,a5,48 # 40020030 <_eusrstack+0x2001b030>
     95a:	00f71d63          	bne	a4,a5,974 <DMA_DeInit+0xa2>
C:\Users\16917\Desktop\Dual-core_Communication_Demo\Dual-core_Communication_Demo\SLAVE\obj/../Libraries/wch_libraries/Peripheral/ch32v10x_dma.c:60
     95e:	400207b7          	lui	a5,0x40020
     962:	43d4                	lw	a3,4(a5)
     964:	400207b7          	lui	a5,0x40020
     968:	6705                	lui	a4,0x1
     96a:	f0070713          	addi	a4,a4,-256 # f00 <GPIO_Init+0x74>
     96e:	8f55                	or	a4,a4,a3
     970:	c3d8                	sw	a4,4(a5)
C:\Users\16917\Desktop\Dual-core_Communication_Demo\Dual-core_Communication_Demo\SLAVE\obj/../Libraries/wch_libraries/Peripheral/ch32v10x_dma.c:101
     972:	a29d                	j	ad8 <DMA_DeInit+0x206>
C:\Users\16917\Desktop\Dual-core_Communication_Demo\Dual-core_Communication_Demo\SLAVE\obj/../Libraries/wch_libraries/Peripheral/ch32v10x_dma.c:62
     974:	fec42703          	lw	a4,-20(s0)
     978:	400207b7          	lui	a5,0x40020
     97c:	04478793          	addi	a5,a5,68 # 40020044 <_eusrstack+0x2001b044>
     980:	00f71b63          	bne	a4,a5,996 <DMA_DeInit+0xc4>
C:\Users\16917\Desktop\Dual-core_Communication_Demo\Dual-core_Communication_Demo\SLAVE\obj/../Libraries/wch_libraries/Peripheral/ch32v10x_dma.c:64
     984:	400207b7          	lui	a5,0x40020
     988:	43d4                	lw	a3,4(a5)
     98a:	400207b7          	lui	a5,0x40020
     98e:	673d                	lui	a4,0xf
     990:	8f55                	or	a4,a4,a3
     992:	c3d8                	sw	a4,4(a5)
C:\Users\16917\Desktop\Dual-core_Communication_Demo\Dual-core_Communication_Demo\SLAVE\obj/../Libraries/wch_libraries/Peripheral/ch32v10x_dma.c:101
     994:	a291                	j	ad8 <DMA_DeInit+0x206>
C:\Users\16917\Desktop\Dual-core_Communication_Demo\Dual-core_Communication_Demo\SLAVE\obj/../Libraries/wch_libraries/Peripheral/ch32v10x_dma.c:66
     996:	fec42703          	lw	a4,-20(s0)
     99a:	400207b7          	lui	a5,0x40020
     99e:	05878793          	addi	a5,a5,88 # 40020058 <_eusrstack+0x2001b058>
     9a2:	00f71c63          	bne	a4,a5,9ba <DMA_DeInit+0xe8>
C:\Users\16917\Desktop\Dual-core_Communication_Demo\Dual-core_Communication_Demo\SLAVE\obj/../Libraries/wch_libraries/Peripheral/ch32v10x_dma.c:68
     9a6:	400207b7          	lui	a5,0x40020
     9aa:	43d4                	lw	a3,4(a5)
     9ac:	400207b7          	lui	a5,0x40020
     9b0:	000f0737          	lui	a4,0xf0
     9b4:	8f55                	or	a4,a4,a3
     9b6:	c3d8                	sw	a4,4(a5)
C:\Users\16917\Desktop\Dual-core_Communication_Demo\Dual-core_Communication_Demo\SLAVE\obj/../Libraries/wch_libraries/Peripheral/ch32v10x_dma.c:101
     9b8:	a205                	j	ad8 <DMA_DeInit+0x206>
C:\Users\16917\Desktop\Dual-core_Communication_Demo\Dual-core_Communication_Demo\SLAVE\obj/../Libraries/wch_libraries/Peripheral/ch32v10x_dma.c:70
     9ba:	fec42703          	lw	a4,-20(s0)
     9be:	400207b7          	lui	a5,0x40020
     9c2:	06c78793          	addi	a5,a5,108 # 4002006c <_eusrstack+0x2001b06c>
     9c6:	00f71c63          	bne	a4,a5,9de <DMA_DeInit+0x10c>
C:\Users\16917\Desktop\Dual-core_Communication_Demo\Dual-core_Communication_Demo\SLAVE\obj/../Libraries/wch_libraries/Peripheral/ch32v10x_dma.c:72
     9ca:	400207b7          	lui	a5,0x40020
     9ce:	43d4                	lw	a3,4(a5)
     9d0:	400207b7          	lui	a5,0x40020
     9d4:	00f00737          	lui	a4,0xf00
     9d8:	8f55                	or	a4,a4,a3
     9da:	c3d8                	sw	a4,4(a5)
C:\Users\16917\Desktop\Dual-core_Communication_Demo\Dual-core_Communication_Demo\SLAVE\obj/../Libraries/wch_libraries/Peripheral/ch32v10x_dma.c:101
     9dc:	a8f5                	j	ad8 <DMA_DeInit+0x206>
C:\Users\16917\Desktop\Dual-core_Communication_Demo\Dual-core_Communication_Demo\SLAVE\obj/../Libraries/wch_libraries/Peripheral/ch32v10x_dma.c:74
     9de:	fec42703          	lw	a4,-20(s0)
     9e2:	400207b7          	lui	a5,0x40020
     9e6:	08078793          	addi	a5,a5,128 # 40020080 <_eusrstack+0x2001b080>
     9ea:	00f71c63          	bne	a4,a5,a02 <DMA_DeInit+0x130>
C:\Users\16917\Desktop\Dual-core_Communication_Demo\Dual-core_Communication_Demo\SLAVE\obj/../Libraries/wch_libraries/Peripheral/ch32v10x_dma.c:76
     9ee:	400207b7          	lui	a5,0x40020
     9f2:	43d4                	lw	a3,4(a5)
     9f4:	400207b7          	lui	a5,0x40020
     9f8:	0f000737          	lui	a4,0xf000
     9fc:	8f55                	or	a4,a4,a3
     9fe:	c3d8                	sw	a4,4(a5)
C:\Users\16917\Desktop\Dual-core_Communication_Demo\Dual-core_Communication_Demo\SLAVE\obj/../Libraries/wch_libraries/Peripheral/ch32v10x_dma.c:101
     a00:	a8e1                	j	ad8 <DMA_DeInit+0x206>
C:\Users\16917\Desktop\Dual-core_Communication_Demo\Dual-core_Communication_Demo\SLAVE\obj/../Libraries/wch_libraries/Peripheral/ch32v10x_dma.c:78
     a02:	fec42703          	lw	a4,-20(s0)
     a06:	400207b7          	lui	a5,0x40020
     a0a:	40878793          	addi	a5,a5,1032 # 40020408 <_eusrstack+0x2001b408>
     a0e:	00f71f63          	bne	a4,a5,a2c <DMA_DeInit+0x15a>
C:\Users\16917\Desktop\Dual-core_Communication_Demo\Dual-core_Communication_Demo\SLAVE\obj/../Libraries/wch_libraries/Peripheral/ch32v10x_dma.c:80
     a12:	400207b7          	lui	a5,0x40020
     a16:	40078793          	addi	a5,a5,1024 # 40020400 <_eusrstack+0x2001b400>
     a1a:	43d8                	lw	a4,4(a5)
     a1c:	400207b7          	lui	a5,0x40020
     a20:	40078793          	addi	a5,a5,1024 # 40020400 <_eusrstack+0x2001b400>
     a24:	00f76713          	ori	a4,a4,15
     a28:	c3d8                	sw	a4,4(a5)
C:\Users\16917\Desktop\Dual-core_Communication_Demo\Dual-core_Communication_Demo\SLAVE\obj/../Libraries/wch_libraries/Peripheral/ch32v10x_dma.c:101
     a2a:	a07d                	j	ad8 <DMA_DeInit+0x206>
C:\Users\16917\Desktop\Dual-core_Communication_Demo\Dual-core_Communication_Demo\SLAVE\obj/../Libraries/wch_libraries/Peripheral/ch32v10x_dma.c:82
     a2c:	fec42703          	lw	a4,-20(s0)
     a30:	400207b7          	lui	a5,0x40020
     a34:	41c78793          	addi	a5,a5,1052 # 4002041c <_eusrstack+0x2001b41c>
     a38:	00f71f63          	bne	a4,a5,a56 <DMA_DeInit+0x184>
C:\Users\16917\Desktop\Dual-core_Communication_Demo\Dual-core_Communication_Demo\SLAVE\obj/../Libraries/wch_libraries/Peripheral/ch32v10x_dma.c:84
     a3c:	400207b7          	lui	a5,0x40020
     a40:	40078793          	addi	a5,a5,1024 # 40020400 <_eusrstack+0x2001b400>
     a44:	43d8                	lw	a4,4(a5)
     a46:	400207b7          	lui	a5,0x40020
     a4a:	40078793          	addi	a5,a5,1024 # 40020400 <_eusrstack+0x2001b400>
     a4e:	0f076713          	ori	a4,a4,240
     a52:	c3d8                	sw	a4,4(a5)
C:\Users\16917\Desktop\Dual-core_Communication_Demo\Dual-core_Communication_Demo\SLAVE\obj/../Libraries/wch_libraries/Peripheral/ch32v10x_dma.c:101
     a54:	a051                	j	ad8 <DMA_DeInit+0x206>
C:\Users\16917\Desktop\Dual-core_Communication_Demo\Dual-core_Communication_Demo\SLAVE\obj/../Libraries/wch_libraries/Peripheral/ch32v10x_dma.c:86
     a56:	fec42703          	lw	a4,-20(s0)
     a5a:	400207b7          	lui	a5,0x40020
     a5e:	43078793          	addi	a5,a5,1072 # 40020430 <_eusrstack+0x2001b430>
     a62:	02f71163          	bne	a4,a5,a84 <DMA_DeInit+0x1b2>
C:\Users\16917\Desktop\Dual-core_Communication_Demo\Dual-core_Communication_Demo\SLAVE\obj/../Libraries/wch_libraries/Peripheral/ch32v10x_dma.c:88
     a66:	400207b7          	lui	a5,0x40020
     a6a:	40078793          	addi	a5,a5,1024 # 40020400 <_eusrstack+0x2001b400>
     a6e:	43d4                	lw	a3,4(a5)
     a70:	400207b7          	lui	a5,0x40020
     a74:	40078793          	addi	a5,a5,1024 # 40020400 <_eusrstack+0x2001b400>
     a78:	6705                	lui	a4,0x1
     a7a:	f0070713          	addi	a4,a4,-256 # f00 <GPIO_Init+0x74>
     a7e:	8f55                	or	a4,a4,a3
     a80:	c3d8                	sw	a4,4(a5)
C:\Users\16917\Desktop\Dual-core_Communication_Demo\Dual-core_Communication_Demo\SLAVE\obj/../Libraries/wch_libraries/Peripheral/ch32v10x_dma.c:101
     a82:	a899                	j	ad8 <DMA_DeInit+0x206>
C:\Users\16917\Desktop\Dual-core_Communication_Demo\Dual-core_Communication_Demo\SLAVE\obj/../Libraries/wch_libraries/Peripheral/ch32v10x_dma.c:90
     a84:	fec42703          	lw	a4,-20(s0)
     a88:	400207b7          	lui	a5,0x40020
     a8c:	44478793          	addi	a5,a5,1092 # 40020444 <_eusrstack+0x2001b444>
     a90:	00f71f63          	bne	a4,a5,aae <DMA_DeInit+0x1dc>
C:\Users\16917\Desktop\Dual-core_Communication_Demo\Dual-core_Communication_Demo\SLAVE\obj/../Libraries/wch_libraries/Peripheral/ch32v10x_dma.c:92
     a94:	400207b7          	lui	a5,0x40020
     a98:	40078793          	addi	a5,a5,1024 # 40020400 <_eusrstack+0x2001b400>
     a9c:	43d4                	lw	a3,4(a5)
     a9e:	400207b7          	lui	a5,0x40020
     aa2:	40078793          	addi	a5,a5,1024 # 40020400 <_eusrstack+0x2001b400>
     aa6:	673d                	lui	a4,0xf
     aa8:	8f55                	or	a4,a4,a3
     aaa:	c3d8                	sw	a4,4(a5)
C:\Users\16917\Desktop\Dual-core_Communication_Demo\Dual-core_Communication_Demo\SLAVE\obj/../Libraries/wch_libraries/Peripheral/ch32v10x_dma.c:101
     aac:	a035                	j	ad8 <DMA_DeInit+0x206>
C:\Users\16917\Desktop\Dual-core_Communication_Demo\Dual-core_Communication_Demo\SLAVE\obj/../Libraries/wch_libraries/Peripheral/ch32v10x_dma.c:96
     aae:	fec42703          	lw	a4,-20(s0)
     ab2:	400207b7          	lui	a5,0x40020
     ab6:	45878793          	addi	a5,a5,1112 # 40020458 <_eusrstack+0x2001b458>
     aba:	00f71f63          	bne	a4,a5,ad8 <DMA_DeInit+0x206>
C:\Users\16917\Desktop\Dual-core_Communication_Demo\Dual-core_Communication_Demo\SLAVE\obj/../Libraries/wch_libraries/Peripheral/ch32v10x_dma.c:98
     abe:	400207b7          	lui	a5,0x40020
     ac2:	40078793          	addi	a5,a5,1024 # 40020400 <_eusrstack+0x2001b400>
     ac6:	43d4                	lw	a3,4(a5)
     ac8:	400207b7          	lui	a5,0x40020
     acc:	40078793          	addi	a5,a5,1024 # 40020400 <_eusrstack+0x2001b400>
     ad0:	000f0737          	lui	a4,0xf0
     ad4:	8f55                	or	a4,a4,a3
     ad6:	c3d8                	sw	a4,4(a5)
C:\Users\16917\Desktop\Dual-core_Communication_Demo\Dual-core_Communication_Demo\SLAVE\obj/../Libraries/wch_libraries/Peripheral/ch32v10x_dma.c:101
     ad8:	0001                	nop
     ada:	4472                	lw	s0,28(sp)
     adc:	6105                	addi	sp,sp,32
     ade:	8082                	ret

00000ae0 <DMA_Init>:
DMA_Init():
C:\Users\16917\Desktop\Dual-core_Communication_Demo\Dual-core_Communication_Demo\SLAVE\obj/../Libraries/wch_libraries/Peripheral/ch32v10x_dma.c:117
     ae0:	7179                	addi	sp,sp,-48
     ae2:	d622                	sw	s0,44(sp)
     ae4:	1800                	addi	s0,sp,48
     ae6:	fca42e23          	sw	a0,-36(s0)
     aea:	fcb42c23          	sw	a1,-40(s0)
C:\Users\16917\Desktop\Dual-core_Communication_Demo\Dual-core_Communication_Demo\SLAVE\obj/../Libraries/wch_libraries/Peripheral/ch32v10x_dma.c:118
     aee:	fe042623          	sw	zero,-20(s0)
C:\Users\16917\Desktop\Dual-core_Communication_Demo\Dual-core_Communication_Demo\SLAVE\obj/../Libraries/wch_libraries/Peripheral/ch32v10x_dma.c:120
     af2:	fdc42783          	lw	a5,-36(s0)
     af6:	439c                	lw	a5,0(a5)
     af8:	fef42623          	sw	a5,-20(s0)
C:\Users\16917\Desktop\Dual-core_Communication_Demo\Dual-core_Communication_Demo\SLAVE\obj/../Libraries/wch_libraries/Peripheral/ch32v10x_dma.c:121
     afc:	fec42703          	lw	a4,-20(s0)
     b00:	77e1                	lui	a5,0xffff8
     b02:	07bd                	addi	a5,a5,15
     b04:	8ff9                	and	a5,a5,a4
     b06:	fef42623          	sw	a5,-20(s0)
C:\Users\16917\Desktop\Dual-core_Communication_Demo\Dual-core_Communication_Demo\SLAVE\obj/../Libraries/wch_libraries/Peripheral/ch32v10x_dma.c:122
     b0a:	fd842783          	lw	a5,-40(s0)
     b0e:	4798                	lw	a4,8(a5)
     b10:	fd842783          	lw	a5,-40(s0)
     b14:	539c                	lw	a5,32(a5)
     b16:	8f5d                	or	a4,a4,a5
C:\Users\16917\Desktop\Dual-core_Communication_Demo\Dual-core_Communication_Demo\SLAVE\obj/../Libraries/wch_libraries/Peripheral/ch32v10x_dma.c:123
     b18:	fd842783          	lw	a5,-40(s0)
     b1c:	4b9c                	lw	a5,16(a5)
C:\Users\16917\Desktop\Dual-core_Communication_Demo\Dual-core_Communication_Demo\SLAVE\obj/../Libraries/wch_libraries/Peripheral/ch32v10x_dma.c:122
     b1e:	8f5d                	or	a4,a4,a5
C:\Users\16917\Desktop\Dual-core_Communication_Demo\Dual-core_Communication_Demo\SLAVE\obj/../Libraries/wch_libraries/Peripheral/ch32v10x_dma.c:123
     b20:	fd842783          	lw	a5,-40(s0)
     b24:	4bdc                	lw	a5,20(a5)
     b26:	8f5d                	or	a4,a4,a5
C:\Users\16917\Desktop\Dual-core_Communication_Demo\Dual-core_Communication_Demo\SLAVE\obj/../Libraries/wch_libraries/Peripheral/ch32v10x_dma.c:124
     b28:	fd842783          	lw	a5,-40(s0)
     b2c:	4f9c                	lw	a5,24(a5)
C:\Users\16917\Desktop\Dual-core_Communication_Demo\Dual-core_Communication_Demo\SLAVE\obj/../Libraries/wch_libraries/Peripheral/ch32v10x_dma.c:123
     b2e:	8f5d                	or	a4,a4,a5
C:\Users\16917\Desktop\Dual-core_Communication_Demo\Dual-core_Communication_Demo\SLAVE\obj/../Libraries/wch_libraries/Peripheral/ch32v10x_dma.c:124
     b30:	fd842783          	lw	a5,-40(s0)
     b34:	4fdc                	lw	a5,28(a5)
     b36:	8f5d                	or	a4,a4,a5
C:\Users\16917\Desktop\Dual-core_Communication_Demo\Dual-core_Communication_Demo\SLAVE\obj/../Libraries/wch_libraries/Peripheral/ch32v10x_dma.c:125
     b38:	fd842783          	lw	a5,-40(s0)
     b3c:	53dc                	lw	a5,36(a5)
C:\Users\16917\Desktop\Dual-core_Communication_Demo\Dual-core_Communication_Demo\SLAVE\obj/../Libraries/wch_libraries/Peripheral/ch32v10x_dma.c:124
     b3e:	8f5d                	or	a4,a4,a5
C:\Users\16917\Desktop\Dual-core_Communication_Demo\Dual-core_Communication_Demo\SLAVE\obj/../Libraries/wch_libraries/Peripheral/ch32v10x_dma.c:125
     b40:	fd842783          	lw	a5,-40(s0)
     b44:	579c                	lw	a5,40(a5)
     b46:	8fd9                	or	a5,a5,a4
C:\Users\16917\Desktop\Dual-core_Communication_Demo\Dual-core_Communication_Demo\SLAVE\obj/../Libraries/wch_libraries/Peripheral/ch32v10x_dma.c:122
     b48:	fec42703          	lw	a4,-20(s0)
     b4c:	8fd9                	or	a5,a5,a4
     b4e:	fef42623          	sw	a5,-20(s0)
C:\Users\16917\Desktop\Dual-core_Communication_Demo\Dual-core_Communication_Demo\SLAVE\obj/../Libraries/wch_libraries/Peripheral/ch32v10x_dma.c:127
     b52:	fdc42783          	lw	a5,-36(s0)
     b56:	fec42703          	lw	a4,-20(s0)
     b5a:	c398                	sw	a4,0(a5)
C:\Users\16917\Desktop\Dual-core_Communication_Demo\Dual-core_Communication_Demo\SLAVE\obj/../Libraries/wch_libraries/Peripheral/ch32v10x_dma.c:128
     b5c:	fd842783          	lw	a5,-40(s0)
     b60:	47d8                	lw	a4,12(a5)
     b62:	fdc42783          	lw	a5,-36(s0)
     b66:	c3d8                	sw	a4,4(a5)
C:\Users\16917\Desktop\Dual-core_Communication_Demo\Dual-core_Communication_Demo\SLAVE\obj/../Libraries/wch_libraries/Peripheral/ch32v10x_dma.c:129
     b68:	fd842783          	lw	a5,-40(s0)
     b6c:	4398                	lw	a4,0(a5)
     b6e:	fdc42783          	lw	a5,-36(s0)
     b72:	c798                	sw	a4,8(a5)
C:\Users\16917\Desktop\Dual-core_Communication_Demo\Dual-core_Communication_Demo\SLAVE\obj/../Libraries/wch_libraries/Peripheral/ch32v10x_dma.c:130
     b74:	fd842783          	lw	a5,-40(s0)
     b78:	43d8                	lw	a4,4(a5)
     b7a:	fdc42783          	lw	a5,-36(s0)
     b7e:	c7d8                	sw	a4,12(a5)
C:\Users\16917\Desktop\Dual-core_Communication_Demo\Dual-core_Communication_Demo\SLAVE\obj/../Libraries/wch_libraries/Peripheral/ch32v10x_dma.c:131
     b80:	0001                	nop
     b82:	5432                	lw	s0,44(sp)
     b84:	6145                	addi	sp,sp,48
     b86:	8082                	ret

00000b88 <DMA_Cmd>:
DMA_Cmd():
C:\Users\16917\Desktop\Dual-core_Communication_Demo\Dual-core_Communication_Demo\SLAVE\obj/../Libraries/wch_libraries/Peripheral/ch32v10x_dma.c:168
     b88:	1101                	addi	sp,sp,-32
     b8a:	ce22                	sw	s0,28(sp)
     b8c:	1000                	addi	s0,sp,32
     b8e:	fea42623          	sw	a0,-20(s0)
     b92:	feb42423          	sw	a1,-24(s0)
C:\Users\16917\Desktop\Dual-core_Communication_Demo\Dual-core_Communication_Demo\SLAVE\obj/../Libraries/wch_libraries/Peripheral/ch32v10x_dma.c:169
     b96:	fe842783          	lw	a5,-24(s0)
     b9a:	cb91                	beqz	a5,bae <DMA_Cmd+0x26>
C:\Users\16917\Desktop\Dual-core_Communication_Demo\Dual-core_Communication_Demo\SLAVE\obj/../Libraries/wch_libraries/Peripheral/ch32v10x_dma.c:171
     b9c:	fec42783          	lw	a5,-20(s0)
     ba0:	439c                	lw	a5,0(a5)
     ba2:	0017e713          	ori	a4,a5,1
     ba6:	fec42783          	lw	a5,-20(s0)
     baa:	c398                	sw	a4,0(a5)
C:\Users\16917\Desktop\Dual-core_Communication_Demo\Dual-core_Communication_Demo\SLAVE\obj/../Libraries/wch_libraries/Peripheral/ch32v10x_dma.c:177
     bac:	a811                	j	bc0 <DMA_Cmd+0x38>
C:\Users\16917\Desktop\Dual-core_Communication_Demo\Dual-core_Communication_Demo\SLAVE\obj/../Libraries/wch_libraries/Peripheral/ch32v10x_dma.c:175
     bae:	fec42783          	lw	a5,-20(s0)
     bb2:	4398                	lw	a4,0(a5)
     bb4:	67c1                	lui	a5,0x10
     bb6:	17f9                	addi	a5,a5,-2
     bb8:	8f7d                	and	a4,a4,a5
     bba:	fec42783          	lw	a5,-20(s0)
     bbe:	c398                	sw	a4,0(a5)
C:\Users\16917\Desktop\Dual-core_Communication_Demo\Dual-core_Communication_Demo\SLAVE\obj/../Libraries/wch_libraries/Peripheral/ch32v10x_dma.c:177
     bc0:	0001                	nop
     bc2:	4472                	lw	s0,28(sp)
     bc4:	6105                	addi	sp,sp,32
     bc6:	8082                	ret

00000bc8 <DMA_ITConfig>:
DMA_ITConfig():
C:\Users\16917\Desktop\Dual-core_Communication_Demo\Dual-core_Communication_Demo\SLAVE\obj/../Libraries/wch_libraries/Peripheral/ch32v10x_dma.c:194
     bc8:	1101                	addi	sp,sp,-32
     bca:	ce22                	sw	s0,28(sp)
     bcc:	1000                	addi	s0,sp,32
     bce:	fea42623          	sw	a0,-20(s0)
     bd2:	feb42423          	sw	a1,-24(s0)
     bd6:	fec42223          	sw	a2,-28(s0)
C:\Users\16917\Desktop\Dual-core_Communication_Demo\Dual-core_Communication_Demo\SLAVE\obj/../Libraries/wch_libraries/Peripheral/ch32v10x_dma.c:195
     bda:	fe442783          	lw	a5,-28(s0)
     bde:	cb99                	beqz	a5,bf4 <DMA_ITConfig+0x2c>
C:\Users\16917\Desktop\Dual-core_Communication_Demo\Dual-core_Communication_Demo\SLAVE\obj/../Libraries/wch_libraries/Peripheral/ch32v10x_dma.c:197
     be0:	fec42783          	lw	a5,-20(s0)
     be4:	4398                	lw	a4,0(a5)
     be6:	fe842783          	lw	a5,-24(s0)
     bea:	8f5d                	or	a4,a4,a5
     bec:	fec42783          	lw	a5,-20(s0)
     bf0:	c398                	sw	a4,0(a5)
C:\Users\16917\Desktop\Dual-core_Communication_Demo\Dual-core_Communication_Demo\SLAVE\obj/../Libraries/wch_libraries/Peripheral/ch32v10x_dma.c:203
     bf2:	a821                	j	c0a <DMA_ITConfig+0x42>
C:\Users\16917\Desktop\Dual-core_Communication_Demo\Dual-core_Communication_Demo\SLAVE\obj/../Libraries/wch_libraries/Peripheral/ch32v10x_dma.c:201
     bf4:	fec42783          	lw	a5,-20(s0)
     bf8:	4398                	lw	a4,0(a5)
     bfa:	fe842783          	lw	a5,-24(s0)
     bfe:	fff7c793          	not	a5,a5
     c02:	8f7d                	and	a4,a4,a5
     c04:	fec42783          	lw	a5,-20(s0)
     c08:	c398                	sw	a4,0(a5)
C:\Users\16917\Desktop\Dual-core_Communication_Demo\Dual-core_Communication_Demo\SLAVE\obj/../Libraries/wch_libraries/Peripheral/ch32v10x_dma.c:203
     c0a:	0001                	nop
     c0c:	4472                	lw	s0,28(sp)
     c0e:	6105                	addi	sp,sp,32
     c10:	8082                	ret

00000c12 <DMA_GetFlagStatus>:
DMA_GetFlagStatus():
C:\Users\16917\Desktop\Dual-core_Communication_Demo\Dual-core_Communication_Demo\SLAVE\obj/../Libraries/wch_libraries/Peripheral/ch32v10x_dma.c:290
     c12:	7179                	addi	sp,sp,-48
     c14:	d622                	sw	s0,44(sp)
     c16:	1800                	addi	s0,sp,48
     c18:	fca42e23          	sw	a0,-36(s0)
C:\Users\16917\Desktop\Dual-core_Communication_Demo\Dual-core_Communication_Demo\SLAVE\obj/../Libraries/wch_libraries/Peripheral/ch32v10x_dma.c:291
     c1c:	fe042623          	sw	zero,-20(s0)
C:\Users\16917\Desktop\Dual-core_Communication_Demo\Dual-core_Communication_Demo\SLAVE\obj/../Libraries/wch_libraries/Peripheral/ch32v10x_dma.c:292
     c20:	fe042423          	sw	zero,-24(s0)
C:\Users\16917\Desktop\Dual-core_Communication_Demo\Dual-core_Communication_Demo\SLAVE\obj/../Libraries/wch_libraries/Peripheral/ch32v10x_dma.c:294
     c24:	fdc42703          	lw	a4,-36(s0)
     c28:	100007b7          	lui	a5,0x10000
     c2c:	8ff9                	and	a5,a5,a4
     c2e:	cb89                	beqz	a5,c40 <DMA_GetFlagStatus+0x2e>
C:\Users\16917\Desktop\Dual-core_Communication_Demo\Dual-core_Communication_Demo\SLAVE\obj/../Libraries/wch_libraries/Peripheral/ch32v10x_dma.c:296
     c30:	400207b7          	lui	a5,0x40020
     c34:	40078793          	addi	a5,a5,1024 # 40020400 <_eusrstack+0x2001b400>
     c38:	439c                	lw	a5,0(a5)
     c3a:	fef42423          	sw	a5,-24(s0)
     c3e:	a031                	j	c4a <DMA_GetFlagStatus+0x38>
C:\Users\16917\Desktop\Dual-core_Communication_Demo\Dual-core_Communication_Demo\SLAVE\obj/../Libraries/wch_libraries/Peripheral/ch32v10x_dma.c:300
     c40:	400207b7          	lui	a5,0x40020
     c44:	439c                	lw	a5,0(a5)
     c46:	fef42423          	sw	a5,-24(s0)
C:\Users\16917\Desktop\Dual-core_Communication_Demo\Dual-core_Communication_Demo\SLAVE\obj/../Libraries/wch_libraries/Peripheral/ch32v10x_dma.c:303
     c4a:	fe842703          	lw	a4,-24(s0)
     c4e:	fdc42783          	lw	a5,-36(s0)
     c52:	8ff9                	and	a5,a5,a4
     c54:	c789                	beqz	a5,c5e <DMA_GetFlagStatus+0x4c>
C:\Users\16917\Desktop\Dual-core_Communication_Demo\Dual-core_Communication_Demo\SLAVE\obj/../Libraries/wch_libraries/Peripheral/ch32v10x_dma.c:305
     c56:	4785                	li	a5,1
     c58:	fef42623          	sw	a5,-20(s0)
     c5c:	a019                	j	c62 <DMA_GetFlagStatus+0x50>
C:\Users\16917\Desktop\Dual-core_Communication_Demo\Dual-core_Communication_Demo\SLAVE\obj/../Libraries/wch_libraries/Peripheral/ch32v10x_dma.c:309
     c5e:	fe042623          	sw	zero,-20(s0)
C:\Users\16917\Desktop\Dual-core_Communication_Demo\Dual-core_Communication_Demo\SLAVE\obj/../Libraries/wch_libraries/Peripheral/ch32v10x_dma.c:312
     c62:	fec42783          	lw	a5,-20(s0)
C:\Users\16917\Desktop\Dual-core_Communication_Demo\Dual-core_Communication_Demo\SLAVE\obj/../Libraries/wch_libraries/Peripheral/ch32v10x_dma.c:313
     c66:	853e                	mv	a0,a5
     c68:	5432                	lw	s0,44(sp)
     c6a:	6145                	addi	sp,sp,48
     c6c:	8082                	ret

00000c6e <DMA_ClearFlag>:
DMA_ClearFlag():
C:\Users\16917\Desktop\Dual-core_Communication_Demo\Dual-core_Communication_Demo\SLAVE\obj/../Libraries/wch_libraries/Peripheral/ch32v10x_dma.c:371
     c6e:	1101                	addi	sp,sp,-32
     c70:	ce22                	sw	s0,28(sp)
     c72:	1000                	addi	s0,sp,32
     c74:	fea42623          	sw	a0,-20(s0)
C:\Users\16917\Desktop\Dual-core_Communication_Demo\Dual-core_Communication_Demo\SLAVE\obj/../Libraries/wch_libraries/Peripheral/ch32v10x_dma.c:372
     c78:	fec42703          	lw	a4,-20(s0)
     c7c:	100007b7          	lui	a5,0x10000
     c80:	8ff9                	and	a5,a5,a4
     c82:	cb89                	beqz	a5,c94 <DMA_ClearFlag+0x26>
C:\Users\16917\Desktop\Dual-core_Communication_Demo\Dual-core_Communication_Demo\SLAVE\obj/../Libraries/wch_libraries/Peripheral/ch32v10x_dma.c:374
     c84:	400207b7          	lui	a5,0x40020
     c88:	40078793          	addi	a5,a5,1024 # 40020400 <_eusrstack+0x2001b400>
     c8c:	fec42703          	lw	a4,-20(s0)
     c90:	c3d8                	sw	a4,4(a5)
C:\Users\16917\Desktop\Dual-core_Communication_Demo\Dual-core_Communication_Demo\SLAVE\obj/../Libraries/wch_libraries/Peripheral/ch32v10x_dma.c:380
     c92:	a031                	j	c9e <DMA_ClearFlag+0x30>
C:\Users\16917\Desktop\Dual-core_Communication_Demo\Dual-core_Communication_Demo\SLAVE\obj/../Libraries/wch_libraries/Peripheral/ch32v10x_dma.c:378
     c94:	400207b7          	lui	a5,0x40020
     c98:	fec42703          	lw	a4,-20(s0)
     c9c:	c3d8                	sw	a4,4(a5)
C:\Users\16917\Desktop\Dual-core_Communication_Demo\Dual-core_Communication_Demo\SLAVE\obj/../Libraries/wch_libraries/Peripheral/ch32v10x_dma.c:380
     c9e:	0001                	nop
     ca0:	4472                	lw	s0,28(sp)
     ca2:	6105                	addi	sp,sp,32
     ca4:	8082                	ret

00000ca6 <EXTI_Init>:
EXTI_Init():
C:\Users\16917\Desktop\Dual-core_Communication_Demo\Dual-core_Communication_Demo\SLAVE\obj/../Libraries/wch_libraries/Peripheral/ch32v10x_exti.c:37
     ca6:	7179                	addi	sp,sp,-48
     ca8:	d622                	sw	s0,44(sp)
     caa:	1800                	addi	s0,sp,48
     cac:	fca42e23          	sw	a0,-36(s0)
C:\Users\16917\Desktop\Dual-core_Communication_Demo\Dual-core_Communication_Demo\SLAVE\obj/../Libraries/wch_libraries/Peripheral/ch32v10x_exti.c:38
     cb0:	fe042623          	sw	zero,-20(s0)
C:\Users\16917\Desktop\Dual-core_Communication_Demo\Dual-core_Communication_Demo\SLAVE\obj/../Libraries/wch_libraries/Peripheral/ch32v10x_exti.c:40
     cb4:	400107b7          	lui	a5,0x40010
     cb8:	40078793          	addi	a5,a5,1024 # 40010400 <_eusrstack+0x2000b400>
     cbc:	fef42623          	sw	a5,-20(s0)
C:\Users\16917\Desktop\Dual-core_Communication_Demo\Dual-core_Communication_Demo\SLAVE\obj/../Libraries/wch_libraries/Peripheral/ch32v10x_exti.c:41
     cc0:	fdc42783          	lw	a5,-36(s0)
     cc4:	47dc                	lw	a5,12(a5)
     cc6:	12078063          	beqz	a5,de6 <EXTI_Init+0x140>
C:\Users\16917\Desktop\Dual-core_Communication_Demo\Dual-core_Communication_Demo\SLAVE\obj/../Libraries/wch_libraries/Peripheral/ch32v10x_exti.c:43
     cca:	400107b7          	lui	a5,0x40010
     cce:	40078793          	addi	a5,a5,1024 # 40010400 <_eusrstack+0x2000b400>
     cd2:	4394                	lw	a3,0(a5)
     cd4:	fdc42783          	lw	a5,-36(s0)
     cd8:	439c                	lw	a5,0(a5)
     cda:	fff7c713          	not	a4,a5
     cde:	400107b7          	lui	a5,0x40010
     ce2:	40078793          	addi	a5,a5,1024 # 40010400 <_eusrstack+0x2000b400>
     ce6:	8f75                	and	a4,a4,a3
     ce8:	c398                	sw	a4,0(a5)
C:\Users\16917\Desktop\Dual-core_Communication_Demo\Dual-core_Communication_Demo\SLAVE\obj/../Libraries/wch_libraries/Peripheral/ch32v10x_exti.c:44
     cea:	400107b7          	lui	a5,0x40010
     cee:	40078793          	addi	a5,a5,1024 # 40010400 <_eusrstack+0x2000b400>
     cf2:	43d4                	lw	a3,4(a5)
     cf4:	fdc42783          	lw	a5,-36(s0)
     cf8:	439c                	lw	a5,0(a5)
     cfa:	fff7c713          	not	a4,a5
     cfe:	400107b7          	lui	a5,0x40010
     d02:	40078793          	addi	a5,a5,1024 # 40010400 <_eusrstack+0x2000b400>
     d06:	8f75                	and	a4,a4,a3
     d08:	c3d8                	sw	a4,4(a5)
C:\Users\16917\Desktop\Dual-core_Communication_Demo\Dual-core_Communication_Demo\SLAVE\obj/../Libraries/wch_libraries/Peripheral/ch32v10x_exti.c:45
     d0a:	fdc42783          	lw	a5,-36(s0)
     d0e:	43dc                	lw	a5,4(a5)
     d10:	fec42703          	lw	a4,-20(s0)
     d14:	97ba                	add	a5,a5,a4
     d16:	fef42623          	sw	a5,-20(s0)
C:\Users\16917\Desktop\Dual-core_Communication_Demo\Dual-core_Communication_Demo\SLAVE\obj/../Libraries/wch_libraries/Peripheral/ch32v10x_exti.c:46
     d1a:	fec42783          	lw	a5,-20(s0)
     d1e:	4394                	lw	a3,0(a5)
     d20:	fdc42783          	lw	a5,-36(s0)
     d24:	4398                	lw	a4,0(a5)
     d26:	fec42783          	lw	a5,-20(s0)
     d2a:	8f55                	or	a4,a4,a3
     d2c:	c398                	sw	a4,0(a5)
C:\Users\16917\Desktop\Dual-core_Communication_Demo\Dual-core_Communication_Demo\SLAVE\obj/../Libraries/wch_libraries/Peripheral/ch32v10x_exti.c:47
     d2e:	400107b7          	lui	a5,0x40010
     d32:	40078793          	addi	a5,a5,1024 # 40010400 <_eusrstack+0x2000b400>
     d36:	4794                	lw	a3,8(a5)
     d38:	fdc42783          	lw	a5,-36(s0)
     d3c:	439c                	lw	a5,0(a5)
     d3e:	fff7c713          	not	a4,a5
     d42:	400107b7          	lui	a5,0x40010
     d46:	40078793          	addi	a5,a5,1024 # 40010400 <_eusrstack+0x2000b400>
     d4a:	8f75                	and	a4,a4,a3
     d4c:	c798                	sw	a4,8(a5)
C:\Users\16917\Desktop\Dual-core_Communication_Demo\Dual-core_Communication_Demo\SLAVE\obj/../Libraries/wch_libraries/Peripheral/ch32v10x_exti.c:48
     d4e:	400107b7          	lui	a5,0x40010
     d52:	40078793          	addi	a5,a5,1024 # 40010400 <_eusrstack+0x2000b400>
     d56:	47d4                	lw	a3,12(a5)
     d58:	fdc42783          	lw	a5,-36(s0)
     d5c:	439c                	lw	a5,0(a5)
     d5e:	fff7c713          	not	a4,a5
     d62:	400107b7          	lui	a5,0x40010
     d66:	40078793          	addi	a5,a5,1024 # 40010400 <_eusrstack+0x2000b400>
     d6a:	8f75                	and	a4,a4,a3
     d6c:	c7d8                	sw	a4,12(a5)
C:\Users\16917\Desktop\Dual-core_Communication_Demo\Dual-core_Communication_Demo\SLAVE\obj/../Libraries/wch_libraries/Peripheral/ch32v10x_exti.c:49
     d6e:	fdc42783          	lw	a5,-36(s0)
     d72:	4798                	lw	a4,8(a5)
     d74:	47c1                	li	a5,16
     d76:	02f71f63          	bne	a4,a5,db4 <EXTI_Init+0x10e>
C:\Users\16917\Desktop\Dual-core_Communication_Demo\Dual-core_Communication_Demo\SLAVE\obj/../Libraries/wch_libraries/Peripheral/ch32v10x_exti.c:51
     d7a:	400107b7          	lui	a5,0x40010
     d7e:	40078793          	addi	a5,a5,1024 # 40010400 <_eusrstack+0x2000b400>
     d82:	4794                	lw	a3,8(a5)
     d84:	fdc42783          	lw	a5,-36(s0)
     d88:	4398                	lw	a4,0(a5)
     d8a:	400107b7          	lui	a5,0x40010
     d8e:	40078793          	addi	a5,a5,1024 # 40010400 <_eusrstack+0x2000b400>
     d92:	8f55                	or	a4,a4,a3
     d94:	c798                	sw	a4,8(a5)
C:\Users\16917\Desktop\Dual-core_Communication_Demo\Dual-core_Communication_Demo\SLAVE\obj/../Libraries/wch_libraries/Peripheral/ch32v10x_exti.c:52
     d96:	400107b7          	lui	a5,0x40010
     d9a:	40078793          	addi	a5,a5,1024 # 40010400 <_eusrstack+0x2000b400>
     d9e:	47d4                	lw	a3,12(a5)
     da0:	fdc42783          	lw	a5,-36(s0)
     da4:	4398                	lw	a4,0(a5)
     da6:	400107b7          	lui	a5,0x40010
     daa:	40078793          	addi	a5,a5,1024 # 40010400 <_eusrstack+0x2000b400>
     dae:	8f55                	or	a4,a4,a3
     db0:	c7d8                	sw	a4,12(a5)
C:\Users\16917\Desktop\Dual-core_Communication_Demo\Dual-core_Communication_Demo\SLAVE\obj/../Libraries/wch_libraries/Peripheral/ch32v10x_exti.c:66
     db2:	a8b1                	j	e0e <EXTI_Init+0x168>
C:\Users\16917\Desktop\Dual-core_Communication_Demo\Dual-core_Communication_Demo\SLAVE\obj/../Libraries/wch_libraries/Peripheral/ch32v10x_exti.c:56
     db4:	400107b7          	lui	a5,0x40010
     db8:	40078793          	addi	a5,a5,1024 # 40010400 <_eusrstack+0x2000b400>
     dbc:	fef42623          	sw	a5,-20(s0)
C:\Users\16917\Desktop\Dual-core_Communication_Demo\Dual-core_Communication_Demo\SLAVE\obj/../Libraries/wch_libraries/Peripheral/ch32v10x_exti.c:57
     dc0:	fdc42783          	lw	a5,-36(s0)
     dc4:	479c                	lw	a5,8(a5)
     dc6:	fec42703          	lw	a4,-20(s0)
     dca:	97ba                	add	a5,a5,a4
     dcc:	fef42623          	sw	a5,-20(s0)
C:\Users\16917\Desktop\Dual-core_Communication_Demo\Dual-core_Communication_Demo\SLAVE\obj/../Libraries/wch_libraries/Peripheral/ch32v10x_exti.c:58
     dd0:	fec42783          	lw	a5,-20(s0)
     dd4:	4394                	lw	a3,0(a5)
     dd6:	fdc42783          	lw	a5,-36(s0)
     dda:	4398                	lw	a4,0(a5)
     ddc:	fec42783          	lw	a5,-20(s0)
     de0:	8f55                	or	a4,a4,a3
     de2:	c398                	sw	a4,0(a5)
C:\Users\16917\Desktop\Dual-core_Communication_Demo\Dual-core_Communication_Demo\SLAVE\obj/../Libraries/wch_libraries/Peripheral/ch32v10x_exti.c:66
     de4:	a02d                	j	e0e <EXTI_Init+0x168>
C:\Users\16917\Desktop\Dual-core_Communication_Demo\Dual-core_Communication_Demo\SLAVE\obj/../Libraries/wch_libraries/Peripheral/ch32v10x_exti.c:63
     de6:	fdc42783          	lw	a5,-36(s0)
     dea:	43dc                	lw	a5,4(a5)
     dec:	fec42703          	lw	a4,-20(s0)
     df0:	97ba                	add	a5,a5,a4
     df2:	fef42623          	sw	a5,-20(s0)
C:\Users\16917\Desktop\Dual-core_Communication_Demo\Dual-core_Communication_Demo\SLAVE\obj/../Libraries/wch_libraries/Peripheral/ch32v10x_exti.c:64
     df6:	fec42783          	lw	a5,-20(s0)
     dfa:	4394                	lw	a3,0(a5)
     dfc:	fdc42783          	lw	a5,-36(s0)
     e00:	439c                	lw	a5,0(a5)
     e02:	fff7c713          	not	a4,a5
     e06:	fec42783          	lw	a5,-20(s0)
     e0a:	8f75                	and	a4,a4,a3
     e0c:	c398                	sw	a4,0(a5)
C:\Users\16917\Desktop\Dual-core_Communication_Demo\Dual-core_Communication_Demo\SLAVE\obj/../Libraries/wch_libraries/Peripheral/ch32v10x_exti.c:66
     e0e:	0001                	nop
     e10:	5432                	lw	s0,44(sp)
     e12:	6145                	addi	sp,sp,48
     e14:	8082                	ret

00000e16 <EXTI_GetITStatus>:
EXTI_GetITStatus():
C:\Users\16917\Desktop\Dual-core_Communication_Demo\Dual-core_Communication_Demo\SLAVE\obj/../Libraries/wch_libraries/Peripheral/ch32v10x_exti.c:131
     e16:	7179                	addi	sp,sp,-48
     e18:	d622                	sw	s0,44(sp)
     e1a:	1800                	addi	s0,sp,48
     e1c:	fca42e23          	sw	a0,-36(s0)
C:\Users\16917\Desktop\Dual-core_Communication_Demo\Dual-core_Communication_Demo\SLAVE\obj/../Libraries/wch_libraries/Peripheral/ch32v10x_exti.c:132
     e20:	fe042623          	sw	zero,-20(s0)
C:\Users\16917\Desktop\Dual-core_Communication_Demo\Dual-core_Communication_Demo\SLAVE\obj/../Libraries/wch_libraries/Peripheral/ch32v10x_exti.c:133
     e24:	fe042423          	sw	zero,-24(s0)
C:\Users\16917\Desktop\Dual-core_Communication_Demo\Dual-core_Communication_Demo\SLAVE\obj/../Libraries/wch_libraries/Peripheral/ch32v10x_exti.c:135
     e28:	400107b7          	lui	a5,0x40010
     e2c:	40078793          	addi	a5,a5,1024 # 40010400 <_eusrstack+0x2000b400>
     e30:	439c                	lw	a5,0(a5)
     e32:	fdc42703          	lw	a4,-36(s0)
     e36:	8ff9                	and	a5,a5,a4
     e38:	fef42423          	sw	a5,-24(s0)
C:\Users\16917\Desktop\Dual-core_Communication_Demo\Dual-core_Communication_Demo\SLAVE\obj/../Libraries/wch_libraries/Peripheral/ch32v10x_exti.c:136
     e3c:	400107b7          	lui	a5,0x40010
     e40:	40078793          	addi	a5,a5,1024 # 40010400 <_eusrstack+0x2000b400>
     e44:	4bd8                	lw	a4,20(a5)
     e46:	fdc42783          	lw	a5,-36(s0)
     e4a:	8ff9                	and	a5,a5,a4
     e4c:	cb81                	beqz	a5,e5c <EXTI_GetITStatus+0x46>
C:\Users\16917\Desktop\Dual-core_Communication_Demo\Dual-core_Communication_Demo\SLAVE\obj/../Libraries/wch_libraries/Peripheral/ch32v10x_exti.c:136 (discriminator 1)
     e4e:	fe842783          	lw	a5,-24(s0)
     e52:	c789                	beqz	a5,e5c <EXTI_GetITStatus+0x46>
C:\Users\16917\Desktop\Dual-core_Communication_Demo\Dual-core_Communication_Demo\SLAVE\obj/../Libraries/wch_libraries/Peripheral/ch32v10x_exti.c:138
     e54:	4785                	li	a5,1
     e56:	fef42623          	sw	a5,-20(s0)
     e5a:	a019                	j	e60 <EXTI_GetITStatus+0x4a>
C:\Users\16917\Desktop\Dual-core_Communication_Demo\Dual-core_Communication_Demo\SLAVE\obj/../Libraries/wch_libraries/Peripheral/ch32v10x_exti.c:142
     e5c:	fe042623          	sw	zero,-20(s0)
C:\Users\16917\Desktop\Dual-core_Communication_Demo\Dual-core_Communication_Demo\SLAVE\obj/../Libraries/wch_libraries/Peripheral/ch32v10x_exti.c:144
     e60:	fec42783          	lw	a5,-20(s0)
C:\Users\16917\Desktop\Dual-core_Communication_Demo\Dual-core_Communication_Demo\SLAVE\obj/../Libraries/wch_libraries/Peripheral/ch32v10x_exti.c:145
     e64:	853e                	mv	a0,a5
     e66:	5432                	lw	s0,44(sp)
     e68:	6145                	addi	sp,sp,48
     e6a:	8082                	ret

00000e6c <EXTI_ClearITPendingBit>:
EXTI_ClearITPendingBit():
C:\Users\16917\Desktop\Dual-core_Communication_Demo\Dual-core_Communication_Demo\SLAVE\obj/../Libraries/wch_libraries/Peripheral/ch32v10x_exti.c:154
     e6c:	1101                	addi	sp,sp,-32
     e6e:	ce22                	sw	s0,28(sp)
     e70:	1000                	addi	s0,sp,32
     e72:	fea42623          	sw	a0,-20(s0)
C:\Users\16917\Desktop\Dual-core_Communication_Demo\Dual-core_Communication_Demo\SLAVE\obj/../Libraries/wch_libraries/Peripheral/ch32v10x_exti.c:155
     e76:	400107b7          	lui	a5,0x40010
     e7a:	40078793          	addi	a5,a5,1024 # 40010400 <_eusrstack+0x2000b400>
     e7e:	fec42703          	lw	a4,-20(s0)
     e82:	cbd8                	sw	a4,20(a5)
C:\Users\16917\Desktop\Dual-core_Communication_Demo\Dual-core_Communication_Demo\SLAVE\obj/../Libraries/wch_libraries/Peripheral/ch32v10x_exti.c:156
     e84:	0001                	nop
     e86:	4472                	lw	s0,28(sp)
     e88:	6105                	addi	sp,sp,32
     e8a:	8082                	ret

00000e8c <GPIO_Init>:
GPIO_Init():
C:\Users\16917\Desktop\Dual-core_Communication_Demo\Dual-core_Communication_Demo\SLAVE\obj/../Libraries/wch_libraries/Peripheral/ch32v10x_gpio.c:88
     e8c:	7139                	addi	sp,sp,-64
     e8e:	de22                	sw	s0,60(sp)
     e90:	0080                	addi	s0,sp,64
     e92:	fca42623          	sw	a0,-52(s0)
     e96:	fcb42423          	sw	a1,-56(s0)
C:\Users\16917\Desktop\Dual-core_Communication_Demo\Dual-core_Communication_Demo\SLAVE\obj/../Libraries/wch_libraries/Peripheral/ch32v10x_gpio.c:89
     e9a:	fe042623          	sw	zero,-20(s0)
     e9e:	fe042023          	sw	zero,-32(s0)
     ea2:	fe042423          	sw	zero,-24(s0)
     ea6:	fc042e23          	sw	zero,-36(s0)
C:\Users\16917\Desktop\Dual-core_Communication_Demo\Dual-core_Communication_Demo\SLAVE\obj/../Libraries/wch_libraries/Peripheral/ch32v10x_gpio.c:90
     eaa:	fe042223          	sw	zero,-28(s0)
     eae:	fc042c23          	sw	zero,-40(s0)
C:\Users\16917\Desktop\Dual-core_Communication_Demo\Dual-core_Communication_Demo\SLAVE\obj/../Libraries/wch_libraries/Peripheral/ch32v10x_gpio.c:92
     eb2:	fc842783          	lw	a5,-56(s0)
     eb6:	479c                	lw	a5,8(a5)
     eb8:	8bbd                	andi	a5,a5,15
     eba:	fef42623          	sw	a5,-20(s0)
C:\Users\16917\Desktop\Dual-core_Communication_Demo\Dual-core_Communication_Demo\SLAVE\obj/../Libraries/wch_libraries/Peripheral/ch32v10x_gpio.c:94
     ebe:	fc842783          	lw	a5,-56(s0)
     ec2:	479c                	lw	a5,8(a5)
     ec4:	8bc1                	andi	a5,a5,16
     ec6:	cb89                	beqz	a5,ed8 <GPIO_Init+0x4c>
C:\Users\16917\Desktop\Dual-core_Communication_Demo\Dual-core_Communication_Demo\SLAVE\obj/../Libraries/wch_libraries/Peripheral/ch32v10x_gpio.c:96
     ec8:	fc842783          	lw	a5,-56(s0)
     ecc:	43dc                	lw	a5,4(a5)
     ece:	fec42703          	lw	a4,-20(s0)
     ed2:	8fd9                	or	a5,a5,a4
     ed4:	fef42623          	sw	a5,-20(s0)
C:\Users\16917\Desktop\Dual-core_Communication_Demo\Dual-core_Communication_Demo\SLAVE\obj/../Libraries/wch_libraries/Peripheral/ch32v10x_gpio.c:99
     ed8:	fc842783          	lw	a5,-56(s0)
     edc:	0007d783          	lhu	a5,0(a5)
     ee0:	0ff7f793          	andi	a5,a5,255
     ee4:	cff1                	beqz	a5,fc0 <GPIO_Init+0x134>
C:\Users\16917\Desktop\Dual-core_Communication_Demo\Dual-core_Communication_Demo\SLAVE\obj/../Libraries/wch_libraries/Peripheral/ch32v10x_gpio.c:101
     ee6:	fcc42783          	lw	a5,-52(s0)
     eea:	439c                	lw	a5,0(a5)
     eec:	fef42223          	sw	a5,-28(s0)
C:\Users\16917\Desktop\Dual-core_Communication_Demo\Dual-core_Communication_Demo\SLAVE\obj/../Libraries/wch_libraries/Peripheral/ch32v10x_gpio.c:103
     ef0:	fe042423          	sw	zero,-24(s0)
     ef4:	a865                	j	fac <GPIO_Init+0x120>
C:\Users\16917\Desktop\Dual-core_Communication_Demo\Dual-core_Communication_Demo\SLAVE\obj/../Libraries/wch_libraries/Peripheral/ch32v10x_gpio.c:105
     ef6:	fe842783          	lw	a5,-24(s0)
     efa:	4705                	li	a4,1
     efc:	00f717b3          	sll	a5,a4,a5
     f00:	fcf42e23          	sw	a5,-36(s0)
C:\Users\16917\Desktop\Dual-core_Communication_Demo\Dual-core_Communication_Demo\SLAVE\obj/../Libraries/wch_libraries/Peripheral/ch32v10x_gpio.c:106
     f04:	fc842783          	lw	a5,-56(s0)
     f08:	0007d783          	lhu	a5,0(a5)
     f0c:	873e                	mv	a4,a5
     f0e:	fdc42783          	lw	a5,-36(s0)
     f12:	8ff9                	and	a5,a5,a4
     f14:	fef42023          	sw	a5,-32(s0)
C:\Users\16917\Desktop\Dual-core_Communication_Demo\Dual-core_Communication_Demo\SLAVE\obj/../Libraries/wch_libraries/Peripheral/ch32v10x_gpio.c:108
     f18:	fe042703          	lw	a4,-32(s0)
     f1c:	fdc42783          	lw	a5,-36(s0)
     f20:	08f71163          	bne	a4,a5,fa2 <GPIO_Init+0x116>
C:\Users\16917\Desktop\Dual-core_Communication_Demo\Dual-core_Communication_Demo\SLAVE\obj/../Libraries/wch_libraries/Peripheral/ch32v10x_gpio.c:110
     f24:	fe842783          	lw	a5,-24(s0)
     f28:	078a                	slli	a5,a5,0x2
     f2a:	fcf42e23          	sw	a5,-36(s0)
C:\Users\16917\Desktop\Dual-core_Communication_Demo\Dual-core_Communication_Demo\SLAVE\obj/../Libraries/wch_libraries/Peripheral/ch32v10x_gpio.c:111
     f2e:	fdc42783          	lw	a5,-36(s0)
     f32:	473d                	li	a4,15
     f34:	00f717b3          	sll	a5,a4,a5
     f38:	fcf42c23          	sw	a5,-40(s0)
C:\Users\16917\Desktop\Dual-core_Communication_Demo\Dual-core_Communication_Demo\SLAVE\obj/../Libraries/wch_libraries/Peripheral/ch32v10x_gpio.c:112
     f3c:	fd842783          	lw	a5,-40(s0)
     f40:	fff7c793          	not	a5,a5
     f44:	fe442703          	lw	a4,-28(s0)
     f48:	8ff9                	and	a5,a5,a4
     f4a:	fef42223          	sw	a5,-28(s0)
C:\Users\16917\Desktop\Dual-core_Communication_Demo\Dual-core_Communication_Demo\SLAVE\obj/../Libraries/wch_libraries/Peripheral/ch32v10x_gpio.c:113
     f4e:	fdc42783          	lw	a5,-36(s0)
     f52:	fec42703          	lw	a4,-20(s0)
     f56:	00f717b3          	sll	a5,a4,a5
     f5a:	fe442703          	lw	a4,-28(s0)
     f5e:	8fd9                	or	a5,a5,a4
     f60:	fef42223          	sw	a5,-28(s0)
C:\Users\16917\Desktop\Dual-core_Communication_Demo\Dual-core_Communication_Demo\SLAVE\obj/../Libraries/wch_libraries/Peripheral/ch32v10x_gpio.c:115
     f64:	fc842783          	lw	a5,-56(s0)
     f68:	4798                	lw	a4,8(a5)
     f6a:	02800793          	li	a5,40
     f6e:	00f71b63          	bne	a4,a5,f84 <GPIO_Init+0xf8>
C:\Users\16917\Desktop\Dual-core_Communication_Demo\Dual-core_Communication_Demo\SLAVE\obj/../Libraries/wch_libraries/Peripheral/ch32v10x_gpio.c:117
     f72:	fe842783          	lw	a5,-24(s0)
     f76:	4705                	li	a4,1
     f78:	00f71733          	sll	a4,a4,a5
     f7c:	fcc42783          	lw	a5,-52(s0)
     f80:	cbd8                	sw	a4,20(a5)
     f82:	a005                	j	fa2 <GPIO_Init+0x116>
C:\Users\16917\Desktop\Dual-core_Communication_Demo\Dual-core_Communication_Demo\SLAVE\obj/../Libraries/wch_libraries/Peripheral/ch32v10x_gpio.c:121
     f84:	fc842783          	lw	a5,-56(s0)
     f88:	4798                	lw	a4,8(a5)
     f8a:	04800793          	li	a5,72
     f8e:	00f71a63          	bne	a4,a5,fa2 <GPIO_Init+0x116>
C:\Users\16917\Desktop\Dual-core_Communication_Demo\Dual-core_Communication_Demo\SLAVE\obj/../Libraries/wch_libraries/Peripheral/ch32v10x_gpio.c:123
     f92:	fe842783          	lw	a5,-24(s0)
     f96:	4705                	li	a4,1
     f98:	00f71733          	sll	a4,a4,a5
     f9c:	fcc42783          	lw	a5,-52(s0)
     fa0:	cb98                	sw	a4,16(a5)
C:\Users\16917\Desktop\Dual-core_Communication_Demo\Dual-core_Communication_Demo\SLAVE\obj/../Libraries/wch_libraries/Peripheral/ch32v10x_gpio.c:103 (discriminator 2)
     fa2:	fe842783          	lw	a5,-24(s0)
     fa6:	0785                	addi	a5,a5,1
     fa8:	fef42423          	sw	a5,-24(s0)
C:\Users\16917\Desktop\Dual-core_Communication_Demo\Dual-core_Communication_Demo\SLAVE\obj/../Libraries/wch_libraries/Peripheral/ch32v10x_gpio.c:103 (discriminator 1)
     fac:	fe842703          	lw	a4,-24(s0)
     fb0:	479d                	li	a5,7
     fb2:	f4e7f2e3          	bgeu	a5,a4,ef6 <GPIO_Init+0x6a>
C:\Users\16917\Desktop\Dual-core_Communication_Demo\Dual-core_Communication_Demo\SLAVE\obj/../Libraries/wch_libraries/Peripheral/ch32v10x_gpio.c:128
     fb6:	fcc42783          	lw	a5,-52(s0)
     fba:	fe442703          	lw	a4,-28(s0)
     fbe:	c398                	sw	a4,0(a5)
C:\Users\16917\Desktop\Dual-core_Communication_Demo\Dual-core_Communication_Demo\SLAVE\obj/../Libraries/wch_libraries/Peripheral/ch32v10x_gpio.c:131
     fc0:	fc842783          	lw	a5,-56(s0)
     fc4:	0007d703          	lhu	a4,0(a5)
     fc8:	0ff00793          	li	a5,255
     fcc:	0ee7f163          	bgeu	a5,a4,10ae <GPIO_Init+0x222>
C:\Users\16917\Desktop\Dual-core_Communication_Demo\Dual-core_Communication_Demo\SLAVE\obj/../Libraries/wch_libraries/Peripheral/ch32v10x_gpio.c:133
     fd0:	fcc42783          	lw	a5,-52(s0)
     fd4:	43dc                	lw	a5,4(a5)
     fd6:	fef42223          	sw	a5,-28(s0)
C:\Users\16917\Desktop\Dual-core_Communication_Demo\Dual-core_Communication_Demo\SLAVE\obj/../Libraries/wch_libraries/Peripheral/ch32v10x_gpio.c:135
     fda:	fe042423          	sw	zero,-24(s0)
     fde:	a875                	j	109a <GPIO_Init+0x20e>
C:\Users\16917\Desktop\Dual-core_Communication_Demo\Dual-core_Communication_Demo\SLAVE\obj/../Libraries/wch_libraries/Peripheral/ch32v10x_gpio.c:137
     fe0:	fe842783          	lw	a5,-24(s0)
     fe4:	07a1                	addi	a5,a5,8
     fe6:	4705                	li	a4,1
     fe8:	00f717b3          	sll	a5,a4,a5
     fec:	fcf42e23          	sw	a5,-36(s0)
C:\Users\16917\Desktop\Dual-core_Communication_Demo\Dual-core_Communication_Demo\SLAVE\obj/../Libraries/wch_libraries/Peripheral/ch32v10x_gpio.c:138
     ff0:	fc842783          	lw	a5,-56(s0)
     ff4:	0007d783          	lhu	a5,0(a5)
     ff8:	873e                	mv	a4,a5
     ffa:	fdc42783          	lw	a5,-36(s0)
     ffe:	8ff9                	and	a5,a5,a4
    1000:	fef42023          	sw	a5,-32(s0)
C:\Users\16917\Desktop\Dual-core_Communication_Demo\Dual-core_Communication_Demo\SLAVE\obj/../Libraries/wch_libraries/Peripheral/ch32v10x_gpio.c:140
    1004:	fe042703          	lw	a4,-32(s0)
    1008:	fdc42783          	lw	a5,-36(s0)
    100c:	08f71263          	bne	a4,a5,1090 <GPIO_Init+0x204>
C:\Users\16917\Desktop\Dual-core_Communication_Demo\Dual-core_Communication_Demo\SLAVE\obj/../Libraries/wch_libraries/Peripheral/ch32v10x_gpio.c:142
    1010:	fe842783          	lw	a5,-24(s0)
    1014:	078a                	slli	a5,a5,0x2
    1016:	fcf42e23          	sw	a5,-36(s0)
C:\Users\16917\Desktop\Dual-core_Communication_Demo\Dual-core_Communication_Demo\SLAVE\obj/../Libraries/wch_libraries/Peripheral/ch32v10x_gpio.c:143
    101a:	fdc42783          	lw	a5,-36(s0)
    101e:	473d                	li	a4,15
    1020:	00f717b3          	sll	a5,a4,a5
    1024:	fcf42c23          	sw	a5,-40(s0)
C:\Users\16917\Desktop\Dual-core_Communication_Demo\Dual-core_Communication_Demo\SLAVE\obj/../Libraries/wch_libraries/Peripheral/ch32v10x_gpio.c:144
    1028:	fd842783          	lw	a5,-40(s0)
    102c:	fff7c793          	not	a5,a5
    1030:	fe442703          	lw	a4,-28(s0)
    1034:	8ff9                	and	a5,a5,a4
    1036:	fef42223          	sw	a5,-28(s0)
C:\Users\16917\Desktop\Dual-core_Communication_Demo\Dual-core_Communication_Demo\SLAVE\obj/../Libraries/wch_libraries/Peripheral/ch32v10x_gpio.c:145
    103a:	fdc42783          	lw	a5,-36(s0)
    103e:	fec42703          	lw	a4,-20(s0)
    1042:	00f717b3          	sll	a5,a4,a5
    1046:	fe442703          	lw	a4,-28(s0)
    104a:	8fd9                	or	a5,a5,a4
    104c:	fef42223          	sw	a5,-28(s0)
C:\Users\16917\Desktop\Dual-core_Communication_Demo\Dual-core_Communication_Demo\SLAVE\obj/../Libraries/wch_libraries/Peripheral/ch32v10x_gpio.c:147
    1050:	fc842783          	lw	a5,-56(s0)
    1054:	4798                	lw	a4,8(a5)
    1056:	02800793          	li	a5,40
    105a:	00f71b63          	bne	a4,a5,1070 <GPIO_Init+0x1e4>
C:\Users\16917\Desktop\Dual-core_Communication_Demo\Dual-core_Communication_Demo\SLAVE\obj/../Libraries/wch_libraries/Peripheral/ch32v10x_gpio.c:149
    105e:	fe842783          	lw	a5,-24(s0)
    1062:	07a1                	addi	a5,a5,8
    1064:	4705                	li	a4,1
    1066:	00f71733          	sll	a4,a4,a5
    106a:	fcc42783          	lw	a5,-52(s0)
    106e:	cbd8                	sw	a4,20(a5)
C:\Users\16917\Desktop\Dual-core_Communication_Demo\Dual-core_Communication_Demo\SLAVE\obj/../Libraries/wch_libraries/Peripheral/ch32v10x_gpio.c:152
    1070:	fc842783          	lw	a5,-56(s0)
    1074:	4798                	lw	a4,8(a5)
    1076:	04800793          	li	a5,72
    107a:	00f71b63          	bne	a4,a5,1090 <GPIO_Init+0x204>
C:\Users\16917\Desktop\Dual-core_Communication_Demo\Dual-core_Communication_Demo\SLAVE\obj/../Libraries/wch_libraries/Peripheral/ch32v10x_gpio.c:154
    107e:	fe842783          	lw	a5,-24(s0)
    1082:	07a1                	addi	a5,a5,8
    1084:	4705                	li	a4,1
    1086:	00f71733          	sll	a4,a4,a5
    108a:	fcc42783          	lw	a5,-52(s0)
    108e:	cb98                	sw	a4,16(a5)
C:\Users\16917\Desktop\Dual-core_Communication_Demo\Dual-core_Communication_Demo\SLAVE\obj/../Libraries/wch_libraries/Peripheral/ch32v10x_gpio.c:135 (discriminator 2)
    1090:	fe842783          	lw	a5,-24(s0)
    1094:	0785                	addi	a5,a5,1
    1096:	fef42423          	sw	a5,-24(s0)
C:\Users\16917\Desktop\Dual-core_Communication_Demo\Dual-core_Communication_Demo\SLAVE\obj/../Libraries/wch_libraries/Peripheral/ch32v10x_gpio.c:135 (discriminator 1)
    109a:	fe842703          	lw	a4,-24(s0)
    109e:	479d                	li	a5,7
    10a0:	f4e7f0e3          	bgeu	a5,a4,fe0 <GPIO_Init+0x154>
C:\Users\16917\Desktop\Dual-core_Communication_Demo\Dual-core_Communication_Demo\SLAVE\obj/../Libraries/wch_libraries/Peripheral/ch32v10x_gpio.c:158
    10a4:	fcc42783          	lw	a5,-52(s0)
    10a8:	fe442703          	lw	a4,-28(s0)
    10ac:	c3d8                	sw	a4,4(a5)
C:\Users\16917\Desktop\Dual-core_Communication_Demo\Dual-core_Communication_Demo\SLAVE\obj/../Libraries/wch_libraries/Peripheral/ch32v10x_gpio.c:160
    10ae:	0001                	nop
    10b0:	5472                	lw	s0,60(sp)
    10b2:	6121                	addi	sp,sp,64
    10b4:	8082                	ret

000010b6 <GPIO_WriteBit>:
GPIO_WriteBit():
C:\Users\16917\Desktop\Dual-core_Communication_Demo\Dual-core_Communication_Demo\SLAVE\obj/../Libraries/wch_libraries/Peripheral/ch32v10x_gpio.c:282
    10b6:	1101                	addi	sp,sp,-32
    10b8:	ce22                	sw	s0,28(sp)
    10ba:	1000                	addi	s0,sp,32
    10bc:	fea42623          	sw	a0,-20(s0)
    10c0:	87ae                	mv	a5,a1
    10c2:	fec42223          	sw	a2,-28(s0)
    10c6:	fef41523          	sh	a5,-22(s0)
C:\Users\16917\Desktop\Dual-core_Communication_Demo\Dual-core_Communication_Demo\SLAVE\obj/../Libraries/wch_libraries/Peripheral/ch32v10x_gpio.c:283
    10ca:	fe442783          	lw	a5,-28(s0)
    10ce:	c799                	beqz	a5,10dc <GPIO_WriteBit+0x26>
C:\Users\16917\Desktop\Dual-core_Communication_Demo\Dual-core_Communication_Demo\SLAVE\obj/../Libraries/wch_libraries/Peripheral/ch32v10x_gpio.c:285
    10d0:	fea45703          	lhu	a4,-22(s0)
    10d4:	fec42783          	lw	a5,-20(s0)
    10d8:	cb98                	sw	a4,16(a5)
C:\Users\16917\Desktop\Dual-core_Communication_Demo\Dual-core_Communication_Demo\SLAVE\obj/../Libraries/wch_libraries/Peripheral/ch32v10x_gpio.c:291
    10da:	a031                	j	10e6 <GPIO_WriteBit+0x30>
C:\Users\16917\Desktop\Dual-core_Communication_Demo\Dual-core_Communication_Demo\SLAVE\obj/../Libraries/wch_libraries/Peripheral/ch32v10x_gpio.c:289
    10dc:	fea45703          	lhu	a4,-22(s0)
    10e0:	fec42783          	lw	a5,-20(s0)
    10e4:	cbd8                	sw	a4,20(a5)
C:\Users\16917\Desktop\Dual-core_Communication_Demo\Dual-core_Communication_Demo\SLAVE\obj/../Libraries/wch_libraries/Peripheral/ch32v10x_gpio.c:291
    10e6:	0001                	nop
    10e8:	4472                	lw	s0,28(sp)
    10ea:	6105                	addi	sp,sp,32
    10ec:	8082                	ret

000010ee <GPIO_PinRemapConfig>:
GPIO_PinRemapConfig():
C:\Users\16917\Desktop\Dual-core_Communication_Demo\Dual-core_Communication_Demo\SLAVE\obj/../Libraries/wch_libraries/Peripheral/ch32v10x_gpio.c:402
    10ee:	7179                	addi	sp,sp,-48
    10f0:	d622                	sw	s0,44(sp)
    10f2:	1800                	addi	s0,sp,48
    10f4:	fca42e23          	sw	a0,-36(s0)
    10f8:	fcb42c23          	sw	a1,-40(s0)
C:\Users\16917\Desktop\Dual-core_Communication_Demo\Dual-core_Communication_Demo\SLAVE\obj/../Libraries/wch_libraries/Peripheral/ch32v10x_gpio.c:403
    10fc:	fe042423          	sw	zero,-24(s0)
    1100:	fe042223          	sw	zero,-28(s0)
    1104:	fe042623          	sw	zero,-20(s0)
    1108:	fe042023          	sw	zero,-32(s0)
C:\Users\16917\Desktop\Dual-core_Communication_Demo\Dual-core_Communication_Demo\SLAVE\obj/../Libraries/wch_libraries/Peripheral/ch32v10x_gpio.c:405
    110c:	fdc42783          	lw	a5,-36(s0)
    1110:	0007d863          	bgez	a5,1120 <GPIO_PinRemapConfig+0x32>
C:\Users\16917\Desktop\Dual-core_Communication_Demo\Dual-core_Communication_Demo\SLAVE\obj/../Libraries/wch_libraries/Peripheral/ch32v10x_gpio.c:407
    1114:	400107b7          	lui	a5,0x40010
    1118:	4fdc                	lw	a5,28(a5)
    111a:	fef42623          	sw	a5,-20(s0)
    111e:	a031                	j	112a <GPIO_PinRemapConfig+0x3c>
C:\Users\16917\Desktop\Dual-core_Communication_Demo\Dual-core_Communication_Demo\SLAVE\obj/../Libraries/wch_libraries/Peripheral/ch32v10x_gpio.c:411
    1120:	400107b7          	lui	a5,0x40010
    1124:	43dc                	lw	a5,4(a5)
    1126:	fef42623          	sw	a5,-20(s0)
C:\Users\16917\Desktop\Dual-core_Communication_Demo\Dual-core_Communication_Demo\SLAVE\obj/../Libraries/wch_libraries/Peripheral/ch32v10x_gpio.c:414
    112a:	fdc42783          	lw	a5,-36(s0)
    112e:	83c1                	srli	a5,a5,0x10
    1130:	8bbd                	andi	a5,a5,15
    1132:	fef42023          	sw	a5,-32(s0)
C:\Users\16917\Desktop\Dual-core_Communication_Demo\Dual-core_Communication_Demo\SLAVE\obj/../Libraries/wch_libraries/Peripheral/ch32v10x_gpio.c:415
    1136:	fdc42703          	lw	a4,-36(s0)
    113a:	67c1                	lui	a5,0x10
    113c:	17fd                	addi	a5,a5,-1
    113e:	8ff9                	and	a5,a5,a4
    1140:	fef42423          	sw	a5,-24(s0)
C:\Users\16917\Desktop\Dual-core_Communication_Demo\Dual-core_Communication_Demo\SLAVE\obj/../Libraries/wch_libraries/Peripheral/ch32v10x_gpio.c:417
    1144:	fdc42703          	lw	a4,-36(s0)
    1148:	003007b7          	lui	a5,0x300
    114c:	8f7d                	and	a4,a4,a5
    114e:	003007b7          	lui	a5,0x300
    1152:	02f71563          	bne	a4,a5,117c <GPIO_PinRemapConfig+0x8e>
C:\Users\16917\Desktop\Dual-core_Communication_Demo\Dual-core_Communication_Demo\SLAVE\obj/../Libraries/wch_libraries/Peripheral/ch32v10x_gpio.c:419
    1156:	fec42703          	lw	a4,-20(s0)
    115a:	f10007b7          	lui	a5,0xf1000
    115e:	17fd                	addi	a5,a5,-1
    1160:	8ff9                	and	a5,a5,a4
    1162:	fef42623          	sw	a5,-20(s0)
C:\Users\16917\Desktop\Dual-core_Communication_Demo\Dual-core_Communication_Demo\SLAVE\obj/../Libraries/wch_libraries/Peripheral/ch32v10x_gpio.c:420
    1166:	400107b7          	lui	a5,0x40010
    116a:	43d4                	lw	a3,4(a5)
    116c:	400107b7          	lui	a5,0x40010
    1170:	f1000737          	lui	a4,0xf1000
    1174:	177d                	addi	a4,a4,-1
    1176:	8f75                	and	a4,a4,a3
    1178:	c3d8                	sw	a4,4(a5)
    117a:	a0ad                	j	11e4 <GPIO_PinRemapConfig+0xf6>
C:\Users\16917\Desktop\Dual-core_Communication_Demo\Dual-core_Communication_Demo\SLAVE\obj/../Libraries/wch_libraries/Peripheral/ch32v10x_gpio.c:422
    117c:	fdc42703          	lw	a4,-36(s0)
    1180:	001007b7          	lui	a5,0x100
    1184:	8ff9                	and	a5,a5,a4
    1186:	cb8d                	beqz	a5,11b8 <GPIO_PinRemapConfig+0xca>
C:\Users\16917\Desktop\Dual-core_Communication_Demo\Dual-core_Communication_Demo\SLAVE\obj/../Libraries/wch_libraries/Peripheral/ch32v10x_gpio.c:424
    1188:	fe042783          	lw	a5,-32(s0)
    118c:	470d                	li	a4,3
    118e:	00f717b3          	sll	a5,a4,a5
    1192:	fef42223          	sw	a5,-28(s0)
C:\Users\16917\Desktop\Dual-core_Communication_Demo\Dual-core_Communication_Demo\SLAVE\obj/../Libraries/wch_libraries/Peripheral/ch32v10x_gpio.c:425
    1196:	fe442783          	lw	a5,-28(s0)
    119a:	fff7c793          	not	a5,a5
    119e:	fec42703          	lw	a4,-20(s0)
    11a2:	8ff9                	and	a5,a5,a4
    11a4:	fef42623          	sw	a5,-20(s0)
C:\Users\16917\Desktop\Dual-core_Communication_Demo\Dual-core_Communication_Demo\SLAVE\obj/../Libraries/wch_libraries/Peripheral/ch32v10x_gpio.c:426
    11a8:	fec42703          	lw	a4,-20(s0)
    11ac:	0f0007b7          	lui	a5,0xf000
    11b0:	8fd9                	or	a5,a5,a4
    11b2:	fef42623          	sw	a5,-20(s0)
    11b6:	a03d                	j	11e4 <GPIO_PinRemapConfig+0xf6>
C:\Users\16917\Desktop\Dual-core_Communication_Demo\Dual-core_Communication_Demo\SLAVE\obj/../Libraries/wch_libraries/Peripheral/ch32v10x_gpio.c:430
    11b8:	fdc42783          	lw	a5,-36(s0)
    11bc:	83d5                	srli	a5,a5,0x15
    11be:	0792                	slli	a5,a5,0x4
    11c0:	fe842703          	lw	a4,-24(s0)
    11c4:	00f717b3          	sll	a5,a4,a5
    11c8:	fff7c793          	not	a5,a5
    11cc:	fec42703          	lw	a4,-20(s0)
    11d0:	8ff9                	and	a5,a5,a4
    11d2:	fef42623          	sw	a5,-20(s0)
C:\Users\16917\Desktop\Dual-core_Communication_Demo\Dual-core_Communication_Demo\SLAVE\obj/../Libraries/wch_libraries/Peripheral/ch32v10x_gpio.c:431
    11d6:	fec42703          	lw	a4,-20(s0)
    11da:	0f0007b7          	lui	a5,0xf000
    11de:	8fd9                	or	a5,a5,a4
    11e0:	fef42623          	sw	a5,-20(s0)
C:\Users\16917\Desktop\Dual-core_Communication_Demo\Dual-core_Communication_Demo\SLAVE\obj/../Libraries/wch_libraries/Peripheral/ch32v10x_gpio.c:434
    11e4:	fd842783          	lw	a5,-40(s0)
    11e8:	cf91                	beqz	a5,1204 <GPIO_PinRemapConfig+0x116>
C:\Users\16917\Desktop\Dual-core_Communication_Demo\Dual-core_Communication_Demo\SLAVE\obj/../Libraries/wch_libraries/Peripheral/ch32v10x_gpio.c:436
    11ea:	fdc42783          	lw	a5,-36(s0)
    11ee:	83d5                	srli	a5,a5,0x15
    11f0:	0792                	slli	a5,a5,0x4
    11f2:	fe842703          	lw	a4,-24(s0)
    11f6:	00f717b3          	sll	a5,a4,a5
    11fa:	fec42703          	lw	a4,-20(s0)
    11fe:	8fd9                	or	a5,a5,a4
    1200:	fef42623          	sw	a5,-20(s0)
C:\Users\16917\Desktop\Dual-core_Communication_Demo\Dual-core_Communication_Demo\SLAVE\obj/../Libraries/wch_libraries/Peripheral/ch32v10x_gpio.c:439
    1204:	fdc42783          	lw	a5,-36(s0)
    1208:	0007d863          	bgez	a5,1218 <GPIO_PinRemapConfig+0x12a>
C:\Users\16917\Desktop\Dual-core_Communication_Demo\Dual-core_Communication_Demo\SLAVE\obj/../Libraries/wch_libraries/Peripheral/ch32v10x_gpio.c:441
    120c:	400107b7          	lui	a5,0x40010
    1210:	fec42703          	lw	a4,-20(s0)
    1214:	cfd8                	sw	a4,28(a5)
C:\Users\16917\Desktop\Dual-core_Communication_Demo\Dual-core_Communication_Demo\SLAVE\obj/../Libraries/wch_libraries/Peripheral/ch32v10x_gpio.c:447
    1216:	a031                	j	1222 <GPIO_PinRemapConfig+0x134>
C:\Users\16917\Desktop\Dual-core_Communication_Demo\Dual-core_Communication_Demo\SLAVE\obj/../Libraries/wch_libraries/Peripheral/ch32v10x_gpio.c:445
    1218:	400107b7          	lui	a5,0x40010
    121c:	fec42703          	lw	a4,-20(s0)
    1220:	c3d8                	sw	a4,4(a5)
C:\Users\16917\Desktop\Dual-core_Communication_Demo\Dual-core_Communication_Demo\SLAVE\obj/../Libraries/wch_libraries/Peripheral/ch32v10x_gpio.c:447
    1222:	0001                	nop
    1224:	5432                	lw	s0,44(sp)
    1226:	6145                	addi	sp,sp,48
    1228:	8082                	ret

0000122a <GPIO_EXTILineConfig>:
GPIO_EXTILineConfig():
C:\Users\16917\Desktop\Dual-core_Communication_Demo\Dual-core_Communication_Demo\SLAVE\obj/../Libraries/wch_libraries/Peripheral/ch32v10x_gpio.c:459
    122a:	7179                	addi	sp,sp,-48
    122c:	d622                	sw	s0,44(sp)
    122e:	1800                	addi	s0,sp,48
    1230:	87aa                	mv	a5,a0
    1232:	872e                	mv	a4,a1
    1234:	fcf40fa3          	sb	a5,-33(s0)
    1238:	87ba                	mv	a5,a4
    123a:	fcf40f23          	sb	a5,-34(s0)
C:\Users\16917\Desktop\Dual-core_Communication_Demo\Dual-core_Communication_Demo\SLAVE\obj/../Libraries/wch_libraries/Peripheral/ch32v10x_gpio.c:460
    123e:	fe042623          	sw	zero,-20(s0)
C:\Users\16917\Desktop\Dual-core_Communication_Demo\Dual-core_Communication_Demo\SLAVE\obj/../Libraries/wch_libraries/Peripheral/ch32v10x_gpio.c:462
    1242:	fde44783          	lbu	a5,-34(s0)
    1246:	8b8d                	andi	a5,a5,3
    1248:	078a                	slli	a5,a5,0x2
    124a:	473d                	li	a4,15
    124c:	00f717b3          	sll	a5,a4,a5
    1250:	fef42623          	sw	a5,-20(s0)
C:\Users\16917\Desktop\Dual-core_Communication_Demo\Dual-core_Communication_Demo\SLAVE\obj/../Libraries/wch_libraries/Peripheral/ch32v10x_gpio.c:463
    1254:	40010737          	lui	a4,0x40010
    1258:	fde44783          	lbu	a5,-34(s0)
    125c:	8389                	srli	a5,a5,0x2
    125e:	0ff7f793          	andi	a5,a5,255
    1262:	078a                	slli	a5,a5,0x2
    1264:	97ba                	add	a5,a5,a4
    1266:	4798                	lw	a4,8(a5)
    1268:	fec42783          	lw	a5,-20(s0)
    126c:	fff7c793          	not	a5,a5
    1270:	400106b7          	lui	a3,0x40010
    1274:	fde44603          	lbu	a2,-34(s0)
    1278:	8209                	srli	a2,a2,0x2
    127a:	0ff67613          	andi	a2,a2,255
    127e:	8f7d                	and	a4,a4,a5
    1280:	00261793          	slli	a5,a2,0x2
    1284:	97b6                	add	a5,a5,a3
    1286:	c798                	sw	a4,8(a5)
C:\Users\16917\Desktop\Dual-core_Communication_Demo\Dual-core_Communication_Demo\SLAVE\obj/../Libraries/wch_libraries/Peripheral/ch32v10x_gpio.c:464
    1288:	40010737          	lui	a4,0x40010
    128c:	fde44783          	lbu	a5,-34(s0)
    1290:	8389                	srli	a5,a5,0x2
    1292:	0ff7f793          	andi	a5,a5,255
    1296:	078a                	slli	a5,a5,0x2
    1298:	97ba                	add	a5,a5,a4
    129a:	4798                	lw	a4,8(a5)
    129c:	fdf44683          	lbu	a3,-33(s0)
    12a0:	fde44783          	lbu	a5,-34(s0)
    12a4:	8b8d                	andi	a5,a5,3
    12a6:	078a                	slli	a5,a5,0x2
    12a8:	00f697b3          	sll	a5,a3,a5
    12ac:	400106b7          	lui	a3,0x40010
    12b0:	fde44603          	lbu	a2,-34(s0)
    12b4:	8209                	srli	a2,a2,0x2
    12b6:	0ff67613          	andi	a2,a2,255
    12ba:	8f5d                	or	a4,a4,a5
    12bc:	00261793          	slli	a5,a2,0x2
    12c0:	97b6                	add	a5,a5,a3
    12c2:	c798                	sw	a4,8(a5)
C:\Users\16917\Desktop\Dual-core_Communication_Demo\Dual-core_Communication_Demo\SLAVE\obj/../Libraries/wch_libraries/Peripheral/ch32v10x_gpio.c:465
    12c4:	0001                	nop
    12c6:	5432                	lw	s0,44(sp)
    12c8:	6145                	addi	sp,sp,48
    12ca:	8082                	ret

000012cc <NVIC_EnableIRQ>:
NVIC_EnableIRQ():
C:\Users\16917\Desktop\Dual-core_Communication_Demo\Dual-core_Communication_Demo\SLAVE\obj/../Libraries/wch_libraries/Core/core_riscv.h:126
    12cc:	1101                	addi	sp,sp,-32
    12ce:	ce22                	sw	s0,28(sp)
    12d0:	1000                	addi	s0,sp,32
    12d2:	fea42623          	sw	a0,-20(s0)
C:\Users\16917\Desktop\Dual-core_Communication_Demo\Dual-core_Communication_Demo\SLAVE\obj/../Libraries/wch_libraries/Core/core_riscv.h:127
    12d6:	fec42783          	lw	a5,-20(s0)
    12da:	8bfd                	andi	a5,a5,31
    12dc:	4705                	li	a4,1
    12de:	00f716b3          	sll	a3,a4,a5
    12e2:	e000e737          	lui	a4,0xe000e
    12e6:	fec42783          	lw	a5,-20(s0)
    12ea:	8395                	srli	a5,a5,0x5
    12ec:	04078793          	addi	a5,a5,64 # 40010040 <_eusrstack+0x2000b040>
    12f0:	078a                	slli	a5,a5,0x2
    12f2:	97ba                	add	a5,a5,a4
    12f4:	c394                	sw	a3,0(a5)
C:\Users\16917\Desktop\Dual-core_Communication_Demo\Dual-core_Communication_Demo\SLAVE\obj/../Libraries/wch_libraries/Core/core_riscv.h:128
    12f6:	0001                	nop
    12f8:	4472                	lw	s0,28(sp)
    12fa:	6105                	addi	sp,sp,32
    12fc:	8082                	ret

000012fe <NVIC_DisableIRQ>:
NVIC_DisableIRQ():
C:\Users\16917\Desktop\Dual-core_Communication_Demo\Dual-core_Communication_Demo\SLAVE\obj/../Libraries/wch_libraries/Core/core_riscv.h:137
    12fe:	1101                	addi	sp,sp,-32
    1300:	ce22                	sw	s0,28(sp)
    1302:	1000                	addi	s0,sp,32
    1304:	fea42623          	sw	a0,-20(s0)
C:\Users\16917\Desktop\Dual-core_Communication_Demo\Dual-core_Communication_Demo\SLAVE\obj/../Libraries/wch_libraries/Core/core_riscv.h:138
    1308:	fec42783          	lw	a5,-20(s0)
    130c:	8bfd                	andi	a5,a5,31
    130e:	4705                	li	a4,1
    1310:	00f716b3          	sll	a3,a4,a5
    1314:	e000e737          	lui	a4,0xe000e
    1318:	fec42783          	lw	a5,-20(s0)
    131c:	8395                	srli	a5,a5,0x5
    131e:	06078793          	addi	a5,a5,96
    1322:	078a                	slli	a5,a5,0x2
    1324:	97ba                	add	a5,a5,a4
    1326:	c394                	sw	a3,0(a5)
C:\Users\16917\Desktop\Dual-core_Communication_Demo\Dual-core_Communication_Demo\SLAVE\obj/../Libraries/wch_libraries/Core/core_riscv.h:139
    1328:	0001                	nop
    132a:	4472                	lw	s0,28(sp)
    132c:	6105                	addi	sp,sp,32
    132e:	8082                	ret

00001330 <NVIC_SetPriority>:
NVIC_SetPriority():
C:\Users\16917\Desktop\Dual-core_Communication_Demo\Dual-core_Communication_Demo\SLAVE\obj/../Libraries/wch_libraries/Core/core_riscv.h:208
    1330:	1101                	addi	sp,sp,-32
    1332:	ce22                	sw	s0,28(sp)
    1334:	1000                	addi	s0,sp,32
    1336:	fea42623          	sw	a0,-20(s0)
    133a:	87ae                	mv	a5,a1
    133c:	fef405a3          	sb	a5,-21(s0)
C:\Users\16917\Desktop\Dual-core_Communication_Demo\Dual-core_Communication_Demo\SLAVE\obj/../Libraries/wch_libraries/Core/core_riscv.h:209
    1340:	e000e737          	lui	a4,0xe000e
    1344:	fec42783          	lw	a5,-20(s0)
    1348:	97ba                	add	a5,a5,a4
    134a:	feb44703          	lbu	a4,-21(s0)
    134e:	40e78023          	sb	a4,1024(a5)
C:\Users\16917\Desktop\Dual-core_Communication_Demo\Dual-core_Communication_Demo\SLAVE\obj/../Libraries/wch_libraries/Core/core_riscv.h:210
    1352:	0001                	nop
    1354:	4472                	lw	s0,28(sp)
    1356:	6105                	addi	sp,sp,32
    1358:	8082                	ret

0000135a <NVIC_Init>:
NVIC_Init():
C:\Users\16917\Desktop\Dual-core_Communication_Demo\Dual-core_Communication_Demo\SLAVE\obj/../Libraries/wch_libraries/Peripheral/ch32v10x_misc.c:44
    135a:	1101                	addi	sp,sp,-32
    135c:	ce06                	sw	ra,28(sp)
    135e:	cc22                	sw	s0,24(sp)
    1360:	1000                	addi	s0,sp,32
    1362:	fea42623          	sw	a0,-20(s0)
C:\Users\16917\Desktop\Dual-core_Communication_Demo\Dual-core_Communication_Demo\SLAVE\obj/../Libraries/wch_libraries/Peripheral/ch32v10x_misc.c:47
    1366:	e000e7b7          	lui	a5,0xe000e
    136a:	47bc                	lw	a5,72(a5)
    136c:	8b89                	andi	a5,a5,2
    136e:	c38d                	beqz	a5,1390 <NVIC_Init+0x36>
C:\Users\16917\Desktop\Dual-core_Communication_Demo\Dual-core_Communication_Demo\SLAVE\obj/../Libraries/wch_libraries/Peripheral/ch32v10x_misc.c:49
    1370:	fec42783          	lw	a5,-20(s0)
    1374:	0007c783          	lbu	a5,0(a5) # e000e000 <_eusrstack+0xc0009000>
    1378:	873e                	mv	a4,a5
    137a:	fec42783          	lw	a5,-20(s0)
    137e:	0027c783          	lbu	a5,2(a5)
    1382:	0792                	slli	a5,a5,0x4
    1384:	0ff7f793          	andi	a5,a5,255
    1388:	85be                	mv	a1,a5
    138a:	853a                	mv	a0,a4
    138c:	3755                	jal	1330 <NVIC_SetPriority>
    138e:	a095                	j	13f2 <NVIC_Init+0x98>
C:\Users\16917\Desktop\Dual-core_Communication_Demo\Dual-core_Communication_Demo\SLAVE\obj/../Libraries/wch_libraries/Peripheral/ch32v10x_misc.c:51
    1390:	e000e7b7          	lui	a5,0xe000e
    1394:	47bc                	lw	a5,72(a5)
    1396:	8b89                	andi	a5,a5,2
    1398:	efa9                	bnez	a5,13f2 <NVIC_Init+0x98>
C:\Users\16917\Desktop\Dual-core_Communication_Demo\Dual-core_Communication_Demo\SLAVE\obj/../Libraries/wch_libraries/Peripheral/ch32v10x_misc.c:53
    139a:	fec42783          	lw	a5,-20(s0)
    139e:	0017c703          	lbu	a4,1(a5) # e000e001 <_eusrstack+0xc0009001>
    13a2:	4785                	li	a5,1
    13a4:	02f71863          	bne	a4,a5,13d4 <NVIC_Init+0x7a>
C:\Users\16917\Desktop\Dual-core_Communication_Demo\Dual-core_Communication_Demo\SLAVE\obj/../Libraries/wch_libraries/Peripheral/ch32v10x_misc.c:55
    13a8:	fec42783          	lw	a5,-20(s0)
    13ac:	0007c783          	lbu	a5,0(a5)
    13b0:	873e                	mv	a4,a5
    13b2:	fec42783          	lw	a5,-20(s0)
    13b6:	0027c783          	lbu	a5,2(a5)
    13ba:	0792                	slli	a5,a5,0x4
    13bc:	07e2                	slli	a5,a5,0x18
    13be:	87e1                	srai	a5,a5,0x18
    13c0:	f807e793          	ori	a5,a5,-128
    13c4:	07e2                	slli	a5,a5,0x18
    13c6:	87e1                	srai	a5,a5,0x18
    13c8:	0ff7f793          	andi	a5,a5,255
    13cc:	85be                	mv	a1,a5
    13ce:	853a                	mv	a0,a4
    13d0:	3785                	jal	1330 <NVIC_SetPriority>
    13d2:	a005                	j	13f2 <NVIC_Init+0x98>
C:\Users\16917\Desktop\Dual-core_Communication_Demo\Dual-core_Communication_Demo\SLAVE\obj/../Libraries/wch_libraries/Peripheral/ch32v10x_misc.c:59
    13d4:	fec42783          	lw	a5,-20(s0)
    13d8:	0007c783          	lbu	a5,0(a5)
    13dc:	873e                	mv	a4,a5
    13de:	fec42783          	lw	a5,-20(s0)
    13e2:	0027c783          	lbu	a5,2(a5)
    13e6:	0792                	slli	a5,a5,0x4
    13e8:	0ff7f793          	andi	a5,a5,255
    13ec:	85be                	mv	a1,a5
    13ee:	853a                	mv	a0,a4
    13f0:	3781                	jal	1330 <NVIC_SetPriority>
C:\Users\16917\Desktop\Dual-core_Communication_Demo\Dual-core_Communication_Demo\SLAVE\obj/../Libraries/wch_libraries/Peripheral/ch32v10x_misc.c:93
    13f2:	fec42783          	lw	a5,-20(s0)
    13f6:	43dc                	lw	a5,4(a5)
    13f8:	cb81                	beqz	a5,1408 <NVIC_Init+0xae>
C:\Users\16917\Desktop\Dual-core_Communication_Demo\Dual-core_Communication_Demo\SLAVE\obj/../Libraries/wch_libraries/Peripheral/ch32v10x_misc.c:95
    13fa:	fec42783          	lw	a5,-20(s0)
    13fe:	0007c783          	lbu	a5,0(a5)
    1402:	853e                	mv	a0,a5
    1404:	35e1                	jal	12cc <NVIC_EnableIRQ>
C:\Users\16917\Desktop\Dual-core_Communication_Demo\Dual-core_Communication_Demo\SLAVE\obj/../Libraries/wch_libraries/Peripheral/ch32v10x_misc.c:101
    1406:	a039                	j	1414 <NVIC_Init+0xba>
C:\Users\16917\Desktop\Dual-core_Communication_Demo\Dual-core_Communication_Demo\SLAVE\obj/../Libraries/wch_libraries/Peripheral/ch32v10x_misc.c:99
    1408:	fec42783          	lw	a5,-20(s0)
    140c:	0007c783          	lbu	a5,0(a5)
    1410:	853e                	mv	a0,a5
    1412:	35f5                	jal	12fe <NVIC_DisableIRQ>
C:\Users\16917\Desktop\Dual-core_Communication_Demo\Dual-core_Communication_Demo\SLAVE\obj/../Libraries/wch_libraries/Peripheral/ch32v10x_misc.c:101
    1414:	0001                	nop
    1416:	40f2                	lw	ra,28(sp)
    1418:	4462                	lw	s0,24(sp)
    141a:	6105                	addi	sp,sp,32
    141c:	8082                	ret

0000141e <RCC_GetClocksFreq>:
RCC_GetClocksFreq():
C:\Users\16917\Desktop\Dual-core_Communication_Demo\Dual-core_Communication_Demo\SLAVE\obj/../Libraries/wch_libraries/Peripheral/ch32v10x_rcc.c:469
    141e:	7179                	addi	sp,sp,-48
    1420:	d622                	sw	s0,44(sp)
    1422:	1800                	addi	s0,sp,48
    1424:	fca42e23          	sw	a0,-36(s0)
C:\Users\16917\Desktop\Dual-core_Communication_Demo\Dual-core_Communication_Demo\SLAVE\obj/../Libraries/wch_libraries/Peripheral/ch32v10x_rcc.c:470
    1428:	fe042623          	sw	zero,-20(s0)
    142c:	fe042423          	sw	zero,-24(s0)
    1430:	fe042223          	sw	zero,-28(s0)
    1434:	fe042023          	sw	zero,-32(s0)
C:\Users\16917\Desktop\Dual-core_Communication_Demo\Dual-core_Communication_Demo\SLAVE\obj/../Libraries/wch_libraries/Peripheral/ch32v10x_rcc.c:472
    1438:	400217b7          	lui	a5,0x40021
    143c:	43dc                	lw	a5,4(a5)
    143e:	8bb1                	andi	a5,a5,12
    1440:	fef42623          	sw	a5,-20(s0)
    1444:	fec42703          	lw	a4,-20(s0)
    1448:	4791                	li	a5,4
    144a:	02f70263          	beq	a4,a5,146e <RCC_GetClocksFreq+0x50>
    144e:	fec42703          	lw	a4,-20(s0)
    1452:	47a1                	li	a5,8
    1454:	02f70563          	beq	a4,a5,147e <RCC_GetClocksFreq+0x60>
    1458:	fec42783          	lw	a5,-20(s0)
    145c:	e7c5                	bnez	a5,1504 <RCC_GetClocksFreq+0xe6>
C:\Users\16917\Desktop\Dual-core_Communication_Demo\Dual-core_Communication_Demo\SLAVE\obj/../Libraries/wch_libraries/Peripheral/ch32v10x_rcc.c:477
    145e:	fdc42783          	lw	a5,-36(s0)
    1462:	007a1737          	lui	a4,0x7a1
    1466:	20070713          	addi	a4,a4,512 # 7a1200 <_data_lma+0x79afb8>
    146a:	c398                	sw	a4,0(a5)
C:\Users\16917\Desktop\Dual-core_Communication_Demo\Dual-core_Communication_Demo\SLAVE\obj/../Libraries/wch_libraries/Peripheral/ch32v10x_rcc.c:478
    146c:	a065                	j	1514 <RCC_GetClocksFreq+0xf6>
C:\Users\16917\Desktop\Dual-core_Communication_Demo\Dual-core_Communication_Demo\SLAVE\obj/../Libraries/wch_libraries/Peripheral/ch32v10x_rcc.c:481
    146e:	fdc42783          	lw	a5,-36(s0)
    1472:	007a1737          	lui	a4,0x7a1
    1476:	20070713          	addi	a4,a4,512 # 7a1200 <_data_lma+0x79afb8>
    147a:	c398                	sw	a4,0(a5)
C:\Users\16917\Desktop\Dual-core_Communication_Demo\Dual-core_Communication_Demo\SLAVE\obj/../Libraries/wch_libraries/Peripheral/ch32v10x_rcc.c:482
    147c:	a861                	j	1514 <RCC_GetClocksFreq+0xf6>
C:\Users\16917\Desktop\Dual-core_Communication_Demo\Dual-core_Communication_Demo\SLAVE\obj/../Libraries/wch_libraries/Peripheral/ch32v10x_rcc.c:485
    147e:	400217b7          	lui	a5,0x40021
    1482:	43d8                	lw	a4,4(a5)
    1484:	003c07b7          	lui	a5,0x3c0
    1488:	8ff9                	and	a5,a5,a4
    148a:	fef42423          	sw	a5,-24(s0)
C:\Users\16917\Desktop\Dual-core_Communication_Demo\Dual-core_Communication_Demo\SLAVE\obj/../Libraries/wch_libraries/Peripheral/ch32v10x_rcc.c:486
    148e:	400217b7          	lui	a5,0x40021
    1492:	43d8                	lw	a4,4(a5)
    1494:	67c1                	lui	a5,0x10
    1496:	8ff9                	and	a5,a5,a4
    1498:	fef42223          	sw	a5,-28(s0)
C:\Users\16917\Desktop\Dual-core_Communication_Demo\Dual-core_Communication_Demo\SLAVE\obj/../Libraries/wch_libraries/Peripheral/ch32v10x_rcc.c:487
    149c:	fe842783          	lw	a5,-24(s0)
    14a0:	83c9                	srli	a5,a5,0x12
    14a2:	0789                	addi	a5,a5,2
    14a4:	fef42423          	sw	a5,-24(s0)
C:\Users\16917\Desktop\Dual-core_Communication_Demo\Dual-core_Communication_Demo\SLAVE\obj/../Libraries/wch_libraries/Peripheral/ch32v10x_rcc.c:489
    14a8:	fe442783          	lw	a5,-28(s0)
    14ac:	ef89                	bnez	a5,14c6 <RCC_GetClocksFreq+0xa8>
C:\Users\16917\Desktop\Dual-core_Communication_Demo\Dual-core_Communication_Demo\SLAVE\obj/../Libraries/wch_libraries/Peripheral/ch32v10x_rcc.c:491
    14ae:	fe842703          	lw	a4,-24(s0)
    14b2:	003d17b7          	lui	a5,0x3d1
    14b6:	90078793          	addi	a5,a5,-1792 # 3d0900 <_data_lma+0x3ca6b8>
    14ba:	02f70733          	mul	a4,a4,a5
    14be:	fdc42783          	lw	a5,-36(s0)
    14c2:	c398                	sw	a4,0(a5)
C:\Users\16917\Desktop\Dual-core_Communication_Demo\Dual-core_Communication_Demo\SLAVE\obj/../Libraries/wch_libraries/Peripheral/ch32v10x_rcc.c:504
    14c4:	a881                	j	1514 <RCC_GetClocksFreq+0xf6>
C:\Users\16917\Desktop\Dual-core_Communication_Demo\Dual-core_Communication_Demo\SLAVE\obj/../Libraries/wch_libraries/Peripheral/ch32v10x_rcc.c:495
    14c6:	400217b7          	lui	a5,0x40021
    14ca:	43d8                	lw	a4,4(a5)
    14cc:	000207b7          	lui	a5,0x20
    14d0:	8ff9                	and	a5,a5,a4
    14d2:	cf89                	beqz	a5,14ec <RCC_GetClocksFreq+0xce>
C:\Users\16917\Desktop\Dual-core_Communication_Demo\Dual-core_Communication_Demo\SLAVE\obj/../Libraries/wch_libraries/Peripheral/ch32v10x_rcc.c:497
    14d4:	fe842703          	lw	a4,-24(s0)
    14d8:	003d17b7          	lui	a5,0x3d1
    14dc:	90078793          	addi	a5,a5,-1792 # 3d0900 <_data_lma+0x3ca6b8>
    14e0:	02f70733          	mul	a4,a4,a5
    14e4:	fdc42783          	lw	a5,-36(s0)
    14e8:	c398                	sw	a4,0(a5)
C:\Users\16917\Desktop\Dual-core_Communication_Demo\Dual-core_Communication_Demo\SLAVE\obj/../Libraries/wch_libraries/Peripheral/ch32v10x_rcc.c:504
    14ea:	a02d                	j	1514 <RCC_GetClocksFreq+0xf6>
C:\Users\16917\Desktop\Dual-core_Communication_Demo\Dual-core_Communication_Demo\SLAVE\obj/../Libraries/wch_libraries/Peripheral/ch32v10x_rcc.c:501
    14ec:	fe842703          	lw	a4,-24(s0)
    14f0:	007a17b7          	lui	a5,0x7a1
    14f4:	20078793          	addi	a5,a5,512 # 7a1200 <_data_lma+0x79afb8>
    14f8:	02f70733          	mul	a4,a4,a5
    14fc:	fdc42783          	lw	a5,-36(s0)
    1500:	c398                	sw	a4,0(a5)
C:\Users\16917\Desktop\Dual-core_Communication_Demo\Dual-core_Communication_Demo\SLAVE\obj/../Libraries/wch_libraries/Peripheral/ch32v10x_rcc.c:504
    1502:	a809                	j	1514 <RCC_GetClocksFreq+0xf6>
C:\Users\16917\Desktop\Dual-core_Communication_Demo\Dual-core_Communication_Demo\SLAVE\obj/../Libraries/wch_libraries/Peripheral/ch32v10x_rcc.c:507
    1504:	fdc42783          	lw	a5,-36(s0)
    1508:	007a1737          	lui	a4,0x7a1
    150c:	20070713          	addi	a4,a4,512 # 7a1200 <_data_lma+0x79afb8>
    1510:	c398                	sw	a4,0(a5)
C:\Users\16917\Desktop\Dual-core_Communication_Demo\Dual-core_Communication_Demo\SLAVE\obj/../Libraries/wch_libraries/Peripheral/ch32v10x_rcc.c:508
    1512:	0001                	nop
C:\Users\16917\Desktop\Dual-core_Communication_Demo\Dual-core_Communication_Demo\SLAVE\obj/../Libraries/wch_libraries/Peripheral/ch32v10x_rcc.c:511
    1514:	400217b7          	lui	a5,0x40021
    1518:	43dc                	lw	a5,4(a5)
    151a:	0f07f793          	andi	a5,a5,240
    151e:	fef42623          	sw	a5,-20(s0)
C:\Users\16917\Desktop\Dual-core_Communication_Demo\Dual-core_Communication_Demo\SLAVE\obj/../Libraries/wch_libraries/Peripheral/ch32v10x_rcc.c:512
    1522:	fec42783          	lw	a5,-20(s0)
    1526:	8391                	srli	a5,a5,0x4
    1528:	fef42623          	sw	a5,-20(s0)
C:\Users\16917\Desktop\Dual-core_Communication_Demo\Dual-core_Communication_Demo\SLAVE\obj/../Libraries/wch_libraries/Peripheral/ch32v10x_rcc.c:513
    152c:	200007b7          	lui	a5,0x20000
    1530:	00078713          	mv	a4,a5
    1534:	fec42783          	lw	a5,-20(s0)
    1538:	97ba                	add	a5,a5,a4
    153a:	0007c783          	lbu	a5,0(a5) # 20000000 <_data_vma>
    153e:	0ff7f793          	andi	a5,a5,255
    1542:	fef42023          	sw	a5,-32(s0)
C:\Users\16917\Desktop\Dual-core_Communication_Demo\Dual-core_Communication_Demo\SLAVE\obj/../Libraries/wch_libraries/Peripheral/ch32v10x_rcc.c:514
    1546:	fdc42783          	lw	a5,-36(s0)
    154a:	4398                	lw	a4,0(a5)
    154c:	fe042783          	lw	a5,-32(s0)
    1550:	00f75733          	srl	a4,a4,a5
    1554:	fdc42783          	lw	a5,-36(s0)
    1558:	c3d8                	sw	a4,4(a5)
C:\Users\16917\Desktop\Dual-core_Communication_Demo\Dual-core_Communication_Demo\SLAVE\obj/../Libraries/wch_libraries/Peripheral/ch32v10x_rcc.c:515
    155a:	400217b7          	lui	a5,0x40021
    155e:	43dc                	lw	a5,4(a5)
    1560:	7007f793          	andi	a5,a5,1792
    1564:	fef42623          	sw	a5,-20(s0)
C:\Users\16917\Desktop\Dual-core_Communication_Demo\Dual-core_Communication_Demo\SLAVE\obj/../Libraries/wch_libraries/Peripheral/ch32v10x_rcc.c:516
    1568:	fec42783          	lw	a5,-20(s0)
    156c:	83a1                	srli	a5,a5,0x8
    156e:	fef42623          	sw	a5,-20(s0)
C:\Users\16917\Desktop\Dual-core_Communication_Demo\Dual-core_Communication_Demo\SLAVE\obj/../Libraries/wch_libraries/Peripheral/ch32v10x_rcc.c:517
    1572:	200007b7          	lui	a5,0x20000
    1576:	00078713          	mv	a4,a5
    157a:	fec42783          	lw	a5,-20(s0)
    157e:	97ba                	add	a5,a5,a4
    1580:	0007c783          	lbu	a5,0(a5) # 20000000 <_data_vma>
    1584:	0ff7f793          	andi	a5,a5,255
    1588:	fef42023          	sw	a5,-32(s0)
C:\Users\16917\Desktop\Dual-core_Communication_Demo\Dual-core_Communication_Demo\SLAVE\obj/../Libraries/wch_libraries/Peripheral/ch32v10x_rcc.c:518
    158c:	fdc42783          	lw	a5,-36(s0)
    1590:	43d8                	lw	a4,4(a5)
    1592:	fe042783          	lw	a5,-32(s0)
    1596:	00f75733          	srl	a4,a4,a5
    159a:	fdc42783          	lw	a5,-36(s0)
    159e:	c798                	sw	a4,8(a5)
C:\Users\16917\Desktop\Dual-core_Communication_Demo\Dual-core_Communication_Demo\SLAVE\obj/../Libraries/wch_libraries/Peripheral/ch32v10x_rcc.c:519
    15a0:	400217b7          	lui	a5,0x40021
    15a4:	43d8                	lw	a4,4(a5)
    15a6:	6791                	lui	a5,0x4
    15a8:	80078793          	addi	a5,a5,-2048 # 3800 <timer_pit_interrupt_ms+0x172>
    15ac:	8ff9                	and	a5,a5,a4
    15ae:	fef42623          	sw	a5,-20(s0)
C:\Users\16917\Desktop\Dual-core_Communication_Demo\Dual-core_Communication_Demo\SLAVE\obj/../Libraries/wch_libraries/Peripheral/ch32v10x_rcc.c:520
    15b2:	fec42783          	lw	a5,-20(s0)
    15b6:	83ad                	srli	a5,a5,0xb
    15b8:	fef42623          	sw	a5,-20(s0)
C:\Users\16917\Desktop\Dual-core_Communication_Demo\Dual-core_Communication_Demo\SLAVE\obj/../Libraries/wch_libraries/Peripheral/ch32v10x_rcc.c:521
    15bc:	200007b7          	lui	a5,0x20000
    15c0:	00078713          	mv	a4,a5
    15c4:	fec42783          	lw	a5,-20(s0)
    15c8:	97ba                	add	a5,a5,a4
    15ca:	0007c783          	lbu	a5,0(a5) # 20000000 <_data_vma>
    15ce:	0ff7f793          	andi	a5,a5,255
    15d2:	fef42023          	sw	a5,-32(s0)
C:\Users\16917\Desktop\Dual-core_Communication_Demo\Dual-core_Communication_Demo\SLAVE\obj/../Libraries/wch_libraries/Peripheral/ch32v10x_rcc.c:522
    15d6:	fdc42783          	lw	a5,-36(s0)
    15da:	43d8                	lw	a4,4(a5)
    15dc:	fe042783          	lw	a5,-32(s0)
    15e0:	00f75733          	srl	a4,a4,a5
    15e4:	fdc42783          	lw	a5,-36(s0)
    15e8:	c7d8                	sw	a4,12(a5)
C:\Users\16917\Desktop\Dual-core_Communication_Demo\Dual-core_Communication_Demo\SLAVE\obj/../Libraries/wch_libraries/Peripheral/ch32v10x_rcc.c:523
    15ea:	400217b7          	lui	a5,0x40021
    15ee:	43d8                	lw	a4,4(a5)
    15f0:	67b1                	lui	a5,0xc
    15f2:	8ff9                	and	a5,a5,a4
    15f4:	fef42623          	sw	a5,-20(s0)
C:\Users\16917\Desktop\Dual-core_Communication_Demo\Dual-core_Communication_Demo\SLAVE\obj/../Libraries/wch_libraries/Peripheral/ch32v10x_rcc.c:524
    15f8:	fec42783          	lw	a5,-20(s0)
    15fc:	83b9                	srli	a5,a5,0xe
    15fe:	fef42623          	sw	a5,-20(s0)
C:\Users\16917\Desktop\Dual-core_Communication_Demo\Dual-core_Communication_Demo\SLAVE\obj/../Libraries/wch_libraries/Peripheral/ch32v10x_rcc.c:525
    1602:	200007b7          	lui	a5,0x20000
    1606:	0b878713          	addi	a4,a5,184 # 200000b8 <ADCPrescTable>
    160a:	fec42783          	lw	a5,-20(s0)
    160e:	97ba                	add	a5,a5,a4
    1610:	0007c783          	lbu	a5,0(a5)
    1614:	0ff7f793          	andi	a5,a5,255
    1618:	fef42023          	sw	a5,-32(s0)
C:\Users\16917\Desktop\Dual-core_Communication_Demo\Dual-core_Communication_Demo\SLAVE\obj/../Libraries/wch_libraries/Peripheral/ch32v10x_rcc.c:526
    161c:	fdc42783          	lw	a5,-36(s0)
    1620:	47d8                	lw	a4,12(a5)
    1622:	fe042783          	lw	a5,-32(s0)
    1626:	02f75733          	divu	a4,a4,a5
    162a:	fdc42783          	lw	a5,-36(s0)
    162e:	cb98                	sw	a4,16(a5)
C:\Users\16917\Desktop\Dual-core_Communication_Demo\Dual-core_Communication_Demo\SLAVE\obj/../Libraries/wch_libraries/Peripheral/ch32v10x_rcc.c:527
    1630:	0001                	nop
    1632:	5432                	lw	s0,44(sp)
    1634:	6145                	addi	sp,sp,48
    1636:	8082                	ret

00001638 <RCC_AHBPeriphClockCmd>:
RCC_AHBPeriphClockCmd():
C:\Users\16917\Desktop\Dual-core_Communication_Demo\Dual-core_Communication_Demo\SLAVE\obj/../Libraries/wch_libraries/Peripheral/ch32v10x_rcc.c:542
    1638:	1101                	addi	sp,sp,-32
    163a:	ce22                	sw	s0,28(sp)
    163c:	1000                	addi	s0,sp,32
    163e:	fea42623          	sw	a0,-20(s0)
    1642:	feb42423          	sw	a1,-24(s0)
C:\Users\16917\Desktop\Dual-core_Communication_Demo\Dual-core_Communication_Demo\SLAVE\obj/../Libraries/wch_libraries/Peripheral/ch32v10x_rcc.c:543
    1646:	fe842783          	lw	a5,-24(s0)
    164a:	cb99                	beqz	a5,1660 <RCC_AHBPeriphClockCmd+0x28>
C:\Users\16917\Desktop\Dual-core_Communication_Demo\Dual-core_Communication_Demo\SLAVE\obj/../Libraries/wch_libraries/Peripheral/ch32v10x_rcc.c:545
    164c:	400217b7          	lui	a5,0x40021
    1650:	4bd4                	lw	a3,20(a5)
    1652:	400217b7          	lui	a5,0x40021
    1656:	fec42703          	lw	a4,-20(s0)
    165a:	8f55                	or	a4,a4,a3
    165c:	cbd8                	sw	a4,20(a5)
C:\Users\16917\Desktop\Dual-core_Communication_Demo\Dual-core_Communication_Demo\SLAVE\obj/../Libraries/wch_libraries/Peripheral/ch32v10x_rcc.c:551
    165e:	a821                	j	1676 <RCC_AHBPeriphClockCmd+0x3e>
C:\Users\16917\Desktop\Dual-core_Communication_Demo\Dual-core_Communication_Demo\SLAVE\obj/../Libraries/wch_libraries/Peripheral/ch32v10x_rcc.c:549
    1660:	400217b7          	lui	a5,0x40021
    1664:	4bd4                	lw	a3,20(a5)
    1666:	fec42783          	lw	a5,-20(s0)
    166a:	fff7c713          	not	a4,a5
    166e:	400217b7          	lui	a5,0x40021
    1672:	8f75                	and	a4,a4,a3
    1674:	cbd8                	sw	a4,20(a5)
C:\Users\16917\Desktop\Dual-core_Communication_Demo\Dual-core_Communication_Demo\SLAVE\obj/../Libraries/wch_libraries/Peripheral/ch32v10x_rcc.c:551
    1676:	0001                	nop
    1678:	4472                	lw	s0,28(sp)
    167a:	6105                	addi	sp,sp,32
    167c:	8082                	ret

0000167e <RCC_APB2PeriphClockCmd>:
RCC_APB2PeriphClockCmd():
C:\Users\16917\Desktop\Dual-core_Communication_Demo\Dual-core_Communication_Demo\SLAVE\obj/../Libraries/wch_libraries/Peripheral/ch32v10x_rcc.c:570
    167e:	1101                	addi	sp,sp,-32
    1680:	ce22                	sw	s0,28(sp)
    1682:	1000                	addi	s0,sp,32
    1684:	fea42623          	sw	a0,-20(s0)
    1688:	feb42423          	sw	a1,-24(s0)
C:\Users\16917\Desktop\Dual-core_Communication_Demo\Dual-core_Communication_Demo\SLAVE\obj/../Libraries/wch_libraries/Peripheral/ch32v10x_rcc.c:571
    168c:	fe842783          	lw	a5,-24(s0)
    1690:	cb99                	beqz	a5,16a6 <RCC_APB2PeriphClockCmd+0x28>
C:\Users\16917\Desktop\Dual-core_Communication_Demo\Dual-core_Communication_Demo\SLAVE\obj/../Libraries/wch_libraries/Peripheral/ch32v10x_rcc.c:573
    1692:	400217b7          	lui	a5,0x40021
    1696:	4f94                	lw	a3,24(a5)
    1698:	400217b7          	lui	a5,0x40021
    169c:	fec42703          	lw	a4,-20(s0)
    16a0:	8f55                	or	a4,a4,a3
    16a2:	cf98                	sw	a4,24(a5)
C:\Users\16917\Desktop\Dual-core_Communication_Demo\Dual-core_Communication_Demo\SLAVE\obj/../Libraries/wch_libraries/Peripheral/ch32v10x_rcc.c:579
    16a4:	a821                	j	16bc <RCC_APB2PeriphClockCmd+0x3e>
C:\Users\16917\Desktop\Dual-core_Communication_Demo\Dual-core_Communication_Demo\SLAVE\obj/../Libraries/wch_libraries/Peripheral/ch32v10x_rcc.c:577
    16a6:	400217b7          	lui	a5,0x40021
    16aa:	4f94                	lw	a3,24(a5)
    16ac:	fec42783          	lw	a5,-20(s0)
    16b0:	fff7c713          	not	a4,a5
    16b4:	400217b7          	lui	a5,0x40021
    16b8:	8f75                	and	a4,a4,a3
    16ba:	cf98                	sw	a4,24(a5)
C:\Users\16917\Desktop\Dual-core_Communication_Demo\Dual-core_Communication_Demo\SLAVE\obj/../Libraries/wch_libraries/Peripheral/ch32v10x_rcc.c:579
    16bc:	0001                	nop
    16be:	4472                	lw	s0,28(sp)
    16c0:	6105                	addi	sp,sp,32
    16c2:	8082                	ret

000016c4 <RCC_APB1PeriphClockCmd>:
RCC_APB1PeriphClockCmd():
C:\Users\16917\Desktop\Dual-core_Communication_Demo\Dual-core_Communication_Demo\SLAVE\obj/../Libraries/wch_libraries/Peripheral/ch32v10x_rcc.c:603
    16c4:	1101                	addi	sp,sp,-32
    16c6:	ce22                	sw	s0,28(sp)
    16c8:	1000                	addi	s0,sp,32
    16ca:	fea42623          	sw	a0,-20(s0)
    16ce:	feb42423          	sw	a1,-24(s0)
C:\Users\16917\Desktop\Dual-core_Communication_Demo\Dual-core_Communication_Demo\SLAVE\obj/../Libraries/wch_libraries/Peripheral/ch32v10x_rcc.c:604
    16d2:	fe842783          	lw	a5,-24(s0)
    16d6:	cb99                	beqz	a5,16ec <RCC_APB1PeriphClockCmd+0x28>
C:\Users\16917\Desktop\Dual-core_Communication_Demo\Dual-core_Communication_Demo\SLAVE\obj/../Libraries/wch_libraries/Peripheral/ch32v10x_rcc.c:606
    16d8:	400217b7          	lui	a5,0x40021
    16dc:	4fd4                	lw	a3,28(a5)
    16de:	400217b7          	lui	a5,0x40021
    16e2:	fec42703          	lw	a4,-20(s0)
    16e6:	8f55                	or	a4,a4,a3
    16e8:	cfd8                	sw	a4,28(a5)
C:\Users\16917\Desktop\Dual-core_Communication_Demo\Dual-core_Communication_Demo\SLAVE\obj/../Libraries/wch_libraries/Peripheral/ch32v10x_rcc.c:612
    16ea:	a821                	j	1702 <RCC_APB1PeriphClockCmd+0x3e>
C:\Users\16917\Desktop\Dual-core_Communication_Demo\Dual-core_Communication_Demo\SLAVE\obj/../Libraries/wch_libraries/Peripheral/ch32v10x_rcc.c:610
    16ec:	400217b7          	lui	a5,0x40021
    16f0:	4fd4                	lw	a3,28(a5)
    16f2:	fec42783          	lw	a5,-20(s0)
    16f6:	fff7c713          	not	a4,a5
    16fa:	400217b7          	lui	a5,0x40021
    16fe:	8f75                	and	a4,a4,a3
    1700:	cfd8                	sw	a4,28(a5)
C:\Users\16917\Desktop\Dual-core_Communication_Demo\Dual-core_Communication_Demo\SLAVE\obj/../Libraries/wch_libraries/Peripheral/ch32v10x_rcc.c:612
    1702:	0001                	nop
    1704:	4472                	lw	s0,28(sp)
    1706:	6105                	addi	sp,sp,32
    1708:	8082                	ret

0000170a <SPI_Init>:
SPI_Init():
C:\Users\16917\Desktop\Dual-core_Communication_Demo\Dual-core_Communication_Demo\SLAVE\obj/../Libraries/wch_libraries/Peripheral/ch32v10x_spi.c:83
    170a:	7179                	addi	sp,sp,-48
    170c:	d622                	sw	s0,44(sp)
    170e:	1800                	addi	s0,sp,48
    1710:	fca42e23          	sw	a0,-36(s0)
    1714:	fcb42c23          	sw	a1,-40(s0)
C:\Users\16917\Desktop\Dual-core_Communication_Demo\Dual-core_Communication_Demo\SLAVE\obj/../Libraries/wch_libraries/Peripheral/ch32v10x_spi.c:84
    1718:	fe041723          	sh	zero,-18(s0)
C:\Users\16917\Desktop\Dual-core_Communication_Demo\Dual-core_Communication_Demo\SLAVE\obj/../Libraries/wch_libraries/Peripheral/ch32v10x_spi.c:86
    171c:	fdc42783          	lw	a5,-36(s0)
    1720:	0007d783          	lhu	a5,0(a5) # 40021000 <_eusrstack+0x2001c000>
    1724:	fef41723          	sh	a5,-18(s0)
C:\Users\16917\Desktop\Dual-core_Communication_Demo\Dual-core_Communication_Demo\SLAVE\obj/../Libraries/wch_libraries/Peripheral/ch32v10x_spi.c:87
    1728:	fee45703          	lhu	a4,-18(s0)
    172c:	678d                	lui	a5,0x3
    172e:	04078793          	addi	a5,a5,64 # 3040 <ov7725_uart_dma+0x1a>
    1732:	8ff9                	and	a5,a5,a4
    1734:	fef41723          	sh	a5,-18(s0)
C:\Users\16917\Desktop\Dual-core_Communication_Demo\Dual-core_Communication_Demo\SLAVE\obj/../Libraries/wch_libraries/Peripheral/ch32v10x_spi.c:88
    1738:	fd842783          	lw	a5,-40(s0)
    173c:	0007d703          	lhu	a4,0(a5)
    1740:	fd842783          	lw	a5,-40(s0)
    1744:	0027d783          	lhu	a5,2(a5)
    1748:	8fd9                	or	a5,a5,a4
    174a:	01079713          	slli	a4,a5,0x10
    174e:	8341                	srli	a4,a4,0x10
C:\Users\16917\Desktop\Dual-core_Communication_Demo\Dual-core_Communication_Demo\SLAVE\obj/../Libraries/wch_libraries/Peripheral/ch32v10x_spi.c:89
    1750:	fd842783          	lw	a5,-40(s0)
    1754:	0047d783          	lhu	a5,4(a5)
C:\Users\16917\Desktop\Dual-core_Communication_Demo\Dual-core_Communication_Demo\SLAVE\obj/../Libraries/wch_libraries/Peripheral/ch32v10x_spi.c:88
    1758:	8fd9                	or	a5,a5,a4
    175a:	01079713          	slli	a4,a5,0x10
    175e:	8341                	srli	a4,a4,0x10
C:\Users\16917\Desktop\Dual-core_Communication_Demo\Dual-core_Communication_Demo\SLAVE\obj/../Libraries/wch_libraries/Peripheral/ch32v10x_spi.c:89
    1760:	fd842783          	lw	a5,-40(s0)
    1764:	0067d783          	lhu	a5,6(a5)
C:\Users\16917\Desktop\Dual-core_Communication_Demo\Dual-core_Communication_Demo\SLAVE\obj/../Libraries/wch_libraries/Peripheral/ch32v10x_spi.c:88
    1768:	8fd9                	or	a5,a5,a4
    176a:	01079713          	slli	a4,a5,0x10
    176e:	8341                	srli	a4,a4,0x10
C:\Users\16917\Desktop\Dual-core_Communication_Demo\Dual-core_Communication_Demo\SLAVE\obj/../Libraries/wch_libraries/Peripheral/ch32v10x_spi.c:90
    1770:	fd842783          	lw	a5,-40(s0)
    1774:	0087d783          	lhu	a5,8(a5)
C:\Users\16917\Desktop\Dual-core_Communication_Demo\Dual-core_Communication_Demo\SLAVE\obj/../Libraries/wch_libraries/Peripheral/ch32v10x_spi.c:88
    1778:	8fd9                	or	a5,a5,a4
    177a:	01079713          	slli	a4,a5,0x10
    177e:	8341                	srli	a4,a4,0x10
C:\Users\16917\Desktop\Dual-core_Communication_Demo\Dual-core_Communication_Demo\SLAVE\obj/../Libraries/wch_libraries/Peripheral/ch32v10x_spi.c:90
    1780:	fd842783          	lw	a5,-40(s0)
    1784:	00a7d783          	lhu	a5,10(a5)
C:\Users\16917\Desktop\Dual-core_Communication_Demo\Dual-core_Communication_Demo\SLAVE\obj/../Libraries/wch_libraries/Peripheral/ch32v10x_spi.c:88
    1788:	8fd9                	or	a5,a5,a4
    178a:	01079713          	slli	a4,a5,0x10
    178e:	8341                	srli	a4,a4,0x10
C:\Users\16917\Desktop\Dual-core_Communication_Demo\Dual-core_Communication_Demo\SLAVE\obj/../Libraries/wch_libraries/Peripheral/ch32v10x_spi.c:91
    1790:	fd842783          	lw	a5,-40(s0)
    1794:	00c7d783          	lhu	a5,12(a5)
C:\Users\16917\Desktop\Dual-core_Communication_Demo\Dual-core_Communication_Demo\SLAVE\obj/../Libraries/wch_libraries/Peripheral/ch32v10x_spi.c:88
    1798:	8fd9                	or	a5,a5,a4
    179a:	01079713          	slli	a4,a5,0x10
    179e:	8341                	srli	a4,a4,0x10
C:\Users\16917\Desktop\Dual-core_Communication_Demo\Dual-core_Communication_Demo\SLAVE\obj/../Libraries/wch_libraries/Peripheral/ch32v10x_spi.c:91
    17a0:	fd842783          	lw	a5,-40(s0)
    17a4:	00e7d783          	lhu	a5,14(a5)
C:\Users\16917\Desktop\Dual-core_Communication_Demo\Dual-core_Communication_Demo\SLAVE\obj/../Libraries/wch_libraries/Peripheral/ch32v10x_spi.c:88
    17a8:	8fd9                	or	a5,a5,a4
    17aa:	01079713          	slli	a4,a5,0x10
    17ae:	8341                	srli	a4,a4,0x10
    17b0:	fee45783          	lhu	a5,-18(s0)
    17b4:	8fd9                	or	a5,a5,a4
    17b6:	fef41723          	sh	a5,-18(s0)
C:\Users\16917\Desktop\Dual-core_Communication_Demo\Dual-core_Communication_Demo\SLAVE\obj/../Libraries/wch_libraries/Peripheral/ch32v10x_spi.c:93
    17ba:	fdc42783          	lw	a5,-36(s0)
    17be:	fee45703          	lhu	a4,-18(s0)
    17c2:	00e79023          	sh	a4,0(a5)
C:\Users\16917\Desktop\Dual-core_Communication_Demo\Dual-core_Communication_Demo\SLAVE\obj/../Libraries/wch_libraries/Peripheral/ch32v10x_spi.c:94
    17c6:	fdc42783          	lw	a5,-36(s0)
    17ca:	01c7d783          	lhu	a5,28(a5)
    17ce:	01079713          	slli	a4,a5,0x10
    17d2:	8341                	srli	a4,a4,0x10
    17d4:	77fd                	lui	a5,0xfffff
    17d6:	7ff78793          	addi	a5,a5,2047 # fffff7ff <_eusrstack+0xdfffa7ff>
    17da:	8ff9                	and	a5,a5,a4
    17dc:	01079713          	slli	a4,a5,0x10
    17e0:	8341                	srli	a4,a4,0x10
    17e2:	fdc42783          	lw	a5,-36(s0)
    17e6:	00e79e23          	sh	a4,28(a5)
C:\Users\16917\Desktop\Dual-core_Communication_Demo\Dual-core_Communication_Demo\SLAVE\obj/../Libraries/wch_libraries/Peripheral/ch32v10x_spi.c:95
    17ea:	fd842783          	lw	a5,-40(s0)
    17ee:	0107d703          	lhu	a4,16(a5)
    17f2:	fdc42783          	lw	a5,-36(s0)
    17f6:	00e79823          	sh	a4,16(a5)
C:\Users\16917\Desktop\Dual-core_Communication_Demo\Dual-core_Communication_Demo\SLAVE\obj/../Libraries/wch_libraries/Peripheral/ch32v10x_spi.c:96
    17fa:	0001                	nop
    17fc:	5432                	lw	s0,44(sp)
    17fe:	6145                	addi	sp,sp,48
    1800:	8082                	ret

00001802 <SPI_Cmd>:
SPI_Cmd():
C:\Users\16917\Desktop\Dual-core_Communication_Demo\Dual-core_Communication_Demo\SLAVE\obj/../Libraries/wch_libraries/Peripheral/ch32v10x_spi.c:221
    1802:	1101                	addi	sp,sp,-32
    1804:	ce22                	sw	s0,28(sp)
    1806:	1000                	addi	s0,sp,32
    1808:	fea42623          	sw	a0,-20(s0)
    180c:	feb42423          	sw	a1,-24(s0)
C:\Users\16917\Desktop\Dual-core_Communication_Demo\Dual-core_Communication_Demo\SLAVE\obj/../Libraries/wch_libraries/Peripheral/ch32v10x_spi.c:222
    1810:	fe842783          	lw	a5,-24(s0)
    1814:	c38d                	beqz	a5,1836 <SPI_Cmd+0x34>
C:\Users\16917\Desktop\Dual-core_Communication_Demo\Dual-core_Communication_Demo\SLAVE\obj/../Libraries/wch_libraries/Peripheral/ch32v10x_spi.c:224
    1816:	fec42783          	lw	a5,-20(s0)
    181a:	0007d783          	lhu	a5,0(a5)
    181e:	07c2                	slli	a5,a5,0x10
    1820:	83c1                	srli	a5,a5,0x10
    1822:	0407e793          	ori	a5,a5,64
    1826:	01079713          	slli	a4,a5,0x10
    182a:	8341                	srli	a4,a4,0x10
    182c:	fec42783          	lw	a5,-20(s0)
    1830:	00e79023          	sh	a4,0(a5)
C:\Users\16917\Desktop\Dual-core_Communication_Demo\Dual-core_Communication_Demo\SLAVE\obj/../Libraries/wch_libraries/Peripheral/ch32v10x_spi.c:230
    1834:	a005                	j	1854 <SPI_Cmd+0x52>
C:\Users\16917\Desktop\Dual-core_Communication_Demo\Dual-core_Communication_Demo\SLAVE\obj/../Libraries/wch_libraries/Peripheral/ch32v10x_spi.c:228
    1836:	fec42783          	lw	a5,-20(s0)
    183a:	0007d783          	lhu	a5,0(a5)
    183e:	07c2                	slli	a5,a5,0x10
    1840:	83c1                	srli	a5,a5,0x10
    1842:	fbf7f793          	andi	a5,a5,-65
    1846:	01079713          	slli	a4,a5,0x10
    184a:	8341                	srli	a4,a4,0x10
    184c:	fec42783          	lw	a5,-20(s0)
    1850:	00e79023          	sh	a4,0(a5)
C:\Users\16917\Desktop\Dual-core_Communication_Demo\Dual-core_Communication_Demo\SLAVE\obj/../Libraries/wch_libraries/Peripheral/ch32v10x_spi.c:230
    1854:	0001                	nop
    1856:	4472                	lw	s0,28(sp)
    1858:	6105                	addi	sp,sp,32
    185a:	8082                	ret

0000185c <TIM_TimeBaseInit>:
TIM_TimeBaseInit():
C:\Users\16917\Desktop\Dual-core_Communication_Demo\Dual-core_Communication_Demo\SLAVE\obj/../Libraries/wch_libraries/Peripheral/ch32v10x_tim.c:67
    185c:	7179                	addi	sp,sp,-48
    185e:	d622                	sw	s0,44(sp)
    1860:	1800                	addi	s0,sp,48
    1862:	fca42e23          	sw	a0,-36(s0)
    1866:	fcb42c23          	sw	a1,-40(s0)
C:\Users\16917\Desktop\Dual-core_Communication_Demo\Dual-core_Communication_Demo\SLAVE\obj/../Libraries/wch_libraries/Peripheral/ch32v10x_tim.c:68
    186a:	fe041723          	sh	zero,-18(s0)
C:\Users\16917\Desktop\Dual-core_Communication_Demo\Dual-core_Communication_Demo\SLAVE\obj/../Libraries/wch_libraries/Peripheral/ch32v10x_tim.c:70
    186e:	fdc42783          	lw	a5,-36(s0)
    1872:	0007d783          	lhu	a5,0(a5)
    1876:	fef41723          	sh	a5,-18(s0)
C:\Users\16917\Desktop\Dual-core_Communication_Demo\Dual-core_Communication_Demo\SLAVE\obj/../Libraries/wch_libraries/Peripheral/ch32v10x_tim.c:72
    187a:	fdc42703          	lw	a4,-36(s0)
    187e:	400137b7          	lui	a5,0x40013
    1882:	c0078793          	addi	a5,a5,-1024 # 40012c00 <_eusrstack+0x2000dc00>
    1886:	02f70863          	beq	a4,a5,18b6 <TIM_TimeBaseInit+0x5a>
C:\Users\16917\Desktop\Dual-core_Communication_Demo\Dual-core_Communication_Demo\SLAVE\obj/../Libraries/wch_libraries/Peripheral/ch32v10x_tim.c:72 (discriminator 1)
    188a:	fdc42703          	lw	a4,-36(s0)
    188e:	400007b7          	lui	a5,0x40000
    1892:	02f70263          	beq	a4,a5,18b6 <TIM_TimeBaseInit+0x5a>
C:\Users\16917\Desktop\Dual-core_Communication_Demo\Dual-core_Communication_Demo\SLAVE\obj/../Libraries/wch_libraries/Peripheral/ch32v10x_tim.c:72 (discriminator 2)
    1896:	fdc42703          	lw	a4,-36(s0)
    189a:	400007b7          	lui	a5,0x40000
    189e:	40078793          	addi	a5,a5,1024 # 40000400 <_eusrstack+0x1fffb400>
    18a2:	00f70a63          	beq	a4,a5,18b6 <TIM_TimeBaseInit+0x5a>
C:\Users\16917\Desktop\Dual-core_Communication_Demo\Dual-core_Communication_Demo\SLAVE\obj/../Libraries/wch_libraries/Peripheral/ch32v10x_tim.c:72 (discriminator 3)
    18a6:	fdc42703          	lw	a4,-36(s0)
    18aa:	400017b7          	lui	a5,0x40001
    18ae:	80078793          	addi	a5,a5,-2048 # 40000800 <_eusrstack+0x1fffb800>
    18b2:	02f71163          	bne	a4,a5,18d4 <TIM_TimeBaseInit+0x78>
C:\Users\16917\Desktop\Dual-core_Communication_Demo\Dual-core_Communication_Demo\SLAVE\obj/../Libraries/wch_libraries/Peripheral/ch32v10x_tim.c:74
    18b6:	fee45783          	lhu	a5,-18(s0)
    18ba:	f8f7f793          	andi	a5,a5,-113
    18be:	fef41723          	sh	a5,-18(s0)
C:\Users\16917\Desktop\Dual-core_Communication_Demo\Dual-core_Communication_Demo\SLAVE\obj/../Libraries/wch_libraries/Peripheral/ch32v10x_tim.c:75
    18c2:	fd842783          	lw	a5,-40(s0)
    18c6:	0027d703          	lhu	a4,2(a5)
    18ca:	fee45783          	lhu	a5,-18(s0)
    18ce:	8fd9                	or	a5,a5,a4
    18d0:	fef41723          	sh	a5,-18(s0)
C:\Users\16917\Desktop\Dual-core_Communication_Demo\Dual-core_Communication_Demo\SLAVE\obj/../Libraries/wch_libraries/Peripheral/ch32v10x_tim.c:78
    18d4:	fee45783          	lhu	a5,-18(s0)
    18d8:	cff7f793          	andi	a5,a5,-769
    18dc:	fef41723          	sh	a5,-18(s0)
C:\Users\16917\Desktop\Dual-core_Communication_Demo\Dual-core_Communication_Demo\SLAVE\obj/../Libraries/wch_libraries/Peripheral/ch32v10x_tim.c:79
    18e0:	fd842783          	lw	a5,-40(s0)
    18e4:	0067d703          	lhu	a4,6(a5)
    18e8:	fee45783          	lhu	a5,-18(s0)
    18ec:	8fd9                	or	a5,a5,a4
    18ee:	fef41723          	sh	a5,-18(s0)
C:\Users\16917\Desktop\Dual-core_Communication_Demo\Dual-core_Communication_Demo\SLAVE\obj/../Libraries/wch_libraries/Peripheral/ch32v10x_tim.c:81
    18f2:	fdc42783          	lw	a5,-36(s0)
    18f6:	fee45703          	lhu	a4,-18(s0)
    18fa:	00e79023          	sh	a4,0(a5)
C:\Users\16917\Desktop\Dual-core_Communication_Demo\Dual-core_Communication_Demo\SLAVE\obj/../Libraries/wch_libraries/Peripheral/ch32v10x_tim.c:82
    18fe:	fd842783          	lw	a5,-40(s0)
    1902:	0047d703          	lhu	a4,4(a5)
    1906:	fdc42783          	lw	a5,-36(s0)
    190a:	02e79623          	sh	a4,44(a5)
C:\Users\16917\Desktop\Dual-core_Communication_Demo\Dual-core_Communication_Demo\SLAVE\obj/../Libraries/wch_libraries/Peripheral/ch32v10x_tim.c:83
    190e:	fd842783          	lw	a5,-40(s0)
    1912:	0007d703          	lhu	a4,0(a5)
    1916:	fdc42783          	lw	a5,-36(s0)
    191a:	02e79423          	sh	a4,40(a5)
C:\Users\16917\Desktop\Dual-core_Communication_Demo\Dual-core_Communication_Demo\SLAVE\obj/../Libraries/wch_libraries/Peripheral/ch32v10x_tim.c:85
    191e:	fdc42703          	lw	a4,-36(s0)
    1922:	400137b7          	lui	a5,0x40013
    1926:	c0078793          	addi	a5,a5,-1024 # 40012c00 <_eusrstack+0x2000dc00>
    192a:	00f71d63          	bne	a4,a5,1944 <TIM_TimeBaseInit+0xe8>
C:\Users\16917\Desktop\Dual-core_Communication_Demo\Dual-core_Communication_Demo\SLAVE\obj/../Libraries/wch_libraries/Peripheral/ch32v10x_tim.c:87
    192e:	fd842783          	lw	a5,-40(s0)
    1932:	0087c783          	lbu	a5,8(a5)
    1936:	01079713          	slli	a4,a5,0x10
    193a:	8341                	srli	a4,a4,0x10
    193c:	fdc42783          	lw	a5,-36(s0)
    1940:	02e79823          	sh	a4,48(a5)
C:\Users\16917\Desktop\Dual-core_Communication_Demo\Dual-core_Communication_Demo\SLAVE\obj/../Libraries/wch_libraries/Peripheral/ch32v10x_tim.c:90
    1944:	fdc42783          	lw	a5,-36(s0)
    1948:	4705                	li	a4,1
    194a:	00e79a23          	sh	a4,20(a5)
C:\Users\16917\Desktop\Dual-core_Communication_Demo\Dual-core_Communication_Demo\SLAVE\obj/../Libraries/wch_libraries/Peripheral/ch32v10x_tim.c:91
    194e:	0001                	nop
    1950:	5432                	lw	s0,44(sp)
    1952:	6145                	addi	sp,sp,48
    1954:	8082                	ret

00001956 <TIM_TimeBaseStructInit>:
TIM_TimeBaseStructInit():
C:\Users\16917\Desktop\Dual-core_Communication_Demo\Dual-core_Communication_Demo\SLAVE\obj/../Libraries/wch_libraries/Peripheral/ch32v10x_tim.c:367
    1956:	1101                	addi	sp,sp,-32
    1958:	ce22                	sw	s0,28(sp)
    195a:	1000                	addi	s0,sp,32
    195c:	fea42623          	sw	a0,-20(s0)
C:\Users\16917\Desktop\Dual-core_Communication_Demo\Dual-core_Communication_Demo\SLAVE\obj/../Libraries/wch_libraries/Peripheral/ch32v10x_tim.c:368
    1960:	fec42783          	lw	a5,-20(s0)
    1964:	577d                	li	a4,-1
    1966:	00e79223          	sh	a4,4(a5)
C:\Users\16917\Desktop\Dual-core_Communication_Demo\Dual-core_Communication_Demo\SLAVE\obj/../Libraries/wch_libraries/Peripheral/ch32v10x_tim.c:369
    196a:	fec42783          	lw	a5,-20(s0)
    196e:	00079023          	sh	zero,0(a5)
C:\Users\16917\Desktop\Dual-core_Communication_Demo\Dual-core_Communication_Demo\SLAVE\obj/../Libraries/wch_libraries/Peripheral/ch32v10x_tim.c:370
    1972:	fec42783          	lw	a5,-20(s0)
    1976:	00079323          	sh	zero,6(a5)
C:\Users\16917\Desktop\Dual-core_Communication_Demo\Dual-core_Communication_Demo\SLAVE\obj/../Libraries/wch_libraries/Peripheral/ch32v10x_tim.c:371
    197a:	fec42783          	lw	a5,-20(s0)
    197e:	00079123          	sh	zero,2(a5)
C:\Users\16917\Desktop\Dual-core_Communication_Demo\Dual-core_Communication_Demo\SLAVE\obj/../Libraries/wch_libraries/Peripheral/ch32v10x_tim.c:372
    1982:	fec42783          	lw	a5,-20(s0)
    1986:	00078423          	sb	zero,8(a5)
C:\Users\16917\Desktop\Dual-core_Communication_Demo\Dual-core_Communication_Demo\SLAVE\obj/../Libraries/wch_libraries/Peripheral/ch32v10x_tim.c:373
    198a:	0001                	nop
    198c:	4472                	lw	s0,28(sp)
    198e:	6105                	addi	sp,sp,32
    1990:	8082                	ret

00001992 <TIM_Cmd>:
TIM_Cmd():
C:\Users\16917\Desktop\Dual-core_Communication_Demo\Dual-core_Communication_Demo\SLAVE\obj/../Libraries/wch_libraries/Peripheral/ch32v10x_tim.c:433
    1992:	1101                	addi	sp,sp,-32
    1994:	ce22                	sw	s0,28(sp)
    1996:	1000                	addi	s0,sp,32
    1998:	fea42623          	sw	a0,-20(s0)
    199c:	feb42423          	sw	a1,-24(s0)
C:\Users\16917\Desktop\Dual-core_Communication_Demo\Dual-core_Communication_Demo\SLAVE\obj/../Libraries/wch_libraries/Peripheral/ch32v10x_tim.c:434
    19a0:	fe842783          	lw	a5,-24(s0)
    19a4:	c38d                	beqz	a5,19c6 <TIM_Cmd+0x34>
C:\Users\16917\Desktop\Dual-core_Communication_Demo\Dual-core_Communication_Demo\SLAVE\obj/../Libraries/wch_libraries/Peripheral/ch32v10x_tim.c:436
    19a6:	fec42783          	lw	a5,-20(s0)
    19aa:	0007d783          	lhu	a5,0(a5)
    19ae:	07c2                	slli	a5,a5,0x10
    19b0:	83c1                	srli	a5,a5,0x10
    19b2:	0017e793          	ori	a5,a5,1
    19b6:	01079713          	slli	a4,a5,0x10
    19ba:	8341                	srli	a4,a4,0x10
    19bc:	fec42783          	lw	a5,-20(s0)
    19c0:	00e79023          	sh	a4,0(a5)
C:\Users\16917\Desktop\Dual-core_Communication_Demo\Dual-core_Communication_Demo\SLAVE\obj/../Libraries/wch_libraries/Peripheral/ch32v10x_tim.c:442
    19c4:	a839                	j	19e2 <TIM_Cmd+0x50>
C:\Users\16917\Desktop\Dual-core_Communication_Demo\Dual-core_Communication_Demo\SLAVE\obj/../Libraries/wch_libraries/Peripheral/ch32v10x_tim.c:440
    19c6:	fec42783          	lw	a5,-20(s0)
    19ca:	0007d783          	lhu	a5,0(a5)
    19ce:	07c2                	slli	a5,a5,0x10
    19d0:	83c1                	srli	a5,a5,0x10
    19d2:	9bf9                	andi	a5,a5,-2
    19d4:	01079713          	slli	a4,a5,0x10
    19d8:	8341                	srli	a4,a4,0x10
    19da:	fec42783          	lw	a5,-20(s0)
    19de:	00e79023          	sh	a4,0(a5)
C:\Users\16917\Desktop\Dual-core_Communication_Demo\Dual-core_Communication_Demo\SLAVE\obj/../Libraries/wch_libraries/Peripheral/ch32v10x_tim.c:442
    19e2:	0001                	nop
    19e4:	4472                	lw	s0,28(sp)
    19e6:	6105                	addi	sp,sp,32
    19e8:	8082                	ret

000019ea <TIM_ITConfig>:
TIM_ITConfig():
C:\Users\16917\Desktop\Dual-core_Communication_Demo\Dual-core_Communication_Demo\SLAVE\obj/../Libraries/wch_libraries/Peripheral/ch32v10x_tim.c:480
    19ea:	1101                	addi	sp,sp,-32
    19ec:	ce22                	sw	s0,28(sp)
    19ee:	1000                	addi	s0,sp,32
    19f0:	fea42623          	sw	a0,-20(s0)
    19f4:	87ae                	mv	a5,a1
    19f6:	fec42223          	sw	a2,-28(s0)
    19fa:	fef41523          	sh	a5,-22(s0)
C:\Users\16917\Desktop\Dual-core_Communication_Demo\Dual-core_Communication_Demo\SLAVE\obj/../Libraries/wch_libraries/Peripheral/ch32v10x_tim.c:481
    19fe:	fe442783          	lw	a5,-28(s0)
    1a02:	c39d                	beqz	a5,1a28 <TIM_ITConfig+0x3e>
C:\Users\16917\Desktop\Dual-core_Communication_Demo\Dual-core_Communication_Demo\SLAVE\obj/../Libraries/wch_libraries/Peripheral/ch32v10x_tim.c:483
    1a04:	fec42783          	lw	a5,-20(s0)
    1a08:	00c7d783          	lhu	a5,12(a5)
    1a0c:	01079713          	slli	a4,a5,0x10
    1a10:	8341                	srli	a4,a4,0x10
    1a12:	fea45783          	lhu	a5,-22(s0)
    1a16:	8fd9                	or	a5,a5,a4
    1a18:	01079713          	slli	a4,a5,0x10
    1a1c:	8341                	srli	a4,a4,0x10
    1a1e:	fec42783          	lw	a5,-20(s0)
    1a22:	00e79623          	sh	a4,12(a5)
C:\Users\16917\Desktop\Dual-core_Communication_Demo\Dual-core_Communication_Demo\SLAVE\obj/../Libraries/wch_libraries/Peripheral/ch32v10x_tim.c:489
    1a26:	a035                	j	1a52 <TIM_ITConfig+0x68>
C:\Users\16917\Desktop\Dual-core_Communication_Demo\Dual-core_Communication_Demo\SLAVE\obj/../Libraries/wch_libraries/Peripheral/ch32v10x_tim.c:487
    1a28:	fec42783          	lw	a5,-20(s0)
    1a2c:	00c7d783          	lhu	a5,12(a5)
    1a30:	01079713          	slli	a4,a5,0x10
    1a34:	8341                	srli	a4,a4,0x10
    1a36:	fea45783          	lhu	a5,-22(s0)
    1a3a:	fff7c793          	not	a5,a5
    1a3e:	07c2                	slli	a5,a5,0x10
    1a40:	83c1                	srli	a5,a5,0x10
    1a42:	8ff9                	and	a5,a5,a4
    1a44:	01079713          	slli	a4,a5,0x10
    1a48:	8341                	srli	a4,a4,0x10
    1a4a:	fec42783          	lw	a5,-20(s0)
    1a4e:	00e79623          	sh	a4,12(a5)
C:\Users\16917\Desktop\Dual-core_Communication_Demo\Dual-core_Communication_Demo\SLAVE\obj/../Libraries/wch_libraries/Peripheral/ch32v10x_tim.c:489
    1a52:	0001                	nop
    1a54:	4472                	lw	s0,28(sp)
    1a56:	6105                	addi	sp,sp,32
    1a58:	8082                	ret

00001a5a <TIM_DMACmd>:
TIM_DMACmd():
C:\Users\16917\Desktop\Dual-core_Communication_Demo\Dual-core_Communication_Demo\SLAVE\obj/../Libraries/wch_libraries/Peripheral/ch32v10x_tim.c:559
    1a5a:	1101                	addi	sp,sp,-32
    1a5c:	ce22                	sw	s0,28(sp)
    1a5e:	1000                	addi	s0,sp,32
    1a60:	fea42623          	sw	a0,-20(s0)
    1a64:	87ae                	mv	a5,a1
    1a66:	fec42223          	sw	a2,-28(s0)
    1a6a:	fef41523          	sh	a5,-22(s0)
C:\Users\16917\Desktop\Dual-core_Communication_Demo\Dual-core_Communication_Demo\SLAVE\obj/../Libraries/wch_libraries/Peripheral/ch32v10x_tim.c:560
    1a6e:	fe442783          	lw	a5,-28(s0)
    1a72:	c39d                	beqz	a5,1a98 <TIM_DMACmd+0x3e>
C:\Users\16917\Desktop\Dual-core_Communication_Demo\Dual-core_Communication_Demo\SLAVE\obj/../Libraries/wch_libraries/Peripheral/ch32v10x_tim.c:562
    1a74:	fec42783          	lw	a5,-20(s0)
    1a78:	00c7d783          	lhu	a5,12(a5)
    1a7c:	01079713          	slli	a4,a5,0x10
    1a80:	8341                	srli	a4,a4,0x10
    1a82:	fea45783          	lhu	a5,-22(s0)
    1a86:	8fd9                	or	a5,a5,a4
    1a88:	01079713          	slli	a4,a5,0x10
    1a8c:	8341                	srli	a4,a4,0x10
    1a8e:	fec42783          	lw	a5,-20(s0)
    1a92:	00e79623          	sh	a4,12(a5)
C:\Users\16917\Desktop\Dual-core_Communication_Demo\Dual-core_Communication_Demo\SLAVE\obj/../Libraries/wch_libraries/Peripheral/ch32v10x_tim.c:568
    1a96:	a035                	j	1ac2 <TIM_DMACmd+0x68>
C:\Users\16917\Desktop\Dual-core_Communication_Demo\Dual-core_Communication_Demo\SLAVE\obj/../Libraries/wch_libraries/Peripheral/ch32v10x_tim.c:566
    1a98:	fec42783          	lw	a5,-20(s0)
    1a9c:	00c7d783          	lhu	a5,12(a5)
    1aa0:	01079713          	slli	a4,a5,0x10
    1aa4:	8341                	srli	a4,a4,0x10
    1aa6:	fea45783          	lhu	a5,-22(s0)
    1aaa:	fff7c793          	not	a5,a5
    1aae:	07c2                	slli	a5,a5,0x10
    1ab0:	83c1                	srli	a5,a5,0x10
    1ab2:	8ff9                	and	a5,a5,a4
    1ab4:	01079713          	slli	a4,a5,0x10
    1ab8:	8341                	srli	a4,a4,0x10
    1aba:	fec42783          	lw	a5,-20(s0)
    1abe:	00e79623          	sh	a4,12(a5)
C:\Users\16917\Desktop\Dual-core_Communication_Demo\Dual-core_Communication_Demo\SLAVE\obj/../Libraries/wch_libraries/Peripheral/ch32v10x_tim.c:568
    1ac2:	0001                	nop
    1ac4:	4472                	lw	s0,28(sp)
    1ac6:	6105                	addi	sp,sp,32
    1ac8:	8082                	ret

00001aca <TIM_ETRClockMode1Config>:
TIM_ETRClockMode1Config():
C:\Users\16917\Desktop\Dual-core_Communication_Demo\Dual-core_Communication_Demo\SLAVE\obj/../Libraries/wch_libraries/Peripheral/ch32v10x_tim.c:649
    1aca:	7179                	addi	sp,sp,-48
    1acc:	d606                	sw	ra,44(sp)
    1ace:	d422                	sw	s0,40(sp)
    1ad0:	1800                	addi	s0,sp,48
    1ad2:	fca42e23          	sw	a0,-36(s0)
    1ad6:	87ae                	mv	a5,a1
    1ad8:	8736                	mv	a4,a3
    1ada:	fcf41d23          	sh	a5,-38(s0)
    1ade:	87b2                	mv	a5,a2
    1ae0:	fcf41c23          	sh	a5,-40(s0)
    1ae4:	87ba                	mv	a5,a4
    1ae6:	fcf41b23          	sh	a5,-42(s0)
C:\Users\16917\Desktop\Dual-core_Communication_Demo\Dual-core_Communication_Demo\SLAVE\obj/../Libraries/wch_libraries/Peripheral/ch32v10x_tim.c:650
    1aea:	fe041723          	sh	zero,-18(s0)
C:\Users\16917\Desktop\Dual-core_Communication_Demo\Dual-core_Communication_Demo\SLAVE\obj/../Libraries/wch_libraries/Peripheral/ch32v10x_tim.c:652
    1aee:	fd645683          	lhu	a3,-42(s0)
    1af2:	fd845703          	lhu	a4,-40(s0)
    1af6:	fda45783          	lhu	a5,-38(s0)
    1afa:	863a                	mv	a2,a4
    1afc:	85be                	mv	a1,a5
    1afe:	fdc42503          	lw	a0,-36(s0)
    1b02:	2889                	jal	1b54 <TIM_ETRConfig>
C:\Users\16917\Desktop\Dual-core_Communication_Demo\Dual-core_Communication_Demo\SLAVE\obj/../Libraries/wch_libraries/Peripheral/ch32v10x_tim.c:653
    1b04:	fdc42783          	lw	a5,-36(s0)
    1b08:	0087d783          	lhu	a5,8(a5)
    1b0c:	fef41723          	sh	a5,-18(s0)
C:\Users\16917\Desktop\Dual-core_Communication_Demo\Dual-core_Communication_Demo\SLAVE\obj/../Libraries/wch_libraries/Peripheral/ch32v10x_tim.c:654
    1b10:	fee45783          	lhu	a5,-18(s0)
    1b14:	9be1                	andi	a5,a5,-8
    1b16:	fef41723          	sh	a5,-18(s0)
C:\Users\16917\Desktop\Dual-core_Communication_Demo\Dual-core_Communication_Demo\SLAVE\obj/../Libraries/wch_libraries/Peripheral/ch32v10x_tim.c:655
    1b1a:	fee45783          	lhu	a5,-18(s0)
    1b1e:	0077e793          	ori	a5,a5,7
    1b22:	fef41723          	sh	a5,-18(s0)
C:\Users\16917\Desktop\Dual-core_Communication_Demo\Dual-core_Communication_Demo\SLAVE\obj/../Libraries/wch_libraries/Peripheral/ch32v10x_tim.c:656
    1b26:	fee45783          	lhu	a5,-18(s0)
    1b2a:	f8f7f793          	andi	a5,a5,-113
    1b2e:	fef41723          	sh	a5,-18(s0)
C:\Users\16917\Desktop\Dual-core_Communication_Demo\Dual-core_Communication_Demo\SLAVE\obj/../Libraries/wch_libraries/Peripheral/ch32v10x_tim.c:657
    1b32:	fee45783          	lhu	a5,-18(s0)
    1b36:	0707e793          	ori	a5,a5,112
    1b3a:	fef41723          	sh	a5,-18(s0)
C:\Users\16917\Desktop\Dual-core_Communication_Demo\Dual-core_Communication_Demo\SLAVE\obj/../Libraries/wch_libraries/Peripheral/ch32v10x_tim.c:658
    1b3e:	fdc42783          	lw	a5,-36(s0)
    1b42:	fee45703          	lhu	a4,-18(s0)
    1b46:	00e79423          	sh	a4,8(a5)
C:\Users\16917\Desktop\Dual-core_Communication_Demo\Dual-core_Communication_Demo\SLAVE\obj/../Libraries/wch_libraries/Peripheral/ch32v10x_tim.c:659
    1b4a:	0001                	nop
    1b4c:	50b2                	lw	ra,44(sp)
    1b4e:	5422                	lw	s0,40(sp)
    1b50:	6145                	addi	sp,sp,48
    1b52:	8082                	ret

00001b54 <TIM_ETRConfig>:
TIM_ETRConfig():
C:\Users\16917\Desktop\Dual-core_Communication_Demo\Dual-core_Communication_Demo\SLAVE\obj/../Libraries/wch_libraries/Peripheral/ch32v10x_tim.c:702
    1b54:	7179                	addi	sp,sp,-48
    1b56:	d622                	sw	s0,44(sp)
    1b58:	1800                	addi	s0,sp,48
    1b5a:	fca42e23          	sw	a0,-36(s0)
    1b5e:	87ae                	mv	a5,a1
    1b60:	8736                	mv	a4,a3
    1b62:	fcf41d23          	sh	a5,-38(s0)
    1b66:	87b2                	mv	a5,a2
    1b68:	fcf41c23          	sh	a5,-40(s0)
    1b6c:	87ba                	mv	a5,a4
    1b6e:	fcf41b23          	sh	a5,-42(s0)
C:\Users\16917\Desktop\Dual-core_Communication_Demo\Dual-core_Communication_Demo\SLAVE\obj/../Libraries/wch_libraries/Peripheral/ch32v10x_tim.c:703
    1b72:	fe041723          	sh	zero,-18(s0)
C:\Users\16917\Desktop\Dual-core_Communication_Demo\Dual-core_Communication_Demo\SLAVE\obj/../Libraries/wch_libraries/Peripheral/ch32v10x_tim.c:705
    1b76:	fdc42783          	lw	a5,-36(s0)
    1b7a:	0087d783          	lhu	a5,8(a5)
    1b7e:	fef41723          	sh	a5,-18(s0)
C:\Users\16917\Desktop\Dual-core_Communication_Demo\Dual-core_Communication_Demo\SLAVE\obj/../Libraries/wch_libraries/Peripheral/ch32v10x_tim.c:706
    1b82:	fee45783          	lhu	a5,-18(s0)
    1b86:	0ff7f793          	andi	a5,a5,255
    1b8a:	fef41723          	sh	a5,-18(s0)
C:\Users\16917\Desktop\Dual-core_Communication_Demo\Dual-core_Communication_Demo\SLAVE\obj/../Libraries/wch_libraries/Peripheral/ch32v10x_tim.c:707
    1b8e:	fd645783          	lhu	a5,-42(s0)
    1b92:	07a2                	slli	a5,a5,0x8
    1b94:	01079713          	slli	a4,a5,0x10
    1b98:	8341                	srli	a4,a4,0x10
    1b9a:	fd845783          	lhu	a5,-40(s0)
    1b9e:	8fd9                	or	a5,a5,a4
    1ba0:	01079713          	slli	a4,a5,0x10
    1ba4:	8341                	srli	a4,a4,0x10
    1ba6:	fda45783          	lhu	a5,-38(s0)
    1baa:	8fd9                	or	a5,a5,a4
    1bac:	01079713          	slli	a4,a5,0x10
    1bb0:	8341                	srli	a4,a4,0x10
    1bb2:	fee45783          	lhu	a5,-18(s0)
    1bb6:	8fd9                	or	a5,a5,a4
    1bb8:	fef41723          	sh	a5,-18(s0)
C:\Users\16917\Desktop\Dual-core_Communication_Demo\Dual-core_Communication_Demo\SLAVE\obj/../Libraries/wch_libraries/Peripheral/ch32v10x_tim.c:708
    1bbc:	fdc42783          	lw	a5,-36(s0)
    1bc0:	fee45703          	lhu	a4,-18(s0)
    1bc4:	00e79423          	sh	a4,8(a5)
C:\Users\16917\Desktop\Dual-core_Communication_Demo\Dual-core_Communication_Demo\SLAVE\obj/../Libraries/wch_libraries/Peripheral/ch32v10x_tim.c:709
    1bc8:	0001                	nop
    1bca:	5432                	lw	s0,44(sp)
    1bcc:	6145                	addi	sp,sp,48
    1bce:	8082                	ret

00001bd0 <TIM_SelectInputTrigger>:
TIM_SelectInputTrigger():
C:\Users\16917\Desktop\Dual-core_Communication_Demo\Dual-core_Communication_Demo\SLAVE\obj/../Libraries/wch_libraries/Peripheral/ch32v10x_tim.c:766
    1bd0:	7179                	addi	sp,sp,-48
    1bd2:	d622                	sw	s0,44(sp)
    1bd4:	1800                	addi	s0,sp,48
    1bd6:	fca42e23          	sw	a0,-36(s0)
    1bda:	87ae                	mv	a5,a1
    1bdc:	fcf41d23          	sh	a5,-38(s0)
C:\Users\16917\Desktop\Dual-core_Communication_Demo\Dual-core_Communication_Demo\SLAVE\obj/../Libraries/wch_libraries/Peripheral/ch32v10x_tim.c:767
    1be0:	fe041723          	sh	zero,-18(s0)
C:\Users\16917\Desktop\Dual-core_Communication_Demo\Dual-core_Communication_Demo\SLAVE\obj/../Libraries/wch_libraries/Peripheral/ch32v10x_tim.c:769
    1be4:	fdc42783          	lw	a5,-36(s0)
    1be8:	0087d783          	lhu	a5,8(a5)
    1bec:	fef41723          	sh	a5,-18(s0)
C:\Users\16917\Desktop\Dual-core_Communication_Demo\Dual-core_Communication_Demo\SLAVE\obj/../Libraries/wch_libraries/Peripheral/ch32v10x_tim.c:770
    1bf0:	fee45783          	lhu	a5,-18(s0)
    1bf4:	f8f7f793          	andi	a5,a5,-113
    1bf8:	fef41723          	sh	a5,-18(s0)
C:\Users\16917\Desktop\Dual-core_Communication_Demo\Dual-core_Communication_Demo\SLAVE\obj/../Libraries/wch_libraries/Peripheral/ch32v10x_tim.c:771
    1bfc:	fee45703          	lhu	a4,-18(s0)
    1c00:	fda45783          	lhu	a5,-38(s0)
    1c04:	8fd9                	or	a5,a5,a4
    1c06:	fef41723          	sh	a5,-18(s0)
C:\Users\16917\Desktop\Dual-core_Communication_Demo\Dual-core_Communication_Demo\SLAVE\obj/../Libraries/wch_libraries/Peripheral/ch32v10x_tim.c:772
    1c0a:	fdc42783          	lw	a5,-36(s0)
    1c0e:	fee45703          	lhu	a4,-18(s0)
    1c12:	00e79423          	sh	a4,8(a5)
C:\Users\16917\Desktop\Dual-core_Communication_Demo\Dual-core_Communication_Demo\SLAVE\obj/../Libraries/wch_libraries/Peripheral/ch32v10x_tim.c:773
    1c16:	0001                	nop
    1c18:	5432                	lw	s0,44(sp)
    1c1a:	6145                	addi	sp,sp,48
    1c1c:	8082                	ret

00001c1e <TIM_EncoderInterfaceConfig>:
TIM_EncoderInterfaceConfig():
C:\Users\16917\Desktop\Dual-core_Communication_Demo\Dual-core_Communication_Demo\SLAVE\obj/../Libraries/wch_libraries/Peripheral/ch32v10x_tim.c:796
    1c1e:	7179                	addi	sp,sp,-48
    1c20:	d622                	sw	s0,44(sp)
    1c22:	1800                	addi	s0,sp,48
    1c24:	fca42e23          	sw	a0,-36(s0)
    1c28:	87ae                	mv	a5,a1
    1c2a:	8736                	mv	a4,a3
    1c2c:	fcf41d23          	sh	a5,-38(s0)
    1c30:	87b2                	mv	a5,a2
    1c32:	fcf41c23          	sh	a5,-40(s0)
    1c36:	87ba                	mv	a5,a4
    1c38:	fcf41b23          	sh	a5,-42(s0)
C:\Users\16917\Desktop\Dual-core_Communication_Demo\Dual-core_Communication_Demo\SLAVE\obj/../Libraries/wch_libraries/Peripheral/ch32v10x_tim.c:797
    1c3c:	fe041723          	sh	zero,-18(s0)
C:\Users\16917\Desktop\Dual-core_Communication_Demo\Dual-core_Communication_Demo\SLAVE\obj/../Libraries/wch_libraries/Peripheral/ch32v10x_tim.c:798
    1c40:	fe041623          	sh	zero,-20(s0)
C:\Users\16917\Desktop\Dual-core_Communication_Demo\Dual-core_Communication_Demo\SLAVE\obj/../Libraries/wch_libraries/Peripheral/ch32v10x_tim.c:799
    1c44:	fe041523          	sh	zero,-22(s0)
C:\Users\16917\Desktop\Dual-core_Communication_Demo\Dual-core_Communication_Demo\SLAVE\obj/../Libraries/wch_libraries/Peripheral/ch32v10x_tim.c:801
    1c48:	fdc42783          	lw	a5,-36(s0)
    1c4c:	0087d783          	lhu	a5,8(a5)
    1c50:	fef41723          	sh	a5,-18(s0)
C:\Users\16917\Desktop\Dual-core_Communication_Demo\Dual-core_Communication_Demo\SLAVE\obj/../Libraries/wch_libraries/Peripheral/ch32v10x_tim.c:802
    1c54:	fdc42783          	lw	a5,-36(s0)
    1c58:	0187d783          	lhu	a5,24(a5)
    1c5c:	fef41623          	sh	a5,-20(s0)
C:\Users\16917\Desktop\Dual-core_Communication_Demo\Dual-core_Communication_Demo\SLAVE\obj/../Libraries/wch_libraries/Peripheral/ch32v10x_tim.c:803
    1c60:	fdc42783          	lw	a5,-36(s0)
    1c64:	0207d783          	lhu	a5,32(a5)
    1c68:	fef41523          	sh	a5,-22(s0)
C:\Users\16917\Desktop\Dual-core_Communication_Demo\Dual-core_Communication_Demo\SLAVE\obj/../Libraries/wch_libraries/Peripheral/ch32v10x_tim.c:804
    1c6c:	fee45783          	lhu	a5,-18(s0)
    1c70:	9be1                	andi	a5,a5,-8
    1c72:	fef41723          	sh	a5,-18(s0)
C:\Users\16917\Desktop\Dual-core_Communication_Demo\Dual-core_Communication_Demo\SLAVE\obj/../Libraries/wch_libraries/Peripheral/ch32v10x_tim.c:805
    1c76:	fee45703          	lhu	a4,-18(s0)
    1c7a:	fda45783          	lhu	a5,-38(s0)
    1c7e:	8fd9                	or	a5,a5,a4
    1c80:	fef41723          	sh	a5,-18(s0)
C:\Users\16917\Desktop\Dual-core_Communication_Demo\Dual-core_Communication_Demo\SLAVE\obj/../Libraries/wch_libraries/Peripheral/ch32v10x_tim.c:806
    1c84:	fec45783          	lhu	a5,-20(s0)
    1c88:	cfc7f793          	andi	a5,a5,-772
    1c8c:	fef41623          	sh	a5,-20(s0)
C:\Users\16917\Desktop\Dual-core_Communication_Demo\Dual-core_Communication_Demo\SLAVE\obj/../Libraries/wch_libraries/Peripheral/ch32v10x_tim.c:807
    1c90:	fec45783          	lhu	a5,-20(s0)
    1c94:	1017e793          	ori	a5,a5,257
    1c98:	fef41623          	sh	a5,-20(s0)
C:\Users\16917\Desktop\Dual-core_Communication_Demo\Dual-core_Communication_Demo\SLAVE\obj/../Libraries/wch_libraries/Peripheral/ch32v10x_tim.c:808
    1c9c:	fea45783          	lhu	a5,-22(s0)
    1ca0:	fdd7f793          	andi	a5,a5,-35
    1ca4:	fef41523          	sh	a5,-22(s0)
C:\Users\16917\Desktop\Dual-core_Communication_Demo\Dual-core_Communication_Demo\SLAVE\obj/../Libraries/wch_libraries/Peripheral/ch32v10x_tim.c:809
    1ca8:	fd645783          	lhu	a5,-42(s0)
    1cac:	0792                	slli	a5,a5,0x4
    1cae:	01079713          	slli	a4,a5,0x10
    1cb2:	8341                	srli	a4,a4,0x10
    1cb4:	fd845783          	lhu	a5,-40(s0)
    1cb8:	8fd9                	or	a5,a5,a4
    1cba:	01079713          	slli	a4,a5,0x10
    1cbe:	8341                	srli	a4,a4,0x10
    1cc0:	fea45783          	lhu	a5,-22(s0)
    1cc4:	8fd9                	or	a5,a5,a4
    1cc6:	fef41523          	sh	a5,-22(s0)
C:\Users\16917\Desktop\Dual-core_Communication_Demo\Dual-core_Communication_Demo\SLAVE\obj/../Libraries/wch_libraries/Peripheral/ch32v10x_tim.c:810
    1cca:	fdc42783          	lw	a5,-36(s0)
    1cce:	fee45703          	lhu	a4,-18(s0)
    1cd2:	00e79423          	sh	a4,8(a5)
C:\Users\16917\Desktop\Dual-core_Communication_Demo\Dual-core_Communication_Demo\SLAVE\obj/../Libraries/wch_libraries/Peripheral/ch32v10x_tim.c:811
    1cd6:	fdc42783          	lw	a5,-36(s0)
    1cda:	fec45703          	lhu	a4,-20(s0)
    1cde:	00e79c23          	sh	a4,24(a5)
C:\Users\16917\Desktop\Dual-core_Communication_Demo\Dual-core_Communication_Demo\SLAVE\obj/../Libraries/wch_libraries/Peripheral/ch32v10x_tim.c:812
    1ce2:	fdc42783          	lw	a5,-36(s0)
    1ce6:	fea45703          	lhu	a4,-22(s0)
    1cea:	02e79023          	sh	a4,32(a5)
C:\Users\16917\Desktop\Dual-core_Communication_Demo\Dual-core_Communication_Demo\SLAVE\obj/../Libraries/wch_libraries/Peripheral/ch32v10x_tim.c:813
    1cee:	0001                	nop
    1cf0:	5432                	lw	s0,44(sp)
    1cf2:	6145                	addi	sp,sp,48
    1cf4:	8082                	ret

00001cf6 <TIM_SelectSlaveMode>:
TIM_SelectSlaveMode():
C:\Users\16917\Desktop\Dual-core_Communication_Demo\Dual-core_Communication_Demo\SLAVE\obj/../Libraries/wch_libraries/Peripheral/ch32v10x_tim.c:1535
    1cf6:	1101                	addi	sp,sp,-32
    1cf8:	ce22                	sw	s0,28(sp)
    1cfa:	1000                	addi	s0,sp,32
    1cfc:	fea42623          	sw	a0,-20(s0)
    1d00:	87ae                	mv	a5,a1
    1d02:	fef41523          	sh	a5,-22(s0)
C:\Users\16917\Desktop\Dual-core_Communication_Demo\Dual-core_Communication_Demo\SLAVE\obj/../Libraries/wch_libraries/Peripheral/ch32v10x_tim.c:1536
    1d06:	fec42783          	lw	a5,-20(s0)
    1d0a:	0087d783          	lhu	a5,8(a5)
    1d0e:	07c2                	slli	a5,a5,0x10
    1d10:	83c1                	srli	a5,a5,0x10
    1d12:	9be1                	andi	a5,a5,-8
    1d14:	01079713          	slli	a4,a5,0x10
    1d18:	8341                	srli	a4,a4,0x10
    1d1a:	fec42783          	lw	a5,-20(s0)
    1d1e:	00e79423          	sh	a4,8(a5)
C:\Users\16917\Desktop\Dual-core_Communication_Demo\Dual-core_Communication_Demo\SLAVE\obj/../Libraries/wch_libraries/Peripheral/ch32v10x_tim.c:1537
    1d22:	fec42783          	lw	a5,-20(s0)
    1d26:	0087d783          	lhu	a5,8(a5)
    1d2a:	01079713          	slli	a4,a5,0x10
    1d2e:	8341                	srli	a4,a4,0x10
    1d30:	fea45783          	lhu	a5,-22(s0)
    1d34:	8fd9                	or	a5,a5,a4
    1d36:	01079713          	slli	a4,a5,0x10
    1d3a:	8341                	srli	a4,a4,0x10
    1d3c:	fec42783          	lw	a5,-20(s0)
    1d40:	00e79423          	sh	a4,8(a5)
C:\Users\16917\Desktop\Dual-core_Communication_Demo\Dual-core_Communication_Demo\SLAVE\obj/../Libraries/wch_libraries/Peripheral/ch32v10x_tim.c:1538
    1d44:	0001                	nop
    1d46:	4472                	lw	s0,28(sp)
    1d48:	6105                	addi	sp,sp,32
    1d4a:	8082                	ret

00001d4c <TIM_SelectMasterSlaveMode>:
TIM_SelectMasterSlaveMode():
C:\Users\16917\Desktop\Dual-core_Communication_Demo\Dual-core_Communication_Demo\SLAVE\obj/../Libraries/wch_libraries/Peripheral/ch32v10x_tim.c:1551
    1d4c:	1101                	addi	sp,sp,-32
    1d4e:	ce22                	sw	s0,28(sp)
    1d50:	1000                	addi	s0,sp,32
    1d52:	fea42623          	sw	a0,-20(s0)
    1d56:	87ae                	mv	a5,a1
    1d58:	fef41523          	sh	a5,-22(s0)
C:\Users\16917\Desktop\Dual-core_Communication_Demo\Dual-core_Communication_Demo\SLAVE\obj/../Libraries/wch_libraries/Peripheral/ch32v10x_tim.c:1552
    1d5c:	fec42783          	lw	a5,-20(s0)
    1d60:	0087d783          	lhu	a5,8(a5)
    1d64:	07c2                	slli	a5,a5,0x10
    1d66:	83c1                	srli	a5,a5,0x10
    1d68:	f7f7f793          	andi	a5,a5,-129
    1d6c:	01079713          	slli	a4,a5,0x10
    1d70:	8341                	srli	a4,a4,0x10
    1d72:	fec42783          	lw	a5,-20(s0)
    1d76:	00e79423          	sh	a4,8(a5)
C:\Users\16917\Desktop\Dual-core_Communication_Demo\Dual-core_Communication_Demo\SLAVE\obj/../Libraries/wch_libraries/Peripheral/ch32v10x_tim.c:1553
    1d7a:	fec42783          	lw	a5,-20(s0)
    1d7e:	0087d783          	lhu	a5,8(a5)
    1d82:	01079713          	slli	a4,a5,0x10
    1d86:	8341                	srli	a4,a4,0x10
    1d88:	fea45783          	lhu	a5,-22(s0)
    1d8c:	8fd9                	or	a5,a5,a4
    1d8e:	01079713          	slli	a4,a5,0x10
    1d92:	8341                	srli	a4,a4,0x10
    1d94:	fec42783          	lw	a5,-20(s0)
    1d98:	00e79423          	sh	a4,8(a5)
C:\Users\16917\Desktop\Dual-core_Communication_Demo\Dual-core_Communication_Demo\SLAVE\obj/../Libraries/wch_libraries/Peripheral/ch32v10x_tim.c:1554
    1d9c:	0001                	nop
    1d9e:	4472                	lw	s0,28(sp)
    1da0:	6105                	addi	sp,sp,32
    1da2:	8082                	ret

00001da4 <TIM_GetITStatus>:
TIM_GetITStatus():
C:\Users\16917\Desktop\Dual-core_Communication_Demo\Dual-core_Communication_Demo\SLAVE\obj/../Libraries/wch_libraries/Peripheral/ch32v10x_tim.c:1853
    1da4:	7179                	addi	sp,sp,-48
    1da6:	d622                	sw	s0,44(sp)
    1da8:	1800                	addi	s0,sp,48
    1daa:	fca42e23          	sw	a0,-36(s0)
    1dae:	87ae                	mv	a5,a1
    1db0:	fcf41d23          	sh	a5,-38(s0)
C:\Users\16917\Desktop\Dual-core_Communication_Demo\Dual-core_Communication_Demo\SLAVE\obj/../Libraries/wch_libraries/Peripheral/ch32v10x_tim.c:1854
    1db4:	fe042623          	sw	zero,-20(s0)
C:\Users\16917\Desktop\Dual-core_Communication_Demo\Dual-core_Communication_Demo\SLAVE\obj/../Libraries/wch_libraries/Peripheral/ch32v10x_tim.c:1855
    1db8:	fe041523          	sh	zero,-22(s0)
    1dbc:	fe041423          	sh	zero,-24(s0)
C:\Users\16917\Desktop\Dual-core_Communication_Demo\Dual-core_Communication_Demo\SLAVE\obj/../Libraries/wch_libraries/Peripheral/ch32v10x_tim.c:1857
    1dc0:	fdc42783          	lw	a5,-36(s0)
    1dc4:	0107d783          	lhu	a5,16(a5)
    1dc8:	01079713          	slli	a4,a5,0x10
    1dcc:	8341                	srli	a4,a4,0x10
    1dce:	fda45783          	lhu	a5,-38(s0)
    1dd2:	8ff9                	and	a5,a5,a4
    1dd4:	fef41523          	sh	a5,-22(s0)
C:\Users\16917\Desktop\Dual-core_Communication_Demo\Dual-core_Communication_Demo\SLAVE\obj/../Libraries/wch_libraries/Peripheral/ch32v10x_tim.c:1859
    1dd8:	fdc42783          	lw	a5,-36(s0)
    1ddc:	00c7d783          	lhu	a5,12(a5)
    1de0:	01079713          	slli	a4,a5,0x10
    1de4:	8341                	srli	a4,a4,0x10
    1de6:	fda45783          	lhu	a5,-38(s0)
    1dea:	8ff9                	and	a5,a5,a4
    1dec:	fef41423          	sh	a5,-24(s0)
C:\Users\16917\Desktop\Dual-core_Communication_Demo\Dual-core_Communication_Demo\SLAVE\obj/../Libraries/wch_libraries/Peripheral/ch32v10x_tim.c:1860
    1df0:	fea45783          	lhu	a5,-22(s0)
    1df4:	cb81                	beqz	a5,1e04 <TIM_GetITStatus+0x60>
C:\Users\16917\Desktop\Dual-core_Communication_Demo\Dual-core_Communication_Demo\SLAVE\obj/../Libraries/wch_libraries/Peripheral/ch32v10x_tim.c:1860 (discriminator 1)
    1df6:	fe845783          	lhu	a5,-24(s0)
    1dfa:	c789                	beqz	a5,1e04 <TIM_GetITStatus+0x60>
C:\Users\16917\Desktop\Dual-core_Communication_Demo\Dual-core_Communication_Demo\SLAVE\obj/../Libraries/wch_libraries/Peripheral/ch32v10x_tim.c:1862
    1dfc:	4785                	li	a5,1
    1dfe:	fef42623          	sw	a5,-20(s0)
    1e02:	a019                	j	1e08 <TIM_GetITStatus+0x64>
C:\Users\16917\Desktop\Dual-core_Communication_Demo\Dual-core_Communication_Demo\SLAVE\obj/../Libraries/wch_libraries/Peripheral/ch32v10x_tim.c:1866
    1e04:	fe042623          	sw	zero,-20(s0)
C:\Users\16917\Desktop\Dual-core_Communication_Demo\Dual-core_Communication_Demo\SLAVE\obj/../Libraries/wch_libraries/Peripheral/ch32v10x_tim.c:1869
    1e08:	fec42783          	lw	a5,-20(s0)
C:\Users\16917\Desktop\Dual-core_Communication_Demo\Dual-core_Communication_Demo\SLAVE\obj/../Libraries/wch_libraries/Peripheral/ch32v10x_tim.c:1870
    1e0c:	853e                	mv	a0,a5
    1e0e:	5432                	lw	s0,44(sp)
    1e10:	6145                	addi	sp,sp,48
    1e12:	8082                	ret

00001e14 <TIM_ClearITPendingBit>:
TIM_ClearITPendingBit():
C:\Users\16917\Desktop\Dual-core_Communication_Demo\Dual-core_Communication_Demo\SLAVE\obj/../Libraries/wch_libraries/Peripheral/ch32v10x_tim.c:1888
    1e14:	1101                	addi	sp,sp,-32
    1e16:	ce22                	sw	s0,28(sp)
    1e18:	1000                	addi	s0,sp,32
    1e1a:	fea42623          	sw	a0,-20(s0)
    1e1e:	87ae                	mv	a5,a1
    1e20:	fef41523          	sh	a5,-22(s0)
C:\Users\16917\Desktop\Dual-core_Communication_Demo\Dual-core_Communication_Demo\SLAVE\obj/../Libraries/wch_libraries/Peripheral/ch32v10x_tim.c:1889
    1e24:	fea45783          	lhu	a5,-22(s0)
    1e28:	fff7c793          	not	a5,a5
    1e2c:	01079713          	slli	a4,a5,0x10
    1e30:	8341                	srli	a4,a4,0x10
    1e32:	fec42783          	lw	a5,-20(s0)
    1e36:	00e79823          	sh	a4,16(a5)
C:\Users\16917\Desktop\Dual-core_Communication_Demo\Dual-core_Communication_Demo\SLAVE\obj/../Libraries/wch_libraries/Peripheral/ch32v10x_tim.c:1890
    1e3a:	0001                	nop
    1e3c:	4472                	lw	s0,28(sp)
    1e3e:	6105                	addi	sp,sp,32
    1e40:	8082                	ret

00001e42 <USART_Init>:
USART_Init():
C:\Users\16917\Desktop\Dual-core_Communication_Demo\Dual-core_Communication_Demo\SLAVE\obj/../Libraries/wch_libraries/Peripheral/ch32v10x_usart.c:105
    1e42:	715d                	addi	sp,sp,-80
    1e44:	c686                	sw	ra,76(sp)
    1e46:	c4a2                	sw	s0,72(sp)
    1e48:	0880                	addi	s0,sp,80
    1e4a:	faa42e23          	sw	a0,-68(s0)
    1e4e:	fab42c23          	sw	a1,-72(s0)
C:\Users\16917\Desktop\Dual-core_Communication_Demo\Dual-core_Communication_Demo\SLAVE\obj/../Libraries/wch_libraries/Peripheral/ch32v10x_usart.c:106
    1e52:	fe042623          	sw	zero,-20(s0)
    1e56:	fe042423          	sw	zero,-24(s0)
C:\Users\16917\Desktop\Dual-core_Communication_Demo\Dual-core_Communication_Demo\SLAVE\obj/../Libraries/wch_libraries/Peripheral/ch32v10x_usart.c:107
    1e5a:	fe042223          	sw	zero,-28(s0)
C:\Users\16917\Desktop\Dual-core_Communication_Demo\Dual-core_Communication_Demo\SLAVE\obj/../Libraries/wch_libraries/Peripheral/ch32v10x_usart.c:108
    1e5e:	fe042023          	sw	zero,-32(s0)
C:\Users\16917\Desktop\Dual-core_Communication_Demo\Dual-core_Communication_Demo\SLAVE\obj/../Libraries/wch_libraries/Peripheral/ch32v10x_usart.c:109
    1e62:	fc042e23          	sw	zero,-36(s0)
C:\Users\16917\Desktop\Dual-core_Communication_Demo\Dual-core_Communication_Demo\SLAVE\obj/../Libraries/wch_libraries/Peripheral/ch32v10x_usart.c:116
    1e66:	fbc42783          	lw	a5,-68(s0)
    1e6a:	fcf42e23          	sw	a5,-36(s0)
C:\Users\16917\Desktop\Dual-core_Communication_Demo\Dual-core_Communication_Demo\SLAVE\obj/../Libraries/wch_libraries/Peripheral/ch32v10x_usart.c:117
    1e6e:	fbc42783          	lw	a5,-68(s0)
    1e72:	0107d783          	lhu	a5,16(a5)
    1e76:	07c2                	slli	a5,a5,0x10
    1e78:	83c1                	srli	a5,a5,0x10
    1e7a:	fef42623          	sw	a5,-20(s0)
C:\Users\16917\Desktop\Dual-core_Communication_Demo\Dual-core_Communication_Demo\SLAVE\obj/../Libraries/wch_libraries/Peripheral/ch32v10x_usart.c:118
    1e7e:	fec42703          	lw	a4,-20(s0)
    1e82:	67b5                	lui	a5,0xd
    1e84:	17fd                	addi	a5,a5,-1
    1e86:	8ff9                	and	a5,a5,a4
    1e88:	fef42623          	sw	a5,-20(s0)
C:\Users\16917\Desktop\Dual-core_Communication_Demo\Dual-core_Communication_Demo\SLAVE\obj/../Libraries/wch_libraries/Peripheral/ch32v10x_usart.c:119
    1e8c:	fb842783          	lw	a5,-72(s0)
    1e90:	0067d783          	lhu	a5,6(a5) # d006 <_data_lma+0x6dbe>
    1e94:	873e                	mv	a4,a5
    1e96:	fec42783          	lw	a5,-20(s0)
    1e9a:	8fd9                	or	a5,a5,a4
    1e9c:	fef42623          	sw	a5,-20(s0)
C:\Users\16917\Desktop\Dual-core_Communication_Demo\Dual-core_Communication_Demo\SLAVE\obj/../Libraries/wch_libraries/Peripheral/ch32v10x_usart.c:121
    1ea0:	fec42783          	lw	a5,-20(s0)
    1ea4:	01079713          	slli	a4,a5,0x10
    1ea8:	8341                	srli	a4,a4,0x10
    1eaa:	fbc42783          	lw	a5,-68(s0)
    1eae:	00e79823          	sh	a4,16(a5)
C:\Users\16917\Desktop\Dual-core_Communication_Demo\Dual-core_Communication_Demo\SLAVE\obj/../Libraries/wch_libraries/Peripheral/ch32v10x_usart.c:122
    1eb2:	fbc42783          	lw	a5,-68(s0)
    1eb6:	00c7d783          	lhu	a5,12(a5)
    1eba:	07c2                	slli	a5,a5,0x10
    1ebc:	83c1                	srli	a5,a5,0x10
    1ebe:	fef42623          	sw	a5,-20(s0)
C:\Users\16917\Desktop\Dual-core_Communication_Demo\Dual-core_Communication_Demo\SLAVE\obj/../Libraries/wch_libraries/Peripheral/ch32v10x_usart.c:123
    1ec2:	fec42703          	lw	a4,-20(s0)
    1ec6:	67bd                	lui	a5,0xf
    1ec8:	9f378793          	addi	a5,a5,-1549 # e9f3 <_data_lma+0x87ab>
    1ecc:	8ff9                	and	a5,a5,a4
    1ece:	fef42623          	sw	a5,-20(s0)
C:\Users\16917\Desktop\Dual-core_Communication_Demo\Dual-core_Communication_Demo\SLAVE\obj/../Libraries/wch_libraries/Peripheral/ch32v10x_usart.c:124
    1ed2:	fb842783          	lw	a5,-72(s0)
    1ed6:	0047d703          	lhu	a4,4(a5)
    1eda:	fb842783          	lw	a5,-72(s0)
    1ede:	0087d783          	lhu	a5,8(a5)
    1ee2:	8fd9                	or	a5,a5,a4
    1ee4:	01079713          	slli	a4,a5,0x10
    1ee8:	8341                	srli	a4,a4,0x10
C:\Users\16917\Desktop\Dual-core_Communication_Demo\Dual-core_Communication_Demo\SLAVE\obj/../Libraries/wch_libraries/Peripheral/ch32v10x_usart.c:125
    1eea:	fb842783          	lw	a5,-72(s0)
    1eee:	00a7d783          	lhu	a5,10(a5)
C:\Users\16917\Desktop\Dual-core_Communication_Demo\Dual-core_Communication_Demo\SLAVE\obj/../Libraries/wch_libraries/Peripheral/ch32v10x_usart.c:124
    1ef2:	8fd9                	or	a5,a5,a4
    1ef4:	07c2                	slli	a5,a5,0x10
    1ef6:	83c1                	srli	a5,a5,0x10
    1ef8:	873e                	mv	a4,a5
    1efa:	fec42783          	lw	a5,-20(s0)
    1efe:	8fd9                	or	a5,a5,a4
    1f00:	fef42623          	sw	a5,-20(s0)
C:\Users\16917\Desktop\Dual-core_Communication_Demo\Dual-core_Communication_Demo\SLAVE\obj/../Libraries/wch_libraries/Peripheral/ch32v10x_usart.c:126
    1f04:	fec42783          	lw	a5,-20(s0)
    1f08:	01079713          	slli	a4,a5,0x10
    1f0c:	8341                	srli	a4,a4,0x10
    1f0e:	fbc42783          	lw	a5,-68(s0)
    1f12:	00e79623          	sh	a4,12(a5)
C:\Users\16917\Desktop\Dual-core_Communication_Demo\Dual-core_Communication_Demo\SLAVE\obj/../Libraries/wch_libraries/Peripheral/ch32v10x_usart.c:128
    1f16:	fbc42783          	lw	a5,-68(s0)
    1f1a:	0147d783          	lhu	a5,20(a5)
    1f1e:	07c2                	slli	a5,a5,0x10
    1f20:	83c1                	srli	a5,a5,0x10
    1f22:	fef42623          	sw	a5,-20(s0)
C:\Users\16917\Desktop\Dual-core_Communication_Demo\Dual-core_Communication_Demo\SLAVE\obj/../Libraries/wch_libraries/Peripheral/ch32v10x_usart.c:129
    1f26:	fec42703          	lw	a4,-20(s0)
    1f2a:	67c1                	lui	a5,0x10
    1f2c:	cff78793          	addi	a5,a5,-769 # fcff <_data_lma+0x9ab7>
    1f30:	8ff9                	and	a5,a5,a4
    1f32:	fef42623          	sw	a5,-20(s0)
C:\Users\16917\Desktop\Dual-core_Communication_Demo\Dual-core_Communication_Demo\SLAVE\obj/../Libraries/wch_libraries/Peripheral/ch32v10x_usart.c:130
    1f36:	fb842783          	lw	a5,-72(s0)
    1f3a:	00c7d783          	lhu	a5,12(a5)
    1f3e:	873e                	mv	a4,a5
    1f40:	fec42783          	lw	a5,-20(s0)
    1f44:	8fd9                	or	a5,a5,a4
    1f46:	fef42623          	sw	a5,-20(s0)
C:\Users\16917\Desktop\Dual-core_Communication_Demo\Dual-core_Communication_Demo\SLAVE\obj/../Libraries/wch_libraries/Peripheral/ch32v10x_usart.c:131
    1f4a:	fec42783          	lw	a5,-20(s0)
    1f4e:	01079713          	slli	a4,a5,0x10
    1f52:	8341                	srli	a4,a4,0x10
    1f54:	fbc42783          	lw	a5,-68(s0)
    1f58:	00e79a23          	sh	a4,20(a5)
C:\Users\16917\Desktop\Dual-core_Communication_Demo\Dual-core_Communication_Demo\SLAVE\obj/../Libraries/wch_libraries/Peripheral/ch32v10x_usart.c:133
    1f5c:	fc840793          	addi	a5,s0,-56
    1f60:	853e                	mv	a0,a5
    1f62:	cbcff0ef          	jal	ra,141e <RCC_GetClocksFreq>
C:\Users\16917\Desktop\Dual-core_Communication_Demo\Dual-core_Communication_Demo\SLAVE\obj/../Libraries/wch_libraries/Peripheral/ch32v10x_usart.c:135
    1f66:	fdc42703          	lw	a4,-36(s0)
    1f6a:	400147b7          	lui	a5,0x40014
    1f6e:	80078793          	addi	a5,a5,-2048 # 40013800 <_eusrstack+0x2000e800>
    1f72:	00f71763          	bne	a4,a5,1f80 <USART_Init+0x13e>
C:\Users\16917\Desktop\Dual-core_Communication_Demo\Dual-core_Communication_Demo\SLAVE\obj/../Libraries/wch_libraries/Peripheral/ch32v10x_usart.c:137
    1f76:	fd442783          	lw	a5,-44(s0)
    1f7a:	fef42423          	sw	a5,-24(s0)
    1f7e:	a029                	j	1f88 <USART_Init+0x146>
C:\Users\16917\Desktop\Dual-core_Communication_Demo\Dual-core_Communication_Demo\SLAVE\obj/../Libraries/wch_libraries/Peripheral/ch32v10x_usart.c:141
    1f80:	fd042783          	lw	a5,-48(s0)
    1f84:	fef42423          	sw	a5,-24(s0)
C:\Users\16917\Desktop\Dual-core_Communication_Demo\Dual-core_Communication_Demo\SLAVE\obj/../Libraries/wch_libraries/Peripheral/ch32v10x_usart.c:144
    1f88:	fbc42783          	lw	a5,-68(s0)
    1f8c:	00c7d783          	lhu	a5,12(a5)
    1f90:	07c2                	slli	a5,a5,0x10
    1f92:	83c1                	srli	a5,a5,0x10
    1f94:	07c2                	slli	a5,a5,0x10
    1f96:	87c1                	srai	a5,a5,0x10
    1f98:	0207d263          	bgez	a5,1fbc <USART_Init+0x17a>
C:\Users\16917\Desktop\Dual-core_Communication_Demo\Dual-core_Communication_Demo\SLAVE\obj/../Libraries/wch_libraries/Peripheral/ch32v10x_usart.c:146
    1f9c:	fe842703          	lw	a4,-24(s0)
    1fa0:	87ba                	mv	a5,a4
    1fa2:	0786                	slli	a5,a5,0x1
    1fa4:	97ba                	add	a5,a5,a4
    1fa6:	078e                	slli	a5,a5,0x3
    1fa8:	973e                	add	a4,a4,a5
    1faa:	fb842783          	lw	a5,-72(s0)
    1fae:	439c                	lw	a5,0(a5)
    1fb0:	0786                	slli	a5,a5,0x1
    1fb2:	02f757b3          	divu	a5,a4,a5
    1fb6:	fef42223          	sw	a5,-28(s0)
    1fba:	a005                	j	1fda <USART_Init+0x198>
C:\Users\16917\Desktop\Dual-core_Communication_Demo\Dual-core_Communication_Demo\SLAVE\obj/../Libraries/wch_libraries/Peripheral/ch32v10x_usart.c:150
    1fbc:	fe842703          	lw	a4,-24(s0)
    1fc0:	87ba                	mv	a5,a4
    1fc2:	0786                	slli	a5,a5,0x1
    1fc4:	97ba                	add	a5,a5,a4
    1fc6:	078e                	slli	a5,a5,0x3
    1fc8:	973e                	add	a4,a4,a5
    1fca:	fb842783          	lw	a5,-72(s0)
    1fce:	439c                	lw	a5,0(a5)
    1fd0:	078a                	slli	a5,a5,0x2
    1fd2:	02f757b3          	divu	a5,a4,a5
    1fd6:	fef42223          	sw	a5,-28(s0)
C:\Users\16917\Desktop\Dual-core_Communication_Demo\Dual-core_Communication_Demo\SLAVE\obj/../Libraries/wch_libraries/Peripheral/ch32v10x_usart.c:152
    1fda:	fe442703          	lw	a4,-28(s0)
    1fde:	06400793          	li	a5,100
    1fe2:	02f757b3          	divu	a5,a4,a5
    1fe6:	0792                	slli	a5,a5,0x4
    1fe8:	fef42623          	sw	a5,-20(s0)
C:\Users\16917\Desktop\Dual-core_Communication_Demo\Dual-core_Communication_Demo\SLAVE\obj/../Libraries/wch_libraries/Peripheral/ch32v10x_usart.c:154
    1fec:	fec42783          	lw	a5,-20(s0)
    1ff0:	0047d713          	srli	a4,a5,0x4
    1ff4:	06400793          	li	a5,100
    1ff8:	02f707b3          	mul	a5,a4,a5
    1ffc:	fe442703          	lw	a4,-28(s0)
    2000:	40f707b3          	sub	a5,a4,a5
    2004:	fef42023          	sw	a5,-32(s0)
C:\Users\16917\Desktop\Dual-core_Communication_Demo\Dual-core_Communication_Demo\SLAVE\obj/../Libraries/wch_libraries/Peripheral/ch32v10x_usart.c:156
    2008:	fbc42783          	lw	a5,-68(s0)
    200c:	00c7d783          	lhu	a5,12(a5)
    2010:	07c2                	slli	a5,a5,0x10
    2012:	83c1                	srli	a5,a5,0x10
    2014:	07c2                	slli	a5,a5,0x10
    2016:	87c1                	srai	a5,a5,0x10
    2018:	0207d263          	bgez	a5,203c <USART_Init+0x1fa>
C:\Users\16917\Desktop\Dual-core_Communication_Demo\Dual-core_Communication_Demo\SLAVE\obj/../Libraries/wch_libraries/Peripheral/ch32v10x_usart.c:158
    201c:	fe042783          	lw	a5,-32(s0)
    2020:	078e                	slli	a5,a5,0x3
    2022:	03278713          	addi	a4,a5,50
    2026:	06400793          	li	a5,100
    202a:	02f757b3          	divu	a5,a4,a5
    202e:	8b9d                	andi	a5,a5,7
    2030:	fec42703          	lw	a4,-20(s0)
    2034:	8fd9                	or	a5,a5,a4
    2036:	fef42623          	sw	a5,-20(s0)
    203a:	a005                	j	205a <USART_Init+0x218>
C:\Users\16917\Desktop\Dual-core_Communication_Demo\Dual-core_Communication_Demo\SLAVE\obj/../Libraries/wch_libraries/Peripheral/ch32v10x_usart.c:162
    203c:	fe042783          	lw	a5,-32(s0)
    2040:	0792                	slli	a5,a5,0x4
    2042:	03278713          	addi	a4,a5,50
    2046:	06400793          	li	a5,100
    204a:	02f757b3          	divu	a5,a4,a5
    204e:	8bbd                	andi	a5,a5,15
    2050:	fec42703          	lw	a4,-20(s0)
    2054:	8fd9                	or	a5,a5,a4
    2056:	fef42623          	sw	a5,-20(s0)
C:\Users\16917\Desktop\Dual-core_Communication_Demo\Dual-core_Communication_Demo\SLAVE\obj/../Libraries/wch_libraries/Peripheral/ch32v10x_usart.c:165
    205a:	fec42783          	lw	a5,-20(s0)
    205e:	01079713          	slli	a4,a5,0x10
    2062:	8341                	srli	a4,a4,0x10
    2064:	fbc42783          	lw	a5,-68(s0)
    2068:	00e79423          	sh	a4,8(a5)
C:\Users\16917\Desktop\Dual-core_Communication_Demo\Dual-core_Communication_Demo\SLAVE\obj/../Libraries/wch_libraries/Peripheral/ch32v10x_usart.c:166
    206c:	0001                	nop
    206e:	40b6                	lw	ra,76(sp)
    2070:	4426                	lw	s0,72(sp)
    2072:	6161                	addi	sp,sp,80
    2074:	8082                	ret

00002076 <USART_Cmd>:
USART_Cmd():
C:\Users\16917\Desktop\Dual-core_Communication_Demo\Dual-core_Communication_Demo\SLAVE\obj/../Libraries/wch_libraries/Peripheral/ch32v10x_usart.c:229
    2076:	1101                	addi	sp,sp,-32
    2078:	ce22                	sw	s0,28(sp)
    207a:	1000                	addi	s0,sp,32
    207c:	fea42623          	sw	a0,-20(s0)
    2080:	feb42423          	sw	a1,-24(s0)
C:\Users\16917\Desktop\Dual-core_Communication_Demo\Dual-core_Communication_Demo\SLAVE\obj/../Libraries/wch_libraries/Peripheral/ch32v10x_usart.c:230
    2084:	fe842783          	lw	a5,-24(s0)
    2088:	c395                	beqz	a5,20ac <USART_Cmd+0x36>
C:\Users\16917\Desktop\Dual-core_Communication_Demo\Dual-core_Communication_Demo\SLAVE\obj/../Libraries/wch_libraries/Peripheral/ch32v10x_usart.c:232
    208a:	fec42783          	lw	a5,-20(s0)
    208e:	00c7d783          	lhu	a5,12(a5)
    2092:	01079713          	slli	a4,a5,0x10
    2096:	8341                	srli	a4,a4,0x10
    2098:	6789                	lui	a5,0x2
    209a:	8fd9                	or	a5,a5,a4
    209c:	01079713          	slli	a4,a5,0x10
    20a0:	8341                	srli	a4,a4,0x10
    20a2:	fec42783          	lw	a5,-20(s0)
    20a6:	00e79623          	sh	a4,12(a5) # 200c <USART_Init+0x1ca>
C:\Users\16917\Desktop\Dual-core_Communication_Demo\Dual-core_Communication_Demo\SLAVE\obj/../Libraries/wch_libraries/Peripheral/ch32v10x_usart.c:238
    20aa:	a015                	j	20ce <USART_Cmd+0x58>
C:\Users\16917\Desktop\Dual-core_Communication_Demo\Dual-core_Communication_Demo\SLAVE\obj/../Libraries/wch_libraries/Peripheral/ch32v10x_usart.c:236
    20ac:	fec42783          	lw	a5,-20(s0)
    20b0:	00c7d783          	lhu	a5,12(a5)
    20b4:	01079713          	slli	a4,a5,0x10
    20b8:	8341                	srli	a4,a4,0x10
    20ba:	77f9                	lui	a5,0xffffe
    20bc:	17fd                	addi	a5,a5,-1
    20be:	8ff9                	and	a5,a5,a4
    20c0:	01079713          	slli	a4,a5,0x10
    20c4:	8341                	srli	a4,a4,0x10
    20c6:	fec42783          	lw	a5,-20(s0)
    20ca:	00e79623          	sh	a4,12(a5) # ffffe00c <_eusrstack+0xdfff900c>
C:\Users\16917\Desktop\Dual-core_Communication_Demo\Dual-core_Communication_Demo\SLAVE\obj/../Libraries/wch_libraries/Peripheral/ch32v10x_usart.c:238
    20ce:	0001                	nop
    20d0:	4472                	lw	s0,28(sp)
    20d2:	6105                	addi	sp,sp,32
    20d4:	8082                	ret

000020d6 <USART_ITConfig>:
USART_ITConfig():
C:\Users\16917\Desktop\Dual-core_Communication_Demo\Dual-core_Communication_Demo\SLAVE\obj/../Libraries/wch_libraries/Peripheral/ch32v10x_usart.c:257
    20d6:	7179                	addi	sp,sp,-48
    20d8:	d622                	sw	s0,44(sp)
    20da:	1800                	addi	s0,sp,48
    20dc:	fca42e23          	sw	a0,-36(s0)
    20e0:	87ae                	mv	a5,a1
    20e2:	fcc42a23          	sw	a2,-44(s0)
    20e6:	fcf41d23          	sh	a5,-38(s0)
C:\Users\16917\Desktop\Dual-core_Communication_Demo\Dual-core_Communication_Demo\SLAVE\obj/../Libraries/wch_libraries/Peripheral/ch32v10x_usart.c:258
    20ea:	fe042423          	sw	zero,-24(s0)
    20ee:	fe042223          	sw	zero,-28(s0)
    20f2:	fe042023          	sw	zero,-32(s0)
C:\Users\16917\Desktop\Dual-core_Communication_Demo\Dual-core_Communication_Demo\SLAVE\obj/../Libraries/wch_libraries/Peripheral/ch32v10x_usart.c:259
    20f6:	fe042623          	sw	zero,-20(s0)
C:\Users\16917\Desktop\Dual-core_Communication_Demo\Dual-core_Communication_Demo\SLAVE\obj/../Libraries/wch_libraries/Peripheral/ch32v10x_usart.c:265
    20fa:	fdc42783          	lw	a5,-36(s0)
    20fe:	fef42623          	sw	a5,-20(s0)
C:\Users\16917\Desktop\Dual-core_Communication_Demo\Dual-core_Communication_Demo\SLAVE\obj/../Libraries/wch_libraries/Peripheral/ch32v10x_usart.c:266
    2102:	fda45783          	lhu	a5,-38(s0)
    2106:	0ff7f793          	andi	a5,a5,255
    210a:	8395                	srli	a5,a5,0x5
    210c:	0ff7f793          	andi	a5,a5,255
    2110:	fef42423          	sw	a5,-24(s0)
C:\Users\16917\Desktop\Dual-core_Communication_Demo\Dual-core_Communication_Demo\SLAVE\obj/../Libraries/wch_libraries/Peripheral/ch32v10x_usart.c:267
    2114:	fda45783          	lhu	a5,-38(s0)
    2118:	8bfd                	andi	a5,a5,31
    211a:	fef42223          	sw	a5,-28(s0)
C:\Users\16917\Desktop\Dual-core_Communication_Demo\Dual-core_Communication_Demo\SLAVE\obj/../Libraries/wch_libraries/Peripheral/ch32v10x_usart.c:268
    211e:	fe442783          	lw	a5,-28(s0)
    2122:	4705                	li	a4,1
    2124:	00f717b3          	sll	a5,a4,a5
    2128:	fef42023          	sw	a5,-32(s0)
C:\Users\16917\Desktop\Dual-core_Communication_Demo\Dual-core_Communication_Demo\SLAVE\obj/../Libraries/wch_libraries/Peripheral/ch32v10x_usart.c:270
    212c:	fe842703          	lw	a4,-24(s0)
    2130:	4785                	li	a5,1
    2132:	00f71863          	bne	a4,a5,2142 <USART_ITConfig+0x6c>
C:\Users\16917\Desktop\Dual-core_Communication_Demo\Dual-core_Communication_Demo\SLAVE\obj/../Libraries/wch_libraries/Peripheral/ch32v10x_usart.c:272
    2136:	fec42783          	lw	a5,-20(s0)
    213a:	07b1                	addi	a5,a5,12
    213c:	fef42623          	sw	a5,-20(s0)
    2140:	a00d                	j	2162 <USART_ITConfig+0x8c>
C:\Users\16917\Desktop\Dual-core_Communication_Demo\Dual-core_Communication_Demo\SLAVE\obj/../Libraries/wch_libraries/Peripheral/ch32v10x_usart.c:274
    2142:	fe842703          	lw	a4,-24(s0)
    2146:	4789                	li	a5,2
    2148:	00f71863          	bne	a4,a5,2158 <USART_ITConfig+0x82>
C:\Users\16917\Desktop\Dual-core_Communication_Demo\Dual-core_Communication_Demo\SLAVE\obj/../Libraries/wch_libraries/Peripheral/ch32v10x_usart.c:276
    214c:	fec42783          	lw	a5,-20(s0)
    2150:	07c1                	addi	a5,a5,16
    2152:	fef42623          	sw	a5,-20(s0)
    2156:	a031                	j	2162 <USART_ITConfig+0x8c>
C:\Users\16917\Desktop\Dual-core_Communication_Demo\Dual-core_Communication_Demo\SLAVE\obj/../Libraries/wch_libraries/Peripheral/ch32v10x_usart.c:280
    2158:	fec42783          	lw	a5,-20(s0)
    215c:	07d1                	addi	a5,a5,20
    215e:	fef42623          	sw	a5,-20(s0)
C:\Users\16917\Desktop\Dual-core_Communication_Demo\Dual-core_Communication_Demo\SLAVE\obj/../Libraries/wch_libraries/Peripheral/ch32v10x_usart.c:283
    2162:	fd442783          	lw	a5,-44(s0)
    2166:	cb99                	beqz	a5,217c <USART_ITConfig+0xa6>
C:\Users\16917\Desktop\Dual-core_Communication_Demo\Dual-core_Communication_Demo\SLAVE\obj/../Libraries/wch_libraries/Peripheral/ch32v10x_usart.c:285
    2168:	fec42783          	lw	a5,-20(s0)
    216c:	4394                	lw	a3,0(a5)
    216e:	fec42783          	lw	a5,-20(s0)
    2172:	fe042703          	lw	a4,-32(s0)
    2176:	8f55                	or	a4,a4,a3
    2178:	c398                	sw	a4,0(a5)
C:\Users\16917\Desktop\Dual-core_Communication_Demo\Dual-core_Communication_Demo\SLAVE\obj/../Libraries/wch_libraries/Peripheral/ch32v10x_usart.c:291
    217a:	a821                	j	2192 <USART_ITConfig+0xbc>
C:\Users\16917\Desktop\Dual-core_Communication_Demo\Dual-core_Communication_Demo\SLAVE\obj/../Libraries/wch_libraries/Peripheral/ch32v10x_usart.c:289
    217c:	fec42783          	lw	a5,-20(s0)
    2180:	4394                	lw	a3,0(a5)
    2182:	fe042783          	lw	a5,-32(s0)
    2186:	fff7c713          	not	a4,a5
    218a:	fec42783          	lw	a5,-20(s0)
    218e:	8f75                	and	a4,a4,a3
    2190:	c398                	sw	a4,0(a5)
C:\Users\16917\Desktop\Dual-core_Communication_Demo\Dual-core_Communication_Demo\SLAVE\obj/../Libraries/wch_libraries/Peripheral/ch32v10x_usart.c:291
    2192:	0001                	nop
    2194:	5432                	lw	s0,44(sp)
    2196:	6145                	addi	sp,sp,48
    2198:	8082                	ret

0000219a <USART_SendData>:
USART_SendData():
C:\Users\16917\Desktop\Dual-core_Communication_Demo\Dual-core_Communication_Demo\SLAVE\obj/../Libraries/wch_libraries/Peripheral/ch32v10x_usart.c:404
    219a:	1101                	addi	sp,sp,-32
    219c:	ce22                	sw	s0,28(sp)
    219e:	1000                	addi	s0,sp,32
    21a0:	fea42623          	sw	a0,-20(s0)
    21a4:	87ae                	mv	a5,a1
    21a6:	fef41523          	sh	a5,-22(s0)
C:\Users\16917\Desktop\Dual-core_Communication_Demo\Dual-core_Communication_Demo\SLAVE\obj/../Libraries/wch_libraries/Peripheral/ch32v10x_usart.c:405
    21aa:	fea45783          	lhu	a5,-22(s0)
    21ae:	1ff7f793          	andi	a5,a5,511
    21b2:	01079713          	slli	a4,a5,0x10
    21b6:	8341                	srli	a4,a4,0x10
    21b8:	fec42783          	lw	a5,-20(s0)
    21bc:	00e79223          	sh	a4,4(a5)
C:\Users\16917\Desktop\Dual-core_Communication_Demo\Dual-core_Communication_Demo\SLAVE\obj/../Libraries/wch_libraries/Peripheral/ch32v10x_usart.c:406
    21c0:	0001                	nop
    21c2:	4472                	lw	s0,28(sp)
    21c4:	6105                	addi	sp,sp,32
    21c6:	8082                	ret

000021c8 <USART_GetFlagStatus>:
USART_GetFlagStatus():
C:\Users\16917\Desktop\Dual-core_Communication_Demo\Dual-core_Communication_Demo\SLAVE\obj/../Libraries/wch_libraries/Peripheral/ch32v10x_usart.c:603
    21c8:	7179                	addi	sp,sp,-48
    21ca:	d622                	sw	s0,44(sp)
    21cc:	1800                	addi	s0,sp,48
    21ce:	fca42e23          	sw	a0,-36(s0)
    21d2:	87ae                	mv	a5,a1
    21d4:	fcf41d23          	sh	a5,-38(s0)
C:\Users\16917\Desktop\Dual-core_Communication_Demo\Dual-core_Communication_Demo\SLAVE\obj/../Libraries/wch_libraries/Peripheral/ch32v10x_usart.c:604
    21d8:	fe042623          	sw	zero,-20(s0)
C:\Users\16917\Desktop\Dual-core_Communication_Demo\Dual-core_Communication_Demo\SLAVE\obj/../Libraries/wch_libraries/Peripheral/ch32v10x_usart.c:610
    21dc:	fdc42783          	lw	a5,-36(s0)
    21e0:	0007d783          	lhu	a5,0(a5)
    21e4:	01079713          	slli	a4,a5,0x10
    21e8:	8341                	srli	a4,a4,0x10
    21ea:	fda45783          	lhu	a5,-38(s0)
    21ee:	8ff9                	and	a5,a5,a4
    21f0:	07c2                	slli	a5,a5,0x10
    21f2:	83c1                	srli	a5,a5,0x10
    21f4:	c789                	beqz	a5,21fe <USART_GetFlagStatus+0x36>
C:\Users\16917\Desktop\Dual-core_Communication_Demo\Dual-core_Communication_Demo\SLAVE\obj/../Libraries/wch_libraries/Peripheral/ch32v10x_usart.c:612
    21f6:	4785                	li	a5,1
    21f8:	fef42623          	sw	a5,-20(s0)
    21fc:	a019                	j	2202 <USART_GetFlagStatus+0x3a>
C:\Users\16917\Desktop\Dual-core_Communication_Demo\Dual-core_Communication_Demo\SLAVE\obj/../Libraries/wch_libraries/Peripheral/ch32v10x_usart.c:616
    21fe:	fe042623          	sw	zero,-20(s0)
C:\Users\16917\Desktop\Dual-core_Communication_Demo\Dual-core_Communication_Demo\SLAVE\obj/../Libraries/wch_libraries/Peripheral/ch32v10x_usart.c:618
    2202:	fec42783          	lw	a5,-20(s0)
C:\Users\16917\Desktop\Dual-core_Communication_Demo\Dual-core_Communication_Demo\SLAVE\obj/../Libraries/wch_libraries/Peripheral/ch32v10x_usart.c:619
    2206:	853e                	mv	a0,a5
    2208:	5432                	lw	s0,44(sp)
    220a:	6145                	addi	sp,sp,48
    220c:	8082                	ret

0000220e <USART_GetITStatus>:
USART_GetITStatus():
C:\Users\16917\Desktop\Dual-core_Communication_Demo\Dual-core_Communication_Demo\SLAVE\obj/../Libraries/wch_libraries/Peripheral/ch32v10x_usart.c:660
    220e:	7179                	addi	sp,sp,-48
    2210:	d622                	sw	s0,44(sp)
    2212:	1800                	addi	s0,sp,48
    2214:	fca42e23          	sw	a0,-36(s0)
    2218:	87ae                	mv	a5,a1
    221a:	fcf41d23          	sh	a5,-38(s0)
C:\Users\16917\Desktop\Dual-core_Communication_Demo\Dual-core_Communication_Demo\SLAVE\obj/../Libraries/wch_libraries/Peripheral/ch32v10x_usart.c:661
    221e:	fe042223          	sw	zero,-28(s0)
    2222:	fe042623          	sw	zero,-20(s0)
    2226:	fe042023          	sw	zero,-32(s0)
C:\Users\16917\Desktop\Dual-core_Communication_Demo\Dual-core_Communication_Demo\SLAVE\obj/../Libraries/wch_libraries/Peripheral/ch32v10x_usart.c:662
    222a:	fe042423          	sw	zero,-24(s0)
C:\Users\16917\Desktop\Dual-core_Communication_Demo\Dual-core_Communication_Demo\SLAVE\obj/../Libraries/wch_libraries/Peripheral/ch32v10x_usart.c:668
    222e:	fda45783          	lhu	a5,-38(s0)
    2232:	0ff7f793          	andi	a5,a5,255
    2236:	8395                	srli	a5,a5,0x5
    2238:	0ff7f793          	andi	a5,a5,255
    223c:	fef42023          	sw	a5,-32(s0)
C:\Users\16917\Desktop\Dual-core_Communication_Demo\Dual-core_Communication_Demo\SLAVE\obj/../Libraries/wch_libraries/Peripheral/ch32v10x_usart.c:669
    2240:	fda45783          	lhu	a5,-38(s0)
    2244:	8bfd                	andi	a5,a5,31
    2246:	fef42623          	sw	a5,-20(s0)
C:\Users\16917\Desktop\Dual-core_Communication_Demo\Dual-core_Communication_Demo\SLAVE\obj/../Libraries/wch_libraries/Peripheral/ch32v10x_usart.c:670
    224a:	fec42783          	lw	a5,-20(s0)
    224e:	4705                	li	a4,1
    2250:	00f717b3          	sll	a5,a4,a5
    2254:	fef42623          	sw	a5,-20(s0)
C:\Users\16917\Desktop\Dual-core_Communication_Demo\Dual-core_Communication_Demo\SLAVE\obj/../Libraries/wch_libraries/Peripheral/ch32v10x_usart.c:672
    2258:	fe042703          	lw	a4,-32(s0)
    225c:	4785                	li	a5,1
    225e:	00f71f63          	bne	a4,a5,227c <USART_GetITStatus+0x6e>
C:\Users\16917\Desktop\Dual-core_Communication_Demo\Dual-core_Communication_Demo\SLAVE\obj/../Libraries/wch_libraries/Peripheral/ch32v10x_usart.c:674
    2262:	fdc42783          	lw	a5,-36(s0)
    2266:	00c7d783          	lhu	a5,12(a5)
    226a:	07c2                	slli	a5,a5,0x10
    226c:	83c1                	srli	a5,a5,0x10
    226e:	873e                	mv	a4,a5
    2270:	fec42783          	lw	a5,-20(s0)
    2274:	8ff9                	and	a5,a5,a4
    2276:	fef42623          	sw	a5,-20(s0)
    227a:	a83d                	j	22b8 <USART_GetITStatus+0xaa>
C:\Users\16917\Desktop\Dual-core_Communication_Demo\Dual-core_Communication_Demo\SLAVE\obj/../Libraries/wch_libraries/Peripheral/ch32v10x_usart.c:676
    227c:	fe042703          	lw	a4,-32(s0)
    2280:	4789                	li	a5,2
    2282:	00f71f63          	bne	a4,a5,22a0 <USART_GetITStatus+0x92>
C:\Users\16917\Desktop\Dual-core_Communication_Demo\Dual-core_Communication_Demo\SLAVE\obj/../Libraries/wch_libraries/Peripheral/ch32v10x_usart.c:678
    2286:	fdc42783          	lw	a5,-36(s0)
    228a:	0107d783          	lhu	a5,16(a5)
    228e:	07c2                	slli	a5,a5,0x10
    2290:	83c1                	srli	a5,a5,0x10
    2292:	873e                	mv	a4,a5
    2294:	fec42783          	lw	a5,-20(s0)
    2298:	8ff9                	and	a5,a5,a4
    229a:	fef42623          	sw	a5,-20(s0)
    229e:	a829                	j	22b8 <USART_GetITStatus+0xaa>
C:\Users\16917\Desktop\Dual-core_Communication_Demo\Dual-core_Communication_Demo\SLAVE\obj/../Libraries/wch_libraries/Peripheral/ch32v10x_usart.c:682
    22a0:	fdc42783          	lw	a5,-36(s0)
    22a4:	0147d783          	lhu	a5,20(a5)
    22a8:	07c2                	slli	a5,a5,0x10
    22aa:	83c1                	srli	a5,a5,0x10
    22ac:	873e                	mv	a4,a5
    22ae:	fec42783          	lw	a5,-20(s0)
    22b2:	8ff9                	and	a5,a5,a4
    22b4:	fef42623          	sw	a5,-20(s0)
C:\Users\16917\Desktop\Dual-core_Communication_Demo\Dual-core_Communication_Demo\SLAVE\obj/../Libraries/wch_libraries/Peripheral/ch32v10x_usart.c:685
    22b8:	fda45783          	lhu	a5,-38(s0)
    22bc:	83a1                	srli	a5,a5,0x8
    22be:	07c2                	slli	a5,a5,0x10
    22c0:	83c1                	srli	a5,a5,0x10
    22c2:	fef42223          	sw	a5,-28(s0)
C:\Users\16917\Desktop\Dual-core_Communication_Demo\Dual-core_Communication_Demo\SLAVE\obj/../Libraries/wch_libraries/Peripheral/ch32v10x_usart.c:686
    22c6:	fe442783          	lw	a5,-28(s0)
    22ca:	4705                	li	a4,1
    22cc:	00f717b3          	sll	a5,a4,a5
    22d0:	fef42223          	sw	a5,-28(s0)
C:\Users\16917\Desktop\Dual-core_Communication_Demo\Dual-core_Communication_Demo\SLAVE\obj/../Libraries/wch_libraries/Peripheral/ch32v10x_usart.c:687
    22d4:	fdc42783          	lw	a5,-36(s0)
    22d8:	0007d783          	lhu	a5,0(a5)
    22dc:	07c2                	slli	a5,a5,0x10
    22de:	83c1                	srli	a5,a5,0x10
    22e0:	873e                	mv	a4,a5
    22e2:	fe442783          	lw	a5,-28(s0)
    22e6:	8ff9                	and	a5,a5,a4
    22e8:	fef42223          	sw	a5,-28(s0)
C:\Users\16917\Desktop\Dual-core_Communication_Demo\Dual-core_Communication_Demo\SLAVE\obj/../Libraries/wch_libraries/Peripheral/ch32v10x_usart.c:689
    22ec:	fec42783          	lw	a5,-20(s0)
    22f0:	cb81                	beqz	a5,2300 <USART_GetITStatus+0xf2>
C:\Users\16917\Desktop\Dual-core_Communication_Demo\Dual-core_Communication_Demo\SLAVE\obj/../Libraries/wch_libraries/Peripheral/ch32v10x_usart.c:689 (discriminator 1)
    22f2:	fe442783          	lw	a5,-28(s0)
    22f6:	c789                	beqz	a5,2300 <USART_GetITStatus+0xf2>
C:\Users\16917\Desktop\Dual-core_Communication_Demo\Dual-core_Communication_Demo\SLAVE\obj/../Libraries/wch_libraries/Peripheral/ch32v10x_usart.c:691
    22f8:	4785                	li	a5,1
    22fa:	fef42423          	sw	a5,-24(s0)
    22fe:	a019                	j	2304 <USART_GetITStatus+0xf6>
C:\Users\16917\Desktop\Dual-core_Communication_Demo\Dual-core_Communication_Demo\SLAVE\obj/../Libraries/wch_libraries/Peripheral/ch32v10x_usart.c:695
    2300:	fe042423          	sw	zero,-24(s0)
C:\Users\16917\Desktop\Dual-core_Communication_Demo\Dual-core_Communication_Demo\SLAVE\obj/../Libraries/wch_libraries/Peripheral/ch32v10x_usart.c:698
    2304:	fe842783          	lw	a5,-24(s0)
C:\Users\16917\Desktop\Dual-core_Communication_Demo\Dual-core_Communication_Demo\SLAVE\obj/../Libraries/wch_libraries/Peripheral/ch32v10x_usart.c:699
    2308:	853e                	mv	a0,a5
    230a:	5432                	lw	s0,44(sp)
    230c:	6145                	addi	sp,sp,48
    230e:	8082                	ret

00002310 <USART_ClearITPendingBit>:
USART_ClearITPendingBit():
C:\Users\16917\Desktop\Dual-core_Communication_Demo\Dual-core_Communication_Demo\SLAVE\obj/../Libraries/wch_libraries/Peripheral/ch32v10x_usart.c:713
    2310:	7179                	addi	sp,sp,-48
    2312:	d622                	sw	s0,44(sp)
    2314:	1800                	addi	s0,sp,48
    2316:	fca42e23          	sw	a0,-36(s0)
    231a:	87ae                	mv	a5,a1
    231c:	fcf41d23          	sh	a5,-38(s0)
C:\Users\16917\Desktop\Dual-core_Communication_Demo\Dual-core_Communication_Demo\SLAVE\obj/../Libraries/wch_libraries/Peripheral/ch32v10x_usart.c:714
    2320:	fe041723          	sh	zero,-18(s0)
    2324:	fe041623          	sh	zero,-20(s0)
C:\Users\16917\Desktop\Dual-core_Communication_Demo\Dual-core_Communication_Demo\SLAVE\obj/../Libraries/wch_libraries/Peripheral/ch32v10x_usart.c:720
    2328:	fda45783          	lhu	a5,-38(s0)
    232c:	83a1                	srli	a5,a5,0x8
    232e:	fef41723          	sh	a5,-18(s0)
C:\Users\16917\Desktop\Dual-core_Communication_Demo\Dual-core_Communication_Demo\SLAVE\obj/../Libraries/wch_libraries/Peripheral/ch32v10x_usart.c:721
    2332:	fee45783          	lhu	a5,-18(s0)
    2336:	4705                	li	a4,1
    2338:	00f717b3          	sll	a5,a4,a5
    233c:	fef41623          	sh	a5,-20(s0)
C:\Users\16917\Desktop\Dual-core_Communication_Demo\Dual-core_Communication_Demo\SLAVE\obj/../Libraries/wch_libraries/Peripheral/ch32v10x_usart.c:722
    2340:	fec45783          	lhu	a5,-20(s0)
    2344:	fff7c793          	not	a5,a5
    2348:	01079713          	slli	a4,a5,0x10
    234c:	8341                	srli	a4,a4,0x10
    234e:	fdc42783          	lw	a5,-36(s0)
    2352:	00e79023          	sh	a4,0(a5)
C:\Users\16917\Desktop\Dual-core_Communication_Demo\Dual-core_Communication_Demo\SLAVE\obj/../Libraries/wch_libraries/Peripheral/ch32v10x_usart.c:723
    2356:	0001                	nop
    2358:	5432                	lw	s0,44(sp)
    235a:	6145                	addi	sp,sp,48
    235c:	8082                	ret

0000235e <ips114_writeIndex>:
ips114_writeIndex():
C:\Users\16917\Desktop\Dual-core_Communication_Demo\Dual-core_Communication_Demo\SLAVE\obj/../Libraries/seekfree_peripheral/SEEKFREE_IPS114_SPI.c:50
    235e:	1101                	addi	sp,sp,-32
    2360:	ce06                	sw	ra,28(sp)
    2362:	cc22                	sw	s0,24(sp)
    2364:	1000                	addi	s0,sp,32
    2366:	87aa                	mv	a5,a0
    2368:	fef407a3          	sb	a5,-17(s0)
C:\Users\16917\Desktop\Dual-core_Communication_Demo\Dual-core_Communication_Demo\SLAVE\obj/../Libraries/seekfree_peripheral/SEEKFREE_IPS114_SPI.c:51
    236c:	6799                	lui	a5,0x6
    236e:	11478793          	addi	a5,a5,276 # 6114 <GPION>
    2372:	479c                	lw	a5,8(a5)
    2374:	873e                	mv	a4,a5
    2376:	67a1                	lui	a5,0x8
    2378:	cb5c                	sw	a5,20(a4)
C:\Users\16917\Desktop\Dual-core_Communication_Demo\Dual-core_Communication_Demo\SLAVE\obj/../Libraries/seekfree_peripheral/SEEKFREE_IPS114_SPI.c:52
    237a:	6799                	lui	a5,0x6
    237c:	11478793          	addi	a5,a5,276 # 6114 <GPION>
    2380:	479c                	lw	a5,8(a5)
    2382:	873e                	mv	a4,a5
    2384:	6791                	lui	a5,0x4
    2386:	cb5c                	sw	a5,20(a4)
C:\Users\16917\Desktop\Dual-core_Communication_Demo\Dual-core_Communication_Demo\SLAVE\obj/../Libraries/seekfree_peripheral/SEEKFREE_IPS114_SPI.c:53
    2388:	fef40793          	addi	a5,s0,-17
    238c:	4685                	li	a3,1
    238e:	4601                	li	a2,0
    2390:	85be                	mv	a1,a5
    2392:	4501                	li	a0,0
    2394:	26d010ef          	jal	ra,3e00 <spi_mosi>
C:\Users\16917\Desktop\Dual-core_Communication_Demo\Dual-core_Communication_Demo\SLAVE\obj/../Libraries/seekfree_peripheral/SEEKFREE_IPS114_SPI.c:54
    2398:	6799                	lui	a5,0x6
    239a:	11478793          	addi	a5,a5,276 # 6114 <GPION>
    239e:	479c                	lw	a5,8(a5)
    23a0:	873e                	mv	a4,a5
    23a2:	67a1                	lui	a5,0x8
    23a4:	cb1c                	sw	a5,16(a4)
C:\Users\16917\Desktop\Dual-core_Communication_Demo\Dual-core_Communication_Demo\SLAVE\obj/../Libraries/seekfree_peripheral/SEEKFREE_IPS114_SPI.c:55
    23a6:	0001                	nop
    23a8:	40f2                	lw	ra,28(sp)
    23aa:	4462                	lw	s0,24(sp)
    23ac:	6105                	addi	sp,sp,32
    23ae:	8082                	ret

000023b0 <ips114_writeData>:
ips114_writeData():
C:\Users\16917\Desktop\Dual-core_Communication_Demo\Dual-core_Communication_Demo\SLAVE\obj/../Libraries/seekfree_peripheral/SEEKFREE_IPS114_SPI.c:65
    23b0:	1101                	addi	sp,sp,-32
    23b2:	ce06                	sw	ra,28(sp)
    23b4:	cc22                	sw	s0,24(sp)
    23b6:	1000                	addi	s0,sp,32
    23b8:	87aa                	mv	a5,a0
    23ba:	fef407a3          	sb	a5,-17(s0)
C:\Users\16917\Desktop\Dual-core_Communication_Demo\Dual-core_Communication_Demo\SLAVE\obj/../Libraries/seekfree_peripheral/SEEKFREE_IPS114_SPI.c:66
    23be:	6799                	lui	a5,0x6
    23c0:	11478793          	addi	a5,a5,276 # 6114 <GPION>
    23c4:	479c                	lw	a5,8(a5)
    23c6:	873e                	mv	a4,a5
    23c8:	67a1                	lui	a5,0x8
    23ca:	cb5c                	sw	a5,20(a4)
C:\Users\16917\Desktop\Dual-core_Communication_Demo\Dual-core_Communication_Demo\SLAVE\obj/../Libraries/seekfree_peripheral/SEEKFREE_IPS114_SPI.c:67
    23cc:	6799                	lui	a5,0x6
    23ce:	11478793          	addi	a5,a5,276 # 6114 <GPION>
    23d2:	479c                	lw	a5,8(a5)
    23d4:	873e                	mv	a4,a5
    23d6:	6791                	lui	a5,0x4
    23d8:	cb1c                	sw	a5,16(a4)
C:\Users\16917\Desktop\Dual-core_Communication_Demo\Dual-core_Communication_Demo\SLAVE\obj/../Libraries/seekfree_peripheral/SEEKFREE_IPS114_SPI.c:68
    23da:	fef40793          	addi	a5,s0,-17
    23de:	4685                	li	a3,1
    23e0:	4601                	li	a2,0
    23e2:	85be                	mv	a1,a5
    23e4:	4501                	li	a0,0
    23e6:	21b010ef          	jal	ra,3e00 <spi_mosi>
C:\Users\16917\Desktop\Dual-core_Communication_Demo\Dual-core_Communication_Demo\SLAVE\obj/../Libraries/seekfree_peripheral/SEEKFREE_IPS114_SPI.c:69
    23ea:	6799                	lui	a5,0x6
    23ec:	11478793          	addi	a5,a5,276 # 6114 <GPION>
    23f0:	479c                	lw	a5,8(a5)
    23f2:	873e                	mv	a4,a5
    23f4:	67a1                	lui	a5,0x8
    23f6:	cb1c                	sw	a5,16(a4)
C:\Users\16917\Desktop\Dual-core_Communication_Demo\Dual-core_Communication_Demo\SLAVE\obj/../Libraries/seekfree_peripheral/SEEKFREE_IPS114_SPI.c:70
    23f8:	0001                	nop
    23fa:	40f2                	lw	ra,28(sp)
    23fc:	4462                	lw	s0,24(sp)
    23fe:	6105                	addi	sp,sp,32
    2400:	8082                	ret

00002402 <ips114_writedata_16bit>:
ips114_writedata_16bit():
C:\Users\16917\Desktop\Dual-core_Communication_Demo\Dual-core_Communication_Demo\SLAVE\obj/../Libraries/seekfree_peripheral/SEEKFREE_IPS114_SPI.c:80
    2402:	7179                	addi	sp,sp,-48
    2404:	d606                	sw	ra,44(sp)
    2406:	d422                	sw	s0,40(sp)
    2408:	1800                	addi	s0,sp,48
    240a:	87aa                	mv	a5,a0
    240c:	fcf41f23          	sh	a5,-34(s0)
C:\Users\16917\Desktop\Dual-core_Communication_Demo\Dual-core_Communication_Demo\SLAVE\obj/../Libraries/seekfree_peripheral/SEEKFREE_IPS114_SPI.c:82
    2410:	6799                	lui	a5,0x6
    2412:	11478793          	addi	a5,a5,276 # 6114 <GPION>
    2416:	479c                	lw	a5,8(a5)
    2418:	873e                	mv	a4,a5
    241a:	67a1                	lui	a5,0x8
    241c:	cb5c                	sw	a5,20(a4)
C:\Users\16917\Desktop\Dual-core_Communication_Demo\Dual-core_Communication_Demo\SLAVE\obj/../Libraries/seekfree_peripheral/SEEKFREE_IPS114_SPI.c:83
    241e:	fde45783          	lhu	a5,-34(s0)
    2422:	83a1                	srli	a5,a5,0x8
    2424:	07c2                	slli	a5,a5,0x10
    2426:	83c1                	srli	a5,a5,0x10
    2428:	0ff7f793          	andi	a5,a5,255
    242c:	fef40623          	sb	a5,-20(s0)
C:\Users\16917\Desktop\Dual-core_Communication_Demo\Dual-core_Communication_Demo\SLAVE\obj/../Libraries/seekfree_peripheral/SEEKFREE_IPS114_SPI.c:84
    2430:	fde45783          	lhu	a5,-34(s0)
    2434:	0ff7f793          	andi	a5,a5,255
    2438:	fef406a3          	sb	a5,-19(s0)
C:\Users\16917\Desktop\Dual-core_Communication_Demo\Dual-core_Communication_Demo\SLAVE\obj/../Libraries/seekfree_peripheral/SEEKFREE_IPS114_SPI.c:86
    243c:	6799                	lui	a5,0x6
    243e:	11478793          	addi	a5,a5,276 # 6114 <GPION>
    2442:	479c                	lw	a5,8(a5)
    2444:	873e                	mv	a4,a5
    2446:	6791                	lui	a5,0x4
    2448:	cb1c                	sw	a5,16(a4)
C:\Users\16917\Desktop\Dual-core_Communication_Demo\Dual-core_Communication_Demo\SLAVE\obj/../Libraries/seekfree_peripheral/SEEKFREE_IPS114_SPI.c:87
    244a:	fec40793          	addi	a5,s0,-20
    244e:	4689                	li	a3,2
    2450:	4601                	li	a2,0
    2452:	85be                	mv	a1,a5
    2454:	4501                	li	a0,0
    2456:	1ab010ef          	jal	ra,3e00 <spi_mosi>
C:\Users\16917\Desktop\Dual-core_Communication_Demo\Dual-core_Communication_Demo\SLAVE\obj/../Libraries/seekfree_peripheral/SEEKFREE_IPS114_SPI.c:88
    245a:	6799                	lui	a5,0x6
    245c:	11478793          	addi	a5,a5,276 # 6114 <GPION>
    2460:	479c                	lw	a5,8(a5)
    2462:	873e                	mv	a4,a5
    2464:	67a1                	lui	a5,0x8
    2466:	cb1c                	sw	a5,16(a4)
C:\Users\16917\Desktop\Dual-core_Communication_Demo\Dual-core_Communication_Demo\SLAVE\obj/../Libraries/seekfree_peripheral/SEEKFREE_IPS114_SPI.c:89
    2468:	0001                	nop
    246a:	50b2                	lw	ra,44(sp)
    246c:	5422                	lw	s0,40(sp)
    246e:	6145                	addi	sp,sp,48
    2470:	8082                	ret

00002472 <ips114_init>:
ips114_init():
C:\Users\16917\Desktop\Dual-core_Communication_Demo\Dual-core_Communication_Demo\SLAVE\obj/../Libraries/seekfree_peripheral/SEEKFREE_IPS114_SPI.c:98
    2472:	7179                	addi	sp,sp,-48
    2474:	d606                	sw	ra,44(sp)
    2476:	d422                	sw	s0,40(sp)
    2478:	d24a                	sw	s2,36(sp)
    247a:	d04e                	sw	s3,32(sp)
    247c:	ce52                	sw	s4,28(sp)
    247e:	cc56                	sw	s5,24(sp)
    2480:	ca5a                	sw	s6,20(sp)
    2482:	c85e                	sw	s7,16(sp)
    2484:	c662                	sw	s8,12(sp)
    2486:	c466                	sw	s9,8(sp)
    2488:	1800                	addi	s0,sp,48
C:\Users\16917\Desktop\Dual-core_Communication_Demo\Dual-core_Communication_Demo\SLAVE\obj/../Libraries/seekfree_peripheral/SEEKFREE_IPS114_SPI.c:99
    248a:	4801                	li	a6,0
    248c:	4781                	li	a5,0
    248e:	04f00713          	li	a4,79
    2492:	02300693          	li	a3,35
    2496:	4605                	li	a2,1
    2498:	4581                	li	a1,0
    249a:	4501                	li	a0,0
    249c:	02f010ef          	jal	ra,3cca <spi_init>
C:\Users\16917\Desktop\Dual-core_Communication_Demo\Dual-core_Communication_Demo\SLAVE\obj/../Libraries/seekfree_peripheral/SEEKFREE_IPS114_SPI.c:101
    24a0:	31000693          	li	a3,784
    24a4:	4605                	li	a2,1
    24a6:	4585                	li	a1,1
    24a8:	08000513          	li	a0,128
    24ac:	64d000ef          	jal	ra,32f8 <gpio_init>
C:\Users\16917\Desktop\Dual-core_Communication_Demo\Dual-core_Communication_Demo\SLAVE\obj/../Libraries/seekfree_peripheral/SEEKFREE_IPS114_SPI.c:102
    24b0:	31000693          	li	a3,784
    24b4:	4601                	li	a2,0
    24b6:	4585                	li	a1,1
    24b8:	04e00513          	li	a0,78
    24bc:	63d000ef          	jal	ra,32f8 <gpio_init>
C:\Users\16917\Desktop\Dual-core_Communication_Demo\Dual-core_Communication_Demo\SLAVE\obj/../Libraries/seekfree_peripheral/SEEKFREE_IPS114_SPI.c:103
    24c0:	31000693          	li	a3,784
    24c4:	4601                	li	a2,0
    24c6:	4585                	li	a1,1
    24c8:	04d00513          	li	a0,77
    24cc:	62d000ef          	jal	ra,32f8 <gpio_init>
C:\Users\16917\Desktop\Dual-core_Communication_Demo\Dual-core_Communication_Demo\SLAVE\obj/../Libraries/seekfree_peripheral/SEEKFREE_IPS114_SPI.c:105
    24d0:	6799                	lui	a5,0x6
    24d2:	11478793          	addi	a5,a5,276 # 6114 <GPION>
    24d6:	479c                	lw	a5,8(a5)
    24d8:	873e                	mv	a4,a5
    24da:	6789                	lui	a5,0x2
    24dc:	cb5c                	sw	a5,20(a4)
C:\Users\16917\Desktop\Dual-core_Communication_Demo\Dual-core_Communication_Demo\SLAVE\obj/../Libraries/seekfree_peripheral/SEEKFREE_IPS114_SPI.c:106
    24de:	8401a703          	lw	a4,-1984(gp) # 200000f8 <sys_clk>
    24e2:	6789                	lui	a5,0x2
    24e4:	f4078793          	addi	a5,a5,-192 # 1f40 <USART_Init+0xfe>
    24e8:	02f75733          	divu	a4,a4,a5
    24ec:	0c800793          	li	a5,200
    24f0:	02f707b3          	mul	a5,a4,a5
    24f4:	8c3e                	mv	s8,a5
    24f6:	4c81                	li	s9,0
    24f8:	8562                	mv	a0,s8
    24fa:	85e6                	mv	a1,s9
    24fc:	1c7010ef          	jal	ra,3ec2 <systick_delay>
C:\Users\16917\Desktop\Dual-core_Communication_Demo\Dual-core_Communication_Demo\SLAVE\obj/../Libraries/seekfree_peripheral/SEEKFREE_IPS114_SPI.c:108
    2500:	6799                	lui	a5,0x6
    2502:	11478793          	addi	a5,a5,276 # 6114 <GPION>
    2506:	479c                	lw	a5,8(a5)
    2508:	873e                	mv	a4,a5
    250a:	6789                	lui	a5,0x2
    250c:	cb1c                	sw	a5,16(a4)
C:\Users\16917\Desktop\Dual-core_Communication_Demo\Dual-core_Communication_Demo\SLAVE\obj/../Libraries/seekfree_peripheral/SEEKFREE_IPS114_SPI.c:109
    250e:	8401a703          	lw	a4,-1984(gp) # 200000f8 <sys_clk>
    2512:	6789                	lui	a5,0x2
    2514:	f4078793          	addi	a5,a5,-192 # 1f40 <USART_Init+0xfe>
    2518:	02f75733          	divu	a4,a4,a5
    251c:	06400793          	li	a5,100
    2520:	02f707b3          	mul	a5,a4,a5
    2524:	8b3e                	mv	s6,a5
    2526:	4b81                	li	s7,0
    2528:	855a                	mv	a0,s6
    252a:	85de                	mv	a1,s7
    252c:	197010ef          	jal	ra,3ec2 <systick_delay>
C:\Users\16917\Desktop\Dual-core_Communication_Demo\Dual-core_Communication_Demo\SLAVE\obj/../Libraries/seekfree_peripheral/SEEKFREE_IPS114_SPI.c:111
    2530:	03600513          	li	a0,54
    2534:	352d                	jal	235e <ips114_writeIndex>
C:\Users\16917\Desktop\Dual-core_Communication_Demo\Dual-core_Communication_Demo\SLAVE\obj/../Libraries/seekfree_peripheral/SEEKFREE_IPS114_SPI.c:112
    2536:	8401a703          	lw	a4,-1984(gp) # 200000f8 <sys_clk>
    253a:	6789                	lui	a5,0x2
    253c:	f4078793          	addi	a5,a5,-192 # 1f40 <USART_Init+0xfe>
    2540:	02f75733          	divu	a4,a4,a5
    2544:	06400793          	li	a5,100
    2548:	02f707b3          	mul	a5,a4,a5
    254c:	8a3e                	mv	s4,a5
    254e:	4a81                	li	s5,0
    2550:	8552                	mv	a0,s4
    2552:	85d6                	mv	a1,s5
    2554:	16f010ef          	jal	ra,3ec2 <systick_delay>
C:\Users\16917\Desktop\Dual-core_Communication_Demo\Dual-core_Communication_Demo\SLAVE\obj/../Libraries/seekfree_peripheral/SEEKFREE_IPS114_SPI.c:115
    2558:	07000513          	li	a0,112
    255c:	3d91                	jal	23b0 <ips114_writeData>
C:\Users\16917\Desktop\Dual-core_Communication_Demo\Dual-core_Communication_Demo\SLAVE\obj/../Libraries/seekfree_peripheral/SEEKFREE_IPS114_SPI.c:118
    255e:	03a00513          	li	a0,58
    2562:	3bf5                	jal	235e <ips114_writeIndex>
C:\Users\16917\Desktop\Dual-core_Communication_Demo\Dual-core_Communication_Demo\SLAVE\obj/../Libraries/seekfree_peripheral/SEEKFREE_IPS114_SPI.c:119
    2564:	4515                	li	a0,5
    2566:	35a9                	jal	23b0 <ips114_writeData>
C:\Users\16917\Desktop\Dual-core_Communication_Demo\Dual-core_Communication_Demo\SLAVE\obj/../Libraries/seekfree_peripheral/SEEKFREE_IPS114_SPI.c:121
    2568:	0b200513          	li	a0,178
    256c:	3bcd                	jal	235e <ips114_writeIndex>
C:\Users\16917\Desktop\Dual-core_Communication_Demo\Dual-core_Communication_Demo\SLAVE\obj/../Libraries/seekfree_peripheral/SEEKFREE_IPS114_SPI.c:122
    256e:	4531                	li	a0,12
    2570:	3581                	jal	23b0 <ips114_writeData>
C:\Users\16917\Desktop\Dual-core_Communication_Demo\Dual-core_Communication_Demo\SLAVE\obj/../Libraries/seekfree_peripheral/SEEKFREE_IPS114_SPI.c:123
    2572:	4531                	li	a0,12
    2574:	3d35                	jal	23b0 <ips114_writeData>
C:\Users\16917\Desktop\Dual-core_Communication_Demo\Dual-core_Communication_Demo\SLAVE\obj/../Libraries/seekfree_peripheral/SEEKFREE_IPS114_SPI.c:124
    2576:	4501                	li	a0,0
    2578:	3d25                	jal	23b0 <ips114_writeData>
C:\Users\16917\Desktop\Dual-core_Communication_Demo\Dual-core_Communication_Demo\SLAVE\obj/../Libraries/seekfree_peripheral/SEEKFREE_IPS114_SPI.c:125
    257a:	03300513          	li	a0,51
    257e:	3d0d                	jal	23b0 <ips114_writeData>
C:\Users\16917\Desktop\Dual-core_Communication_Demo\Dual-core_Communication_Demo\SLAVE\obj/../Libraries/seekfree_peripheral/SEEKFREE_IPS114_SPI.c:126
    2580:	03300513          	li	a0,51
    2584:	3535                	jal	23b0 <ips114_writeData>
C:\Users\16917\Desktop\Dual-core_Communication_Demo\Dual-core_Communication_Demo\SLAVE\obj/../Libraries/seekfree_peripheral/SEEKFREE_IPS114_SPI.c:128
    2586:	0b700513          	li	a0,183
    258a:	3bd1                	jal	235e <ips114_writeIndex>
C:\Users\16917\Desktop\Dual-core_Communication_Demo\Dual-core_Communication_Demo\SLAVE\obj/../Libraries/seekfree_peripheral/SEEKFREE_IPS114_SPI.c:129
    258c:	03500513          	li	a0,53
    2590:	3505                	jal	23b0 <ips114_writeData>
C:\Users\16917\Desktop\Dual-core_Communication_Demo\Dual-core_Communication_Demo\SLAVE\obj/../Libraries/seekfree_peripheral/SEEKFREE_IPS114_SPI.c:131
    2592:	0bb00513          	li	a0,187
    2596:	33e1                	jal	235e <ips114_writeIndex>
C:\Users\16917\Desktop\Dual-core_Communication_Demo\Dual-core_Communication_Demo\SLAVE\obj/../Libraries/seekfree_peripheral/SEEKFREE_IPS114_SPI.c:132
    2598:	03700513          	li	a0,55
    259c:	3d11                	jal	23b0 <ips114_writeData>
C:\Users\16917\Desktop\Dual-core_Communication_Demo\Dual-core_Communication_Demo\SLAVE\obj/../Libraries/seekfree_peripheral/SEEKFREE_IPS114_SPI.c:134
    259e:	0c000513          	li	a0,192
    25a2:	3b75                	jal	235e <ips114_writeIndex>
C:\Users\16917\Desktop\Dual-core_Communication_Demo\Dual-core_Communication_Demo\SLAVE\obj/../Libraries/seekfree_peripheral/SEEKFREE_IPS114_SPI.c:135
    25a4:	02c00513          	li	a0,44
    25a8:	3521                	jal	23b0 <ips114_writeData>
C:\Users\16917\Desktop\Dual-core_Communication_Demo\Dual-core_Communication_Demo\SLAVE\obj/../Libraries/seekfree_peripheral/SEEKFREE_IPS114_SPI.c:137
    25aa:	0c200513          	li	a0,194
    25ae:	3b45                	jal	235e <ips114_writeIndex>
C:\Users\16917\Desktop\Dual-core_Communication_Demo\Dual-core_Communication_Demo\SLAVE\obj/../Libraries/seekfree_peripheral/SEEKFREE_IPS114_SPI.c:138
    25b0:	4505                	li	a0,1
    25b2:	3bfd                	jal	23b0 <ips114_writeData>
C:\Users\16917\Desktop\Dual-core_Communication_Demo\Dual-core_Communication_Demo\SLAVE\obj/../Libraries/seekfree_peripheral/SEEKFREE_IPS114_SPI.c:140
    25b4:	0c300513          	li	a0,195
    25b8:	335d                	jal	235e <ips114_writeIndex>
C:\Users\16917\Desktop\Dual-core_Communication_Demo\Dual-core_Communication_Demo\SLAVE\obj/../Libraries/seekfree_peripheral/SEEKFREE_IPS114_SPI.c:141
    25ba:	4549                	li	a0,18
    25bc:	3bd5                	jal	23b0 <ips114_writeData>
C:\Users\16917\Desktop\Dual-core_Communication_Demo\Dual-core_Communication_Demo\SLAVE\obj/../Libraries/seekfree_peripheral/SEEKFREE_IPS114_SPI.c:143
    25be:	0c400513          	li	a0,196
    25c2:	3b71                	jal	235e <ips114_writeIndex>
C:\Users\16917\Desktop\Dual-core_Communication_Demo\Dual-core_Communication_Demo\SLAVE\obj/../Libraries/seekfree_peripheral/SEEKFREE_IPS114_SPI.c:144
    25c4:	02000513          	li	a0,32
    25c8:	33e5                	jal	23b0 <ips114_writeData>
C:\Users\16917\Desktop\Dual-core_Communication_Demo\Dual-core_Communication_Demo\SLAVE\obj/../Libraries/seekfree_peripheral/SEEKFREE_IPS114_SPI.c:146
    25ca:	0c600513          	li	a0,198
    25ce:	3b41                	jal	235e <ips114_writeIndex>
C:\Users\16917\Desktop\Dual-core_Communication_Demo\Dual-core_Communication_Demo\SLAVE\obj/../Libraries/seekfree_peripheral/SEEKFREE_IPS114_SPI.c:147
    25d0:	453d                	li	a0,15
    25d2:	3bf9                	jal	23b0 <ips114_writeData>
C:\Users\16917\Desktop\Dual-core_Communication_Demo\Dual-core_Communication_Demo\SLAVE\obj/../Libraries/seekfree_peripheral/SEEKFREE_IPS114_SPI.c:149
    25d4:	0d000513          	li	a0,208
    25d8:	3359                	jal	235e <ips114_writeIndex>
C:\Users\16917\Desktop\Dual-core_Communication_Demo\Dual-core_Communication_Demo\SLAVE\obj/../Libraries/seekfree_peripheral/SEEKFREE_IPS114_SPI.c:150
    25da:	0a400513          	li	a0,164
    25de:	3bc9                	jal	23b0 <ips114_writeData>
C:\Users\16917\Desktop\Dual-core_Communication_Demo\Dual-core_Communication_Demo\SLAVE\obj/../Libraries/seekfree_peripheral/SEEKFREE_IPS114_SPI.c:151
    25e0:	0a100513          	li	a0,161
    25e4:	33f1                	jal	23b0 <ips114_writeData>
C:\Users\16917\Desktop\Dual-core_Communication_Demo\Dual-core_Communication_Demo\SLAVE\obj/../Libraries/seekfree_peripheral/SEEKFREE_IPS114_SPI.c:153
    25e6:	0e000513          	li	a0,224
    25ea:	3b95                	jal	235e <ips114_writeIndex>
C:\Users\16917\Desktop\Dual-core_Communication_Demo\Dual-core_Communication_Demo\SLAVE\obj/../Libraries/seekfree_peripheral/SEEKFREE_IPS114_SPI.c:154
    25ec:	0d000513          	li	a0,208
    25f0:	33c1                	jal	23b0 <ips114_writeData>
C:\Users\16917\Desktop\Dual-core_Communication_Demo\Dual-core_Communication_Demo\SLAVE\obj/../Libraries/seekfree_peripheral/SEEKFREE_IPS114_SPI.c:155
    25f2:	4511                	li	a0,4
    25f4:	3b75                	jal	23b0 <ips114_writeData>
C:\Users\16917\Desktop\Dual-core_Communication_Demo\Dual-core_Communication_Demo\SLAVE\obj/../Libraries/seekfree_peripheral/SEEKFREE_IPS114_SPI.c:156
    25f6:	4535                	li	a0,13
    25f8:	3b65                	jal	23b0 <ips114_writeData>
C:\Users\16917\Desktop\Dual-core_Communication_Demo\Dual-core_Communication_Demo\SLAVE\obj/../Libraries/seekfree_peripheral/SEEKFREE_IPS114_SPI.c:157
    25fa:	4545                	li	a0,17
    25fc:	3b55                	jal	23b0 <ips114_writeData>
C:\Users\16917\Desktop\Dual-core_Communication_Demo\Dual-core_Communication_Demo\SLAVE\obj/../Libraries/seekfree_peripheral/SEEKFREE_IPS114_SPI.c:158
    25fe:	454d                	li	a0,19
    2600:	3b45                	jal	23b0 <ips114_writeData>
C:\Users\16917\Desktop\Dual-core_Communication_Demo\Dual-core_Communication_Demo\SLAVE\obj/../Libraries/seekfree_peripheral/SEEKFREE_IPS114_SPI.c:159
    2602:	02b00513          	li	a0,43
    2606:	336d                	jal	23b0 <ips114_writeData>
C:\Users\16917\Desktop\Dual-core_Communication_Demo\Dual-core_Communication_Demo\SLAVE\obj/../Libraries/seekfree_peripheral/SEEKFREE_IPS114_SPI.c:160
    2608:	03f00513          	li	a0,63
    260c:	3355                	jal	23b0 <ips114_writeData>
C:\Users\16917\Desktop\Dual-core_Communication_Demo\Dual-core_Communication_Demo\SLAVE\obj/../Libraries/seekfree_peripheral/SEEKFREE_IPS114_SPI.c:161
    260e:	05400513          	li	a0,84
    2612:	3b79                	jal	23b0 <ips114_writeData>
C:\Users\16917\Desktop\Dual-core_Communication_Demo\Dual-core_Communication_Demo\SLAVE\obj/../Libraries/seekfree_peripheral/SEEKFREE_IPS114_SPI.c:162
    2614:	04c00513          	li	a0,76
    2618:	3b61                	jal	23b0 <ips114_writeData>
C:\Users\16917\Desktop\Dual-core_Communication_Demo\Dual-core_Communication_Demo\SLAVE\obj/../Libraries/seekfree_peripheral/SEEKFREE_IPS114_SPI.c:163
    261a:	4561                	li	a0,24
    261c:	3b51                	jal	23b0 <ips114_writeData>
C:\Users\16917\Desktop\Dual-core_Communication_Demo\Dual-core_Communication_Demo\SLAVE\obj/../Libraries/seekfree_peripheral/SEEKFREE_IPS114_SPI.c:164
    261e:	4535                	li	a0,13
    2620:	3b41                	jal	23b0 <ips114_writeData>
C:\Users\16917\Desktop\Dual-core_Communication_Demo\Dual-core_Communication_Demo\SLAVE\obj/../Libraries/seekfree_peripheral/SEEKFREE_IPS114_SPI.c:165
    2622:	452d                	li	a0,11
    2624:	3371                	jal	23b0 <ips114_writeData>
C:\Users\16917\Desktop\Dual-core_Communication_Demo\Dual-core_Communication_Demo\SLAVE\obj/../Libraries/seekfree_peripheral/SEEKFREE_IPS114_SPI.c:166
    2626:	457d                	li	a0,31
    2628:	3361                	jal	23b0 <ips114_writeData>
C:\Users\16917\Desktop\Dual-core_Communication_Demo\Dual-core_Communication_Demo\SLAVE\obj/../Libraries/seekfree_peripheral/SEEKFREE_IPS114_SPI.c:167
    262a:	02300513          	li	a0,35
    262e:	3349                	jal	23b0 <ips114_writeData>
C:\Users\16917\Desktop\Dual-core_Communication_Demo\Dual-core_Communication_Demo\SLAVE\obj/../Libraries/seekfree_peripheral/SEEKFREE_IPS114_SPI.c:169
    2630:	0e100513          	li	a0,225
    2634:	332d                	jal	235e <ips114_writeIndex>
C:\Users\16917\Desktop\Dual-core_Communication_Demo\Dual-core_Communication_Demo\SLAVE\obj/../Libraries/seekfree_peripheral/SEEKFREE_IPS114_SPI.c:170
    2636:	0d000513          	li	a0,208
    263a:	3b9d                	jal	23b0 <ips114_writeData>
C:\Users\16917\Desktop\Dual-core_Communication_Demo\Dual-core_Communication_Demo\SLAVE\obj/../Libraries/seekfree_peripheral/SEEKFREE_IPS114_SPI.c:171
    263c:	4511                	li	a0,4
    263e:	3b8d                	jal	23b0 <ips114_writeData>
C:\Users\16917\Desktop\Dual-core_Communication_Demo\Dual-core_Communication_Demo\SLAVE\obj/../Libraries/seekfree_peripheral/SEEKFREE_IPS114_SPI.c:172
    2640:	4531                	li	a0,12
    2642:	33bd                	jal	23b0 <ips114_writeData>
C:\Users\16917\Desktop\Dual-core_Communication_Demo\Dual-core_Communication_Demo\SLAVE\obj/../Libraries/seekfree_peripheral/SEEKFREE_IPS114_SPI.c:173
    2644:	4545                	li	a0,17
    2646:	33ad                	jal	23b0 <ips114_writeData>
C:\Users\16917\Desktop\Dual-core_Communication_Demo\Dual-core_Communication_Demo\SLAVE\obj/../Libraries/seekfree_peripheral/SEEKFREE_IPS114_SPI.c:174
    2648:	454d                	li	a0,19
    264a:	339d                	jal	23b0 <ips114_writeData>
C:\Users\16917\Desktop\Dual-core_Communication_Demo\Dual-core_Communication_Demo\SLAVE\obj/../Libraries/seekfree_peripheral/SEEKFREE_IPS114_SPI.c:175
    264c:	02c00513          	li	a0,44
    2650:	3385                	jal	23b0 <ips114_writeData>
C:\Users\16917\Desktop\Dual-core_Communication_Demo\Dual-core_Communication_Demo\SLAVE\obj/../Libraries/seekfree_peripheral/SEEKFREE_IPS114_SPI.c:176
    2652:	03f00513          	li	a0,63
    2656:	3ba9                	jal	23b0 <ips114_writeData>
C:\Users\16917\Desktop\Dual-core_Communication_Demo\Dual-core_Communication_Demo\SLAVE\obj/../Libraries/seekfree_peripheral/SEEKFREE_IPS114_SPI.c:177
    2658:	04400513          	li	a0,68
    265c:	3b91                	jal	23b0 <ips114_writeData>
C:\Users\16917\Desktop\Dual-core_Communication_Demo\Dual-core_Communication_Demo\SLAVE\obj/../Libraries/seekfree_peripheral/SEEKFREE_IPS114_SPI.c:178
    265e:	05100513          	li	a0,81
    2662:	33b9                	jal	23b0 <ips114_writeData>
C:\Users\16917\Desktop\Dual-core_Communication_Demo\Dual-core_Communication_Demo\SLAVE\obj/../Libraries/seekfree_peripheral/SEEKFREE_IPS114_SPI.c:179
    2664:	02f00513          	li	a0,47
    2668:	33a1                	jal	23b0 <ips114_writeData>
C:\Users\16917\Desktop\Dual-core_Communication_Demo\Dual-core_Communication_Demo\SLAVE\obj/../Libraries/seekfree_peripheral/SEEKFREE_IPS114_SPI.c:180
    266a:	457d                	li	a0,31
    266c:	3391                	jal	23b0 <ips114_writeData>
C:\Users\16917\Desktop\Dual-core_Communication_Demo\Dual-core_Communication_Demo\SLAVE\obj/../Libraries/seekfree_peripheral/SEEKFREE_IPS114_SPI.c:181
    266e:	457d                	li	a0,31
    2670:	3381                	jal	23b0 <ips114_writeData>
C:\Users\16917\Desktop\Dual-core_Communication_Demo\Dual-core_Communication_Demo\SLAVE\obj/../Libraries/seekfree_peripheral/SEEKFREE_IPS114_SPI.c:182
    2672:	02000513          	li	a0,32
    2676:	3b2d                	jal	23b0 <ips114_writeData>
C:\Users\16917\Desktop\Dual-core_Communication_Demo\Dual-core_Communication_Demo\SLAVE\obj/../Libraries/seekfree_peripheral/SEEKFREE_IPS114_SPI.c:183
    2678:	02300513          	li	a0,35
    267c:	3b15                	jal	23b0 <ips114_writeData>
C:\Users\16917\Desktop\Dual-core_Communication_Demo\Dual-core_Communication_Demo\SLAVE\obj/../Libraries/seekfree_peripheral/SEEKFREE_IPS114_SPI.c:185
    267e:	02100513          	li	a0,33
    2682:	39f1                	jal	235e <ips114_writeIndex>
C:\Users\16917\Desktop\Dual-core_Communication_Demo\Dual-core_Communication_Demo\SLAVE\obj/../Libraries/seekfree_peripheral/SEEKFREE_IPS114_SPI.c:187
    2684:	4545                	li	a0,17
    2686:	39e1                	jal	235e <ips114_writeIndex>
C:\Users\16917\Desktop\Dual-core_Communication_Demo\Dual-core_Communication_Demo\SLAVE\obj/../Libraries/seekfree_peripheral/SEEKFREE_IPS114_SPI.c:188
    2688:	8401a703          	lw	a4,-1984(gp) # 200000f8 <sys_clk>
    268c:	6789                	lui	a5,0x2
    268e:	f4078793          	addi	a5,a5,-192 # 1f40 <USART_Init+0xfe>
    2692:	02f75733          	divu	a4,a4,a5
    2696:	87ba                	mv	a5,a4
    2698:	0792                	slli	a5,a5,0x4
    269a:	8f99                	sub	a5,a5,a4
    269c:	078e                	slli	a5,a5,0x3
    269e:	893e                	mv	s2,a5
    26a0:	4981                	li	s3,0
    26a2:	854a                	mv	a0,s2
    26a4:	85ce                	mv	a1,s3
    26a6:	01d010ef          	jal	ra,3ec2 <systick_delay>
C:\Users\16917\Desktop\Dual-core_Communication_Demo\Dual-core_Communication_Demo\SLAVE\obj/../Libraries/seekfree_peripheral/SEEKFREE_IPS114_SPI.c:190
    26aa:	02900513          	li	a0,41
    26ae:	3945                	jal	235e <ips114_writeIndex>
C:\Users\16917\Desktop\Dual-core_Communication_Demo\Dual-core_Communication_Demo\SLAVE\obj/../Libraries/seekfree_peripheral/SEEKFREE_IPS114_SPI.c:191
    26b0:	67c1                	lui	a5,0x10
    26b2:	fff78513          	addi	a0,a5,-1 # ffff <_data_lma+0x9db7>
    26b6:	2869                	jal	2750 <ips114_clear>
C:\Users\16917\Desktop\Dual-core_Communication_Demo\Dual-core_Communication_Demo\SLAVE\obj/../Libraries/seekfree_peripheral/SEEKFREE_IPS114_SPI.c:192
    26b8:	0001                	nop
    26ba:	50b2                	lw	ra,44(sp)
    26bc:	5422                	lw	s0,40(sp)
    26be:	5912                	lw	s2,36(sp)
    26c0:	5982                	lw	s3,32(sp)
    26c2:	4a72                	lw	s4,28(sp)
    26c4:	4ae2                	lw	s5,24(sp)
    26c6:	4b52                	lw	s6,20(sp)
    26c8:	4bc2                	lw	s7,16(sp)
    26ca:	4c32                	lw	s8,12(sp)
    26cc:	4ca2                	lw	s9,8(sp)
    26ce:	6145                	addi	sp,sp,48
    26d0:	8082                	ret

000026d2 <ips114_set_region>:
ips114_set_region():
C:\Users\16917\Desktop\Dual-core_Communication_Demo\Dual-core_Communication_Demo\SLAVE\obj/../Libraries/seekfree_peripheral/SEEKFREE_IPS114_SPI.c:197
    26d2:	1101                	addi	sp,sp,-32
    26d4:	ce06                	sw	ra,28(sp)
    26d6:	cc22                	sw	s0,24(sp)
    26d8:	1000                	addi	s0,sp,32
    26da:	87aa                	mv	a5,a0
    26dc:	8736                	mv	a4,a3
    26de:	fef41723          	sh	a5,-18(s0)
    26e2:	87ae                	mv	a5,a1
    26e4:	fef41623          	sh	a5,-20(s0)
    26e8:	87b2                	mv	a5,a2
    26ea:	fef41523          	sh	a5,-22(s0)
    26ee:	87ba                	mv	a5,a4
    26f0:	fef41423          	sh	a5,-24(s0)
C:\Users\16917\Desktop\Dual-core_Communication_Demo\Dual-core_Communication_Demo\SLAVE\obj/../Libraries/seekfree_peripheral/SEEKFREE_IPS114_SPI.c:220
    26f4:	02a00513          	li	a0,42
    26f8:	319d                	jal	235e <ips114_writeIndex>
C:\Users\16917\Desktop\Dual-core_Communication_Demo\Dual-core_Communication_Demo\SLAVE\obj/../Libraries/seekfree_peripheral/SEEKFREE_IPS114_SPI.c:221
    26fa:	fee45783          	lhu	a5,-18(s0)
    26fe:	02878793          	addi	a5,a5,40
    2702:	07c2                	slli	a5,a5,0x10
    2704:	83c1                	srli	a5,a5,0x10
    2706:	853e                	mv	a0,a5
    2708:	39ed                	jal	2402 <ips114_writedata_16bit>
C:\Users\16917\Desktop\Dual-core_Communication_Demo\Dual-core_Communication_Demo\SLAVE\obj/../Libraries/seekfree_peripheral/SEEKFREE_IPS114_SPI.c:222
    270a:	fea45783          	lhu	a5,-22(s0)
    270e:	02878793          	addi	a5,a5,40
    2712:	07c2                	slli	a5,a5,0x10
    2714:	83c1                	srli	a5,a5,0x10
    2716:	853e                	mv	a0,a5
    2718:	31ed                	jal	2402 <ips114_writedata_16bit>
C:\Users\16917\Desktop\Dual-core_Communication_Demo\Dual-core_Communication_Demo\SLAVE\obj/../Libraries/seekfree_peripheral/SEEKFREE_IPS114_SPI.c:223
    271a:	02b00513          	li	a0,43
    271e:	3181                	jal	235e <ips114_writeIndex>
C:\Users\16917\Desktop\Dual-core_Communication_Demo\Dual-core_Communication_Demo\SLAVE\obj/../Libraries/seekfree_peripheral/SEEKFREE_IPS114_SPI.c:224
    2720:	fec45783          	lhu	a5,-20(s0)
    2724:	03578793          	addi	a5,a5,53
    2728:	07c2                	slli	a5,a5,0x10
    272a:	83c1                	srli	a5,a5,0x10
    272c:	853e                	mv	a0,a5
    272e:	39d1                	jal	2402 <ips114_writedata_16bit>
C:\Users\16917\Desktop\Dual-core_Communication_Demo\Dual-core_Communication_Demo\SLAVE\obj/../Libraries/seekfree_peripheral/SEEKFREE_IPS114_SPI.c:225
    2730:	fe845783          	lhu	a5,-24(s0)
    2734:	03578793          	addi	a5,a5,53
    2738:	07c2                	slli	a5,a5,0x10
    273a:	83c1                	srli	a5,a5,0x10
    273c:	853e                	mv	a0,a5
    273e:	31d1                	jal	2402 <ips114_writedata_16bit>
C:\Users\16917\Desktop\Dual-core_Communication_Demo\Dual-core_Communication_Demo\SLAVE\obj/../Libraries/seekfree_peripheral/SEEKFREE_IPS114_SPI.c:226
    2740:	02c00513          	li	a0,44
    2744:	3929                	jal	235e <ips114_writeIndex>
C:\Users\16917\Desktop\Dual-core_Communication_Demo\Dual-core_Communication_Demo\SLAVE\obj/../Libraries/seekfree_peripheral/SEEKFREE_IPS114_SPI.c:238
    2746:	0001                	nop
    2748:	40f2                	lw	ra,28(sp)
    274a:	4462                	lw	s0,24(sp)
    274c:	6105                	addi	sp,sp,32
    274e:	8082                	ret

00002750 <ips114_clear>:
ips114_clear():
C:\Users\16917\Desktop\Dual-core_Communication_Demo\Dual-core_Communication_Demo\SLAVE\obj/../Libraries/seekfree_peripheral/SEEKFREE_IPS114_SPI.c:248
    2750:	7179                	addi	sp,sp,-48
    2752:	d606                	sw	ra,44(sp)
    2754:	d422                	sw	s0,40(sp)
    2756:	1800                	addi	s0,sp,48
    2758:	87aa                	mv	a5,a0
    275a:	fcf41f23          	sh	a5,-34(s0)
C:\Users\16917\Desktop\Dual-core_Communication_Demo\Dual-core_Communication_Demo\SLAVE\obj/../Libraries/seekfree_peripheral/SEEKFREE_IPS114_SPI.c:250
    275e:	08600693          	li	a3,134
    2762:	0ef00613          	li	a2,239
    2766:	4581                	li	a1,0
    2768:	4501                	li	a0,0
    276a:	37a5                	jal	26d2 <ips114_set_region>
C:\Users\16917\Desktop\Dual-core_Communication_Demo\Dual-core_Communication_Demo\SLAVE\obj/../Libraries/seekfree_peripheral/SEEKFREE_IPS114_SPI.c:251
    276c:	fe041723          	sh	zero,-18(s0)
    2770:	a805                	j	27a0 <ips114_clear+0x50>
C:\Users\16917\Desktop\Dual-core_Communication_Demo\Dual-core_Communication_Demo\SLAVE\obj/../Libraries/seekfree_peripheral/SEEKFREE_IPS114_SPI.c:253
    2772:	fe041623          	sh	zero,-20(s0)
    2776:	a811                	j	278a <ips114_clear+0x3a>
C:\Users\16917\Desktop\Dual-core_Communication_Demo\Dual-core_Communication_Demo\SLAVE\obj/../Libraries/seekfree_peripheral/SEEKFREE_IPS114_SPI.c:255 (discriminator 3)
    2778:	fde45783          	lhu	a5,-34(s0)
    277c:	853e                	mv	a0,a5
    277e:	3151                	jal	2402 <ips114_writedata_16bit>
C:\Users\16917\Desktop\Dual-core_Communication_Demo\Dual-core_Communication_Demo\SLAVE\obj/../Libraries/seekfree_peripheral/SEEKFREE_IPS114_SPI.c:253 (discriminator 3)
    2780:	fec45783          	lhu	a5,-20(s0)
    2784:	0785                	addi	a5,a5,1
    2786:	fef41623          	sh	a5,-20(s0)
C:\Users\16917\Desktop\Dual-core_Communication_Demo\Dual-core_Communication_Demo\SLAVE\obj/../Libraries/seekfree_peripheral/SEEKFREE_IPS114_SPI.c:253 (discriminator 1)
    278a:	fec45703          	lhu	a4,-20(s0)
    278e:	08600793          	li	a5,134
    2792:	fee7f3e3          	bgeu	a5,a4,2778 <ips114_clear+0x28>
C:\Users\16917\Desktop\Dual-core_Communication_Demo\Dual-core_Communication_Demo\SLAVE\obj/../Libraries/seekfree_peripheral/SEEKFREE_IPS114_SPI.c:251 (discriminator 2)
    2796:	fee45783          	lhu	a5,-18(s0)
    279a:	0785                	addi	a5,a5,1
    279c:	fef41723          	sh	a5,-18(s0)
C:\Users\16917\Desktop\Dual-core_Communication_Demo\Dual-core_Communication_Demo\SLAVE\obj/../Libraries/seekfree_peripheral/SEEKFREE_IPS114_SPI.c:251 (discriminator 1)
    27a0:	fee45703          	lhu	a4,-18(s0)
    27a4:	0ef00793          	li	a5,239
    27a8:	fce7f5e3          	bgeu	a5,a4,2772 <ips114_clear+0x22>
C:\Users\16917\Desktop\Dual-core_Communication_Demo\Dual-core_Communication_Demo\SLAVE\obj/../Libraries/seekfree_peripheral/SEEKFREE_IPS114_SPI.c:258
    27ac:	0001                	nop
    27ae:	50b2                	lw	ra,44(sp)
    27b0:	5422                	lw	s0,40(sp)
    27b2:	6145                	addi	sp,sp,48
    27b4:	8082                	ret

000027b6 <ips114_showchar>:
ips114_showchar():
C:\Users\16917\Desktop\Dual-core_Communication_Demo\Dual-core_Communication_Demo\SLAVE\obj/../Libraries/seekfree_peripheral/SEEKFREE_IPS114_SPI.c:287
    27b6:	7179                	addi	sp,sp,-48
    27b8:	d606                	sw	ra,44(sp)
    27ba:	d422                	sw	s0,40(sp)
    27bc:	1800                	addi	s0,sp,48
    27be:	87aa                	mv	a5,a0
    27c0:	86ae                	mv	a3,a1
    27c2:	8732                	mv	a4,a2
    27c4:	fcf41f23          	sh	a5,-34(s0)
    27c8:	87b6                	mv	a5,a3
    27ca:	fcf41e23          	sh	a5,-36(s0)
    27ce:	87ba                	mv	a5,a4
    27d0:	fcf40da3          	sb	a5,-37(s0)
C:\Users\16917\Desktop\Dual-core_Communication_Demo\Dual-core_Communication_Demo\SLAVE\obj/../Libraries/seekfree_peripheral/SEEKFREE_IPS114_SPI.c:291
    27d4:	fe0407a3          	sb	zero,-17(s0)
    27d8:	a075                	j	2884 <ips114_showchar+0xce>
C:\Users\16917\Desktop\Dual-core_Communication_Demo\Dual-core_Communication_Demo\SLAVE\obj/../Libraries/seekfree_peripheral/SEEKFREE_IPS114_SPI.c:293
    27da:	fef44783          	lbu	a5,-17(s0)
    27de:	01079713          	slli	a4,a5,0x10
    27e2:	8341                	srli	a4,a4,0x10
    27e4:	fdc45783          	lhu	a5,-36(s0)
    27e8:	97ba                	add	a5,a5,a4
    27ea:	01079593          	slli	a1,a5,0x10
    27ee:	81c1                	srli	a1,a1,0x10
    27f0:	fde45783          	lhu	a5,-34(s0)
    27f4:	079d                	addi	a5,a5,7
    27f6:	01079613          	slli	a2,a5,0x10
    27fa:	8241                	srli	a2,a2,0x10
    27fc:	fef44783          	lbu	a5,-17(s0)
    2800:	01079713          	slli	a4,a5,0x10
    2804:	8341                	srli	a4,a4,0x10
    2806:	fdc45783          	lhu	a5,-36(s0)
    280a:	97ba                	add	a5,a5,a4
    280c:	01079713          	slli	a4,a5,0x10
    2810:	8341                	srli	a4,a4,0x10
    2812:	fde45783          	lhu	a5,-34(s0)
    2816:	86ba                	mv	a3,a4
    2818:	853e                	mv	a0,a5
    281a:	3d65                	jal	26d2 <ips114_set_region>
C:\Users\16917\Desktop\Dual-core_Communication_Demo\Dual-core_Communication_Demo\SLAVE\obj/../Libraries/seekfree_peripheral/SEEKFREE_IPS114_SPI.c:294
    281c:	fdb40783          	lb	a5,-37(s0)
    2820:	fe078693          	addi	a3,a5,-32
    2824:	fef44783          	lbu	a5,-17(s0)
    2828:	6719                	lui	a4,0x6
    282a:	0692                	slli	a3,a3,0x4
    282c:	b0470713          	addi	a4,a4,-1276 # 5b04 <tft_ascii>
    2830:	9736                	add	a4,a4,a3
    2832:	97ba                	add	a5,a5,a4
    2834:	0007c783          	lbu	a5,0(a5)
    2838:	fef406a3          	sb	a5,-19(s0)
C:\Users\16917\Desktop\Dual-core_Communication_Demo\Dual-core_Communication_Demo\SLAVE\obj/../Libraries/seekfree_peripheral/SEEKFREE_IPS114_SPI.c:295
    283c:	fe040723          	sb	zero,-18(s0)
    2840:	a805                	j	2870 <ips114_showchar+0xba>
C:\Users\16917\Desktop\Dual-core_Communication_Demo\Dual-core_Communication_Demo\SLAVE\obj/../Libraries/seekfree_peripheral/SEEKFREE_IPS114_SPI.c:297
    2842:	fed44783          	lbu	a5,-19(s0)
    2846:	8b85                	andi	a5,a5,1
    2848:	c791                	beqz	a5,2854 <ips114_showchar+0x9e>
C:\Users\16917\Desktop\Dual-core_Communication_Demo\Dual-core_Communication_Demo\SLAVE\obj/../Libraries/seekfree_peripheral/SEEKFREE_IPS114_SPI.c:299
    284a:	67c1                	lui	a5,0x10
    284c:	80078513          	addi	a0,a5,-2048 # f800 <_data_lma+0x95b8>
    2850:	3e4d                	jal	2402 <ips114_writedata_16bit>
    2852:	a029                	j	285c <ips114_showchar+0xa6>
C:\Users\16917\Desktop\Dual-core_Communication_Demo\Dual-core_Communication_Demo\SLAVE\obj/../Libraries/seekfree_peripheral/SEEKFREE_IPS114_SPI.c:301
    2854:	67c1                	lui	a5,0x10
    2856:	fff78513          	addi	a0,a5,-1 # ffff <_data_lma+0x9db7>
    285a:	3665                	jal	2402 <ips114_writedata_16bit>
C:\Users\16917\Desktop\Dual-core_Communication_Demo\Dual-core_Communication_Demo\SLAVE\obj/../Libraries/seekfree_peripheral/SEEKFREE_IPS114_SPI.c:302 (discriminator 2)
    285c:	fed44783          	lbu	a5,-19(s0)
    2860:	8385                	srli	a5,a5,0x1
    2862:	fef406a3          	sb	a5,-19(s0)
C:\Users\16917\Desktop\Dual-core_Communication_Demo\Dual-core_Communication_Demo\SLAVE\obj/../Libraries/seekfree_peripheral/SEEKFREE_IPS114_SPI.c:295 (discriminator 2)
    2866:	fee44783          	lbu	a5,-18(s0)
    286a:	0785                	addi	a5,a5,1
    286c:	fef40723          	sb	a5,-18(s0)
C:\Users\16917\Desktop\Dual-core_Communication_Demo\Dual-core_Communication_Demo\SLAVE\obj/../Libraries/seekfree_peripheral/SEEKFREE_IPS114_SPI.c:295 (discriminator 1)
    2870:	fee44703          	lbu	a4,-18(s0)
    2874:	479d                	li	a5,7
    2876:	fce7f6e3          	bgeu	a5,a4,2842 <ips114_showchar+0x8c>
C:\Users\16917\Desktop\Dual-core_Communication_Demo\Dual-core_Communication_Demo\SLAVE\obj/../Libraries/seekfree_peripheral/SEEKFREE_IPS114_SPI.c:291 (discriminator 2)
    287a:	fef44783          	lbu	a5,-17(s0)
    287e:	0785                	addi	a5,a5,1
    2880:	fef407a3          	sb	a5,-17(s0)
C:\Users\16917\Desktop\Dual-core_Communication_Demo\Dual-core_Communication_Demo\SLAVE\obj/../Libraries/seekfree_peripheral/SEEKFREE_IPS114_SPI.c:291 (discriminator 1)
    2884:	fef44703          	lbu	a4,-17(s0)
    2888:	47bd                	li	a5,15
    288a:	f4e7f8e3          	bgeu	a5,a4,27da <ips114_showchar+0x24>
C:\Users\16917\Desktop\Dual-core_Communication_Demo\Dual-core_Communication_Demo\SLAVE\obj/../Libraries/seekfree_peripheral/SEEKFREE_IPS114_SPI.c:305
    288e:	0001                	nop
    2890:	50b2                	lw	ra,44(sp)
    2892:	5422                	lw	s0,40(sp)
    2894:	6145                	addi	sp,sp,48
    2896:	8082                	ret

00002898 <ips114_showint16>:
ips114_showint16():
C:\Users\16917\Desktop\Dual-core_Communication_Demo\Dual-core_Communication_Demo\SLAVE\obj/../Libraries/seekfree_peripheral/SEEKFREE_IPS114_SPI.c:395
    2898:	7179                	addi	sp,sp,-48
    289a:	d606                	sw	ra,44(sp)
    289c:	d422                	sw	s0,40(sp)
    289e:	1800                	addi	s0,sp,48
    28a0:	87aa                	mv	a5,a0
    28a2:	86ae                	mv	a3,a1
    28a4:	8732                	mv	a4,a2
    28a6:	fcf41f23          	sh	a5,-34(s0)
    28aa:	87b6                	mv	a5,a3
    28ac:	fcf41e23          	sh	a5,-36(s0)
    28b0:	87ba                	mv	a5,a4
    28b2:	fcf41d23          	sh	a5,-38(s0)
C:\Users\16917\Desktop\Dual-core_Communication_Demo\Dual-core_Communication_Demo\SLAVE\obj/../Libraries/seekfree_peripheral/SEEKFREE_IPS114_SPI.c:398
    28b6:	fda41783          	lh	a5,-38(s0)
    28ba:	0207d863          	bgez	a5,28ea <ips114_showint16+0x52>
C:\Users\16917\Desktop\Dual-core_Communication_Demo\Dual-core_Communication_Demo\SLAVE\obj/../Libraries/seekfree_peripheral/SEEKFREE_IPS114_SPI.c:400
    28be:	fdc45783          	lhu	a5,-36(s0)
    28c2:	0792                	slli	a5,a5,0x4
    28c4:	01079713          	slli	a4,a5,0x10
    28c8:	8341                	srli	a4,a4,0x10
    28ca:	fde45783          	lhu	a5,-34(s0)
    28ce:	02d00613          	li	a2,45
    28d2:	85ba                	mv	a1,a4
    28d4:	853e                	mv	a0,a5
    28d6:	35c5                	jal	27b6 <ips114_showchar>
C:\Users\16917\Desktop\Dual-core_Communication_Demo\Dual-core_Communication_Demo\SLAVE\obj/../Libraries/seekfree_peripheral/SEEKFREE_IPS114_SPI.c:401
    28d8:	fda45783          	lhu	a5,-38(s0)
    28dc:	40f007b3          	neg	a5,a5
    28e0:	07c2                	slli	a5,a5,0x10
    28e2:	83c1                	srli	a5,a5,0x10
    28e4:	fcf41d23          	sh	a5,-38(s0)
    28e8:	a831                	j	2904 <ips114_showint16+0x6c>
C:\Users\16917\Desktop\Dual-core_Communication_Demo\Dual-core_Communication_Demo\SLAVE\obj/../Libraries/seekfree_peripheral/SEEKFREE_IPS114_SPI.c:403
    28ea:	fdc45783          	lhu	a5,-36(s0)
    28ee:	0792                	slli	a5,a5,0x4
    28f0:	01079713          	slli	a4,a5,0x10
    28f4:	8341                	srli	a4,a4,0x10
    28f6:	fde45783          	lhu	a5,-34(s0)
    28fa:	02000613          	li	a2,32
    28fe:	85ba                	mv	a1,a4
    2900:	853e                	mv	a0,a5
    2902:	3d55                	jal	27b6 <ips114_showchar>
C:\Users\16917\Desktop\Dual-core_Communication_Demo\Dual-core_Communication_Demo\SLAVE\obj/../Libraries/seekfree_peripheral/SEEKFREE_IPS114_SPI.c:405
    2904:	fda41703          	lh	a4,-38(s0)
    2908:	6789                	lui	a5,0x2
    290a:	71078793          	addi	a5,a5,1808 # 2710 <ips114_set_region+0x3e>
    290e:	02f747b3          	div	a5,a4,a5
    2912:	07c2                	slli	a5,a5,0x10
    2914:	87c1                	srai	a5,a5,0x10
    2916:	0ff7f793          	andi	a5,a5,255
    291a:	fef40423          	sb	a5,-24(s0)
C:\Users\16917\Desktop\Dual-core_Communication_Demo\Dual-core_Communication_Demo\SLAVE\obj/../Libraries/seekfree_peripheral/SEEKFREE_IPS114_SPI.c:406
    291e:	fda41703          	lh	a4,-38(s0)
    2922:	3e800793          	li	a5,1000
    2926:	02f747b3          	div	a5,a4,a5
    292a:	01079713          	slli	a4,a5,0x10
    292e:	8741                	srai	a4,a4,0x10
    2930:	47a9                	li	a5,10
    2932:	02f767b3          	rem	a5,a4,a5
    2936:	07c2                	slli	a5,a5,0x10
    2938:	87c1                	srai	a5,a5,0x10
    293a:	0ff7f793          	andi	a5,a5,255
    293e:	fef404a3          	sb	a5,-23(s0)
C:\Users\16917\Desktop\Dual-core_Communication_Demo\Dual-core_Communication_Demo\SLAVE\obj/../Libraries/seekfree_peripheral/SEEKFREE_IPS114_SPI.c:407
    2942:	fda41703          	lh	a4,-38(s0)
    2946:	06400793          	li	a5,100
    294a:	02f747b3          	div	a5,a4,a5
    294e:	01079713          	slli	a4,a5,0x10
    2952:	8741                	srai	a4,a4,0x10
    2954:	47a9                	li	a5,10
    2956:	02f767b3          	rem	a5,a4,a5
    295a:	07c2                	slli	a5,a5,0x10
    295c:	87c1                	srai	a5,a5,0x10
    295e:	0ff7f793          	andi	a5,a5,255
    2962:	fef40523          	sb	a5,-22(s0)
C:\Users\16917\Desktop\Dual-core_Communication_Demo\Dual-core_Communication_Demo\SLAVE\obj/../Libraries/seekfree_peripheral/SEEKFREE_IPS114_SPI.c:408
    2966:	fda41703          	lh	a4,-38(s0)
    296a:	47a9                	li	a5,10
    296c:	02f747b3          	div	a5,a4,a5
    2970:	01079713          	slli	a4,a5,0x10
    2974:	8741                	srai	a4,a4,0x10
    2976:	47a9                	li	a5,10
    2978:	02f767b3          	rem	a5,a4,a5
    297c:	07c2                	slli	a5,a5,0x10
    297e:	87c1                	srai	a5,a5,0x10
    2980:	0ff7f793          	andi	a5,a5,255
    2984:	fef405a3          	sb	a5,-21(s0)
C:\Users\16917\Desktop\Dual-core_Communication_Demo\Dual-core_Communication_Demo\SLAVE\obj/../Libraries/seekfree_peripheral/SEEKFREE_IPS114_SPI.c:409
    2988:	fda41703          	lh	a4,-38(s0)
    298c:	47a9                	li	a5,10
    298e:	02f767b3          	rem	a5,a4,a5
    2992:	07c2                	slli	a5,a5,0x10
    2994:	87c1                	srai	a5,a5,0x10
    2996:	0ff7f793          	andi	a5,a5,255
    299a:	fef40623          	sb	a5,-20(s0)
C:\Users\16917\Desktop\Dual-core_Communication_Demo\Dual-core_Communication_Demo\SLAVE\obj/../Libraries/seekfree_peripheral/SEEKFREE_IPS114_SPI.c:411
    299e:	fe0407a3          	sb	zero,-17(s0)
C:\Users\16917\Desktop\Dual-core_Communication_Demo\Dual-core_Communication_Demo\SLAVE\obj/../Libraries/seekfree_peripheral/SEEKFREE_IPS114_SPI.c:412
    29a2:	a8a1                	j	29fa <ips114_showint16+0x162>
C:\Users\16917\Desktop\Dual-core_Communication_Demo\Dual-core_Communication_Demo\SLAVE\obj/../Libraries/seekfree_peripheral/SEEKFREE_IPS114_SPI.c:414
    29a4:	fef44783          	lbu	a5,-17(s0)
    29a8:	0785                	addi	a5,a5,1
    29aa:	07c2                	slli	a5,a5,0x10
    29ac:	83c1                	srli	a5,a5,0x10
    29ae:	078e                	slli	a5,a5,0x3
    29b0:	01079713          	slli	a4,a5,0x10
    29b4:	8341                	srli	a4,a4,0x10
    29b6:	fde45783          	lhu	a5,-34(s0)
    29ba:	97ba                	add	a5,a5,a4
    29bc:	01079713          	slli	a4,a5,0x10
    29c0:	8341                	srli	a4,a4,0x10
    29c2:	fdc45783          	lhu	a5,-36(s0)
    29c6:	0792                	slli	a5,a5,0x4
    29c8:	01079693          	slli	a3,a5,0x10
    29cc:	82c1                	srli	a3,a3,0x10
    29ce:	fef44783          	lbu	a5,-17(s0)
    29d2:	ff040613          	addi	a2,s0,-16
    29d6:	97b2                	add	a5,a5,a2
    29d8:	ff87c783          	lbu	a5,-8(a5)
    29dc:	03078793          	addi	a5,a5,48
    29e0:	0ff7f793          	andi	a5,a5,255
    29e4:	07e2                	slli	a5,a5,0x18
    29e6:	87e1                	srai	a5,a5,0x18
    29e8:	863e                	mv	a2,a5
    29ea:	85b6                	mv	a1,a3
    29ec:	853a                	mv	a0,a4
    29ee:	33e1                	jal	27b6 <ips114_showchar>
C:\Users\16917\Desktop\Dual-core_Communication_Demo\Dual-core_Communication_Demo\SLAVE\obj/../Libraries/seekfree_peripheral/SEEKFREE_IPS114_SPI.c:415
    29f0:	fef44783          	lbu	a5,-17(s0)
    29f4:	0785                	addi	a5,a5,1
    29f6:	fef407a3          	sb	a5,-17(s0)
C:\Users\16917\Desktop\Dual-core_Communication_Demo\Dual-core_Communication_Demo\SLAVE\obj/../Libraries/seekfree_peripheral/SEEKFREE_IPS114_SPI.c:412
    29fa:	fef44703          	lbu	a4,-17(s0)
    29fe:	4791                	li	a5,4
    2a00:	fae7f2e3          	bgeu	a5,a4,29a4 <ips114_showint16+0x10c>
C:\Users\16917\Desktop\Dual-core_Communication_Demo\Dual-core_Communication_Demo\SLAVE\obj/../Libraries/seekfree_peripheral/SEEKFREE_IPS114_SPI.c:417
    2a04:	0001                	nop
    2a06:	50b2                	lw	ra,44(sp)
    2a08:	5422                	lw	s0,40(sp)
    2a0a:	6145                	addi	sp,sp,48
    2a0c:	8082                	ret

00002a0e <ips114_displayimage032_zoom1>:
ips114_displayimage032_zoom1():
C:\Users\16917\Desktop\Dual-core_Communication_Demo\Dual-core_Communication_Demo\SLAVE\obj/../Libraries/seekfree_peripheral/SEEKFREE_IPS114_SPI.c:619
    2a0e:	7179                	addi	sp,sp,-48
    2a10:	d606                	sw	ra,44(sp)
    2a12:	d422                	sw	s0,40(sp)
    2a14:	1800                	addi	s0,sp,48
    2a16:	fca42e23          	sw	a0,-36(s0)
    2a1a:	88ae                	mv	a7,a1
    2a1c:	8532                	mv	a0,a2
    2a1e:	85b6                	mv	a1,a3
    2a20:	863a                	mv	a2,a4
    2a22:	86be                	mv	a3,a5
    2a24:	8742                	mv	a4,a6
    2a26:	87c6                	mv	a5,a7
    2a28:	fcf41d23          	sh	a5,-38(s0)
    2a2c:	87aa                	mv	a5,a0
    2a2e:	fcf41c23          	sh	a5,-40(s0)
    2a32:	87ae                	mv	a5,a1
    2a34:	fcf41b23          	sh	a5,-42(s0)
    2a38:	87b2                	mv	a5,a2
    2a3a:	fcf41a23          	sh	a5,-44(s0)
    2a3e:	87b6                	mv	a5,a3
    2a40:	fcf41923          	sh	a5,-46(s0)
    2a44:	87ba                	mv	a5,a4
    2a46:	fcf41823          	sh	a5,-48(s0)
C:\Users\16917\Desktop\Dual-core_Communication_Demo\Dual-core_Communication_Demo\SLAVE\obj/../Libraries/seekfree_peripheral/SEEKFREE_IPS114_SPI.c:622
    2a4a:	fe041323          	sh	zero,-26(s0)
C:\Users\16917\Desktop\Dual-core_Communication_Demo\Dual-core_Communication_Demo\SLAVE\obj/../Libraries/seekfree_peripheral/SEEKFREE_IPS114_SPI.c:623
    2a4e:	fe041223          	sh	zero,-28(s0)
C:\Users\16917\Desktop\Dual-core_Communication_Demo\Dual-core_Communication_Demo\SLAVE\obj/../Libraries/seekfree_peripheral/SEEKFREE_IPS114_SPI.c:626
    2a52:	fd645703          	lhu	a4,-42(s0)
    2a56:	fd245783          	lhu	a5,-46(s0)
    2a5a:	973e                	add	a4,a4,a5
    2a5c:	0f000793          	li	a5,240
    2a60:	00e7df63          	bge	a5,a4,2a7e <ips114_displayimage032_zoom1+0x70>
C:\Users\16917\Desktop\Dual-core_Communication_Demo\Dual-core_Communication_Demo\SLAVE\obj/../Libraries/seekfree_peripheral/SEEKFREE_IPS114_SPI.c:626 (discriminator 1)
    2a64:	6799                	lui	a5,0x6
    2a66:	a6478693          	addi	a3,a5,-1436 # 5a64 <_exit+0xa>
    2a6a:	6799                	lui	a5,0x6
    2a6c:	0f478613          	addi	a2,a5,244 # 60f4 <__func__.3381>
    2a70:	27200593          	li	a1,626
    2a74:	6799                	lui	a5,0x6
    2a76:	a6878513          	addi	a0,a5,-1432 # 5a68 <_exit+0xe>
    2a7a:	541010ef          	jal	ra,47ba <__assert_func>
C:\Users\16917\Desktop\Dual-core_Communication_Demo\Dual-core_Communication_Demo\SLAVE\obj/../Libraries/seekfree_peripheral/SEEKFREE_IPS114_SPI.c:627
    2a7e:	fd445703          	lhu	a4,-44(s0)
    2a82:	fd045783          	lhu	a5,-48(s0)
    2a86:	973e                	add	a4,a4,a5
    2a88:	08700793          	li	a5,135
    2a8c:	00e7df63          	bge	a5,a4,2aaa <ips114_displayimage032_zoom1+0x9c>
C:\Users\16917\Desktop\Dual-core_Communication_Demo\Dual-core_Communication_Demo\SLAVE\obj/../Libraries/seekfree_peripheral/SEEKFREE_IPS114_SPI.c:627 (discriminator 1)
    2a90:	6799                	lui	a5,0x6
    2a92:	a6478693          	addi	a3,a5,-1436 # 5a64 <_exit+0xa>
    2a96:	6799                	lui	a5,0x6
    2a98:	0f478613          	addi	a2,a5,244 # 60f4 <__func__.3381>
    2a9c:	27300593          	li	a1,627
    2aa0:	6799                	lui	a5,0x6
    2aa2:	a6878513          	addi	a0,a5,-1432 # 5a68 <_exit+0xe>
    2aa6:	515010ef          	jal	ra,47ba <__assert_func>
C:\Users\16917\Desktop\Dual-core_Communication_Demo\Dual-core_Communication_Demo\SLAVE\obj/../Libraries/seekfree_peripheral/SEEKFREE_IPS114_SPI.c:628
    2aaa:	fd645703          	lhu	a4,-42(s0)
    2aae:	fd245783          	lhu	a5,-46(s0)
    2ab2:	97ba                	add	a5,a5,a4
    2ab4:	07c2                	slli	a5,a5,0x10
    2ab6:	83c1                	srli	a5,a5,0x10
    2ab8:	17fd                	addi	a5,a5,-1
    2aba:	01079613          	slli	a2,a5,0x10
    2abe:	8241                	srli	a2,a2,0x10
    2ac0:	fd445703          	lhu	a4,-44(s0)
    2ac4:	fd045783          	lhu	a5,-48(s0)
    2ac8:	97ba                	add	a5,a5,a4
    2aca:	07c2                	slli	a5,a5,0x10
    2acc:	83c1                	srli	a5,a5,0x10
    2ace:	17fd                	addi	a5,a5,-1
    2ad0:	01079693          	slli	a3,a5,0x10
    2ad4:	82c1                	srli	a3,a3,0x10
    2ad6:	fd445703          	lhu	a4,-44(s0)
    2ada:	fd645783          	lhu	a5,-42(s0)
    2ade:	85ba                	mv	a1,a4
    2ae0:	853e                	mv	a0,a5
    2ae2:	3ec5                	jal	26d2 <ips114_set_region>
C:\Users\16917\Desktop\Dual-core_Communication_Demo\Dual-core_Communication_Demo\SLAVE\obj/../Libraries/seekfree_peripheral/SEEKFREE_IPS114_SPI.c:630
    2ae4:	fe042423          	sw	zero,-24(s0)
    2ae8:	a0d9                	j	2bae <ips114_displayimage032_zoom1+0x1a0>
C:\Users\16917\Desktop\Dual-core_Communication_Demo\Dual-core_Communication_Demo\SLAVE\obj/../Libraries/seekfree_peripheral/SEEKFREE_IPS114_SPI.c:632
    2aea:	fe042623          	sw	zero,-20(s0)
    2aee:	a06d                	j	2b98 <ips114_displayimage032_zoom1+0x18a>
C:\Users\16917\Desktop\Dual-core_Communication_Demo\Dual-core_Communication_Demo\SLAVE\obj/../Libraries/seekfree_peripheral/SEEKFREE_IPS114_SPI.c:634 (discriminator 3)
    2af0:	fd845703          	lhu	a4,-40(s0)
    2af4:	fe842783          	lw	a5,-24(s0)
    2af8:	02f70733          	mul	a4,a4,a5
    2afc:	fd045783          	lhu	a5,-48(s0)
    2b00:	02f75733          	divu	a4,a4,a5
    2b04:	fda45783          	lhu	a5,-38(s0)
    2b08:	02f70733          	mul	a4,a4,a5
    2b0c:	fda45683          	lhu	a3,-38(s0)
    2b10:	fec42783          	lw	a5,-20(s0)
    2b14:	02f686b3          	mul	a3,a3,a5
    2b18:	fd245783          	lhu	a5,-46(s0)
    2b1c:	02f6d7b3          	divu	a5,a3,a5
    2b20:	97ba                	add	a5,a5,a4
    2b22:	fdc42703          	lw	a4,-36(s0)
    2b26:	97ba                	add	a5,a5,a4
    2b28:	0007c783          	lbu	a5,0(a5)
    2b2c:	fef41223          	sh	a5,-28(s0)
C:\Users\16917\Desktop\Dual-core_Communication_Demo\Dual-core_Communication_Demo\SLAVE\obj/../Libraries/seekfree_peripheral/SEEKFREE_IPS114_SPI.c:635 (discriminator 3)
    2b30:	fe445783          	lhu	a5,-28(s0)
    2b34:	838d                	srli	a5,a5,0x3
    2b36:	07c2                	slli	a5,a5,0x10
    2b38:	83c1                	srli	a5,a5,0x10
    2b3a:	07ae                	slli	a5,a5,0xb
    2b3c:	fef41323          	sh	a5,-26(s0)
C:\Users\16917\Desktop\Dual-core_Communication_Demo\Dual-core_Communication_Demo\SLAVE\obj/../Libraries/seekfree_peripheral/SEEKFREE_IPS114_SPI.c:636 (discriminator 3)
    2b40:	fe445783          	lhu	a5,-28(s0)
    2b44:	8389                	srli	a5,a5,0x2
    2b46:	07c2                	slli	a5,a5,0x10
    2b48:	83c1                	srli	a5,a5,0x10
    2b4a:	0796                	slli	a5,a5,0x5
    2b4c:	07c2                	slli	a5,a5,0x10
    2b4e:	87c1                	srai	a5,a5,0x10
    2b50:	7e07f793          	andi	a5,a5,2016
    2b54:	01079713          	slli	a4,a5,0x10
    2b58:	8741                	srai	a4,a4,0x10
    2b5a:	fe641783          	lh	a5,-26(s0)
    2b5e:	8fd9                	or	a5,a5,a4
    2b60:	07c2                	slli	a5,a5,0x10
    2b62:	87c1                	srai	a5,a5,0x10
    2b64:	fef41323          	sh	a5,-26(s0)
C:\Users\16917\Desktop\Dual-core_Communication_Demo\Dual-core_Communication_Demo\SLAVE\obj/../Libraries/seekfree_peripheral/SEEKFREE_IPS114_SPI.c:637 (discriminator 3)
    2b68:	fe445783          	lhu	a5,-28(s0)
    2b6c:	838d                	srli	a5,a5,0x3
    2b6e:	07c2                	slli	a5,a5,0x10
    2b70:	83c1                	srli	a5,a5,0x10
    2b72:	8bfd                	andi	a5,a5,31
    2b74:	01079713          	slli	a4,a5,0x10
    2b78:	8341                	srli	a4,a4,0x10
    2b7a:	fe645783          	lhu	a5,-26(s0)
    2b7e:	8fd9                	or	a5,a5,a4
    2b80:	fef41323          	sh	a5,-26(s0)
C:\Users\16917\Desktop\Dual-core_Communication_Demo\Dual-core_Communication_Demo\SLAVE\obj/../Libraries/seekfree_peripheral/SEEKFREE_IPS114_SPI.c:638 (discriminator 3)
    2b84:	fe645783          	lhu	a5,-26(s0)
    2b88:	853e                	mv	a0,a5
    2b8a:	879ff0ef          	jal	ra,2402 <ips114_writedata_16bit>
C:\Users\16917\Desktop\Dual-core_Communication_Demo\Dual-core_Communication_Demo\SLAVE\obj/../Libraries/seekfree_peripheral/SEEKFREE_IPS114_SPI.c:632 (discriminator 3)
    2b8e:	fec42783          	lw	a5,-20(s0)
    2b92:	0785                	addi	a5,a5,1
    2b94:	fef42623          	sw	a5,-20(s0)
C:\Users\16917\Desktop\Dual-core_Communication_Demo\Dual-core_Communication_Demo\SLAVE\obj/../Libraries/seekfree_peripheral/SEEKFREE_IPS114_SPI.c:632 (discriminator 1)
    2b98:	fd245783          	lhu	a5,-46(s0)
    2b9c:	fec42703          	lw	a4,-20(s0)
    2ba0:	f4f768e3          	bltu	a4,a5,2af0 <ips114_displayimage032_zoom1+0xe2>
C:\Users\16917\Desktop\Dual-core_Communication_Demo\Dual-core_Communication_Demo\SLAVE\obj/../Libraries/seekfree_peripheral/SEEKFREE_IPS114_SPI.c:630 (discriminator 2)
    2ba4:	fe842783          	lw	a5,-24(s0)
    2ba8:	0785                	addi	a5,a5,1
    2baa:	fef42423          	sw	a5,-24(s0)
C:\Users\16917\Desktop\Dual-core_Communication_Demo\Dual-core_Communication_Demo\SLAVE\obj/../Libraries/seekfree_peripheral/SEEKFREE_IPS114_SPI.c:630 (discriminator 1)
    2bae:	fd045783          	lhu	a5,-48(s0)
    2bb2:	fe842703          	lw	a4,-24(s0)
    2bb6:	f2f76ae3          	bltu	a4,a5,2aea <ips114_displayimage032_zoom1+0xdc>
C:\Users\16917\Desktop\Dual-core_Communication_Demo\Dual-core_Communication_Demo\SLAVE\obj/../Libraries/seekfree_peripheral/SEEKFREE_IPS114_SPI.c:641
    2bba:	0001                	nop
    2bbc:	50b2                	lw	ra,44(sp)
    2bbe:	5422                	lw	s0,40(sp)
    2bc0:	6145                	addi	sp,sp,48
    2bc2:	8082                	ret

00002bc4 <mt9v03x_uart_callback>:
mt9v03x_uart_callback():
C:\Users\16917\Desktop\Dual-core_Communication_Demo\Dual-core_Communication_Demo\SLAVE\obj/../Libraries/seekfree_peripheral/SEEKFREE_MT9V03X.c:90
    2bc4:	1141                	addi	sp,sp,-16
    2bc6:	c622                	sw	s0,12(sp)
    2bc8:	0800                	addi	s0,sp,16
C:\Users\16917\Desktop\Dual-core_Communication_Demo\Dual-core_Communication_Demo\SLAVE\obj/../Libraries/seekfree_peripheral/SEEKFREE_MT9V03X.c:91
    2bca:	6799                	lui	a5,0x6
    2bcc:	15c78793          	addi	a5,a5,348 # 615c <UARTN>
    2bd0:	43dc                	lw	a5,4(a5)
    2bd2:	0047d783          	lhu	a5,4(a5)
    2bd6:	01079713          	slli	a4,a5,0x10
    2bda:	8341                	srli	a4,a4,0x10
    2bdc:	8331c783          	lbu	a5,-1997(gp) # 200000eb <receive_num>
    2be0:	86be                	mv	a3,a5
    2be2:	0ff77713          	andi	a4,a4,255
    2be6:	83018793          	addi	a5,gp,-2000 # 200000e8 <receive>
    2bea:	97b6                	add	a5,a5,a3
    2bec:	00e78023          	sb	a4,0(a5)
C:\Users\16917\Desktop\Dual-core_Communication_Demo\Dual-core_Communication_Demo\SLAVE\obj/../Libraries/seekfree_peripheral/SEEKFREE_MT9V03X.c:92
    2bf0:	8331c783          	lbu	a5,-1997(gp) # 200000eb <receive_num>
    2bf4:	0785                	addi	a5,a5,1
    2bf6:	0ff7f713          	andi	a4,a5,255
    2bfa:	82e189a3          	sb	a4,-1997(gp) # 200000eb <receive_num>
C:\Users\16917\Desktop\Dual-core_Communication_Demo\Dual-core_Communication_Demo\SLAVE\obj/../Libraries/seekfree_peripheral/SEEKFREE_MT9V03X.c:94
    2bfe:	8331c703          	lbu	a4,-1997(gp) # 200000eb <receive_num>
    2c02:	4785                	li	a5,1
    2c04:	00f71a63          	bne	a4,a5,2c18 <mt9v03x_uart_callback+0x54>
C:\Users\16917\Desktop\Dual-core_Communication_Demo\Dual-core_Communication_Demo\SLAVE\obj/../Libraries/seekfree_peripheral/SEEKFREE_MT9V03X.c:94 (discriminator 1)
    2c08:	8301c703          	lbu	a4,-2000(gp) # 200000e8 <receive>
    2c0c:	0a500793          	li	a5,165
    2c10:	00f70463          	beq	a4,a5,2c18 <mt9v03x_uart_callback+0x54>
C:\Users\16917\Desktop\Dual-core_Communication_Demo\Dual-core_Communication_Demo\SLAVE\obj/../Libraries/seekfree_peripheral/SEEKFREE_MT9V03X.c:94 (discriminator 2)
    2c14:	820189a3          	sb	zero,-1997(gp) # 200000eb <receive_num>
C:\Users\16917\Desktop\Dual-core_Communication_Demo\Dual-core_Communication_Demo\SLAVE\obj/../Libraries/seekfree_peripheral/SEEKFREE_MT9V03X.c:95
    2c18:	8331c703          	lbu	a4,-1997(gp) # 200000eb <receive_num>
    2c1c:	478d                	li	a5,3
    2c1e:	00f71763          	bne	a4,a5,2c2c <mt9v03x_uart_callback+0x68>
C:\Users\16917\Desktop\Dual-core_Communication_Demo\Dual-core_Communication_Demo\SLAVE\obj/../Libraries/seekfree_peripheral/SEEKFREE_MT9V03X.c:97
    2c22:	820189a3          	sb	zero,-1997(gp) # 200000eb <receive_num>
C:\Users\16917\Desktop\Dual-core_Communication_Demo\Dual-core_Communication_Demo\SLAVE\obj/../Libraries/seekfree_peripheral/SEEKFREE_MT9V03X.c:98
    2c26:	4705                	li	a4,1
    2c28:	82e18a23          	sb	a4,-1996(gp) # 200000ec <uart_receive_flag>
C:\Users\16917\Desktop\Dual-core_Communication_Demo\Dual-core_Communication_Demo\SLAVE\obj/../Libraries/seekfree_peripheral/SEEKFREE_MT9V03X.c:101
    2c2c:	0001                	nop
    2c2e:	4432                	lw	s0,12(sp)
    2c30:	0141                	addi	sp,sp,16
    2c32:	8082                	ret

00002c34 <set_config>:
set_config():
C:\Users\16917\Desktop\Dual-core_Communication_Demo\Dual-core_Communication_Demo\SLAVE\obj/../Libraries/seekfree_peripheral/SEEKFREE_MT9V03X.c:114
    2c34:	7179                	addi	sp,sp,-48
    2c36:	d606                	sw	ra,44(sp)
    2c38:	d422                	sw	s0,40(sp)
    2c3a:	d24a                	sw	s2,36(sp)
    2c3c:	d04e                	sw	s3,32(sp)
    2c3e:	1800                	addi	s0,sp,48
    2c40:	fca42e23          	sw	a0,-36(s0)
    2c44:	fcb42c23          	sw	a1,-40(s0)
C:\Users\16917\Desktop\Dual-core_Communication_Demo\Dual-core_Communication_Demo\SLAVE\obj/../Libraries/seekfree_peripheral/SEEKFREE_MT9V03X.c:118
    2c48:	82018a23          	sb	zero,-1996(gp) # 200000ec <uart_receive_flag>
C:\Users\16917\Desktop\Dual-core_Communication_Demo\Dual-core_Communication_Demo\SLAVE\obj/../Libraries/seekfree_peripheral/SEEKFREE_MT9V03X.c:122
    2c4c:	fe041723          	sh	zero,-18(s0)
    2c50:	a069                	j	2cda <set_config+0xa6>
C:\Users\16917\Desktop\Dual-core_Communication_Demo\Dual-core_Communication_Demo\SLAVE\obj/../Libraries/seekfree_peripheral/SEEKFREE_MT9V03X.c:124 (discriminator 3)
    2c52:	fa500793          	li	a5,-91
    2c56:	fef40423          	sb	a5,-24(s0)
C:\Users\16917\Desktop\Dual-core_Communication_Demo\Dual-core_Communication_Demo\SLAVE\obj/../Libraries/seekfree_peripheral/SEEKFREE_MT9V03X.c:125 (discriminator 3)
    2c5a:	fee45783          	lhu	a5,-18(s0)
    2c5e:	078a                	slli	a5,a5,0x2
    2c60:	fd842703          	lw	a4,-40(s0)
    2c64:	97ba                	add	a5,a5,a4
    2c66:	00079783          	lh	a5,0(a5)
    2c6a:	0ff7f793          	andi	a5,a5,255
    2c6e:	fef404a3          	sb	a5,-23(s0)
C:\Users\16917\Desktop\Dual-core_Communication_Demo\Dual-core_Communication_Demo\SLAVE\obj/../Libraries/seekfree_peripheral/SEEKFREE_MT9V03X.c:126 (discriminator 3)
    2c72:	fee45783          	lhu	a5,-18(s0)
    2c76:	078a                	slli	a5,a5,0x2
    2c78:	fd842703          	lw	a4,-40(s0)
    2c7c:	97ba                	add	a5,a5,a4
    2c7e:	00279783          	lh	a5,2(a5)
    2c82:	fef41623          	sh	a5,-20(s0)
C:\Users\16917\Desktop\Dual-core_Communication_Demo\Dual-core_Communication_Demo\SLAVE\obj/../Libraries/seekfree_peripheral/SEEKFREE_MT9V03X.c:127 (discriminator 3)
    2c86:	fec45783          	lhu	a5,-20(s0)
    2c8a:	83a1                	srli	a5,a5,0x8
    2c8c:	07c2                	slli	a5,a5,0x10
    2c8e:	83c1                	srli	a5,a5,0x10
    2c90:	0ff7f793          	andi	a5,a5,255
    2c94:	fef40523          	sb	a5,-22(s0)
C:\Users\16917\Desktop\Dual-core_Communication_Demo\Dual-core_Communication_Demo\SLAVE\obj/../Libraries/seekfree_peripheral/SEEKFREE_MT9V03X.c:128 (discriminator 3)
    2c98:	fec45783          	lhu	a5,-20(s0)
    2c9c:	0ff7f793          	andi	a5,a5,255
    2ca0:	fef405a3          	sb	a5,-21(s0)
C:\Users\16917\Desktop\Dual-core_Communication_Demo\Dual-core_Communication_Demo\SLAVE\obj/../Libraries/seekfree_peripheral/SEEKFREE_MT9V03X.c:130 (discriminator 3)
    2ca4:	fe840793          	addi	a5,s0,-24
    2ca8:	4611                	li	a2,4
    2caa:	85be                	mv	a1,a5
    2cac:	fdc42503          	lw	a0,-36(s0)
    2cb0:	4ec010ef          	jal	ra,419c <uart_putbuff>
C:\Users\16917\Desktop\Dual-core_Communication_Demo\Dual-core_Communication_Demo\SLAVE\obj/../Libraries/seekfree_peripheral/SEEKFREE_MT9V03X.c:131 (discriminator 3)
    2cb4:	8401a703          	lw	a4,-1984(gp) # 200000f8 <sys_clk>
    2cb8:	6789                	lui	a5,0x2
    2cba:	f4078793          	addi	a5,a5,-192 # 1f40 <USART_Init+0xfe>
    2cbe:	02f757b3          	divu	a5,a4,a5
    2cc2:	0786                	slli	a5,a5,0x1
    2cc4:	893e                	mv	s2,a5
    2cc6:	4981                	li	s3,0
    2cc8:	854a                	mv	a0,s2
    2cca:	85ce                	mv	a1,s3
    2ccc:	1f6010ef          	jal	ra,3ec2 <systick_delay>
C:\Users\16917\Desktop\Dual-core_Communication_Demo\Dual-core_Communication_Demo\SLAVE\obj/../Libraries/seekfree_peripheral/SEEKFREE_MT9V03X.c:122 (discriminator 3)
    2cd0:	fee45783          	lhu	a5,-18(s0)
    2cd4:	0785                	addi	a5,a5,1
    2cd6:	fef41723          	sh	a5,-18(s0)
C:\Users\16917\Desktop\Dual-core_Communication_Demo\Dual-core_Communication_Demo\SLAVE\obj/../Libraries/seekfree_peripheral/SEEKFREE_MT9V03X.c:122 (discriminator 1)
    2cda:	fee45703          	lhu	a4,-18(s0)
    2cde:	47a1                	li	a5,8
    2ce0:	f6e7f9e3          	bgeu	a5,a4,2c52 <set_config+0x1e>
C:\Users\16917\Desktop\Dual-core_Communication_Demo\Dual-core_Communication_Demo\SLAVE\obj/../Libraries/seekfree_peripheral/SEEKFREE_MT9V03X.c:134
    2ce4:	0001                	nop
C:\Users\16917\Desktop\Dual-core_Communication_Demo\Dual-core_Communication_Demo\SLAVE\obj/../Libraries/seekfree_peripheral/SEEKFREE_MT9V03X.c:134 (discriminator 1)
    2ce6:	8341c783          	lbu	a5,-1996(gp) # 200000ec <uart_receive_flag>
    2cea:	0ff7f793          	andi	a5,a5,255
    2cee:	dfe5                	beqz	a5,2ce6 <set_config+0xb2>
C:\Users\16917\Desktop\Dual-core_Communication_Demo\Dual-core_Communication_Demo\SLAVE\obj/../Libraries/seekfree_peripheral/SEEKFREE_MT9V03X.c:135
    2cf0:	82018a23          	sb	zero,-1996(gp) # 200000ec <uart_receive_flag>
C:\Users\16917\Desktop\Dual-core_Communication_Demo\Dual-core_Communication_Demo\SLAVE\obj/../Libraries/seekfree_peripheral/SEEKFREE_MT9V03X.c:136
    2cf4:	0001                	nop
C:\Users\16917\Desktop\Dual-core_Communication_Demo\Dual-core_Communication_Demo\SLAVE\obj/../Libraries/seekfree_peripheral/SEEKFREE_MT9V03X.c:136 (discriminator 3)
    2cf6:	83018793          	addi	a5,gp,-2000 # 200000e8 <receive>
    2cfa:	0017c703          	lbu	a4,1(a5)
    2cfe:	0ff00793          	li	a5,255
    2d02:	fef71ae3          	bne	a4,a5,2cf6 <set_config+0xc2>
C:\Users\16917\Desktop\Dual-core_Communication_Demo\Dual-core_Communication_Demo\SLAVE\obj/../Libraries/seekfree_peripheral/SEEKFREE_MT9V03X.c:136 (discriminator 2)
    2d06:	83018793          	addi	a5,gp,-2000 # 200000e8 <receive>
    2d0a:	0027c703          	lbu	a4,2(a5)
    2d0e:	0ff00793          	li	a5,255
    2d12:	fef712e3          	bne	a4,a5,2cf6 <set_config+0xc2>
C:\Users\16917\Desktop\Dual-core_Communication_Demo\Dual-core_Communication_Demo\SLAVE\obj/../Libraries/seekfree_peripheral/SEEKFREE_MT9V03X.c:139
    2d16:	0001                	nop
    2d18:	50b2                	lw	ra,44(sp)
    2d1a:	5422                	lw	s0,40(sp)
    2d1c:	5912                	lw	s2,36(sp)
    2d1e:	5982                	lw	s3,32(sp)
    2d20:	6145                	addi	sp,sp,48
    2d22:	8082                	ret

00002d24 <get_config>:
get_config():
C:\Users\16917\Desktop\Dual-core_Communication_Demo\Dual-core_Communication_Demo\SLAVE\obj/../Libraries/seekfree_peripheral/SEEKFREE_MT9V03X.c:151
    2d24:	7179                	addi	sp,sp,-48
    2d26:	d606                	sw	ra,44(sp)
    2d28:	d422                	sw	s0,40(sp)
    2d2a:	1800                	addi	s0,sp,48
    2d2c:	fca42e23          	sw	a0,-36(s0)
    2d30:	fcb42c23          	sw	a1,-40(s0)
C:\Users\16917\Desktop\Dual-core_Communication_Demo\Dual-core_Communication_Demo\SLAVE\obj/../Libraries/seekfree_peripheral/SEEKFREE_MT9V03X.c:155
    2d34:	fe041723          	sh	zero,-18(s0)
    2d38:	a045                	j	2dd8 <get_config+0xb4>
C:\Users\16917\Desktop\Dual-core_Communication_Demo\Dual-core_Communication_Demo\SLAVE\obj/../Libraries/seekfree_peripheral/SEEKFREE_MT9V03X.c:157
    2d3a:	fa500793          	li	a5,-91
    2d3e:	fef40423          	sb	a5,-24(s0)
C:\Users\16917\Desktop\Dual-core_Communication_Demo\Dual-core_Communication_Demo\SLAVE\obj/../Libraries/seekfree_peripheral/SEEKFREE_MT9V03X.c:158
    2d42:	57c5                	li	a5,-15
    2d44:	fef404a3          	sb	a5,-23(s0)
C:\Users\16917\Desktop\Dual-core_Communication_Demo\Dual-core_Communication_Demo\SLAVE\obj/../Libraries/seekfree_peripheral/SEEKFREE_MT9V03X.c:159
    2d48:	fee45783          	lhu	a5,-18(s0)
    2d4c:	078a                	slli	a5,a5,0x2
    2d4e:	fd842703          	lw	a4,-40(s0)
    2d52:	97ba                	add	a5,a5,a4
    2d54:	00079783          	lh	a5,0(a5)
    2d58:	fef41623          	sh	a5,-20(s0)
C:\Users\16917\Desktop\Dual-core_Communication_Demo\Dual-core_Communication_Demo\SLAVE\obj/../Libraries/seekfree_peripheral/SEEKFREE_MT9V03X.c:160
    2d5c:	fec45783          	lhu	a5,-20(s0)
    2d60:	83a1                	srli	a5,a5,0x8
    2d62:	07c2                	slli	a5,a5,0x10
    2d64:	83c1                	srli	a5,a5,0x10
    2d66:	0ff7f793          	andi	a5,a5,255
    2d6a:	fef40523          	sb	a5,-22(s0)
C:\Users\16917\Desktop\Dual-core_Communication_Demo\Dual-core_Communication_Demo\SLAVE\obj/../Libraries/seekfree_peripheral/SEEKFREE_MT9V03X.c:161
    2d6e:	fec45783          	lhu	a5,-20(s0)
    2d72:	0ff7f793          	andi	a5,a5,255
    2d76:	fef405a3          	sb	a5,-21(s0)
C:\Users\16917\Desktop\Dual-core_Communication_Demo\Dual-core_Communication_Demo\SLAVE\obj/../Libraries/seekfree_peripheral/SEEKFREE_MT9V03X.c:163
    2d7a:	fe840793          	addi	a5,s0,-24
    2d7e:	4611                	li	a2,4
    2d80:	85be                	mv	a1,a5
    2d82:	fdc42503          	lw	a0,-36(s0)
    2d86:	416010ef          	jal	ra,419c <uart_putbuff>
C:\Users\16917\Desktop\Dual-core_Communication_Demo\Dual-core_Communication_Demo\SLAVE\obj/../Libraries/seekfree_peripheral/SEEKFREE_MT9V03X.c:166
    2d8a:	0001                	nop
C:\Users\16917\Desktop\Dual-core_Communication_Demo\Dual-core_Communication_Demo\SLAVE\obj/../Libraries/seekfree_peripheral/SEEKFREE_MT9V03X.c:166 (discriminator 1)
    2d8c:	8341c783          	lbu	a5,-1996(gp) # 200000ec <uart_receive_flag>
    2d90:	0ff7f793          	andi	a5,a5,255
    2d94:	dfe5                	beqz	a5,2d8c <get_config+0x68>
C:\Users\16917\Desktop\Dual-core_Communication_Demo\Dual-core_Communication_Demo\SLAVE\obj/../Libraries/seekfree_peripheral/SEEKFREE_MT9V03X.c:167 (discriminator 2)
    2d96:	82018a23          	sb	zero,-1996(gp) # 200000ec <uart_receive_flag>
C:\Users\16917\Desktop\Dual-core_Communication_Demo\Dual-core_Communication_Demo\SLAVE\obj/../Libraries/seekfree_peripheral/SEEKFREE_MT9V03X.c:169 (discriminator 2)
    2d9a:	83018793          	addi	a5,gp,-2000 # 200000e8 <receive>
    2d9e:	0017c783          	lbu	a5,1(a5)
    2da2:	07a2                	slli	a5,a5,0x8
    2da4:	01079693          	slli	a3,a5,0x10
    2da8:	86c1                	srai	a3,a3,0x10
    2daa:	83018793          	addi	a5,gp,-2000 # 200000e8 <receive>
    2dae:	0027c783          	lbu	a5,2(a5)
    2db2:	01079713          	slli	a4,a5,0x10
    2db6:	8741                	srai	a4,a4,0x10
    2db8:	fee45783          	lhu	a5,-18(s0)
    2dbc:	078a                	slli	a5,a5,0x2
    2dbe:	fd842603          	lw	a2,-40(s0)
    2dc2:	97b2                	add	a5,a5,a2
    2dc4:	8f55                	or	a4,a4,a3
    2dc6:	0742                	slli	a4,a4,0x10
    2dc8:	8741                	srai	a4,a4,0x10
    2dca:	00e79123          	sh	a4,2(a5)
C:\Users\16917\Desktop\Dual-core_Communication_Demo\Dual-core_Communication_Demo\SLAVE\obj/../Libraries/seekfree_peripheral/SEEKFREE_MT9V03X.c:155 (discriminator 2)
    2dce:	fee45783          	lhu	a5,-18(s0)
    2dd2:	0785                	addi	a5,a5,1
    2dd4:	fef41723          	sh	a5,-18(s0)
C:\Users\16917\Desktop\Dual-core_Communication_Demo\Dual-core_Communication_Demo\SLAVE\obj/../Libraries/seekfree_peripheral/SEEKFREE_MT9V03X.c:155 (discriminator 1)
    2dd8:	fee45703          	lhu	a4,-18(s0)
    2ddc:	479d                	li	a5,7
    2dde:	f4e7fee3          	bgeu	a5,a4,2d3a <get_config+0x16>
C:\Users\16917\Desktop\Dual-core_Communication_Demo\Dual-core_Communication_Demo\SLAVE\obj/../Libraries/seekfree_peripheral/SEEKFREE_MT9V03X.c:171
    2de2:	0001                	nop
    2de4:	50b2                	lw	ra,44(sp)
    2de6:	5422                	lw	s0,40(sp)
    2de8:	6145                	addi	sp,sp,48
    2dea:	8082                	ret

00002dec <mt9v03x_vsync_init>:
mt9v03x_vsync_init():
C:\Users\16917\Desktop\Dual-core_Communication_Demo\Dual-core_Communication_Demo\SLAVE\obj/../Libraries/seekfree_peripheral/SEEKFREE_MT9V03X.c:281
    2dec:	1141                	addi	sp,sp,-16
    2dee:	c606                	sw	ra,12(sp)
    2df0:	c422                	sw	s0,8(sp)
    2df2:	0800                	addi	s0,sp,16
C:\Users\16917\Desktop\Dual-core_Communication_Demo\Dual-core_Communication_Demo\SLAVE\obj/../Libraries/seekfree_peripheral/SEEKFREE_MT9V03X.c:282
    2df4:	04800613          	li	a2,72
    2df8:	45b1                	li	a1,12
    2dfa:	4505                	li	a0,1
    2dfc:	2545                	jal	349c <gpio_interrupt_init>
C:\Users\16917\Desktop\Dual-core_Communication_Demo\Dual-core_Communication_Demo\SLAVE\obj/../Libraries/seekfree_peripheral/SEEKFREE_MT9V03X.c:283
    2dfe:	4685                	li	a3,1
    2e00:	4601                	li	a2,0
    2e02:	4585                	li	a1,1
    2e04:	455d                	li	a0,23
    2e06:	716000ef          	jal	ra,351c <nvic_init>
C:\Users\16917\Desktop\Dual-core_Communication_Demo\Dual-core_Communication_Demo\SLAVE\obj/../Libraries/seekfree_peripheral/SEEKFREE_MT9V03X.c:284
    2e0a:	0001                	nop
    2e0c:	40b2                	lw	ra,12(sp)
    2e0e:	4422                	lw	s0,8(sp)
    2e10:	0141                	addi	sp,sp,16
    2e12:	8082                	ret

00002e14 <mt9v03x_tim1_etr_init>:
mt9v03x_tim1_etr_init():
C:\Users\16917\Desktop\Dual-core_Communication_Demo\Dual-core_Communication_Demo\SLAVE\obj/../Libraries/seekfree_peripheral/SEEKFREE_MT9V03X.c:294
    2e14:	1141                	addi	sp,sp,-16
    2e16:	c606                	sw	ra,12(sp)
    2e18:	c422                	sw	s0,8(sp)
    2e1a:	0800                	addi	s0,sp,16
C:\Users\16917\Desktop\Dual-core_Communication_Demo\Dual-core_Communication_Demo\SLAVE\obj/../Libraries/seekfree_peripheral/SEEKFREE_MT9V03X.c:295
    2e1c:	45b1                	li	a1,12
    2e1e:	4501                	li	a0,0
    2e20:	2679                	jal	31ae <camera_tim_etr_init>
C:\Users\16917\Desktop\Dual-core_Communication_Demo\Dual-core_Communication_Demo\SLAVE\obj/../Libraries/seekfree_peripheral/SEEKFREE_MT9V03X.c:296
    2e22:	0001                	nop
    2e24:	40b2                	lw	ra,12(sp)
    2e26:	4422                	lw	s0,8(sp)
    2e28:	0141                	addi	sp,sp,16
    2e2a:	8082                	ret

00002e2c <mt9v03x_dma_init>:
mt9v03x_dma_init():
C:\Users\16917\Desktop\Dual-core_Communication_Demo\Dual-core_Communication_Demo\SLAVE\obj/../Libraries/seekfree_peripheral/SEEKFREE_MT9V03X.c:306
    2e2c:	1101                	addi	sp,sp,-32
    2e2e:	ce06                	sw	ra,28(sp)
    2e30:	cc22                	sw	s0,24(sp)
    2e32:	1000                	addi	s0,sp,32
C:\Users\16917\Desktop\Dual-core_Communication_Demo\Dual-core_Communication_Demo\SLAVE\obj/../Libraries/seekfree_peripheral/SEEKFREE_MT9V03X.c:311
    2e34:	04000793          	li	a5,64
    2e38:	fef40723          	sb	a5,-18(s0)
C:\Users\16917\Desktop\Dual-core_Communication_Demo\Dual-core_Communication_Demo\SLAVE\obj/../Libraries/seekfree_peripheral/SEEKFREE_MT9V03X.c:314
    2e3c:	479d                	li	a5,7
    2e3e:	fef407a3          	sb	a5,-17(s0)
    2e42:	a005                	j	2e62 <mt9v03x_dma_init+0x36>
C:\Users\16917\Desktop\Dual-core_Communication_Demo\Dual-core_Communication_Demo\SLAVE\obj/../Libraries/seekfree_peripheral/SEEKFREE_MT9V03X.c:316 (discriminator 3)
    2e44:	fef44703          	lbu	a4,-17(s0)
    2e48:	fee44783          	lbu	a5,-18(s0)
    2e4c:	97ba                	add	a5,a5,a4
    2e4e:	4691                	li	a3,4
    2e50:	4601                	li	a2,0
    2e52:	4581                	li	a1,0
    2e54:	853e                	mv	a0,a5
    2e56:	214d                	jal	32f8 <gpio_init>
C:\Users\16917\Desktop\Dual-core_Communication_Demo\Dual-core_Communication_Demo\SLAVE\obj/../Libraries/seekfree_peripheral/SEEKFREE_MT9V03X.c:314 (discriminator 3)
    2e58:	fef44783          	lbu	a5,-17(s0)
    2e5c:	17fd                	addi	a5,a5,-1
    2e5e:	fef407a3          	sb	a5,-17(s0)
C:\Users\16917\Desktop\Dual-core_Communication_Demo\Dual-core_Communication_Demo\SLAVE\obj/../Libraries/seekfree_peripheral/SEEKFREE_MT9V03X.c:314 (discriminator 1)
    2e62:	fef44783          	lbu	a5,-17(s0)
    2e66:	fff9                	bnez	a5,2e44 <mt9v03x_dma_init+0x18>
C:\Users\16917\Desktop\Dual-core_Communication_Demo\Dual-core_Communication_Demo\SLAVE\obj/../Libraries/seekfree_peripheral/SEEKFREE_MT9V03X.c:321
    2e68:	8441a783          	lw	a5,-1980(gp) # 200000fc <camera_buffer_addr>
    2e6c:	873e                	mv	a4,a5
    2e6e:	6789                	lui	a5,0x2
    2e70:	4b878693          	addi	a3,a5,1208 # 24b8 <ips114_init+0x46>
    2e74:	863a                	mv	a2,a4
    2e76:	400117b7          	lui	a5,0x40011
    2e7a:	00878593          	addi	a1,a5,8 # 40011008 <_eusrstack+0x2000c008>
    2e7e:	400207b7          	lui	a5,0x40020
    2e82:	04478513          	addi	a0,a5,68 # 40020044 <_eusrstack+0x2001b044>
    2e86:	22f9                	jal	3054 <camera_dma_init>
C:\Users\16917\Desktop\Dual-core_Communication_Demo\Dual-core_Communication_Demo\SLAVE\obj/../Libraries/seekfree_peripheral/SEEKFREE_MT9V03X.c:322
    2e88:	4685                	li	a3,1
    2e8a:	4601                	li	a2,0
    2e8c:	4581                	li	a1,0
    2e8e:	4579                	li	a0,30
    2e90:	2571                	jal	351c <nvic_init>
C:\Users\16917\Desktop\Dual-core_Communication_Demo\Dual-core_Communication_Demo\SLAVE\obj/../Libraries/seekfree_peripheral/SEEKFREE_MT9V03X.c:323
    2e92:	0001                	nop
    2e94:	40f2                	lw	ra,28(sp)
    2e96:	4462                	lw	s0,24(sp)
    2e98:	6105                	addi	sp,sp,32
    2e9a:	8082                	ret

00002e9c <mt9v03x_init>:
mt9v03x_init():
C:\Users\16917\Desktop\Dual-core_Communication_Demo\Dual-core_Communication_Demo\SLAVE\obj/../Libraries/seekfree_peripheral/SEEKFREE_MT9V03X.c:334
    2e9c:	1141                	addi	sp,sp,-16
    2e9e:	c606                	sw	ra,12(sp)
    2ea0:	c422                	sw	s0,8(sp)
    2ea2:	0800                	addi	s0,sp,16
C:\Users\16917\Desktop\Dual-core_Communication_Demo\Dual-core_Communication_Demo\SLAVE\obj/../Libraries/seekfree_peripheral/SEEKFREE_MT9V03X.c:336
    2ea4:	200007b7          	lui	a5,0x20000
    2ea8:	4705                	li	a4,1
    2eaa:	0ae7ae23          	sw	a4,188(a5) # 200000bc <camera_type>
C:\Users\16917\Desktop\Dual-core_Communication_Demo\Dual-core_Communication_Demo\SLAVE\obj/../Libraries/seekfree_peripheral/SEEKFREE_MT9V03X.c:337
    2eae:	20000737          	lui	a4,0x20000
    2eb2:	12470713          	addi	a4,a4,292 # 20000124 <mt9v03x_image>
    2eb6:	84e1a223          	sw	a4,-1980(gp) # 200000fc <camera_buffer_addr>
C:\Users\16917\Desktop\Dual-core_Communication_Demo\Dual-core_Communication_Demo\SLAVE\obj/../Libraries/seekfree_peripheral/SEEKFREE_MT9V03X.c:339
    2eba:	46c5                	li	a3,17
    2ebc:	4641                	li	a2,16
    2ebe:	6789                	lui	a5,0x2
    2ec0:	58078593          	addi	a1,a5,1408 # 2580 <ips114_init+0x10e>
    2ec4:	4505                	li	a0,1
    2ec6:	17c010ef          	jal	ra,4042 <uart_init>
C:\Users\16917\Desktop\Dual-core_Communication_Demo\Dual-core_Communication_Demo\SLAVE\obj/../Libraries/seekfree_peripheral/SEEKFREE_MT9V03X.c:340
    2eca:	4585                	li	a1,1
    2ecc:	4505                	li	a0,1
    2ece:	314010ef          	jal	ra,41e2 <uart_rx_irq>
C:\Users\16917\Desktop\Dual-core_Communication_Demo\Dual-core_Communication_Demo\SLAVE\obj/../Libraries/seekfree_peripheral/SEEKFREE_MT9V03X.c:341
    2ed2:	4501                	li	a0,0
    2ed4:	78e000ef          	jal	ra,3662 <EnableGlobalIRQ>
C:\Users\16917\Desktop\Dual-core_Communication_Demo\Dual-core_Communication_Demo\SLAVE\obj/../Libraries/seekfree_peripheral/SEEKFREE_MT9V03X.c:344
    2ed8:	82018a23          	sb	zero,-1996(gp) # 200000ec <uart_receive_flag>
C:\Users\16917\Desktop\Dual-core_Communication_Demo\Dual-core_Communication_Demo\SLAVE\obj/../Libraries/seekfree_peripheral/SEEKFREE_MT9V03X.c:347
    2edc:	200007b7          	lui	a5,0x20000
    2ee0:	03478593          	addi	a1,a5,52 # 20000034 <GET_CFG>
    2ee4:	4505                	li	a0,1
    2ee6:	3d3d                	jal	2d24 <get_config>
C:\Users\16917\Desktop\Dual-core_Communication_Demo\Dual-core_Communication_Demo\SLAVE\obj/../Libraries/seekfree_peripheral/SEEKFREE_MT9V03X.c:349
    2ee8:	82018a23          	sb	zero,-1996(gp) # 200000ec <uart_receive_flag>
C:\Users\16917\Desktop\Dual-core_Communication_Demo\Dual-core_Communication_Demo\SLAVE\obj/../Libraries/seekfree_peripheral/SEEKFREE_MT9V03X.c:350
    2eec:	200007b7          	lui	a5,0x20000
    2ef0:	01078593          	addi	a1,a5,16 # 20000010 <MT9V03X_CFG>
    2ef4:	4505                	li	a0,1
    2ef6:	3b3d                	jal	2c34 <set_config>
C:\Users\16917\Desktop\Dual-core_Communication_Demo\Dual-core_Communication_Demo\SLAVE\obj/../Libraries/seekfree_peripheral/SEEKFREE_MT9V03X.c:352
    2ef8:	82018a23          	sb	zero,-1996(gp) # 200000ec <uart_receive_flag>
C:\Users\16917\Desktop\Dual-core_Communication_Demo\Dual-core_Communication_Demo\SLAVE\obj/../Libraries/seekfree_peripheral/SEEKFREE_MT9V03X.c:354
    2efc:	200007b7          	lui	a5,0x20000
    2f00:	03478593          	addi	a1,a5,52 # 20000034 <GET_CFG>
    2f04:	4505                	li	a0,1
    2f06:	3d39                	jal	2d24 <get_config>
C:\Users\16917\Desktop\Dual-core_Communication_Demo\Dual-core_Communication_Demo\SLAVE\obj/../Libraries/seekfree_peripheral/SEEKFREE_MT9V03X.c:356
    2f08:	712000ef          	jal	ra,361a <DisableGlobalIRQ>
C:\Users\16917\Desktop\Dual-core_Communication_Demo\Dual-core_Communication_Demo\SLAVE\obj/../Libraries/seekfree_peripheral/SEEKFREE_MT9V03X.c:359
    2f0c:	3705                	jal	2e2c <mt9v03x_dma_init>
C:\Users\16917\Desktop\Dual-core_Communication_Demo\Dual-core_Communication_Demo\SLAVE\obj/../Libraries/seekfree_peripheral/SEEKFREE_MT9V03X.c:361
    2f0e:	3719                	jal	2e14 <mt9v03x_tim1_etr_init>
C:\Users\16917\Desktop\Dual-core_Communication_Demo\Dual-core_Communication_Demo\SLAVE\obj/../Libraries/seekfree_peripheral/SEEKFREE_MT9V03X.c:363
    2f10:	3df1                	jal	2dec <mt9v03x_vsync_init>
C:\Users\16917\Desktop\Dual-core_Communication_Demo\Dual-core_Communication_Demo\SLAVE\obj/../Libraries/seekfree_peripheral/SEEKFREE_MT9V03X.c:364
    2f12:	0001                	nop
    2f14:	40b2                	lw	ra,12(sp)
    2f16:	4422                	lw	s0,8(sp)
    2f18:	0141                	addi	sp,sp,16
    2f1a:	8082                	ret

00002f1c <mt9v03x_vsync>:
mt9v03x_vsync():
C:\Users\16917\Desktop\Dual-core_Communication_Demo\Dual-core_Communication_Demo\SLAVE\obj/../Libraries/seekfree_peripheral/SEEKFREE_MT9V03X.c:376
    2f1c:	1141                	addi	sp,sp,-16
    2f1e:	c622                	sw	s0,12(sp)
    2f20:	0800                	addi	s0,sp,16
C:\Users\16917\Desktop\Dual-core_Communication_Demo\Dual-core_Communication_Demo\SLAVE\obj/../Libraries/seekfree_peripheral/SEEKFREE_MT9V03X.c:377
    2f22:	400207b7          	lui	a5,0x40020
    2f26:	04478793          	addi	a5,a5,68 # 40020044 <_eusrstack+0x2001b044>
    2f2a:	6709                	lui	a4,0x2
    2f2c:	4b870713          	addi	a4,a4,1208 # 24b8 <ips114_init+0x46>
    2f30:	c3d8                	sw	a4,4(a5)
C:\Users\16917\Desktop\Dual-core_Communication_Demo\Dual-core_Communication_Demo\SLAVE\obj/../Libraries/seekfree_peripheral/SEEKFREE_MT9V03X.c:378
    2f32:	400207b7          	lui	a5,0x40020
    2f36:	04478793          	addi	a5,a5,68 # 40020044 <_eusrstack+0x2001b044>
    2f3a:	4398                	lw	a4,0(a5)
    2f3c:	400207b7          	lui	a5,0x40020
    2f40:	04478793          	addi	a5,a5,68 # 40020044 <_eusrstack+0x2001b044>
    2f44:	00176713          	ori	a4,a4,1
    2f48:	c398                	sw	a4,0(a5)
C:\Users\16917\Desktop\Dual-core_Communication_Demo\Dual-core_Communication_Demo\SLAVE\obj/../Libraries/seekfree_peripheral/SEEKFREE_MT9V03X.c:379
    2f4a:	0001                	nop
    2f4c:	4432                	lw	s0,12(sp)
    2f4e:	0141                	addi	sp,sp,16
    2f50:	8082                	ret

00002f52 <mt9v03x_dma>:
mt9v03x_dma():
C:\Users\16917\Desktop\Dual-core_Communication_Demo\Dual-core_Communication_Demo\SLAVE\obj/../Libraries/seekfree_peripheral/SEEKFREE_MT9V03X.c:389
    2f52:	1141                	addi	sp,sp,-16
    2f54:	c622                	sw	s0,12(sp)
    2f56:	0800                	addi	s0,sp,16
C:\Users\16917\Desktop\Dual-core_Communication_Demo\Dual-core_Communication_Demo\SLAVE\obj/../Libraries/seekfree_peripheral/SEEKFREE_MT9V03X.c:390
    2f58:	4705                	li	a4,1
    2f5a:	82e18aa3          	sb	a4,-1995(gp) # 200000ed <mt9v03x_finish_flag>
C:\Users\16917\Desktop\Dual-core_Communication_Demo\Dual-core_Communication_Demo\SLAVE\obj/../Libraries/seekfree_peripheral/SEEKFREE_MT9V03X.c:391
    2f5e:	400207b7          	lui	a5,0x40020
    2f62:	04478793          	addi	a5,a5,68 # 40020044 <_eusrstack+0x2001b044>
    2f66:	4394                	lw	a3,0(a5)
    2f68:	400207b7          	lui	a5,0x40020
    2f6c:	04478793          	addi	a5,a5,68 # 40020044 <_eusrstack+0x2001b044>
    2f70:	6741                	lui	a4,0x10
    2f72:	1779                	addi	a4,a4,-2
    2f74:	8f75                	and	a4,a4,a3
    2f76:	c398                	sw	a4,0(a5)
C:\Users\16917\Desktop\Dual-core_Communication_Demo\Dual-core_Communication_Demo\SLAVE\obj/../Libraries/seekfree_peripheral/SEEKFREE_MT9V03X.c:392
    2f78:	0001                	nop
    2f7a:	4432                	lw	s0,12(sp)
    2f7c:	0141                	addi	sp,sp,16
    2f7e:	8082                	ret

00002f80 <ov7725_cof_uart_interrupt>:
ov7725_cof_uart_interrupt():
C:\Users\16917\Desktop\Dual-core_Communication_Demo\Dual-core_Communication_Demo\SLAVE\obj/../Libraries/seekfree_peripheral/SEEKFREE_UART_7725.c:81
    2f80:	1141                	addi	sp,sp,-16
    2f82:	c622                	sw	s0,12(sp)
    2f84:	0800                	addi	s0,sp,16
C:\Users\16917\Desktop\Dual-core_Communication_Demo\Dual-core_Communication_Demo\SLAVE\obj/../Libraries/seekfree_peripheral/SEEKFREE_UART_7725.c:83
    2f86:	6799                	lui	a5,0x6
    2f88:	15c78793          	addi	a5,a5,348 # 615c <UARTN>
    2f8c:	43dc                	lw	a5,4(a5)
    2f8e:	0047d783          	lhu	a5,4(a5)
    2f92:	01079713          	slli	a4,a5,0x10
    2f96:	8341                	srli	a4,a4,0x10
    2f98:	83b1c783          	lbu	a5,-1989(gp) # 200000f3 <ov7725_uart_receive_num>
    2f9c:	86be                	mv	a3,a5
    2f9e:	0ff77713          	andi	a4,a4,255
    2fa2:	83818793          	addi	a5,gp,-1992 # 200000f0 <ov7725_uart_receive>
    2fa6:	97b6                	add	a5,a5,a3
    2fa8:	00e78023          	sb	a4,0(a5)
C:\Users\16917\Desktop\Dual-core_Communication_Demo\Dual-core_Communication_Demo\SLAVE\obj/../Libraries/seekfree_peripheral/SEEKFREE_UART_7725.c:84
    2fac:	83b1c783          	lbu	a5,-1989(gp) # 200000f3 <ov7725_uart_receive_num>
    2fb0:	0785                	addi	a5,a5,1
    2fb2:	0ff7f713          	andi	a4,a5,255
    2fb6:	82e18da3          	sb	a4,-1989(gp) # 200000f3 <ov7725_uart_receive_num>
C:\Users\16917\Desktop\Dual-core_Communication_Demo\Dual-core_Communication_Demo\SLAVE\obj/../Libraries/seekfree_peripheral/SEEKFREE_UART_7725.c:86
    2fba:	83b1c703          	lbu	a4,-1989(gp) # 200000f3 <ov7725_uart_receive_num>
    2fbe:	4785                	li	a5,1
    2fc0:	00f71a63          	bne	a4,a5,2fd4 <ov7725_cof_uart_interrupt+0x54>
C:\Users\16917\Desktop\Dual-core_Communication_Demo\Dual-core_Communication_Demo\SLAVE\obj/../Libraries/seekfree_peripheral/SEEKFREE_UART_7725.c:86 (discriminator 1)
    2fc4:	8381c703          	lbu	a4,-1992(gp) # 200000f0 <ov7725_uart_receive>
    2fc8:	0a500793          	li	a5,165
    2fcc:	00f70463          	beq	a4,a5,2fd4 <ov7725_cof_uart_interrupt+0x54>
C:\Users\16917\Desktop\Dual-core_Communication_Demo\Dual-core_Communication_Demo\SLAVE\obj/../Libraries/seekfree_peripheral/SEEKFREE_UART_7725.c:86 (discriminator 2)
    2fd0:	82018da3          	sb	zero,-1989(gp) # 200000f3 <ov7725_uart_receive_num>
C:\Users\16917\Desktop\Dual-core_Communication_Demo\Dual-core_Communication_Demo\SLAVE\obj/../Libraries/seekfree_peripheral/SEEKFREE_UART_7725.c:87
    2fd4:	83b1c703          	lbu	a4,-1989(gp) # 200000f3 <ov7725_uart_receive_num>
    2fd8:	478d                	li	a5,3
    2fda:	00f71763          	bne	a4,a5,2fe8 <ov7725_cof_uart_interrupt+0x68>
C:\Users\16917\Desktop\Dual-core_Communication_Demo\Dual-core_Communication_Demo\SLAVE\obj/../Libraries/seekfree_peripheral/SEEKFREE_UART_7725.c:89
    2fde:	82018da3          	sb	zero,-1989(gp) # 200000f3 <ov7725_uart_receive_num>
C:\Users\16917\Desktop\Dual-core_Communication_Demo\Dual-core_Communication_Demo\SLAVE\obj/../Libraries/seekfree_peripheral/SEEKFREE_UART_7725.c:90
    2fe2:	4705                	li	a4,1
    2fe4:	82e18e23          	sb	a4,-1988(gp) # 200000f4 <ov7725_uart_receive_flag>
C:\Users\16917\Desktop\Dual-core_Communication_Demo\Dual-core_Communication_Demo\SLAVE\obj/../Libraries/seekfree_peripheral/SEEKFREE_UART_7725.c:92
    2fe8:	0001                	nop
    2fea:	4432                	lw	s0,12(sp)
    2fec:	0141                	addi	sp,sp,16
    2fee:	8082                	ret

00002ff0 <ov7725_uart_vsync>:
ov7725_uart_vsync():
C:\Users\16917\Desktop\Dual-core_Communication_Demo\Dual-core_Communication_Demo\SLAVE\obj/../Libraries/seekfree_peripheral/SEEKFREE_UART_7725.c:103
    2ff0:	1141                	addi	sp,sp,-16
    2ff2:	c622                	sw	s0,12(sp)
    2ff4:	0800                	addi	s0,sp,16
C:\Users\16917\Desktop\Dual-core_Communication_Demo\Dual-core_Communication_Demo\SLAVE\obj/../Libraries/seekfree_peripheral/SEEKFREE_UART_7725.c:104
    2ff6:	400207b7          	lui	a5,0x40020
    2ffa:	04478793          	addi	a5,a5,68 # 40020044 <_eusrstack+0x2001b044>
    2ffe:	6705                	lui	a4,0x1
    3000:	96070713          	addi	a4,a4,-1696 # 960 <DMA_DeInit+0x8e>
    3004:	c3d8                	sw	a4,4(a5)
C:\Users\16917\Desktop\Dual-core_Communication_Demo\Dual-core_Communication_Demo\SLAVE\obj/../Libraries/seekfree_peripheral/SEEKFREE_UART_7725.c:105
    3006:	400207b7          	lui	a5,0x40020
    300a:	04478793          	addi	a5,a5,68 # 40020044 <_eusrstack+0x2001b044>
    300e:	4398                	lw	a4,0(a5)
    3010:	400207b7          	lui	a5,0x40020
    3014:	04478793          	addi	a5,a5,68 # 40020044 <_eusrstack+0x2001b044>
    3018:	00176713          	ori	a4,a4,1
    301c:	c398                	sw	a4,0(a5)
C:\Users\16917\Desktop\Dual-core_Communication_Demo\Dual-core_Communication_Demo\SLAVE\obj/../Libraries/seekfree_peripheral/SEEKFREE_UART_7725.c:106
    301e:	0001                	nop
    3020:	4432                	lw	s0,12(sp)
    3022:	0141                	addi	sp,sp,16
    3024:	8082                	ret

00003026 <ov7725_uart_dma>:
ov7725_uart_dma():
C:\Users\16917\Desktop\Dual-core_Communication_Demo\Dual-core_Communication_Demo\SLAVE\obj/../Libraries/seekfree_peripheral/SEEKFREE_UART_7725.c:117
    3026:	1141                	addi	sp,sp,-16
    3028:	c622                	sw	s0,12(sp)
    302a:	0800                	addi	s0,sp,16
C:\Users\16917\Desktop\Dual-core_Communication_Demo\Dual-core_Communication_Demo\SLAVE\obj/../Libraries/seekfree_peripheral/SEEKFREE_UART_7725.c:118
    302c:	4705                	li	a4,1
    302e:	82e18ea3          	sb	a4,-1987(gp) # 200000f5 <ov7725_uart_finish_flag>
C:\Users\16917\Desktop\Dual-core_Communication_Demo\Dual-core_Communication_Demo\SLAVE\obj/../Libraries/seekfree_peripheral/SEEKFREE_UART_7725.c:119
    3032:	400207b7          	lui	a5,0x40020
    3036:	04478793          	addi	a5,a5,68 # 40020044 <_eusrstack+0x2001b044>
    303a:	4394                	lw	a3,0(a5)
    303c:	400207b7          	lui	a5,0x40020
    3040:	04478793          	addi	a5,a5,68 # 40020044 <_eusrstack+0x2001b044>
    3044:	6741                	lui	a4,0x10
    3046:	1779                	addi	a4,a4,-2
    3048:	8f75                	and	a4,a4,a3
    304a:	c398                	sw	a4,0(a5)
C:\Users\16917\Desktop\Dual-core_Communication_Demo\Dual-core_Communication_Demo\SLAVE\obj/../Libraries/seekfree_peripheral/SEEKFREE_UART_7725.c:120
    304c:	0001                	nop
    304e:	4432                	lw	s0,12(sp)
    3050:	0141                	addi	sp,sp,16
    3052:	8082                	ret

00003054 <camera_dma_init>:
camera_dma_init():
C:\Users\16917\Desktop\Dual-core_Communication_Demo\Dual-core_Communication_Demo\SLAVE\obj/../Libraries/seekfree_libraries/zf_camera.c:38
    3054:	715d                	addi	sp,sp,-80
    3056:	c686                	sw	ra,76(sp)
    3058:	c4a2                	sw	s0,72(sp)
    305a:	0880                	addi	s0,sp,80
    305c:	faa42e23          	sw	a0,-68(s0)
    3060:	fab42c23          	sw	a1,-72(s0)
    3064:	fac42a23          	sw	a2,-76(s0)
    3068:	fad42823          	sw	a3,-80(s0)
C:\Users\16917\Desktop\Dual-core_Communication_Demo\Dual-core_Communication_Demo\SLAVE\obj/../Libraries/seekfree_libraries/zf_camera.c:41
    306c:	fbc42703          	lw	a4,-68(s0)
    3070:	400207b7          	lui	a5,0x40020
    3074:	07a1                	addi	a5,a5,8
    3076:	06f70163          	beq	a4,a5,30d8 <camera_dma_init+0x84>
C:\Users\16917\Desktop\Dual-core_Communication_Demo\Dual-core_Communication_Demo\SLAVE\obj/../Libraries/seekfree_libraries/zf_camera.c:41 (discriminator 1)
    307a:	fbc42703          	lw	a4,-68(s0)
    307e:	400207b7          	lui	a5,0x40020
    3082:	07f1                	addi	a5,a5,28
    3084:	04f70a63          	beq	a4,a5,30d8 <camera_dma_init+0x84>
C:\Users\16917\Desktop\Dual-core_Communication_Demo\Dual-core_Communication_Demo\SLAVE\obj/../Libraries/seekfree_libraries/zf_camera.c:41 (discriminator 2)
    3088:	fbc42703          	lw	a4,-68(s0)
    308c:	400207b7          	lui	a5,0x40020
    3090:	03078793          	addi	a5,a5,48 # 40020030 <_eusrstack+0x2001b030>
    3094:	04f70263          	beq	a4,a5,30d8 <camera_dma_init+0x84>
C:\Users\16917\Desktop\Dual-core_Communication_Demo\Dual-core_Communication_Demo\SLAVE\obj/../Libraries/seekfree_libraries/zf_camera.c:41 (discriminator 3)
    3098:	fbc42703          	lw	a4,-68(s0)
    309c:	400207b7          	lui	a5,0x40020
    30a0:	04478793          	addi	a5,a5,68 # 40020044 <_eusrstack+0x2001b044>
    30a4:	02f70a63          	beq	a4,a5,30d8 <camera_dma_init+0x84>
C:\Users\16917\Desktop\Dual-core_Communication_Demo\Dual-core_Communication_Demo\SLAVE\obj/../Libraries/seekfree_libraries/zf_camera.c:41 (discriminator 4)
    30a8:	fbc42703          	lw	a4,-68(s0)
    30ac:	400207b7          	lui	a5,0x40020
    30b0:	05878793          	addi	a5,a5,88 # 40020058 <_eusrstack+0x2001b058>
    30b4:	02f70263          	beq	a4,a5,30d8 <camera_dma_init+0x84>
C:\Users\16917\Desktop\Dual-core_Communication_Demo\Dual-core_Communication_Demo\SLAVE\obj/../Libraries/seekfree_libraries/zf_camera.c:42
    30b8:	fbc42703          	lw	a4,-68(s0)
    30bc:	400207b7          	lui	a5,0x40020
    30c0:	06c78793          	addi	a5,a5,108 # 4002006c <_eusrstack+0x2001b06c>
    30c4:	00f70a63          	beq	a4,a5,30d8 <camera_dma_init+0x84>
C:\Users\16917\Desktop\Dual-core_Communication_Demo\Dual-core_Communication_Demo\SLAVE\obj/../Libraries/seekfree_libraries/zf_camera.c:42 (discriminator 1)
    30c8:	fbc42703          	lw	a4,-68(s0)
    30cc:	400207b7          	lui	a5,0x40020
    30d0:	08078793          	addi	a5,a5,128 # 40020080 <_eusrstack+0x2001b080>
    30d4:	00f71763          	bne	a4,a5,30e2 <camera_dma_init+0x8e>
C:\Users\16917\Desktop\Dual-core_Communication_Demo\Dual-core_Communication_Demo\SLAVE\obj/../Libraries/seekfree_libraries/zf_camera.c:44
    30d8:	4585                	li	a1,1
    30da:	4505                	li	a0,1
    30dc:	d5cfe0ef          	jal	ra,1638 <RCC_AHBPeriphClockCmd>
    30e0:	a8a9                	j	313a <camera_dma_init+0xe6>
C:\Users\16917\Desktop\Dual-core_Communication_Demo\Dual-core_Communication_Demo\SLAVE\obj/../Libraries/seekfree_libraries/zf_camera.c:46
    30e2:	fbc42703          	lw	a4,-68(s0)
    30e6:	400207b7          	lui	a5,0x40020
    30ea:	40878793          	addi	a5,a5,1032 # 40020408 <_eusrstack+0x2001b408>
    30ee:	04f70263          	beq	a4,a5,3132 <camera_dma_init+0xde>
C:\Users\16917\Desktop\Dual-core_Communication_Demo\Dual-core_Communication_Demo\SLAVE\obj/../Libraries/seekfree_libraries/zf_camera.c:46 (discriminator 1)
    30f2:	fbc42703          	lw	a4,-68(s0)
    30f6:	400207b7          	lui	a5,0x40020
    30fa:	41c78793          	addi	a5,a5,1052 # 4002041c <_eusrstack+0x2001b41c>
    30fe:	02f70a63          	beq	a4,a5,3132 <camera_dma_init+0xde>
C:\Users\16917\Desktop\Dual-core_Communication_Demo\Dual-core_Communication_Demo\SLAVE\obj/../Libraries/seekfree_libraries/zf_camera.c:46 (discriminator 2)
    3102:	fbc42703          	lw	a4,-68(s0)
    3106:	400207b7          	lui	a5,0x40020
    310a:	43078793          	addi	a5,a5,1072 # 40020430 <_eusrstack+0x2001b430>
    310e:	02f70263          	beq	a4,a5,3132 <camera_dma_init+0xde>
C:\Users\16917\Desktop\Dual-core_Communication_Demo\Dual-core_Communication_Demo\SLAVE\obj/../Libraries/seekfree_libraries/zf_camera.c:46 (discriminator 3)
    3112:	fbc42703          	lw	a4,-68(s0)
    3116:	400207b7          	lui	a5,0x40020
    311a:	44478793          	addi	a5,a5,1092 # 40020444 <_eusrstack+0x2001b444>
    311e:	00f70a63          	beq	a4,a5,3132 <camera_dma_init+0xde>
C:\Users\16917\Desktop\Dual-core_Communication_Demo\Dual-core_Communication_Demo\SLAVE\obj/../Libraries/seekfree_libraries/zf_camera.c:46 (discriminator 4)
    3122:	fbc42703          	lw	a4,-68(s0)
    3126:	400207b7          	lui	a5,0x40020
    312a:	45878793          	addi	a5,a5,1112 # 40020458 <_eusrstack+0x2001b458>
    312e:	00f71663          	bne	a4,a5,313a <camera_dma_init+0xe6>
C:\Users\16917\Desktop\Dual-core_Communication_Demo\Dual-core_Communication_Demo\SLAVE\obj/../Libraries/seekfree_libraries/zf_camera.c:49
    3132:	4585                	li	a1,1
    3134:	4509                	li	a0,2
    3136:	d02fe0ef          	jal	ra,1638 <RCC_AHBPeriphClockCmd>
C:\Users\16917\Desktop\Dual-core_Communication_Demo\Dual-core_Communication_Demo\SLAVE\obj/../Libraries/seekfree_libraries/zf_camera.c:52
    313a:	fbc42503          	lw	a0,-68(s0)
    313e:	f94fd0ef          	jal	ra,8d2 <DMA_DeInit>
C:\Users\16917\Desktop\Dual-core_Communication_Demo\Dual-core_Communication_Demo\SLAVE\obj/../Libraries/seekfree_libraries/zf_camera.c:55
    3142:	fb842783          	lw	a5,-72(s0)
    3146:	fcf42223          	sw	a5,-60(s0)
C:\Users\16917\Desktop\Dual-core_Communication_Demo\Dual-core_Communication_Demo\SLAVE\obj/../Libraries/seekfree_libraries/zf_camera.c:56
    314a:	fb442783          	lw	a5,-76(s0)
    314e:	fcf42423          	sw	a5,-56(s0)
C:\Users\16917\Desktop\Dual-core_Communication_Demo\Dual-core_Communication_Demo\SLAVE\obj/../Libraries/seekfree_libraries/zf_camera.c:57
    3152:	fc042623          	sw	zero,-52(s0)
C:\Users\16917\Desktop\Dual-core_Communication_Demo\Dual-core_Communication_Demo\SLAVE\obj/../Libraries/seekfree_libraries/zf_camera.c:58
    3156:	fb042783          	lw	a5,-80(s0)
    315a:	fcf42823          	sw	a5,-48(s0)
C:\Users\16917\Desktop\Dual-core_Communication_Demo\Dual-core_Communication_Demo\SLAVE\obj/../Libraries/seekfree_libraries/zf_camera.c:59
    315e:	fc042a23          	sw	zero,-44(s0)
C:\Users\16917\Desktop\Dual-core_Communication_Demo\Dual-core_Communication_Demo\SLAVE\obj/../Libraries/seekfree_libraries/zf_camera.c:60
    3162:	08000793          	li	a5,128
    3166:	fcf42c23          	sw	a5,-40(s0)
C:\Users\16917\Desktop\Dual-core_Communication_Demo\Dual-core_Communication_Demo\SLAVE\obj/../Libraries/seekfree_libraries/zf_camera.c:61
    316a:	fc042e23          	sw	zero,-36(s0)
C:\Users\16917\Desktop\Dual-core_Communication_Demo\Dual-core_Communication_Demo\SLAVE\obj/../Libraries/seekfree_libraries/zf_camera.c:62
    316e:	fe042023          	sw	zero,-32(s0)
C:\Users\16917\Desktop\Dual-core_Communication_Demo\Dual-core_Communication_Demo\SLAVE\obj/../Libraries/seekfree_libraries/zf_camera.c:63
    3172:	fe042223          	sw	zero,-28(s0)
C:\Users\16917\Desktop\Dual-core_Communication_Demo\Dual-core_Communication_Demo\SLAVE\obj/../Libraries/seekfree_libraries/zf_camera.c:64
    3176:	678d                	lui	a5,0x3
    3178:	fef42423          	sw	a5,-24(s0)
C:\Users\16917\Desktop\Dual-core_Communication_Demo\Dual-core_Communication_Demo\SLAVE\obj/../Libraries/seekfree_libraries/zf_camera.c:65
    317c:	fe042623          	sw	zero,-20(s0)
C:\Users\16917\Desktop\Dual-core_Communication_Demo\Dual-core_Communication_Demo\SLAVE\obj/../Libraries/seekfree_libraries/zf_camera.c:66
    3180:	fc440793          	addi	a5,s0,-60
    3184:	85be                	mv	a1,a5
    3186:	fbc42503          	lw	a0,-68(s0)
    318a:	957fd0ef          	jal	ra,ae0 <DMA_Init>
C:\Users\16917\Desktop\Dual-core_Communication_Demo\Dual-core_Communication_Demo\SLAVE\obj/../Libraries/seekfree_libraries/zf_camera.c:68
    318e:	4605                	li	a2,1
    3190:	4589                	li	a1,2
    3192:	fbc42503          	lw	a0,-68(s0)
    3196:	a33fd0ef          	jal	ra,bc8 <DMA_ITConfig>
C:\Users\16917\Desktop\Dual-core_Communication_Demo\Dual-core_Communication_Demo\SLAVE\obj/../Libraries/seekfree_libraries/zf_camera.c:69
    319a:	4585                	li	a1,1
    319c:	fbc42503          	lw	a0,-68(s0)
    31a0:	9e9fd0ef          	jal	ra,b88 <DMA_Cmd>
C:\Users\16917\Desktop\Dual-core_Communication_Demo\Dual-core_Communication_Demo\SLAVE\obj/../Libraries/seekfree_libraries/zf_camera.c:71
    31a4:	0001                	nop
    31a6:	40b6                	lw	ra,76(sp)
    31a8:	4426                	lw	s0,72(sp)
    31aa:	6161                	addi	sp,sp,80
    31ac:	8082                	ret

000031ae <camera_tim_etr_init>:
camera_tim_etr_init():
C:\Users\16917\Desktop\Dual-core_Communication_Demo\Dual-core_Communication_Demo\SLAVE\obj/../Libraries/seekfree_libraries/zf_camera.c:82
    31ae:	7179                	addi	sp,sp,-48
    31b0:	d606                	sw	ra,44(sp)
    31b2:	d422                	sw	s0,40(sp)
    31b4:	1800                	addi	s0,sp,48
    31b6:	fca42e23          	sw	a0,-36(s0)
    31ba:	fcb42c23          	sw	a1,-40(s0)
C:\Users\16917\Desktop\Dual-core_Communication_Demo\Dual-core_Communication_Demo\SLAVE\obj/../Libraries/seekfree_libraries/zf_camera.c:85
    31be:	4585                	li	a1,1
    31c0:	4505                	li	a0,1
    31c2:	cbcfe0ef          	jal	ra,167e <RCC_APB2PeriphClockCmd>
C:\Users\16917\Desktop\Dual-core_Communication_Demo\Dual-core_Communication_Demo\SLAVE\obj/../Libraries/seekfree_libraries/zf_camera.c:86
    31c6:	fdc42783          	lw	a5,-36(s0)
    31ca:	eb81                	bnez	a5,31da <camera_tim_etr_init+0x2c>
C:\Users\16917\Desktop\Dual-core_Communication_Demo\Dual-core_Communication_Demo\SLAVE\obj/../Libraries/seekfree_libraries/zf_camera.c:87
    31cc:	4585                	li	a1,1
    31ce:	6785                	lui	a5,0x1
    31d0:	80078513          	addi	a0,a5,-2048 # 800 <__stack_size>
    31d4:	caafe0ef          	jal	ra,167e <RCC_APB2PeriphClockCmd>
    31d8:	a835                	j	3214 <camera_tim_etr_init+0x66>
C:\Users\16917\Desktop\Dual-core_Communication_Demo\Dual-core_Communication_Demo\SLAVE\obj/../Libraries/seekfree_libraries/zf_camera.c:88
    31da:	fdc42703          	lw	a4,-36(s0)
    31de:	4785                	li	a5,1
    31e0:	00f71763          	bne	a4,a5,31ee <camera_tim_etr_init+0x40>
C:\Users\16917\Desktop\Dual-core_Communication_Demo\Dual-core_Communication_Demo\SLAVE\obj/../Libraries/seekfree_libraries/zf_camera.c:89
    31e4:	4585                	li	a1,1
    31e6:	4505                	li	a0,1
    31e8:	cdcfe0ef          	jal	ra,16c4 <RCC_APB1PeriphClockCmd>
    31ec:	a025                	j	3214 <camera_tim_etr_init+0x66>
C:\Users\16917\Desktop\Dual-core_Communication_Demo\Dual-core_Communication_Demo\SLAVE\obj/../Libraries/seekfree_libraries/zf_camera.c:90
    31ee:	fdc42703          	lw	a4,-36(s0)
    31f2:	4789                	li	a5,2
    31f4:	00f71763          	bne	a4,a5,3202 <camera_tim_etr_init+0x54>
C:\Users\16917\Desktop\Dual-core_Communication_Demo\Dual-core_Communication_Demo\SLAVE\obj/../Libraries/seekfree_libraries/zf_camera.c:91
    31f8:	4585                	li	a1,1
    31fa:	4509                	li	a0,2
    31fc:	cc8fe0ef          	jal	ra,16c4 <RCC_APB1PeriphClockCmd>
    3200:	a811                	j	3214 <camera_tim_etr_init+0x66>
C:\Users\16917\Desktop\Dual-core_Communication_Demo\Dual-core_Communication_Demo\SLAVE\obj/../Libraries/seekfree_libraries/zf_camera.c:92
    3202:	fdc42703          	lw	a4,-36(s0)
    3206:	478d                	li	a5,3
    3208:	00f71663          	bne	a4,a5,3214 <camera_tim_etr_init+0x66>
C:\Users\16917\Desktop\Dual-core_Communication_Demo\Dual-core_Communication_Demo\SLAVE\obj/../Libraries/seekfree_libraries/zf_camera.c:93
    320c:	4585                	li	a1,1
    320e:	4511                	li	a0,4
    3210:	cb4fe0ef          	jal	ra,16c4 <RCC_APB1PeriphClockCmd>
C:\Users\16917\Desktop\Dual-core_Communication_Demo\Dual-core_Communication_Demo\SLAVE\obj/../Libraries/seekfree_libraries/zf_camera.c:95
    3214:	4691                	li	a3,4
    3216:	4601                	li	a2,0
    3218:	4581                	li	a1,0
    321a:	fd842503          	lw	a0,-40(s0)
    321e:	28e9                	jal	32f8 <gpio_init>
C:\Users\16917\Desktop\Dual-core_Communication_Demo\Dual-core_Communication_Demo\SLAVE\obj/../Libraries/seekfree_libraries/zf_camera.c:97
    3220:	57fd                	li	a5,-1
    3222:	fef41423          	sh	a5,-24(s0)
C:\Users\16917\Desktop\Dual-core_Communication_Demo\Dual-core_Communication_Demo\SLAVE\obj/../Libraries/seekfree_libraries/zf_camera.c:98
    3226:	fe041223          	sh	zero,-28(s0)
C:\Users\16917\Desktop\Dual-core_Communication_Demo\Dual-core_Communication_Demo\SLAVE\obj/../Libraries/seekfree_libraries/zf_camera.c:99
    322a:	fe041523          	sh	zero,-22(s0)
C:\Users\16917\Desktop\Dual-core_Communication_Demo\Dual-core_Communication_Demo\SLAVE\obj/../Libraries/seekfree_libraries/zf_camera.c:100
    322e:	fe041323          	sh	zero,-26(s0)
C:\Users\16917\Desktop\Dual-core_Communication_Demo\Dual-core_Communication_Demo\SLAVE\obj/../Libraries/seekfree_libraries/zf_camera.c:101
    3232:	fe040623          	sb	zero,-20(s0)
C:\Users\16917\Desktop\Dual-core_Communication_Demo\Dual-core_Communication_Demo\SLAVE\obj/../Libraries/seekfree_libraries/zf_camera.c:102
    3236:	6799                	lui	a5,0x6
    3238:	fdc42703          	lw	a4,-36(s0)
    323c:	070a                	slli	a4,a4,0x2
    323e:	13c78793          	addi	a5,a5,316 # 613c <TIMERN>
    3242:	97ba                	add	a5,a5,a4
    3244:	439c                	lw	a5,0(a5)
    3246:	873e                	mv	a4,a5
    3248:	fe440793          	addi	a5,s0,-28
    324c:	85be                	mv	a1,a5
    324e:	853a                	mv	a0,a4
    3250:	e0cfe0ef          	jal	ra,185c <TIM_TimeBaseInit>
C:\Users\16917\Desktop\Dual-core_Communication_Demo\Dual-core_Communication_Demo\SLAVE\obj/../Libraries/seekfree_libraries/zf_camera.c:104
    3254:	6799                	lui	a5,0x6
    3256:	fdc42703          	lw	a4,-36(s0)
    325a:	070a                	slli	a4,a4,0x2
    325c:	13c78793          	addi	a5,a5,316 # 613c <TIMERN>
    3260:	97ba                	add	a5,a5,a4
    3262:	439c                	lw	a5,0(a5)
    3264:	4681                	li	a3,0
    3266:	6621                	lui	a2,0x8
    3268:	4581                	li	a1,0
    326a:	853e                	mv	a0,a5
    326c:	85ffe0ef          	jal	ra,1aca <TIM_ETRClockMode1Config>
C:\Users\16917\Desktop\Dual-core_Communication_Demo\Dual-core_Communication_Demo\SLAVE\obj/../Libraries/seekfree_libraries/zf_camera.c:105
    3270:	6799                	lui	a5,0x6
    3272:	fdc42703          	lw	a4,-36(s0)
    3276:	070a                	slli	a4,a4,0x2
    3278:	13c78793          	addi	a5,a5,316 # 613c <TIMERN>
    327c:	97ba                	add	a5,a5,a4
    327e:	439c                	lw	a5,0(a5)
    3280:	07000593          	li	a1,112
    3284:	853e                	mv	a0,a5
    3286:	94bfe0ef          	jal	ra,1bd0 <TIM_SelectInputTrigger>
C:\Users\16917\Desktop\Dual-core_Communication_Demo\Dual-core_Communication_Demo\SLAVE\obj/../Libraries/seekfree_libraries/zf_camera.c:106
    328a:	6799                	lui	a5,0x6
    328c:	fdc42703          	lw	a4,-36(s0)
    3290:	070a                	slli	a4,a4,0x2
    3292:	13c78793          	addi	a5,a5,316 # 613c <TIMERN>
    3296:	97ba                	add	a5,a5,a4
    3298:	439c                	lw	a5,0(a5)
    329a:	4591                	li	a1,4
    329c:	853e                	mv	a0,a5
    329e:	a59fe0ef          	jal	ra,1cf6 <TIM_SelectSlaveMode>
C:\Users\16917\Desktop\Dual-core_Communication_Demo\Dual-core_Communication_Demo\SLAVE\obj/../Libraries/seekfree_libraries/zf_camera.c:107
    32a2:	6799                	lui	a5,0x6
    32a4:	fdc42703          	lw	a4,-36(s0)
    32a8:	070a                	slli	a4,a4,0x2
    32aa:	13c78793          	addi	a5,a5,316 # 613c <TIMERN>
    32ae:	97ba                	add	a5,a5,a4
    32b0:	439c                	lw	a5,0(a5)
    32b2:	08000593          	li	a1,128
    32b6:	853e                	mv	a0,a5
    32b8:	a95fe0ef          	jal	ra,1d4c <TIM_SelectMasterSlaveMode>
C:\Users\16917\Desktop\Dual-core_Communication_Demo\Dual-core_Communication_Demo\SLAVE\obj/../Libraries/seekfree_libraries/zf_camera.c:109
    32bc:	6799                	lui	a5,0x6
    32be:	fdc42703          	lw	a4,-36(s0)
    32c2:	070a                	slli	a4,a4,0x2
    32c4:	13c78793          	addi	a5,a5,316 # 613c <TIMERN>
    32c8:	97ba                	add	a5,a5,a4
    32ca:	439c                	lw	a5,0(a5)
    32cc:	4585                	li	a1,1
    32ce:	853e                	mv	a0,a5
    32d0:	ec2fe0ef          	jal	ra,1992 <TIM_Cmd>
C:\Users\16917\Desktop\Dual-core_Communication_Demo\Dual-core_Communication_Demo\SLAVE\obj/../Libraries/seekfree_libraries/zf_camera.c:110
    32d4:	6799                	lui	a5,0x6
    32d6:	fdc42703          	lw	a4,-36(s0)
    32da:	070a                	slli	a4,a4,0x2
    32dc:	13c78793          	addi	a5,a5,316 # 613c <TIMERN>
    32e0:	97ba                	add	a5,a5,a4
    32e2:	439c                	lw	a5,0(a5)
    32e4:	4605                	li	a2,1
    32e6:	6591                	lui	a1,0x4
    32e8:	853e                	mv	a0,a5
    32ea:	f70fe0ef          	jal	ra,1a5a <TIM_DMACmd>
C:\Users\16917\Desktop\Dual-core_Communication_Demo\Dual-core_Communication_Demo\SLAVE\obj/../Libraries/seekfree_libraries/zf_camera.c:111
    32ee:	0001                	nop
    32f0:	50b2                	lw	ra,44(sp)
    32f2:	5422                	lw	s0,40(sp)
    32f4:	6145                	addi	sp,sp,48
    32f6:	8082                	ret

000032f8 <gpio_init>:
gpio_init():
C:\Users\16917\Desktop\Dual-core_Communication_Demo\Dual-core_Communication_Demo\SLAVE\obj/../Libraries/seekfree_libraries/zf_gpio.c:40
    32f8:	7179                	addi	sp,sp,-48
    32fa:	d606                	sw	ra,44(sp)
    32fc:	d422                	sw	s0,40(sp)
    32fe:	1800                	addi	s0,sp,48
    3300:	fca42e23          	sw	a0,-36(s0)
    3304:	fcb42c23          	sw	a1,-40(s0)
    3308:	87b2                	mv	a5,a2
    330a:	fcd42823          	sw	a3,-48(s0)
    330e:	fcf40ba3          	sb	a5,-41(s0)
C:\Users\16917\Desktop\Dual-core_Communication_Demo\Dual-core_Communication_Demo\SLAVE\obj/../Libraries/seekfree_libraries/zf_gpio.c:42
    3312:	fdc42783          	lw	a5,-36(s0)
    3316:	8395                	srli	a5,a5,0x5
    3318:	0ff7f793          	andi	a5,a5,255
    331c:	8b9d                	andi	a5,a5,7
    331e:	fef407a3          	sb	a5,-17(s0)
C:\Users\16917\Desktop\Dual-core_Communication_Demo\Dual-core_Communication_Demo\SLAVE\obj/../Libraries/seekfree_libraries/zf_gpio.c:43
    3322:	fdc42783          	lw	a5,-36(s0)
    3326:	0ff7f793          	andi	a5,a5,255
    332a:	8bfd                	andi	a5,a5,31
    332c:	fef40723          	sb	a5,-18(s0)
C:\Users\16917\Desktop\Dual-core_Communication_Demo\Dual-core_Communication_Demo\SLAVE\obj/../Libraries/seekfree_libraries/zf_gpio.c:46
    3330:	fdc42703          	lw	a4,-36(s0)
    3334:	08000793          	li	a5,128
    3338:	14f70d63          	beq	a4,a5,3492 <gpio_init+0x19a>
C:\Users\16917\Desktop\Dual-core_Communication_Demo\Dual-core_Communication_Demo\SLAVE\obj/../Libraries/seekfree_libraries/zf_gpio.c:48
    333c:	fdc42783          	lw	a5,-36(s0)
    3340:	8395                	srli	a5,a5,0x5
    3342:	e791                	bnez	a5,334e <gpio_init+0x56>
C:\Users\16917\Desktop\Dual-core_Communication_Demo\Dual-core_Communication_Demo\SLAVE\obj/../Libraries/seekfree_libraries/zf_gpio.c:48 (discriminator 1)
    3344:	4585                	li	a1,1
    3346:	4511                	li	a0,4
    3348:	b36fe0ef          	jal	ra,167e <RCC_APB2PeriphClockCmd>
    334c:	a861                	j	33e4 <gpio_init+0xec>
C:\Users\16917\Desktop\Dual-core_Communication_Demo\Dual-core_Communication_Demo\SLAVE\obj/../Libraries/seekfree_libraries/zf_gpio.c:49
    334e:	fdc42783          	lw	a5,-36(s0)
    3352:	0057d713          	srli	a4,a5,0x5
    3356:	4785                	li	a5,1
    3358:	00f71763          	bne	a4,a5,3366 <gpio_init+0x6e>
C:\Users\16917\Desktop\Dual-core_Communication_Demo\Dual-core_Communication_Demo\SLAVE\obj/../Libraries/seekfree_libraries/zf_gpio.c:49 (discriminator 1)
    335c:	4585                	li	a1,1
    335e:	4521                	li	a0,8
    3360:	b1efe0ef          	jal	ra,167e <RCC_APB2PeriphClockCmd>
    3364:	a041                	j	33e4 <gpio_init+0xec>
C:\Users\16917\Desktop\Dual-core_Communication_Demo\Dual-core_Communication_Demo\SLAVE\obj/../Libraries/seekfree_libraries/zf_gpio.c:50
    3366:	fdc42783          	lw	a5,-36(s0)
    336a:	0057d713          	srli	a4,a5,0x5
    336e:	4789                	li	a5,2
    3370:	00f71763          	bne	a4,a5,337e <gpio_init+0x86>
C:\Users\16917\Desktop\Dual-core_Communication_Demo\Dual-core_Communication_Demo\SLAVE\obj/../Libraries/seekfree_libraries/zf_gpio.c:50 (discriminator 1)
    3374:	4585                	li	a1,1
    3376:	4541                	li	a0,16
    3378:	b06fe0ef          	jal	ra,167e <RCC_APB2PeriphClockCmd>
    337c:	a0a5                	j	33e4 <gpio_init+0xec>
C:\Users\16917\Desktop\Dual-core_Communication_Demo\Dual-core_Communication_Demo\SLAVE\obj/../Libraries/seekfree_libraries/zf_gpio.c:51
    337e:	fdc42783          	lw	a5,-36(s0)
    3382:	0057d713          	srli	a4,a5,0x5
    3386:	478d                	li	a5,3
    3388:	00f71863          	bne	a4,a5,3398 <gpio_init+0xa0>
C:\Users\16917\Desktop\Dual-core_Communication_Demo\Dual-core_Communication_Demo\SLAVE\obj/../Libraries/seekfree_libraries/zf_gpio.c:51 (discriminator 1)
    338c:	4585                	li	a1,1
    338e:	02000513          	li	a0,32
    3392:	aecfe0ef          	jal	ra,167e <RCC_APB2PeriphClockCmd>
    3396:	a0b9                	j	33e4 <gpio_init+0xec>
C:\Users\16917\Desktop\Dual-core_Communication_Demo\Dual-core_Communication_Demo\SLAVE\obj/../Libraries/seekfree_libraries/zf_gpio.c:52
    3398:	fdc42783          	lw	a5,-36(s0)
    339c:	0057d713          	srli	a4,a5,0x5
    33a0:	4791                	li	a5,4
    33a2:	00f71863          	bne	a4,a5,33b2 <gpio_init+0xba>
C:\Users\16917\Desktop\Dual-core_Communication_Demo\Dual-core_Communication_Demo\SLAVE\obj/../Libraries/seekfree_libraries/zf_gpio.c:52 (discriminator 1)
    33a6:	4585                	li	a1,1
    33a8:	04000513          	li	a0,64
    33ac:	ad2fe0ef          	jal	ra,167e <RCC_APB2PeriphClockCmd>
    33b0:	a815                	j	33e4 <gpio_init+0xec>
C:\Users\16917\Desktop\Dual-core_Communication_Demo\Dual-core_Communication_Demo\SLAVE\obj/../Libraries/seekfree_libraries/zf_gpio.c:53
    33b2:	fdc42783          	lw	a5,-36(s0)
    33b6:	0057d713          	srli	a4,a5,0x5
    33ba:	4795                	li	a5,5
    33bc:	00f71863          	bne	a4,a5,33cc <gpio_init+0xd4>
C:\Users\16917\Desktop\Dual-core_Communication_Demo\Dual-core_Communication_Demo\SLAVE\obj/../Libraries/seekfree_libraries/zf_gpio.c:53 (discriminator 1)
    33c0:	4585                	li	a1,1
    33c2:	08000513          	li	a0,128
    33c6:	ab8fe0ef          	jal	ra,167e <RCC_APB2PeriphClockCmd>
    33ca:	a829                	j	33e4 <gpio_init+0xec>
C:\Users\16917\Desktop\Dual-core_Communication_Demo\Dual-core_Communication_Demo\SLAVE\obj/../Libraries/seekfree_libraries/zf_gpio.c:54
    33cc:	fdc42783          	lw	a5,-36(s0)
    33d0:	0057d713          	srli	a4,a5,0x5
    33d4:	4799                	li	a5,6
    33d6:	00f71763          	bne	a4,a5,33e4 <gpio_init+0xec>
C:\Users\16917\Desktop\Dual-core_Communication_Demo\Dual-core_Communication_Demo\SLAVE\obj/../Libraries/seekfree_libraries/zf_gpio.c:54 (discriminator 1)
    33da:	4585                	li	a1,1
    33dc:	10000513          	li	a0,256
    33e0:	a9efe0ef          	jal	ra,167e <RCC_APB2PeriphClockCmd>
C:\Users\16917\Desktop\Dual-core_Communication_Demo\Dual-core_Communication_Demo\SLAVE\obj/../Libraries/seekfree_libraries/zf_gpio.c:58
    33e4:	fee44783          	lbu	a5,-18(s0)
    33e8:	4705                	li	a4,1
    33ea:	00f717b3          	sll	a5,a4,a5
    33ee:	07c2                	slli	a5,a5,0x10
    33f0:	83c1                	srli	a5,a5,0x10
    33f2:	fef41023          	sh	a5,-32(s0)
C:\Users\16917\Desktop\Dual-core_Communication_Demo\Dual-core_Communication_Demo\SLAVE\obj/../Libraries/seekfree_libraries/zf_gpio.c:60
    33f6:	fd842703          	lw	a4,-40(s0)
    33fa:	4785                	li	a5,1
    33fc:	02f71763          	bne	a4,a5,342a <gpio_init+0x132>
C:\Users\16917\Desktop\Dual-core_Communication_Demo\Dual-core_Communication_Demo\SLAVE\obj/../Libraries/seekfree_libraries/zf_gpio.c:63
    3400:	fd042783          	lw	a5,-48(s0)
    3404:	07c2                	slli	a5,a5,0x10
    3406:	83c1                	srli	a5,a5,0x10
    3408:	83a1                	srli	a5,a5,0x8
    340a:	07c2                	slli	a5,a5,0x10
    340c:	83c1                	srli	a5,a5,0x10
    340e:	e789                	bnez	a5,3418 <gpio_init+0x120>
C:\Users\16917\Desktop\Dual-core_Communication_Demo\Dual-core_Communication_Demo\SLAVE\obj/../Libraries/seekfree_libraries/zf_gpio.c:63 (discriminator 1)
    3410:	478d                	li	a5,3
    3412:	fef42223          	sw	a5,-28(s0)
    3416:	a811                	j	342a <gpio_init+0x132>
C:\Users\16917\Desktop\Dual-core_Communication_Demo\Dual-core_Communication_Demo\SLAVE\obj/../Libraries/seekfree_libraries/zf_gpio.c:64
    3418:	fd042783          	lw	a5,-48(s0)
    341c:	07c2                	slli	a5,a5,0x10
    341e:	83c1                	srli	a5,a5,0x10
    3420:	83a1                	srli	a5,a5,0x8
    3422:	07c2                	slli	a5,a5,0x10
    3424:	83c1                	srli	a5,a5,0x10
    3426:	fef42223          	sw	a5,-28(s0)
C:\Users\16917\Desktop\Dual-core_Communication_Demo\Dual-core_Communication_Demo\SLAVE\obj/../Libraries/seekfree_libraries/zf_gpio.c:68
    342a:	fd042783          	lw	a5,-48(s0)
    342e:	07c2                	slli	a5,a5,0x10
    3430:	83c1                	srli	a5,a5,0x10
    3432:	0ff7f793          	andi	a5,a5,255
    3436:	fef42423          	sw	a5,-24(s0)
C:\Users\16917\Desktop\Dual-core_Communication_Demo\Dual-core_Communication_Demo\SLAVE\obj/../Libraries/seekfree_libraries/zf_gpio.c:69
    343a:	fef44703          	lbu	a4,-17(s0)
    343e:	6799                	lui	a5,0x6
    3440:	070a                	slli	a4,a4,0x2
    3442:	11478793          	addi	a5,a5,276 # 6114 <GPION>
    3446:	97ba                	add	a5,a5,a4
    3448:	439c                	lw	a5,0(a5)
    344a:	873e                	mv	a4,a5
    344c:	fe040793          	addi	a5,s0,-32
    3450:	85be                	mv	a1,a5
    3452:	853a                	mv	a0,a4
    3454:	a39fd0ef          	jal	ra,e8c <GPIO_Init>
C:\Users\16917\Desktop\Dual-core_Communication_Demo\Dual-core_Communication_Demo\SLAVE\obj/../Libraries/seekfree_libraries/zf_gpio.c:71
    3458:	fd842703          	lw	a4,-40(s0)
    345c:	4785                	li	a5,1
    345e:	02f71b63          	bne	a4,a5,3494 <gpio_init+0x19c>
C:\Users\16917\Desktop\Dual-core_Communication_Demo\Dual-core_Communication_Demo\SLAVE\obj/../Libraries/seekfree_libraries/zf_gpio.c:74
    3462:	fef44703          	lbu	a4,-17(s0)
    3466:	6799                	lui	a5,0x6
    3468:	070a                	slli	a4,a4,0x2
    346a:	11478793          	addi	a5,a5,276 # 6114 <GPION>
    346e:	97ba                	add	a5,a5,a4
    3470:	439c                	lw	a5,0(a5)
    3472:	86be                	mv	a3,a5
    3474:	fee44783          	lbu	a5,-18(s0)
    3478:	4705                	li	a4,1
    347a:	00f717b3          	sll	a5,a4,a5
    347e:	07c2                	slli	a5,a5,0x10
    3480:	83c1                	srli	a5,a5,0x10
    3482:	fd744703          	lbu	a4,-41(s0)
    3486:	863a                	mv	a2,a4
    3488:	85be                	mv	a1,a5
    348a:	8536                	mv	a0,a3
    348c:	c2bfd0ef          	jal	ra,10b6 <GPIO_WriteBit>
    3490:	a011                	j	3494 <gpio_init+0x19c>
C:\Users\16917\Desktop\Dual-core_Communication_Demo\Dual-core_Communication_Demo\SLAVE\obj/../Libraries/seekfree_libraries/zf_gpio.c:46
    3492:	0001                	nop
C:\Users\16917\Desktop\Dual-core_Communication_Demo\Dual-core_Communication_Demo\SLAVE\obj/../Libraries/seekfree_libraries/zf_gpio.c:76
    3494:	50b2                	lw	ra,44(sp)
    3496:	5422                	lw	s0,40(sp)
    3498:	6145                	addi	sp,sp,48
    349a:	8082                	ret

0000349c <gpio_interrupt_init>:
gpio_interrupt_init():
C:\Users\16917\Desktop\Dual-core_Communication_Demo\Dual-core_Communication_Demo\SLAVE\obj/../Libraries/seekfree_libraries/zf_gpio.c:141
    349c:	7179                	addi	sp,sp,-48
    349e:	d606                	sw	ra,44(sp)
    34a0:	d422                	sw	s0,40(sp)
    34a2:	1800                	addi	s0,sp,48
    34a4:	fca42e23          	sw	a0,-36(s0)
    34a8:	fcb42c23          	sw	a1,-40(s0)
    34ac:	fcc42a23          	sw	a2,-44(s0)
C:\Users\16917\Desktop\Dual-core_Communication_Demo\Dual-core_Communication_Demo\SLAVE\obj/../Libraries/seekfree_libraries/zf_gpio.c:143
    34b0:	4585                	li	a1,1
    34b2:	4505                	li	a0,1
    34b4:	9cafe0ef          	jal	ra,167e <RCC_APB2PeriphClockCmd>
C:\Users\16917\Desktop\Dual-core_Communication_Demo\Dual-core_Communication_Demo\SLAVE\obj/../Libraries/seekfree_libraries/zf_gpio.c:144
    34b8:	fd442683          	lw	a3,-44(s0)
    34bc:	4601                	li	a2,0
    34be:	4581                	li	a1,0
    34c0:	fdc42503          	lw	a0,-36(s0)
    34c4:	3d15                	jal	32f8 <gpio_init>
C:\Users\16917\Desktop\Dual-core_Communication_Demo\Dual-core_Communication_Demo\SLAVE\obj/../Libraries/seekfree_libraries/zf_gpio.c:145
    34c6:	fdc42783          	lw	a5,-36(s0)
    34ca:	8395                	srli	a5,a5,0x5
    34cc:	0ff7f713          	andi	a4,a5,255
    34d0:	fdc42783          	lw	a5,-36(s0)
    34d4:	0ff7f793          	andi	a5,a5,255
    34d8:	8bfd                	andi	a5,a5,31
    34da:	0ff7f793          	andi	a5,a5,255
    34de:	85be                	mv	a1,a5
    34e0:	853a                	mv	a0,a4
    34e2:	d49fd0ef          	jal	ra,122a <GPIO_EXTILineConfig>
C:\Users\16917\Desktop\Dual-core_Communication_Demo\Dual-core_Communication_Demo\SLAVE\obj/../Libraries/seekfree_libraries/zf_gpio.c:146
    34e6:	fdc42783          	lw	a5,-36(s0)
    34ea:	8bfd                	andi	a5,a5,31
    34ec:	4705                	li	a4,1
    34ee:	00f717b3          	sll	a5,a4,a5
    34f2:	fef42023          	sw	a5,-32(s0)
C:\Users\16917\Desktop\Dual-core_Communication_Demo\Dual-core_Communication_Demo\SLAVE\obj/../Libraries/seekfree_libraries/zf_gpio.c:147
    34f6:	fe042223          	sw	zero,-28(s0)
C:\Users\16917\Desktop\Dual-core_Communication_Demo\Dual-core_Communication_Demo\SLAVE\obj/../Libraries/seekfree_libraries/zf_gpio.c:148
    34fa:	fd842783          	lw	a5,-40(s0)
    34fe:	fef42423          	sw	a5,-24(s0)
C:\Users\16917\Desktop\Dual-core_Communication_Demo\Dual-core_Communication_Demo\SLAVE\obj/../Libraries/seekfree_libraries/zf_gpio.c:149
    3502:	4785                	li	a5,1
    3504:	fef42623          	sw	a5,-20(s0)
C:\Users\16917\Desktop\Dual-core_Communication_Demo\Dual-core_Communication_Demo\SLAVE\obj/../Libraries/seekfree_libraries/zf_gpio.c:150
    3508:	fe040793          	addi	a5,s0,-32
    350c:	853e                	mv	a0,a5
    350e:	f98fd0ef          	jal	ra,ca6 <EXTI_Init>
C:\Users\16917\Desktop\Dual-core_Communication_Demo\Dual-core_Communication_Demo\SLAVE\obj/../Libraries/seekfree_libraries/zf_gpio.c:151
    3512:	0001                	nop
    3514:	50b2                	lw	ra,44(sp)
    3516:	5422                	lw	s0,40(sp)
    3518:	6145                	addi	sp,sp,48
    351a:	8082                	ret

0000351c <nvic_init>:
nvic_init():
C:\Users\16917\Desktop\Dual-core_Communication_Demo\Dual-core_Communication_Demo\SLAVE\obj/../Libraries/seekfree_libraries/zf_nvic.c:38
    351c:	7179                	addi	sp,sp,-48
    351e:	d606                	sw	ra,44(sp)
    3520:	d422                	sw	s0,40(sp)
    3522:	1800                	addi	s0,sp,48
    3524:	fca42e23          	sw	a0,-36(s0)
    3528:	87ae                	mv	a5,a1
    352a:	8736                	mv	a4,a3
    352c:	fcf40da3          	sb	a5,-37(s0)
    3530:	87b2                	mv	a5,a2
    3532:	fcf40d23          	sb	a5,-38(s0)
    3536:	87ba                	mv	a5,a4
    3538:	fcf40ca3          	sb	a5,-39(s0)
C:\Users\16917\Desktop\Dual-core_Communication_Demo\Dual-core_Communication_Demo\SLAVE\obj/../Libraries/seekfree_libraries/zf_nvic.c:41
    353c:	fdc42783          	lw	a5,-36(s0)
    3540:	0ff7f793          	andi	a5,a5,255
    3544:	fef40423          	sb	a5,-24(s0)
C:\Users\16917\Desktop\Dual-core_Communication_Demo\Dual-core_Communication_Demo\SLAVE\obj/../Libraries/seekfree_libraries/zf_nvic.c:42
    3548:	fdb44783          	lbu	a5,-37(s0)
    354c:	fef404a3          	sb	a5,-23(s0)
C:\Users\16917\Desktop\Dual-core_Communication_Demo\Dual-core_Communication_Demo\SLAVE\obj/../Libraries/seekfree_libraries/zf_nvic.c:43
    3550:	fda44783          	lbu	a5,-38(s0)
    3554:	fef40523          	sb	a5,-22(s0)
C:\Users\16917\Desktop\Dual-core_Communication_Demo\Dual-core_Communication_Demo\SLAVE\obj/../Libraries/seekfree_libraries/zf_nvic.c:44
    3558:	fd944783          	lbu	a5,-39(s0)
    355c:	fef42623          	sw	a5,-20(s0)
C:\Users\16917\Desktop\Dual-core_Communication_Demo\Dual-core_Communication_Demo\SLAVE\obj/../Libraries/seekfree_libraries/zf_nvic.c:45
    3560:	fe840793          	addi	a5,s0,-24
    3564:	853e                	mv	a0,a5
    3566:	df5fd0ef          	jal	ra,135a <NVIC_Init>
C:\Users\16917\Desktop\Dual-core_Communication_Demo\Dual-core_Communication_Demo\SLAVE\obj/../Libraries/seekfree_libraries/zf_nvic.c:48
    356a:	e000e7b7          	lui	a5,0xe000e
    356e:	4398                	lw	a4,0(a5)
    3570:	77fd                	lui	a5,0xfffff
    3572:	8f7d                	and	a4,a4,a5
    3574:	200027b7          	lui	a5,0x20002
    3578:	5dc7a783          	lw	a5,1500(a5) # 200025dc <irq_status>
    357c:	8f5d                	or	a4,a4,a5
    357e:	200027b7          	lui	a5,0x20002
    3582:	5ce7ae23          	sw	a4,1500(a5) # 200025dc <irq_status>
C:\Users\16917\Desktop\Dual-core_Communication_Demo\Dual-core_Communication_Demo\SLAVE\obj/../Libraries/seekfree_libraries/zf_nvic.c:49
    3586:	e000e7b7          	lui	a5,0xe000e
    358a:	43d8                	lw	a4,4(a5)
    358c:	100007b7          	lui	a5,0x10000
    3590:	17fd                	addi	a5,a5,-1
    3592:	8f7d                	and	a4,a4,a5
    3594:	200027b7          	lui	a5,0x20002
    3598:	5dc78793          	addi	a5,a5,1500 # 200025dc <irq_status>
    359c:	43dc                	lw	a5,4(a5)
    359e:	8f5d                	or	a4,a4,a5
    35a0:	200027b7          	lui	a5,0x20002
    35a4:	5dc78793          	addi	a5,a5,1500 # 200025dc <irq_status>
    35a8:	c3d8                	sw	a4,4(a5)
C:\Users\16917\Desktop\Dual-core_Communication_Demo\Dual-core_Communication_Demo\SLAVE\obj/../Libraries/seekfree_libraries/zf_nvic.c:50
    35aa:	200027b7          	lui	a5,0x20002
    35ae:	5dc78793          	addi	a5,a5,1500 # 200025dc <irq_status>
    35b2:	0087c703          	lbu	a4,8(a5)
    35b6:	4785                	li	a5,1
    35b8:	00f71363          	bne	a4,a5,35be <nvic_init+0xa2>
C:\Users\16917\Desktop\Dual-core_Communication_Demo\Dual-core_Communication_Demo\SLAVE\obj/../Libraries/seekfree_libraries/zf_nvic.c:52
    35bc:	2031                	jal	35c8 <close_all_irq>
C:\Users\16917\Desktop\Dual-core_Communication_Demo\Dual-core_Communication_Demo\SLAVE\obj/../Libraries/seekfree_libraries/zf_nvic.c:54
    35be:	0001                	nop
    35c0:	50b2                	lw	ra,44(sp)
    35c2:	5422                	lw	s0,40(sp)
    35c4:	6145                	addi	sp,sp,48
    35c6:	8082                	ret

000035c8 <close_all_irq>:
close_all_irq():
C:\Users\16917\Desktop\Dual-core_Communication_Demo\Dual-core_Communication_Demo\SLAVE\obj/../Libraries/seekfree_libraries/zf_nvic.c:63
    35c8:	1141                	addi	sp,sp,-16
    35ca:	c622                	sw	s0,12(sp)
    35cc:	0800                	addi	s0,sp,16
C:\Users\16917\Desktop\Dual-core_Communication_Demo\Dual-core_Communication_Demo\SLAVE\obj/../Libraries/seekfree_libraries/zf_nvic.c:65
    35ce:	e000e7b7          	lui	a5,0xe000e
    35d2:	577d                	li	a4,-1
    35d4:	18e7a023          	sw	a4,384(a5) # e000e180 <_eusrstack+0xc0009180>
C:\Users\16917\Desktop\Dual-core_Communication_Demo\Dual-core_Communication_Demo\SLAVE\obj/../Libraries/seekfree_libraries/zf_nvic.c:66
    35d8:	e000e7b7          	lui	a5,0xe000e
    35dc:	577d                	li	a4,-1
    35de:	18e7a223          	sw	a4,388(a5) # e000e184 <_eusrstack+0xc0009184>
C:\Users\16917\Desktop\Dual-core_Communication_Demo\Dual-core_Communication_Demo\SLAVE\obj/../Libraries/seekfree_libraries/zf_nvic.c:67
    35e2:	0001                	nop
    35e4:	4432                	lw	s0,12(sp)
    35e6:	0141                	addi	sp,sp,16
    35e8:	8082                	ret

000035ea <sys_recover_irq>:
sys_recover_irq():
C:\Users\16917\Desktop\Dual-core_Communication_Demo\Dual-core_Communication_Demo\SLAVE\obj/../Libraries/seekfree_libraries/zf_nvic.c:77
    35ea:	1141                	addi	sp,sp,-16
    35ec:	c622                	sw	s0,12(sp)
    35ee:	0800                	addi	s0,sp,16
C:\Users\16917\Desktop\Dual-core_Communication_Demo\Dual-core_Communication_Demo\SLAVE\obj/../Libraries/seekfree_libraries/zf_nvic.c:78
    35f0:	e000e7b7          	lui	a5,0xe000e
    35f4:	20002737          	lui	a4,0x20002
    35f8:	5dc72703          	lw	a4,1500(a4) # 200025dc <irq_status>
    35fc:	10e7a023          	sw	a4,256(a5) # e000e100 <_eusrstack+0xc0009100>
C:\Users\16917\Desktop\Dual-core_Communication_Demo\Dual-core_Communication_Demo\SLAVE\obj/../Libraries/seekfree_libraries/zf_nvic.c:79
    3600:	e000e7b7          	lui	a5,0xe000e
    3604:	20002737          	lui	a4,0x20002
    3608:	5dc70713          	addi	a4,a4,1500 # 200025dc <irq_status>
    360c:	4358                	lw	a4,4(a4)
    360e:	10e7a223          	sw	a4,260(a5) # e000e104 <_eusrstack+0xc0009104>
C:\Users\16917\Desktop\Dual-core_Communication_Demo\Dual-core_Communication_Demo\SLAVE\obj/../Libraries/seekfree_libraries/zf_nvic.c:80
    3612:	0001                	nop
    3614:	4432                	lw	s0,12(sp)
    3616:	0141                	addi	sp,sp,16
    3618:	8082                	ret

0000361a <DisableGlobalIRQ>:
DisableGlobalIRQ():
C:\Users\16917\Desktop\Dual-core_Communication_Demo\Dual-core_Communication_Demo\SLAVE\obj/../Libraries/seekfree_libraries/zf_nvic.c:90
    361a:	1101                	addi	sp,sp,-32
    361c:	ce06                	sw	ra,28(sp)
    361e:	cc22                	sw	s0,24(sp)
    3620:	1000                	addi	s0,sp,32
C:\Users\16917\Desktop\Dual-core_Communication_Demo\Dual-core_Communication_Demo\SLAVE\obj/../Libraries/seekfree_libraries/zf_nvic.c:92
    3622:	200027b7          	lui	a5,0x20002
    3626:	5dc78793          	addi	a5,a5,1500 # 200025dc <irq_status>
    362a:	4705                	li	a4,1
    362c:	00e78423          	sb	a4,8(a5)
C:\Users\16917\Desktop\Dual-core_Communication_Demo\Dual-core_Communication_Demo\SLAVE\obj/../Libraries/seekfree_libraries/zf_nvic.c:93
    3630:	200027b7          	lui	a5,0x20002
    3634:	5dc7a783          	lw	a5,1500(a5) # 200025dc <irq_status>
    3638:	eb91                	bnez	a5,364c <DisableGlobalIRQ+0x32>
C:\Users\16917\Desktop\Dual-core_Communication_Demo\Dual-core_Communication_Demo\SLAVE\obj/../Libraries/seekfree_libraries/zf_nvic.c:93 (discriminator 1)
    363a:	200027b7          	lui	a5,0x20002
    363e:	5dc78793          	addi	a5,a5,1500 # 200025dc <irq_status>
    3642:	43dc                	lw	a5,4(a5)
    3644:	e781                	bnez	a5,364c <DisableGlobalIRQ+0x32>
C:\Users\16917\Desktop\Dual-core_Communication_Demo\Dual-core_Communication_Demo\SLAVE\obj/../Libraries/seekfree_libraries/zf_nvic.c:93 (discriminator 2)
    3646:	fe0407a3          	sb	zero,-17(s0)
    364a:	a021                	j	3652 <DisableGlobalIRQ+0x38>
C:\Users\16917\Desktop\Dual-core_Communication_Demo\Dual-core_Communication_Demo\SLAVE\obj/../Libraries/seekfree_libraries/zf_nvic.c:94
    364c:	4785                	li	a5,1
    364e:	fef407a3          	sb	a5,-17(s0)
C:\Users\16917\Desktop\Dual-core_Communication_Demo\Dual-core_Communication_Demo\SLAVE\obj/../Libraries/seekfree_libraries/zf_nvic.c:95
    3652:	3f9d                	jal	35c8 <close_all_irq>
C:\Users\16917\Desktop\Dual-core_Communication_Demo\Dual-core_Communication_Demo\SLAVE\obj/../Libraries/seekfree_libraries/zf_nvic.c:96
    3654:	fef44783          	lbu	a5,-17(s0)
C:\Users\16917\Desktop\Dual-core_Communication_Demo\Dual-core_Communication_Demo\SLAVE\obj/../Libraries/seekfree_libraries/zf_nvic.c:97
    3658:	853e                	mv	a0,a5
    365a:	40f2                	lw	ra,28(sp)
    365c:	4462                	lw	s0,24(sp)
    365e:	6105                	addi	sp,sp,32
    3660:	8082                	ret

00003662 <EnableGlobalIRQ>:
EnableGlobalIRQ():
C:\Users\16917\Desktop\Dual-core_Communication_Demo\Dual-core_Communication_Demo\SLAVE\obj/../Libraries/seekfree_libraries/zf_nvic.c:107
    3662:	1101                	addi	sp,sp,-32
    3664:	ce06                	sw	ra,28(sp)
    3666:	cc22                	sw	s0,24(sp)
    3668:	1000                	addi	s0,sp,32
    366a:	87aa                	mv	a5,a0
    366c:	fef407a3          	sb	a5,-17(s0)
C:\Users\16917\Desktop\Dual-core_Communication_Demo\Dual-core_Communication_Demo\SLAVE\obj/../Libraries/seekfree_libraries/zf_nvic.c:108
    3670:	fef44783          	lbu	a5,-17(s0)
    3674:	eb81                	bnez	a5,3684 <EnableGlobalIRQ+0x22>
C:\Users\16917\Desktop\Dual-core_Communication_Demo\Dual-core_Communication_Demo\SLAVE\obj/../Libraries/seekfree_libraries/zf_nvic.c:110
    3676:	200027b7          	lui	a5,0x20002
    367a:	5dc78793          	addi	a5,a5,1500 # 200025dc <irq_status>
    367e:	00078423          	sb	zero,8(a5)
C:\Users\16917\Desktop\Dual-core_Communication_Demo\Dual-core_Communication_Demo\SLAVE\obj/../Libraries/seekfree_libraries/zf_nvic.c:111
    3682:	37a5                	jal	35ea <sys_recover_irq>
C:\Users\16917\Desktop\Dual-core_Communication_Demo\Dual-core_Communication_Demo\SLAVE\obj/../Libraries/seekfree_libraries/zf_nvic.c:113
    3684:	0001                	nop
    3686:	40f2                	lw	ra,28(sp)
    3688:	4462                	lw	s0,24(sp)
    368a:	6105                	addi	sp,sp,32
    368c:	8082                	ret

0000368e <timer_pit_interrupt_ms>:
timer_pit_interrupt_ms():
C:\Users\16917\Desktop\Dual-core_Communication_Demo\Dual-core_Communication_Demo\SLAVE\obj/../Libraries/seekfree_libraries/zf_pit.c:36
    368e:	7179                	addi	sp,sp,-48
    3690:	d606                	sw	ra,44(sp)
    3692:	d422                	sw	s0,40(sp)
    3694:	1800                	addi	s0,sp,48
    3696:	fca42e23          	sw	a0,-36(s0)
    369a:	87ae                	mv	a5,a1
    369c:	fcf41d23          	sh	a5,-38(s0)
C:\Users\16917\Desktop\Dual-core_Communication_Demo\Dual-core_Communication_Demo\SLAVE\obj/../Libraries/seekfree_libraries/zf_pit.c:39
    36a0:	fdc42783          	lw	a5,-36(s0)
    36a4:	eb81                	bnez	a5,36b4 <timer_pit_interrupt_ms+0x26>
C:\Users\16917\Desktop\Dual-core_Communication_Demo\Dual-core_Communication_Demo\SLAVE\obj/../Libraries/seekfree_libraries/zf_pit.c:40
    36a6:	4585                	li	a1,1
    36a8:	6785                	lui	a5,0x1
    36aa:	80078513          	addi	a0,a5,-2048 # 800 <__stack_size>
    36ae:	fd1fd0ef          	jal	ra,167e <RCC_APB2PeriphClockCmd>
    36b2:	a835                	j	36ee <timer_pit_interrupt_ms+0x60>
C:\Users\16917\Desktop\Dual-core_Communication_Demo\Dual-core_Communication_Demo\SLAVE\obj/../Libraries/seekfree_libraries/zf_pit.c:41
    36b4:	fdc42703          	lw	a4,-36(s0)
    36b8:	4785                	li	a5,1
    36ba:	00f71763          	bne	a4,a5,36c8 <timer_pit_interrupt_ms+0x3a>
C:\Users\16917\Desktop\Dual-core_Communication_Demo\Dual-core_Communication_Demo\SLAVE\obj/../Libraries/seekfree_libraries/zf_pit.c:42
    36be:	4585                	li	a1,1
    36c0:	4505                	li	a0,1
    36c2:	802fe0ef          	jal	ra,16c4 <RCC_APB1PeriphClockCmd>
    36c6:	a025                	j	36ee <timer_pit_interrupt_ms+0x60>
C:\Users\16917\Desktop\Dual-core_Communication_Demo\Dual-core_Communication_Demo\SLAVE\obj/../Libraries/seekfree_libraries/zf_pit.c:43
    36c8:	fdc42703          	lw	a4,-36(s0)
    36cc:	4789                	li	a5,2
    36ce:	00f71763          	bne	a4,a5,36dc <timer_pit_interrupt_ms+0x4e>
C:\Users\16917\Desktop\Dual-core_Communication_Demo\Dual-core_Communication_Demo\SLAVE\obj/../Libraries/seekfree_libraries/zf_pit.c:44
    36d2:	4585                	li	a1,1
    36d4:	4509                	li	a0,2
    36d6:	feffd0ef          	jal	ra,16c4 <RCC_APB1PeriphClockCmd>
    36da:	a811                	j	36ee <timer_pit_interrupt_ms+0x60>
C:\Users\16917\Desktop\Dual-core_Communication_Demo\Dual-core_Communication_Demo\SLAVE\obj/../Libraries/seekfree_libraries/zf_pit.c:45
    36dc:	fdc42703          	lw	a4,-36(s0)
    36e0:	478d                	li	a5,3
    36e2:	00f71663          	bne	a4,a5,36ee <timer_pit_interrupt_ms+0x60>
C:\Users\16917\Desktop\Dual-core_Communication_Demo\Dual-core_Communication_Demo\SLAVE\obj/../Libraries/seekfree_libraries/zf_pit.c:46
    36e6:	4585                	li	a1,1
    36e8:	4511                	li	a0,4
    36ea:	fdbfd0ef          	jal	ra,16c4 <RCC_APB1PeriphClockCmd>
C:\Users\16917\Desktop\Dual-core_Communication_Demo\Dual-core_Communication_Demo\SLAVE\obj/../Libraries/seekfree_libraries/zf_pit.c:50
    36ee:	fda45783          	lhu	a5,-38(s0)
    36f2:	ef91                	bnez	a5,370e <timer_pit_interrupt_ms+0x80>
C:\Users\16917\Desktop\Dual-core_Communication_Demo\Dual-core_Communication_Demo\SLAVE\obj/../Libraries/seekfree_libraries/zf_pit.c:50 (discriminator 1)
    36f4:	6799                	lui	a5,0x6
    36f6:	aa078693          	addi	a3,a5,-1376 # 5aa0 <_exit+0x46>
    36fa:	6799                	lui	a5,0x6
    36fc:	12478613          	addi	a2,a5,292 # 6124 <__func__.3548>
    3700:	03200593          	li	a1,50
    3704:	6799                	lui	a5,0x6
    3706:	aa478513          	addi	a0,a5,-1372 # 5aa4 <_exit+0x4a>
    370a:	0b0010ef          	jal	ra,47ba <__assert_func>
C:\Users\16917\Desktop\Dual-core_Communication_Demo\Dual-core_Communication_Demo\SLAVE\obj/../Libraries/seekfree_libraries/zf_pit.c:53
    370e:	8401a703          	lw	a4,-1984(gp) # 200000f8 <sys_clk>
    3712:	7d000793          	li	a5,2000
    3716:	02f757b3          	divu	a5,a4,a5
    371a:	07c2                	slli	a5,a5,0x10
    371c:	83c1                	srli	a5,a5,0x10
    371e:	17fd                	addi	a5,a5,-1
    3720:	07c2                	slli	a5,a5,0x10
    3722:	83c1                	srli	a5,a5,0x10
    3724:	fef41423          	sh	a5,-24(s0)
C:\Users\16917\Desktop\Dual-core_Communication_Demo\Dual-core_Communication_Demo\SLAVE\obj/../Libraries/seekfree_libraries/zf_pit.c:54
    3728:	fda45783          	lhu	a5,-38(s0)
    372c:	0786                	slli	a5,a5,0x1
    372e:	07c2                	slli	a5,a5,0x10
    3730:	83c1                	srli	a5,a5,0x10
    3732:	17fd                	addi	a5,a5,-1
    3734:	07c2                	slli	a5,a5,0x10
    3736:	83c1                	srli	a5,a5,0x10
    3738:	fef41223          	sh	a5,-28(s0)
C:\Users\16917\Desktop\Dual-core_Communication_Demo\Dual-core_Communication_Demo\SLAVE\obj/../Libraries/seekfree_libraries/zf_pit.c:56
    373c:	fe041523          	sh	zero,-22(s0)
C:\Users\16917\Desktop\Dual-core_Communication_Demo\Dual-core_Communication_Demo\SLAVE\obj/../Libraries/seekfree_libraries/zf_pit.c:57
    3740:	fe041323          	sh	zero,-26(s0)
C:\Users\16917\Desktop\Dual-core_Communication_Demo\Dual-core_Communication_Demo\SLAVE\obj/../Libraries/seekfree_libraries/zf_pit.c:58
    3744:	fe040623          	sb	zero,-20(s0)
C:\Users\16917\Desktop\Dual-core_Communication_Demo\Dual-core_Communication_Demo\SLAVE\obj/../Libraries/seekfree_libraries/zf_pit.c:59
    3748:	6799                	lui	a5,0x6
    374a:	fdc42703          	lw	a4,-36(s0)
    374e:	070a                	slli	a4,a4,0x2
    3750:	13c78793          	addi	a5,a5,316 # 613c <TIMERN>
    3754:	97ba                	add	a5,a5,a4
    3756:	439c                	lw	a5,0(a5)
    3758:	873e                	mv	a4,a5
    375a:	fe440793          	addi	a5,s0,-28
    375e:	85be                	mv	a1,a5
    3760:	853a                	mv	a0,a4
    3762:	8fafe0ef          	jal	ra,185c <TIM_TimeBaseInit>
C:\Users\16917\Desktop\Dual-core_Communication_Demo\Dual-core_Communication_Demo\SLAVE\obj/../Libraries/seekfree_libraries/zf_pit.c:61
    3766:	6799                	lui	a5,0x6
    3768:	fdc42703          	lw	a4,-36(s0)
    376c:	070a                	slli	a4,a4,0x2
    376e:	13c78793          	addi	a5,a5,316 # 613c <TIMERN>
    3772:	97ba                	add	a5,a5,a4
    3774:	439c                	lw	a5,0(a5)
    3776:	4605                	li	a2,1
    3778:	4585                	li	a1,1
    377a:	853e                	mv	a0,a5
    377c:	a6efe0ef          	jal	ra,19ea <TIM_ITConfig>
C:\Users\16917\Desktop\Dual-core_Communication_Demo\Dual-core_Communication_Demo\SLAVE\obj/../Libraries/seekfree_libraries/zf_pit.c:62
    3780:	6799                	lui	a5,0x6
    3782:	fdc42703          	lw	a4,-36(s0)
    3786:	070a                	slli	a4,a4,0x2
    3788:	13c78793          	addi	a5,a5,316 # 613c <TIMERN>
    378c:	97ba                	add	a5,a5,a4
    378e:	439c                	lw	a5,0(a5)
    3790:	4585                	li	a1,1
    3792:	853e                	mv	a0,a5
    3794:	e80fe0ef          	jal	ra,1e14 <TIM_ClearITPendingBit>
C:\Users\16917\Desktop\Dual-core_Communication_Demo\Dual-core_Communication_Demo\SLAVE\obj/../Libraries/seekfree_libraries/zf_pit.c:65
    3798:	fdc42783          	lw	a5,-36(s0)
    379c:	eb81                	bnez	a5,37ac <timer_pit_interrupt_ms+0x11e>
C:\Users\16917\Desktop\Dual-core_Communication_Demo\Dual-core_Communication_Demo\SLAVE\obj/../Libraries/seekfree_libraries/zf_pit.c:66
    379e:	4685                	li	a3,1
    37a0:	4609                	li	a2,2
    37a2:	4585                	li	a1,1
    37a4:	02900513          	li	a0,41
    37a8:	3b95                	jal	351c <nvic_init>
    37aa:	a0b1                	j	37f6 <timer_pit_interrupt_ms+0x168>
C:\Users\16917\Desktop\Dual-core_Communication_Demo\Dual-core_Communication_Demo\SLAVE\obj/../Libraries/seekfree_libraries/zf_pit.c:67
    37ac:	fdc42703          	lw	a4,-36(s0)
    37b0:	4785                	li	a5,1
    37b2:	00f71963          	bne	a4,a5,37c4 <timer_pit_interrupt_ms+0x136>
C:\Users\16917\Desktop\Dual-core_Communication_Demo\Dual-core_Communication_Demo\SLAVE\obj/../Libraries/seekfree_libraries/zf_pit.c:68
    37b6:	4685                	li	a3,1
    37b8:	4609                	li	a2,2
    37ba:	4585                	li	a1,1
    37bc:	02c00513          	li	a0,44
    37c0:	3bb1                	jal	351c <nvic_init>
    37c2:	a815                	j	37f6 <timer_pit_interrupt_ms+0x168>
C:\Users\16917\Desktop\Dual-core_Communication_Demo\Dual-core_Communication_Demo\SLAVE\obj/../Libraries/seekfree_libraries/zf_pit.c:69
    37c4:	fdc42703          	lw	a4,-36(s0)
    37c8:	4789                	li	a5,2
    37ca:	00f71a63          	bne	a4,a5,37de <timer_pit_interrupt_ms+0x150>
C:\Users\16917\Desktop\Dual-core_Communication_Demo\Dual-core_Communication_Demo\SLAVE\obj/../Libraries/seekfree_libraries/zf_pit.c:70
    37ce:	4685                	li	a3,1
    37d0:	4609                	li	a2,2
    37d2:	4585                	li	a1,1
    37d4:	02d00513          	li	a0,45
    37d8:	d45ff0ef          	jal	ra,351c <nvic_init>
    37dc:	a829                	j	37f6 <timer_pit_interrupt_ms+0x168>
C:\Users\16917\Desktop\Dual-core_Communication_Demo\Dual-core_Communication_Demo\SLAVE\obj/../Libraries/seekfree_libraries/zf_pit.c:71
    37de:	fdc42703          	lw	a4,-36(s0)
    37e2:	478d                	li	a5,3
    37e4:	00f71963          	bne	a4,a5,37f6 <timer_pit_interrupt_ms+0x168>
C:\Users\16917\Desktop\Dual-core_Communication_Demo\Dual-core_Communication_Demo\SLAVE\obj/../Libraries/seekfree_libraries/zf_pit.c:72
    37e8:	4685                	li	a3,1
    37ea:	4609                	li	a2,2
    37ec:	4585                	li	a1,1
    37ee:	02e00513          	li	a0,46
    37f2:	d2bff0ef          	jal	ra,351c <nvic_init>
C:\Users\16917\Desktop\Dual-core_Communication_Demo\Dual-core_Communication_Demo\SLAVE\obj/../Libraries/seekfree_libraries/zf_pit.c:74
    37f6:	6799                	lui	a5,0x6
    37f8:	fdc42703          	lw	a4,-36(s0)
    37fc:	070a                	slli	a4,a4,0x2
    37fe:	13c78793          	addi	a5,a5,316 # 613c <TIMERN>
    3802:	97ba                	add	a5,a5,a4
    3804:	439c                	lw	a5,0(a5)
    3806:	4585                	li	a1,1
    3808:	853e                	mv	a0,a5
    380a:	988fe0ef          	jal	ra,1992 <TIM_Cmd>
C:\Users\16917\Desktop\Dual-core_Communication_Demo\Dual-core_Communication_Demo\SLAVE\obj/../Libraries/seekfree_libraries/zf_pit.c:76
    380e:	0001                	nop
    3810:	50b2                	lw	ra,44(sp)
    3812:	5422                	lw	s0,40(sp)
    3814:	6145                	addi	sp,sp,48
    3816:	8082                	ret

00003818 <timer_gpio_quad_init>:
timer_gpio_quad_init():
C:\Users\16917\Desktop\Dual-core_Communication_Demo\Dual-core_Communication_Demo\SLAVE\obj/../Libraries/seekfree_libraries/zf_qtimer.c:40
    3818:	1101                	addi	sp,sp,-32
    381a:	ce06                	sw	ra,28(sp)
    381c:	cc22                	sw	s0,24(sp)
    381e:	1000                	addi	s0,sp,32
    3820:	fea42623          	sw	a0,-20(s0)
    3824:	feb42423          	sw	a1,-24(s0)
C:\Users\16917\Desktop\Dual-core_Communication_Demo\Dual-core_Communication_Demo\SLAVE\obj/../Libraries/seekfree_libraries/zf_qtimer.c:41
    3828:	fec42783          	lw	a5,-20(s0)
    382c:	eb81                	bnez	a5,383c <timer_gpio_quad_init+0x24>
C:\Users\16917\Desktop\Dual-core_Communication_Demo\Dual-core_Communication_Demo\SLAVE\obj/../Libraries/seekfree_libraries/zf_qtimer.c:41 (discriminator 1)
    382e:	4691                	li	a3,4
    3830:	4601                	li	a2,0
    3832:	4581                	li	a1,0
    3834:	4521                	li	a0,8
    3836:	ac3ff0ef          	jal	ra,32f8 <gpio_init>
    383a:	a859                	j	38d0 <timer_gpio_quad_init+0xb8>
C:\Users\16917\Desktop\Dual-core_Communication_Demo\Dual-core_Communication_Demo\SLAVE\obj/../Libraries/seekfree_libraries/zf_qtimer.c:42
    383c:	fec42703          	lw	a4,-20(s0)
    3840:	4789                	li	a5,2
    3842:	00f71963          	bne	a4,a5,3854 <timer_gpio_quad_init+0x3c>
C:\Users\16917\Desktop\Dual-core_Communication_Demo\Dual-core_Communication_Demo\SLAVE\obj/../Libraries/seekfree_libraries/zf_qtimer.c:42 (discriminator 1)
    3846:	4691                	li	a3,4
    3848:	4601                	li	a2,0
    384a:	4581                	li	a1,0
    384c:	4501                	li	a0,0
    384e:	aabff0ef          	jal	ra,32f8 <gpio_init>
    3852:	a8bd                	j	38d0 <timer_gpio_quad_init+0xb8>
C:\Users\16917\Desktop\Dual-core_Communication_Demo\Dual-core_Communication_Demo\SLAVE\obj/../Libraries/seekfree_libraries/zf_qtimer.c:43
    3854:	fec42703          	lw	a4,-20(s0)
    3858:	4791                	li	a5,4
    385a:	00f71963          	bne	a4,a5,386c <timer_gpio_quad_init+0x54>
C:\Users\16917\Desktop\Dual-core_Communication_Demo\Dual-core_Communication_Demo\SLAVE\obj/../Libraries/seekfree_libraries/zf_qtimer.c:43 (discriminator 1)
    385e:	4691                	li	a3,4
    3860:	4601                	li	a2,0
    3862:	4581                	li	a1,0
    3864:	453d                	li	a0,15
    3866:	a93ff0ef          	jal	ra,32f8 <gpio_init>
    386a:	a09d                	j	38d0 <timer_gpio_quad_init+0xb8>
C:\Users\16917\Desktop\Dual-core_Communication_Demo\Dual-core_Communication_Demo\SLAVE\obj/../Libraries/seekfree_libraries/zf_qtimer.c:44
    386c:	fec42703          	lw	a4,-20(s0)
    3870:	4799                	li	a5,6
    3872:	00f71963          	bne	a4,a5,3884 <timer_gpio_quad_init+0x6c>
C:\Users\16917\Desktop\Dual-core_Communication_Demo\Dual-core_Communication_Demo\SLAVE\obj/../Libraries/seekfree_libraries/zf_qtimer.c:44 (discriminator 1)
    3876:	4691                	li	a3,4
    3878:	4601                	li	a2,0
    387a:	4581                	li	a1,0
    387c:	4519                	li	a0,6
    387e:	a7bff0ef          	jal	ra,32f8 <gpio_init>
    3882:	a0b9                	j	38d0 <timer_gpio_quad_init+0xb8>
C:\Users\16917\Desktop\Dual-core_Communication_Demo\Dual-core_Communication_Demo\SLAVE\obj/../Libraries/seekfree_libraries/zf_qtimer.c:45
    3884:	fec42703          	lw	a4,-20(s0)
    3888:	47a1                	li	a5,8
    388a:	00f71a63          	bne	a4,a5,389e <timer_gpio_quad_init+0x86>
C:\Users\16917\Desktop\Dual-core_Communication_Demo\Dual-core_Communication_Demo\SLAVE\obj/../Libraries/seekfree_libraries/zf_qtimer.c:45 (discriminator 1)
    388e:	4691                	li	a3,4
    3890:	4601                	li	a2,0
    3892:	4581                	li	a1,0
    3894:	04600513          	li	a0,70
    3898:	a61ff0ef          	jal	ra,32f8 <gpio_init>
    389c:	a815                	j	38d0 <timer_gpio_quad_init+0xb8>
C:\Users\16917\Desktop\Dual-core_Communication_Demo\Dual-core_Communication_Demo\SLAVE\obj/../Libraries/seekfree_libraries/zf_qtimer.c:46
    389e:	fec42703          	lw	a4,-20(s0)
    38a2:	47a9                	li	a5,10
    38a4:	00f71a63          	bne	a4,a5,38b8 <timer_gpio_quad_init+0xa0>
C:\Users\16917\Desktop\Dual-core_Communication_Demo\Dual-core_Communication_Demo\SLAVE\obj/../Libraries/seekfree_libraries/zf_qtimer.c:46 (discriminator 1)
    38a8:	4691                	li	a3,4
    38aa:	4601                	li	a2,0
    38ac:	4581                	li	a1,0
    38ae:	02400513          	li	a0,36
    38b2:	a47ff0ef          	jal	ra,32f8 <gpio_init>
    38b6:	a829                	j	38d0 <timer_gpio_quad_init+0xb8>
C:\Users\16917\Desktop\Dual-core_Communication_Demo\Dual-core_Communication_Demo\SLAVE\obj/../Libraries/seekfree_libraries/zf_qtimer.c:47
    38b8:	fec42703          	lw	a4,-20(s0)
    38bc:	47b1                	li	a5,12
    38be:	00f71963          	bne	a4,a5,38d0 <timer_gpio_quad_init+0xb8>
C:\Users\16917\Desktop\Dual-core_Communication_Demo\Dual-core_Communication_Demo\SLAVE\obj/../Libraries/seekfree_libraries/zf_qtimer.c:47 (discriminator 1)
    38c2:	4691                	li	a3,4
    38c4:	4601                	li	a2,0
    38c6:	4581                	li	a1,0
    38c8:	02600513          	li	a0,38
    38cc:	a2dff0ef          	jal	ra,32f8 <gpio_init>
C:\Users\16917\Desktop\Dual-core_Communication_Demo\Dual-core_Communication_Demo\SLAVE\obj/../Libraries/seekfree_libraries/zf_qtimer.c:49
    38d0:	fe842703          	lw	a4,-24(s0)
    38d4:	4785                	li	a5,1
    38d6:	00f71963          	bne	a4,a5,38e8 <timer_gpio_quad_init+0xd0>
C:\Users\16917\Desktop\Dual-core_Communication_Demo\Dual-core_Communication_Demo\SLAVE\obj/../Libraries/seekfree_libraries/zf_qtimer.c:49 (discriminator 1)
    38da:	4691                	li	a3,4
    38dc:	4601                	li	a2,0
    38de:	4581                	li	a1,0
    38e0:	4525                	li	a0,9
    38e2:	a17ff0ef          	jal	ra,32f8 <gpio_init>
C:\Users\16917\Desktop\Dual-core_Communication_Demo\Dual-core_Communication_Demo\SLAVE\obj/../Libraries/seekfree_libraries/zf_qtimer.c:57 (discriminator 1)
    38e6:	a861                	j	397e <timer_gpio_quad_init+0x166>
C:\Users\16917\Desktop\Dual-core_Communication_Demo\Dual-core_Communication_Demo\SLAVE\obj/../Libraries/seekfree_libraries/zf_qtimer.c:50
    38e8:	fe842703          	lw	a4,-24(s0)
    38ec:	478d                	li	a5,3
    38ee:	00f71963          	bne	a4,a5,3900 <timer_gpio_quad_init+0xe8>
C:\Users\16917\Desktop\Dual-core_Communication_Demo\Dual-core_Communication_Demo\SLAVE\obj/../Libraries/seekfree_libraries/zf_qtimer.c:50 (discriminator 1)
    38f2:	4691                	li	a3,4
    38f4:	4601                	li	a2,0
    38f6:	4581                	li	a1,0
    38f8:	4505                	li	a0,1
    38fa:	9ffff0ef          	jal	ra,32f8 <gpio_init>
C:\Users\16917\Desktop\Dual-core_Communication_Demo\Dual-core_Communication_Demo\SLAVE\obj/../Libraries/seekfree_libraries/zf_qtimer.c:57 (discriminator 1)
    38fe:	a041                	j	397e <timer_gpio_quad_init+0x166>
C:\Users\16917\Desktop\Dual-core_Communication_Demo\Dual-core_Communication_Demo\SLAVE\obj/../Libraries/seekfree_libraries/zf_qtimer.c:51
    3900:	fe842703          	lw	a4,-24(s0)
    3904:	4795                	li	a5,5
    3906:	00f71a63          	bne	a4,a5,391a <timer_gpio_quad_init+0x102>
C:\Users\16917\Desktop\Dual-core_Communication_Demo\Dual-core_Communication_Demo\SLAVE\obj/../Libraries/seekfree_libraries/zf_qtimer.c:51 (discriminator 1)
    390a:	4691                	li	a3,4
    390c:	4601                	li	a2,0
    390e:	4581                	li	a1,0
    3910:	02300513          	li	a0,35
    3914:	9e5ff0ef          	jal	ra,32f8 <gpio_init>
C:\Users\16917\Desktop\Dual-core_Communication_Demo\Dual-core_Communication_Demo\SLAVE\obj/../Libraries/seekfree_libraries/zf_qtimer.c:57 (discriminator 1)
    3918:	a09d                	j	397e <timer_gpio_quad_init+0x166>
C:\Users\16917\Desktop\Dual-core_Communication_Demo\Dual-core_Communication_Demo\SLAVE\obj/../Libraries/seekfree_libraries/zf_qtimer.c:52
    391a:	fe842703          	lw	a4,-24(s0)
    391e:	479d                	li	a5,7
    3920:	00f71963          	bne	a4,a5,3932 <timer_gpio_quad_init+0x11a>
C:\Users\16917\Desktop\Dual-core_Communication_Demo\Dual-core_Communication_Demo\SLAVE\obj/../Libraries/seekfree_libraries/zf_qtimer.c:52 (discriminator 1)
    3924:	4691                	li	a3,4
    3926:	4601                	li	a2,0
    3928:	4581                	li	a1,0
    392a:	451d                	li	a0,7
    392c:	9cdff0ef          	jal	ra,32f8 <gpio_init>
C:\Users\16917\Desktop\Dual-core_Communication_Demo\Dual-core_Communication_Demo\SLAVE\obj/../Libraries/seekfree_libraries/zf_qtimer.c:57 (discriminator 1)
    3930:	a0b9                	j	397e <timer_gpio_quad_init+0x166>
C:\Users\16917\Desktop\Dual-core_Communication_Demo\Dual-core_Communication_Demo\SLAVE\obj/../Libraries/seekfree_libraries/zf_qtimer.c:53
    3932:	fe842703          	lw	a4,-24(s0)
    3936:	47a5                	li	a5,9
    3938:	00f71a63          	bne	a4,a5,394c <timer_gpio_quad_init+0x134>
C:\Users\16917\Desktop\Dual-core_Communication_Demo\Dual-core_Communication_Demo\SLAVE\obj/../Libraries/seekfree_libraries/zf_qtimer.c:53 (discriminator 1)
    393c:	4691                	li	a3,4
    393e:	4601                	li	a2,0
    3940:	4581                	li	a1,0
    3942:	04700513          	li	a0,71
    3946:	9b3ff0ef          	jal	ra,32f8 <gpio_init>
C:\Users\16917\Desktop\Dual-core_Communication_Demo\Dual-core_Communication_Demo\SLAVE\obj/../Libraries/seekfree_libraries/zf_qtimer.c:57 (discriminator 1)
    394a:	a815                	j	397e <timer_gpio_quad_init+0x166>
C:\Users\16917\Desktop\Dual-core_Communication_Demo\Dual-core_Communication_Demo\SLAVE\obj/../Libraries/seekfree_libraries/zf_qtimer.c:54
    394c:	fe842703          	lw	a4,-24(s0)
    3950:	47ad                	li	a5,11
    3952:	00f71a63          	bne	a4,a5,3966 <timer_gpio_quad_init+0x14e>
C:\Users\16917\Desktop\Dual-core_Communication_Demo\Dual-core_Communication_Demo\SLAVE\obj/../Libraries/seekfree_libraries/zf_qtimer.c:54 (discriminator 1)
    3956:	4691                	li	a3,4
    3958:	4601                	li	a2,0
    395a:	4581                	li	a1,0
    395c:	02500513          	li	a0,37
    3960:	999ff0ef          	jal	ra,32f8 <gpio_init>
C:\Users\16917\Desktop\Dual-core_Communication_Demo\Dual-core_Communication_Demo\SLAVE\obj/../Libraries/seekfree_libraries/zf_qtimer.c:57 (discriminator 1)
    3964:	a829                	j	397e <timer_gpio_quad_init+0x166>
C:\Users\16917\Desktop\Dual-core_Communication_Demo\Dual-core_Communication_Demo\SLAVE\obj/../Libraries/seekfree_libraries/zf_qtimer.c:55
    3966:	fe842703          	lw	a4,-24(s0)
    396a:	47b5                	li	a5,13
    396c:	00f71963          	bne	a4,a5,397e <timer_gpio_quad_init+0x166>
C:\Users\16917\Desktop\Dual-core_Communication_Demo\Dual-core_Communication_Demo\SLAVE\obj/../Libraries/seekfree_libraries/zf_qtimer.c:55 (discriminator 1)
    3970:	4691                	li	a3,4
    3972:	4601                	li	a2,0
    3974:	4581                	li	a1,0
    3976:	02700513          	li	a0,39
    397a:	97fff0ef          	jal	ra,32f8 <gpio_init>
C:\Users\16917\Desktop\Dual-core_Communication_Demo\Dual-core_Communication_Demo\SLAVE\obj/../Libraries/seekfree_libraries/zf_qtimer.c:57
    397e:	0001                	nop
    3980:	40f2                	lw	ra,28(sp)
    3982:	4462                	lw	s0,24(sp)
    3984:	6105                	addi	sp,sp,32
    3986:	8082                	ret

00003988 <timer_quad_init>:
timer_quad_init():
C:\Users\16917\Desktop\Dual-core_Communication_Demo\Dual-core_Communication_Demo\SLAVE\obj/../Libraries/seekfree_libraries/zf_qtimer.c:69
    3988:	7179                	addi	sp,sp,-48
    398a:	d606                	sw	ra,44(sp)
    398c:	d422                	sw	s0,40(sp)
    398e:	1800                	addi	s0,sp,48
    3990:	fca42e23          	sw	a0,-36(s0)
    3994:	fcb42c23          	sw	a1,-40(s0)
    3998:	fcc42a23          	sw	a2,-44(s0)
C:\Users\16917\Desktop\Dual-core_Communication_Demo\Dual-core_Communication_Demo\SLAVE\obj/../Libraries/seekfree_libraries/zf_qtimer.c:72
    399c:	fdc42783          	lw	a5,-36(s0)
    39a0:	eb81                	bnez	a5,39b0 <timer_quad_init+0x28>
C:\Users\16917\Desktop\Dual-core_Communication_Demo\Dual-core_Communication_Demo\SLAVE\obj/../Libraries/seekfree_libraries/zf_qtimer.c:72 (discriminator 1)
    39a2:	4585                	li	a1,1
    39a4:	6785                	lui	a5,0x1
    39a6:	80078513          	addi	a0,a5,-2048 # 800 <__stack_size>
    39aa:	cd5fd0ef          	jal	ra,167e <RCC_APB2PeriphClockCmd>
    39ae:	a835                	j	39ea <timer_quad_init+0x62>
C:\Users\16917\Desktop\Dual-core_Communication_Demo\Dual-core_Communication_Demo\SLAVE\obj/../Libraries/seekfree_libraries/zf_qtimer.c:73
    39b0:	fdc42703          	lw	a4,-36(s0)
    39b4:	4785                	li	a5,1
    39b6:	00f71763          	bne	a4,a5,39c4 <timer_quad_init+0x3c>
C:\Users\16917\Desktop\Dual-core_Communication_Demo\Dual-core_Communication_Demo\SLAVE\obj/../Libraries/seekfree_libraries/zf_qtimer.c:73 (discriminator 1)
    39ba:	4585                	li	a1,1
    39bc:	4505                	li	a0,1
    39be:	d07fd0ef          	jal	ra,16c4 <RCC_APB1PeriphClockCmd>
    39c2:	a025                	j	39ea <timer_quad_init+0x62>
C:\Users\16917\Desktop\Dual-core_Communication_Demo\Dual-core_Communication_Demo\SLAVE\obj/../Libraries/seekfree_libraries/zf_qtimer.c:74
    39c4:	fdc42703          	lw	a4,-36(s0)
    39c8:	4789                	li	a5,2
    39ca:	00f71763          	bne	a4,a5,39d8 <timer_quad_init+0x50>
C:\Users\16917\Desktop\Dual-core_Communication_Demo\Dual-core_Communication_Demo\SLAVE\obj/../Libraries/seekfree_libraries/zf_qtimer.c:74 (discriminator 1)
    39ce:	4585                	li	a1,1
    39d0:	4509                	li	a0,2
    39d2:	cf3fd0ef          	jal	ra,16c4 <RCC_APB1PeriphClockCmd>
    39d6:	a811                	j	39ea <timer_quad_init+0x62>
C:\Users\16917\Desktop\Dual-core_Communication_Demo\Dual-core_Communication_Demo\SLAVE\obj/../Libraries/seekfree_libraries/zf_qtimer.c:75
    39d8:	fdc42703          	lw	a4,-36(s0)
    39dc:	478d                	li	a5,3
    39de:	00f71663          	bne	a4,a5,39ea <timer_quad_init+0x62>
C:\Users\16917\Desktop\Dual-core_Communication_Demo\Dual-core_Communication_Demo\SLAVE\obj/../Libraries/seekfree_libraries/zf_qtimer.c:75 (discriminator 1)
    39e2:	4585                	li	a1,1
    39e4:	4511                	li	a0,4
    39e6:	cdffd0ef          	jal	ra,16c4 <RCC_APB1PeriphClockCmd>
C:\Users\16917\Desktop\Dual-core_Communication_Demo\Dual-core_Communication_Demo\SLAVE\obj/../Libraries/seekfree_libraries/zf_qtimer.c:77
    39ea:	fd442583          	lw	a1,-44(s0)
    39ee:	fd842503          	lw	a0,-40(s0)
    39f2:	351d                	jal	3818 <timer_gpio_quad_init>
C:\Users\16917\Desktop\Dual-core_Communication_Demo\Dual-core_Communication_Demo\SLAVE\obj/../Libraries/seekfree_libraries/zf_qtimer.c:79
    39f4:	4585                	li	a1,1
    39f6:	4505                	li	a0,1
    39f8:	c87fd0ef          	jal	ra,167e <RCC_APB2PeriphClockCmd>
C:\Users\16917\Desktop\Dual-core_Communication_Demo\Dual-core_Communication_Demo\SLAVE\obj/../Libraries/seekfree_libraries/zf_qtimer.c:81
    39fc:	fd842703          	lw	a4,-40(s0)
    3a00:	4791                	li	a5,4
    3a02:	00f71f63          	bne	a4,a5,3a20 <timer_quad_init+0x98>
C:\Users\16917\Desktop\Dual-core_Communication_Demo\Dual-core_Communication_Demo\SLAVE\obj/../Libraries/seekfree_libraries/zf_qtimer.c:81 (discriminator 1)
    3a06:	fd442703          	lw	a4,-44(s0)
    3a0a:	4795                	li	a5,5
    3a0c:	00f71a63          	bne	a4,a5,3a20 <timer_quad_init+0x98>
C:\Users\16917\Desktop\Dual-core_Communication_Demo\Dual-core_Communication_Demo\SLAVE\obj/../Libraries/seekfree_libraries/zf_qtimer.c:82
    3a10:	4585                	li	a1,1
    3a12:	001807b7          	lui	a5,0x180
    3a16:	30078513          	addi	a0,a5,768 # 180300 <_data_lma+0x17a0b8>
    3a1a:	ed4fd0ef          	jal	ra,10ee <GPIO_PinRemapConfig>
    3a1e:	a0a1                	j	3a66 <timer_quad_init+0xde>
C:\Users\16917\Desktop\Dual-core_Communication_Demo\Dual-core_Communication_Demo\SLAVE\obj/../Libraries/seekfree_libraries/zf_qtimer.c:83
    3a20:	fd842703          	lw	a4,-40(s0)
    3a24:	47a1                	li	a5,8
    3a26:	00f71f63          	bne	a4,a5,3a44 <timer_quad_init+0xbc>
C:\Users\16917\Desktop\Dual-core_Communication_Demo\Dual-core_Communication_Demo\SLAVE\obj/../Libraries/seekfree_libraries/zf_qtimer.c:83 (discriminator 1)
    3a2a:	fd442703          	lw	a4,-44(s0)
    3a2e:	47a5                	li	a5,9
    3a30:	00f71a63          	bne	a4,a5,3a44 <timer_quad_init+0xbc>
C:\Users\16917\Desktop\Dual-core_Communication_Demo\Dual-core_Communication_Demo\SLAVE\obj/../Libraries/seekfree_libraries/zf_qtimer.c:84
    3a34:	4585                	li	a1,1
    3a36:	001a17b7          	lui	a5,0x1a1
    3a3a:	c0078513          	addi	a0,a5,-1024 # 1a0c00 <_data_lma+0x19a9b8>
    3a3e:	eb0fd0ef          	jal	ra,10ee <GPIO_PinRemapConfig>
    3a42:	a015                	j	3a66 <timer_quad_init+0xde>
C:\Users\16917\Desktop\Dual-core_Communication_Demo\Dual-core_Communication_Demo\SLAVE\obj/../Libraries/seekfree_libraries/zf_qtimer.c:85
    3a44:	fd842703          	lw	a4,-40(s0)
    3a48:	47a9                	li	a5,10
    3a4a:	00f71e63          	bne	a4,a5,3a66 <timer_quad_init+0xde>
C:\Users\16917\Desktop\Dual-core_Communication_Demo\Dual-core_Communication_Demo\SLAVE\obj/../Libraries/seekfree_libraries/zf_qtimer.c:85 (discriminator 1)
    3a4e:	fd442703          	lw	a4,-44(s0)
    3a52:	47ad                	li	a5,11
    3a54:	00f71963          	bne	a4,a5,3a66 <timer_quad_init+0xde>
C:\Users\16917\Desktop\Dual-core_Communication_Demo\Dual-core_Communication_Demo\SLAVE\obj/../Libraries/seekfree_libraries/zf_qtimer.c:86
    3a58:	4585                	li	a1,1
    3a5a:	001a17b7          	lui	a5,0x1a1
    3a5e:	80078513          	addi	a0,a5,-2048 # 1a0800 <_data_lma+0x19a5b8>
    3a62:	e8cfd0ef          	jal	ra,10ee <GPIO_PinRemapConfig>
C:\Users\16917\Desktop\Dual-core_Communication_Demo\Dual-core_Communication_Demo\SLAVE\obj/../Libraries/seekfree_libraries/zf_qtimer.c:88
    3a66:	fe440793          	addi	a5,s0,-28
    3a6a:	853e                	mv	a0,a5
    3a6c:	eebfd0ef          	jal	ra,1956 <TIM_TimeBaseStructInit>
C:\Users\16917\Desktop\Dual-core_Communication_Demo\Dual-core_Communication_Demo\SLAVE\obj/../Libraries/seekfree_libraries/zf_qtimer.c:89
    3a70:	4785                	li	a5,1
    3a72:	fef41223          	sh	a5,-28(s0)
C:\Users\16917\Desktop\Dual-core_Communication_Demo\Dual-core_Communication_Demo\SLAVE\obj/../Libraries/seekfree_libraries/zf_qtimer.c:90
    3a76:	57fd                	li	a5,-1
    3a78:	fef41423          	sh	a5,-24(s0)
C:\Users\16917\Desktop\Dual-core_Communication_Demo\Dual-core_Communication_Demo\SLAVE\obj/../Libraries/seekfree_libraries/zf_qtimer.c:91
    3a7c:	fe041523          	sh	zero,-22(s0)
C:\Users\16917\Desktop\Dual-core_Communication_Demo\Dual-core_Communication_Demo\SLAVE\obj/../Libraries/seekfree_libraries/zf_qtimer.c:92
    3a80:	fe041323          	sh	zero,-26(s0)
C:\Users\16917\Desktop\Dual-core_Communication_Demo\Dual-core_Communication_Demo\SLAVE\obj/../Libraries/seekfree_libraries/zf_qtimer.c:93
    3a84:	fe040623          	sb	zero,-20(s0)
C:\Users\16917\Desktop\Dual-core_Communication_Demo\Dual-core_Communication_Demo\SLAVE\obj/../Libraries/seekfree_libraries/zf_qtimer.c:94
    3a88:	6799                	lui	a5,0x6
    3a8a:	fdc42703          	lw	a4,-36(s0)
    3a8e:	070a                	slli	a4,a4,0x2
    3a90:	13c78793          	addi	a5,a5,316 # 613c <TIMERN>
    3a94:	97ba                	add	a5,a5,a4
    3a96:	439c                	lw	a5,0(a5)
    3a98:	873e                	mv	a4,a5
    3a9a:	fe440793          	addi	a5,s0,-28
    3a9e:	85be                	mv	a1,a5
    3aa0:	853a                	mv	a0,a4
    3aa2:	dbbfd0ef          	jal	ra,185c <TIM_TimeBaseInit>
C:\Users\16917\Desktop\Dual-core_Communication_Demo\Dual-core_Communication_Demo\SLAVE\obj/../Libraries/seekfree_libraries/zf_qtimer.c:95
    3aa6:	6799                	lui	a5,0x6
    3aa8:	fdc42703          	lw	a4,-36(s0)
    3aac:	070a                	slli	a4,a4,0x2
    3aae:	13c78793          	addi	a5,a5,316 # 613c <TIMERN>
    3ab2:	97ba                	add	a5,a5,a4
    3ab4:	439c                	lw	a5,0(a5)
    3ab6:	4681                	li	a3,0
    3ab8:	4601                	li	a2,0
    3aba:	4589                	li	a1,2
    3abc:	853e                	mv	a0,a5
    3abe:	960fe0ef          	jal	ra,1c1e <TIM_EncoderInterfaceConfig>
C:\Users\16917\Desktop\Dual-core_Communication_Demo\Dual-core_Communication_Demo\SLAVE\obj/../Libraries/seekfree_libraries/zf_qtimer.c:97
    3ac2:	6799                	lui	a5,0x6
    3ac4:	fdc42703          	lw	a4,-36(s0)
    3ac8:	070a                	slli	a4,a4,0x2
    3aca:	13c78793          	addi	a5,a5,316 # 613c <TIMERN>
    3ace:	97ba                	add	a5,a5,a4
    3ad0:	439c                	lw	a5,0(a5)
    3ad2:	4585                	li	a1,1
    3ad4:	853e                	mv	a0,a5
    3ad6:	ebdfd0ef          	jal	ra,1992 <TIM_Cmd>
C:\Users\16917\Desktop\Dual-core_Communication_Demo\Dual-core_Communication_Demo\SLAVE\obj/../Libraries/seekfree_libraries/zf_qtimer.c:98
    3ada:	0001                	nop
    3adc:	50b2                	lw	ra,44(sp)
    3ade:	5422                	lw	s0,40(sp)
    3ae0:	6145                	addi	sp,sp,48
    3ae2:	8082                	ret

00003ae4 <timer_quad_get>:
timer_quad_get():
C:\Users\16917\Desktop\Dual-core_Communication_Demo\Dual-core_Communication_Demo\SLAVE\obj/../Libraries/seekfree_libraries/zf_qtimer.c:107
    3ae4:	7179                	addi	sp,sp,-48
    3ae6:	d622                	sw	s0,44(sp)
    3ae8:	1800                	addi	s0,sp,48
    3aea:	fca42e23          	sw	a0,-36(s0)
C:\Users\16917\Desktop\Dual-core_Communication_Demo\Dual-core_Communication_Demo\SLAVE\obj/../Libraries/seekfree_libraries/zf_qtimer.c:108
    3aee:	6799                	lui	a5,0x6
    3af0:	fdc42703          	lw	a4,-36(s0)
    3af4:	070a                	slli	a4,a4,0x2
    3af6:	13c78793          	addi	a5,a5,316 # 613c <TIMERN>
    3afa:	97ba                	add	a5,a5,a4
    3afc:	439c                	lw	a5,0(a5)
    3afe:	0247d783          	lhu	a5,36(a5)
    3b02:	07c2                	slli	a5,a5,0x10
    3b04:	83c1                	srli	a5,a5,0x10
    3b06:	fef41723          	sh	a5,-18(s0)
C:\Users\16917\Desktop\Dual-core_Communication_Demo\Dual-core_Communication_Demo\SLAVE\obj/../Libraries/seekfree_libraries/zf_qtimer.c:109
    3b0a:	fee41783          	lh	a5,-18(s0)
C:\Users\16917\Desktop\Dual-core_Communication_Demo\Dual-core_Communication_Demo\SLAVE\obj/../Libraries/seekfree_libraries/zf_qtimer.c:110
    3b0e:	853e                	mv	a0,a5
    3b10:	5432                	lw	s0,44(sp)
    3b12:	6145                	addi	sp,sp,48
    3b14:	8082                	ret

00003b16 <timer_quad_clear>:
timer_quad_clear():
C:\Users\16917\Desktop\Dual-core_Communication_Demo\Dual-core_Communication_Demo\SLAVE\obj/../Libraries/seekfree_libraries/zf_qtimer.c:119
    3b16:	1101                	addi	sp,sp,-32
    3b18:	ce22                	sw	s0,28(sp)
    3b1a:	1000                	addi	s0,sp,32
    3b1c:	fea42623          	sw	a0,-20(s0)
C:\Users\16917\Desktop\Dual-core_Communication_Demo\Dual-core_Communication_Demo\SLAVE\obj/../Libraries/seekfree_libraries/zf_qtimer.c:120
    3b20:	6799                	lui	a5,0x6
    3b22:	fec42703          	lw	a4,-20(s0)
    3b26:	070a                	slli	a4,a4,0x2
    3b28:	13c78793          	addi	a5,a5,316 # 613c <TIMERN>
    3b2c:	97ba                	add	a5,a5,a4
    3b2e:	439c                	lw	a5,0(a5)
    3b30:	02079223          	sh	zero,36(a5)
C:\Users\16917\Desktop\Dual-core_Communication_Demo\Dual-core_Communication_Demo\SLAVE\obj/../Libraries/seekfree_libraries/zf_qtimer.c:121
    3b34:	0001                	nop
    3b36:	4472                	lw	s0,28(sp)
    3b38:	6105                	addi	sp,sp,32
    3b3a:	8082                	ret

00003b3c <spi_gpio_init>:
spi_gpio_init():
C:\Users\16917\Desktop\Dual-core_Communication_Demo\Dual-core_Communication_Demo\SLAVE\obj/../Libraries/seekfree_libraries/zf_spi.c:41
    3b3c:	1101                	addi	sp,sp,-32
    3b3e:	ce06                	sw	ra,28(sp)
    3b40:	cc22                	sw	s0,24(sp)
    3b42:	1000                	addi	s0,sp,32
    3b44:	fea42623          	sw	a0,-20(s0)
    3b48:	feb42423          	sw	a1,-24(s0)
    3b4c:	fec42223          	sw	a2,-28(s0)
    3b50:	fed42023          	sw	a3,-32(s0)
C:\Users\16917\Desktop\Dual-core_Communication_Demo\Dual-core_Communication_Demo\SLAVE\obj/../Libraries/seekfree_libraries/zf_spi.c:42
    3b54:	fec42783          	lw	a5,-20(s0)
    3b58:	eb89                	bnez	a5,3b6a <spi_gpio_init+0x2e>
C:\Users\16917\Desktop\Dual-core_Communication_Demo\Dual-core_Communication_Demo\SLAVE\obj/../Libraries/seekfree_libraries/zf_spi.c:42 (discriminator 1)
    3b5a:	31800693          	li	a3,792
    3b5e:	4605                	li	a2,1
    3b60:	4585                	li	a1,1
    3b62:	4515                	li	a0,5
    3b64:	f94ff0ef          	jal	ra,32f8 <gpio_init>
    3b68:	a899                	j	3bbe <spi_gpio_init+0x82>
C:\Users\16917\Desktop\Dual-core_Communication_Demo\Dual-core_Communication_Demo\SLAVE\obj/../Libraries/seekfree_libraries/zf_spi.c:43
    3b6a:	fec42703          	lw	a4,-20(s0)
    3b6e:	47c1                	li	a5,16
    3b70:	00f71b63          	bne	a4,a5,3b86 <spi_gpio_init+0x4a>
C:\Users\16917\Desktop\Dual-core_Communication_Demo\Dual-core_Communication_Demo\SLAVE\obj/../Libraries/seekfree_libraries/zf_spi.c:43 (discriminator 1)
    3b74:	31800693          	li	a3,792
    3b78:	4605                	li	a2,1
    3b7a:	4585                	li	a1,1
    3b7c:	02300513          	li	a0,35
    3b80:	f78ff0ef          	jal	ra,32f8 <gpio_init>
    3b84:	a82d                	j	3bbe <spi_gpio_init+0x82>
C:\Users\16917\Desktop\Dual-core_Communication_Demo\Dual-core_Communication_Demo\SLAVE\obj/../Libraries/seekfree_libraries/zf_spi.c:44
    3b86:	fec42703          	lw	a4,-20(s0)
    3b8a:	02000793          	li	a5,32
    3b8e:	00f71b63          	bne	a4,a5,3ba4 <spi_gpio_init+0x68>
C:\Users\16917\Desktop\Dual-core_Communication_Demo\Dual-core_Communication_Demo\SLAVE\obj/../Libraries/seekfree_libraries/zf_spi.c:44 (discriminator 1)
    3b92:	31800693          	li	a3,792
    3b96:	4605                	li	a2,1
    3b98:	4585                	li	a1,1
    3b9a:	02d00513          	li	a0,45
    3b9e:	f5aff0ef          	jal	ra,32f8 <gpio_init>
    3ba2:	a831                	j	3bbe <spi_gpio_init+0x82>
C:\Users\16917\Desktop\Dual-core_Communication_Demo\Dual-core_Communication_Demo\SLAVE\obj/../Libraries/seekfree_libraries/zf_spi.c:45
    3ba4:	6799                	lui	a5,0x6
    3ba6:	ad478693          	addi	a3,a5,-1324 # 5ad4 <_exit+0x7a>
    3baa:	6799                	lui	a5,0x6
    3bac:	14c78613          	addi	a2,a5,332 # 614c <__func__.3348>
    3bb0:	02d00593          	li	a1,45
    3bb4:	6799                	lui	a5,0x6
    3bb6:	ad878513          	addi	a0,a5,-1320 # 5ad8 <_exit+0x7e>
    3bba:	401000ef          	jal	ra,47ba <__assert_func>
C:\Users\16917\Desktop\Dual-core_Communication_Demo\Dual-core_Communication_Demo\SLAVE\obj/../Libraries/seekfree_libraries/zf_spi.c:47
    3bbe:	fe842703          	lw	a4,-24(s0)
    3bc2:	4785                	li	a5,1
    3bc4:	00f71a63          	bne	a4,a5,3bd8 <spi_gpio_init+0x9c>
C:\Users\16917\Desktop\Dual-core_Communication_Demo\Dual-core_Communication_Demo\SLAVE\obj/../Libraries/seekfree_libraries/zf_spi.c:47 (discriminator 1)
    3bc8:	31800693          	li	a3,792
    3bcc:	4605                	li	a2,1
    3bce:	4585                	li	a1,1
    3bd0:	451d                	li	a0,7
    3bd2:	f26ff0ef          	jal	ra,32f8 <gpio_init>
    3bd6:	a899                	j	3c2c <spi_gpio_init+0xf0>
C:\Users\16917\Desktop\Dual-core_Communication_Demo\Dual-core_Communication_Demo\SLAVE\obj/../Libraries/seekfree_libraries/zf_spi.c:48
    3bd8:	fe842703          	lw	a4,-24(s0)
    3bdc:	47c5                	li	a5,17
    3bde:	00f71b63          	bne	a4,a5,3bf4 <spi_gpio_init+0xb8>
C:\Users\16917\Desktop\Dual-core_Communication_Demo\Dual-core_Communication_Demo\SLAVE\obj/../Libraries/seekfree_libraries/zf_spi.c:48 (discriminator 1)
    3be2:	31800693          	li	a3,792
    3be6:	4605                	li	a2,1
    3be8:	4585                	li	a1,1
    3bea:	02500513          	li	a0,37
    3bee:	f0aff0ef          	jal	ra,32f8 <gpio_init>
    3bf2:	a82d                	j	3c2c <spi_gpio_init+0xf0>
C:\Users\16917\Desktop\Dual-core_Communication_Demo\Dual-core_Communication_Demo\SLAVE\obj/../Libraries/seekfree_libraries/zf_spi.c:49
    3bf4:	fe842703          	lw	a4,-24(s0)
    3bf8:	02100793          	li	a5,33
    3bfc:	00f71b63          	bne	a4,a5,3c12 <spi_gpio_init+0xd6>
C:\Users\16917\Desktop\Dual-core_Communication_Demo\Dual-core_Communication_Demo\SLAVE\obj/../Libraries/seekfree_libraries/zf_spi.c:49 (discriminator 1)
    3c00:	31800693          	li	a3,792
    3c04:	4605                	li	a2,1
    3c06:	4585                	li	a1,1
    3c08:	02f00513          	li	a0,47
    3c0c:	eecff0ef          	jal	ra,32f8 <gpio_init>
    3c10:	a831                	j	3c2c <spi_gpio_init+0xf0>
C:\Users\16917\Desktop\Dual-core_Communication_Demo\Dual-core_Communication_Demo\SLAVE\obj/../Libraries/seekfree_libraries/zf_spi.c:50
    3c12:	6799                	lui	a5,0x6
    3c14:	ad478693          	addi	a3,a5,-1324 # 5ad4 <_exit+0x7a>
    3c18:	6799                	lui	a5,0x6
    3c1a:	14c78613          	addi	a2,a5,332 # 614c <__func__.3348>
    3c1e:	03200593          	li	a1,50
    3c22:	6799                	lui	a5,0x6
    3c24:	ad878513          	addi	a0,a5,-1320 # 5ad8 <_exit+0x7e>
    3c28:	393000ef          	jal	ra,47ba <__assert_func>
C:\Users\16917\Desktop\Dual-core_Communication_Demo\Dual-core_Communication_Demo\SLAVE\obj/../Libraries/seekfree_libraries/zf_spi.c:52
    3c2c:	fe442703          	lw	a4,-28(s0)
    3c30:	4789                	li	a5,2
    3c32:	00f71a63          	bne	a4,a5,3c46 <spi_gpio_init+0x10a>
C:\Users\16917\Desktop\Dual-core_Communication_Demo\Dual-core_Communication_Demo\SLAVE\obj/../Libraries/seekfree_libraries/zf_spi.c:52 (discriminator 1)
    3c36:	31800693          	li	a3,792
    3c3a:	4605                	li	a2,1
    3c3c:	4585                	li	a1,1
    3c3e:	4519                	li	a0,6
    3c40:	eb8ff0ef          	jal	ra,32f8 <gpio_init>
    3c44:	a0b5                	j	3cb0 <spi_gpio_init+0x174>
C:\Users\16917\Desktop\Dual-core_Communication_Demo\Dual-core_Communication_Demo\SLAVE\obj/../Libraries/seekfree_libraries/zf_spi.c:53
    3c46:	fe442703          	lw	a4,-28(s0)
    3c4a:	47c9                	li	a5,18
    3c4c:	00f71b63          	bne	a4,a5,3c62 <spi_gpio_init+0x126>
C:\Users\16917\Desktop\Dual-core_Communication_Demo\Dual-core_Communication_Demo\SLAVE\obj/../Libraries/seekfree_libraries/zf_spi.c:53 (discriminator 1)
    3c50:	31800693          	li	a3,792
    3c54:	4605                	li	a2,1
    3c56:	4585                	li	a1,1
    3c58:	02400513          	li	a0,36
    3c5c:	e9cff0ef          	jal	ra,32f8 <gpio_init>
    3c60:	a881                	j	3cb0 <spi_gpio_init+0x174>
C:\Users\16917\Desktop\Dual-core_Communication_Demo\Dual-core_Communication_Demo\SLAVE\obj/../Libraries/seekfree_libraries/zf_spi.c:54
    3c62:	fe442703          	lw	a4,-28(s0)
    3c66:	02200793          	li	a5,34
    3c6a:	00f71b63          	bne	a4,a5,3c80 <spi_gpio_init+0x144>
C:\Users\16917\Desktop\Dual-core_Communication_Demo\Dual-core_Communication_Demo\SLAVE\obj/../Libraries/seekfree_libraries/zf_spi.c:54 (discriminator 1)
    3c6e:	31800693          	li	a3,792
    3c72:	4605                	li	a2,1
    3c74:	4585                	li	a1,1
    3c76:	02e00513          	li	a0,46
    3c7a:	e7eff0ef          	jal	ra,32f8 <gpio_init>
    3c7e:	a80d                	j	3cb0 <spi_gpio_init+0x174>
C:\Users\16917\Desktop\Dual-core_Communication_Demo\Dual-core_Communication_Demo\SLAVE\obj/../Libraries/seekfree_libraries/zf_spi.c:55
    3c80:	fe442703          	lw	a4,-28(s0)
    3c84:	02300793          	li	a5,35
    3c88:	00f71763          	bne	a4,a5,3c96 <spi_gpio_init+0x15a>
C:\Users\16917\Desktop\Dual-core_Communication_Demo\Dual-core_Communication_Demo\SLAVE\obj/../Libraries/seekfree_libraries/zf_spi.c:55 (discriminator 1)
    3c8c:	02300793          	li	a5,35
    3c90:	fef42223          	sw	a5,-28(s0)
    3c94:	a831                	j	3cb0 <spi_gpio_init+0x174>
C:\Users\16917\Desktop\Dual-core_Communication_Demo\Dual-core_Communication_Demo\SLAVE\obj/../Libraries/seekfree_libraries/zf_spi.c:56
    3c96:	6799                	lui	a5,0x6
    3c98:	ad478693          	addi	a3,a5,-1324 # 5ad4 <_exit+0x7a>
    3c9c:	6799                	lui	a5,0x6
    3c9e:	14c78613          	addi	a2,a5,332 # 614c <__func__.3348>
    3ca2:	03800593          	li	a1,56
    3ca6:	6799                	lui	a5,0x6
    3ca8:	ad878513          	addi	a0,a5,-1320 # 5ad8 <_exit+0x7e>
    3cac:	30f000ef          	jal	ra,47ba <__assert_func>
C:\Users\16917\Desktop\Dual-core_Communication_Demo\Dual-core_Communication_Demo\SLAVE\obj/../Libraries/seekfree_libraries/zf_spi.c:59
    3cb0:	31000693          	li	a3,784
    3cb4:	4605                	li	a2,1
    3cb6:	4585                	li	a1,1
    3cb8:	fe042503          	lw	a0,-32(s0)
    3cbc:	e3cff0ef          	jal	ra,32f8 <gpio_init>
C:\Users\16917\Desktop\Dual-core_Communication_Demo\Dual-core_Communication_Demo\SLAVE\obj/../Libraries/seekfree_libraries/zf_spi.c:61
    3cc0:	0001                	nop
    3cc2:	40f2                	lw	ra,28(sp)
    3cc4:	4462                	lw	s0,24(sp)
    3cc6:	6105                	addi	sp,sp,32
    3cc8:	8082                	ret

00003cca <spi_init>:
spi_init():
C:\Users\16917\Desktop\Dual-core_Communication_Demo\Dual-core_Communication_Demo\SLAVE\obj/../Libraries/seekfree_libraries/zf_spi.c:85
    3cca:	715d                	addi	sp,sp,-80
    3ccc:	c686                	sw	ra,76(sp)
    3cce:	c4a2                	sw	s0,72(sp)
    3cd0:	0880                	addi	s0,sp,80
    3cd2:	fca42623          	sw	a0,-52(s0)
    3cd6:	fcb42423          	sw	a1,-56(s0)
    3cda:	fcc42223          	sw	a2,-60(s0)
    3cde:	fcd42023          	sw	a3,-64(s0)
    3ce2:	fae42e23          	sw	a4,-68(s0)
    3ce6:	fb042a23          	sw	a6,-76(s0)
    3cea:	faf40da3          	sb	a5,-69(s0)
C:\Users\16917\Desktop\Dual-core_Communication_Demo\Dual-core_Communication_Demo\SLAVE\obj/../Libraries/seekfree_libraries/zf_spi.c:89
    3cee:	fcc42783          	lw	a5,-52(s0)
    3cf2:	eb81                	bnez	a5,3d02 <spi_init+0x38>
C:\Users\16917\Desktop\Dual-core_Communication_Demo\Dual-core_Communication_Demo\SLAVE\obj/../Libraries/seekfree_libraries/zf_spi.c:91
    3cf4:	4585                	li	a1,1
    3cf6:	6785                	lui	a5,0x1
    3cf8:	00178513          	addi	a0,a5,1 # 1001 <GPIO_Init+0x175>
    3cfc:	983fd0ef          	jal	ra,167e <RCC_APB2PeriphClockCmd>
    3d00:	a821                	j	3d18 <spi_init+0x4e>
C:\Users\16917\Desktop\Dual-core_Communication_Demo\Dual-core_Communication_Demo\SLAVE\obj/../Libraries/seekfree_libraries/zf_spi.c:93
    3d02:	fcc42703          	lw	a4,-52(s0)
    3d06:	4785                	li	a5,1
    3d08:	00f71863          	bne	a4,a5,3d18 <spi_init+0x4e>
C:\Users\16917\Desktop\Dual-core_Communication_Demo\Dual-core_Communication_Demo\SLAVE\obj/../Libraries/seekfree_libraries/zf_spi.c:95
    3d0c:	4585                	li	a1,1
    3d0e:	6791                	lui	a5,0x4
    3d10:	00178513          	addi	a0,a5,1 # 4001 <uart_gpio_init+0xab>
    3d14:	9b1fd0ef          	jal	ra,16c4 <RCC_APB1PeriphClockCmd>
C:\Users\16917\Desktop\Dual-core_Communication_Demo\Dual-core_Communication_Demo\SLAVE\obj/../Libraries/seekfree_libraries/zf_spi.c:98
    3d18:	fbc42683          	lw	a3,-68(s0)
    3d1c:	fc042603          	lw	a2,-64(s0)
    3d20:	fc442583          	lw	a1,-60(s0)
    3d24:	fc842503          	lw	a0,-56(s0)
    3d28:	e15ff0ef          	jal	ra,3b3c <spi_gpio_init>
C:\Users\16917\Desktop\Dual-core_Communication_Demo\Dual-core_Communication_Demo\SLAVE\obj/../Libraries/seekfree_libraries/zf_spi.c:100
    3d2c:	fc041e23          	sh	zero,-36(s0)
C:\Users\16917\Desktop\Dual-core_Communication_Demo\Dual-core_Communication_Demo\SLAVE\obj/../Libraries/seekfree_libraries/zf_spi.c:101
    3d30:	10400793          	li	a5,260
    3d34:	fcf41f23          	sh	a5,-34(s0)
C:\Users\16917\Desktop\Dual-core_Communication_Demo\Dual-core_Communication_Demo\SLAVE\obj/../Libraries/seekfree_libraries/zf_spi.c:102
    3d38:	fe041023          	sh	zero,-32(s0)
C:\Users\16917\Desktop\Dual-core_Communication_Demo\Dual-core_Communication_Demo\SLAVE\obj/../Libraries/seekfree_libraries/zf_spi.c:104
    3d3c:	fbb44783          	lbu	a5,-69(s0)
    3d40:	4705                	li	a4,1
    3d42:	02e78363          	beq	a5,a4,3d68 <spi_init+0x9e>
    3d46:	4705                	li	a4,1
    3d48:	00f74463          	blt	a4,a5,3d50 <spi_init+0x86>
    3d4c:	cb89                	beqz	a5,3d5e <spi_init+0x94>
    3d4e:	a081                	j	3d8e <spi_init+0xc4>
    3d50:	4709                	li	a4,2
    3d52:	02e78163          	beq	a5,a4,3d74 <spi_init+0xaa>
    3d56:	470d                	li	a4,3
    3d58:	02e78463          	beq	a5,a4,3d80 <spi_init+0xb6>
    3d5c:	a80d                	j	3d8e <spi_init+0xc4>
C:\Users\16917\Desktop\Dual-core_Communication_Demo\Dual-core_Communication_Demo\SLAVE\obj/../Libraries/seekfree_libraries/zf_spi.c:108
    3d5e:	fe041123          	sh	zero,-30(s0)
C:\Users\16917\Desktop\Dual-core_Communication_Demo\Dual-core_Communication_Demo\SLAVE\obj/../Libraries/seekfree_libraries/zf_spi.c:109
    3d62:	fe041223          	sh	zero,-28(s0)
C:\Users\16917\Desktop\Dual-core_Communication_Demo\Dual-core_Communication_Demo\SLAVE\obj/../Libraries/seekfree_libraries/zf_spi.c:110
    3d66:	a025                	j	3d8e <spi_init+0xc4>
C:\Users\16917\Desktop\Dual-core_Communication_Demo\Dual-core_Communication_Demo\SLAVE\obj/../Libraries/seekfree_libraries/zf_spi.c:113
    3d68:	fe041123          	sh	zero,-30(s0)
C:\Users\16917\Desktop\Dual-core_Communication_Demo\Dual-core_Communication_Demo\SLAVE\obj/../Libraries/seekfree_libraries/zf_spi.c:114
    3d6c:	4785                	li	a5,1
    3d6e:	fef41223          	sh	a5,-28(s0)
C:\Users\16917\Desktop\Dual-core_Communication_Demo\Dual-core_Communication_Demo\SLAVE\obj/../Libraries/seekfree_libraries/zf_spi.c:115
    3d72:	a831                	j	3d8e <spi_init+0xc4>
C:\Users\16917\Desktop\Dual-core_Communication_Demo\Dual-core_Communication_Demo\SLAVE\obj/../Libraries/seekfree_libraries/zf_spi.c:118
    3d74:	4789                	li	a5,2
    3d76:	fef41123          	sh	a5,-30(s0)
C:\Users\16917\Desktop\Dual-core_Communication_Demo\Dual-core_Communication_Demo\SLAVE\obj/../Libraries/seekfree_libraries/zf_spi.c:119
    3d7a:	fe041223          	sh	zero,-28(s0)
C:\Users\16917\Desktop\Dual-core_Communication_Demo\Dual-core_Communication_Demo\SLAVE\obj/../Libraries/seekfree_libraries/zf_spi.c:120
    3d7e:	a801                	j	3d8e <spi_init+0xc4>
C:\Users\16917\Desktop\Dual-core_Communication_Demo\Dual-core_Communication_Demo\SLAVE\obj/../Libraries/seekfree_libraries/zf_spi.c:123
    3d80:	4789                	li	a5,2
    3d82:	fef41123          	sh	a5,-30(s0)
C:\Users\16917\Desktop\Dual-core_Communication_Demo\Dual-core_Communication_Demo\SLAVE\obj/../Libraries/seekfree_libraries/zf_spi.c:124
    3d86:	4785                	li	a5,1
    3d88:	fef41223          	sh	a5,-28(s0)
C:\Users\16917\Desktop\Dual-core_Communication_Demo\Dual-core_Communication_Demo\SLAVE\obj/../Libraries/seekfree_libraries/zf_spi.c:125
    3d8c:	0001                	nop
C:\Users\16917\Desktop\Dual-core_Communication_Demo\Dual-core_Communication_Demo\SLAVE\obj/../Libraries/seekfree_libraries/zf_spi.c:128
    3d8e:	20000793          	li	a5,512
    3d92:	fef41323          	sh	a5,-26(s0)
C:\Users\16917\Desktop\Dual-core_Communication_Demo\Dual-core_Communication_Demo\SLAVE\obj/../Libraries/seekfree_libraries/zf_spi.c:129
    3d96:	fb442783          	lw	a5,-76(s0)
    3d9a:	07c2                	slli	a5,a5,0x10
    3d9c:	83c1                	srli	a5,a5,0x10
    3d9e:	078e                	slli	a5,a5,0x3
    3da0:	07c2                	slli	a5,a5,0x10
    3da2:	83c1                	srli	a5,a5,0x10
    3da4:	fef41423          	sh	a5,-24(s0)
C:\Users\16917\Desktop\Dual-core_Communication_Demo\Dual-core_Communication_Demo\SLAVE\obj/../Libraries/seekfree_libraries/zf_spi.c:130
    3da8:	fe041523          	sh	zero,-22(s0)
C:\Users\16917\Desktop\Dual-core_Communication_Demo\Dual-core_Communication_Demo\SLAVE\obj/../Libraries/seekfree_libraries/zf_spi.c:131
    3dac:	479d                	li	a5,7
    3dae:	fef41623          	sh	a5,-20(s0)
C:\Users\16917\Desktop\Dual-core_Communication_Demo\Dual-core_Communication_Demo\SLAVE\obj/../Libraries/seekfree_libraries/zf_spi.c:132
    3db2:	fcc42703          	lw	a4,-52(s0)
    3db6:	070a                	slli	a4,a4,0x2
    3db8:	81818793          	addi	a5,gp,-2024 # 200000d0 <SPIN>
    3dbc:	97ba                	add	a5,a5,a4
    3dbe:	439c                	lw	a5,0(a5)
    3dc0:	873e                	mv	a4,a5
    3dc2:	fdc40793          	addi	a5,s0,-36
    3dc6:	85be                	mv	a1,a5
    3dc8:	853a                	mv	a0,a4
    3dca:	941fd0ef          	jal	ra,170a <SPI_Init>
C:\Users\16917\Desktop\Dual-core_Communication_Demo\Dual-core_Communication_Demo\SLAVE\obj/../Libraries/seekfree_libraries/zf_spi.c:134
    3dce:	fc842703          	lw	a4,-56(s0)
    3dd2:	47c1                	li	a5,16
    3dd4:	00f71663          	bne	a4,a5,3de0 <spi_init+0x116>
C:\Users\16917\Desktop\Dual-core_Communication_Demo\Dual-core_Communication_Demo\SLAVE\obj/../Libraries/seekfree_libraries/zf_spi.c:134 (discriminator 1)
    3dd8:	4585                	li	a1,1
    3dda:	4505                	li	a0,1
    3ddc:	b12fd0ef          	jal	ra,10ee <GPIO_PinRemapConfig>
C:\Users\16917\Desktop\Dual-core_Communication_Demo\Dual-core_Communication_Demo\SLAVE\obj/../Libraries/seekfree_libraries/zf_spi.c:136
    3de0:	fcc42703          	lw	a4,-52(s0)
    3de4:	070a                	slli	a4,a4,0x2
    3de6:	81818793          	addi	a5,gp,-2024 # 200000d0 <SPIN>
    3dea:	97ba                	add	a5,a5,a4
    3dec:	439c                	lw	a5,0(a5)
    3dee:	4585                	li	a1,1
    3df0:	853e                	mv	a0,a5
    3df2:	a11fd0ef          	jal	ra,1802 <SPI_Cmd>
C:\Users\16917\Desktop\Dual-core_Communication_Demo\Dual-core_Communication_Demo\SLAVE\obj/../Libraries/seekfree_libraries/zf_spi.c:138
    3df6:	0001                	nop
    3df8:	40b6                	lw	ra,76(sp)
    3dfa:	4426                	lw	s0,72(sp)
    3dfc:	6161                	addi	sp,sp,80
    3dfe:	8082                	ret

00003e00 <spi_mosi>:
spi_mosi():
C:\Users\16917\Desktop\Dual-core_Communication_Demo\Dual-core_Communication_Demo\SLAVE\obj/../Libraries/seekfree_libraries/zf_spi.c:151
    3e00:	1101                	addi	sp,sp,-32
    3e02:	ce22                	sw	s0,28(sp)
    3e04:	1000                	addi	s0,sp,32
    3e06:	fea42623          	sw	a0,-20(s0)
    3e0a:	feb42423          	sw	a1,-24(s0)
    3e0e:	fec42223          	sw	a2,-28(s0)
    3e12:	fed42023          	sw	a3,-32(s0)
C:\Users\16917\Desktop\Dual-core_Communication_Demo\Dual-core_Communication_Demo\SLAVE\obj/../Libraries/seekfree_libraries/zf_spi.c:152
    3e16:	a859                	j	3eac <spi_mosi+0xac>
C:\Users\16917\Desktop\Dual-core_Communication_Demo\Dual-core_Communication_Demo\SLAVE\obj/../Libraries/seekfree_libraries/zf_spi.c:154
    3e18:	0001                	nop
C:\Users\16917\Desktop\Dual-core_Communication_Demo\Dual-core_Communication_Demo\SLAVE\obj/../Libraries/seekfree_libraries/zf_spi.c:154 (discriminator 1)
    3e1a:	fec42703          	lw	a4,-20(s0)
    3e1e:	070a                	slli	a4,a4,0x2
    3e20:	81818793          	addi	a5,gp,-2024 # 200000d0 <SPIN>
    3e24:	97ba                	add	a5,a5,a4
    3e26:	439c                	lw	a5,0(a5)
    3e28:	0087d783          	lhu	a5,8(a5)
    3e2c:	07c2                	slli	a5,a5,0x10
    3e2e:	83c1                	srli	a5,a5,0x10
    3e30:	8b89                	andi	a5,a5,2
    3e32:	d7e5                	beqz	a5,3e1a <spi_mosi+0x1a>
C:\Users\16917\Desktop\Dual-core_Communication_Demo\Dual-core_Communication_Demo\SLAVE\obj/../Libraries/seekfree_libraries/zf_spi.c:155
    3e34:	fe842783          	lw	a5,-24(s0)
    3e38:	00178713          	addi	a4,a5,1
    3e3c:	fee42423          	sw	a4,-24(s0)
    3e40:	0007c683          	lbu	a3,0(a5)
    3e44:	fec42703          	lw	a4,-20(s0)
    3e48:	070a                	slli	a4,a4,0x2
    3e4a:	81818793          	addi	a5,gp,-2024 # 200000d0 <SPIN>
    3e4e:	97ba                	add	a5,a5,a4
    3e50:	439c                	lw	a5,0(a5)
    3e52:	873e                	mv	a4,a5
    3e54:	01069793          	slli	a5,a3,0x10
    3e58:	83c1                	srli	a5,a5,0x10
    3e5a:	00f71623          	sh	a5,12(a4)
C:\Users\16917\Desktop\Dual-core_Communication_Demo\Dual-core_Communication_Demo\SLAVE\obj/../Libraries/seekfree_libraries/zf_spi.c:156
    3e5e:	fe442783          	lw	a5,-28(s0)
    3e62:	c7a9                	beqz	a5,3eac <spi_mosi+0xac>
C:\Users\16917\Desktop\Dual-core_Communication_Demo\Dual-core_Communication_Demo\SLAVE\obj/../Libraries/seekfree_libraries/zf_spi.c:158
    3e64:	0001                	nop
C:\Users\16917\Desktop\Dual-core_Communication_Demo\Dual-core_Communication_Demo\SLAVE\obj/../Libraries/seekfree_libraries/zf_spi.c:158 (discriminator 1)
    3e66:	fec42703          	lw	a4,-20(s0)
    3e6a:	070a                	slli	a4,a4,0x2
    3e6c:	81818793          	addi	a5,gp,-2024 # 200000d0 <SPIN>
    3e70:	97ba                	add	a5,a5,a4
    3e72:	439c                	lw	a5,0(a5)
    3e74:	0087d783          	lhu	a5,8(a5)
    3e78:	07c2                	slli	a5,a5,0x10
    3e7a:	83c1                	srli	a5,a5,0x10
    3e7c:	8b85                	andi	a5,a5,1
    3e7e:	d7e5                	beqz	a5,3e66 <spi_mosi+0x66>
C:\Users\16917\Desktop\Dual-core_Communication_Demo\Dual-core_Communication_Demo\SLAVE\obj/../Libraries/seekfree_libraries/zf_spi.c:159
    3e80:	fec42703          	lw	a4,-20(s0)
    3e84:	070a                	slli	a4,a4,0x2
    3e86:	81818793          	addi	a5,gp,-2024 # 200000d0 <SPIN>
    3e8a:	97ba                	add	a5,a5,a4
    3e8c:	439c                	lw	a5,0(a5)
    3e8e:	00c7d783          	lhu	a5,12(a5)
    3e92:	01079693          	slli	a3,a5,0x10
    3e96:	82c1                	srli	a3,a3,0x10
    3e98:	fe442783          	lw	a5,-28(s0)
    3e9c:	00178713          	addi	a4,a5,1
    3ea0:	fee42223          	sw	a4,-28(s0)
    3ea4:	0ff6f713          	andi	a4,a3,255
    3ea8:	00e78023          	sb	a4,0(a5)
C:\Users\16917\Desktop\Dual-core_Communication_Demo\Dual-core_Communication_Demo\SLAVE\obj/../Libraries/seekfree_libraries/zf_spi.c:152
    3eac:	fe042783          	lw	a5,-32(s0)
    3eb0:	fff78713          	addi	a4,a5,-1
    3eb4:	fee42023          	sw	a4,-32(s0)
    3eb8:	f3a5                	bnez	a5,3e18 <spi_mosi+0x18>
C:\Users\16917\Desktop\Dual-core_Communication_Demo\Dual-core_Communication_Demo\SLAVE\obj/../Libraries/seekfree_libraries/zf_spi.c:162
    3eba:	0001                	nop
    3ebc:	4472                	lw	s0,28(sp)
    3ebe:	6105                	addi	sp,sp,32
    3ec0:	8082                	ret

00003ec2 <systick_delay>:
systick_delay():
C:\Users\16917\Desktop\Dual-core_Communication_Demo\Dual-core_Communication_Demo\SLAVE\obj/../Libraries/seekfree_libraries/zf_systick.c:29
    3ec2:	1101                	addi	sp,sp,-32
    3ec4:	ce22                	sw	s0,28(sp)
    3ec6:	1000                	addi	s0,sp,32
    3ec8:	fea42423          	sw	a0,-24(s0)
    3ecc:	feb42623          	sw	a1,-20(s0)
C:\Users\16917\Desktop\Dual-core_Communication_Demo\Dual-core_Communication_Demo\SLAVE\obj/../Libraries/seekfree_libraries/zf_systick.c:30
    3ed0:	e000f737          	lui	a4,0xe000f
    3ed4:	00072023          	sw	zero,0(a4) # e000f000 <_eusrstack+0xc000a000>
C:\Users\16917\Desktop\Dual-core_Communication_Demo\Dual-core_Communication_Demo\SLAVE\obj/../Libraries/seekfree_libraries/zf_systick.c:31
    3ed8:	e000f737          	lui	a4,0xe000f
    3edc:	00070223          	sb	zero,4(a4) # e000f004 <_eusrstack+0xc000a004>
C:\Users\16917\Desktop\Dual-core_Communication_Demo\Dual-core_Communication_Demo\SLAVE\obj/../Libraries/seekfree_libraries/zf_systick.c:32
    3ee0:	e000f737          	lui	a4,0xe000f
    3ee4:	000702a3          	sb	zero,5(a4) # e000f005 <_eusrstack+0xc000a005>
C:\Users\16917\Desktop\Dual-core_Communication_Demo\Dual-core_Communication_Demo\SLAVE\obj/../Libraries/seekfree_libraries/zf_systick.c:33
    3ee8:	e000f737          	lui	a4,0xe000f
    3eec:	00070323          	sb	zero,6(a4) # e000f006 <_eusrstack+0xc000a006>
C:\Users\16917\Desktop\Dual-core_Communication_Demo\Dual-core_Communication_Demo\SLAVE\obj/../Libraries/seekfree_libraries/zf_systick.c:34
    3ef0:	e000f737          	lui	a4,0xe000f
    3ef4:	000703a3          	sb	zero,7(a4) # e000f007 <_eusrstack+0xc000a007>
C:\Users\16917\Desktop\Dual-core_Communication_Demo\Dual-core_Communication_Demo\SLAVE\obj/../Libraries/seekfree_libraries/zf_systick.c:35
    3ef8:	e000f737          	lui	a4,0xe000f
    3efc:	00070423          	sb	zero,8(a4) # e000f008 <_eusrstack+0xc000a008>
C:\Users\16917\Desktop\Dual-core_Communication_Demo\Dual-core_Communication_Demo\SLAVE\obj/../Libraries/seekfree_libraries/zf_systick.c:36
    3f00:	e000f737          	lui	a4,0xe000f
    3f04:	000704a3          	sb	zero,9(a4) # e000f009 <_eusrstack+0xc000a009>
C:\Users\16917\Desktop\Dual-core_Communication_Demo\Dual-core_Communication_Demo\SLAVE\obj/../Libraries/seekfree_libraries/zf_systick.c:37
    3f08:	e000f737          	lui	a4,0xe000f
    3f0c:	00070523          	sb	zero,10(a4) # e000f00a <_eusrstack+0xc000a00a>
C:\Users\16917\Desktop\Dual-core_Communication_Demo\Dual-core_Communication_Demo\SLAVE\obj/../Libraries/seekfree_libraries/zf_systick.c:38
    3f10:	e000f737          	lui	a4,0xe000f
    3f14:	000705a3          	sb	zero,11(a4) # e000f00b <_eusrstack+0xc000a00b>
C:\Users\16917\Desktop\Dual-core_Communication_Demo\Dual-core_Communication_Demo\SLAVE\obj/../Libraries/seekfree_libraries/zf_systick.c:39
    3f18:	e000f737          	lui	a4,0xe000f
    3f1c:	4685                	li	a3,1
    3f1e:	c314                	sw	a3,0(a4)
C:\Users\16917\Desktop\Dual-core_Communication_Demo\Dual-core_Communication_Demo\SLAVE\obj/../Libraries/seekfree_libraries/zf_systick.c:41
    3f20:	0001                	nop
C:\Users\16917\Desktop\Dual-core_Communication_Demo\Dual-core_Communication_Demo\SLAVE\obj/../Libraries/seekfree_libraries/zf_systick.c:41 (discriminator 1)
    3f22:	e000f737          	lui	a4,0xe000f
    3f26:	0711                	addi	a4,a4,4
    3f28:	4318                	lw	a4,0(a4)
    3f2a:	87ba                	mv	a5,a4
    3f2c:	4801                	li	a6,0
    3f2e:	fec42703          	lw	a4,-20(s0)
    3f32:	86c2                	mv	a3,a6
    3f34:	00d76d63          	bltu	a4,a3,3f4e <systick_delay+0x8c>
    3f38:	fec42703          	lw	a4,-20(s0)
    3f3c:	86c2                	mv	a3,a6
    3f3e:	fed712e3          	bne	a4,a3,3f22 <systick_delay+0x60>
    3f42:	fe842703          	lw	a4,-24(s0)
    3f46:	86be                	mv	a3,a5
    3f48:	00d76363          	bltu	a4,a3,3f4e <systick_delay+0x8c>
    3f4c:	bfd9                	j	3f22 <systick_delay+0x60>
C:\Users\16917\Desktop\Dual-core_Communication_Demo\Dual-core_Communication_Demo\SLAVE\obj/../Libraries/seekfree_libraries/zf_systick.c:42
    3f4e:	0001                	nop
    3f50:	4472                	lw	s0,28(sp)
    3f52:	6105                	addi	sp,sp,32
    3f54:	8082                	ret

00003f56 <uart_gpio_init>:
uart_gpio_init():
C:\Users\16917\Desktop\Dual-core_Communication_Demo\Dual-core_Communication_Demo\SLAVE\obj/../Libraries/seekfree_libraries/zf_uart.c:38
    3f56:	1101                	addi	sp,sp,-32
    3f58:	ce06                	sw	ra,28(sp)
    3f5a:	cc22                	sw	s0,24(sp)
    3f5c:	1000                	addi	s0,sp,32
    3f5e:	fea42623          	sw	a0,-20(s0)
    3f62:	feb42423          	sw	a1,-24(s0)
C:\Users\16917\Desktop\Dual-core_Communication_Demo\Dual-core_Communication_Demo\SLAVE\obj/../Libraries/seekfree_libraries/zf_uart.c:39
    3f66:	fec42783          	lw	a5,-20(s0)
    3f6a:	e785                	bnez	a5,3f92 <uart_gpio_init+0x3c>
C:\Users\16917\Desktop\Dual-core_Communication_Demo\Dual-core_Communication_Demo\SLAVE\obj/../Libraries/seekfree_libraries/zf_uart.c:39 (discriminator 1)
    3f6c:	fe842703          	lw	a4,-24(s0)
    3f70:	4785                	li	a5,1
    3f72:	02f71063          	bne	a4,a5,3f92 <uart_gpio_init+0x3c>
C:\Users\16917\Desktop\Dual-core_Communication_Demo\Dual-core_Communication_Demo\SLAVE\obj/../Libraries/seekfree_libraries/zf_uart.c:41
    3f76:	31800693          	li	a3,792
    3f7a:	4601                	li	a2,0
    3f7c:	4585                	li	a1,1
    3f7e:	4525                	li	a0,9
    3f80:	b78ff0ef          	jal	ra,32f8 <gpio_init>
C:\Users\16917\Desktop\Dual-core_Communication_Demo\Dual-core_Communication_Demo\SLAVE\obj/../Libraries/seekfree_libraries/zf_uart.c:42
    3f84:	4691                	li	a3,4
    3f86:	4601                	li	a2,0
    3f88:	4581                	li	a1,0
    3f8a:	4529                	li	a0,10
    3f8c:	b6cff0ef          	jal	ra,32f8 <gpio_init>
C:\Users\16917\Desktop\Dual-core_Communication_Demo\Dual-core_Communication_Demo\SLAVE\obj/../Libraries/seekfree_libraries/zf_uart.c:67
    3f90:	a065                	j	4038 <uart_gpio_init+0xe2>
C:\Users\16917\Desktop\Dual-core_Communication_Demo\Dual-core_Communication_Demo\SLAVE\obj/../Libraries/seekfree_libraries/zf_uart.c:44
    3f92:	fec42703          	lw	a4,-20(s0)
    3f96:	4789                	li	a5,2
    3f98:	02f71263          	bne	a4,a5,3fbc <uart_gpio_init+0x66>
C:\Users\16917\Desktop\Dual-core_Communication_Demo\Dual-core_Communication_Demo\SLAVE\obj/../Libraries/seekfree_libraries/zf_uart.c:46
    3f9c:	31800693          	li	a3,792
    3fa0:	4601                	li	a2,0
    3fa2:	4585                	li	a1,1
    3fa4:	02600513          	li	a0,38
    3fa8:	b50ff0ef          	jal	ra,32f8 <gpio_init>
C:\Users\16917\Desktop\Dual-core_Communication_Demo\Dual-core_Communication_Demo\SLAVE\obj/../Libraries/seekfree_libraries/zf_uart.c:47
    3fac:	4691                	li	a3,4
    3fae:	4601                	li	a2,0
    3fb0:	4581                	li	a1,0
    3fb2:	02700513          	li	a0,39
    3fb6:	b42ff0ef          	jal	ra,32f8 <gpio_init>
C:\Users\16917\Desktop\Dual-core_Communication_Demo\Dual-core_Communication_Demo\SLAVE\obj/../Libraries/seekfree_libraries/zf_uart.c:67
    3fba:	a8bd                	j	4038 <uart_gpio_init+0xe2>
C:\Users\16917\Desktop\Dual-core_Communication_Demo\Dual-core_Communication_Demo\SLAVE\obj/../Libraries/seekfree_libraries/zf_uart.c:50
    3fbc:	fec42703          	lw	a4,-20(s0)
    3fc0:	47c1                	li	a5,16
    3fc2:	02f71063          	bne	a4,a5,3fe2 <uart_gpio_init+0x8c>
C:\Users\16917\Desktop\Dual-core_Communication_Demo\Dual-core_Communication_Demo\SLAVE\obj/../Libraries/seekfree_libraries/zf_uart.c:52
    3fc6:	31800693          	li	a3,792
    3fca:	4601                	li	a2,0
    3fcc:	4585                	li	a1,1
    3fce:	4509                	li	a0,2
    3fd0:	b28ff0ef          	jal	ra,32f8 <gpio_init>
C:\Users\16917\Desktop\Dual-core_Communication_Demo\Dual-core_Communication_Demo\SLAVE\obj/../Libraries/seekfree_libraries/zf_uart.c:53
    3fd4:	4691                	li	a3,4
    3fd6:	4601                	li	a2,0
    3fd8:	4581                	li	a1,0
    3fda:	450d                	li	a0,3
    3fdc:	b1cff0ef          	jal	ra,32f8 <gpio_init>
C:\Users\16917\Desktop\Dual-core_Communication_Demo\Dual-core_Communication_Demo\SLAVE\obj/../Libraries/seekfree_libraries/zf_uart.c:67
    3fe0:	a8a1                	j	4038 <uart_gpio_init+0xe2>
C:\Users\16917\Desktop\Dual-core_Communication_Demo\Dual-core_Communication_Demo\SLAVE\obj/../Libraries/seekfree_libraries/zf_uart.c:56
    3fe2:	fec42703          	lw	a4,-20(s0)
    3fe6:	02000793          	li	a5,32
    3fea:	02f71263          	bne	a4,a5,400e <uart_gpio_init+0xb8>
C:\Users\16917\Desktop\Dual-core_Communication_Demo\Dual-core_Communication_Demo\SLAVE\obj/../Libraries/seekfree_libraries/zf_uart.c:58
    3fee:	31800693          	li	a3,792
    3ff2:	4601                	li	a2,0
    3ff4:	4585                	li	a1,1
    3ff6:	02a00513          	li	a0,42
    3ffa:	afeff0ef          	jal	ra,32f8 <gpio_init>
C:\Users\16917\Desktop\Dual-core_Communication_Demo\Dual-core_Communication_Demo\SLAVE\obj/../Libraries/seekfree_libraries/zf_uart.c:59
    3ffe:	4691                	li	a3,4
    4000:	4601                	li	a2,0
    4002:	4581                	li	a1,0
    4004:	02b00513          	li	a0,43
    4008:	af0ff0ef          	jal	ra,32f8 <gpio_init>
C:\Users\16917\Desktop\Dual-core_Communication_Demo\Dual-core_Communication_Demo\SLAVE\obj/../Libraries/seekfree_libraries/zf_uart.c:67
    400c:	a035                	j	4038 <uart_gpio_init+0xe2>
C:\Users\16917\Desktop\Dual-core_Communication_Demo\Dual-core_Communication_Demo\SLAVE\obj/../Libraries/seekfree_libraries/zf_uart.c:62
    400e:	fec42703          	lw	a4,-20(s0)
    4012:	02200793          	li	a5,34
    4016:	02f71163          	bne	a4,a5,4038 <uart_gpio_init+0xe2>
C:\Users\16917\Desktop\Dual-core_Communication_Demo\Dual-core_Communication_Demo\SLAVE\obj/../Libraries/seekfree_libraries/zf_uart.c:64
    401a:	31800693          	li	a3,792
    401e:	4601                	li	a2,0
    4020:	4585                	li	a1,1
    4022:	04a00513          	li	a0,74
    4026:	ad2ff0ef          	jal	ra,32f8 <gpio_init>
C:\Users\16917\Desktop\Dual-core_Communication_Demo\Dual-core_Communication_Demo\SLAVE\obj/../Libraries/seekfree_libraries/zf_uart.c:65
    402a:	4691                	li	a3,4
    402c:	4601                	li	a2,0
    402e:	4581                	li	a1,0
    4030:	04b00513          	li	a0,75
    4034:	ac4ff0ef          	jal	ra,32f8 <gpio_init>
C:\Users\16917\Desktop\Dual-core_Communication_Demo\Dual-core_Communication_Demo\SLAVE\obj/../Libraries/seekfree_libraries/zf_uart.c:67
    4038:	0001                	nop
    403a:	40f2                	lw	ra,28(sp)
    403c:	4462                	lw	s0,24(sp)
    403e:	6105                	addi	sp,sp,32
    4040:	8082                	ret

00004042 <uart_init>:
uart_init():
C:\Users\16917\Desktop\Dual-core_Communication_Demo\Dual-core_Communication_Demo\SLAVE\obj/../Libraries/seekfree_libraries/zf_uart.c:79
    4042:	7179                	addi	sp,sp,-48
    4044:	d606                	sw	ra,44(sp)
    4046:	d422                	sw	s0,40(sp)
    4048:	1800                	addi	s0,sp,48
    404a:	fca42e23          	sw	a0,-36(s0)
    404e:	fcb42c23          	sw	a1,-40(s0)
    4052:	fcc42a23          	sw	a2,-44(s0)
    4056:	fcd42823          	sw	a3,-48(s0)
C:\Users\16917\Desktop\Dual-core_Communication_Demo\Dual-core_Communication_Demo\SLAVE\obj/../Libraries/seekfree_libraries/zf_uart.c:83
    405a:	4585                	li	a1,1
    405c:	4505                	li	a0,1
    405e:	e20fd0ef          	jal	ra,167e <RCC_APB2PeriphClockCmd>
C:\Users\16917\Desktop\Dual-core_Communication_Demo\Dual-core_Communication_Demo\SLAVE\obj/../Libraries/seekfree_libraries/zf_uart.c:86
    4062:	fd042583          	lw	a1,-48(s0)
    4066:	fd442503          	lw	a0,-44(s0)
    406a:	35f5                	jal	3f56 <uart_gpio_init>
C:\Users\16917\Desktop\Dual-core_Communication_Demo\Dual-core_Communication_Demo\SLAVE\obj/../Libraries/seekfree_libraries/zf_uart.c:88
    406c:	fd442703          	lw	a4,-44(s0)
    4070:	4789                	li	a5,2
    4072:	00f71b63          	bne	a4,a5,4088 <uart_init+0x46>
C:\Users\16917\Desktop\Dual-core_Communication_Demo\Dual-core_Communication_Demo\SLAVE\obj/../Libraries/seekfree_libraries/zf_uart.c:88 (discriminator 1)
    4076:	fd042703          	lw	a4,-48(s0)
    407a:	478d                	li	a5,3
    407c:	00f71663          	bne	a4,a5,4088 <uart_init+0x46>
C:\Users\16917\Desktop\Dual-core_Communication_Demo\Dual-core_Communication_Demo\SLAVE\obj/../Libraries/seekfree_libraries/zf_uart.c:89
    4080:	4585                	li	a1,1
    4082:	4511                	li	a0,4
    4084:	86afd0ef          	jal	ra,10ee <GPIO_PinRemapConfig>
C:\Users\16917\Desktop\Dual-core_Communication_Demo\Dual-core_Communication_Demo\SLAVE\obj/../Libraries/seekfree_libraries/zf_uart.c:90
    4088:	fd442703          	lw	a4,-44(s0)
    408c:	02200793          	li	a5,34
    4090:	00f71f63          	bne	a4,a5,40ae <uart_init+0x6c>
C:\Users\16917\Desktop\Dual-core_Communication_Demo\Dual-core_Communication_Demo\SLAVE\obj/../Libraries/seekfree_libraries/zf_uart.c:90 (discriminator 1)
    4094:	fd042703          	lw	a4,-48(s0)
    4098:	02300793          	li	a5,35
    409c:	00f71963          	bne	a4,a5,40ae <uart_init+0x6c>
C:\Users\16917\Desktop\Dual-core_Communication_Demo\Dual-core_Communication_Demo\SLAVE\obj/../Libraries/seekfree_libraries/zf_uart.c:91
    40a0:	4585                	li	a1,1
    40a2:	001407b7          	lui	a5,0x140
    40a6:	01078513          	addi	a0,a5,16 # 140010 <_data_lma+0x139dc8>
    40aa:	844fd0ef          	jal	ra,10ee <GPIO_PinRemapConfig>
C:\Users\16917\Desktop\Dual-core_Communication_Demo\Dual-core_Communication_Demo\SLAVE\obj/../Libraries/seekfree_libraries/zf_uart.c:94
    40ae:	fdc42783          	lw	a5,-36(s0)
    40b2:	e791                	bnez	a5,40be <uart_init+0x7c>
C:\Users\16917\Desktop\Dual-core_Communication_Demo\Dual-core_Communication_Demo\SLAVE\obj/../Libraries/seekfree_libraries/zf_uart.c:94 (discriminator 1)
    40b4:	4585                	li	a1,1
    40b6:	6511                	lui	a0,0x4
    40b8:	dc6fd0ef          	jal	ra,167e <RCC_APB2PeriphClockCmd>
    40bc:	a035                	j	40e8 <uart_init+0xa6>
C:\Users\16917\Desktop\Dual-core_Communication_Demo\Dual-core_Communication_Demo\SLAVE\obj/../Libraries/seekfree_libraries/zf_uart.c:95
    40be:	fdc42703          	lw	a4,-36(s0)
    40c2:	4785                	li	a5,1
    40c4:	00f71863          	bne	a4,a5,40d4 <uart_init+0x92>
C:\Users\16917\Desktop\Dual-core_Communication_Demo\Dual-core_Communication_Demo\SLAVE\obj/../Libraries/seekfree_libraries/zf_uart.c:95 (discriminator 1)
    40c8:	4585                	li	a1,1
    40ca:	00020537          	lui	a0,0x20
    40ce:	df6fd0ef          	jal	ra,16c4 <RCC_APB1PeriphClockCmd>
    40d2:	a819                	j	40e8 <uart_init+0xa6>
C:\Users\16917\Desktop\Dual-core_Communication_Demo\Dual-core_Communication_Demo\SLAVE\obj/../Libraries/seekfree_libraries/zf_uart.c:96
    40d4:	fdc42703          	lw	a4,-36(s0)
    40d8:	4789                	li	a5,2
    40da:	00f71763          	bne	a4,a5,40e8 <uart_init+0xa6>
C:\Users\16917\Desktop\Dual-core_Communication_Demo\Dual-core_Communication_Demo\SLAVE\obj/../Libraries/seekfree_libraries/zf_uart.c:96 (discriminator 1)
    40de:	4585                	li	a1,1
    40e0:	00040537          	lui	a0,0x40
    40e4:	de0fd0ef          	jal	ra,16c4 <RCC_APB1PeriphClockCmd>
C:\Users\16917\Desktop\Dual-core_Communication_Demo\Dual-core_Communication_Demo\SLAVE\obj/../Libraries/seekfree_libraries/zf_uart.c:99
    40e8:	fd842783          	lw	a5,-40(s0)
    40ec:	fef42023          	sw	a5,-32(s0)
C:\Users\16917\Desktop\Dual-core_Communication_Demo\Dual-core_Communication_Demo\SLAVE\obj/../Libraries/seekfree_libraries/zf_uart.c:100
    40f0:	fe041223          	sh	zero,-28(s0)
C:\Users\16917\Desktop\Dual-core_Communication_Demo\Dual-core_Communication_Demo\SLAVE\obj/../Libraries/seekfree_libraries/zf_uart.c:101
    40f4:	fe041323          	sh	zero,-26(s0)
C:\Users\16917\Desktop\Dual-core_Communication_Demo\Dual-core_Communication_Demo\SLAVE\obj/../Libraries/seekfree_libraries/zf_uart.c:102
    40f8:	fe041423          	sh	zero,-24(s0)
C:\Users\16917\Desktop\Dual-core_Communication_Demo\Dual-core_Communication_Demo\SLAVE\obj/../Libraries/seekfree_libraries/zf_uart.c:103
    40fc:	fe041623          	sh	zero,-20(s0)
C:\Users\16917\Desktop\Dual-core_Communication_Demo\Dual-core_Communication_Demo\SLAVE\obj/../Libraries/seekfree_libraries/zf_uart.c:104
    4100:	47b1                	li	a5,12
    4102:	fef41523          	sh	a5,-22(s0)
C:\Users\16917\Desktop\Dual-core_Communication_Demo\Dual-core_Communication_Demo\SLAVE\obj/../Libraries/seekfree_libraries/zf_uart.c:107
    4106:	6799                	lui	a5,0x6
    4108:	fdc42703          	lw	a4,-36(s0)
    410c:	070a                	slli	a4,a4,0x2
    410e:	15c78793          	addi	a5,a5,348 # 615c <UARTN>
    4112:	97ba                	add	a5,a5,a4
    4114:	439c                	lw	a5,0(a5)
    4116:	873e                	mv	a4,a5
    4118:	fe040793          	addi	a5,s0,-32
    411c:	85be                	mv	a1,a5
    411e:	853a                	mv	a0,a4
    4120:	d23fd0ef          	jal	ra,1e42 <USART_Init>
C:\Users\16917\Desktop\Dual-core_Communication_Demo\Dual-core_Communication_Demo\SLAVE\obj/../Libraries/seekfree_libraries/zf_uart.c:108
    4124:	6799                	lui	a5,0x6
    4126:	fdc42703          	lw	a4,-36(s0)
    412a:	070a                	slli	a4,a4,0x2
    412c:	15c78793          	addi	a5,a5,348 # 615c <UARTN>
    4130:	97ba                	add	a5,a5,a4
    4132:	439c                	lw	a5,0(a5)
    4134:	4585                	li	a1,1
    4136:	853e                	mv	a0,a5
    4138:	f3ffd0ef          	jal	ra,2076 <USART_Cmd>
C:\Users\16917\Desktop\Dual-core_Communication_Demo\Dual-core_Communication_Demo\SLAVE\obj/../Libraries/seekfree_libraries/zf_uart.c:111
    413c:	0001                	nop
    413e:	50b2                	lw	ra,44(sp)
    4140:	5422                	lw	s0,40(sp)
    4142:	6145                	addi	sp,sp,48
    4144:	8082                	ret

00004146 <uart_putchar>:
uart_putchar():
C:\Users\16917\Desktop\Dual-core_Communication_Demo\Dual-core_Communication_Demo\SLAVE\obj/../Libraries/seekfree_libraries/zf_uart.c:122
    4146:	1101                	addi	sp,sp,-32
    4148:	ce22                	sw	s0,28(sp)
    414a:	1000                	addi	s0,sp,32
    414c:	fea42623          	sw	a0,-20(s0)
    4150:	87ae                	mv	a5,a1
    4152:	fef405a3          	sb	a5,-21(s0)
C:\Users\16917\Desktop\Dual-core_Communication_Demo\Dual-core_Communication_Demo\SLAVE\obj/../Libraries/seekfree_libraries/zf_uart.c:123
    4156:	0001                	nop
C:\Users\16917\Desktop\Dual-core_Communication_Demo\Dual-core_Communication_Demo\SLAVE\obj/../Libraries/seekfree_libraries/zf_uart.c:123 (discriminator 1)
    4158:	6799                	lui	a5,0x6
    415a:	fec42703          	lw	a4,-20(s0)
    415e:	070a                	slli	a4,a4,0x2
    4160:	15c78793          	addi	a5,a5,348 # 615c <UARTN>
    4164:	97ba                	add	a5,a5,a4
    4166:	439c                	lw	a5,0(a5)
    4168:	0007d783          	lhu	a5,0(a5)
    416c:	07c2                	slli	a5,a5,0x10
    416e:	83c1                	srli	a5,a5,0x10
    4170:	0807f793          	andi	a5,a5,128
    4174:	d3f5                	beqz	a5,4158 <uart_putchar+0x12>
C:\Users\16917\Desktop\Dual-core_Communication_Demo\Dual-core_Communication_Demo\SLAVE\obj/../Libraries/seekfree_libraries/zf_uart.c:124
    4176:	6799                	lui	a5,0x6
    4178:	fec42703          	lw	a4,-20(s0)
    417c:	070a                	slli	a4,a4,0x2
    417e:	15c78793          	addi	a5,a5,348 # 615c <UARTN>
    4182:	97ba                	add	a5,a5,a4
    4184:	439c                	lw	a5,0(a5)
    4186:	873e                	mv	a4,a5
    4188:	feb44783          	lbu	a5,-21(s0)
    418c:	07c2                	slli	a5,a5,0x10
    418e:	83c1                	srli	a5,a5,0x10
    4190:	00f71223          	sh	a5,4(a4) # e000f004 <_eusrstack+0xc000a004>
C:\Users\16917\Desktop\Dual-core_Communication_Demo\Dual-core_Communication_Demo\SLAVE\obj/../Libraries/seekfree_libraries/zf_uart.c:125
    4194:	0001                	nop
    4196:	4472                	lw	s0,28(sp)
    4198:	6105                	addi	sp,sp,32
    419a:	8082                	ret

0000419c <uart_putbuff>:
uart_putbuff():
C:\Users\16917\Desktop\Dual-core_Communication_Demo\Dual-core_Communication_Demo\SLAVE\obj/../Libraries/seekfree_libraries/zf_uart.c:136
    419c:	1101                	addi	sp,sp,-32
    419e:	ce06                	sw	ra,28(sp)
    41a0:	cc22                	sw	s0,24(sp)
    41a2:	1000                	addi	s0,sp,32
    41a4:	fea42623          	sw	a0,-20(s0)
    41a8:	feb42423          	sw	a1,-24(s0)
    41ac:	fec42223          	sw	a2,-28(s0)
C:\Users\16917\Desktop\Dual-core_Communication_Demo\Dual-core_Communication_Demo\SLAVE\obj/../Libraries/seekfree_libraries/zf_uart.c:137
    41b0:	a829                	j	41ca <uart_putbuff+0x2e>
C:\Users\16917\Desktop\Dual-core_Communication_Demo\Dual-core_Communication_Demo\SLAVE\obj/../Libraries/seekfree_libraries/zf_uart.c:138
    41b2:	fe842783          	lw	a5,-24(s0)
    41b6:	00178713          	addi	a4,a5,1
    41ba:	fee42423          	sw	a4,-24(s0)
    41be:	0007c783          	lbu	a5,0(a5)
    41c2:	85be                	mv	a1,a5
    41c4:	fec42503          	lw	a0,-20(s0)
    41c8:	3fbd                	jal	4146 <uart_putchar>
C:\Users\16917\Desktop\Dual-core_Communication_Demo\Dual-core_Communication_Demo\SLAVE\obj/../Libraries/seekfree_libraries/zf_uart.c:137
    41ca:	fe442783          	lw	a5,-28(s0)
    41ce:	fff78713          	addi	a4,a5,-1
    41d2:	fee42223          	sw	a4,-28(s0)
    41d6:	fff1                	bnez	a5,41b2 <uart_putbuff+0x16>
C:\Users\16917\Desktop\Dual-core_Communication_Demo\Dual-core_Communication_Demo\SLAVE\obj/../Libraries/seekfree_libraries/zf_uart.c:139
    41d8:	0001                	nop
    41da:	40f2                	lw	ra,28(sp)
    41dc:	4462                	lw	s0,24(sp)
    41de:	6105                	addi	sp,sp,32
    41e0:	8082                	ret

000041e2 <uart_rx_irq>:
uart_rx_irq():
C:\Users\16917\Desktop\Dual-core_Communication_Demo\Dual-core_Communication_Demo\SLAVE\obj/../Libraries/seekfree_libraries/zf_uart.c:165
    41e2:	1101                	addi	sp,sp,-32
    41e4:	ce06                	sw	ra,28(sp)
    41e6:	cc22                	sw	s0,24(sp)
    41e8:	1000                	addi	s0,sp,32
    41ea:	fea42623          	sw	a0,-20(s0)
    41ee:	87ae                	mv	a5,a1
    41f0:	fef405a3          	sb	a5,-21(s0)
C:\Users\16917\Desktop\Dual-core_Communication_Demo\Dual-core_Communication_Demo\SLAVE\obj/../Libraries/seekfree_libraries/zf_uart.c:166
    41f4:	6799                	lui	a5,0x6
    41f6:	fec42703          	lw	a4,-20(s0)
    41fa:	070a                	slli	a4,a4,0x2
    41fc:	15c78793          	addi	a5,a5,348 # 615c <UARTN>
    4200:	97ba                	add	a5,a5,a4
    4202:	439c                	lw	a5,0(a5)
    4204:	4605                	li	a2,1
    4206:	52500593          	li	a1,1317
    420a:	853e                	mv	a0,a5
    420c:	ecbfd0ef          	jal	ra,20d6 <USART_ITConfig>
C:\Users\16917\Desktop\Dual-core_Communication_Demo\Dual-core_Communication_Demo\SLAVE\obj/../Libraries/seekfree_libraries/zf_uart.c:167
    4210:	fec42783          	lw	a5,-20(s0)
    4214:	03578793          	addi	a5,a5,53
    4218:	feb44703          	lbu	a4,-21(s0)
    421c:	86ba                	mv	a3,a4
    421e:	4601                	li	a2,0
    4220:	4581                	li	a1,0
    4222:	853e                	mv	a0,a5
    4224:	af8ff0ef          	jal	ra,351c <nvic_init>
C:\Users\16917\Desktop\Dual-core_Communication_Demo\Dual-core_Communication_Demo\SLAVE\obj/../Libraries/seekfree_libraries/zf_uart.c:168
    4228:	0001                	nop
    422a:	40f2                	lw	ra,28(sp)
    422c:	4462                	lw	s0,24(sp)
    422e:	6105                	addi	sp,sp,32
    4230:	8082                	ret

00004232 <board_init>:
board_init():
C:\Users\16917\Desktop\Dual-core_Communication_Demo\Dual-core_Communication_Demo\SLAVE\obj/../Libraries/board/board.c:9
    4232:	1141                	addi	sp,sp,-16
    4234:	c606                	sw	ra,12(sp)
    4236:	c422                	sw	s0,8(sp)
    4238:	0800                	addi	s0,sp,16
C:\Users\16917\Desktop\Dual-core_Communication_Demo\Dual-core_Communication_Demo\SLAVE\obj/../Libraries/board/board.c:11
    423a:	400217b7          	lui	a5,0x40021
    423e:	43dc                	lw	a5,4(a5)
    4240:	83c9                	srli	a5,a5,0x12
    4242:	00f7f713          	andi	a4,a5,15
    4246:	007a17b7          	lui	a5,0x7a1
    424a:	20078793          	addi	a5,a5,512 # 7a1200 <_data_lma+0x79afb8>
    424e:	02f70733          	mul	a4,a4,a5
    4252:	00f427b7          	lui	a5,0xf42
    4256:	40078793          	addi	a5,a5,1024 # f42400 <_data_lma+0xf3c1b8>
    425a:	973e                	add	a4,a4,a5
    425c:	84e1a023          	sw	a4,-1984(gp) # 200000f8 <sys_clk>
C:\Users\16917\Desktop\Dual-core_Communication_Demo\Dual-core_Communication_Demo\SLAVE\obj/../Libraries/board/board.c:13
    4260:	4685                	li	a3,1
    4262:	4601                	li	a2,0
    4264:	67f1                	lui	a5,0x1c
    4266:	20078593          	addi	a1,a5,512 # 1c200 <_data_lma+0x15fb8>
    426a:	4501                	li	a0,0
    426c:	dd7ff0ef          	jal	ra,4042 <uart_init>
C:\Users\16917\Desktop\Dual-core_Communication_Demo\Dual-core_Communication_Demo\SLAVE\obj/../Libraries/board/board.c:14
    4270:	0001                	nop
    4272:	40b2                	lw	ra,12(sp)
    4274:	4422                	lw	s0,8(sp)
    4276:	0141                	addi	sp,sp,16
    4278:	8082                	ret

0000427a <_write>:
_write():
C:\Users\16917\Desktop\Dual-core_Communication_Demo\Dual-core_Communication_Demo\SLAVE\obj/../Libraries/board/board.c:25
    427a:	7179                	addi	sp,sp,-48
    427c:	d606                	sw	ra,44(sp)
    427e:	d422                	sw	s0,40(sp)
    4280:	1800                	addi	s0,sp,48
    4282:	fca42e23          	sw	a0,-36(s0)
    4286:	fcb42c23          	sw	a1,-40(s0)
    428a:	fcc42a23          	sw	a2,-44(s0)
C:\Users\16917\Desktop\Dual-core_Communication_Demo\Dual-core_Communication_Demo\SLAVE\obj/../Libraries/board/board.c:27
    428e:	fe042623          	sw	zero,-20(s0)
    4292:	a099                	j	42d8 <_write+0x5e>
C:\Users\16917\Desktop\Dual-core_Communication_Demo\Dual-core_Communication_Demo\SLAVE\obj/../Libraries/board/board.c:29
    4294:	0001                	nop
C:\Users\16917\Desktop\Dual-core_Communication_Demo\Dual-core_Communication_Demo\SLAVE\obj/../Libraries/board/board.c:29 (discriminator 1)
    4296:	6799                	lui	a5,0x6
    4298:	15c7a783          	lw	a5,348(a5) # 615c <UARTN>
    429c:	04000593          	li	a1,64
    42a0:	853e                	mv	a0,a5
    42a2:	f27fd0ef          	jal	ra,21c8 <USART_GetFlagStatus>
    42a6:	87aa                	mv	a5,a0
    42a8:	d7fd                	beqz	a5,4296 <_write+0x1c>
C:\Users\16917\Desktop\Dual-core_Communication_Demo\Dual-core_Communication_Demo\SLAVE\obj/../Libraries/board/board.c:30 (discriminator 2)
    42aa:	6799                	lui	a5,0x6
    42ac:	15c7a783          	lw	a5,348(a5) # 615c <UARTN>
    42b0:	86be                	mv	a3,a5
    42b2:	fd842783          	lw	a5,-40(s0)
    42b6:	00178713          	addi	a4,a5,1
    42ba:	fce42c23          	sw	a4,-40(s0)
    42be:	00078783          	lb	a5,0(a5)
    42c2:	07c2                	slli	a5,a5,0x10
    42c4:	83c1                	srli	a5,a5,0x10
    42c6:	85be                	mv	a1,a5
    42c8:	8536                	mv	a0,a3
    42ca:	ed1fd0ef          	jal	ra,219a <USART_SendData>
C:\Users\16917\Desktop\Dual-core_Communication_Demo\Dual-core_Communication_Demo\SLAVE\obj/../Libraries/board/board.c:27 (discriminator 2)
    42ce:	fec42783          	lw	a5,-20(s0)
    42d2:	0785                	addi	a5,a5,1
    42d4:	fef42623          	sw	a5,-20(s0)
C:\Users\16917\Desktop\Dual-core_Communication_Demo\Dual-core_Communication_Demo\SLAVE\obj/../Libraries/board/board.c:27 (discriminator 1)
    42d8:	fec42703          	lw	a4,-20(s0)
    42dc:	fd442783          	lw	a5,-44(s0)
    42e0:	faf74ae3          	blt	a4,a5,4294 <_write+0x1a>
C:\Users\16917\Desktop\Dual-core_Communication_Demo\Dual-core_Communication_Demo\SLAVE\obj/../Libraries/board/board.c:32
    42e4:	fd442783          	lw	a5,-44(s0)
C:\Users\16917\Desktop\Dual-core_Communication_Demo\Dual-core_Communication_Demo\SLAVE\obj/../Libraries/board/board.c:33
    42e8:	853e                	mv	a0,a5
    42ea:	50b2                	lw	ra,44(sp)
    42ec:	5422                	lw	s0,40(sp)
    42ee:	6145                	addi	sp,sp,48
    42f0:	8082                	ret

000042f2 <SetSysClock>:
SetSysClock():
C:\Users\16917\Desktop\Dual-core_Communication_Demo\Dual-core_Communication_Demo\SLAVE\obj/../Libraries/board/clock_config.c:11
    42f2:	1101                	addi	sp,sp,-32
    42f4:	ce22                	sw	s0,28(sp)
    42f6:	1000                	addi	s0,sp,32
C:\Users\16917\Desktop\Dual-core_Communication_Demo\Dual-core_Communication_Demo\SLAVE\obj/../Libraries/board/clock_config.c:12
    42f8:	fe042623          	sw	zero,-20(s0)
    42fc:	fe042423          	sw	zero,-24(s0)
C:\Users\16917\Desktop\Dual-core_Communication_Demo\Dual-core_Communication_Demo\SLAVE\obj/../Libraries/board/clock_config.c:14
    4300:	400217b7          	lui	a5,0x40021
    4304:	4394                	lw	a3,0(a5)
    4306:	400217b7          	lui	a5,0x40021
    430a:	6741                	lui	a4,0x10
    430c:	8f55                	or	a4,a4,a3
    430e:	c398                	sw	a4,0(a5)
C:\Users\16917\Desktop\Dual-core_Communication_Demo\Dual-core_Communication_Demo\SLAVE\obj/../Libraries/board/clock_config.c:19 (discriminator 2)
    4310:	400217b7          	lui	a5,0x40021
    4314:	4398                	lw	a4,0(a5)
    4316:	000207b7          	lui	a5,0x20
    431a:	8ff9                	and	a5,a5,a4
    431c:	fef42423          	sw	a5,-24(s0)
C:\Users\16917\Desktop\Dual-core_Communication_Demo\Dual-core_Communication_Demo\SLAVE\obj/../Libraries/board/clock_config.c:20 (discriminator 2)
    4320:	fec42783          	lw	a5,-20(s0)
    4324:	0785                	addi	a5,a5,1
    4326:	fef42623          	sw	a5,-20(s0)
C:\Users\16917\Desktop\Dual-core_Communication_Demo\Dual-core_Communication_Demo\SLAVE\obj/../Libraries/board/clock_config.c:21 (discriminator 2)
    432a:	fe842783          	lw	a5,-24(s0)
    432e:	e799                	bnez	a5,433c <SetSysClock+0x4a>
C:\Users\16917\Desktop\Dual-core_Communication_Demo\Dual-core_Communication_Demo\SLAVE\obj/../Libraries/board/clock_config.c:21 (discriminator 1)
    4330:	fec42703          	lw	a4,-20(s0)
    4334:	50000793          	li	a5,1280
    4338:	fcf71ce3          	bne	a4,a5,4310 <SetSysClock+0x1e>
C:\Users\16917\Desktop\Dual-core_Communication_Demo\Dual-core_Communication_Demo\SLAVE\obj/../Libraries/board/clock_config.c:23
    433c:	400217b7          	lui	a5,0x40021
    4340:	4398                	lw	a4,0(a5)
    4342:	000207b7          	lui	a5,0x20
    4346:	8ff9                	and	a5,a5,a4
    4348:	c789                	beqz	a5,4352 <SetSysClock+0x60>
C:\Users\16917\Desktop\Dual-core_Communication_Demo\Dual-core_Communication_Demo\SLAVE\obj/../Libraries/board/clock_config.c:25
    434a:	4785                	li	a5,1
    434c:	fef42423          	sw	a5,-24(s0)
    4350:	a019                	j	4356 <SetSysClock+0x64>
C:\Users\16917\Desktop\Dual-core_Communication_Demo\Dual-core_Communication_Demo\SLAVE\obj/../Libraries/board/clock_config.c:29
    4352:	fe042423          	sw	zero,-24(s0)
C:\Users\16917\Desktop\Dual-core_Communication_Demo\Dual-core_Communication_Demo\SLAVE\obj/../Libraries/board/clock_config.c:32
    4356:	fe842703          	lw	a4,-24(s0)
    435a:	4785                	li	a5,1
    435c:	0cf71763          	bne	a4,a5,442a <SetSysClock+0x138>
C:\Users\16917\Desktop\Dual-core_Communication_Demo\Dual-core_Communication_Demo\SLAVE\obj/../Libraries/board/clock_config.c:35
    4360:	400227b7          	lui	a5,0x40022
    4364:	4398                	lw	a4,0(a5)
    4366:	400227b7          	lui	a5,0x40022
    436a:	01076713          	ori	a4,a4,16
    436e:	c398                	sw	a4,0(a5)
C:\Users\16917\Desktop\Dual-core_Communication_Demo\Dual-core_Communication_Demo\SLAVE\obj/../Libraries/board/clock_config.c:38
    4370:	400227b7          	lui	a5,0x40022
    4374:	4398                	lw	a4,0(a5)
    4376:	400227b7          	lui	a5,0x40022
    437a:	9b71                	andi	a4,a4,-4
    437c:	c398                	sw	a4,0(a5)
C:\Users\16917\Desktop\Dual-core_Communication_Demo\Dual-core_Communication_Demo\SLAVE\obj/../Libraries/board/clock_config.c:39
    437e:	400227b7          	lui	a5,0x40022
    4382:	4398                	lw	a4,0(a5)
    4384:	400227b7          	lui	a5,0x40022
    4388:	00276713          	ori	a4,a4,2
    438c:	c398                	sw	a4,0(a5)
C:\Users\16917\Desktop\Dual-core_Communication_Demo\Dual-core_Communication_Demo\SLAVE\obj/../Libraries/board/clock_config.c:42
    438e:	40021737          	lui	a4,0x40021
    4392:	400217b7          	lui	a5,0x40021
    4396:	4358                	lw	a4,4(a4)
    4398:	c3d8                	sw	a4,4(a5)
C:\Users\16917\Desktop\Dual-core_Communication_Demo\Dual-core_Communication_Demo\SLAVE\obj/../Libraries/board/clock_config.c:44
    439a:	40021737          	lui	a4,0x40021
    439e:	400217b7          	lui	a5,0x40021
    43a2:	4358                	lw	a4,4(a4)
    43a4:	c3d8                	sw	a4,4(a5)
C:\Users\16917\Desktop\Dual-core_Communication_Demo\Dual-core_Communication_Demo\SLAVE\obj/../Libraries/board/clock_config.c:46
    43a6:	40021737          	lui	a4,0x40021
    43aa:	400217b7          	lui	a5,0x40021
    43ae:	4358                	lw	a4,4(a4)
    43b0:	c3d8                	sw	a4,4(a5)
C:\Users\16917\Desktop\Dual-core_Communication_Demo\Dual-core_Communication_Demo\SLAVE\obj/../Libraries/board/clock_config.c:49
    43b2:	400217b7          	lui	a5,0x40021
    43b6:	43d4                	lw	a3,4(a5)
    43b8:	400217b7          	lui	a5,0x40021
    43bc:	ffc10737          	lui	a4,0xffc10
    43c0:	177d                	addi	a4,a4,-1
    43c2:	8f75                	and	a4,a4,a3
    43c4:	c3d8                	sw	a4,4(a5)
C:\Users\16917\Desktop\Dual-core_Communication_Demo\Dual-core_Communication_Demo\SLAVE\obj/../Libraries/board/clock_config.c:52
    43c6:	400217b7          	lui	a5,0x40021
    43ca:	43d4                	lw	a3,4(a5)
    43cc:	400217b7          	lui	a5,0x40021
    43d0:	00250737          	lui	a4,0x250
    43d4:	8f55                	or	a4,a4,a3
    43d6:	c3d8                	sw	a4,4(a5)
C:\Users\16917\Desktop\Dual-core_Communication_Demo\Dual-core_Communication_Demo\SLAVE\obj/../Libraries/board/clock_config.c:54
    43d8:	400217b7          	lui	a5,0x40021
    43dc:	4394                	lw	a3,0(a5)
    43de:	400217b7          	lui	a5,0x40021
    43e2:	01000737          	lui	a4,0x1000
    43e6:	8f55                	or	a4,a4,a3
    43e8:	c398                	sw	a4,0(a5)
C:\Users\16917\Desktop\Dual-core_Communication_Demo\Dual-core_Communication_Demo\SLAVE\obj/../Libraries/board/clock_config.c:56
    43ea:	0001                	nop
C:\Users\16917\Desktop\Dual-core_Communication_Demo\Dual-core_Communication_Demo\SLAVE\obj/../Libraries/board/clock_config.c:56 (discriminator 1)
    43ec:	400217b7          	lui	a5,0x40021
    43f0:	4398                	lw	a4,0(a5)
    43f2:	020007b7          	lui	a5,0x2000
    43f6:	8ff9                	and	a5,a5,a4
    43f8:	dbf5                	beqz	a5,43ec <SetSysClock+0xfa>
C:\Users\16917\Desktop\Dual-core_Communication_Demo\Dual-core_Communication_Demo\SLAVE\obj/../Libraries/board/clock_config.c:60
    43fa:	400217b7          	lui	a5,0x40021
    43fe:	43d8                	lw	a4,4(a5)
    4400:	400217b7          	lui	a5,0x40021
    4404:	9b71                	andi	a4,a4,-4
    4406:	c3d8                	sw	a4,4(a5)
C:\Users\16917\Desktop\Dual-core_Communication_Demo\Dual-core_Communication_Demo\SLAVE\obj/../Libraries/board/clock_config.c:61
    4408:	400217b7          	lui	a5,0x40021
    440c:	43d8                	lw	a4,4(a5)
    440e:	400217b7          	lui	a5,0x40021
    4412:	00276713          	ori	a4,a4,2
    4416:	c3d8                	sw	a4,4(a5)
C:\Users\16917\Desktop\Dual-core_Communication_Demo\Dual-core_Communication_Demo\SLAVE\obj/../Libraries/board/clock_config.c:63
    4418:	0001                	nop
C:\Users\16917\Desktop\Dual-core_Communication_Demo\Dual-core_Communication_Demo\SLAVE\obj/../Libraries/board/clock_config.c:63 (discriminator 1)
    441a:	400217b7          	lui	a5,0x40021
    441e:	43dc                	lw	a5,4(a5)
    4420:	00c7f713          	andi	a4,a5,12
    4424:	47a1                	li	a5,8
    4426:	fef71ae3          	bne	a4,a5,441a <SetSysClock+0x128>
C:\Users\16917\Desktop\Dual-core_Communication_Demo\Dual-core_Communication_Demo\SLAVE\obj/../Libraries/board/clock_config.c:74
    442a:	0001                	nop
    442c:	4472                	lw	s0,28(sp)
    442e:	6105                	addi	sp,sp,32
    4430:	8082                	ret

00004432 <SystemInit>:
SystemInit():
C:\Users\16917\Desktop\Dual-core_Communication_Demo\Dual-core_Communication_Demo\SLAVE\obj/../Libraries/board/clock_config.c:84
    4432:	1141                	addi	sp,sp,-16
    4434:	c606                	sw	ra,12(sp)
    4436:	c422                	sw	s0,8(sp)
    4438:	0800                	addi	s0,sp,16
C:\Users\16917\Desktop\Dual-core_Communication_Demo\Dual-core_Communication_Demo\SLAVE\obj/../Libraries/board/clock_config.c:85
    443a:	400217b7          	lui	a5,0x40021
    443e:	4398                	lw	a4,0(a5)
    4440:	400217b7          	lui	a5,0x40021
    4444:	00176713          	ori	a4,a4,1
    4448:	c398                	sw	a4,0(a5)
C:\Users\16917\Desktop\Dual-core_Communication_Demo\Dual-core_Communication_Demo\SLAVE\obj/../Libraries/board/clock_config.c:86
    444a:	400217b7          	lui	a5,0x40021
    444e:	43d4                	lw	a3,4(a5)
    4450:	400217b7          	lui	a5,0x40021
    4454:	f8ff0737          	lui	a4,0xf8ff0
    4458:	8f75                	and	a4,a4,a3
    445a:	c3d8                	sw	a4,4(a5)
C:\Users\16917\Desktop\Dual-core_Communication_Demo\Dual-core_Communication_Demo\SLAVE\obj/../Libraries/board/clock_config.c:87
    445c:	400217b7          	lui	a5,0x40021
    4460:	4394                	lw	a3,0(a5)
    4462:	400217b7          	lui	a5,0x40021
    4466:	fef70737          	lui	a4,0xfef70
    446a:	177d                	addi	a4,a4,-1
    446c:	8f75                	and	a4,a4,a3
    446e:	c398                	sw	a4,0(a5)
C:\Users\16917\Desktop\Dual-core_Communication_Demo\Dual-core_Communication_Demo\SLAVE\obj/../Libraries/board/clock_config.c:88
    4470:	400217b7          	lui	a5,0x40021
    4474:	4394                	lw	a3,0(a5)
    4476:	400217b7          	lui	a5,0x40021
    447a:	fffc0737          	lui	a4,0xfffc0
    447e:	177d                	addi	a4,a4,-1
    4480:	8f75                	and	a4,a4,a3
    4482:	c398                	sw	a4,0(a5)
C:\Users\16917\Desktop\Dual-core_Communication_Demo\Dual-core_Communication_Demo\SLAVE\obj/../Libraries/board/clock_config.c:89
    4484:	400217b7          	lui	a5,0x40021
    4488:	43d4                	lw	a3,4(a5)
    448a:	400217b7          	lui	a5,0x40021
    448e:	ff810737          	lui	a4,0xff810
    4492:	177d                	addi	a4,a4,-1
    4494:	8f75                	and	a4,a4,a3
    4496:	c3d8                	sw	a4,4(a5)
C:\Users\16917\Desktop\Dual-core_Communication_Demo\Dual-core_Communication_Demo\SLAVE\obj/../Libraries/board/clock_config.c:90
    4498:	400217b7          	lui	a5,0x40021
    449c:	009f0737          	lui	a4,0x9f0
    44a0:	c798                	sw	a4,8(a5)
C:\Users\16917\Desktop\Dual-core_Communication_Demo\Dual-core_Communication_Demo\SLAVE\obj/../Libraries/board/clock_config.c:91
    44a2:	e51ff0ef          	jal	ra,42f2 <SetSysClock>
C:\Users\16917\Desktop\Dual-core_Communication_Demo\Dual-core_Communication_Demo\SLAVE\obj/../Libraries/board/clock_config.c:92
    44a6:	0001                	nop
    44a8:	40b2                	lw	ra,12(sp)
    44aa:	4422                	lw	s0,8(sp)
    44ac:	0141                	addi	sp,sp,16
    44ae:	8082                	ret

000044b0 <trackBorder_Get>:
trackBorder_Get():
D:\A_Dual\Dual-core_Communication_Demo\Dual-core_Communication_Demo\SLAVE\obj/../CODE/TrackGet.c:43
    else
        return b-a;
}

void trackBorder_Get()//
{
    44b0:	1101                	addi	sp,sp,-32
    44b2:	ce06                	sw	ra,28(sp)
    44b4:	cc22                	sw	s0,24(sp)
    44b6:	1000                	addi	s0,sp,32
D:\A_Dual\Dual-core_Communication_Demo\Dual-core_Communication_Demo\SLAVE\obj/../CODE/TrackGet.c:44
    memset(Border[0],0,High*sizeof(int));//
    44b8:	0c800613          	li	a2,200
    44bc:	4581                	li	a1,0
    44be:	200027b7          	lui	a5,0x20002
    44c2:	5e878513          	addi	a0,a5,1512 # 200025e8 <Border>
    44c6:	c7bfb0ef          	jal	ra,140 <memset>
D:\A_Dual\Dual-core_Communication_Demo\Dual-core_Communication_Demo\SLAVE\obj/../CODE/TrackGet.c:45
    memset(Border[1],Width/2,High*sizeof(int));
    44ca:	0c800613          	li	a2,200
    44ce:	05e00593          	li	a1,94
    44d2:	200027b7          	lui	a5,0x20002
    44d6:	64c78513          	addi	a0,a5,1612 # 2000264c <Border+0x64>
    44da:	c67fb0ef          	jal	ra,140 <memset>
D:\A_Dual\Dual-core_Communication_Demo\Dual-core_Communication_Demo\SLAVE\obj/../CODE/TrackGet.c:46
    memset(Border[2],Width-1,High*sizeof(int));
    44de:	0c800613          	li	a2,200
    44e2:	0bb00593          	li	a1,187
    44e6:	200027b7          	lui	a5,0x20002
    44ea:	6b078513          	addi	a0,a5,1712 # 200026b0 <Border+0xc8>
    44ee:	c53fb0ef          	jal	ra,140 <memset>
D:\A_Dual\Dual-core_Communication_Demo\Dual-core_Communication_Demo\SLAVE\obj/../CODE/TrackGet.c:48

    validLine=High;//
    44f2:	03200713          	li	a4,50
    44f6:	84e19523          	sh	a4,-1974(gp) # 20000102 <validLine>
D:\A_Dual\Dual-core_Communication_Demo\Dual-core_Communication_Demo\SLAVE\obj/../CODE/TrackGet.c:49
    leftLostLine_Cnt=0;//
    44fa:	84019823          	sh	zero,-1968(gp) # 20000108 <leftLostLine_Cnt>
D:\A_Dual\Dual-core_Communication_Demo\Dual-core_Communication_Demo\SLAVE\obj/../CODE/TrackGet.c:50
    rightLostLine_Cnt=0;
    44fe:	84019923          	sh	zero,-1966(gp) # 2000010a <rightLostLine_Cnt>
D:\A_Dual\Dual-core_Communication_Demo\Dual-core_Communication_Demo\SLAVE\obj/../CODE/TrackGet.c:51
    centre_last=Width>>1;
    4502:	05e00713          	li	a4,94
    4506:	80e19423          	sh	a4,-2040(gp) # 200000c0 <centre_last>
D:\A_Dual\Dual-core_Communication_Demo\Dual-core_Communication_Demo\SLAVE\obj/../CODE/TrackGet.c:52
    for(int i=High-1;i>=0;i--)//
    450a:	03100793          	li	a5,49
    450e:	fef42623          	sw	a5,-20(s0)
    4512:	ac39                	j	4730 <trackBorder_Get+0x280>
D:\A_Dual\Dual-core_Communication_Demo\Dual-core_Communication_Demo\SLAVE\obj/../CODE/TrackGet.c:54
    {
        lostLeft_Sign=lostRight_Sign=0;//
    4514:	84019723          	sh	zero,-1970(gp) # 20000106 <lostRight_Sign>
    4518:	84e19703          	lh	a4,-1970(gp) # 20000106 <lostRight_Sign>
    451c:	84e19623          	sh	a4,-1972(gp) # 20000104 <lostLeft_Sign>
D:\A_Dual\Dual-core_Communication_Demo\Dual-core_Communication_Demo\SLAVE\obj/../CODE/TrackGet.c:55
        for(int j=centre_last-delta;j>=0;j=j-delta)//
    4520:	80819783          	lh	a5,-2040(gp) # 200000c0 <centre_last>
    4524:	873e                	mv	a4,a5
    4526:	80a19783          	lh	a5,-2038(gp) # 200000c2 <delta>
    452a:	40f707b3          	sub	a5,a4,a5
    452e:	fef42423          	sw	a5,-24(s0)
    4532:	a8bd                	j	45b0 <trackBorder_Get+0x100>
D:\A_Dual\Dual-core_Communication_Demo\Dual-core_Communication_Demo\SLAVE\obj/../CODE/TrackGet.c:65
            {
                EdgeL=j;
                tmp_threshold++;//
                break;
            }*/
            if(mt9v03x_image[i][j]<threshold)
    4534:	200007b7          	lui	a5,0x20000
    4538:	fec42683          	lw	a3,-20(s0)
    453c:	0bc00713          	li	a4,188
    4540:	02e68733          	mul	a4,a3,a4
    4544:	12478793          	addi	a5,a5,292 # 20000124 <mt9v03x_image>
    4548:	973e                	add	a4,a4,a5
    454a:	fe842783          	lw	a5,-24(s0)
    454e:	97ba                	add	a5,a5,a4
    4550:	0007c783          	lbu	a5,0(a5)
    4554:	873e                	mv	a4,a5
    4556:	80c19783          	lh	a5,-2036(gp) # 200000c4 <threshold>
    455a:	00f75a63          	bge	a4,a5,456e <trackBorder_Get+0xbe>
D:\A_Dual\Dual-core_Communication_Demo\Dual-core_Communication_Demo\SLAVE\obj/../CODE/TrackGet.c:67
            {
                EdgeL=j;
    455e:	fe842783          	lw	a5,-24(s0)
    4562:	01079713          	slli	a4,a5,0x10
    4566:	8741                	srai	a4,a4,0x10
    4568:	84e19423          	sh	a4,-1976(gp) # 20000100 <EdgeL>
D:\A_Dual\Dual-core_Communication_Demo\Dual-core_Communication_Demo\SLAVE\obj/../CODE/TrackGet.c:68
                break;
    456c:	a0b1                	j	45b8 <trackBorder_Get+0x108>
D:\A_Dual\Dual-core_Communication_Demo\Dual-core_Communication_Demo\SLAVE\obj/../CODE/TrackGet.c:70
            }
            if(j-delta<0)//
    456e:	80a19783          	lh	a5,-2038(gp) # 200000c2 <delta>
    4572:	873e                	mv	a4,a5
    4574:	fe842783          	lw	a5,-24(s0)
    4578:	8f99                	sub	a5,a5,a4
    457a:	0207d363          	bgez	a5,45a0 <trackBorder_Get+0xf0>
D:\A_Dual\Dual-core_Communication_Demo\Dual-core_Communication_Demo\SLAVE\obj/../CODE/TrackGet.c:72
            {
                EdgeL=0;
    457e:	84019423          	sh	zero,-1976(gp) # 20000100 <EdgeL>
D:\A_Dual\Dual-core_Communication_Demo\Dual-core_Communication_Demo\SLAVE\obj/../CODE/TrackGet.c:73
                lostLeft_Sign=1;
    4582:	4705                	li	a4,1
    4584:	84e19623          	sh	a4,-1972(gp) # 20000104 <lostLeft_Sign>
D:\A_Dual\Dual-core_Communication_Demo\Dual-core_Communication_Demo\SLAVE\obj/../CODE/TrackGet.c:74
                leftLostLine_Cnt++;
    4588:	85019783          	lh	a5,-1968(gp) # 20000108 <leftLostLine_Cnt>
    458c:	07c2                	slli	a5,a5,0x10
    458e:	83c1                	srli	a5,a5,0x10
    4590:	0785                	addi	a5,a5,1
    4592:	07c2                	slli	a5,a5,0x10
    4594:	83c1                	srli	a5,a5,0x10
    4596:	01079713          	slli	a4,a5,0x10
    459a:	8741                	srai	a4,a4,0x10
    459c:	84e19823          	sh	a4,-1968(gp) # 20000108 <leftLostLine_Cnt>
D:\A_Dual\Dual-core_Communication_Demo\Dual-core_Communication_Demo\SLAVE\obj/../CODE/TrackGet.c:55 (discriminator 2)
        for(int j=centre_last-delta;j>=0;j=j-delta)//
    45a0:	80a19783          	lh	a5,-2038(gp) # 200000c2 <delta>
    45a4:	873e                	mv	a4,a5
    45a6:	fe842783          	lw	a5,-24(s0)
    45aa:	8f99                	sub	a5,a5,a4
    45ac:	fef42423          	sw	a5,-24(s0)
D:\A_Dual\Dual-core_Communication_Demo\Dual-core_Communication_Demo\SLAVE\obj/../CODE/TrackGet.c:55 (discriminator 1)
    45b0:	fe842783          	lw	a5,-24(s0)
    45b4:	f807d0e3          	bgez	a5,4534 <trackBorder_Get+0x84>
D:\A_Dual\Dual-core_Communication_Demo\Dual-core_Communication_Demo\SLAVE\obj/../CODE/TrackGet.c:77
            }
        }
        for(int j=centre_last+delta;j<Width;j=j+delta)//
    45b8:	80819783          	lh	a5,-2040(gp) # 200000c0 <centre_last>
    45bc:	873e                	mv	a4,a5
    45be:	80a19783          	lh	a5,-2038(gp) # 200000c2 <delta>
    45c2:	97ba                	add	a5,a5,a4
    45c4:	fef42223          	sw	a5,-28(s0)
    45c8:	a059                	j	464e <trackBorder_Get+0x19e>
D:\A_Dual\Dual-core_Communication_Demo\Dual-core_Communication_Demo\SLAVE\obj/../CODE/TrackGet.c:87
            {
                EdgeR=j;
                tmp_threshold++;//
                break;
            }*/
            if(mt9v03x_image[i][j]<threshold)
    45ca:	200007b7          	lui	a5,0x20000
    45ce:	fec42683          	lw	a3,-20(s0)
    45d2:	0bc00713          	li	a4,188
    45d6:	02e68733          	mul	a4,a3,a4
    45da:	12478793          	addi	a5,a5,292 # 20000124 <mt9v03x_image>
    45de:	973e                	add	a4,a4,a5
    45e0:	fe442783          	lw	a5,-28(s0)
    45e4:	97ba                	add	a5,a5,a4
    45e6:	0007c783          	lbu	a5,0(a5)
    45ea:	873e                	mv	a4,a5
    45ec:	80c19783          	lh	a5,-2036(gp) # 200000c4 <threshold>
    45f0:	00f75a63          	bge	a4,a5,4604 <trackBorder_Get+0x154>
D:\A_Dual\Dual-core_Communication_Demo\Dual-core_Communication_Demo\SLAVE\obj/../CODE/TrackGet.c:89
            {
                EdgeR=j;
    45f4:	fe442783          	lw	a5,-28(s0)
    45f8:	01079713          	slli	a4,a5,0x10
    45fc:	8741                	srai	a4,a4,0x10
    45fe:	80e19723          	sh	a4,-2034(gp) # 200000c6 <EdgeR>
D:\A_Dual\Dual-core_Communication_Demo\Dual-core_Communication_Demo\SLAVE\obj/../CODE/TrackGet.c:90
                break;
    4602:	a8a1                	j	465a <trackBorder_Get+0x1aa>
D:\A_Dual\Dual-core_Communication_Demo\Dual-core_Communication_Demo\SLAVE\obj/../CODE/TrackGet.c:92
            }
            if(j+delta>=Width)//
    4604:	80a19783          	lh	a5,-2038(gp) # 200000c2 <delta>
    4608:	873e                	mv	a4,a5
    460a:	fe442783          	lw	a5,-28(s0)
    460e:	973e                	add	a4,a4,a5
    4610:	0bb00793          	li	a5,187
    4614:	02e7d563          	bge	a5,a4,463e <trackBorder_Get+0x18e>
D:\A_Dual\Dual-core_Communication_Demo\Dual-core_Communication_Demo\SLAVE\obj/../CODE/TrackGet.c:94
            {
                EdgeR=Width-1;
    4618:	0bb00713          	li	a4,187
    461c:	80e19723          	sh	a4,-2034(gp) # 200000c6 <EdgeR>
D:\A_Dual\Dual-core_Communication_Demo\Dual-core_Communication_Demo\SLAVE\obj/../CODE/TrackGet.c:95
                lostRight_Sign=1;
    4620:	4705                	li	a4,1
    4622:	84e19723          	sh	a4,-1970(gp) # 20000106 <lostRight_Sign>
D:\A_Dual\Dual-core_Communication_Demo\Dual-core_Communication_Demo\SLAVE\obj/../CODE/TrackGet.c:96
                rightLostLine_Cnt++;
    4626:	85219783          	lh	a5,-1966(gp) # 2000010a <rightLostLine_Cnt>
    462a:	07c2                	slli	a5,a5,0x10
    462c:	83c1                	srli	a5,a5,0x10
    462e:	0785                	addi	a5,a5,1
    4630:	07c2                	slli	a5,a5,0x10
    4632:	83c1                	srli	a5,a5,0x10
    4634:	01079713          	slli	a4,a5,0x10
    4638:	8741                	srai	a4,a4,0x10
    463a:	84e19923          	sh	a4,-1966(gp) # 2000010a <rightLostLine_Cnt>
D:\A_Dual\Dual-core_Communication_Demo\Dual-core_Communication_Demo\SLAVE\obj/../CODE/TrackGet.c:77 (discriminator 2)
        for(int j=centre_last+delta;j<Width;j=j+delta)//
    463e:	80a19783          	lh	a5,-2038(gp) # 200000c2 <delta>
    4642:	873e                	mv	a4,a5
    4644:	fe442783          	lw	a5,-28(s0)
    4648:	97ba                	add	a5,a5,a4
    464a:	fef42223          	sw	a5,-28(s0)
D:\A_Dual\Dual-core_Communication_Demo\Dual-core_Communication_Demo\SLAVE\obj/../CODE/TrackGet.c:77 (discriminator 1)
    464e:	fe442703          	lw	a4,-28(s0)
    4652:	0bb00793          	li	a5,187
    4656:	f6e7dae3          	bge	a5,a4,45ca <trackBorder_Get+0x11a>
D:\A_Dual\Dual-core_Communication_Demo\Dual-core_Communication_Demo\SLAVE\obj/../CODE/TrackGet.c:100
            }
        }

        Border[LEFT][i]=EdgeL;//
    465a:	84819703          	lh	a4,-1976(gp) # 20000100 <EdgeL>
    465e:	200027b7          	lui	a5,0x20002
    4662:	fec42683          	lw	a3,-20(s0)
    4666:	0686                	slli	a3,a3,0x1
    4668:	5e878793          	addi	a5,a5,1512 # 200025e8 <Border>
    466c:	97b6                	add	a5,a5,a3
    466e:	00e79023          	sh	a4,0(a5)
D:\A_Dual\Dual-core_Communication_Demo\Dual-core_Communication_Demo\SLAVE\obj/../CODE/TrackGet.c:101
        Border[RIGHT][i]=EdgeR;//
    4672:	80e19703          	lh	a4,-2034(gp) # 200000c6 <EdgeR>
    4676:	200027b7          	lui	a5,0x20002
    467a:	fec42683          	lw	a3,-20(s0)
    467e:	06468693          	addi	a3,a3,100 # 40010064 <_eusrstack+0x2000b064>
    4682:	0686                	slli	a3,a3,0x1
    4684:	5e878793          	addi	a5,a5,1512 # 200025e8 <Border>
    4688:	97b6                	add	a5,a5,a3
    468a:	00e79023          	sh	a4,0(a5)
D:\A_Dual\Dual-core_Communication_Demo\Dual-core_Communication_Demo\SLAVE\obj/../CODE/TrackGet.c:102
        Border[CENTRE][i]=(EdgeL+EdgeR)>>1;//
    468e:	84819783          	lh	a5,-1976(gp) # 20000100 <EdgeL>
    4692:	873e                	mv	a4,a5
    4694:	80e19783          	lh	a5,-2034(gp) # 200000c6 <EdgeR>
    4698:	97ba                	add	a5,a5,a4
    469a:	8785                	srai	a5,a5,0x1
    469c:	01079713          	slli	a4,a5,0x10
    46a0:	8741                	srai	a4,a4,0x10
    46a2:	200027b7          	lui	a5,0x20002
    46a6:	fec42683          	lw	a3,-20(s0)
    46aa:	03268693          	addi	a3,a3,50
    46ae:	0686                	slli	a3,a3,0x1
    46b0:	5e878793          	addi	a5,a5,1512 # 200025e8 <Border>
    46b4:	97b6                	add	a5,a5,a3
    46b6:	00e79023          	sh	a4,0(a5)
D:\A_Dual\Dual-core_Communication_Demo\Dual-core_Communication_Demo\SLAVE\obj/../CODE/TrackGet.c:103
        if(lostLeft_Sign==0&&lostRight_Sign==0)//centre_lastcentre_last
    46ba:	84c19783          	lh	a5,-1972(gp) # 20000104 <lostLeft_Sign>
    46be:	e385                	bnez	a5,46de <trackBorder_Get+0x22e>
D:\A_Dual\Dual-core_Communication_Demo\Dual-core_Communication_Demo\SLAVE\obj/../CODE/TrackGet.c:103 (discriminator 1)
    46c0:	84e19783          	lh	a5,-1970(gp) # 20000106 <lostRight_Sign>
    46c4:	ef89                	bnez	a5,46de <trackBorder_Get+0x22e>
D:\A_Dual\Dual-core_Communication_Demo\Dual-core_Communication_Demo\SLAVE\obj/../CODE/TrackGet.c:104
            centre_last=(EdgeL+EdgeR)>>1;
    46c6:	84819783          	lh	a5,-1976(gp) # 20000100 <EdgeL>
    46ca:	873e                	mv	a4,a5
    46cc:	80e19783          	lh	a5,-2034(gp) # 200000c6 <EdgeR>
    46d0:	97ba                	add	a5,a5,a4
    46d2:	8785                	srai	a5,a5,0x1
    46d4:	01079713          	slli	a4,a5,0x10
    46d8:	8741                	srai	a4,a4,0x10
    46da:	80e19423          	sh	a4,-2040(gp) # 200000c0 <centre_last>
D:\A_Dual\Dual-core_Communication_Demo\Dual-core_Communication_Demo\SLAVE\obj/../CODE/TrackGet.c:105
        if(i-1>=0)//
    46de:	fec42783          	lw	a5,-20(s0)
    46e2:	04f05263          	blez	a5,4726 <trackBorder_Get+0x276>
D:\A_Dual\Dual-core_Communication_Demo\Dual-core_Communication_Demo\SLAVE\obj/../CODE/TrackGet.c:114
            if(absolute(a,b)/(a+b)*100>=threshold)
            {
                validLine=i;
                break;
            }*/
            if(mt9v03x_image[i-1][centre_last]<threshold)
    46e6:	fec42783          	lw	a5,-20(s0)
    46ea:	fff78693          	addi	a3,a5,-1
    46ee:	80819783          	lh	a5,-2040(gp) # 200000c0 <centre_last>
    46f2:	863e                	mv	a2,a5
    46f4:	200007b7          	lui	a5,0x20000
    46f8:	0bc00713          	li	a4,188
    46fc:	02e68733          	mul	a4,a3,a4
    4700:	12478793          	addi	a5,a5,292 # 20000124 <mt9v03x_image>
    4704:	97ba                	add	a5,a5,a4
    4706:	97b2                	add	a5,a5,a2
    4708:	0007c783          	lbu	a5,0(a5)
    470c:	873e                	mv	a4,a5
    470e:	80c19783          	lh	a5,-2036(gp) # 200000c4 <threshold>
    4712:	00f75a63          	bge	a4,a5,4726 <trackBorder_Get+0x276>
D:\A_Dual\Dual-core_Communication_Demo\Dual-core_Communication_Demo\SLAVE\obj/../CODE/TrackGet.c:116
            {
                validLine=i;
    4716:	fec42783          	lw	a5,-20(s0)
    471a:	01079713          	slli	a4,a5,0x10
    471e:	8741                	srai	a4,a4,0x10
    4720:	84e19523          	sh	a4,-1974(gp) # 20000102 <validLine>
D:\A_Dual\Dual-core_Communication_Demo\Dual-core_Communication_Demo\SLAVE\obj/../CODE/TrackGet.c:119
                //ips114_showuint8(0,7,mt9v03x_image[i-1][centre_last]);
                //ips114_showint16(0,7,validLine);
                break;
    4724:	a811                	j	4738 <trackBorder_Get+0x288>
D:\A_Dual\Dual-core_Communication_Demo\Dual-core_Communication_Demo\SLAVE\obj/../CODE/TrackGet.c:52 (discriminator 2)
    for(int i=High-1;i>=0;i--)//
    4726:	fec42783          	lw	a5,-20(s0)
    472a:	17fd                	addi	a5,a5,-1
    472c:	fef42623          	sw	a5,-20(s0)
D:\A_Dual\Dual-core_Communication_Demo\Dual-core_Communication_Demo\SLAVE\obj/../CODE/TrackGet.c:52 (discriminator 1)
    4730:	fec42783          	lw	a5,-20(s0)
    4734:	de07d0e3          	bgez	a5,4514 <trackBorder_Get+0x64>
D:\A_Dual\Dual-core_Communication_Demo\Dual-core_Communication_Demo\SLAVE\obj/../CODE/TrackGet.c:123
            }
        }
    }
}
    4738:	0001                	nop
    473a:	40f2                	lw	ra,28(sp)
    473c:	4462                	lw	s0,24(sp)
    473e:	6105                	addi	sp,sp,32
    4740:	8082                	ret

00004742 <centre_line_get>:
centre_line_get():
D:\A_Dual\Dual-core_Communication_Demo\Dual-core_Communication_Demo\SLAVE\obj/../CODE/TrackGet.c:126

int16 centre_line_get()
{
    4742:	1101                	addi	sp,sp,-32
    4744:	ce22                	sw	s0,28(sp)
    4746:	1000                	addi	s0,sp,32
D:\A_Dual\Dual-core_Communication_Demo\Dual-core_Communication_Demo\SLAVE\obj/../CODE/TrackGet.c:127
    int16 tmp=0;
    4748:	fe041723          	sh	zero,-18(s0)
D:\A_Dual\Dual-core_Communication_Demo\Dual-core_Communication_Demo\SLAVE\obj/../CODE/TrackGet.c:132
    //ips114_showint16(0,7,validLine);
    //ips114_showint16(0,7,Border[1][High-1]);
    //ips114_showint16(0,7,Border[1][High-2]);
    //ips114_showint16(0,7,centre_last);
    if(validLine<default_judge_line)
    474c:	84a19703          	lh	a4,-1974(gp) # 20000102 <validLine>
    4750:	81019783          	lh	a5,-2032(gp) # 200000c8 <default_judge_line>
    4754:	02f75863          	bge	a4,a5,4784 <centre_line_get+0x42>
D:\A_Dual\Dual-core_Communication_Demo\Dual-core_Communication_Demo\SLAVE\obj/../CODE/TrackGet.c:134
    {
        tmp=Border[CENTRE][default_judge_line]-Width/2;
    4758:	81019783          	lh	a5,-2032(gp) # 200000c8 <default_judge_line>
    475c:	873e                	mv	a4,a5
    475e:	200027b7          	lui	a5,0x20002
    4762:	03270713          	addi	a4,a4,50 # 9f0032 <_data_lma+0x9e9dea>
    4766:	0706                	slli	a4,a4,0x1
    4768:	5e878793          	addi	a5,a5,1512 # 200025e8 <Border>
    476c:	97ba                	add	a5,a5,a4
    476e:	00079783          	lh	a5,0(a5)
    4772:	07c2                	slli	a5,a5,0x10
    4774:	83c1                	srli	a5,a5,0x10
    4776:	fa278793          	addi	a5,a5,-94
    477a:	07c2                	slli	a5,a5,0x10
    477c:	83c1                	srli	a5,a5,0x10
    477e:	fef41723          	sh	a5,-18(s0)
    4782:	a035                	j	47ae <centre_line_get+0x6c>
D:\A_Dual\Dual-core_Communication_Demo\Dual-core_Communication_Demo\SLAVE\obj/../CODE/TrackGet.c:138
    }
    else
    {
        tmp=Border[CENTRE][validLine]-Width/2;
    4784:	84a19783          	lh	a5,-1974(gp) # 20000102 <validLine>
    4788:	873e                	mv	a4,a5
    478a:	200027b7          	lui	a5,0x20002
    478e:	03270713          	addi	a4,a4,50
    4792:	0706                	slli	a4,a4,0x1
    4794:	5e878793          	addi	a5,a5,1512 # 200025e8 <Border>
    4798:	97ba                	add	a5,a5,a4
    479a:	00079783          	lh	a5,0(a5)
    479e:	07c2                	slli	a5,a5,0x10
    47a0:	83c1                	srli	a5,a5,0x10
    47a2:	fa278793          	addi	a5,a5,-94
    47a6:	07c2                	slli	a5,a5,0x10
    47a8:	83c1                	srli	a5,a5,0x10
    47aa:	fef41723          	sh	a5,-18(s0)
D:\A_Dual\Dual-core_Communication_Demo\Dual-core_Communication_Demo\SLAVE\obj/../CODE/TrackGet.c:140
    }
    return tmp;
    47ae:	fee41783          	lh	a5,-18(s0)
D:\A_Dual\Dual-core_Communication_Demo\Dual-core_Communication_Demo\SLAVE\obj/../CODE/TrackGet.c:141
}
    47b2:	853e                	mv	a0,a5
    47b4:	4472                	lw	s0,28(sp)
    47b6:	6105                	addi	sp,sp,32
    47b8:	8082                	ret

000047ba <__assert_func>:
__assert_func():
    47ba:	81418793          	addi	a5,gp,-2028 # 200000cc <_impure_ptr>
    47be:	439c                	lw	a5,0(a5)
    47c0:	1141                	addi	sp,sp,-16
    47c2:	8832                	mv	a6,a2
    47c4:	c606                	sw	ra,12(sp)
    47c6:	88aa                	mv	a7,a0
    47c8:	872e                	mv	a4,a1
    47ca:	47c8                	lw	a0,12(a5)
    47cc:	8636                	mv	a2,a3
    47ce:	00002797          	auipc	a5,0x2
    47d2:	99e78793          	addi	a5,a5,-1634 # 616c <UARTN+0x10>
    47d6:	00081763          	bnez	a6,47e4 <__assert_func+0x2a>
    47da:	00002797          	auipc	a5,0x2
    47de:	99e78793          	addi	a5,a5,-1634 # 6178 <UARTN+0x1c>
    47e2:	883e                	mv	a6,a5
    47e4:	86c6                	mv	a3,a7
    47e6:	00002597          	auipc	a1,0x2
    47ea:	99658593          	addi	a1,a1,-1642 # 617c <UARTN+0x20>
    47ee:	2019                	jal	47f4 <fiprintf>
    47f0:	0b3000ef          	jal	ra,50a2 <abort>

000047f4 <fiprintf>:
fprintf():
    47f4:	7139                	addi	sp,sp,-64
    47f6:	d432                	sw	a2,40(sp)
    47f8:	d636                	sw	a3,44(sp)
    47fa:	da3e                	sw	a5,52(sp)
    47fc:	d83a                	sw	a4,48(sp)
    47fe:	dc42                	sw	a6,56(sp)
    4800:	de46                	sw	a7,60(sp)
    4802:	81418793          	addi	a5,gp,-2028 # 200000cc <_impure_ptr>
    4806:	862e                	mv	a2,a1
    4808:	85aa                	mv	a1,a0
    480a:	4388                	lw	a0,0(a5)
    480c:	1034                	addi	a3,sp,40
    480e:	ce06                	sw	ra,28(sp)
    4810:	c636                	sw	a3,12(sp)
    4812:	2895                	jal	4886 <_vfiprintf_r>
    4814:	40f2                	lw	ra,28(sp)
    4816:	6121                	addi	sp,sp,64
    4818:	8082                	ret

0000481a <__sfputc_r>:
__sfputc_r():
    481a:	461c                	lw	a5,8(a2)
    481c:	17fd                	addi	a5,a5,-1
    481e:	c61c                	sw	a5,8(a2)
    4820:	0007d963          	bgez	a5,4832 <__sfputc_r+0x18>
    4824:	4e18                	lw	a4,24(a2)
    4826:	00e7c563          	blt	a5,a4,4830 <__sfputc_r+0x16>
    482a:	47a9                	li	a5,10
    482c:	00f59363          	bne	a1,a5,4832 <__sfputc_r+0x18>
    4830:	a55d                	j	4ed6 <__swbuf_r>
    4832:	421c                	lw	a5,0(a2)
    4834:	852e                	mv	a0,a1
    4836:	00178713          	addi	a4,a5,1
    483a:	c218                	sw	a4,0(a2)
    483c:	00b78023          	sb	a1,0(a5)
    4840:	8082                	ret

00004842 <__sfputs_r>:
__sfputs_r():
    4842:	1101                	addi	sp,sp,-32
    4844:	cc22                	sw	s0,24(sp)
    4846:	ca26                	sw	s1,20(sp)
    4848:	c84a                	sw	s2,16(sp)
    484a:	c64e                	sw	s3,12(sp)
    484c:	c452                	sw	s4,8(sp)
    484e:	ce06                	sw	ra,28(sp)
    4850:	892a                	mv	s2,a0
    4852:	89ae                	mv	s3,a1
    4854:	8432                	mv	s0,a2
    4856:	00d604b3          	add	s1,a2,a3
    485a:	5a7d                	li	s4,-1
    485c:	00941463          	bne	s0,s1,4864 <__sfputs_r+0x22>
    4860:	4501                	li	a0,0
    4862:	a811                	j	4876 <__sfputs_r+0x34>
    4864:	00044583          	lbu	a1,0(s0)
    4868:	864e                	mv	a2,s3
    486a:	854a                	mv	a0,s2
    486c:	fafff0ef          	jal	ra,481a <__sfputc_r>
    4870:	0405                	addi	s0,s0,1
    4872:	ff4515e3          	bne	a0,s4,485c <__sfputs_r+0x1a>
    4876:	40f2                	lw	ra,28(sp)
    4878:	4462                	lw	s0,24(sp)
    487a:	44d2                	lw	s1,20(sp)
    487c:	4942                	lw	s2,16(sp)
    487e:	49b2                	lw	s3,12(sp)
    4880:	4a22                	lw	s4,8(sp)
    4882:	6105                	addi	sp,sp,32
    4884:	8082                	ret

00004886 <_vfiprintf_r>:
_vfiprintf_r():
    4886:	7135                	addi	sp,sp,-160
    4888:	cd22                	sw	s0,152(sp)
    488a:	cb26                	sw	s1,148(sp)
    488c:	c94a                	sw	s2,144(sp)
    488e:	c74e                	sw	s3,140(sp)
    4890:	cf06                	sw	ra,156(sp)
    4892:	c552                	sw	s4,136(sp)
    4894:	c356                	sw	s5,132(sp)
    4896:	c15a                	sw	s6,128(sp)
    4898:	dede                	sw	s7,124(sp)
    489a:	dce2                	sw	s8,120(sp)
    489c:	dae6                	sw	s9,116(sp)
    489e:	89aa                	mv	s3,a0
    48a0:	84ae                	mv	s1,a1
    48a2:	8932                	mv	s2,a2
    48a4:	8436                	mv	s0,a3
    48a6:	c509                	beqz	a0,48b0 <_vfiprintf_r+0x2a>
    48a8:	4d1c                	lw	a5,24(a0)
    48aa:	e399                	bnez	a5,48b0 <_vfiprintf_r+0x2a>
    48ac:	261000ef          	jal	ra,530c <__sinit>
    48b0:	00002797          	auipc	a5,0x2
    48b4:	95878793          	addi	a5,a5,-1704 # 6208 <__sf_fake_stdin>
    48b8:	0cf49d63          	bne	s1,a5,4992 <_vfiprintf_r+0x10c>
    48bc:	0049a483          	lw	s1,4(s3)
    48c0:	00c4d783          	lhu	a5,12(s1)
    48c4:	8ba1                	andi	a5,a5,8
    48c6:	cbe5                	beqz	a5,49b6 <_vfiprintf_r+0x130>
    48c8:	489c                	lw	a5,16(s1)
    48ca:	c7f5                	beqz	a5,49b6 <_vfiprintf_r+0x130>
    48cc:	02000793          	li	a5,32
    48d0:	02f104a3          	sb	a5,41(sp)
    48d4:	03000793          	li	a5,48
    48d8:	d202                	sw	zero,36(sp)
    48da:	02f10523          	sb	a5,42(sp)
    48de:	c622                	sw	s0,12(sp)
    48e0:	02500b93          	li	s7,37
    48e4:	00002a97          	auipc	s5,0x2
    48e8:	8c8a8a93          	addi	s5,s5,-1848 # 61ac <UARTN+0x50>
    48ec:	4c05                	li	s8,1
    48ee:	4b29                	li	s6,10
    48f0:	844a                	mv	s0,s2
    48f2:	00044783          	lbu	a5,0(s0)
    48f6:	c399                	beqz	a5,48fc <_vfiprintf_r+0x76>
    48f8:	0f779163          	bne	a5,s7,49da <_vfiprintf_r+0x154>
    48fc:	41240cb3          	sub	s9,s0,s2
    4900:	000c8e63          	beqz	s9,491c <_vfiprintf_r+0x96>
    4904:	86e6                	mv	a3,s9
    4906:	864a                	mv	a2,s2
    4908:	85a6                	mv	a1,s1
    490a:	854e                	mv	a0,s3
    490c:	f37ff0ef          	jal	ra,4842 <__sfputs_r>
    4910:	57fd                	li	a5,-1
    4912:	1ef50863          	beq	a0,a5,4b02 <_vfiprintf_r+0x27c>
    4916:	5692                	lw	a3,36(sp)
    4918:	96e6                	add	a3,a3,s9
    491a:	d236                	sw	a3,36(sp)
    491c:	00044783          	lbu	a5,0(s0)
    4920:	1e078163          	beqz	a5,4b02 <_vfiprintf_r+0x27c>
    4924:	57fd                	li	a5,-1
    4926:	00140913          	addi	s2,s0,1
    492a:	c802                	sw	zero,16(sp)
    492c:	ce02                	sw	zero,28(sp)
    492e:	ca3e                	sw	a5,20(sp)
    4930:	cc02                	sw	zero,24(sp)
    4932:	040109a3          	sb	zero,83(sp)
    4936:	d482                	sw	zero,104(sp)
    4938:	00094583          	lbu	a1,0(s2)
    493c:	4615                	li	a2,5
    493e:	8556                	mv	a0,s5
    4940:	43b000ef          	jal	ra,557a <memchr>
    4944:	00190413          	addi	s0,s2,1
    4948:	47c2                	lw	a5,16(sp)
    494a:	e951                	bnez	a0,49de <_vfiprintf_r+0x158>
    494c:	0107f713          	andi	a4,a5,16
    4950:	c709                	beqz	a4,495a <_vfiprintf_r+0xd4>
    4952:	02000713          	li	a4,32
    4956:	04e109a3          	sb	a4,83(sp)
    495a:	0087f713          	andi	a4,a5,8
    495e:	c709                	beqz	a4,4968 <_vfiprintf_r+0xe2>
    4960:	02b00713          	li	a4,43
    4964:	04e109a3          	sb	a4,83(sp)
    4968:	00094683          	lbu	a3,0(s2)
    496c:	02a00713          	li	a4,42
    4970:	06e68f63          	beq	a3,a4,49ee <_vfiprintf_r+0x168>
    4974:	47f2                	lw	a5,28(sp)
    4976:	844a                	mv	s0,s2
    4978:	4681                	li	a3,0
    497a:	4625                	li	a2,9
    497c:	00044703          	lbu	a4,0(s0)
    4980:	00140593          	addi	a1,s0,1
    4984:	fd070713          	addi	a4,a4,-48
    4988:	0ae67863          	bgeu	a2,a4,4a38 <_vfiprintf_r+0x1b2>
    498c:	caad                	beqz	a3,49fe <_vfiprintf_r+0x178>
    498e:	ce3e                	sw	a5,28(sp)
    4990:	a0bd                	j	49fe <_vfiprintf_r+0x178>
    4992:	00002797          	auipc	a5,0x2
    4996:	89678793          	addi	a5,a5,-1898 # 6228 <__sf_fake_stdout>
    499a:	00f49563          	bne	s1,a5,49a4 <_vfiprintf_r+0x11e>
    499e:	0089a483          	lw	s1,8(s3)
    49a2:	bf39                	j	48c0 <_vfiprintf_r+0x3a>
    49a4:	00002797          	auipc	a5,0x2
    49a8:	84478793          	addi	a5,a5,-1980 # 61e8 <__sf_fake_stderr>
    49ac:	f0f49ae3          	bne	s1,a5,48c0 <_vfiprintf_r+0x3a>
    49b0:	00c9a483          	lw	s1,12(s3)
    49b4:	b731                	j	48c0 <_vfiprintf_r+0x3a>
    49b6:	85a6                	mv	a1,s1
    49b8:	854e                	mv	a0,s3
    49ba:	2bf1                	jal	4f96 <__swsetup_r>
    49bc:	d901                	beqz	a0,48cc <_vfiprintf_r+0x46>
    49be:	557d                	li	a0,-1
    49c0:	40fa                	lw	ra,156(sp)
    49c2:	446a                	lw	s0,152(sp)
    49c4:	44da                	lw	s1,148(sp)
    49c6:	494a                	lw	s2,144(sp)
    49c8:	49ba                	lw	s3,140(sp)
    49ca:	4a2a                	lw	s4,136(sp)
    49cc:	4a9a                	lw	s5,132(sp)
    49ce:	4b0a                	lw	s6,128(sp)
    49d0:	5bf6                	lw	s7,124(sp)
    49d2:	5c66                	lw	s8,120(sp)
    49d4:	5cd6                	lw	s9,116(sp)
    49d6:	610d                	addi	sp,sp,160
    49d8:	8082                	ret
    49da:	0405                	addi	s0,s0,1
    49dc:	bf19                	j	48f2 <_vfiprintf_r+0x6c>
    49de:	41550533          	sub	a0,a0,s5
    49e2:	00ac1533          	sll	a0,s8,a0
    49e6:	8fc9                	or	a5,a5,a0
    49e8:	c83e                	sw	a5,16(sp)
    49ea:	8922                	mv	s2,s0
    49ec:	b7b1                	j	4938 <_vfiprintf_r+0xb2>
    49ee:	4732                	lw	a4,12(sp)
    49f0:	00470693          	addi	a3,a4,4
    49f4:	4318                	lw	a4,0(a4)
    49f6:	c636                	sw	a3,12(sp)
    49f8:	02074963          	bltz	a4,4a2a <_vfiprintf_r+0x1a4>
    49fc:	ce3a                	sw	a4,28(sp)
    49fe:	00044703          	lbu	a4,0(s0)
    4a02:	02e00793          	li	a5,46
    4a06:	04f71f63          	bne	a4,a5,4a64 <_vfiprintf_r+0x1de>
    4a0a:	00144703          	lbu	a4,1(s0)
    4a0e:	02a00793          	li	a5,42
    4a12:	02f71b63          	bne	a4,a5,4a48 <_vfiprintf_r+0x1c2>
    4a16:	47b2                	lw	a5,12(sp)
    4a18:	0409                	addi	s0,s0,2
    4a1a:	00478713          	addi	a4,a5,4
    4a1e:	439c                	lw	a5,0(a5)
    4a20:	c63a                	sw	a4,12(sp)
    4a22:	0207c163          	bltz	a5,4a44 <_vfiprintf_r+0x1be>
    4a26:	ca3e                	sw	a5,20(sp)
    4a28:	a835                	j	4a64 <_vfiprintf_r+0x1de>
    4a2a:	40e00733          	neg	a4,a4
    4a2e:	0027e793          	ori	a5,a5,2
    4a32:	ce3a                	sw	a4,28(sp)
    4a34:	c83e                	sw	a5,16(sp)
    4a36:	b7e1                	j	49fe <_vfiprintf_r+0x178>
    4a38:	036787b3          	mul	a5,a5,s6
    4a3c:	4685                	li	a3,1
    4a3e:	842e                	mv	s0,a1
    4a40:	97ba                	add	a5,a5,a4
    4a42:	bf2d                	j	497c <_vfiprintf_r+0xf6>
    4a44:	57fd                	li	a5,-1
    4a46:	b7c5                	j	4a26 <_vfiprintf_r+0x1a0>
    4a48:	0405                	addi	s0,s0,1
    4a4a:	ca02                	sw	zero,20(sp)
    4a4c:	4681                	li	a3,0
    4a4e:	4781                	li	a5,0
    4a50:	4625                	li	a2,9
    4a52:	00044703          	lbu	a4,0(s0)
    4a56:	00140593          	addi	a1,s0,1
    4a5a:	fd070713          	addi	a4,a4,-48
    4a5e:	06e67863          	bgeu	a2,a4,4ace <_vfiprintf_r+0x248>
    4a62:	f2f1                	bnez	a3,4a26 <_vfiprintf_r+0x1a0>
    4a64:	00044583          	lbu	a1,0(s0)
    4a68:	460d                	li	a2,3
    4a6a:	00001517          	auipc	a0,0x1
    4a6e:	74a50513          	addi	a0,a0,1866 # 61b4 <UARTN+0x58>
    4a72:	309000ef          	jal	ra,557a <memchr>
    4a76:	cd11                	beqz	a0,4a92 <_vfiprintf_r+0x20c>
    4a78:	00001797          	auipc	a5,0x1
    4a7c:	73c78793          	addi	a5,a5,1852 # 61b4 <UARTN+0x58>
    4a80:	8d1d                	sub	a0,a0,a5
    4a82:	04000793          	li	a5,64
    4a86:	00a797b3          	sll	a5,a5,a0
    4a8a:	4542                	lw	a0,16(sp)
    4a8c:	0405                	addi	s0,s0,1
    4a8e:	8d5d                	or	a0,a0,a5
    4a90:	c82a                	sw	a0,16(sp)
    4a92:	00044583          	lbu	a1,0(s0)
    4a96:	4619                	li	a2,6
    4a98:	00001517          	auipc	a0,0x1
    4a9c:	72050513          	addi	a0,a0,1824 # 61b8 <UARTN+0x5c>
    4aa0:	00140913          	addi	s2,s0,1
    4aa4:	02b10423          	sb	a1,40(sp)
    4aa8:	2d3000ef          	jal	ra,557a <memchr>
    4aac:	c13d                	beqz	a0,4b12 <_vfiprintf_r+0x28c>
    4aae:	ffffb797          	auipc	a5,0xffffb
    4ab2:	55278793          	addi	a5,a5,1362 # 0 <_sinit>
    4ab6:	e795                	bnez	a5,4ae2 <_vfiprintf_r+0x25c>
    4ab8:	4742                	lw	a4,16(sp)
    4aba:	47b2                	lw	a5,12(sp)
    4abc:	10077713          	andi	a4,a4,256
    4ac0:	cf09                	beqz	a4,4ada <_vfiprintf_r+0x254>
    4ac2:	0791                	addi	a5,a5,4
    4ac4:	c63e                	sw	a5,12(sp)
    4ac6:	5792                	lw	a5,36(sp)
    4ac8:	97d2                	add	a5,a5,s4
    4aca:	d23e                	sw	a5,36(sp)
    4acc:	b515                	j	48f0 <_vfiprintf_r+0x6a>
    4ace:	036787b3          	mul	a5,a5,s6
    4ad2:	4685                	li	a3,1
    4ad4:	842e                	mv	s0,a1
    4ad6:	97ba                	add	a5,a5,a4
    4ad8:	bfad                	j	4a52 <_vfiprintf_r+0x1cc>
    4ada:	079d                	addi	a5,a5,7
    4adc:	9be1                	andi	a5,a5,-8
    4ade:	07a1                	addi	a5,a5,8
    4ae0:	b7d5                	j	4ac4 <_vfiprintf_r+0x23e>
    4ae2:	0078                	addi	a4,sp,12
    4ae4:	00000697          	auipc	a3,0x0
    4ae8:	d5e68693          	addi	a3,a3,-674 # 4842 <__sfputs_r>
    4aec:	8626                	mv	a2,s1
    4aee:	080c                	addi	a1,sp,16
    4af0:	854e                	mv	a0,s3
    4af2:	00000097          	auipc	ra,0x0
    4af6:	000000e7          	jalr	zero # 0 <_sinit>
    4afa:	57fd                	li	a5,-1
    4afc:	8a2a                	mv	s4,a0
    4afe:	fcf514e3          	bne	a0,a5,4ac6 <_vfiprintf_r+0x240>
    4b02:	00c4d783          	lhu	a5,12(s1)
    4b06:	0407f793          	andi	a5,a5,64
    4b0a:	ea079ae3          	bnez	a5,49be <_vfiprintf_r+0x138>
    4b0e:	5512                	lw	a0,36(sp)
    4b10:	bd45                	j	49c0 <_vfiprintf_r+0x13a>
    4b12:	0078                	addi	a4,sp,12
    4b14:	00000697          	auipc	a3,0x0
    4b18:	d2e68693          	addi	a3,a3,-722 # 4842 <__sfputs_r>
    4b1c:	8626                	mv	a2,s1
    4b1e:	080c                	addi	a1,sp,16
    4b20:	854e                	mv	a0,s3
    4b22:	2a01                	jal	4c32 <_printf_i>
    4b24:	bfd9                	j	4afa <_vfiprintf_r+0x274>

00004b26 <_printf_common>:
_printf_common():
    4b26:	7179                	addi	sp,sp,-48
    4b28:	ca56                	sw	s5,20(sp)
    4b2a:	499c                	lw	a5,16(a1)
    4b2c:	8aba                	mv	s5,a4
    4b2e:	4598                	lw	a4,8(a1)
    4b30:	d422                	sw	s0,40(sp)
    4b32:	d226                	sw	s1,36(sp)
    4b34:	ce4e                	sw	s3,28(sp)
    4b36:	cc52                	sw	s4,24(sp)
    4b38:	d606                	sw	ra,44(sp)
    4b3a:	d04a                	sw	s2,32(sp)
    4b3c:	c85a                	sw	s6,16(sp)
    4b3e:	c65e                	sw	s7,12(sp)
    4b40:	89aa                	mv	s3,a0
    4b42:	842e                	mv	s0,a1
    4b44:	84b2                	mv	s1,a2
    4b46:	8a36                	mv	s4,a3
    4b48:	00e7d363          	bge	a5,a4,4b4e <_printf_common+0x28>
    4b4c:	87ba                	mv	a5,a4
    4b4e:	c09c                	sw	a5,0(s1)
    4b50:	04344703          	lbu	a4,67(s0)
    4b54:	c319                	beqz	a4,4b5a <_printf_common+0x34>
    4b56:	0785                	addi	a5,a5,1
    4b58:	c09c                	sw	a5,0(s1)
    4b5a:	401c                	lw	a5,0(s0)
    4b5c:	0207f793          	andi	a5,a5,32
    4b60:	c781                	beqz	a5,4b68 <_printf_common+0x42>
    4b62:	409c                	lw	a5,0(s1)
    4b64:	0789                	addi	a5,a5,2
    4b66:	c09c                	sw	a5,0(s1)
    4b68:	00042903          	lw	s2,0(s0)
    4b6c:	00697913          	andi	s2,s2,6
    4b70:	00091a63          	bnez	s2,4b84 <_printf_common+0x5e>
    4b74:	01940b13          	addi	s6,s0,25
    4b78:	5bfd                	li	s7,-1
    4b7a:	445c                	lw	a5,12(s0)
    4b7c:	4098                	lw	a4,0(s1)
    4b7e:	8f99                	sub	a5,a5,a4
    4b80:	04f94c63          	blt	s2,a5,4bd8 <_printf_common+0xb2>
    4b84:	401c                	lw	a5,0(s0)
    4b86:	04344683          	lbu	a3,67(s0)
    4b8a:	0207f793          	andi	a5,a5,32
    4b8e:	00d036b3          	snez	a3,a3
    4b92:	eba5                	bnez	a5,4c02 <_printf_common+0xdc>
    4b94:	04340613          	addi	a2,s0,67
    4b98:	85d2                	mv	a1,s4
    4b9a:	854e                	mv	a0,s3
    4b9c:	9a82                	jalr	s5
    4b9e:	57fd                	li	a5,-1
    4ba0:	04f50363          	beq	a0,a5,4be6 <_printf_common+0xc0>
    4ba4:	401c                	lw	a5,0(s0)
    4ba6:	4611                	li	a2,4
    4ba8:	4098                	lw	a4,0(s1)
    4baa:	8b99                	andi	a5,a5,6
    4bac:	4454                	lw	a3,12(s0)
    4bae:	4481                	li	s1,0
    4bb0:	00c79763          	bne	a5,a2,4bbe <_printf_common+0x98>
    4bb4:	40e684b3          	sub	s1,a3,a4
    4bb8:	0004d363          	bgez	s1,4bbe <_printf_common+0x98>
    4bbc:	4481                	li	s1,0
    4bbe:	441c                	lw	a5,8(s0)
    4bc0:	4818                	lw	a4,16(s0)
    4bc2:	00f75463          	bge	a4,a5,4bca <_printf_common+0xa4>
    4bc6:	8f99                	sub	a5,a5,a4
    4bc8:	94be                	add	s1,s1,a5
    4bca:	4901                	li	s2,0
    4bcc:	0469                	addi	s0,s0,26
    4bce:	5b7d                	li	s6,-1
    4bd0:	05249863          	bne	s1,s2,4c20 <_printf_common+0xfa>
    4bd4:	4501                	li	a0,0
    4bd6:	a809                	j	4be8 <_printf_common+0xc2>
    4bd8:	4685                	li	a3,1
    4bda:	865a                	mv	a2,s6
    4bdc:	85d2                	mv	a1,s4
    4bde:	854e                	mv	a0,s3
    4be0:	9a82                	jalr	s5
    4be2:	01751e63          	bne	a0,s7,4bfe <_printf_common+0xd8>
    4be6:	557d                	li	a0,-1
    4be8:	50b2                	lw	ra,44(sp)
    4bea:	5422                	lw	s0,40(sp)
    4bec:	5492                	lw	s1,36(sp)
    4bee:	5902                	lw	s2,32(sp)
    4bf0:	49f2                	lw	s3,28(sp)
    4bf2:	4a62                	lw	s4,24(sp)
    4bf4:	4ad2                	lw	s5,20(sp)
    4bf6:	4b42                	lw	s6,16(sp)
    4bf8:	4bb2                	lw	s7,12(sp)
    4bfa:	6145                	addi	sp,sp,48
    4bfc:	8082                	ret
    4bfe:	0905                	addi	s2,s2,1
    4c00:	bfad                	j	4b7a <_printf_common+0x54>
    4c02:	00d40733          	add	a4,s0,a3
    4c06:	03000613          	li	a2,48
    4c0a:	04c701a3          	sb	a2,67(a4)
    4c0e:	04544703          	lbu	a4,69(s0)
    4c12:	00168793          	addi	a5,a3,1
    4c16:	97a2                	add	a5,a5,s0
    4c18:	0689                	addi	a3,a3,2
    4c1a:	04e781a3          	sb	a4,67(a5)
    4c1e:	bf9d                	j	4b94 <_printf_common+0x6e>
    4c20:	4685                	li	a3,1
    4c22:	8622                	mv	a2,s0
    4c24:	85d2                	mv	a1,s4
    4c26:	854e                	mv	a0,s3
    4c28:	9a82                	jalr	s5
    4c2a:	fb650ee3          	beq	a0,s6,4be6 <_printf_common+0xc0>
    4c2e:	0905                	addi	s2,s2,1
    4c30:	b745                	j	4bd0 <_printf_common+0xaa>

00004c32 <_printf_i>:
_printf_i():
    4c32:	7179                	addi	sp,sp,-48
    4c34:	d422                	sw	s0,40(sp)
    4c36:	d226                	sw	s1,36(sp)
    4c38:	d04a                	sw	s2,32(sp)
    4c3a:	ce4e                	sw	s3,28(sp)
    4c3c:	d606                	sw	ra,44(sp)
    4c3e:	cc52                	sw	s4,24(sp)
    4c40:	ca56                	sw	s5,20(sp)
    4c42:	c85a                	sw	s6,16(sp)
    4c44:	89b6                	mv	s3,a3
    4c46:	0185c683          	lbu	a3,24(a1)
    4c4a:	06e00793          	li	a5,110
    4c4e:	8932                	mv	s2,a2
    4c50:	84aa                	mv	s1,a0
    4c52:	842e                	mv	s0,a1
    4c54:	04358613          	addi	a2,a1,67
    4c58:	1ef68163          	beq	a3,a5,4e3a <_printf_i+0x208>
    4c5c:	06d7e263          	bltu	a5,a3,4cc0 <_printf_i+0x8e>
    4c60:	06300793          	li	a5,99
    4c64:	0af68263          	beq	a3,a5,4d08 <_printf_i+0xd6>
    4c68:	00d7ed63          	bltu	a5,a3,4c82 <_printf_i+0x50>
    4c6c:	1e068b63          	beqz	a3,4e62 <_printf_i+0x230>
    4c70:	05800793          	li	a5,88
    4c74:	16f68763          	beq	a3,a5,4de2 <_printf_i+0x1b0>
    4c78:	04240a93          	addi	s5,s0,66
    4c7c:	04d40123          	sb	a3,66(s0)
    4c80:	a869                	j	4d1a <_printf_i+0xe8>
    4c82:	06400793          	li	a5,100
    4c86:	00f68663          	beq	a3,a5,4c92 <_printf_i+0x60>
    4c8a:	06900793          	li	a5,105
    4c8e:	fef695e3          	bne	a3,a5,4c78 <_printf_i+0x46>
    4c92:	401c                	lw	a5,0(s0)
    4c94:	4308                	lw	a0,0(a4)
    4c96:	0807f693          	andi	a3,a5,128
    4c9a:	00450593          	addi	a1,a0,4
    4c9e:	c2c1                	beqz	a3,4d1e <_printf_i+0xec>
    4ca0:	411c                	lw	a5,0(a0)
    4ca2:	c30c                	sw	a1,0(a4)
    4ca4:	0007d863          	bgez	a5,4cb4 <_printf_i+0x82>
    4ca8:	02d00713          	li	a4,45
    4cac:	40f007b3          	neg	a5,a5
    4cb0:	04e401a3          	sb	a4,67(s0)
    4cb4:	00001697          	auipc	a3,0x1
    4cb8:	50c68693          	addi	a3,a3,1292 # 61c0 <UARTN+0x64>
    4cbc:	4729                	li	a4,10
    4cbe:	a065                	j	4d66 <_printf_i+0x134>
    4cc0:	07300793          	li	a5,115
    4cc4:	1af68363          	beq	a3,a5,4e6a <_printf_i+0x238>
    4cc8:	00d7ef63          	bltu	a5,a3,4ce6 <_printf_i+0xb4>
    4ccc:	06f00793          	li	a5,111
    4cd0:	04f68f63          	beq	a3,a5,4d2e <_printf_i+0xfc>
    4cd4:	07000793          	li	a5,112
    4cd8:	faf690e3          	bne	a3,a5,4c78 <_printf_i+0x46>
    4cdc:	419c                	lw	a5,0(a1)
    4cde:	0207e793          	ori	a5,a5,32
    4ce2:	c19c                	sw	a5,0(a1)
    4ce4:	a809                	j	4cf6 <_printf_i+0xc4>
    4ce6:	07500793          	li	a5,117
    4cea:	04f68263          	beq	a3,a5,4d2e <_printf_i+0xfc>
    4cee:	07800793          	li	a5,120
    4cf2:	f8f693e3          	bne	a3,a5,4c78 <_printf_i+0x46>
    4cf6:	07800793          	li	a5,120
    4cfa:	04f402a3          	sb	a5,69(s0)
    4cfe:	00001697          	auipc	a3,0x1
    4d02:	4d668693          	addi	a3,a3,1238 # 61d4 <UARTN+0x78>
    4d06:	a0e5                	j	4dee <_printf_i+0x1bc>
    4d08:	431c                	lw	a5,0(a4)
    4d0a:	04258a93          	addi	s5,a1,66
    4d0e:	00478693          	addi	a3,a5,4
    4d12:	439c                	lw	a5,0(a5)
    4d14:	c314                	sw	a3,0(a4)
    4d16:	04f58123          	sb	a5,66(a1)
    4d1a:	4785                	li	a5,1
    4d1c:	a2b5                	j	4e88 <_printf_i+0x256>
    4d1e:	0407f693          	andi	a3,a5,64
    4d22:	411c                	lw	a5,0(a0)
    4d24:	c30c                	sw	a1,0(a4)
    4d26:	debd                	beqz	a3,4ca4 <_printf_i+0x72>
    4d28:	07c2                	slli	a5,a5,0x10
    4d2a:	87c1                	srai	a5,a5,0x10
    4d2c:	bfa5                	j	4ca4 <_printf_i+0x72>
    4d2e:	400c                	lw	a1,0(s0)
    4d30:	431c                	lw	a5,0(a4)
    4d32:	0805f813          	andi	a6,a1,128
    4d36:	00478513          	addi	a0,a5,4
    4d3a:	00080563          	beqz	a6,4d44 <_printf_i+0x112>
    4d3e:	c308                	sw	a0,0(a4)
    4d40:	439c                	lw	a5,0(a5)
    4d42:	a039                	j	4d50 <_printf_i+0x11e>
    4d44:	0405f593          	andi	a1,a1,64
    4d48:	c308                	sw	a0,0(a4)
    4d4a:	d9fd                	beqz	a1,4d40 <_printf_i+0x10e>
    4d4c:	0007d783          	lhu	a5,0(a5)
    4d50:	06f00713          	li	a4,111
    4d54:	0ce68b63          	beq	a3,a4,4e2a <_printf_i+0x1f8>
    4d58:	00001697          	auipc	a3,0x1
    4d5c:	46868693          	addi	a3,a3,1128 # 61c0 <UARTN+0x64>
    4d60:	4729                	li	a4,10
    4d62:	040401a3          	sb	zero,67(s0)
    4d66:	404c                	lw	a1,4(s0)
    4d68:	c40c                	sw	a1,8(s0)
    4d6a:	0005c563          	bltz	a1,4d74 <_printf_i+0x142>
    4d6e:	4008                	lw	a0,0(s0)
    4d70:	996d                	andi	a0,a0,-5
    4d72:	c008                	sw	a0,0(s0)
    4d74:	e399                	bnez	a5,4d7a <_printf_i+0x148>
    4d76:	8ab2                	mv	s5,a2
    4d78:	cd91                	beqz	a1,4d94 <_printf_i+0x162>
    4d7a:	8ab2                	mv	s5,a2
    4d7c:	02e7f5b3          	remu	a1,a5,a4
    4d80:	1afd                	addi	s5,s5,-1
    4d82:	95b6                	add	a1,a1,a3
    4d84:	0005c583          	lbu	a1,0(a1)
    4d88:	00ba8023          	sb	a1,0(s5)
    4d8c:	02e7d5b3          	divu	a1,a5,a4
    4d90:	0ae7f363          	bgeu	a5,a4,4e36 <_printf_i+0x204>
    4d94:	47a1                	li	a5,8
    4d96:	00f71e63          	bne	a4,a5,4db2 <_printf_i+0x180>
    4d9a:	401c                	lw	a5,0(s0)
    4d9c:	8b85                	andi	a5,a5,1
    4d9e:	cb91                	beqz	a5,4db2 <_printf_i+0x180>
    4da0:	4058                	lw	a4,4(s0)
    4da2:	481c                	lw	a5,16(s0)
    4da4:	00e7c763          	blt	a5,a4,4db2 <_printf_i+0x180>
    4da8:	03000793          	li	a5,48
    4dac:	fefa8fa3          	sb	a5,-1(s5)
    4db0:	1afd                	addi	s5,s5,-1
    4db2:	41560633          	sub	a2,a2,s5
    4db6:	c810                	sw	a2,16(s0)
    4db8:	874e                	mv	a4,s3
    4dba:	86ca                	mv	a3,s2
    4dbc:	0070                	addi	a2,sp,12
    4dbe:	85a2                	mv	a1,s0
    4dc0:	8526                	mv	a0,s1
    4dc2:	d65ff0ef          	jal	ra,4b26 <_printf_common>
    4dc6:	5a7d                	li	s4,-1
    4dc8:	0d451463          	bne	a0,s4,4e90 <_printf_i+0x25e>
    4dcc:	557d                	li	a0,-1
    4dce:	50b2                	lw	ra,44(sp)
    4dd0:	5422                	lw	s0,40(sp)
    4dd2:	5492                	lw	s1,36(sp)
    4dd4:	5902                	lw	s2,32(sp)
    4dd6:	49f2                	lw	s3,28(sp)
    4dd8:	4a62                	lw	s4,24(sp)
    4dda:	4ad2                	lw	s5,20(sp)
    4ddc:	4b42                	lw	s6,16(sp)
    4dde:	6145                	addi	sp,sp,48
    4de0:	8082                	ret
    4de2:	04d582a3          	sb	a3,69(a1)
    4de6:	00001697          	auipc	a3,0x1
    4dea:	3da68693          	addi	a3,a3,986 # 61c0 <UARTN+0x64>
    4dee:	400c                	lw	a1,0(s0)
    4df0:	4308                	lw	a0,0(a4)
    4df2:	0805f813          	andi	a6,a1,128
    4df6:	411c                	lw	a5,0(a0)
    4df8:	0511                	addi	a0,a0,4
    4dfa:	02080063          	beqz	a6,4e1a <_printf_i+0x1e8>
    4dfe:	c308                	sw	a0,0(a4)
    4e00:	0015f713          	andi	a4,a1,1
    4e04:	c701                	beqz	a4,4e0c <_printf_i+0x1da>
    4e06:	0205e593          	ori	a1,a1,32
    4e0a:	c00c                	sw	a1,0(s0)
    4e0c:	4741                	li	a4,16
    4e0e:	fbb1                	bnez	a5,4d62 <_printf_i+0x130>
    4e10:	400c                	lw	a1,0(s0)
    4e12:	fdf5f593          	andi	a1,a1,-33
    4e16:	c00c                	sw	a1,0(s0)
    4e18:	b7a9                	j	4d62 <_printf_i+0x130>
    4e1a:	0405f813          	andi	a6,a1,64
    4e1e:	c308                	sw	a0,0(a4)
    4e20:	fe0800e3          	beqz	a6,4e00 <_printf_i+0x1ce>
    4e24:	07c2                	slli	a5,a5,0x10
    4e26:	83c1                	srli	a5,a5,0x10
    4e28:	bfe1                	j	4e00 <_printf_i+0x1ce>
    4e2a:	00001697          	auipc	a3,0x1
    4e2e:	39668693          	addi	a3,a3,918 # 61c0 <UARTN+0x64>
    4e32:	4721                	li	a4,8
    4e34:	b73d                	j	4d62 <_printf_i+0x130>
    4e36:	87ae                	mv	a5,a1
    4e38:	b791                	j	4d7c <_printf_i+0x14a>
    4e3a:	4194                	lw	a3,0(a1)
    4e3c:	431c                	lw	a5,0(a4)
    4e3e:	49cc                	lw	a1,20(a1)
    4e40:	0806f813          	andi	a6,a3,128
    4e44:	00478513          	addi	a0,a5,4
    4e48:	00080663          	beqz	a6,4e54 <_printf_i+0x222>
    4e4c:	c308                	sw	a0,0(a4)
    4e4e:	439c                	lw	a5,0(a5)
    4e50:	c38c                	sw	a1,0(a5)
    4e52:	a801                	j	4e62 <_printf_i+0x230>
    4e54:	c308                	sw	a0,0(a4)
    4e56:	0406f693          	andi	a3,a3,64
    4e5a:	439c                	lw	a5,0(a5)
    4e5c:	daf5                	beqz	a3,4e50 <_printf_i+0x21e>
    4e5e:	00b79023          	sh	a1,0(a5)
    4e62:	00042823          	sw	zero,16(s0)
    4e66:	8ab2                	mv	s5,a2
    4e68:	bf81                	j	4db8 <_printf_i+0x186>
    4e6a:	431c                	lw	a5,0(a4)
    4e6c:	41d0                	lw	a2,4(a1)
    4e6e:	4581                	li	a1,0
    4e70:	00478693          	addi	a3,a5,4
    4e74:	c314                	sw	a3,0(a4)
    4e76:	0007aa83          	lw	s5,0(a5)
    4e7a:	8556                	mv	a0,s5
    4e7c:	2dfd                	jal	557a <memchr>
    4e7e:	c501                	beqz	a0,4e86 <_printf_i+0x254>
    4e80:	41550533          	sub	a0,a0,s5
    4e84:	c048                	sw	a0,4(s0)
    4e86:	405c                	lw	a5,4(s0)
    4e88:	c81c                	sw	a5,16(s0)
    4e8a:	040401a3          	sb	zero,67(s0)
    4e8e:	b72d                	j	4db8 <_printf_i+0x186>
    4e90:	4814                	lw	a3,16(s0)
    4e92:	8656                	mv	a2,s5
    4e94:	85ca                	mv	a1,s2
    4e96:	8526                	mv	a0,s1
    4e98:	9982                	jalr	s3
    4e9a:	f34509e3          	beq	a0,s4,4dcc <_printf_i+0x19a>
    4e9e:	401c                	lw	a5,0(s0)
    4ea0:	8b89                	andi	a5,a5,2
    4ea2:	e78d                	bnez	a5,4ecc <_printf_i+0x29a>
    4ea4:	47b2                	lw	a5,12(sp)
    4ea6:	4448                	lw	a0,12(s0)
    4ea8:	f2f553e3          	bge	a0,a5,4dce <_printf_i+0x19c>
    4eac:	853e                	mv	a0,a5
    4eae:	b705                	j	4dce <_printf_i+0x19c>
    4eb0:	4685                	li	a3,1
    4eb2:	8656                	mv	a2,s5
    4eb4:	85ca                	mv	a1,s2
    4eb6:	8526                	mv	a0,s1
    4eb8:	9982                	jalr	s3
    4eba:	f16509e3          	beq	a0,s6,4dcc <_printf_i+0x19a>
    4ebe:	0a05                	addi	s4,s4,1
    4ec0:	445c                	lw	a5,12(s0)
    4ec2:	4732                	lw	a4,12(sp)
    4ec4:	8f99                	sub	a5,a5,a4
    4ec6:	fefa45e3          	blt	s4,a5,4eb0 <_printf_i+0x27e>
    4eca:	bfe9                	j	4ea4 <_printf_i+0x272>
    4ecc:	4a01                	li	s4,0
    4ece:	01940a93          	addi	s5,s0,25
    4ed2:	5b7d                	li	s6,-1
    4ed4:	b7f5                	j	4ec0 <_printf_i+0x28e>

00004ed6 <__swbuf_r>:
__swbuf_r():
    4ed6:	1101                	addi	sp,sp,-32
    4ed8:	cc22                	sw	s0,24(sp)
    4eda:	ca26                	sw	s1,20(sp)
    4edc:	c84a                	sw	s2,16(sp)
    4ede:	ce06                	sw	ra,28(sp)
    4ee0:	c64e                	sw	s3,12(sp)
    4ee2:	84aa                	mv	s1,a0
    4ee4:	892e                	mv	s2,a1
    4ee6:	8432                	mv	s0,a2
    4ee8:	c501                	beqz	a0,4ef0 <__swbuf_r+0x1a>
    4eea:	4d1c                	lw	a5,24(a0)
    4eec:	e391                	bnez	a5,4ef0 <__swbuf_r+0x1a>
    4eee:	2939                	jal	530c <__sinit>
    4ef0:	00001797          	auipc	a5,0x1
    4ef4:	31878793          	addi	a5,a5,792 # 6208 <__sf_fake_stdin>
    4ef8:	06f41963          	bne	s0,a5,4f6a <__swbuf_r+0x94>
    4efc:	40c0                	lw	s0,4(s1)
    4efe:	4c1c                	lw	a5,24(s0)
    4f00:	c41c                	sw	a5,8(s0)
    4f02:	00c45783          	lhu	a5,12(s0)
    4f06:	8ba1                	andi	a5,a5,8
    4f08:	c3c9                	beqz	a5,4f8a <__swbuf_r+0xb4>
    4f0a:	481c                	lw	a5,16(s0)
    4f0c:	cfbd                	beqz	a5,4f8a <__swbuf_r+0xb4>
    4f0e:	481c                	lw	a5,16(s0)
    4f10:	4008                	lw	a0,0(s0)
    4f12:	0ff97993          	andi	s3,s2,255
    4f16:	0ff97913          	andi	s2,s2,255
    4f1a:	8d1d                	sub	a0,a0,a5
    4f1c:	485c                	lw	a5,20(s0)
    4f1e:	00f54663          	blt	a0,a5,4f2a <__swbuf_r+0x54>
    4f22:	85a2                	mv	a1,s0
    4f24:	8526                	mv	a0,s1
    4f26:	24d9                	jal	51ec <_fflush_r>
    4f28:	e52d                	bnez	a0,4f92 <__swbuf_r+0xbc>
    4f2a:	441c                	lw	a5,8(s0)
    4f2c:	0505                	addi	a0,a0,1
    4f2e:	17fd                	addi	a5,a5,-1
    4f30:	c41c                	sw	a5,8(s0)
    4f32:	401c                	lw	a5,0(s0)
    4f34:	00178713          	addi	a4,a5,1
    4f38:	c018                	sw	a4,0(s0)
    4f3a:	01378023          	sb	s3,0(a5)
    4f3e:	485c                	lw	a5,20(s0)
    4f40:	00a78963          	beq	a5,a0,4f52 <__swbuf_r+0x7c>
    4f44:	00c45783          	lhu	a5,12(s0)
    4f48:	8b85                	andi	a5,a5,1
    4f4a:	cb81                	beqz	a5,4f5a <__swbuf_r+0x84>
    4f4c:	47a9                	li	a5,10
    4f4e:	00f91663          	bne	s2,a5,4f5a <__swbuf_r+0x84>
    4f52:	85a2                	mv	a1,s0
    4f54:	8526                	mv	a0,s1
    4f56:	2c59                	jal	51ec <_fflush_r>
    4f58:	ed0d                	bnez	a0,4f92 <__swbuf_r+0xbc>
    4f5a:	40f2                	lw	ra,28(sp)
    4f5c:	4462                	lw	s0,24(sp)
    4f5e:	854a                	mv	a0,s2
    4f60:	44d2                	lw	s1,20(sp)
    4f62:	4942                	lw	s2,16(sp)
    4f64:	49b2                	lw	s3,12(sp)
    4f66:	6105                	addi	sp,sp,32
    4f68:	8082                	ret
    4f6a:	00001797          	auipc	a5,0x1
    4f6e:	2be78793          	addi	a5,a5,702 # 6228 <__sf_fake_stdout>
    4f72:	00f41463          	bne	s0,a5,4f7a <__swbuf_r+0xa4>
    4f76:	4480                	lw	s0,8(s1)
    4f78:	b759                	j	4efe <__swbuf_r+0x28>
    4f7a:	00001797          	auipc	a5,0x1
    4f7e:	26e78793          	addi	a5,a5,622 # 61e8 <__sf_fake_stderr>
    4f82:	f6f41ee3          	bne	s0,a5,4efe <__swbuf_r+0x28>
    4f86:	44c0                	lw	s0,12(s1)
    4f88:	bf9d                	j	4efe <__swbuf_r+0x28>
    4f8a:	85a2                	mv	a1,s0
    4f8c:	8526                	mv	a0,s1
    4f8e:	2021                	jal	4f96 <__swsetup_r>
    4f90:	dd3d                	beqz	a0,4f0e <__swbuf_r+0x38>
    4f92:	597d                	li	s2,-1
    4f94:	b7d9                	j	4f5a <__swbuf_r+0x84>

00004f96 <__swsetup_r>:
__swsetup_r():
    4f96:	1141                	addi	sp,sp,-16
    4f98:	81418793          	addi	a5,gp,-2028 # 200000cc <_impure_ptr>
    4f9c:	c226                	sw	s1,4(sp)
    4f9e:	4384                	lw	s1,0(a5)
    4fa0:	c422                	sw	s0,8(sp)
    4fa2:	c04a                	sw	s2,0(sp)
    4fa4:	c606                	sw	ra,12(sp)
    4fa6:	892a                	mv	s2,a0
    4fa8:	842e                	mv	s0,a1
    4faa:	c489                	beqz	s1,4fb4 <__swsetup_r+0x1e>
    4fac:	4c9c                	lw	a5,24(s1)
    4fae:	e399                	bnez	a5,4fb4 <__swsetup_r+0x1e>
    4fb0:	8526                	mv	a0,s1
    4fb2:	2ea9                	jal	530c <__sinit>
    4fb4:	00001797          	auipc	a5,0x1
    4fb8:	25478793          	addi	a5,a5,596 # 6208 <__sf_fake_stdin>
    4fbc:	02f41c63          	bne	s0,a5,4ff4 <__swsetup_r+0x5e>
    4fc0:	40c0                	lw	s0,4(s1)
    4fc2:	00c41703          	lh	a4,12(s0)
    4fc6:	01071793          	slli	a5,a4,0x10
    4fca:	83c1                	srli	a5,a5,0x10
    4fcc:	0087f693          	andi	a3,a5,8
    4fd0:	eeb5                	bnez	a3,504c <__swsetup_r+0xb6>
    4fd2:	0107f693          	andi	a3,a5,16
    4fd6:	ee9d                	bnez	a3,5014 <__swsetup_r+0x7e>
    4fd8:	47a5                	li	a5,9
    4fda:	00f92023          	sw	a5,0(s2)
    4fde:	04076713          	ori	a4,a4,64
    4fe2:	00e41623          	sh	a4,12(s0)
    4fe6:	557d                	li	a0,-1
    4fe8:	40b2                	lw	ra,12(sp)
    4fea:	4422                	lw	s0,8(sp)
    4fec:	4492                	lw	s1,4(sp)
    4fee:	4902                	lw	s2,0(sp)
    4ff0:	0141                	addi	sp,sp,16
    4ff2:	8082                	ret
    4ff4:	00001797          	auipc	a5,0x1
    4ff8:	23478793          	addi	a5,a5,564 # 6228 <__sf_fake_stdout>
    4ffc:	00f41463          	bne	s0,a5,5004 <__swsetup_r+0x6e>
    5000:	4480                	lw	s0,8(s1)
    5002:	b7c1                	j	4fc2 <__swsetup_r+0x2c>
    5004:	00001797          	auipc	a5,0x1
    5008:	1e478793          	addi	a5,a5,484 # 61e8 <__sf_fake_stderr>
    500c:	faf41be3          	bne	s0,a5,4fc2 <__swsetup_r+0x2c>
    5010:	44c0                	lw	s0,12(s1)
    5012:	bf45                	j	4fc2 <__swsetup_r+0x2c>
    5014:	8b91                	andi	a5,a5,4
    5016:	c78d                	beqz	a5,5040 <__swsetup_r+0xaa>
    5018:	584c                	lw	a1,52(s0)
    501a:	c989                	beqz	a1,502c <__swsetup_r+0x96>
    501c:	04440793          	addi	a5,s0,68
    5020:	00f58463          	beq	a1,a5,5028 <__swsetup_r+0x92>
    5024:	854a                	mv	a0,s2
    5026:	23bd                	jal	5594 <_free_r>
    5028:	02042a23          	sw	zero,52(s0)
    502c:	00c45783          	lhu	a5,12(s0)
    5030:	00042223          	sw	zero,4(s0)
    5034:	fdb7f793          	andi	a5,a5,-37
    5038:	00f41623          	sh	a5,12(s0)
    503c:	481c                	lw	a5,16(s0)
    503e:	c01c                	sw	a5,0(s0)
    5040:	00c45783          	lhu	a5,12(s0)
    5044:	0087e793          	ori	a5,a5,8
    5048:	00f41623          	sh	a5,12(s0)
    504c:	481c                	lw	a5,16(s0)
    504e:	ef81                	bnez	a5,5066 <__swsetup_r+0xd0>
    5050:	00c45783          	lhu	a5,12(s0)
    5054:	20000713          	li	a4,512
    5058:	2807f793          	andi	a5,a5,640
    505c:	00e78563          	beq	a5,a4,5066 <__swsetup_r+0xd0>
    5060:	85a2                	mv	a1,s0
    5062:	854a                	mv	a0,s2
    5064:	29a5                	jal	54dc <__smakebuf_r>
    5066:	00c45783          	lhu	a5,12(s0)
    506a:	0017f713          	andi	a4,a5,1
    506e:	c705                	beqz	a4,5096 <__swsetup_r+0x100>
    5070:	485c                	lw	a5,20(s0)
    5072:	00042423          	sw	zero,8(s0)
    5076:	40f007b3          	neg	a5,a5
    507a:	cc1c                	sw	a5,24(s0)
    507c:	481c                	lw	a5,16(s0)
    507e:	4501                	li	a0,0
    5080:	f7a5                	bnez	a5,4fe8 <__swsetup_r+0x52>
    5082:	00c41783          	lh	a5,12(s0)
    5086:	0807f713          	andi	a4,a5,128
    508a:	df39                	beqz	a4,4fe8 <__swsetup_r+0x52>
    508c:	0407e793          	ori	a5,a5,64
    5090:	00f41623          	sh	a5,12(s0)
    5094:	bf89                	j	4fe6 <__swsetup_r+0x50>
    5096:	8b89                	andi	a5,a5,2
    5098:	4701                	li	a4,0
    509a:	e391                	bnez	a5,509e <__swsetup_r+0x108>
    509c:	4858                	lw	a4,20(s0)
    509e:	c418                	sw	a4,8(s0)
    50a0:	bff1                	j	507c <__swsetup_r+0xe6>

000050a2 <abort>:
abort():
    50a2:	1141                	addi	sp,sp,-16
    50a4:	4519                	li	a0,6
    50a6:	c606                	sw	ra,12(sp)
    50a8:	2dc5                	jal	5798 <raise>
    50aa:	4505                	li	a0,1
    50ac:	1af000ef          	jal	ra,5a5a <_exit>

000050b0 <__sflush_r>:
__sflush_r():
    50b0:	00c5d783          	lhu	a5,12(a1)
    50b4:	1101                	addi	sp,sp,-32
    50b6:	cc22                	sw	s0,24(sp)
    50b8:	ca26                	sw	s1,20(sp)
    50ba:	ce06                	sw	ra,28(sp)
    50bc:	c84a                	sw	s2,16(sp)
    50be:	c64e                	sw	s3,12(sp)
    50c0:	0087f713          	andi	a4,a5,8
    50c4:	84aa                	mv	s1,a0
    50c6:	842e                	mv	s0,a1
    50c8:	ef71                	bnez	a4,51a4 <__sflush_r+0xf4>
    50ca:	41d8                	lw	a4,4(a1)
    50cc:	00e04d63          	bgtz	a4,50e6 <__sflush_r+0x36>
    50d0:	41b8                	lw	a4,64(a1)
    50d2:	00e04a63          	bgtz	a4,50e6 <__sflush_r+0x36>
    50d6:	4501                	li	a0,0
    50d8:	40f2                	lw	ra,28(sp)
    50da:	4462                	lw	s0,24(sp)
    50dc:	44d2                	lw	s1,20(sp)
    50de:	4942                	lw	s2,16(sp)
    50e0:	49b2                	lw	s3,12(sp)
    50e2:	6105                	addi	sp,sp,32
    50e4:	8082                	ret
    50e6:	5458                	lw	a4,44(s0)
    50e8:	d77d                	beqz	a4,50d6 <__sflush_r+0x26>
    50ea:	0004a903          	lw	s2,0(s1)
    50ee:	01379693          	slli	a3,a5,0x13
    50f2:	0004a023          	sw	zero,0(s1)
    50f6:	0606dd63          	bgez	a3,5170 <__sflush_r+0xc0>
    50fa:	4870                	lw	a2,84(s0)
    50fc:	00c45783          	lhu	a5,12(s0)
    5100:	8b91                	andi	a5,a5,4
    5102:	c799                	beqz	a5,5110 <__sflush_r+0x60>
    5104:	405c                	lw	a5,4(s0)
    5106:	8e1d                	sub	a2,a2,a5
    5108:	585c                	lw	a5,52(s0)
    510a:	c399                	beqz	a5,5110 <__sflush_r+0x60>
    510c:	403c                	lw	a5,64(s0)
    510e:	8e1d                	sub	a2,a2,a5
    5110:	545c                	lw	a5,44(s0)
    5112:	500c                	lw	a1,32(s0)
    5114:	4681                	li	a3,0
    5116:	8526                	mv	a0,s1
    5118:	9782                	jalr	a5
    511a:	57fd                	li	a5,-1
    511c:	00c45703          	lhu	a4,12(s0)
    5120:	00f51d63          	bne	a0,a5,513a <__sflush_r+0x8a>
    5124:	4094                	lw	a3,0(s1)
    5126:	47f5                	li	a5,29
    5128:	06d7e863          	bltu	a5,a3,5198 <__sflush_r+0xe8>
    512c:	204007b7          	lui	a5,0x20400
    5130:	0785                	addi	a5,a5,1
    5132:	00d7d7b3          	srl	a5,a5,a3
    5136:	8b85                	andi	a5,a5,1
    5138:	c3a5                	beqz	a5,5198 <__sflush_r+0xe8>
    513a:	481c                	lw	a5,16(s0)
    513c:	00042223          	sw	zero,4(s0)
    5140:	c01c                	sw	a5,0(s0)
    5142:	01371793          	slli	a5,a4,0x13
    5146:	0007d863          	bgez	a5,5156 <__sflush_r+0xa6>
    514a:	57fd                	li	a5,-1
    514c:	00f51463          	bne	a0,a5,5154 <__sflush_r+0xa4>
    5150:	409c                	lw	a5,0(s1)
    5152:	e391                	bnez	a5,5156 <__sflush_r+0xa6>
    5154:	c868                	sw	a0,84(s0)
    5156:	584c                	lw	a1,52(s0)
    5158:	0124a023          	sw	s2,0(s1)
    515c:	ddad                	beqz	a1,50d6 <__sflush_r+0x26>
    515e:	04440793          	addi	a5,s0,68
    5162:	00f58463          	beq	a1,a5,516a <__sflush_r+0xba>
    5166:	8526                	mv	a0,s1
    5168:	2135                	jal	5594 <_free_r>
    516a:	02042a23          	sw	zero,52(s0)
    516e:	b7a5                	j	50d6 <__sflush_r+0x26>
    5170:	500c                	lw	a1,32(s0)
    5172:	4601                	li	a2,0
    5174:	4685                	li	a3,1
    5176:	8526                	mv	a0,s1
    5178:	9702                	jalr	a4
    517a:	57fd                	li	a5,-1
    517c:	862a                	mv	a2,a0
    517e:	f6f51fe3          	bne	a0,a5,50fc <__sflush_r+0x4c>
    5182:	409c                	lw	a5,0(s1)
    5184:	dfa5                	beqz	a5,50fc <__sflush_r+0x4c>
    5186:	4775                	li	a4,29
    5188:	00e78563          	beq	a5,a4,5192 <__sflush_r+0xe2>
    518c:	4759                	li	a4,22
    518e:	04e79463          	bne	a5,a4,51d6 <__sflush_r+0x126>
    5192:	0124a023          	sw	s2,0(s1)
    5196:	b781                	j	50d6 <__sflush_r+0x26>
    5198:	04076713          	ori	a4,a4,64
    519c:	00e41623          	sh	a4,12(s0)
    51a0:	557d                	li	a0,-1
    51a2:	bf1d                	j	50d8 <__sflush_r+0x28>
    51a4:	0105a983          	lw	s3,16(a1)
    51a8:	f20987e3          	beqz	s3,50d6 <__sflush_r+0x26>
    51ac:	0005a903          	lw	s2,0(a1)
    51b0:	8b8d                	andi	a5,a5,3
    51b2:	0135a023          	sw	s3,0(a1)
    51b6:	41390933          	sub	s2,s2,s3
    51ba:	4701                	li	a4,0
    51bc:	e391                	bnez	a5,51c0 <__sflush_r+0x110>
    51be:	49d8                	lw	a4,20(a1)
    51c0:	c418                	sw	a4,8(s0)
    51c2:	f1205ae3          	blez	s2,50d6 <__sflush_r+0x26>
    51c6:	541c                	lw	a5,40(s0)
    51c8:	500c                	lw	a1,32(s0)
    51ca:	86ca                	mv	a3,s2
    51cc:	864e                	mv	a2,s3
    51ce:	8526                	mv	a0,s1
    51d0:	9782                	jalr	a5
    51d2:	00a04963          	bgtz	a0,51e4 <__sflush_r+0x134>
    51d6:	00c45783          	lhu	a5,12(s0)
    51da:	0407e793          	ori	a5,a5,64
    51de:	00f41623          	sh	a5,12(s0)
    51e2:	bf7d                	j	51a0 <__sflush_r+0xf0>
    51e4:	99aa                	add	s3,s3,a0
    51e6:	40a90933          	sub	s2,s2,a0
    51ea:	bfe1                	j	51c2 <__sflush_r+0x112>

000051ec <_fflush_r>:
_fflush_r():
    51ec:	499c                	lw	a5,16(a1)
    51ee:	c3a5                	beqz	a5,524e <_fflush_r+0x62>
    51f0:	1101                	addi	sp,sp,-32
    51f2:	cc22                	sw	s0,24(sp)
    51f4:	ce06                	sw	ra,28(sp)
    51f6:	842a                	mv	s0,a0
    51f8:	c511                	beqz	a0,5204 <_fflush_r+0x18>
    51fa:	4d1c                	lw	a5,24(a0)
    51fc:	e781                	bnez	a5,5204 <_fflush_r+0x18>
    51fe:	c62e                	sw	a1,12(sp)
    5200:	2231                	jal	530c <__sinit>
    5202:	45b2                	lw	a1,12(sp)
    5204:	00001797          	auipc	a5,0x1
    5208:	00478793          	addi	a5,a5,4 # 6208 <__sf_fake_stdin>
    520c:	00f59c63          	bne	a1,a5,5224 <_fflush_r+0x38>
    5210:	404c                	lw	a1,4(s0)
    5212:	00c59783          	lh	a5,12(a1)
    5216:	c79d                	beqz	a5,5244 <_fflush_r+0x58>
    5218:	8522                	mv	a0,s0
    521a:	4462                	lw	s0,24(sp)
    521c:	40f2                	lw	ra,28(sp)
    521e:	6105                	addi	sp,sp,32
    5220:	e91ff06f          	j	50b0 <__sflush_r>
    5224:	00001797          	auipc	a5,0x1
    5228:	00478793          	addi	a5,a5,4 # 6228 <__sf_fake_stdout>
    522c:	00f59463          	bne	a1,a5,5234 <_fflush_r+0x48>
    5230:	440c                	lw	a1,8(s0)
    5232:	b7c5                	j	5212 <_fflush_r+0x26>
    5234:	00001797          	auipc	a5,0x1
    5238:	fb478793          	addi	a5,a5,-76 # 61e8 <__sf_fake_stderr>
    523c:	fcf59be3          	bne	a1,a5,5212 <_fflush_r+0x26>
    5240:	444c                	lw	a1,12(s0)
    5242:	bfc1                	j	5212 <_fflush_r+0x26>
    5244:	40f2                	lw	ra,28(sp)
    5246:	4462                	lw	s0,24(sp)
    5248:	4501                	li	a0,0
    524a:	6105                	addi	sp,sp,32
    524c:	8082                	ret
    524e:	4501                	li	a0,0
    5250:	8082                	ret

00005252 <std>:
std():
    5252:	1141                	addi	sp,sp,-16
    5254:	c422                	sw	s0,8(sp)
    5256:	c606                	sw	ra,12(sp)
    5258:	842a                	mv	s0,a0
    525a:	00b51623          	sh	a1,12(a0)
    525e:	00c51723          	sh	a2,14(a0)
    5262:	00052023          	sw	zero,0(a0)
    5266:	00052223          	sw	zero,4(a0)
    526a:	00052423          	sw	zero,8(a0)
    526e:	06052223          	sw	zero,100(a0)
    5272:	00052823          	sw	zero,16(a0)
    5276:	00052a23          	sw	zero,20(a0)
    527a:	00052c23          	sw	zero,24(a0)
    527e:	4621                	li	a2,8
    5280:	4581                	li	a1,0
    5282:	05c50513          	addi	a0,a0,92
    5286:	ebbfa0ef          	jal	ra,140 <memset>
    528a:	00000797          	auipc	a5,0x0
    528e:	54e78793          	addi	a5,a5,1358 # 57d8 <__sread>
    5292:	d05c                	sw	a5,36(s0)
    5294:	00000797          	auipc	a5,0x0
    5298:	57478793          	addi	a5,a5,1396 # 5808 <__swrite>
    529c:	d41c                	sw	a5,40(s0)
    529e:	00000797          	auipc	a5,0x0
    52a2:	5b878793          	addi	a5,a5,1464 # 5856 <__sseek>
    52a6:	d45c                	sw	a5,44(s0)
    52a8:	00000797          	auipc	a5,0x0
    52ac:	5e478793          	addi	a5,a5,1508 # 588c <__sclose>
    52b0:	d000                	sw	s0,32(s0)
    52b2:	d81c                	sw	a5,48(s0)
    52b4:	40b2                	lw	ra,12(sp)
    52b6:	4422                	lw	s0,8(sp)
    52b8:	0141                	addi	sp,sp,16
    52ba:	8082                	ret

000052bc <_cleanup_r>:
_cleanup_r():
    52bc:	00000597          	auipc	a1,0x0
    52c0:	f3058593          	addi	a1,a1,-208 # 51ec <_fflush_r>
    52c4:	aa91                	j	5418 <_fwalk_reent>

000052c6 <__sfmoreglue>:
__sfmoreglue():
    52c6:	1141                	addi	sp,sp,-16
    52c8:	c226                	sw	s1,4(sp)
    52ca:	06800613          	li	a2,104
    52ce:	fff58493          	addi	s1,a1,-1
    52d2:	02c484b3          	mul	s1,s1,a2
    52d6:	c04a                	sw	s2,0(sp)
    52d8:	892e                	mv	s2,a1
    52da:	c422                	sw	s0,8(sp)
    52dc:	c606                	sw	ra,12(sp)
    52de:	07448593          	addi	a1,s1,116
    52e2:	2e99                	jal	5638 <_malloc_r>
    52e4:	842a                	mv	s0,a0
    52e6:	cd01                	beqz	a0,52fe <__sfmoreglue+0x38>
    52e8:	00052023          	sw	zero,0(a0)
    52ec:	01252223          	sw	s2,4(a0)
    52f0:	0531                	addi	a0,a0,12
    52f2:	c408                	sw	a0,8(s0)
    52f4:	06848613          	addi	a2,s1,104
    52f8:	4581                	li	a1,0
    52fa:	e47fa0ef          	jal	ra,140 <memset>
    52fe:	8522                	mv	a0,s0
    5300:	40b2                	lw	ra,12(sp)
    5302:	4422                	lw	s0,8(sp)
    5304:	4492                	lw	s1,4(sp)
    5306:	4902                	lw	s2,0(sp)
    5308:	0141                	addi	sp,sp,16
    530a:	8082                	ret

0000530c <__sinit>:
__sinit():
    530c:	4d1c                	lw	a5,24(a0)
    530e:	e7a5                	bnez	a5,5376 <__sinit+0x6a>
    5310:	1141                	addi	sp,sp,-16
    5312:	c606                	sw	ra,12(sp)
    5314:	c422                	sw	s0,8(sp)
    5316:	00000797          	auipc	a5,0x0
    531a:	fa678793          	addi	a5,a5,-90 # 52bc <_cleanup_r>
    531e:	d51c                	sw	a5,40(a0)
    5320:	82018793          	addi	a5,gp,-2016 # 200000d8 <_global_impure_ptr>
    5324:	439c                	lw	a5,0(a5)
    5326:	04052423          	sw	zero,72(a0)
    532a:	04052623          	sw	zero,76(a0)
    532e:	04052823          	sw	zero,80(a0)
    5332:	00f51463          	bne	a0,a5,533a <__sinit+0x2e>
    5336:	4785                	li	a5,1
    5338:	cd1c                	sw	a5,24(a0)
    533a:	842a                	mv	s0,a0
    533c:	2835                	jal	5378 <__sfp>
    533e:	c048                	sw	a0,4(s0)
    5340:	8522                	mv	a0,s0
    5342:	281d                	jal	5378 <__sfp>
    5344:	c408                	sw	a0,8(s0)
    5346:	8522                	mv	a0,s0
    5348:	2805                	jal	5378 <__sfp>
    534a:	c448                	sw	a0,12(s0)
    534c:	4048                	lw	a0,4(s0)
    534e:	4601                	li	a2,0
    5350:	4591                	li	a1,4
    5352:	f01ff0ef          	jal	ra,5252 <std>
    5356:	4408                	lw	a0,8(s0)
    5358:	4605                	li	a2,1
    535a:	45a5                	li	a1,9
    535c:	ef7ff0ef          	jal	ra,5252 <std>
    5360:	4448                	lw	a0,12(s0)
    5362:	4609                	li	a2,2
    5364:	45c9                	li	a1,18
    5366:	eedff0ef          	jal	ra,5252 <std>
    536a:	4785                	li	a5,1
    536c:	cc1c                	sw	a5,24(s0)
    536e:	40b2                	lw	ra,12(sp)
    5370:	4422                	lw	s0,8(sp)
    5372:	0141                	addi	sp,sp,16
    5374:	8082                	ret
    5376:	8082                	ret

00005378 <__sfp>:
__sfp():
    5378:	1141                	addi	sp,sp,-16
    537a:	82018793          	addi	a5,gp,-2016 # 200000d8 <_global_impure_ptr>
    537e:	c226                	sw	s1,4(sp)
    5380:	4384                	lw	s1,0(a5)
    5382:	c04a                	sw	s2,0(sp)
    5384:	c606                	sw	ra,12(sp)
    5386:	4c9c                	lw	a5,24(s1)
    5388:	c422                	sw	s0,8(sp)
    538a:	892a                	mv	s2,a0
    538c:	e781                	bnez	a5,5394 <__sfp+0x1c>
    538e:	8526                	mv	a0,s1
    5390:	f7dff0ef          	jal	ra,530c <__sinit>
    5394:	04848493          	addi	s1,s1,72
    5398:	4480                	lw	s0,8(s1)
    539a:	40dc                	lw	a5,4(s1)
    539c:	17fd                	addi	a5,a5,-1
    539e:	0007d663          	bgez	a5,53aa <__sfp+0x32>
    53a2:	409c                	lw	a5,0(s1)
    53a4:	cfb9                	beqz	a5,5402 <__sfp+0x8a>
    53a6:	4084                	lw	s1,0(s1)
    53a8:	bfc5                	j	5398 <__sfp+0x20>
    53aa:	00c41703          	lh	a4,12(s0)
    53ae:	e739                	bnez	a4,53fc <__sfp+0x84>
    53b0:	77c1                	lui	a5,0xffff0
    53b2:	0785                	addi	a5,a5,1
    53b4:	06042223          	sw	zero,100(s0)
    53b8:	00042023          	sw	zero,0(s0)
    53bc:	00042223          	sw	zero,4(s0)
    53c0:	00042423          	sw	zero,8(s0)
    53c4:	c45c                	sw	a5,12(s0)
    53c6:	00042823          	sw	zero,16(s0)
    53ca:	00042a23          	sw	zero,20(s0)
    53ce:	00042c23          	sw	zero,24(s0)
    53d2:	4621                	li	a2,8
    53d4:	4581                	li	a1,0
    53d6:	05c40513          	addi	a0,s0,92
    53da:	d67fa0ef          	jal	ra,140 <memset>
    53de:	02042a23          	sw	zero,52(s0)
    53e2:	02042c23          	sw	zero,56(s0)
    53e6:	04042423          	sw	zero,72(s0)
    53ea:	04042623          	sw	zero,76(s0)
    53ee:	8522                	mv	a0,s0
    53f0:	40b2                	lw	ra,12(sp)
    53f2:	4422                	lw	s0,8(sp)
    53f4:	4492                	lw	s1,4(sp)
    53f6:	4902                	lw	s2,0(sp)
    53f8:	0141                	addi	sp,sp,16
    53fa:	8082                	ret
    53fc:	06840413          	addi	s0,s0,104
    5400:	bf71                	j	539c <__sfp+0x24>
    5402:	4591                	li	a1,4
    5404:	854a                	mv	a0,s2
    5406:	ec1ff0ef          	jal	ra,52c6 <__sfmoreglue>
    540a:	c088                	sw	a0,0(s1)
    540c:	fd49                	bnez	a0,53a6 <__sfp+0x2e>
    540e:	47b1                	li	a5,12
    5410:	00f92023          	sw	a5,0(s2)
    5414:	4401                	li	s0,0
    5416:	bfe1                	j	53ee <__sfp+0x76>

00005418 <_fwalk_reent>:
_fwalk_reent():
    5418:	7179                	addi	sp,sp,-48
    541a:	d422                	sw	s0,40(sp)
    541c:	d04a                	sw	s2,32(sp)
    541e:	cc52                	sw	s4,24(sp)
    5420:	ca56                	sw	s5,20(sp)
    5422:	c85a                	sw	s6,16(sp)
    5424:	c65e                	sw	s7,12(sp)
    5426:	d606                	sw	ra,44(sp)
    5428:	d226                	sw	s1,36(sp)
    542a:	ce4e                	sw	s3,28(sp)
    542c:	8a2a                	mv	s4,a0
    542e:	8aae                	mv	s5,a1
    5430:	04850413          	addi	s0,a0,72
    5434:	4901                	li	s2,0
    5436:	4b05                	li	s6,1
    5438:	5bfd                	li	s7,-1
    543a:	ec09                	bnez	s0,5454 <_fwalk_reent+0x3c>
    543c:	50b2                	lw	ra,44(sp)
    543e:	5422                	lw	s0,40(sp)
    5440:	854a                	mv	a0,s2
    5442:	5492                	lw	s1,36(sp)
    5444:	5902                	lw	s2,32(sp)
    5446:	49f2                	lw	s3,28(sp)
    5448:	4a62                	lw	s4,24(sp)
    544a:	4ad2                	lw	s5,20(sp)
    544c:	4b42                	lw	s6,16(sp)
    544e:	4bb2                	lw	s7,12(sp)
    5450:	6145                	addi	sp,sp,48
    5452:	8082                	ret
    5454:	4404                	lw	s1,8(s0)
    5456:	00442983          	lw	s3,4(s0)
    545a:	19fd                	addi	s3,s3,-1
    545c:	0009d463          	bgez	s3,5464 <_fwalk_reent+0x4c>
    5460:	4000                	lw	s0,0(s0)
    5462:	bfe1                	j	543a <_fwalk_reent+0x22>
    5464:	00c4d783          	lhu	a5,12(s1)
    5468:	00fb7b63          	bgeu	s6,a5,547e <_fwalk_reent+0x66>
    546c:	00e49783          	lh	a5,14(s1)
    5470:	01778763          	beq	a5,s7,547e <_fwalk_reent+0x66>
    5474:	85a6                	mv	a1,s1
    5476:	8552                	mv	a0,s4
    5478:	9a82                	jalr	s5
    547a:	00a96933          	or	s2,s2,a0
    547e:	06848493          	addi	s1,s1,104
    5482:	bfe1                	j	545a <_fwalk_reent+0x42>

00005484 <__swhatbuf_r>:
__swhatbuf_r():
    5484:	7119                	addi	sp,sp,-128
    5486:	daa6                	sw	s1,116(sp)
    5488:	84ae                	mv	s1,a1
    548a:	00e59583          	lh	a1,14(a1)
    548e:	dca2                	sw	s0,120(sp)
    5490:	de86                	sw	ra,124(sp)
    5492:	8432                	mv	s0,a2
    5494:	0005dc63          	bgez	a1,54ac <__swhatbuf_r+0x28>
    5498:	00c4d783          	lhu	a5,12(s1)
    549c:	0006a023          	sw	zero,0(a3)
    54a0:	0807f793          	andi	a5,a5,128
    54a4:	e39d                	bnez	a5,54ca <__swhatbuf_r+0x46>
    54a6:	40000793          	li	a5,1024
    54aa:	a015                	j	54ce <__swhatbuf_r+0x4a>
    54ac:	0830                	addi	a2,sp,24
    54ae:	c636                	sw	a3,12(sp)
    54b0:	21a1                	jal	58f8 <_fstat_r>
    54b2:	46b2                	lw	a3,12(sp)
    54b4:	fe0542e3          	bltz	a0,5498 <__swhatbuf_r+0x14>
    54b8:	4772                	lw	a4,28(sp)
    54ba:	67bd                	lui	a5,0xf
    54bc:	8ff9                	and	a5,a5,a4
    54be:	7779                	lui	a4,0xffffe
    54c0:	97ba                	add	a5,a5,a4
    54c2:	0017b793          	seqz	a5,a5
    54c6:	c29c                	sw	a5,0(a3)
    54c8:	bff9                	j	54a6 <__swhatbuf_r+0x22>
    54ca:	04000793          	li	a5,64
    54ce:	c01c                	sw	a5,0(s0)
    54d0:	50f6                	lw	ra,124(sp)
    54d2:	5466                	lw	s0,120(sp)
    54d4:	54d6                	lw	s1,116(sp)
    54d6:	4501                	li	a0,0
    54d8:	6109                	addi	sp,sp,128
    54da:	8082                	ret

000054dc <__smakebuf_r>:
__smakebuf_r():
    54dc:	00c5d783          	lhu	a5,12(a1)
    54e0:	1101                	addi	sp,sp,-32
    54e2:	cc22                	sw	s0,24(sp)
    54e4:	ce06                	sw	ra,28(sp)
    54e6:	ca26                	sw	s1,20(sp)
    54e8:	c84a                	sw	s2,16(sp)
    54ea:	8b89                	andi	a5,a5,2
    54ec:	842e                	mv	s0,a1
    54ee:	cf89                	beqz	a5,5508 <__smakebuf_r+0x2c>
    54f0:	04740793          	addi	a5,s0,71
    54f4:	c01c                	sw	a5,0(s0)
    54f6:	c81c                	sw	a5,16(s0)
    54f8:	4785                	li	a5,1
    54fa:	c85c                	sw	a5,20(s0)
    54fc:	40f2                	lw	ra,28(sp)
    54fe:	4462                	lw	s0,24(sp)
    5500:	44d2                	lw	s1,20(sp)
    5502:	4942                	lw	s2,16(sp)
    5504:	6105                	addi	sp,sp,32
    5506:	8082                	ret
    5508:	0074                	addi	a3,sp,12
    550a:	0030                	addi	a2,sp,8
    550c:	84aa                	mv	s1,a0
    550e:	f77ff0ef          	jal	ra,5484 <__swhatbuf_r>
    5512:	45a2                	lw	a1,8(sp)
    5514:	892a                	mv	s2,a0
    5516:	8526                	mv	a0,s1
    5518:	2205                	jal	5638 <_malloc_r>
    551a:	ed01                	bnez	a0,5532 <__smakebuf_r+0x56>
    551c:	00c41783          	lh	a5,12(s0)
    5520:	2007f713          	andi	a4,a5,512
    5524:	ff61                	bnez	a4,54fc <__smakebuf_r+0x20>
    5526:	9bf1                	andi	a5,a5,-4
    5528:	0027e793          	ori	a5,a5,2
    552c:	00f41623          	sh	a5,12(s0)
    5530:	b7c1                	j	54f0 <__smakebuf_r+0x14>
    5532:	00000797          	auipc	a5,0x0
    5536:	d8a78793          	addi	a5,a5,-630 # 52bc <_cleanup_r>
    553a:	d49c                	sw	a5,40(s1)
    553c:	00c45783          	lhu	a5,12(s0)
    5540:	c008                	sw	a0,0(s0)
    5542:	c808                	sw	a0,16(s0)
    5544:	0807e793          	ori	a5,a5,128
    5548:	00f41623          	sh	a5,12(s0)
    554c:	47a2                	lw	a5,8(sp)
    554e:	c85c                	sw	a5,20(s0)
    5550:	47b2                	lw	a5,12(sp)
    5552:	cf89                	beqz	a5,556c <__smakebuf_r+0x90>
    5554:	00e41583          	lh	a1,14(s0)
    5558:	8526                	mv	a0,s1
    555a:	2ec1                	jal	592a <_isatty_r>
    555c:	c901                	beqz	a0,556c <__smakebuf_r+0x90>
    555e:	00c45783          	lhu	a5,12(s0)
    5562:	9bf1                	andi	a5,a5,-4
    5564:	0017e793          	ori	a5,a5,1
    5568:	00f41623          	sh	a5,12(s0)
    556c:	00c45783          	lhu	a5,12(s0)
    5570:	00f96933          	or	s2,s2,a5
    5574:	01241623          	sh	s2,12(s0)
    5578:	b751                	j	54fc <__smakebuf_r+0x20>

0000557a <memchr>:
memchr():
    557a:	0ff5f593          	andi	a1,a1,255
    557e:	962a                	add	a2,a2,a0
    5580:	00c51463          	bne	a0,a2,5588 <memchr+0xe>
    5584:	4501                	li	a0,0
    5586:	8082                	ret
    5588:	00054783          	lbu	a5,0(a0)
    558c:	feb78de3          	beq	a5,a1,5586 <memchr+0xc>
    5590:	0505                	addi	a0,a0,1
    5592:	b7fd                	j	5580 <memchr+0x6>

00005594 <_free_r>:
_free_r():
    5594:	c1cd                	beqz	a1,5636 <_free_r+0xa2>
    5596:	ffc5a783          	lw	a5,-4(a1)
    559a:	1141                	addi	sp,sp,-16
    559c:	c422                	sw	s0,8(sp)
    559e:	c606                	sw	ra,12(sp)
    55a0:	c226                	sw	s1,4(sp)
    55a2:	ffc58413          	addi	s0,a1,-4
    55a6:	0007d363          	bgez	a5,55ac <_free_r+0x18>
    55aa:	943e                	add	s0,s0,a5
    55ac:	84aa                	mv	s1,a0
    55ae:	26c5                	jal	598e <__malloc_lock>
    55b0:	85418793          	addi	a5,gp,-1964 # 2000010c <__malloc_free_list>
    55b4:	439c                	lw	a5,0(a5)
    55b6:	eb99                	bnez	a5,55cc <_free_r+0x38>
    55b8:	00042223          	sw	zero,4(s0)
    55bc:	8481aa23          	sw	s0,-1964(gp) # 2000010c <__malloc_free_list>
    55c0:	4422                	lw	s0,8(sp)
    55c2:	40b2                	lw	ra,12(sp)
    55c4:	8526                	mv	a0,s1
    55c6:	4492                	lw	s1,4(sp)
    55c8:	0141                	addi	sp,sp,16
    55ca:	a6d9                	j	5990 <__malloc_unlock>
    55cc:	00f47e63          	bgeu	s0,a5,55e8 <_free_r+0x54>
    55d0:	4014                	lw	a3,0(s0)
    55d2:	00d40733          	add	a4,s0,a3
    55d6:	00e79663          	bne	a5,a4,55e2 <_free_r+0x4e>
    55da:	4398                	lw	a4,0(a5)
    55dc:	43dc                	lw	a5,4(a5)
    55de:	9736                	add	a4,a4,a3
    55e0:	c018                	sw	a4,0(s0)
    55e2:	c05c                	sw	a5,4(s0)
    55e4:	bfe1                	j	55bc <_free_r+0x28>
    55e6:	87ba                	mv	a5,a4
    55e8:	43d8                	lw	a4,4(a5)
    55ea:	c319                	beqz	a4,55f0 <_free_r+0x5c>
    55ec:	fee47de3          	bgeu	s0,a4,55e6 <_free_r+0x52>
    55f0:	4394                	lw	a3,0(a5)
    55f2:	00d78633          	add	a2,a5,a3
    55f6:	00861f63          	bne	a2,s0,5614 <_free_r+0x80>
    55fa:	4010                	lw	a2,0(s0)
    55fc:	96b2                	add	a3,a3,a2
    55fe:	c394                	sw	a3,0(a5)
    5600:	00d78633          	add	a2,a5,a3
    5604:	fac71ee3          	bne	a4,a2,55c0 <_free_r+0x2c>
    5608:	4310                	lw	a2,0(a4)
    560a:	4358                	lw	a4,4(a4)
    560c:	96b2                	add	a3,a3,a2
    560e:	c394                	sw	a3,0(a5)
    5610:	c3d8                	sw	a4,4(a5)
    5612:	b77d                	j	55c0 <_free_r+0x2c>
    5614:	00c47563          	bgeu	s0,a2,561e <_free_r+0x8a>
    5618:	47b1                	li	a5,12
    561a:	c09c                	sw	a5,0(s1)
    561c:	b755                	j	55c0 <_free_r+0x2c>
    561e:	4010                	lw	a2,0(s0)
    5620:	00c406b3          	add	a3,s0,a2
    5624:	00d71663          	bne	a4,a3,5630 <_free_r+0x9c>
    5628:	4314                	lw	a3,0(a4)
    562a:	4358                	lw	a4,4(a4)
    562c:	96b2                	add	a3,a3,a2
    562e:	c014                	sw	a3,0(s0)
    5630:	c058                	sw	a4,4(s0)
    5632:	c3c0                	sw	s0,4(a5)
    5634:	b771                	j	55c0 <_free_r+0x2c>
    5636:	8082                	ret

00005638 <_malloc_r>:
_malloc_r():
    5638:	1101                	addi	sp,sp,-32
    563a:	ca26                	sw	s1,20(sp)
    563c:	00358493          	addi	s1,a1,3
    5640:	98f1                	andi	s1,s1,-4
    5642:	ce06                	sw	ra,28(sp)
    5644:	cc22                	sw	s0,24(sp)
    5646:	c84a                	sw	s2,16(sp)
    5648:	c64e                	sw	s3,12(sp)
    564a:	04a1                	addi	s1,s1,8
    564c:	47b1                	li	a5,12
    564e:	04f4f163          	bgeu	s1,a5,5690 <_malloc_r+0x58>
    5652:	44b1                	li	s1,12
    5654:	04b4e063          	bltu	s1,a1,5694 <_malloc_r+0x5c>
    5658:	892a                	mv	s2,a0
    565a:	2e15                	jal	598e <__malloc_lock>
    565c:	85418793          	addi	a5,gp,-1964 # 2000010c <__malloc_free_list>
    5660:	4398                	lw	a4,0(a5)
    5662:	843a                	mv	s0,a4
    5664:	e031                	bnez	s0,56a8 <_malloc_r+0x70>
    5666:	85818793          	addi	a5,gp,-1960 # 20000110 <__malloc_sbrk_start>
    566a:	439c                	lw	a5,0(a5)
    566c:	e791                	bnez	a5,5678 <_malloc_r+0x40>
    566e:	4581                	li	a1,0
    5670:	854a                	mv	a0,s2
    5672:	2851                	jal	5706 <_sbrk_r>
    5674:	84a1ac23          	sw	a0,-1960(gp) # 20000110 <__malloc_sbrk_start>
    5678:	85a6                	mv	a1,s1
    567a:	854a                	mv	a0,s2
    567c:	2069                	jal	5706 <_sbrk_r>
    567e:	59fd                	li	s3,-1
    5680:	07351763          	bne	a0,s3,56ee <_malloc_r+0xb6>
    5684:	47b1                	li	a5,12
    5686:	00f92023          	sw	a5,0(s2)
    568a:	854a                	mv	a0,s2
    568c:	2611                	jal	5990 <__malloc_unlock>
    568e:	a029                	j	5698 <_malloc_r+0x60>
    5690:	fc04d2e3          	bgez	s1,5654 <_malloc_r+0x1c>
    5694:	47b1                	li	a5,12
    5696:	c11c                	sw	a5,0(a0)
    5698:	4501                	li	a0,0
    569a:	40f2                	lw	ra,28(sp)
    569c:	4462                	lw	s0,24(sp)
    569e:	44d2                	lw	s1,20(sp)
    56a0:	4942                	lw	s2,16(sp)
    56a2:	49b2                	lw	s3,12(sp)
    56a4:	6105                	addi	sp,sp,32
    56a6:	8082                	ret
    56a8:	401c                	lw	a5,0(s0)
    56aa:	8f85                	sub	a5,a5,s1
    56ac:	0207ce63          	bltz	a5,56e8 <_malloc_r+0xb0>
    56b0:	46ad                	li	a3,11
    56b2:	00f6f663          	bgeu	a3,a5,56be <_malloc_r+0x86>
    56b6:	c01c                	sw	a5,0(s0)
    56b8:	943e                	add	s0,s0,a5
    56ba:	c004                	sw	s1,0(s0)
    56bc:	a031                	j	56c8 <_malloc_r+0x90>
    56be:	405c                	lw	a5,4(s0)
    56c0:	02871263          	bne	a4,s0,56e4 <_malloc_r+0xac>
    56c4:	84f1aa23          	sw	a5,-1964(gp) # 2000010c <__malloc_free_list>
    56c8:	854a                	mv	a0,s2
    56ca:	24d9                	jal	5990 <__malloc_unlock>
    56cc:	00b40513          	addi	a0,s0,11
    56d0:	00440793          	addi	a5,s0,4
    56d4:	9961                	andi	a0,a0,-8
    56d6:	40f50733          	sub	a4,a0,a5
    56da:	d361                	beqz	a4,569a <_malloc_r+0x62>
    56dc:	943a                	add	s0,s0,a4
    56de:	8f89                	sub	a5,a5,a0
    56e0:	c01c                	sw	a5,0(s0)
    56e2:	bf65                	j	569a <_malloc_r+0x62>
    56e4:	c35c                	sw	a5,4(a4)
    56e6:	b7cd                	j	56c8 <_malloc_r+0x90>
    56e8:	8722                	mv	a4,s0
    56ea:	4040                	lw	s0,4(s0)
    56ec:	bfa5                	j	5664 <_malloc_r+0x2c>
    56ee:	00350413          	addi	s0,a0,3
    56f2:	9871                	andi	s0,s0,-4
    56f4:	fc8503e3          	beq	a0,s0,56ba <_malloc_r+0x82>
    56f8:	40a405b3          	sub	a1,s0,a0
    56fc:	854a                	mv	a0,s2
    56fe:	2021                	jal	5706 <_sbrk_r>
    5700:	fb351de3          	bne	a0,s3,56ba <_malloc_r+0x82>
    5704:	b741                	j	5684 <_malloc_r+0x4c>

00005706 <_sbrk_r>:
_sbrk_r():
    5706:	1141                	addi	sp,sp,-16
    5708:	c422                	sw	s0,8(sp)
    570a:	842a                	mv	s0,a0
    570c:	852e                	mv	a0,a1
    570e:	1fffd797          	auipc	a5,0x1fffd
    5712:	0007a323          	sw	zero,6(a5) # 20002714 <errno>
    5716:	c606                	sw	ra,12(sp)
    5718:	2e39                	jal	5a36 <_sbrk>
    571a:	57fd                	li	a5,-1
    571c:	00f51963          	bne	a0,a5,572e <_sbrk_r+0x28>
    5720:	1fffd797          	auipc	a5,0x1fffd
    5724:	ff478793          	addi	a5,a5,-12 # 20002714 <errno>
    5728:	439c                	lw	a5,0(a5)
    572a:	c391                	beqz	a5,572e <_sbrk_r+0x28>
    572c:	c01c                	sw	a5,0(s0)
    572e:	40b2                	lw	ra,12(sp)
    5730:	4422                	lw	s0,8(sp)
    5732:	0141                	addi	sp,sp,16
    5734:	8082                	ret

00005736 <_raise_r>:
_raise_r():
    5736:	47fd                	li	a5,31
    5738:	00b7f663          	bgeu	a5,a1,5744 <_raise_r+0xe>
    573c:	47d9                	li	a5,22
    573e:	c11c                	sw	a5,0(a0)
    5740:	557d                	li	a0,-1
    5742:	8082                	ret
    5744:	417c                	lw	a5,68(a0)
    5746:	1101                	addi	sp,sp,-32
    5748:	cc22                	sw	s0,24(sp)
    574a:	ce06                	sw	ra,28(sp)
    574c:	862e                	mv	a2,a1
    574e:	842a                	mv	s0,a0
    5750:	c791                	beqz	a5,575c <_raise_r+0x26>
    5752:	00259713          	slli	a4,a1,0x2
    5756:	97ba                	add	a5,a5,a4
    5758:	4398                	lw	a4,0(a5)
    575a:	eb19                	bnez	a4,5770 <_raise_r+0x3a>
    575c:	8522                	mv	a0,s0
    575e:	c632                	sw	a2,12(sp)
    5760:	289d                	jal	57d6 <_getpid_r>
    5762:	85aa                	mv	a1,a0
    5764:	8522                	mv	a0,s0
    5766:	4462                	lw	s0,24(sp)
    5768:	4632                	lw	a2,12(sp)
    576a:	40f2                	lw	ra,28(sp)
    576c:	6105                	addi	sp,sp,32
    576e:	a81d                	j	57a4 <_kill_r>
    5770:	4685                	li	a3,1
    5772:	4501                	li	a0,0
    5774:	00d70863          	beq	a4,a3,5784 <_raise_r+0x4e>
    5778:	56fd                	li	a3,-1
    577a:	00d71963          	bne	a4,a3,578c <_raise_r+0x56>
    577e:	47d9                	li	a5,22
    5780:	c01c                	sw	a5,0(s0)
    5782:	4505                	li	a0,1
    5784:	40f2                	lw	ra,28(sp)
    5786:	4462                	lw	s0,24(sp)
    5788:	6105                	addi	sp,sp,32
    578a:	8082                	ret
    578c:	852e                	mv	a0,a1
    578e:	0007a023          	sw	zero,0(a5)
    5792:	9702                	jalr	a4
    5794:	4501                	li	a0,0
    5796:	b7fd                	j	5784 <_raise_r+0x4e>

00005798 <raise>:
raise():
    5798:	81418793          	addi	a5,gp,-2028 # 200000cc <_impure_ptr>
    579c:	85aa                	mv	a1,a0
    579e:	4388                	lw	a0,0(a5)
    57a0:	f97ff06f          	j	5736 <_raise_r>

000057a4 <_kill_r>:
_kill_r():
    57a4:	1141                	addi	sp,sp,-16
    57a6:	c422                	sw	s0,8(sp)
    57a8:	842a                	mv	s0,a0
    57aa:	852e                	mv	a0,a1
    57ac:	85b2                	mv	a1,a2
    57ae:	1fffd797          	auipc	a5,0x1fffd
    57b2:	f607a323          	sw	zero,-154(a5) # 20002714 <errno>
    57b6:	c606                	sw	ra,12(sp)
    57b8:	24b9                	jal	5a06 <_kill>
    57ba:	57fd                	li	a5,-1
    57bc:	00f51963          	bne	a0,a5,57ce <_kill_r+0x2a>
    57c0:	1fffd797          	auipc	a5,0x1fffd
    57c4:	f5478793          	addi	a5,a5,-172 # 20002714 <errno>
    57c8:	439c                	lw	a5,0(a5)
    57ca:	c391                	beqz	a5,57ce <_kill_r+0x2a>
    57cc:	c01c                	sw	a5,0(s0)
    57ce:	40b2                	lw	ra,12(sp)
    57d0:	4422                	lw	s0,8(sp)
    57d2:	0141                	addi	sp,sp,16
    57d4:	8082                	ret

000057d6 <_getpid_r>:
_getpid_r():
    57d6:	ac01                	j	59e6 <_getpid>

000057d8 <__sread>:
__sread():
    57d8:	1141                	addi	sp,sp,-16
    57da:	c422                	sw	s0,8(sp)
    57dc:	842e                	mv	s0,a1
    57de:	00e59583          	lh	a1,14(a1)
    57e2:	c606                	sw	ra,12(sp)
    57e4:	227d                	jal	5992 <_read_r>
    57e6:	00054963          	bltz	a0,57f8 <__sread+0x20>
    57ea:	487c                	lw	a5,84(s0)
    57ec:	97aa                	add	a5,a5,a0
    57ee:	c87c                	sw	a5,84(s0)
    57f0:	40b2                	lw	ra,12(sp)
    57f2:	4422                	lw	s0,8(sp)
    57f4:	0141                	addi	sp,sp,16
    57f6:	8082                	ret
    57f8:	00c45783          	lhu	a5,12(s0)
    57fc:	777d                	lui	a4,0xfffff
    57fe:	177d                	addi	a4,a4,-1
    5800:	8ff9                	and	a5,a5,a4
    5802:	00f41623          	sh	a5,12(s0)
    5806:	b7ed                	j	57f0 <__sread+0x18>

00005808 <__swrite>:
__swrite():
    5808:	00c5d783          	lhu	a5,12(a1)
    580c:	1101                	addi	sp,sp,-32
    580e:	cc22                	sw	s0,24(sp)
    5810:	ca26                	sw	s1,20(sp)
    5812:	c84a                	sw	s2,16(sp)
    5814:	c64e                	sw	s3,12(sp)
    5816:	ce06                	sw	ra,28(sp)
    5818:	1007f793          	andi	a5,a5,256
    581c:	84aa                	mv	s1,a0
    581e:	842e                	mv	s0,a1
    5820:	8932                	mv	s2,a2
    5822:	89b6                	mv	s3,a3
    5824:	c791                	beqz	a5,5830 <__swrite+0x28>
    5826:	00e59583          	lh	a1,14(a1)
    582a:	4689                	li	a3,2
    582c:	4601                	li	a2,0
    582e:	2235                	jal	595a <_lseek_r>
    5830:	00c45783          	lhu	a5,12(s0)
    5834:	777d                	lui	a4,0xfffff
    5836:	177d                	addi	a4,a4,-1
    5838:	8ff9                	and	a5,a5,a4
    583a:	00f41623          	sh	a5,12(s0)
    583e:	00e41583          	lh	a1,14(s0)
    5842:	4462                	lw	s0,24(sp)
    5844:	40f2                	lw	ra,28(sp)
    5846:	86ce                	mv	a3,s3
    5848:	864a                	mv	a2,s2
    584a:	49b2                	lw	s3,12(sp)
    584c:	4942                	lw	s2,16(sp)
    584e:	8526                	mv	a0,s1
    5850:	44d2                	lw	s1,20(sp)
    5852:	6105                	addi	sp,sp,32
    5854:	a83d                	j	5892 <_write_r>

00005856 <__sseek>:
__sseek():
    5856:	1141                	addi	sp,sp,-16
    5858:	c422                	sw	s0,8(sp)
    585a:	842e                	mv	s0,a1
    585c:	00e59583          	lh	a1,14(a1)
    5860:	c606                	sw	ra,12(sp)
    5862:	28e5                	jal	595a <_lseek_r>
    5864:	57fd                	li	a5,-1
    5866:	00c45703          	lhu	a4,12(s0)
    586a:	00f51b63          	bne	a0,a5,5880 <__sseek+0x2a>
    586e:	77fd                	lui	a5,0xfffff
    5870:	17fd                	addi	a5,a5,-1
    5872:	8ff9                	and	a5,a5,a4
    5874:	00f41623          	sh	a5,12(s0)
    5878:	40b2                	lw	ra,12(sp)
    587a:	4422                	lw	s0,8(sp)
    587c:	0141                	addi	sp,sp,16
    587e:	8082                	ret
    5880:	6785                	lui	a5,0x1
    5882:	8fd9                	or	a5,a5,a4
    5884:	00f41623          	sh	a5,12(s0)
    5888:	c868                	sw	a0,84(s0)
    588a:	b7fd                	j	5878 <__sseek+0x22>

0000588c <__sclose>:
__sclose():
    588c:	00e59583          	lh	a1,14(a1)
    5890:	a825                	j	58c8 <_close_r>

00005892 <_write_r>:
_write_r():
    5892:	1141                	addi	sp,sp,-16
    5894:	c422                	sw	s0,8(sp)
    5896:	842a                	mv	s0,a0
    5898:	852e                	mv	a0,a1
    589a:	85b2                	mv	a1,a2
    589c:	8636                	mv	a2,a3
    589e:	1fffd797          	auipc	a5,0x1fffd
    58a2:	e607ab23          	sw	zero,-394(a5) # 20002714 <errno>
    58a6:	c606                	sw	ra,12(sp)
    58a8:	9d3fe0ef          	jal	ra,427a <_write>
    58ac:	57fd                	li	a5,-1
    58ae:	00f51963          	bne	a0,a5,58c0 <_write_r+0x2e>
    58b2:	1fffd797          	auipc	a5,0x1fffd
    58b6:	e6278793          	addi	a5,a5,-414 # 20002714 <errno>
    58ba:	439c                	lw	a5,0(a5)
    58bc:	c391                	beqz	a5,58c0 <_write_r+0x2e>
    58be:	c01c                	sw	a5,0(s0)
    58c0:	40b2                	lw	ra,12(sp)
    58c2:	4422                	lw	s0,8(sp)
    58c4:	0141                	addi	sp,sp,16
    58c6:	8082                	ret

000058c8 <_close_r>:
_close_r():
    58c8:	1141                	addi	sp,sp,-16
    58ca:	c422                	sw	s0,8(sp)
    58cc:	842a                	mv	s0,a0
    58ce:	852e                	mv	a0,a1
    58d0:	1fffd797          	auipc	a5,0x1fffd
    58d4:	e407a223          	sw	zero,-444(a5) # 20002714 <errno>
    58d8:	c606                	sw	ra,12(sp)
    58da:	20f5                	jal	59c6 <_close>
    58dc:	57fd                	li	a5,-1
    58de:	00f51963          	bne	a0,a5,58f0 <_close_r+0x28>
    58e2:	1fffd797          	auipc	a5,0x1fffd
    58e6:	e3278793          	addi	a5,a5,-462 # 20002714 <errno>
    58ea:	439c                	lw	a5,0(a5)
    58ec:	c391                	beqz	a5,58f0 <_close_r+0x28>
    58ee:	c01c                	sw	a5,0(s0)
    58f0:	40b2                	lw	ra,12(sp)
    58f2:	4422                	lw	s0,8(sp)
    58f4:	0141                	addi	sp,sp,16
    58f6:	8082                	ret

000058f8 <_fstat_r>:
_fstat_r():
    58f8:	1141                	addi	sp,sp,-16
    58fa:	c422                	sw	s0,8(sp)
    58fc:	842a                	mv	s0,a0
    58fe:	852e                	mv	a0,a1
    5900:	85b2                	mv	a1,a2
    5902:	1fffd797          	auipc	a5,0x1fffd
    5906:	e007a923          	sw	zero,-494(a5) # 20002714 <errno>
    590a:	c606                	sw	ra,12(sp)
    590c:	20e9                	jal	59d6 <_fstat>
    590e:	57fd                	li	a5,-1
    5910:	00f51963          	bne	a0,a5,5922 <_fstat_r+0x2a>
    5914:	1fffd797          	auipc	a5,0x1fffd
    5918:	e0078793          	addi	a5,a5,-512 # 20002714 <errno>
    591c:	439c                	lw	a5,0(a5)
    591e:	c391                	beqz	a5,5922 <_fstat_r+0x2a>
    5920:	c01c                	sw	a5,0(s0)
    5922:	40b2                	lw	ra,12(sp)
    5924:	4422                	lw	s0,8(sp)
    5926:	0141                	addi	sp,sp,16
    5928:	8082                	ret

0000592a <_isatty_r>:
_isatty_r():
    592a:	1141                	addi	sp,sp,-16
    592c:	c422                	sw	s0,8(sp)
    592e:	842a                	mv	s0,a0
    5930:	852e                	mv	a0,a1
    5932:	1fffd797          	auipc	a5,0x1fffd
    5936:	de07a123          	sw	zero,-542(a5) # 20002714 <errno>
    593a:	c606                	sw	ra,12(sp)
    593c:	286d                	jal	59f6 <_isatty>
    593e:	57fd                	li	a5,-1
    5940:	00f51963          	bne	a0,a5,5952 <_isatty_r+0x28>
    5944:	1fffd797          	auipc	a5,0x1fffd
    5948:	dd078793          	addi	a5,a5,-560 # 20002714 <errno>
    594c:	439c                	lw	a5,0(a5)
    594e:	c391                	beqz	a5,5952 <_isatty_r+0x28>
    5950:	c01c                	sw	a5,0(s0)
    5952:	40b2                	lw	ra,12(sp)
    5954:	4422                	lw	s0,8(sp)
    5956:	0141                	addi	sp,sp,16
    5958:	8082                	ret

0000595a <_lseek_r>:
_lseek_r():
    595a:	1141                	addi	sp,sp,-16
    595c:	c422                	sw	s0,8(sp)
    595e:	842a                	mv	s0,a0
    5960:	852e                	mv	a0,a1
    5962:	85b2                	mv	a1,a2
    5964:	8636                	mv	a2,a3
    5966:	1fffd797          	auipc	a5,0x1fffd
    596a:	da07a723          	sw	zero,-594(a5) # 20002714 <errno>
    596e:	c606                	sw	ra,12(sp)
    5970:	205d                	jal	5a16 <_lseek>
    5972:	57fd                	li	a5,-1
    5974:	00f51963          	bne	a0,a5,5986 <_lseek_r+0x2c>
    5978:	1fffd797          	auipc	a5,0x1fffd
    597c:	d9c78793          	addi	a5,a5,-612 # 20002714 <errno>
    5980:	439c                	lw	a5,0(a5)
    5982:	c391                	beqz	a5,5986 <_lseek_r+0x2c>
    5984:	c01c                	sw	a5,0(s0)
    5986:	40b2                	lw	ra,12(sp)
    5988:	4422                	lw	s0,8(sp)
    598a:	0141                	addi	sp,sp,16
    598c:	8082                	ret

0000598e <__malloc_lock>:
__malloc_lock():
    598e:	8082                	ret

00005990 <__malloc_unlock>:
__malloc_unlock():
    5990:	8082                	ret

00005992 <_read_r>:
_read_r():
    5992:	1141                	addi	sp,sp,-16
    5994:	c422                	sw	s0,8(sp)
    5996:	842a                	mv	s0,a0
    5998:	852e                	mv	a0,a1
    599a:	85b2                	mv	a1,a2
    599c:	8636                	mv	a2,a3
    599e:	1fffd797          	auipc	a5,0x1fffd
    59a2:	d607ab23          	sw	zero,-650(a5) # 20002714 <errno>
    59a6:	c606                	sw	ra,12(sp)
    59a8:	28bd                	jal	5a26 <_read>
    59aa:	57fd                	li	a5,-1
    59ac:	00f51963          	bne	a0,a5,59be <_read_r+0x2c>
    59b0:	1fffd797          	auipc	a5,0x1fffd
    59b4:	d6478793          	addi	a5,a5,-668 # 20002714 <errno>
    59b8:	439c                	lw	a5,0(a5)
    59ba:	c391                	beqz	a5,59be <_read_r+0x2c>
    59bc:	c01c                	sw	a5,0(s0)
    59be:	40b2                	lw	ra,12(sp)
    59c0:	4422                	lw	s0,8(sp)
    59c2:	0141                	addi	sp,sp,16
    59c4:	8082                	ret

000059c6 <_close>:
_close():
    59c6:	05800793          	li	a5,88
    59ca:	1fffd717          	auipc	a4,0x1fffd
    59ce:	d4f72523          	sw	a5,-694(a4) # 20002714 <errno>
    59d2:	557d                	li	a0,-1
    59d4:	8082                	ret

000059d6 <_fstat>:
_fstat():
    59d6:	05800793          	li	a5,88
    59da:	1fffd717          	auipc	a4,0x1fffd
    59de:	d2f72d23          	sw	a5,-710(a4) # 20002714 <errno>
    59e2:	557d                	li	a0,-1
    59e4:	8082                	ret

000059e6 <_getpid>:
_getpid():
    59e6:	05800793          	li	a5,88
    59ea:	1fffd717          	auipc	a4,0x1fffd
    59ee:	d2f72523          	sw	a5,-726(a4) # 20002714 <errno>
    59f2:	557d                	li	a0,-1
    59f4:	8082                	ret

000059f6 <_isatty>:
_isatty():
    59f6:	05800793          	li	a5,88
    59fa:	1fffd717          	auipc	a4,0x1fffd
    59fe:	d0f72d23          	sw	a5,-742(a4) # 20002714 <errno>
    5a02:	4501                	li	a0,0
    5a04:	8082                	ret

00005a06 <_kill>:
_kill():
    5a06:	05800793          	li	a5,88
    5a0a:	1fffd717          	auipc	a4,0x1fffd
    5a0e:	d0f72523          	sw	a5,-758(a4) # 20002714 <errno>
    5a12:	557d                	li	a0,-1
    5a14:	8082                	ret

00005a16 <_lseek>:
_lseek():
    5a16:	05800793          	li	a5,88
    5a1a:	1fffd717          	auipc	a4,0x1fffd
    5a1e:	cef72d23          	sw	a5,-774(a4) # 20002714 <errno>
    5a22:	557d                	li	a0,-1
    5a24:	8082                	ret

00005a26 <_read>:
_read():
    5a26:	05800793          	li	a5,88
    5a2a:	1fffd717          	auipc	a4,0x1fffd
    5a2e:	cef72523          	sw	a5,-790(a4) # 20002714 <errno>
    5a32:	557d                	li	a0,-1
    5a34:	8082                	ret

00005a36 <_sbrk>:
_sbrk():
    5a36:	85c18793          	addi	a5,gp,-1956 # 20000114 <heap_end.1518>
    5a3a:	439c                	lw	a5,0(a5)
    5a3c:	c791                	beqz	a5,5a48 <_sbrk+0x12>
    5a3e:	953e                	add	a0,a0,a5
    5a40:	84a1ae23          	sw	a0,-1956(gp) # 20000114 <heap_end.1518>
    5a44:	853e                	mv	a0,a5
    5a46:	8082                	ret
    5a48:	1fffd797          	auipc	a5,0x1fffd
    5a4c:	cd078793          	addi	a5,a5,-816 # 20002718 <_ebss>
    5a50:	953e                	add	a0,a0,a5
    5a52:	84a1ae23          	sw	a0,-1956(gp) # 20000114 <heap_end.1518>
    5a56:	853e                	mv	a0,a5
    5a58:	8082                	ret

00005a5a <_exit>:
_exit():
    5a5a:	a001                	j	5a5a <_exit>
    5a5c:	6425                	lui	s0,0x9
    5a5e:	0000                	unimp
    5a60:	6625                	lui	a2,0x9
    5a62:	0000                	unimp
    5a64:	0030                	addi	a2,sp,8
    5a66:	0000                	unimp
    5a68:	2e2e                	fld	ft8,200(sp)
    5a6a:	62694c2f          	0x62694c2f
    5a6e:	6172                	flw	ft2,28(sp)
    5a70:	6972                	flw	fs2,28(sp)
    5a72:	7365                	lui	t1,0xffff9
    5a74:	6565732f          	0x6565732f
    5a78:	6572666b          	0x6572666b
    5a7c:	5f65                	li	t5,-7
    5a7e:	6570                	flw	fa2,76(a0)
    5a80:	6972                	flw	fs2,28(sp)
    5a82:	6870                	flw	fa2,84(s0)
    5a84:	7265                	lui	tp,0xffff9
    5a86:	6c61                	lui	s8,0x18
    5a88:	4545532f          	0x4545532f
    5a8c:	4552464b          	0x4552464b
    5a90:	5f45                	li	t5,-15
    5a92:	5049                	c.li	zero,-14
    5a94:	34313153          	0x34313153
    5a98:	535f 4950 632e      	0x632e4950535f
    5a9e:	0000                	unimp
    5aa0:	736d                	lui	t1,0xffffb
    5aa2:	0000                	unimp
    5aa4:	2e2e                	fld	ft8,200(sp)
    5aa6:	62694c2f          	0x62694c2f
    5aaa:	6172                	flw	ft2,28(sp)
    5aac:	6972                	flw	fs2,28(sp)
    5aae:	7365                	lui	t1,0xffff9
    5ab0:	6565732f          	0x6565732f
    5ab4:	6572666b          	0x6572666b
    5ab8:	5f65                	li	t5,-7
    5aba:	696c                	flw	fa1,84(a0)
    5abc:	7262                	flw	ft4,56(sp)
    5abe:	7261                	lui	tp,0xffff8
    5ac0:	6569                	lui	a0,0x1a
    5ac2:	667a2f73          	csrrs	t5,0x667,s4
    5ac6:	705f 7469 632e      	0x632e7469705f
    5acc:	0000                	unimp
    5ace:	0000                	unimp
    5ad0:	7375                	lui	t1,0xffffd
    5ad2:	0000                	unimp
    5ad4:	0030                	addi	a2,sp,8
    5ad6:	0000                	unimp
    5ad8:	2e2e                	fld	ft8,200(sp)
    5ada:	62694c2f          	0x62694c2f
    5ade:	6172                	flw	ft2,28(sp)
    5ae0:	6972                	flw	fs2,28(sp)
    5ae2:	7365                	lui	t1,0xffff9
    5ae4:	6565732f          	0x6565732f
    5ae8:	6572666b          	0x6572666b
    5aec:	5f65                	li	t5,-7
    5aee:	696c                	flw	fa1,84(a0)
    5af0:	7262                	flw	ft4,56(sp)
    5af2:	7261                	lui	tp,0xffff8
    5af4:	6569                	lui	a0,0x1a
    5af6:	667a2f73          	csrrs	t5,0x667,s4
    5afa:	735f 6970 632e      	0x632e6970735f
    5b00:	0000                	unimp
	...

00005b04 <tft_ascii>:
	...
    5b14:	0000 0800 0808 0808 0808 0000 0808 0000     ................
    5b24:	4800 2424 0012 0000 0000 0000 0000 0000     .H$$............
    5b34:	0000 4800 4848 247e 2424 247e 2424 0000     ...HHH~$$$~$$$..
    5b44:	0000 3c10 5252 1c12 5030 5250 3c52 1010     ...<RR..0PPRR<..
    5b54:	0000 2200 1525 0d15 582a 5454 2252 0000     ..."%...*XTTR"..
    5b64:	0000 0c00 1212 0a12 2576 1929 6e91 0000     ........v%)..n..
    5b74:	0600 0404 0002 0000 0000 0000 0000 0000     ................
    5b84:	4000 1020 0810 0808 0808 1008 2010 0040     .@ .......... @.
    5b94:	0200 0804 1008 1010 1010 0810 0408 0002     ................
    5ba4:	0000 0000 0808 1c6b 6b1c 0808 0000 0000     ......k..k......
    5bb4:	0000 0000 1000 1010 10fe 1010 0000 0000     ................
	...
    5bd0:	0406 0204 0000 0000 0000 0000 007e 0000     ............~...
	...
    5bf0:	0606 0000 0000 2040 2020 1010 0808 0408     ......@   ......
    5c00:	0204 0002 0000 1800 4224 4242 4242 4242     ........$BBBBBBB
    5c10:	1824 0000 0000 1000 101c 1010 1010 1010     $...............
    5c20:	7c10 0000 0000 3c00 4242 4042 1020 0408     .|.....<BBB@ ...
    5c30:	7e42 0000 0000 3c00 4242 2040 2018 4240     B~.....<BB@ . @B
    5c40:	3c42 0000 0000 2000 3030 2428 2224 20fe     B<..... 00($$". 
    5c50:	f820 0000 0000 7e00 0202 1e02 4022 4240      ......~...."@@B
    5c60:	1c22 0000 0000 1800 0224 3a02 4246 4242     ".......$..:FBBB
    5c70:	3844 0000 0000 7e00 2042 1020 0810 0808     D8.....~B  .....
    5c80:	0808 0000 0000 3c00 4242 2442 2418 4242     .......<BBB$.$BB
    5c90:	3c42 0000 0000 1c00 4222 4242 5c62 4040     B<......"BBBb\@@
    5ca0:	1824 0000 0000 0000 0000 1818 0000 0000     $...............
    5cb0:	1818 0000 0000 0000 0000 0800 0000 0000     ................
    5cc0:	0800 0808 0000 4000 1020 0408 0402 1008     .......@ .......
    5cd0:	4020 0000 0000 0000 0000 007e 7e00 0000      @........~..~..
    5ce0:	0000 0000 0000 0200 0804 2010 2040 0810     ........... @ ..
    5cf0:	0204 0000 0000 3c00 4242 2046 1010 0010     .......<BBF ....
    5d00:	1818 0000 0000 1c00 5a22 5555 5555 3a55     ........"ZUUUUU:
    5d10:	3c42 0000 0000 0800 1808 1414 3c24 4222     B<..........$<"B
    5d20:	e742 0000 0000 1f00 2222 1e22 4222 4242     B......."""."BBB
    5d30:	1f22 0000 0000 7c00 4242 0101 0101 4201     "......|BB.....B
    5d40:	1c22 0000 0000 1f00 4222 4242 4242 4242     "......."BBBBBBB
    5d50:	1f22 0000 0000 3f00 1242 1e12 1212 4202     "......?B......B
    5d60:	3f42 0000 0000 3f00 1242 1e12 1212 0202     B?.....?B.......
    5d70:	0702 0000 0000 3c00 2222 0101 7101 2221     .......<""...q!"
    5d80:	1c22 0000 0000 e700 4242 4242 427e 4242     ".......BBBB~BBB
    5d90:	e742 0000 0000 3e00 0808 0808 0808 0808     B......>........
    5da0:	3e08 0000 0000 7c00 1010 1010 1010 1010     .>.....|........
    5db0:	1010 0f11 0000 7700 1222 0e0a 120a 2212     .......w"......"
    5dc0:	7722 0000 0000 0700 0202 0202 0202 0202     "w..............
    5dd0:	7f42 0000 0000 7700 3636 3636 2a36 2a2a     B......w66666***
    5de0:	6b2a 0000 0000 e300 4646 4a4a 5252 6252     *k......FFJJRRRb
    5df0:	4762 0000 0000 1c00 4122 4141 4141 4141     bG......"AAAAAAA
    5e00:	1c22 0000 0000 3f00 4242 4242 023e 0202     "......?BBBB>...
    5e10:	0702 0000 0000 1c00 4122 4141 4141 4d41     ........"AAAAAAM
    5e20:	1c32 0060 0000 3f00 4242 3e42 1212 2222     2.`....?BBB>..""
    5e30:	c742 0000 0000 7c00 4242 0402 2018 4240     B......|BB... @B
    5e40:	3e42 0000 0000 7f00 0849 0808 0808 0808     B>......I.......
    5e50:	1c08 0000 0000 e700 4242 4242 4242 4242     ........BBBBBBBB
    5e60:	3c42 0000 0000 e700 4242 2422 1424 1814     B<......BB"$$...
    5e70:	0808 0000 0000 6b00 2a2a 2a2a 362a 1414     .......k*****6..
    5e80:	1414 0000 0000 e700 2442 1824 1818 2424     ........B$$...$$
    5e90:	e742 0000 0000 7700 2222 1414 0808 0808     B......w""......
    5ea0:	1c08 0000 0000 7e00 2021 1010 0408 4204     .......~! .....B
    5eb0:	3f42 0000 7800 0808 0808 0808 0808 0808     B?...x..........
    5ec0:	0808 0078 0000 0402 0404 0808 1008 2010     ..x............ 
    5ed0:	2020 4040 1e00 1010 1010 1010 1010 1010       @@............
    5ee0:	1010 001e 1800 0024 0000 0000 0000 0000     ......$.........
	...
    5f00:	0000 ff00 0600 0008 0000 0000 0000 0000     ................
	...
    5f18:	0000 1c00 3022 222c 6c32 0000 0000 0000     ...."0,"2l......
    5f28:	0203 1a02 4226 4242 1a26 0000 0000 0000     ....&BBB&.......
    5f38:	0000 3800 0244 0202 3844 0000 0000 0000     ...8D...D8......
    5f48:	4060 7c40 4242 4242 dc62 0000 0000 0000     `@@|BBBBb.......
    5f58:	0000 3c00 4242 027e 3c42 0000 0000 0000     ...<BB~.B<......
    5f68:	4830 3e08 0808 0808 3e08 0000 0000 0000     0H.>.....>......
    5f78:	0000 7c00 2222 021c 423c 3c42 0000 0000     ...|""..<BB<....
    5f88:	0203 3a02 4246 4242 e742 0000 0000 0c00     ...:FBBBB.......
    5f98:	000c 0e00 0808 0808 3e08 0000 0000 3000     .........>.....0
    5fa8:	0030 3800 2020 2020 2020 1e22 0000 0000     0..8      ".....
    5fb8:	0203 7202 0a12 120e 7722 0000 0000 0800     ...r...."w......
    5fc8:	080e 0808 0808 0808 3e08 0000 0000 0000     .........>......
    5fd8:	0000 7f00 9292 9292 b792 0000 0000 0000     ................
    5fe8:	0000 3b00 4246 4242 e742 0000 0000 0000     ...;FBBBB.......
    5ff8:	0000 3c00 4242 4242 3c42 0000 0000 0000     ...<BBBBB<......
    6008:	0000 1b00 4226 4242 1a26 0702 0000 0000     ....&BBB&.......
    6018:	0000 5800 4264 4242 5864 e040 0000 0000     ...XdBBBdX@.....
    6028:	0000 7700 044c 0404 1f04 0000 0000 0000     ...wL...........
    6038:	0000 7c00 0242 403c 3e42 0000 0000 0000     ...|B.<@B>......
    6048:	0800 3e08 0808 0808 3048 0000 0000 0000     ...>....H0......
    6058:	0000 6300 4242 4242 dc62 0000 0000 0000     ...cBBBBb.......
    6068:	0000 7700 2222 1414 0808 0000 0000 0000     ...w""..........
    6078:	0000 db00 5291 2a5a 2424 0000 0000 0000     .....RZ*$$......
    6088:	0000 6e00 1824 1818 7624 0000 0000 0000     ...n$...$v......
    6098:	0000 e700 2442 1824 0818 0608 0000 0000     ....B$$.........
    60a8:	0000 7e00 1022 0808 7e44 0000 c000 2020     ...~"...D~....  
    60b8:	2020 2020 2010 2020 2020 00c0 1010 1010         .     ......
    60c8:	1010 1010 1010 1010 1010 1010 0300 0404     ................
    60d8:	0404 0404 0408 0404 0404 0003 5a04 0020     .............Z .
	...

000060f4 <__func__.3381>:
    60f4:	7069 3173 3431 645f 7369 6c70 7961 6d69     ips114_displayim
    6104:	6761 3065 3233 7a5f 6f6f 316d 0000 0000     age032_zoom1....

00006114 <GPION>:
    6114:	0800 4001 0c00 4001 1000 4001 1400 4001     ...@...@...@...@

00006124 <__func__.3548>:
    6124:	6974 656d 5f72 6970 5f74 6e69 6574 7272     timer_pit_interr
    6134:	7075 5f74 736d 0000                         upt_ms..

0000613c <TIMERN>:
    613c:	2c00 4001 0000 4000 0400 4000 0800 4000     .,.@...@...@...@

0000614c <__func__.3348>:
    614c:	7073 5f69 7067 6f69 695f 696e 0074 0000     spi_gpio_init...

0000615c <UARTN>:
    615c:	3800 4001 4400 4000 4800 4000 4c00 4000     .8.@.D.@.H.@.L.@
    616c:	202c 7566 636e 6974 6e6f 203a 0000 0000     , function: ....
    617c:	7361 6573 7472 6f69 206e 2522 2273 6620     assertion "%s" f
    618c:	6961 656c 3a64 6620 6c69 2065 2522 2273     ailed: file "%s"
    619c:	202c 696c 656e 2520 2564 2573 0a73 0000     , line %d%s%s...
    61ac:	2d23 2b30 0020 0000 6c68 004c 6665 4567     #-0+ ...hlL.efgE
    61bc:	4746 0000 3130 3332 3534 3736 3938 4241     FG..0123456789AB
    61cc:	4443 4645 0000 0000 3130 3332 3534 3736     CDEF....01234567
    61dc:	3938 6261 6463 6665 0000 0000               89abcdef....

000061e8 <__sf_fake_stderr>:
	...

00006208 <__sf_fake_stdin>:
	...

00006228 <__sf_fake_stdout>:
	...
